   1              		.syntax unified
   2              		.cpu cortex-m4
   3              		.eabi_attribute 27, 3
   4              		.fpu fpv4-sp-d16
   5              		.eabi_attribute 20, 1
   6              		.eabi_attribute 21, 1
   7              		.eabi_attribute 23, 3
   8              		.eabi_attribute 24, 1
   9              		.eabi_attribute 25, 1
  10              		.eabi_attribute 26, 1
  11              		.eabi_attribute 30, 6
  12              		.eabi_attribute 34, 1
  13              		.eabi_attribute 18, 4
  14              		.thumb
  15              		.file	"stm32f4xx_cryp_aes.c"
  16              		.text
  17              	.Ltext0:
  18              		.cfi_sections	.debug_frame
  19              		.section	.text.CRYP_AES_ECB,"ax",%progbits
  20              		.align	2
  21              		.global	CRYP_AES_ECB
  22              		.thumb
  23              		.thumb_func
  25              	CRYP_AES_ECB:
  26              	.LFB110:
  27              		.file 1 "libs/STM32F4xx_StdPeriph_Driver/src/stm32f4xx_cryp_aes.c"
   1:libs/STM32F4xx_StdPeriph_Driver/src/stm32f4xx_cryp_aes.c **** /**
   2:libs/STM32F4xx_StdPeriph_Driver/src/stm32f4xx_cryp_aes.c ****   ******************************************************************************
   3:libs/STM32F4xx_StdPeriph_Driver/src/stm32f4xx_cryp_aes.c ****   * @file    stm32f4xx_cryp_aes.c
   4:libs/STM32F4xx_StdPeriph_Driver/src/stm32f4xx_cryp_aes.c ****   * @author  MCD Application Team
   5:libs/STM32F4xx_StdPeriph_Driver/src/stm32f4xx_cryp_aes.c ****   * @version V1.0.0RC1
   6:libs/STM32F4xx_StdPeriph_Driver/src/stm32f4xx_cryp_aes.c ****   * @date    25-August-2011
   7:libs/STM32F4xx_StdPeriph_Driver/src/stm32f4xx_cryp_aes.c ****   * @brief   This file provides high level functions to encrypt and decrypt an 
   8:libs/STM32F4xx_StdPeriph_Driver/src/stm32f4xx_cryp_aes.c ****   *          input message using AES in ECB/CBC/CTR modes.
   9:libs/STM32F4xx_StdPeriph_Driver/src/stm32f4xx_cryp_aes.c ****   *          It uses the stm32f4xx_cryp.c/.h drivers to access the STM32F4xx CRYP
  10:libs/STM32F4xx_StdPeriph_Driver/src/stm32f4xx_cryp_aes.c ****   *          peripheral.
  11:libs/STM32F4xx_StdPeriph_Driver/src/stm32f4xx_cryp_aes.c ****   *
  12:libs/STM32F4xx_StdPeriph_Driver/src/stm32f4xx_cryp_aes.c ****   *  @verbatim
  13:libs/STM32F4xx_StdPeriph_Driver/src/stm32f4xx_cryp_aes.c ****   *
  14:libs/STM32F4xx_StdPeriph_Driver/src/stm32f4xx_cryp_aes.c ****   *          ===================================================================
  15:libs/STM32F4xx_StdPeriph_Driver/src/stm32f4xx_cryp_aes.c ****   *                                   How to use this driver
  16:libs/STM32F4xx_StdPeriph_Driver/src/stm32f4xx_cryp_aes.c ****   *          ===================================================================
  17:libs/STM32F4xx_StdPeriph_Driver/src/stm32f4xx_cryp_aes.c ****   *          1. Enable The CRYP controller clock using 
  18:libs/STM32F4xx_StdPeriph_Driver/src/stm32f4xx_cryp_aes.c ****   *            RCC_AHB2PeriphClockCmd(RCC_AHB2Periph_CRYP, ENABLE); function.
  19:libs/STM32F4xx_StdPeriph_Driver/src/stm32f4xx_cryp_aes.c ****   *
  20:libs/STM32F4xx_StdPeriph_Driver/src/stm32f4xx_cryp_aes.c ****   *          2. Encrypt and decrypt using AES in ECB Mode using CRYP_AES_ECB()
  21:libs/STM32F4xx_StdPeriph_Driver/src/stm32f4xx_cryp_aes.c ****   *             function.
  22:libs/STM32F4xx_StdPeriph_Driver/src/stm32f4xx_cryp_aes.c ****   *
  23:libs/STM32F4xx_StdPeriph_Driver/src/stm32f4xx_cryp_aes.c ****   *          3. Encrypt and decrypt using AES in CBC Mode using CRYP_AES_CBC()
  24:libs/STM32F4xx_StdPeriph_Driver/src/stm32f4xx_cryp_aes.c ****   *             function.
  25:libs/STM32F4xx_StdPeriph_Driver/src/stm32f4xx_cryp_aes.c ****   *
  26:libs/STM32F4xx_StdPeriph_Driver/src/stm32f4xx_cryp_aes.c ****   *          4. Encrypt and decrypt using AES in CTR Mode using CRYP_AES_CTR()
  27:libs/STM32F4xx_StdPeriph_Driver/src/stm32f4xx_cryp_aes.c ****   *             function.
  28:libs/STM32F4xx_StdPeriph_Driver/src/stm32f4xx_cryp_aes.c ****   *
  29:libs/STM32F4xx_StdPeriph_Driver/src/stm32f4xx_cryp_aes.c ****   *  @endverbatim
  30:libs/STM32F4xx_StdPeriph_Driver/src/stm32f4xx_cryp_aes.c ****   *
  31:libs/STM32F4xx_StdPeriph_Driver/src/stm32f4xx_cryp_aes.c ****   ******************************************************************************
  32:libs/STM32F4xx_StdPeriph_Driver/src/stm32f4xx_cryp_aes.c ****   * @attention
  33:libs/STM32F4xx_StdPeriph_Driver/src/stm32f4xx_cryp_aes.c ****   *
  34:libs/STM32F4xx_StdPeriph_Driver/src/stm32f4xx_cryp_aes.c ****   * THE PRESENT FIRMWARE WHICH IS FOR GUIDANCE ONLY AIMS AT PROVIDING CUSTOMERS
  35:libs/STM32F4xx_StdPeriph_Driver/src/stm32f4xx_cryp_aes.c ****   * WITH CODING INFORMATION REGARDING THEIR PRODUCTS IN ORDER FOR THEM TO SAVE
  36:libs/STM32F4xx_StdPeriph_Driver/src/stm32f4xx_cryp_aes.c ****   * TIME. AS A RESULT, STMICROELECTRONICS SHALL NOT BE HELD LIABLE FOR ANY
  37:libs/STM32F4xx_StdPeriph_Driver/src/stm32f4xx_cryp_aes.c ****   * DIRECT, INDIRECT OR CONSEQUENTIAL DAMAGES WITH RESPECT TO ANY CLAIMS ARISING
  38:libs/STM32F4xx_StdPeriph_Driver/src/stm32f4xx_cryp_aes.c ****   * FROM THE CONTENT OF SUCH FIRMWARE AND/OR THE USE MADE BY CUSTOMERS OF THE
  39:libs/STM32F4xx_StdPeriph_Driver/src/stm32f4xx_cryp_aes.c ****   * CODING INFORMATION CONTAINED HEREIN IN CONNECTION WITH THEIR PRODUCTS.
  40:libs/STM32F4xx_StdPeriph_Driver/src/stm32f4xx_cryp_aes.c ****   *
  41:libs/STM32F4xx_StdPeriph_Driver/src/stm32f4xx_cryp_aes.c ****   * <h2><center>&copy; COPYRIGHT 2011 STMicroelectronics</center></h2>
  42:libs/STM32F4xx_StdPeriph_Driver/src/stm32f4xx_cryp_aes.c ****   ******************************************************************************  
  43:libs/STM32F4xx_StdPeriph_Driver/src/stm32f4xx_cryp_aes.c ****   */
  44:libs/STM32F4xx_StdPeriph_Driver/src/stm32f4xx_cryp_aes.c **** 
  45:libs/STM32F4xx_StdPeriph_Driver/src/stm32f4xx_cryp_aes.c **** /* Includes ------------------------------------------------------------------*/
  46:libs/STM32F4xx_StdPeriph_Driver/src/stm32f4xx_cryp_aes.c **** #include "stm32f4xx_cryp.h"
  47:libs/STM32F4xx_StdPeriph_Driver/src/stm32f4xx_cryp_aes.c **** 
  48:libs/STM32F4xx_StdPeriph_Driver/src/stm32f4xx_cryp_aes.c **** /** @addtogroup STM32F4xx_StdPeriph_Driver
  49:libs/STM32F4xx_StdPeriph_Driver/src/stm32f4xx_cryp_aes.c ****   * @{
  50:libs/STM32F4xx_StdPeriph_Driver/src/stm32f4xx_cryp_aes.c ****   */
  51:libs/STM32F4xx_StdPeriph_Driver/src/stm32f4xx_cryp_aes.c **** 
  52:libs/STM32F4xx_StdPeriph_Driver/src/stm32f4xx_cryp_aes.c **** /** @defgroup CRYP 
  53:libs/STM32F4xx_StdPeriph_Driver/src/stm32f4xx_cryp_aes.c ****   * @brief CRYP driver modules
  54:libs/STM32F4xx_StdPeriph_Driver/src/stm32f4xx_cryp_aes.c ****   * @{
  55:libs/STM32F4xx_StdPeriph_Driver/src/stm32f4xx_cryp_aes.c ****   */
  56:libs/STM32F4xx_StdPeriph_Driver/src/stm32f4xx_cryp_aes.c **** 
  57:libs/STM32F4xx_StdPeriph_Driver/src/stm32f4xx_cryp_aes.c **** /* Private typedef -----------------------------------------------------------*/
  58:libs/STM32F4xx_StdPeriph_Driver/src/stm32f4xx_cryp_aes.c **** /* Private define ------------------------------------------------------------*/
  59:libs/STM32F4xx_StdPeriph_Driver/src/stm32f4xx_cryp_aes.c **** #define AESBUSY_TIMEOUT    ((uint32_t) 0x00010000)
  60:libs/STM32F4xx_StdPeriph_Driver/src/stm32f4xx_cryp_aes.c **** 
  61:libs/STM32F4xx_StdPeriph_Driver/src/stm32f4xx_cryp_aes.c **** /* Private macro -------------------------------------------------------------*/
  62:libs/STM32F4xx_StdPeriph_Driver/src/stm32f4xx_cryp_aes.c **** /* Private variables ---------------------------------------------------------*/
  63:libs/STM32F4xx_StdPeriph_Driver/src/stm32f4xx_cryp_aes.c **** /* Private function prototypes -----------------------------------------------*/
  64:libs/STM32F4xx_StdPeriph_Driver/src/stm32f4xx_cryp_aes.c **** /* Private functions ---------------------------------------------------------*/
  65:libs/STM32F4xx_StdPeriph_Driver/src/stm32f4xx_cryp_aes.c **** 
  66:libs/STM32F4xx_StdPeriph_Driver/src/stm32f4xx_cryp_aes.c **** /** @defgroup CRYP_Private_Functions
  67:libs/STM32F4xx_StdPeriph_Driver/src/stm32f4xx_cryp_aes.c ****   * @{
  68:libs/STM32F4xx_StdPeriph_Driver/src/stm32f4xx_cryp_aes.c ****   */ 
  69:libs/STM32F4xx_StdPeriph_Driver/src/stm32f4xx_cryp_aes.c **** 
  70:libs/STM32F4xx_StdPeriph_Driver/src/stm32f4xx_cryp_aes.c **** /** @defgroup CRYP_Group6 High Level AES functions
  71:libs/STM32F4xx_StdPeriph_Driver/src/stm32f4xx_cryp_aes.c ****  *  @brief   High Level AES functions 
  72:libs/STM32F4xx_StdPeriph_Driver/src/stm32f4xx_cryp_aes.c ****  *
  73:libs/STM32F4xx_StdPeriph_Driver/src/stm32f4xx_cryp_aes.c **** @verbatim   
  74:libs/STM32F4xx_StdPeriph_Driver/src/stm32f4xx_cryp_aes.c ****  ===============================================================================
  75:libs/STM32F4xx_StdPeriph_Driver/src/stm32f4xx_cryp_aes.c ****                           High Level AES functions
  76:libs/STM32F4xx_StdPeriph_Driver/src/stm32f4xx_cryp_aes.c ****  ===============================================================================
  77:libs/STM32F4xx_StdPeriph_Driver/src/stm32f4xx_cryp_aes.c **** 
  78:libs/STM32F4xx_StdPeriph_Driver/src/stm32f4xx_cryp_aes.c **** 
  79:libs/STM32F4xx_StdPeriph_Driver/src/stm32f4xx_cryp_aes.c **** @endverbatim
  80:libs/STM32F4xx_StdPeriph_Driver/src/stm32f4xx_cryp_aes.c ****   * @{
  81:libs/STM32F4xx_StdPeriph_Driver/src/stm32f4xx_cryp_aes.c ****   */
  82:libs/STM32F4xx_StdPeriph_Driver/src/stm32f4xx_cryp_aes.c **** 
  83:libs/STM32F4xx_StdPeriph_Driver/src/stm32f4xx_cryp_aes.c **** /**
  84:libs/STM32F4xx_StdPeriph_Driver/src/stm32f4xx_cryp_aes.c ****   * @brief  Encrypt and decrypt using AES in ECB Mode
  85:libs/STM32F4xx_StdPeriph_Driver/src/stm32f4xx_cryp_aes.c ****   * @param  Mode: encryption or decryption Mode.
  86:libs/STM32F4xx_StdPeriph_Driver/src/stm32f4xx_cryp_aes.c ****   *          This parameter can be one of the following values:
  87:libs/STM32F4xx_StdPeriph_Driver/src/stm32f4xx_cryp_aes.c ****   *            @arg MODE_ENCRYPT: Encryption
  88:libs/STM32F4xx_StdPeriph_Driver/src/stm32f4xx_cryp_aes.c ****   *            @arg MODE_DECRYPT: Decryption
  89:libs/STM32F4xx_StdPeriph_Driver/src/stm32f4xx_cryp_aes.c ****   * @param  Key: Key used for AES algorithm.
  90:libs/STM32F4xx_StdPeriph_Driver/src/stm32f4xx_cryp_aes.c ****   * @param  Keysize: length of the Key, must be a 128, 192 or 256.
  91:libs/STM32F4xx_StdPeriph_Driver/src/stm32f4xx_cryp_aes.c ****   * @param  Input: pointer to the Input buffer.
  92:libs/STM32F4xx_StdPeriph_Driver/src/stm32f4xx_cryp_aes.c ****   * @param  Ilength: length of the Input buffer, must be a multiple of 16.
  93:libs/STM32F4xx_StdPeriph_Driver/src/stm32f4xx_cryp_aes.c ****   * @param  Output: pointer to the returned buffer.
  94:libs/STM32F4xx_StdPeriph_Driver/src/stm32f4xx_cryp_aes.c ****   * @retval An ErrorStatus enumeration value:
  95:libs/STM32F4xx_StdPeriph_Driver/src/stm32f4xx_cryp_aes.c ****   *          - SUCCESS: Operation done
  96:libs/STM32F4xx_StdPeriph_Driver/src/stm32f4xx_cryp_aes.c ****   *          - ERROR: Operation failed
  97:libs/STM32F4xx_StdPeriph_Driver/src/stm32f4xx_cryp_aes.c ****   */
  98:libs/STM32F4xx_StdPeriph_Driver/src/stm32f4xx_cryp_aes.c **** ErrorStatus CRYP_AES_ECB(uint8_t Mode, uint8_t* Key, uint16_t Keysize,
  99:libs/STM32F4xx_StdPeriph_Driver/src/stm32f4xx_cryp_aes.c ****                          uint8_t* Input, uint32_t Ilength, uint8_t* Output)
 100:libs/STM32F4xx_StdPeriph_Driver/src/stm32f4xx_cryp_aes.c **** {
  28              		.loc 1 100 0
  29              		.cfi_startproc
  30              		@ args = 8, pretend = 0, frame = 232
  31              		@ frame_needed = 1, uses_anonymous_args = 0
  32 0000 90B5     		push	{r4, r7, lr}
  33              	.LCFI0:
  34              		.cfi_def_cfa_offset 12
  35              		.cfi_offset 4, -12
  36              		.cfi_offset 7, -8
  37              		.cfi_offset 14, -4
  38 0002 BBB0     		sub	sp, sp, #236
  39              	.LCFI1:
  40              		.cfi_def_cfa_offset 248
  41 0004 00AF     		add	r7, sp, #0
  42              	.LCFI2:
  43              		.cfi_def_cfa_register 7
  44 0006 B960     		str	r1, [r7, #8]
  45 0008 7B60     		str	r3, [r7, #4]
  46 000a 0346     		mov	r3, r0
  47 000c FB73     		strb	r3, [r7, #15]
  48 000e 1346     		mov	r3, r2	@ movhi
  49 0010 BB81     		strh	r3, [r7, #12]	@ movhi
 101:libs/STM32F4xx_StdPeriph_Driver/src/stm32f4xx_cryp_aes.c ****   CRYP_InitTypeDef AES_CRYP_InitStructure;
 102:libs/STM32F4xx_StdPeriph_Driver/src/stm32f4xx_cryp_aes.c ****   CRYP_KeyInitTypeDef AES_CRYP_KeyInitStructure;
 103:libs/STM32F4xx_StdPeriph_Driver/src/stm32f4xx_cryp_aes.c ****   __IO uint32_t counter = 0;
  50              		.loc 1 103 0
  51 0012 0023     		movs	r3, #0
  52 0014 7B61     		str	r3, [r7, #20]
 104:libs/STM32F4xx_StdPeriph_Driver/src/stm32f4xx_cryp_aes.c ****   uint32_t busystatus = 0;
  53              		.loc 1 104 0
  54 0016 0023     		movs	r3, #0
  55 0018 C7F8D430 		str	r3, [r7, #212]
 105:libs/STM32F4xx_StdPeriph_Driver/src/stm32f4xx_cryp_aes.c ****   ErrorStatus status = SUCCESS;
  56              		.loc 1 105 0
  57 001c 0123     		movs	r3, #1
  58 001e 87F8E730 		strb	r3, [r7, #231]
 106:libs/STM32F4xx_StdPeriph_Driver/src/stm32f4xx_cryp_aes.c ****   uint32_t keyaddr    = (uint32_t)Key;
  59              		.loc 1 106 0
  60 0022 BB68     		ldr	r3, [r7, #8]
  61 0024 C7F8D030 		str	r3, [r7, #208]
 107:libs/STM32F4xx_StdPeriph_Driver/src/stm32f4xx_cryp_aes.c ****   uint32_t inputaddr  = (uint32_t)Input;
  62              		.loc 1 107 0
  63 0028 7B68     		ldr	r3, [r7, #4]
  64 002a C7F8E030 		str	r3, [r7, #224]
 108:libs/STM32F4xx_StdPeriph_Driver/src/stm32f4xx_cryp_aes.c ****   uint32_t outputaddr = (uint32_t)Output;
  65              		.loc 1 108 0
  66 002e D7F8FC30 		ldr	r3, [r7, #252]
  67 0032 C7F8DC30 		str	r3, [r7, #220]
 109:libs/STM32F4xx_StdPeriph_Driver/src/stm32f4xx_cryp_aes.c ****   uint32_t i = 0;
  68              		.loc 1 109 0
  69 0036 0023     		movs	r3, #0
  70 0038 C7F8D830 		str	r3, [r7, #216]
 110:libs/STM32F4xx_StdPeriph_Driver/src/stm32f4xx_cryp_aes.c **** 
 111:libs/STM32F4xx_StdPeriph_Driver/src/stm32f4xx_cryp_aes.c ****   /* Crypto structures initialisation*/
 112:libs/STM32F4xx_StdPeriph_Driver/src/stm32f4xx_cryp_aes.c ****   CRYP_KeyStructInit(&AES_CRYP_KeyInitStructure);
  71              		.loc 1 112 0
  72 003c 07F11803 		add	r3, r7, #24
  73 0040 1846     		mov	r0, r3
  74 0042 FFF7FEFF 		bl	CRYP_KeyStructInit
 113:libs/STM32F4xx_StdPeriph_Driver/src/stm32f4xx_cryp_aes.c **** 
 114:libs/STM32F4xx_StdPeriph_Driver/src/stm32f4xx_cryp_aes.c ****   switch(Keysize)
  75              		.loc 1 114 0
  76 0046 BB89     		ldrh	r3, [r7, #12]
  77 0048 C02B     		cmp	r3, #192
  78 004a 4CD0     		beq	.L3
  79 004c B3F5807F 		cmp	r3, #256
  80 0050 00F0B480 		beq	.L4
  81 0054 802B     		cmp	r3, #128
  82 0056 00D0     		beq	.L5
 115:libs/STM32F4xx_StdPeriph_Driver/src/stm32f4xx_cryp_aes.c ****   {
 116:libs/STM32F4xx_StdPeriph_Driver/src/stm32f4xx_cryp_aes.c ****     case 128:
 117:libs/STM32F4xx_StdPeriph_Driver/src/stm32f4xx_cryp_aes.c ****     AES_CRYP_InitStructure.CRYP_KeySize = CRYP_KeySize_128b;
 118:libs/STM32F4xx_StdPeriph_Driver/src/stm32f4xx_cryp_aes.c ****     AES_CRYP_KeyInitStructure.CRYP_Key2Left = __REV(*(uint32_t*)(keyaddr));
 119:libs/STM32F4xx_StdPeriph_Driver/src/stm32f4xx_cryp_aes.c ****     keyaddr+=4;
 120:libs/STM32F4xx_StdPeriph_Driver/src/stm32f4xx_cryp_aes.c ****     AES_CRYP_KeyInitStructure.CRYP_Key2Right= __REV(*(uint32_t*)(keyaddr));
 121:libs/STM32F4xx_StdPeriph_Driver/src/stm32f4xx_cryp_aes.c ****     keyaddr+=4;
 122:libs/STM32F4xx_StdPeriph_Driver/src/stm32f4xx_cryp_aes.c ****     AES_CRYP_KeyInitStructure.CRYP_Key3Left = __REV(*(uint32_t*)(keyaddr));
 123:libs/STM32F4xx_StdPeriph_Driver/src/stm32f4xx_cryp_aes.c ****     keyaddr+=4;
 124:libs/STM32F4xx_StdPeriph_Driver/src/stm32f4xx_cryp_aes.c ****     AES_CRYP_KeyInitStructure.CRYP_Key3Right= __REV(*(uint32_t*)(keyaddr));
 125:libs/STM32F4xx_StdPeriph_Driver/src/stm32f4xx_cryp_aes.c ****     break;
 126:libs/STM32F4xx_StdPeriph_Driver/src/stm32f4xx_cryp_aes.c ****     case 192:
 127:libs/STM32F4xx_StdPeriph_Driver/src/stm32f4xx_cryp_aes.c ****     AES_CRYP_InitStructure.CRYP_KeySize  = CRYP_KeySize_192b;
 128:libs/STM32F4xx_StdPeriph_Driver/src/stm32f4xx_cryp_aes.c ****     AES_CRYP_KeyInitStructure.CRYP_Key1Left = __REV(*(uint32_t*)(keyaddr));
 129:libs/STM32F4xx_StdPeriph_Driver/src/stm32f4xx_cryp_aes.c ****     keyaddr+=4;
 130:libs/STM32F4xx_StdPeriph_Driver/src/stm32f4xx_cryp_aes.c ****     AES_CRYP_KeyInitStructure.CRYP_Key1Right= __REV(*(uint32_t*)(keyaddr));
 131:libs/STM32F4xx_StdPeriph_Driver/src/stm32f4xx_cryp_aes.c ****     keyaddr+=4;
 132:libs/STM32F4xx_StdPeriph_Driver/src/stm32f4xx_cryp_aes.c ****     AES_CRYP_KeyInitStructure.CRYP_Key2Left = __REV(*(uint32_t*)(keyaddr));
 133:libs/STM32F4xx_StdPeriph_Driver/src/stm32f4xx_cryp_aes.c ****     keyaddr+=4;
 134:libs/STM32F4xx_StdPeriph_Driver/src/stm32f4xx_cryp_aes.c ****     AES_CRYP_KeyInitStructure.CRYP_Key2Right= __REV(*(uint32_t*)(keyaddr));
 135:libs/STM32F4xx_StdPeriph_Driver/src/stm32f4xx_cryp_aes.c ****     keyaddr+=4;
 136:libs/STM32F4xx_StdPeriph_Driver/src/stm32f4xx_cryp_aes.c ****     AES_CRYP_KeyInitStructure.CRYP_Key3Left = __REV(*(uint32_t*)(keyaddr));
 137:libs/STM32F4xx_StdPeriph_Driver/src/stm32f4xx_cryp_aes.c ****     keyaddr+=4;
 138:libs/STM32F4xx_StdPeriph_Driver/src/stm32f4xx_cryp_aes.c ****     AES_CRYP_KeyInitStructure.CRYP_Key3Right= __REV(*(uint32_t*)(keyaddr));
 139:libs/STM32F4xx_StdPeriph_Driver/src/stm32f4xx_cryp_aes.c ****     break;
 140:libs/STM32F4xx_StdPeriph_Driver/src/stm32f4xx_cryp_aes.c ****     case 256:
 141:libs/STM32F4xx_StdPeriph_Driver/src/stm32f4xx_cryp_aes.c ****     AES_CRYP_InitStructure.CRYP_KeySize  = CRYP_KeySize_256b;
 142:libs/STM32F4xx_StdPeriph_Driver/src/stm32f4xx_cryp_aes.c ****     AES_CRYP_KeyInitStructure.CRYP_Key0Left = __REV(*(uint32_t*)(keyaddr));
 143:libs/STM32F4xx_StdPeriph_Driver/src/stm32f4xx_cryp_aes.c ****     keyaddr+=4;
 144:libs/STM32F4xx_StdPeriph_Driver/src/stm32f4xx_cryp_aes.c ****     AES_CRYP_KeyInitStructure.CRYP_Key0Right= __REV(*(uint32_t*)(keyaddr));
 145:libs/STM32F4xx_StdPeriph_Driver/src/stm32f4xx_cryp_aes.c ****     keyaddr+=4;
 146:libs/STM32F4xx_StdPeriph_Driver/src/stm32f4xx_cryp_aes.c ****     AES_CRYP_KeyInitStructure.CRYP_Key1Left = __REV(*(uint32_t*)(keyaddr));
 147:libs/STM32F4xx_StdPeriph_Driver/src/stm32f4xx_cryp_aes.c ****     keyaddr+=4;
 148:libs/STM32F4xx_StdPeriph_Driver/src/stm32f4xx_cryp_aes.c ****     AES_CRYP_KeyInitStructure.CRYP_Key1Right= __REV(*(uint32_t*)(keyaddr));
 149:libs/STM32F4xx_StdPeriph_Driver/src/stm32f4xx_cryp_aes.c ****     keyaddr+=4;
 150:libs/STM32F4xx_StdPeriph_Driver/src/stm32f4xx_cryp_aes.c ****     AES_CRYP_KeyInitStructure.CRYP_Key2Left = __REV(*(uint32_t*)(keyaddr));
 151:libs/STM32F4xx_StdPeriph_Driver/src/stm32f4xx_cryp_aes.c ****     keyaddr+=4;
 152:libs/STM32F4xx_StdPeriph_Driver/src/stm32f4xx_cryp_aes.c ****     AES_CRYP_KeyInitStructure.CRYP_Key2Right= __REV(*(uint32_t*)(keyaddr));
 153:libs/STM32F4xx_StdPeriph_Driver/src/stm32f4xx_cryp_aes.c ****     keyaddr+=4;
 154:libs/STM32F4xx_StdPeriph_Driver/src/stm32f4xx_cryp_aes.c ****     AES_CRYP_KeyInitStructure.CRYP_Key3Left = __REV(*(uint32_t*)(keyaddr));
 155:libs/STM32F4xx_StdPeriph_Driver/src/stm32f4xx_cryp_aes.c ****     keyaddr+=4;
 156:libs/STM32F4xx_StdPeriph_Driver/src/stm32f4xx_cryp_aes.c ****     AES_CRYP_KeyInitStructure.CRYP_Key3Right= __REV(*(uint32_t*)(keyaddr));
 157:libs/STM32F4xx_StdPeriph_Driver/src/stm32f4xx_cryp_aes.c ****     break;
 158:libs/STM32F4xx_StdPeriph_Driver/src/stm32f4xx_cryp_aes.c ****     default:
 159:libs/STM32F4xx_StdPeriph_Driver/src/stm32f4xx_cryp_aes.c ****     break;
  83              		.loc 1 159 0
  84 0058 1FE1     		b	.L10
  85              	.L5:
 117:libs/STM32F4xx_StdPeriph_Driver/src/stm32f4xx_cryp_aes.c ****     AES_CRYP_InitStructure.CRYP_KeySize = CRYP_KeySize_128b;
  86              		.loc 1 117 0
  87 005a 0023     		movs	r3, #0
  88 005c FB87     		strh	r3, [r7, #62]	@ movhi
 118:libs/STM32F4xx_StdPeriph_Driver/src/stm32f4xx_cryp_aes.c ****     AES_CRYP_KeyInitStructure.CRYP_Key2Left = __REV(*(uint32_t*)(keyaddr));
  89              		.loc 1 118 0
  90 005e D7F8D030 		ldr	r3, [r7, #208]
  91 0062 1B68     		ldr	r3, [r3]
  92 0064 C7F8CC30 		str	r3, [r7, #204]
  93              	.LBB126:
  94              	.LBB127:
  95              		.file 2 "libs/CMSIS/Include/core_cmInstr.h"
   1:libs/CMSIS/Include/core_cmInstr.h **** /**************************************************************************//**
   2:libs/CMSIS/Include/core_cmInstr.h ****  * @file     core_cmInstr.h
   3:libs/CMSIS/Include/core_cmInstr.h ****  * @brief    CMSIS Cortex-M Core Instruction Access Header File
   4:libs/CMSIS/Include/core_cmInstr.h ****  * @version  V2.10
   5:libs/CMSIS/Include/core_cmInstr.h ****  * @date     19. July 2011
   6:libs/CMSIS/Include/core_cmInstr.h ****  *
   7:libs/CMSIS/Include/core_cmInstr.h ****  * @note
   8:libs/CMSIS/Include/core_cmInstr.h ****  * Copyright (C) 2009-2011 ARM Limited. All rights reserved.
   9:libs/CMSIS/Include/core_cmInstr.h ****  *
  10:libs/CMSIS/Include/core_cmInstr.h ****  * @par
  11:libs/CMSIS/Include/core_cmInstr.h ****  * ARM Limited (ARM) is supplying this software for use with Cortex-M 
  12:libs/CMSIS/Include/core_cmInstr.h ****  * processor based microcontrollers.  This file can be freely distributed 
  13:libs/CMSIS/Include/core_cmInstr.h ****  * within development tools that are supporting such ARM based processors. 
  14:libs/CMSIS/Include/core_cmInstr.h ****  *
  15:libs/CMSIS/Include/core_cmInstr.h ****  * @par
  16:libs/CMSIS/Include/core_cmInstr.h ****  * THIS SOFTWARE IS PROVIDED "AS IS".  NO WARRANTIES, WHETHER EXPRESS, IMPLIED
  17:libs/CMSIS/Include/core_cmInstr.h ****  * OR STATUTORY, INCLUDING, BUT NOT LIMITED TO, IMPLIED WARRANTIES OF
  18:libs/CMSIS/Include/core_cmInstr.h ****  * MERCHANTABILITY AND FITNESS FOR A PARTICULAR PURPOSE APPLY TO THIS SOFTWARE.
  19:libs/CMSIS/Include/core_cmInstr.h ****  * ARM SHALL NOT, IN ANY CIRCUMSTANCES, BE LIABLE FOR SPECIAL, INCIDENTAL, OR
  20:libs/CMSIS/Include/core_cmInstr.h ****  * CONSEQUENTIAL DAMAGES, FOR ANY REASON WHATSOEVER.
  21:libs/CMSIS/Include/core_cmInstr.h ****  *
  22:libs/CMSIS/Include/core_cmInstr.h ****  ******************************************************************************/
  23:libs/CMSIS/Include/core_cmInstr.h **** 
  24:libs/CMSIS/Include/core_cmInstr.h **** #ifndef __CORE_CMINSTR_H
  25:libs/CMSIS/Include/core_cmInstr.h **** #define __CORE_CMINSTR_H
  26:libs/CMSIS/Include/core_cmInstr.h **** 
  27:libs/CMSIS/Include/core_cmInstr.h **** 
  28:libs/CMSIS/Include/core_cmInstr.h **** /* ##########################  Core Instruction Access  ######################### */
  29:libs/CMSIS/Include/core_cmInstr.h **** /** \defgroup CMSIS_Core_InstructionInterface CMSIS Core Instruction Interface
  30:libs/CMSIS/Include/core_cmInstr.h ****   Access to dedicated instructions
  31:libs/CMSIS/Include/core_cmInstr.h ****   @{
  32:libs/CMSIS/Include/core_cmInstr.h **** */
  33:libs/CMSIS/Include/core_cmInstr.h **** 
  34:libs/CMSIS/Include/core_cmInstr.h **** #if   defined ( __CC_ARM ) /*------------------RealView Compiler -----------------*/
  35:libs/CMSIS/Include/core_cmInstr.h **** /* ARM armcc specific functions */
  36:libs/CMSIS/Include/core_cmInstr.h **** 
  37:libs/CMSIS/Include/core_cmInstr.h **** #if (__ARMCC_VERSION < 400677)
  38:libs/CMSIS/Include/core_cmInstr.h ****   #error "Please use ARM Compiler Toolchain V4.0.677 or later!"
  39:libs/CMSIS/Include/core_cmInstr.h **** #endif
  40:libs/CMSIS/Include/core_cmInstr.h **** 
  41:libs/CMSIS/Include/core_cmInstr.h **** 
  42:libs/CMSIS/Include/core_cmInstr.h **** /** \brief  No Operation
  43:libs/CMSIS/Include/core_cmInstr.h **** 
  44:libs/CMSIS/Include/core_cmInstr.h ****     No Operation does nothing. This instruction can be used for code alignment purposes.
  45:libs/CMSIS/Include/core_cmInstr.h ****  */
  46:libs/CMSIS/Include/core_cmInstr.h **** #define __NOP                             __nop
  47:libs/CMSIS/Include/core_cmInstr.h **** 
  48:libs/CMSIS/Include/core_cmInstr.h **** 
  49:libs/CMSIS/Include/core_cmInstr.h **** /** \brief  Wait For Interrupt
  50:libs/CMSIS/Include/core_cmInstr.h **** 
  51:libs/CMSIS/Include/core_cmInstr.h ****     Wait For Interrupt is a hint instruction that suspends execution
  52:libs/CMSIS/Include/core_cmInstr.h ****     until one of a number of events occurs.
  53:libs/CMSIS/Include/core_cmInstr.h ****  */
  54:libs/CMSIS/Include/core_cmInstr.h **** #define __WFI                             __wfi
  55:libs/CMSIS/Include/core_cmInstr.h **** 
  56:libs/CMSIS/Include/core_cmInstr.h **** 
  57:libs/CMSIS/Include/core_cmInstr.h **** /** \brief  Wait For Event
  58:libs/CMSIS/Include/core_cmInstr.h **** 
  59:libs/CMSIS/Include/core_cmInstr.h ****     Wait For Event is a hint instruction that permits the processor to enter
  60:libs/CMSIS/Include/core_cmInstr.h ****     a low-power state until one of a number of events occurs.
  61:libs/CMSIS/Include/core_cmInstr.h ****  */
  62:libs/CMSIS/Include/core_cmInstr.h **** #define __WFE                             __wfe
  63:libs/CMSIS/Include/core_cmInstr.h **** 
  64:libs/CMSIS/Include/core_cmInstr.h **** 
  65:libs/CMSIS/Include/core_cmInstr.h **** /** \brief  Send Event
  66:libs/CMSIS/Include/core_cmInstr.h **** 
  67:libs/CMSIS/Include/core_cmInstr.h ****     Send Event is a hint instruction. It causes an event to be signaled to the CPU.
  68:libs/CMSIS/Include/core_cmInstr.h ****  */
  69:libs/CMSIS/Include/core_cmInstr.h **** #define __SEV                             __sev
  70:libs/CMSIS/Include/core_cmInstr.h **** 
  71:libs/CMSIS/Include/core_cmInstr.h **** 
  72:libs/CMSIS/Include/core_cmInstr.h **** /** \brief  Instruction Synchronization Barrier
  73:libs/CMSIS/Include/core_cmInstr.h **** 
  74:libs/CMSIS/Include/core_cmInstr.h ****     Instruction Synchronization Barrier flushes the pipeline in the processor, 
  75:libs/CMSIS/Include/core_cmInstr.h ****     so that all instructions following the ISB are fetched from cache or 
  76:libs/CMSIS/Include/core_cmInstr.h ****     memory, after the instruction has been completed.
  77:libs/CMSIS/Include/core_cmInstr.h ****  */
  78:libs/CMSIS/Include/core_cmInstr.h **** #define __ISB()                           __isb(0xF)
  79:libs/CMSIS/Include/core_cmInstr.h **** 
  80:libs/CMSIS/Include/core_cmInstr.h **** 
  81:libs/CMSIS/Include/core_cmInstr.h **** /** \brief  Data Synchronization Barrier
  82:libs/CMSIS/Include/core_cmInstr.h **** 
  83:libs/CMSIS/Include/core_cmInstr.h ****     This function acts as a special kind of Data Memory Barrier. 
  84:libs/CMSIS/Include/core_cmInstr.h ****     It completes when all explicit memory accesses before this instruction complete.
  85:libs/CMSIS/Include/core_cmInstr.h ****  */
  86:libs/CMSIS/Include/core_cmInstr.h **** #define __DSB()                           __dsb(0xF)
  87:libs/CMSIS/Include/core_cmInstr.h **** 
  88:libs/CMSIS/Include/core_cmInstr.h **** 
  89:libs/CMSIS/Include/core_cmInstr.h **** /** \brief  Data Memory Barrier
  90:libs/CMSIS/Include/core_cmInstr.h **** 
  91:libs/CMSIS/Include/core_cmInstr.h ****     This function ensures the apparent order of the explicit memory operations before 
  92:libs/CMSIS/Include/core_cmInstr.h ****     and after the instruction, without ensuring their completion.
  93:libs/CMSIS/Include/core_cmInstr.h ****  */
  94:libs/CMSIS/Include/core_cmInstr.h **** #define __DMB()                           __dmb(0xF)
  95:libs/CMSIS/Include/core_cmInstr.h **** 
  96:libs/CMSIS/Include/core_cmInstr.h **** 
  97:libs/CMSIS/Include/core_cmInstr.h **** /** \brief  Reverse byte order (32 bit)
  98:libs/CMSIS/Include/core_cmInstr.h **** 
  99:libs/CMSIS/Include/core_cmInstr.h ****     This function reverses the byte order in integer value.
 100:libs/CMSIS/Include/core_cmInstr.h **** 
 101:libs/CMSIS/Include/core_cmInstr.h ****     \param [in]    value  Value to reverse
 102:libs/CMSIS/Include/core_cmInstr.h ****     \return               Reversed value
 103:libs/CMSIS/Include/core_cmInstr.h ****  */
 104:libs/CMSIS/Include/core_cmInstr.h **** #define __REV                             __rev
 105:libs/CMSIS/Include/core_cmInstr.h **** 
 106:libs/CMSIS/Include/core_cmInstr.h **** 
 107:libs/CMSIS/Include/core_cmInstr.h **** /** \brief  Reverse byte order (16 bit)
 108:libs/CMSIS/Include/core_cmInstr.h **** 
 109:libs/CMSIS/Include/core_cmInstr.h ****     This function reverses the byte order in two unsigned short values.
 110:libs/CMSIS/Include/core_cmInstr.h **** 
 111:libs/CMSIS/Include/core_cmInstr.h ****     \param [in]    value  Value to reverse
 112:libs/CMSIS/Include/core_cmInstr.h ****     \return               Reversed value
 113:libs/CMSIS/Include/core_cmInstr.h ****  */
 114:libs/CMSIS/Include/core_cmInstr.h **** static __INLINE __ASM uint32_t __REV16(uint32_t value)
 115:libs/CMSIS/Include/core_cmInstr.h **** {
 116:libs/CMSIS/Include/core_cmInstr.h ****   rev16 r0, r0
 117:libs/CMSIS/Include/core_cmInstr.h ****   bx lr
 118:libs/CMSIS/Include/core_cmInstr.h **** }
 119:libs/CMSIS/Include/core_cmInstr.h **** 
 120:libs/CMSIS/Include/core_cmInstr.h **** 
 121:libs/CMSIS/Include/core_cmInstr.h **** /** \brief  Reverse byte order in signed short value
 122:libs/CMSIS/Include/core_cmInstr.h **** 
 123:libs/CMSIS/Include/core_cmInstr.h ****     This function reverses the byte order in a signed short value with sign extension to integer.
 124:libs/CMSIS/Include/core_cmInstr.h **** 
 125:libs/CMSIS/Include/core_cmInstr.h ****     \param [in]    value  Value to reverse
 126:libs/CMSIS/Include/core_cmInstr.h ****     \return               Reversed value
 127:libs/CMSIS/Include/core_cmInstr.h ****  */
 128:libs/CMSIS/Include/core_cmInstr.h **** static __INLINE __ASM int32_t __REVSH(int32_t value)
 129:libs/CMSIS/Include/core_cmInstr.h **** {
 130:libs/CMSIS/Include/core_cmInstr.h ****   revsh r0, r0
 131:libs/CMSIS/Include/core_cmInstr.h ****   bx lr
 132:libs/CMSIS/Include/core_cmInstr.h **** }
 133:libs/CMSIS/Include/core_cmInstr.h **** 
 134:libs/CMSIS/Include/core_cmInstr.h **** 
 135:libs/CMSIS/Include/core_cmInstr.h **** #if       (__CORTEX_M >= 0x03)
 136:libs/CMSIS/Include/core_cmInstr.h **** 
 137:libs/CMSIS/Include/core_cmInstr.h **** /** \brief  Reverse bit order of value
 138:libs/CMSIS/Include/core_cmInstr.h **** 
 139:libs/CMSIS/Include/core_cmInstr.h ****     This function reverses the bit order of the given value.
 140:libs/CMSIS/Include/core_cmInstr.h **** 
 141:libs/CMSIS/Include/core_cmInstr.h ****     \param [in]    value  Value to reverse
 142:libs/CMSIS/Include/core_cmInstr.h ****     \return               Reversed value
 143:libs/CMSIS/Include/core_cmInstr.h ****  */
 144:libs/CMSIS/Include/core_cmInstr.h **** #define __RBIT                            __rbit
 145:libs/CMSIS/Include/core_cmInstr.h **** 
 146:libs/CMSIS/Include/core_cmInstr.h **** 
 147:libs/CMSIS/Include/core_cmInstr.h **** /** \brief  LDR Exclusive (8 bit)
 148:libs/CMSIS/Include/core_cmInstr.h **** 
 149:libs/CMSIS/Include/core_cmInstr.h ****     This function performs a exclusive LDR command for 8 bit value.
 150:libs/CMSIS/Include/core_cmInstr.h **** 
 151:libs/CMSIS/Include/core_cmInstr.h ****     \param [in]    ptr  Pointer to data
 152:libs/CMSIS/Include/core_cmInstr.h ****     \return             value of type uint8_t at (*ptr)
 153:libs/CMSIS/Include/core_cmInstr.h ****  */
 154:libs/CMSIS/Include/core_cmInstr.h **** #define __LDREXB(ptr)                     ((uint8_t ) __ldrex(ptr))
 155:libs/CMSIS/Include/core_cmInstr.h **** 
 156:libs/CMSIS/Include/core_cmInstr.h **** 
 157:libs/CMSIS/Include/core_cmInstr.h **** /** \brief  LDR Exclusive (16 bit)
 158:libs/CMSIS/Include/core_cmInstr.h **** 
 159:libs/CMSIS/Include/core_cmInstr.h ****     This function performs a exclusive LDR command for 16 bit values.
 160:libs/CMSIS/Include/core_cmInstr.h **** 
 161:libs/CMSIS/Include/core_cmInstr.h ****     \param [in]    ptr  Pointer to data
 162:libs/CMSIS/Include/core_cmInstr.h ****     \return        value of type uint16_t at (*ptr)
 163:libs/CMSIS/Include/core_cmInstr.h ****  */
 164:libs/CMSIS/Include/core_cmInstr.h **** #define __LDREXH(ptr)                     ((uint16_t) __ldrex(ptr))
 165:libs/CMSIS/Include/core_cmInstr.h **** 
 166:libs/CMSIS/Include/core_cmInstr.h **** 
 167:libs/CMSIS/Include/core_cmInstr.h **** /** \brief  LDR Exclusive (32 bit)
 168:libs/CMSIS/Include/core_cmInstr.h **** 
 169:libs/CMSIS/Include/core_cmInstr.h ****     This function performs a exclusive LDR command for 32 bit values.
 170:libs/CMSIS/Include/core_cmInstr.h **** 
 171:libs/CMSIS/Include/core_cmInstr.h ****     \param [in]    ptr  Pointer to data
 172:libs/CMSIS/Include/core_cmInstr.h ****     \return        value of type uint32_t at (*ptr)
 173:libs/CMSIS/Include/core_cmInstr.h ****  */
 174:libs/CMSIS/Include/core_cmInstr.h **** #define __LDREXW(ptr)                     ((uint32_t ) __ldrex(ptr))
 175:libs/CMSIS/Include/core_cmInstr.h **** 
 176:libs/CMSIS/Include/core_cmInstr.h **** 
 177:libs/CMSIS/Include/core_cmInstr.h **** /** \brief  STR Exclusive (8 bit)
 178:libs/CMSIS/Include/core_cmInstr.h **** 
 179:libs/CMSIS/Include/core_cmInstr.h ****     This function performs a exclusive STR command for 8 bit values.
 180:libs/CMSIS/Include/core_cmInstr.h **** 
 181:libs/CMSIS/Include/core_cmInstr.h ****     \param [in]  value  Value to store
 182:libs/CMSIS/Include/core_cmInstr.h ****     \param [in]    ptr  Pointer to location
 183:libs/CMSIS/Include/core_cmInstr.h ****     \return          0  Function succeeded
 184:libs/CMSIS/Include/core_cmInstr.h ****     \return          1  Function failed
 185:libs/CMSIS/Include/core_cmInstr.h ****  */
 186:libs/CMSIS/Include/core_cmInstr.h **** #define __STREXB(value, ptr)              __strex(value, ptr)
 187:libs/CMSIS/Include/core_cmInstr.h **** 
 188:libs/CMSIS/Include/core_cmInstr.h **** 
 189:libs/CMSIS/Include/core_cmInstr.h **** /** \brief  STR Exclusive (16 bit)
 190:libs/CMSIS/Include/core_cmInstr.h **** 
 191:libs/CMSIS/Include/core_cmInstr.h ****     This function performs a exclusive STR command for 16 bit values.
 192:libs/CMSIS/Include/core_cmInstr.h **** 
 193:libs/CMSIS/Include/core_cmInstr.h ****     \param [in]  value  Value to store
 194:libs/CMSIS/Include/core_cmInstr.h ****     \param [in]    ptr  Pointer to location
 195:libs/CMSIS/Include/core_cmInstr.h ****     \return          0  Function succeeded
 196:libs/CMSIS/Include/core_cmInstr.h ****     \return          1  Function failed
 197:libs/CMSIS/Include/core_cmInstr.h ****  */
 198:libs/CMSIS/Include/core_cmInstr.h **** #define __STREXH(value, ptr)              __strex(value, ptr)
 199:libs/CMSIS/Include/core_cmInstr.h **** 
 200:libs/CMSIS/Include/core_cmInstr.h **** 
 201:libs/CMSIS/Include/core_cmInstr.h **** /** \brief  STR Exclusive (32 bit)
 202:libs/CMSIS/Include/core_cmInstr.h **** 
 203:libs/CMSIS/Include/core_cmInstr.h ****     This function performs a exclusive STR command for 32 bit values.
 204:libs/CMSIS/Include/core_cmInstr.h **** 
 205:libs/CMSIS/Include/core_cmInstr.h ****     \param [in]  value  Value to store
 206:libs/CMSIS/Include/core_cmInstr.h ****     \param [in]    ptr  Pointer to location
 207:libs/CMSIS/Include/core_cmInstr.h ****     \return          0  Function succeeded
 208:libs/CMSIS/Include/core_cmInstr.h ****     \return          1  Function failed
 209:libs/CMSIS/Include/core_cmInstr.h ****  */
 210:libs/CMSIS/Include/core_cmInstr.h **** #define __STREXW(value, ptr)              __strex(value, ptr)
 211:libs/CMSIS/Include/core_cmInstr.h **** 
 212:libs/CMSIS/Include/core_cmInstr.h **** 
 213:libs/CMSIS/Include/core_cmInstr.h **** /** \brief  Remove the exclusive lock
 214:libs/CMSIS/Include/core_cmInstr.h **** 
 215:libs/CMSIS/Include/core_cmInstr.h ****     This function removes the exclusive lock which is created by LDREX.
 216:libs/CMSIS/Include/core_cmInstr.h **** 
 217:libs/CMSIS/Include/core_cmInstr.h ****  */
 218:libs/CMSIS/Include/core_cmInstr.h **** #define __CLREX                           __clrex
 219:libs/CMSIS/Include/core_cmInstr.h **** 
 220:libs/CMSIS/Include/core_cmInstr.h **** 
 221:libs/CMSIS/Include/core_cmInstr.h **** /** \brief  Signed Saturate
 222:libs/CMSIS/Include/core_cmInstr.h **** 
 223:libs/CMSIS/Include/core_cmInstr.h ****     This function saturates a signed value.
 224:libs/CMSIS/Include/core_cmInstr.h **** 
 225:libs/CMSIS/Include/core_cmInstr.h ****     \param [in]  value  Value to be saturated
 226:libs/CMSIS/Include/core_cmInstr.h ****     \param [in]    sat  Bit position to saturate to (1..32)
 227:libs/CMSIS/Include/core_cmInstr.h ****     \return             Saturated value
 228:libs/CMSIS/Include/core_cmInstr.h ****  */
 229:libs/CMSIS/Include/core_cmInstr.h **** #define __SSAT                            __ssat
 230:libs/CMSIS/Include/core_cmInstr.h **** 
 231:libs/CMSIS/Include/core_cmInstr.h **** 
 232:libs/CMSIS/Include/core_cmInstr.h **** /** \brief  Unsigned Saturate
 233:libs/CMSIS/Include/core_cmInstr.h **** 
 234:libs/CMSIS/Include/core_cmInstr.h ****     This function saturates an unsigned value.
 235:libs/CMSIS/Include/core_cmInstr.h **** 
 236:libs/CMSIS/Include/core_cmInstr.h ****     \param [in]  value  Value to be saturated
 237:libs/CMSIS/Include/core_cmInstr.h ****     \param [in]    sat  Bit position to saturate to (0..31)
 238:libs/CMSIS/Include/core_cmInstr.h ****     \return             Saturated value
 239:libs/CMSIS/Include/core_cmInstr.h ****  */
 240:libs/CMSIS/Include/core_cmInstr.h **** #define __USAT                            __usat
 241:libs/CMSIS/Include/core_cmInstr.h **** 
 242:libs/CMSIS/Include/core_cmInstr.h **** 
 243:libs/CMSIS/Include/core_cmInstr.h **** /** \brief  Count leading zeros
 244:libs/CMSIS/Include/core_cmInstr.h **** 
 245:libs/CMSIS/Include/core_cmInstr.h ****     This function counts the number of leading zeros of a data value.
 246:libs/CMSIS/Include/core_cmInstr.h **** 
 247:libs/CMSIS/Include/core_cmInstr.h ****     \param [in]  value  Value to count the leading zeros
 248:libs/CMSIS/Include/core_cmInstr.h ****     \return             number of leading zeros in value
 249:libs/CMSIS/Include/core_cmInstr.h ****  */
 250:libs/CMSIS/Include/core_cmInstr.h **** #define __CLZ                             __clz 
 251:libs/CMSIS/Include/core_cmInstr.h **** 
 252:libs/CMSIS/Include/core_cmInstr.h **** #endif /* (__CORTEX_M >= 0x03) */
 253:libs/CMSIS/Include/core_cmInstr.h **** 
 254:libs/CMSIS/Include/core_cmInstr.h **** 
 255:libs/CMSIS/Include/core_cmInstr.h **** 
 256:libs/CMSIS/Include/core_cmInstr.h **** #elif defined ( __ICCARM__ ) /*------------------ ICC Compiler -------------------*/
 257:libs/CMSIS/Include/core_cmInstr.h **** /* IAR iccarm specific functions */
 258:libs/CMSIS/Include/core_cmInstr.h **** 
 259:libs/CMSIS/Include/core_cmInstr.h **** #include <cmsis_iar.h>
 260:libs/CMSIS/Include/core_cmInstr.h **** 
 261:libs/CMSIS/Include/core_cmInstr.h **** 
 262:libs/CMSIS/Include/core_cmInstr.h **** #elif defined ( __GNUC__ ) /*------------------ GNU Compiler ---------------------*/
 263:libs/CMSIS/Include/core_cmInstr.h **** /* GNU gcc specific functions */
 264:libs/CMSIS/Include/core_cmInstr.h **** 
 265:libs/CMSIS/Include/core_cmInstr.h **** /** \brief  No Operation
 266:libs/CMSIS/Include/core_cmInstr.h **** 
 267:libs/CMSIS/Include/core_cmInstr.h ****     No Operation does nothing. This instruction can be used for code alignment purposes.
 268:libs/CMSIS/Include/core_cmInstr.h ****  */
 269:libs/CMSIS/Include/core_cmInstr.h **** __attribute__( ( always_inline ) ) static __INLINE void __NOP(void)
 270:libs/CMSIS/Include/core_cmInstr.h **** {
 271:libs/CMSIS/Include/core_cmInstr.h ****   __ASM volatile ("nop");
 272:libs/CMSIS/Include/core_cmInstr.h **** }
 273:libs/CMSIS/Include/core_cmInstr.h **** 
 274:libs/CMSIS/Include/core_cmInstr.h **** 
 275:libs/CMSIS/Include/core_cmInstr.h **** /** \brief  Wait For Interrupt
 276:libs/CMSIS/Include/core_cmInstr.h **** 
 277:libs/CMSIS/Include/core_cmInstr.h ****     Wait For Interrupt is a hint instruction that suspends execution
 278:libs/CMSIS/Include/core_cmInstr.h ****     until one of a number of events occurs.
 279:libs/CMSIS/Include/core_cmInstr.h ****  */
 280:libs/CMSIS/Include/core_cmInstr.h **** __attribute__( ( always_inline ) ) static __INLINE void __WFI(void)
 281:libs/CMSIS/Include/core_cmInstr.h **** {
 282:libs/CMSIS/Include/core_cmInstr.h ****   __ASM volatile ("wfi");
 283:libs/CMSIS/Include/core_cmInstr.h **** }
 284:libs/CMSIS/Include/core_cmInstr.h **** 
 285:libs/CMSIS/Include/core_cmInstr.h **** 
 286:libs/CMSIS/Include/core_cmInstr.h **** /** \brief  Wait For Event
 287:libs/CMSIS/Include/core_cmInstr.h **** 
 288:libs/CMSIS/Include/core_cmInstr.h ****     Wait For Event is a hint instruction that permits the processor to enter
 289:libs/CMSIS/Include/core_cmInstr.h ****     a low-power state until one of a number of events occurs.
 290:libs/CMSIS/Include/core_cmInstr.h ****  */
 291:libs/CMSIS/Include/core_cmInstr.h **** __attribute__( ( always_inline ) ) static __INLINE void __WFE(void)
 292:libs/CMSIS/Include/core_cmInstr.h **** {
 293:libs/CMSIS/Include/core_cmInstr.h ****   __ASM volatile ("wfe");
 294:libs/CMSIS/Include/core_cmInstr.h **** }
 295:libs/CMSIS/Include/core_cmInstr.h **** 
 296:libs/CMSIS/Include/core_cmInstr.h **** 
 297:libs/CMSIS/Include/core_cmInstr.h **** /** \brief  Send Event
 298:libs/CMSIS/Include/core_cmInstr.h **** 
 299:libs/CMSIS/Include/core_cmInstr.h ****     Send Event is a hint instruction. It causes an event to be signaled to the CPU.
 300:libs/CMSIS/Include/core_cmInstr.h ****  */
 301:libs/CMSIS/Include/core_cmInstr.h **** __attribute__( ( always_inline ) ) static __INLINE void __SEV(void)
 302:libs/CMSIS/Include/core_cmInstr.h **** {
 303:libs/CMSIS/Include/core_cmInstr.h ****   __ASM volatile ("sev");
 304:libs/CMSIS/Include/core_cmInstr.h **** }
 305:libs/CMSIS/Include/core_cmInstr.h **** 
 306:libs/CMSIS/Include/core_cmInstr.h **** 
 307:libs/CMSIS/Include/core_cmInstr.h **** /** \brief  Instruction Synchronization Barrier
 308:libs/CMSIS/Include/core_cmInstr.h **** 
 309:libs/CMSIS/Include/core_cmInstr.h ****     Instruction Synchronization Barrier flushes the pipeline in the processor, 
 310:libs/CMSIS/Include/core_cmInstr.h ****     so that all instructions following the ISB are fetched from cache or 
 311:libs/CMSIS/Include/core_cmInstr.h ****     memory, after the instruction has been completed.
 312:libs/CMSIS/Include/core_cmInstr.h ****  */
 313:libs/CMSIS/Include/core_cmInstr.h **** __attribute__( ( always_inline ) ) static __INLINE void __ISB(void)
 314:libs/CMSIS/Include/core_cmInstr.h **** {
 315:libs/CMSIS/Include/core_cmInstr.h ****   __ASM volatile ("isb");
 316:libs/CMSIS/Include/core_cmInstr.h **** }
 317:libs/CMSIS/Include/core_cmInstr.h **** 
 318:libs/CMSIS/Include/core_cmInstr.h **** 
 319:libs/CMSIS/Include/core_cmInstr.h **** /** \brief  Data Synchronization Barrier
 320:libs/CMSIS/Include/core_cmInstr.h **** 
 321:libs/CMSIS/Include/core_cmInstr.h ****     This function acts as a special kind of Data Memory Barrier. 
 322:libs/CMSIS/Include/core_cmInstr.h ****     It completes when all explicit memory accesses before this instruction complete.
 323:libs/CMSIS/Include/core_cmInstr.h ****  */
 324:libs/CMSIS/Include/core_cmInstr.h **** __attribute__( ( always_inline ) ) static __INLINE void __DSB(void)
 325:libs/CMSIS/Include/core_cmInstr.h **** {
 326:libs/CMSIS/Include/core_cmInstr.h ****   __ASM volatile ("dsb");
 327:libs/CMSIS/Include/core_cmInstr.h **** }
 328:libs/CMSIS/Include/core_cmInstr.h **** 
 329:libs/CMSIS/Include/core_cmInstr.h **** 
 330:libs/CMSIS/Include/core_cmInstr.h **** /** \brief  Data Memory Barrier
 331:libs/CMSIS/Include/core_cmInstr.h **** 
 332:libs/CMSIS/Include/core_cmInstr.h ****     This function ensures the apparent order of the explicit memory operations before 
 333:libs/CMSIS/Include/core_cmInstr.h ****     and after the instruction, without ensuring their completion.
 334:libs/CMSIS/Include/core_cmInstr.h ****  */
 335:libs/CMSIS/Include/core_cmInstr.h **** __attribute__( ( always_inline ) ) static __INLINE void __DMB(void)
 336:libs/CMSIS/Include/core_cmInstr.h **** {
 337:libs/CMSIS/Include/core_cmInstr.h ****   __ASM volatile ("dmb");
 338:libs/CMSIS/Include/core_cmInstr.h **** }
 339:libs/CMSIS/Include/core_cmInstr.h **** 
 340:libs/CMSIS/Include/core_cmInstr.h **** 
 341:libs/CMSIS/Include/core_cmInstr.h **** /** \brief  Reverse byte order (32 bit)
 342:libs/CMSIS/Include/core_cmInstr.h **** 
 343:libs/CMSIS/Include/core_cmInstr.h ****     This function reverses the byte order in integer value.
 344:libs/CMSIS/Include/core_cmInstr.h **** 
 345:libs/CMSIS/Include/core_cmInstr.h ****     \param [in]    value  Value to reverse
 346:libs/CMSIS/Include/core_cmInstr.h ****     \return               Reversed value
 347:libs/CMSIS/Include/core_cmInstr.h ****  */
 348:libs/CMSIS/Include/core_cmInstr.h **** __attribute__( ( always_inline ) ) static __INLINE uint32_t __REV(uint32_t value)
 349:libs/CMSIS/Include/core_cmInstr.h **** {
 350:libs/CMSIS/Include/core_cmInstr.h ****   uint32_t result;
 351:libs/CMSIS/Include/core_cmInstr.h ****   
 352:libs/CMSIS/Include/core_cmInstr.h ****   __ASM volatile ("rev %0, %1" : "=r" (result) : "r" (value) );
  96              		.loc 2 352 0
  97 0068 D7F8CC30 		ldr	r3, [r7, #204]
  98              	@ 352 "libs/CMSIS/Include/core_cmInstr.h" 1
  99 006c 1BBA     		rev r3, r3
 100              	@ 0 "" 2
 101              		.thumb
 102 006e C7F8C830 		str	r3, [r7, #200]
 353:libs/CMSIS/Include/core_cmInstr.h ****   return(result);
 103              		.loc 2 353 0
 104 0072 D7F8C830 		ldr	r3, [r7, #200]
 105              	.LBE127:
 106              	.LBE126:
 118:libs/STM32F4xx_StdPeriph_Driver/src/stm32f4xx_cryp_aes.c ****     AES_CRYP_KeyInitStructure.CRYP_Key2Left = __REV(*(uint32_t*)(keyaddr));
 107              		.loc 1 118 0
 108 0076 BB62     		str	r3, [r7, #40]
 119:libs/STM32F4xx_StdPeriph_Driver/src/stm32f4xx_cryp_aes.c ****     keyaddr+=4;
 109              		.loc 1 119 0
 110 0078 D7F8D030 		ldr	r3, [r7, #208]
 111 007c 0433     		adds	r3, r3, #4
 112 007e C7F8D030 		str	r3, [r7, #208]
 120:libs/STM32F4xx_StdPeriph_Driver/src/stm32f4xx_cryp_aes.c ****     AES_CRYP_KeyInitStructure.CRYP_Key2Right= __REV(*(uint32_t*)(keyaddr));
 113              		.loc 1 120 0
 114 0082 D7F8D030 		ldr	r3, [r7, #208]
 115 0086 1B68     		ldr	r3, [r3]
 116 0088 C7F8C430 		str	r3, [r7, #196]
 117              	.LBB128:
 118              	.LBB129:
 352:libs/CMSIS/Include/core_cmInstr.h ****   __ASM volatile ("rev %0, %1" : "=r" (result) : "r" (value) );
 119              		.loc 2 352 0
 120 008c D7F8C430 		ldr	r3, [r7, #196]
 121              	@ 352 "libs/CMSIS/Include/core_cmInstr.h" 1
 122 0090 1BBA     		rev r3, r3
 123              	@ 0 "" 2
 124              		.thumb
 125 0092 C7F8C030 		str	r3, [r7, #192]
 126              		.loc 2 353 0
 127 0096 D7F8C030 		ldr	r3, [r7, #192]
 128              	.LBE129:
 129              	.LBE128:
 120:libs/STM32F4xx_StdPeriph_Driver/src/stm32f4xx_cryp_aes.c ****     AES_CRYP_KeyInitStructure.CRYP_Key2Right= __REV(*(uint32_t*)(keyaddr));
 130              		.loc 1 120 0
 131 009a FB62     		str	r3, [r7, #44]
 121:libs/STM32F4xx_StdPeriph_Driver/src/stm32f4xx_cryp_aes.c ****     keyaddr+=4;
 132              		.loc 1 121 0
 133 009c D7F8D030 		ldr	r3, [r7, #208]
 134 00a0 0433     		adds	r3, r3, #4
 135 00a2 C7F8D030 		str	r3, [r7, #208]
 122:libs/STM32F4xx_StdPeriph_Driver/src/stm32f4xx_cryp_aes.c ****     AES_CRYP_KeyInitStructure.CRYP_Key3Left = __REV(*(uint32_t*)(keyaddr));
 136              		.loc 1 122 0
 137 00a6 D7F8D030 		ldr	r3, [r7, #208]
 138 00aa 1B68     		ldr	r3, [r3]
 139 00ac C7F8BC30 		str	r3, [r7, #188]
 140              	.LBB130:
 141              	.LBB131:
 352:libs/CMSIS/Include/core_cmInstr.h ****   __ASM volatile ("rev %0, %1" : "=r" (result) : "r" (value) );
 142              		.loc 2 352 0
 143 00b0 D7F8BC30 		ldr	r3, [r7, #188]
 144              	@ 352 "libs/CMSIS/Include/core_cmInstr.h" 1
 145 00b4 1BBA     		rev r3, r3
 146              	@ 0 "" 2
 147              		.thumb
 148 00b6 C7F8B830 		str	r3, [r7, #184]
 149              		.loc 2 353 0
 150 00ba D7F8B830 		ldr	r3, [r7, #184]
 151              	.LBE131:
 152              	.LBE130:
 122:libs/STM32F4xx_StdPeriph_Driver/src/stm32f4xx_cryp_aes.c ****     AES_CRYP_KeyInitStructure.CRYP_Key3Left = __REV(*(uint32_t*)(keyaddr));
 153              		.loc 1 122 0
 154 00be 3B63     		str	r3, [r7, #48]
 123:libs/STM32F4xx_StdPeriph_Driver/src/stm32f4xx_cryp_aes.c ****     keyaddr+=4;
 155              		.loc 1 123 0
 156 00c0 D7F8D030 		ldr	r3, [r7, #208]
 157 00c4 0433     		adds	r3, r3, #4
 158 00c6 C7F8D030 		str	r3, [r7, #208]
 124:libs/STM32F4xx_StdPeriph_Driver/src/stm32f4xx_cryp_aes.c ****     AES_CRYP_KeyInitStructure.CRYP_Key3Right= __REV(*(uint32_t*)(keyaddr));
 159              		.loc 1 124 0
 160 00ca D7F8D030 		ldr	r3, [r7, #208]
 161 00ce 1B68     		ldr	r3, [r3]
 162 00d0 C7F8B430 		str	r3, [r7, #180]
 163              	.LBB132:
 164              	.LBB133:
 352:libs/CMSIS/Include/core_cmInstr.h ****   __ASM volatile ("rev %0, %1" : "=r" (result) : "r" (value) );
 165              		.loc 2 352 0
 166 00d4 D7F8B430 		ldr	r3, [r7, #180]
 167              	@ 352 "libs/CMSIS/Include/core_cmInstr.h" 1
 168 00d8 1BBA     		rev r3, r3
 169              	@ 0 "" 2
 170              		.thumb
 171 00da C7F8B030 		str	r3, [r7, #176]
 172              		.loc 2 353 0
 173 00de D7F8B030 		ldr	r3, [r7, #176]
 174              	.LBE133:
 175              	.LBE132:
 124:libs/STM32F4xx_StdPeriph_Driver/src/stm32f4xx_cryp_aes.c ****     AES_CRYP_KeyInitStructure.CRYP_Key3Right= __REV(*(uint32_t*)(keyaddr));
 176              		.loc 1 124 0
 177 00e2 7B63     		str	r3, [r7, #52]
 125:libs/STM32F4xx_StdPeriph_Driver/src/stm32f4xx_cryp_aes.c ****     break;
 178              		.loc 1 125 0
 179 00e4 D9E0     		b	.L10
 180              	.L3:
 127:libs/STM32F4xx_StdPeriph_Driver/src/stm32f4xx_cryp_aes.c ****     AES_CRYP_InitStructure.CRYP_KeySize  = CRYP_KeySize_192b;
 181              		.loc 1 127 0
 182 00e6 4FF48073 		mov	r3, #256
 183 00ea FB87     		strh	r3, [r7, #62]	@ movhi
 128:libs/STM32F4xx_StdPeriph_Driver/src/stm32f4xx_cryp_aes.c ****     AES_CRYP_KeyInitStructure.CRYP_Key1Left = __REV(*(uint32_t*)(keyaddr));
 184              		.loc 1 128 0
 185 00ec D7F8D030 		ldr	r3, [r7, #208]
 186 00f0 1B68     		ldr	r3, [r3]
 187 00f2 C7F8AC30 		str	r3, [r7, #172]
 188              	.LBB134:
 189              	.LBB135:
 352:libs/CMSIS/Include/core_cmInstr.h ****   __ASM volatile ("rev %0, %1" : "=r" (result) : "r" (value) );
 190              		.loc 2 352 0
 191 00f6 D7F8AC30 		ldr	r3, [r7, #172]
 192              	@ 352 "libs/CMSIS/Include/core_cmInstr.h" 1
 193 00fa 1BBA     		rev r3, r3
 194              	@ 0 "" 2
 195              		.thumb
 196 00fc C7F8A830 		str	r3, [r7, #168]
 197              		.loc 2 353 0
 198 0100 D7F8A830 		ldr	r3, [r7, #168]
 199              	.LBE135:
 200              	.LBE134:
 128:libs/STM32F4xx_StdPeriph_Driver/src/stm32f4xx_cryp_aes.c ****     AES_CRYP_KeyInitStructure.CRYP_Key1Left = __REV(*(uint32_t*)(keyaddr));
 201              		.loc 1 128 0
 202 0104 3B62     		str	r3, [r7, #32]
 129:libs/STM32F4xx_StdPeriph_Driver/src/stm32f4xx_cryp_aes.c ****     keyaddr+=4;
 203              		.loc 1 129 0
 204 0106 D7F8D030 		ldr	r3, [r7, #208]
 205 010a 0433     		adds	r3, r3, #4
 206 010c C7F8D030 		str	r3, [r7, #208]
 130:libs/STM32F4xx_StdPeriph_Driver/src/stm32f4xx_cryp_aes.c ****     AES_CRYP_KeyInitStructure.CRYP_Key1Right= __REV(*(uint32_t*)(keyaddr));
 207              		.loc 1 130 0
 208 0110 D7F8D030 		ldr	r3, [r7, #208]
 209 0114 1B68     		ldr	r3, [r3]
 210 0116 C7F8A430 		str	r3, [r7, #164]
 211              	.LBB136:
 212              	.LBB137:
 352:libs/CMSIS/Include/core_cmInstr.h ****   __ASM volatile ("rev %0, %1" : "=r" (result) : "r" (value) );
 213              		.loc 2 352 0
 214 011a D7F8A430 		ldr	r3, [r7, #164]
 215              	@ 352 "libs/CMSIS/Include/core_cmInstr.h" 1
 216 011e 1BBA     		rev r3, r3
 217              	@ 0 "" 2
 218              		.thumb
 219 0120 C7F8A030 		str	r3, [r7, #160]
 220              		.loc 2 353 0
 221 0124 D7F8A030 		ldr	r3, [r7, #160]
 222              	.LBE137:
 223              	.LBE136:
 130:libs/STM32F4xx_StdPeriph_Driver/src/stm32f4xx_cryp_aes.c ****     AES_CRYP_KeyInitStructure.CRYP_Key1Right= __REV(*(uint32_t*)(keyaddr));
 224              		.loc 1 130 0
 225 0128 7B62     		str	r3, [r7, #36]
 131:libs/STM32F4xx_StdPeriph_Driver/src/stm32f4xx_cryp_aes.c ****     keyaddr+=4;
 226              		.loc 1 131 0
 227 012a D7F8D030 		ldr	r3, [r7, #208]
 228 012e 0433     		adds	r3, r3, #4
 229 0130 C7F8D030 		str	r3, [r7, #208]
 132:libs/STM32F4xx_StdPeriph_Driver/src/stm32f4xx_cryp_aes.c ****     AES_CRYP_KeyInitStructure.CRYP_Key2Left = __REV(*(uint32_t*)(keyaddr));
 230              		.loc 1 132 0
 231 0134 D7F8D030 		ldr	r3, [r7, #208]
 232 0138 1B68     		ldr	r3, [r3]
 233 013a C7F89C30 		str	r3, [r7, #156]
 234              	.LBB138:
 235              	.LBB139:
 352:libs/CMSIS/Include/core_cmInstr.h ****   __ASM volatile ("rev %0, %1" : "=r" (result) : "r" (value) );
 236              		.loc 2 352 0
 237 013e D7F89C30 		ldr	r3, [r7, #156]
 238              	@ 352 "libs/CMSIS/Include/core_cmInstr.h" 1
 239 0142 1BBA     		rev r3, r3
 240              	@ 0 "" 2
 241              		.thumb
 242 0144 C7F89830 		str	r3, [r7, #152]
 243              		.loc 2 353 0
 244 0148 D7F89830 		ldr	r3, [r7, #152]
 245              	.LBE139:
 246              	.LBE138:
 132:libs/STM32F4xx_StdPeriph_Driver/src/stm32f4xx_cryp_aes.c ****     AES_CRYP_KeyInitStructure.CRYP_Key2Left = __REV(*(uint32_t*)(keyaddr));
 247              		.loc 1 132 0
 248 014c BB62     		str	r3, [r7, #40]
 133:libs/STM32F4xx_StdPeriph_Driver/src/stm32f4xx_cryp_aes.c ****     keyaddr+=4;
 249              		.loc 1 133 0
 250 014e D7F8D030 		ldr	r3, [r7, #208]
 251 0152 0433     		adds	r3, r3, #4
 252 0154 C7F8D030 		str	r3, [r7, #208]
 134:libs/STM32F4xx_StdPeriph_Driver/src/stm32f4xx_cryp_aes.c ****     AES_CRYP_KeyInitStructure.CRYP_Key2Right= __REV(*(uint32_t*)(keyaddr));
 253              		.loc 1 134 0
 254 0158 D7F8D030 		ldr	r3, [r7, #208]
 255 015c 1B68     		ldr	r3, [r3]
 256 015e C7F89430 		str	r3, [r7, #148]
 257              	.LBB140:
 258              	.LBB141:
 352:libs/CMSIS/Include/core_cmInstr.h ****   __ASM volatile ("rev %0, %1" : "=r" (result) : "r" (value) );
 259              		.loc 2 352 0
 260 0162 D7F89430 		ldr	r3, [r7, #148]
 261              	@ 352 "libs/CMSIS/Include/core_cmInstr.h" 1
 262 0166 1BBA     		rev r3, r3
 263              	@ 0 "" 2
 264              		.thumb
 265 0168 C7F89030 		str	r3, [r7, #144]
 266              		.loc 2 353 0
 267 016c D7F89030 		ldr	r3, [r7, #144]
 268              	.LBE141:
 269              	.LBE140:
 134:libs/STM32F4xx_StdPeriph_Driver/src/stm32f4xx_cryp_aes.c ****     AES_CRYP_KeyInitStructure.CRYP_Key2Right= __REV(*(uint32_t*)(keyaddr));
 270              		.loc 1 134 0
 271 0170 FB62     		str	r3, [r7, #44]
 135:libs/STM32F4xx_StdPeriph_Driver/src/stm32f4xx_cryp_aes.c ****     keyaddr+=4;
 272              		.loc 1 135 0
 273 0172 D7F8D030 		ldr	r3, [r7, #208]
 274 0176 0433     		adds	r3, r3, #4
 275 0178 C7F8D030 		str	r3, [r7, #208]
 136:libs/STM32F4xx_StdPeriph_Driver/src/stm32f4xx_cryp_aes.c ****     AES_CRYP_KeyInitStructure.CRYP_Key3Left = __REV(*(uint32_t*)(keyaddr));
 276              		.loc 1 136 0
 277 017c D7F8D030 		ldr	r3, [r7, #208]
 278 0180 1B68     		ldr	r3, [r3]
 279 0182 C7F88C30 		str	r3, [r7, #140]
 280              	.LBB142:
 281              	.LBB143:
 352:libs/CMSIS/Include/core_cmInstr.h ****   __ASM volatile ("rev %0, %1" : "=r" (result) : "r" (value) );
 282              		.loc 2 352 0
 283 0186 D7F88C30 		ldr	r3, [r7, #140]
 284              	@ 352 "libs/CMSIS/Include/core_cmInstr.h" 1
 285 018a 1BBA     		rev r3, r3
 286              	@ 0 "" 2
 287              		.thumb
 288 018c C7F88830 		str	r3, [r7, #136]
 289              		.loc 2 353 0
 290 0190 D7F88830 		ldr	r3, [r7, #136]
 291              	.LBE143:
 292              	.LBE142:
 136:libs/STM32F4xx_StdPeriph_Driver/src/stm32f4xx_cryp_aes.c ****     AES_CRYP_KeyInitStructure.CRYP_Key3Left = __REV(*(uint32_t*)(keyaddr));
 293              		.loc 1 136 0
 294 0194 3B63     		str	r3, [r7, #48]
 137:libs/STM32F4xx_StdPeriph_Driver/src/stm32f4xx_cryp_aes.c ****     keyaddr+=4;
 295              		.loc 1 137 0
 296 0196 D7F8D030 		ldr	r3, [r7, #208]
 297 019a 0433     		adds	r3, r3, #4
 298 019c C7F8D030 		str	r3, [r7, #208]
 138:libs/STM32F4xx_StdPeriph_Driver/src/stm32f4xx_cryp_aes.c ****     AES_CRYP_KeyInitStructure.CRYP_Key3Right= __REV(*(uint32_t*)(keyaddr));
 299              		.loc 1 138 0
 300 01a0 D7F8D030 		ldr	r3, [r7, #208]
 301 01a4 1B68     		ldr	r3, [r3]
 302 01a6 C7F88430 		str	r3, [r7, #132]
 303              	.LBB144:
 304              	.LBB145:
 352:libs/CMSIS/Include/core_cmInstr.h ****   __ASM volatile ("rev %0, %1" : "=r" (result) : "r" (value) );
 305              		.loc 2 352 0
 306 01aa D7F88430 		ldr	r3, [r7, #132]
 307              	@ 352 "libs/CMSIS/Include/core_cmInstr.h" 1
 308 01ae 1BBA     		rev r3, r3
 309              	@ 0 "" 2
 310              		.thumb
 311 01b0 C7F88030 		str	r3, [r7, #128]
 312              		.loc 2 353 0
 313 01b4 D7F88030 		ldr	r3, [r7, #128]
 314              	.LBE145:
 315              	.LBE144:
 138:libs/STM32F4xx_StdPeriph_Driver/src/stm32f4xx_cryp_aes.c ****     AES_CRYP_KeyInitStructure.CRYP_Key3Right= __REV(*(uint32_t*)(keyaddr));
 316              		.loc 1 138 0
 317 01b8 7B63     		str	r3, [r7, #52]
 139:libs/STM32F4xx_StdPeriph_Driver/src/stm32f4xx_cryp_aes.c ****     break;
 318              		.loc 1 139 0
 319 01ba 6EE0     		b	.L10
 320              	.L4:
 141:libs/STM32F4xx_StdPeriph_Driver/src/stm32f4xx_cryp_aes.c ****     AES_CRYP_InitStructure.CRYP_KeySize  = CRYP_KeySize_256b;
 321              		.loc 1 141 0
 322 01bc 4FF40073 		mov	r3, #512
 323 01c0 FB87     		strh	r3, [r7, #62]	@ movhi
 142:libs/STM32F4xx_StdPeriph_Driver/src/stm32f4xx_cryp_aes.c ****     AES_CRYP_KeyInitStructure.CRYP_Key0Left = __REV(*(uint32_t*)(keyaddr));
 324              		.loc 1 142 0
 325 01c2 D7F8D030 		ldr	r3, [r7, #208]
 326 01c6 1B68     		ldr	r3, [r3]
 327 01c8 FB67     		str	r3, [r7, #124]
 328              	.LBB146:
 329              	.LBB147:
 352:libs/CMSIS/Include/core_cmInstr.h ****   __ASM volatile ("rev %0, %1" : "=r" (result) : "r" (value) );
 330              		.loc 2 352 0
 331 01ca FB6F     		ldr	r3, [r7, #124]
 332              	@ 352 "libs/CMSIS/Include/core_cmInstr.h" 1
 333 01cc 1BBA     		rev r3, r3
 334              	@ 0 "" 2
 335              		.thumb
 336 01ce BB67     		str	r3, [r7, #120]
 337              		.loc 2 353 0
 338 01d0 BB6F     		ldr	r3, [r7, #120]
 339              	.LBE147:
 340              	.LBE146:
 142:libs/STM32F4xx_StdPeriph_Driver/src/stm32f4xx_cryp_aes.c ****     AES_CRYP_KeyInitStructure.CRYP_Key0Left = __REV(*(uint32_t*)(keyaddr));
 341              		.loc 1 142 0
 342 01d2 BB61     		str	r3, [r7, #24]
 143:libs/STM32F4xx_StdPeriph_Driver/src/stm32f4xx_cryp_aes.c ****     keyaddr+=4;
 343              		.loc 1 143 0
 344 01d4 D7F8D030 		ldr	r3, [r7, #208]
 345 01d8 0433     		adds	r3, r3, #4
 346 01da C7F8D030 		str	r3, [r7, #208]
 144:libs/STM32F4xx_StdPeriph_Driver/src/stm32f4xx_cryp_aes.c ****     AES_CRYP_KeyInitStructure.CRYP_Key0Right= __REV(*(uint32_t*)(keyaddr));
 347              		.loc 1 144 0
 348 01de D7F8D030 		ldr	r3, [r7, #208]
 349 01e2 1B68     		ldr	r3, [r3]
 350 01e4 7B67     		str	r3, [r7, #116]
 351              	.LBB148:
 352              	.LBB149:
 352:libs/CMSIS/Include/core_cmInstr.h ****   __ASM volatile ("rev %0, %1" : "=r" (result) : "r" (value) );
 353              		.loc 2 352 0
 354 01e6 7B6F     		ldr	r3, [r7, #116]
 355              	@ 352 "libs/CMSIS/Include/core_cmInstr.h" 1
 356 01e8 1BBA     		rev r3, r3
 357              	@ 0 "" 2
 358              		.thumb
 359 01ea 3B67     		str	r3, [r7, #112]
 360              		.loc 2 353 0
 361 01ec 3B6F     		ldr	r3, [r7, #112]
 362              	.LBE149:
 363              	.LBE148:
 144:libs/STM32F4xx_StdPeriph_Driver/src/stm32f4xx_cryp_aes.c ****     AES_CRYP_KeyInitStructure.CRYP_Key0Right= __REV(*(uint32_t*)(keyaddr));
 364              		.loc 1 144 0
 365 01ee FB61     		str	r3, [r7, #28]
 145:libs/STM32F4xx_StdPeriph_Driver/src/stm32f4xx_cryp_aes.c ****     keyaddr+=4;
 366              		.loc 1 145 0
 367 01f0 D7F8D030 		ldr	r3, [r7, #208]
 368 01f4 0433     		adds	r3, r3, #4
 369 01f6 C7F8D030 		str	r3, [r7, #208]
 146:libs/STM32F4xx_StdPeriph_Driver/src/stm32f4xx_cryp_aes.c ****     AES_CRYP_KeyInitStructure.CRYP_Key1Left = __REV(*(uint32_t*)(keyaddr));
 370              		.loc 1 146 0
 371 01fa D7F8D030 		ldr	r3, [r7, #208]
 372 01fe 1B68     		ldr	r3, [r3]
 373 0200 FB66     		str	r3, [r7, #108]
 374              	.LBB150:
 375              	.LBB151:
 352:libs/CMSIS/Include/core_cmInstr.h ****   __ASM volatile ("rev %0, %1" : "=r" (result) : "r" (value) );
 376              		.loc 2 352 0
 377 0202 FB6E     		ldr	r3, [r7, #108]
 378              	@ 352 "libs/CMSIS/Include/core_cmInstr.h" 1
 379 0204 1BBA     		rev r3, r3
 380              	@ 0 "" 2
 381              		.thumb
 382 0206 BB66     		str	r3, [r7, #104]
 383              		.loc 2 353 0
 384 0208 BB6E     		ldr	r3, [r7, #104]
 385              	.LBE151:
 386              	.LBE150:
 146:libs/STM32F4xx_StdPeriph_Driver/src/stm32f4xx_cryp_aes.c ****     AES_CRYP_KeyInitStructure.CRYP_Key1Left = __REV(*(uint32_t*)(keyaddr));
 387              		.loc 1 146 0
 388 020a 3B62     		str	r3, [r7, #32]
 147:libs/STM32F4xx_StdPeriph_Driver/src/stm32f4xx_cryp_aes.c ****     keyaddr+=4;
 389              		.loc 1 147 0
 390 020c D7F8D030 		ldr	r3, [r7, #208]
 391 0210 0433     		adds	r3, r3, #4
 392 0212 C7F8D030 		str	r3, [r7, #208]
 148:libs/STM32F4xx_StdPeriph_Driver/src/stm32f4xx_cryp_aes.c ****     AES_CRYP_KeyInitStructure.CRYP_Key1Right= __REV(*(uint32_t*)(keyaddr));
 393              		.loc 1 148 0
 394 0216 D7F8D030 		ldr	r3, [r7, #208]
 395 021a 1B68     		ldr	r3, [r3]
 396 021c 7B66     		str	r3, [r7, #100]
 397              	.LBB152:
 398              	.LBB153:
 352:libs/CMSIS/Include/core_cmInstr.h ****   __ASM volatile ("rev %0, %1" : "=r" (result) : "r" (value) );
 399              		.loc 2 352 0
 400 021e 7B6E     		ldr	r3, [r7, #100]
 401              	@ 352 "libs/CMSIS/Include/core_cmInstr.h" 1
 402 0220 1BBA     		rev r3, r3
 403              	@ 0 "" 2
 404              		.thumb
 405 0222 3B66     		str	r3, [r7, #96]
 406              		.loc 2 353 0
 407 0224 3B6E     		ldr	r3, [r7, #96]
 408              	.LBE153:
 409              	.LBE152:
 148:libs/STM32F4xx_StdPeriph_Driver/src/stm32f4xx_cryp_aes.c ****     AES_CRYP_KeyInitStructure.CRYP_Key1Right= __REV(*(uint32_t*)(keyaddr));
 410              		.loc 1 148 0
 411 0226 7B62     		str	r3, [r7, #36]
 149:libs/STM32F4xx_StdPeriph_Driver/src/stm32f4xx_cryp_aes.c ****     keyaddr+=4;
 412              		.loc 1 149 0
 413 0228 D7F8D030 		ldr	r3, [r7, #208]
 414 022c 0433     		adds	r3, r3, #4
 415 022e C7F8D030 		str	r3, [r7, #208]
 150:libs/STM32F4xx_StdPeriph_Driver/src/stm32f4xx_cryp_aes.c ****     AES_CRYP_KeyInitStructure.CRYP_Key2Left = __REV(*(uint32_t*)(keyaddr));
 416              		.loc 1 150 0
 417 0232 D7F8D030 		ldr	r3, [r7, #208]
 418 0236 1B68     		ldr	r3, [r3]
 419 0238 FB65     		str	r3, [r7, #92]
 420              	.LBB154:
 421              	.LBB155:
 352:libs/CMSIS/Include/core_cmInstr.h ****   __ASM volatile ("rev %0, %1" : "=r" (result) : "r" (value) );
 422              		.loc 2 352 0
 423 023a FB6D     		ldr	r3, [r7, #92]
 424              	@ 352 "libs/CMSIS/Include/core_cmInstr.h" 1
 425 023c 1BBA     		rev r3, r3
 426              	@ 0 "" 2
 427              		.thumb
 428 023e BB65     		str	r3, [r7, #88]
 429              		.loc 2 353 0
 430 0240 BB6D     		ldr	r3, [r7, #88]
 431              	.LBE155:
 432              	.LBE154:
 150:libs/STM32F4xx_StdPeriph_Driver/src/stm32f4xx_cryp_aes.c ****     AES_CRYP_KeyInitStructure.CRYP_Key2Left = __REV(*(uint32_t*)(keyaddr));
 433              		.loc 1 150 0
 434 0242 BB62     		str	r3, [r7, #40]
 151:libs/STM32F4xx_StdPeriph_Driver/src/stm32f4xx_cryp_aes.c ****     keyaddr+=4;
 435              		.loc 1 151 0
 436 0244 D7F8D030 		ldr	r3, [r7, #208]
 437 0248 0433     		adds	r3, r3, #4
 438 024a C7F8D030 		str	r3, [r7, #208]
 152:libs/STM32F4xx_StdPeriph_Driver/src/stm32f4xx_cryp_aes.c ****     AES_CRYP_KeyInitStructure.CRYP_Key2Right= __REV(*(uint32_t*)(keyaddr));
 439              		.loc 1 152 0
 440 024e D7F8D030 		ldr	r3, [r7, #208]
 441 0252 1B68     		ldr	r3, [r3]
 442 0254 7B65     		str	r3, [r7, #84]
 443              	.LBB156:
 444              	.LBB157:
 352:libs/CMSIS/Include/core_cmInstr.h ****   __ASM volatile ("rev %0, %1" : "=r" (result) : "r" (value) );
 445              		.loc 2 352 0
 446 0256 7B6D     		ldr	r3, [r7, #84]
 447              	@ 352 "libs/CMSIS/Include/core_cmInstr.h" 1
 448 0258 1BBA     		rev r3, r3
 449              	@ 0 "" 2
 450              		.thumb
 451 025a 3B65     		str	r3, [r7, #80]
 452              		.loc 2 353 0
 453 025c 3B6D     		ldr	r3, [r7, #80]
 454              	.LBE157:
 455              	.LBE156:
 152:libs/STM32F4xx_StdPeriph_Driver/src/stm32f4xx_cryp_aes.c ****     AES_CRYP_KeyInitStructure.CRYP_Key2Right= __REV(*(uint32_t*)(keyaddr));
 456              		.loc 1 152 0
 457 025e FB62     		str	r3, [r7, #44]
 153:libs/STM32F4xx_StdPeriph_Driver/src/stm32f4xx_cryp_aes.c ****     keyaddr+=4;
 458              		.loc 1 153 0
 459 0260 D7F8D030 		ldr	r3, [r7, #208]
 460 0264 0433     		adds	r3, r3, #4
 461 0266 C7F8D030 		str	r3, [r7, #208]
 154:libs/STM32F4xx_StdPeriph_Driver/src/stm32f4xx_cryp_aes.c ****     AES_CRYP_KeyInitStructure.CRYP_Key3Left = __REV(*(uint32_t*)(keyaddr));
 462              		.loc 1 154 0
 463 026a D7F8D030 		ldr	r3, [r7, #208]
 464 026e 1B68     		ldr	r3, [r3]
 465 0270 FB64     		str	r3, [r7, #76]
 466              	.LBB158:
 467              	.LBB159:
 352:libs/CMSIS/Include/core_cmInstr.h ****   __ASM volatile ("rev %0, %1" : "=r" (result) : "r" (value) );
 468              		.loc 2 352 0
 469 0272 FB6C     		ldr	r3, [r7, #76]
 470              	@ 352 "libs/CMSIS/Include/core_cmInstr.h" 1
 471 0274 1BBA     		rev r3, r3
 472              	@ 0 "" 2
 473              		.thumb
 474 0276 BB64     		str	r3, [r7, #72]
 475              		.loc 2 353 0
 476 0278 BB6C     		ldr	r3, [r7, #72]
 477              	.LBE159:
 478              	.LBE158:
 154:libs/STM32F4xx_StdPeriph_Driver/src/stm32f4xx_cryp_aes.c ****     AES_CRYP_KeyInitStructure.CRYP_Key3Left = __REV(*(uint32_t*)(keyaddr));
 479              		.loc 1 154 0
 480 027a 3B63     		str	r3, [r7, #48]
 155:libs/STM32F4xx_StdPeriph_Driver/src/stm32f4xx_cryp_aes.c ****     keyaddr+=4;
 481              		.loc 1 155 0
 482 027c D7F8D030 		ldr	r3, [r7, #208]
 483 0280 0433     		adds	r3, r3, #4
 484 0282 C7F8D030 		str	r3, [r7, #208]
 156:libs/STM32F4xx_StdPeriph_Driver/src/stm32f4xx_cryp_aes.c ****     AES_CRYP_KeyInitStructure.CRYP_Key3Right= __REV(*(uint32_t*)(keyaddr));
 485              		.loc 1 156 0
 486 0286 D7F8D030 		ldr	r3, [r7, #208]
 487 028a 1B68     		ldr	r3, [r3]
 488 028c 7B64     		str	r3, [r7, #68]
 489              	.LBB160:
 490              	.LBB161:
 352:libs/CMSIS/Include/core_cmInstr.h ****   __ASM volatile ("rev %0, %1" : "=r" (result) : "r" (value) );
 491              		.loc 2 352 0
 492 028e 7B6C     		ldr	r3, [r7, #68]
 493              	@ 352 "libs/CMSIS/Include/core_cmInstr.h" 1
 494 0290 1BBA     		rev r3, r3
 495              	@ 0 "" 2
 496              		.thumb
 497 0292 3B64     		str	r3, [r7, #64]
 498              		.loc 2 353 0
 499 0294 3B6C     		ldr	r3, [r7, #64]
 500              	.LBE161:
 501              	.LBE160:
 156:libs/STM32F4xx_StdPeriph_Driver/src/stm32f4xx_cryp_aes.c ****     AES_CRYP_KeyInitStructure.CRYP_Key3Right= __REV(*(uint32_t*)(keyaddr));
 502              		.loc 1 156 0
 503 0296 7B63     		str	r3, [r7, #52]
 157:libs/STM32F4xx_StdPeriph_Driver/src/stm32f4xx_cryp_aes.c ****     break;
 504              		.loc 1 157 0
 505 0298 00BF     		nop
 506              	.L10:
 160:libs/STM32F4xx_StdPeriph_Driver/src/stm32f4xx_cryp_aes.c ****   }
 161:libs/STM32F4xx_StdPeriph_Driver/src/stm32f4xx_cryp_aes.c **** 
 162:libs/STM32F4xx_StdPeriph_Driver/src/stm32f4xx_cryp_aes.c ****   /*------------------ AES Decryption ------------------*/
 163:libs/STM32F4xx_StdPeriph_Driver/src/stm32f4xx_cryp_aes.c ****   if(Mode == MODE_DECRYPT) /* AES decryption */
 507              		.loc 1 163 0
 508 029a FB7B     		ldrb	r3, [r7, #15]	@ zero_extendqisi2
 509 029c 002B     		cmp	r3, #0
 510 029e 30D1     		bne	.L25
 164:libs/STM32F4xx_StdPeriph_Driver/src/stm32f4xx_cryp_aes.c ****   {
 165:libs/STM32F4xx_StdPeriph_Driver/src/stm32f4xx_cryp_aes.c ****     /* Flush IN/OUT FIFOs */
 166:libs/STM32F4xx_StdPeriph_Driver/src/stm32f4xx_cryp_aes.c ****     CRYP_FIFOFlush();
 511              		.loc 1 166 0
 512 02a0 FFF7FEFF 		bl	CRYP_FIFOFlush
 167:libs/STM32F4xx_StdPeriph_Driver/src/stm32f4xx_cryp_aes.c **** 
 168:libs/STM32F4xx_StdPeriph_Driver/src/stm32f4xx_cryp_aes.c ****     /* Crypto Init for Key preparation for decryption process */
 169:libs/STM32F4xx_StdPeriph_Driver/src/stm32f4xx_cryp_aes.c ****     AES_CRYP_InitStructure.CRYP_AlgoDir = CRYP_AlgoDir_Decrypt;
 513              		.loc 1 169 0
 514 02a4 0423     		movs	r3, #4
 515 02a6 3B87     		strh	r3, [r7, #56]	@ movhi
 170:libs/STM32F4xx_StdPeriph_Driver/src/stm32f4xx_cryp_aes.c ****     AES_CRYP_InitStructure.CRYP_AlgoMode = CRYP_AlgoMode_AES_Key;
 516              		.loc 1 170 0
 517 02a8 3823     		movs	r3, #56
 518 02aa 7B87     		strh	r3, [r7, #58]	@ movhi
 171:libs/STM32F4xx_StdPeriph_Driver/src/stm32f4xx_cryp_aes.c ****     AES_CRYP_InitStructure.CRYP_DataType = CRYP_DataType_32b;
 519              		.loc 1 171 0
 520 02ac 0023     		movs	r3, #0
 521 02ae BB87     		strh	r3, [r7, #60]	@ movhi
 172:libs/STM32F4xx_StdPeriph_Driver/src/stm32f4xx_cryp_aes.c ****     CRYP_Init(&AES_CRYP_InitStructure);
 522              		.loc 1 172 0
 523 02b0 07F13803 		add	r3, r7, #56
 524 02b4 1846     		mov	r0, r3
 525 02b6 FFF7FEFF 		bl	CRYP_Init
 173:libs/STM32F4xx_StdPeriph_Driver/src/stm32f4xx_cryp_aes.c **** 
 174:libs/STM32F4xx_StdPeriph_Driver/src/stm32f4xx_cryp_aes.c ****     /* Key Initialisation */
 175:libs/STM32F4xx_StdPeriph_Driver/src/stm32f4xx_cryp_aes.c ****     CRYP_KeyInit(&AES_CRYP_KeyInitStructure);
 526              		.loc 1 175 0
 527 02ba 07F11803 		add	r3, r7, #24
 528 02be 1846     		mov	r0, r3
 529 02c0 FFF7FEFF 		bl	CRYP_KeyInit
 176:libs/STM32F4xx_StdPeriph_Driver/src/stm32f4xx_cryp_aes.c **** 
 177:libs/STM32F4xx_StdPeriph_Driver/src/stm32f4xx_cryp_aes.c ****     /* Enable Crypto processor */
 178:libs/STM32F4xx_StdPeriph_Driver/src/stm32f4xx_cryp_aes.c ****     CRYP_Cmd(ENABLE);
 530              		.loc 1 178 0
 531 02c4 0120     		movs	r0, #1
 532 02c6 FFF7FEFF 		bl	CRYP_Cmd
 533              	.L27:
 179:libs/STM32F4xx_StdPeriph_Driver/src/stm32f4xx_cryp_aes.c **** 
 180:libs/STM32F4xx_StdPeriph_Driver/src/stm32f4xx_cryp_aes.c ****     /* wait until the Busy flag is RESET */
 181:libs/STM32F4xx_StdPeriph_Driver/src/stm32f4xx_cryp_aes.c ****     do
 182:libs/STM32F4xx_StdPeriph_Driver/src/stm32f4xx_cryp_aes.c ****     {
 183:libs/STM32F4xx_StdPeriph_Driver/src/stm32f4xx_cryp_aes.c ****       busystatus = CRYP_GetFlagStatus(CRYP_FLAG_BUSY);
 534              		.loc 1 183 0 discriminator 1
 535 02ca 1020     		movs	r0, #16
 536 02cc FFF7FEFF 		bl	CRYP_GetFlagStatus
 537 02d0 0346     		mov	r3, r0
 538 02d2 C7F8D430 		str	r3, [r7, #212]
 184:libs/STM32F4xx_StdPeriph_Driver/src/stm32f4xx_cryp_aes.c ****       counter++;
 539              		.loc 1 184 0 discriminator 1
 540 02d6 7B69     		ldr	r3, [r7, #20]
 541 02d8 0133     		adds	r3, r3, #1
 542 02da 7B61     		str	r3, [r7, #20]
 185:libs/STM32F4xx_StdPeriph_Driver/src/stm32f4xx_cryp_aes.c ****     }while ((counter != AESBUSY_TIMEOUT) && (busystatus != RESET));
 543              		.loc 1 185 0 discriminator 1
 544 02dc 7B69     		ldr	r3, [r7, #20]
 545 02de B3F5803F 		cmp	r3, #65536
 546 02e2 03D0     		beq	.L26
 547 02e4 D7F8D430 		ldr	r3, [r7, #212]
 548 02e8 002B     		cmp	r3, #0
 549 02ea EED1     		bne	.L27
 550              	.L26:
 186:libs/STM32F4xx_StdPeriph_Driver/src/stm32f4xx_cryp_aes.c **** 
 187:libs/STM32F4xx_StdPeriph_Driver/src/stm32f4xx_cryp_aes.c ****     if (busystatus != RESET)
 551              		.loc 1 187 0
 552 02ec D7F8D430 		ldr	r3, [r7, #212]
 553 02f0 002B     		cmp	r3, #0
 554 02f2 03D0     		beq	.L28
 188:libs/STM32F4xx_StdPeriph_Driver/src/stm32f4xx_cryp_aes.c ****    {
 189:libs/STM32F4xx_StdPeriph_Driver/src/stm32f4xx_cryp_aes.c ****        status = ERROR;
 555              		.loc 1 189 0
 556 02f4 0023     		movs	r3, #0
 557 02f6 87F8E730 		strb	r3, [r7, #231]
 558 02fa 09E0     		b	.L30
 559              	.L28:
 190:libs/STM32F4xx_StdPeriph_Driver/src/stm32f4xx_cryp_aes.c ****     }
 191:libs/STM32F4xx_StdPeriph_Driver/src/stm32f4xx_cryp_aes.c ****     else
 192:libs/STM32F4xx_StdPeriph_Driver/src/stm32f4xx_cryp_aes.c ****     {
 193:libs/STM32F4xx_StdPeriph_Driver/src/stm32f4xx_cryp_aes.c ****       /* Crypto Init for decryption process */  
 194:libs/STM32F4xx_StdPeriph_Driver/src/stm32f4xx_cryp_aes.c ****       AES_CRYP_InitStructure.CRYP_AlgoDir = CRYP_AlgoDir_Decrypt;
 560              		.loc 1 194 0
 561 02fc 0423     		movs	r3, #4
 562 02fe 3B87     		strh	r3, [r7, #56]	@ movhi
 563 0300 06E0     		b	.L30
 564              	.L25:
 195:libs/STM32F4xx_StdPeriph_Driver/src/stm32f4xx_cryp_aes.c ****     }
 196:libs/STM32F4xx_StdPeriph_Driver/src/stm32f4xx_cryp_aes.c ****   }
 197:libs/STM32F4xx_StdPeriph_Driver/src/stm32f4xx_cryp_aes.c ****   /*------------------ AES Encryption ------------------*/
 198:libs/STM32F4xx_StdPeriph_Driver/src/stm32f4xx_cryp_aes.c ****   else /* AES encryption */
 199:libs/STM32F4xx_StdPeriph_Driver/src/stm32f4xx_cryp_aes.c ****   {
 200:libs/STM32F4xx_StdPeriph_Driver/src/stm32f4xx_cryp_aes.c **** 
 201:libs/STM32F4xx_StdPeriph_Driver/src/stm32f4xx_cryp_aes.c ****     CRYP_KeyInit(&AES_CRYP_KeyInitStructure);
 565              		.loc 1 201 0
 566 0302 07F11803 		add	r3, r7, #24
 567 0306 1846     		mov	r0, r3
 568 0308 FFF7FEFF 		bl	CRYP_KeyInit
 202:libs/STM32F4xx_StdPeriph_Driver/src/stm32f4xx_cryp_aes.c **** 
 203:libs/STM32F4xx_StdPeriph_Driver/src/stm32f4xx_cryp_aes.c ****     /* Crypto Init for Encryption process */
 204:libs/STM32F4xx_StdPeriph_Driver/src/stm32f4xx_cryp_aes.c ****     AES_CRYP_InitStructure.CRYP_AlgoDir  = CRYP_AlgoDir_Encrypt;
 569              		.loc 1 204 0
 570 030c 0023     		movs	r3, #0
 571 030e 3B87     		strh	r3, [r7, #56]	@ movhi
 572              	.L30:
 205:libs/STM32F4xx_StdPeriph_Driver/src/stm32f4xx_cryp_aes.c ****   }
 206:libs/STM32F4xx_StdPeriph_Driver/src/stm32f4xx_cryp_aes.c **** 
 207:libs/STM32F4xx_StdPeriph_Driver/src/stm32f4xx_cryp_aes.c ****   AES_CRYP_InitStructure.CRYP_AlgoMode = CRYP_AlgoMode_AES_ECB;
 573              		.loc 1 207 0
 574 0310 2023     		movs	r3, #32
 575 0312 7B87     		strh	r3, [r7, #58]	@ movhi
 208:libs/STM32F4xx_StdPeriph_Driver/src/stm32f4xx_cryp_aes.c ****   AES_CRYP_InitStructure.CRYP_DataType = CRYP_DataType_8b;
 576              		.loc 1 208 0
 577 0314 8023     		movs	r3, #128
 578 0316 BB87     		strh	r3, [r7, #60]	@ movhi
 209:libs/STM32F4xx_StdPeriph_Driver/src/stm32f4xx_cryp_aes.c ****   CRYP_Init(&AES_CRYP_InitStructure);
 579              		.loc 1 209 0
 580 0318 07F13803 		add	r3, r7, #56
 581 031c 1846     		mov	r0, r3
 582 031e FFF7FEFF 		bl	CRYP_Init
 210:libs/STM32F4xx_StdPeriph_Driver/src/stm32f4xx_cryp_aes.c **** 
 211:libs/STM32F4xx_StdPeriph_Driver/src/stm32f4xx_cryp_aes.c ****   /* Flush IN/OUT FIFOs */
 212:libs/STM32F4xx_StdPeriph_Driver/src/stm32f4xx_cryp_aes.c ****   CRYP_FIFOFlush();
 583              		.loc 1 212 0
 584 0322 FFF7FEFF 		bl	CRYP_FIFOFlush
 213:libs/STM32F4xx_StdPeriph_Driver/src/stm32f4xx_cryp_aes.c **** 
 214:libs/STM32F4xx_StdPeriph_Driver/src/stm32f4xx_cryp_aes.c ****   /* Enable Crypto processor */
 215:libs/STM32F4xx_StdPeriph_Driver/src/stm32f4xx_cryp_aes.c ****   CRYP_Cmd(ENABLE);
 585              		.loc 1 215 0
 586 0326 0120     		movs	r0, #1
 587 0328 FFF7FEFF 		bl	CRYP_Cmd
 216:libs/STM32F4xx_StdPeriph_Driver/src/stm32f4xx_cryp_aes.c **** 
 217:libs/STM32F4xx_StdPeriph_Driver/src/stm32f4xx_cryp_aes.c ****   for(i=0; ((i<Ilength) && (status != ERROR)); i+=16)
 588              		.loc 1 217 0
 589 032c 0023     		movs	r3, #0
 590 032e C7F8D830 		str	r3, [r7, #216]
 591 0332 77E0     		b	.L31
 592              	.L37:
 218:libs/STM32F4xx_StdPeriph_Driver/src/stm32f4xx_cryp_aes.c ****   {
 219:libs/STM32F4xx_StdPeriph_Driver/src/stm32f4xx_cryp_aes.c **** 
 220:libs/STM32F4xx_StdPeriph_Driver/src/stm32f4xx_cryp_aes.c ****     /* Write the Input block in the IN FIFO */
 221:libs/STM32F4xx_StdPeriph_Driver/src/stm32f4xx_cryp_aes.c ****     CRYP_DataIn(*(uint32_t*)(inputaddr));
 593              		.loc 1 221 0
 594 0334 D7F8E030 		ldr	r3, [r7, #224]
 595 0338 1B68     		ldr	r3, [r3]
 596 033a 1846     		mov	r0, r3
 597 033c FFF7FEFF 		bl	CRYP_DataIn
 222:libs/STM32F4xx_StdPeriph_Driver/src/stm32f4xx_cryp_aes.c ****     inputaddr+=4;
 598              		.loc 1 222 0
 599 0340 D7F8E030 		ldr	r3, [r7, #224]
 600 0344 0433     		adds	r3, r3, #4
 601 0346 C7F8E030 		str	r3, [r7, #224]
 223:libs/STM32F4xx_StdPeriph_Driver/src/stm32f4xx_cryp_aes.c ****     CRYP_DataIn(*(uint32_t*)(inputaddr));
 602              		.loc 1 223 0
 603 034a D7F8E030 		ldr	r3, [r7, #224]
 604 034e 1B68     		ldr	r3, [r3]
 605 0350 1846     		mov	r0, r3
 606 0352 FFF7FEFF 		bl	CRYP_DataIn
 224:libs/STM32F4xx_StdPeriph_Driver/src/stm32f4xx_cryp_aes.c ****     inputaddr+=4;
 607              		.loc 1 224 0
 608 0356 D7F8E030 		ldr	r3, [r7, #224]
 609 035a 0433     		adds	r3, r3, #4
 610 035c C7F8E030 		str	r3, [r7, #224]
 225:libs/STM32F4xx_StdPeriph_Driver/src/stm32f4xx_cryp_aes.c ****     CRYP_DataIn(*(uint32_t*)(inputaddr));
 611              		.loc 1 225 0
 612 0360 D7F8E030 		ldr	r3, [r7, #224]
 613 0364 1B68     		ldr	r3, [r3]
 614 0366 1846     		mov	r0, r3
 615 0368 FFF7FEFF 		bl	CRYP_DataIn
 226:libs/STM32F4xx_StdPeriph_Driver/src/stm32f4xx_cryp_aes.c ****     inputaddr+=4;
 616              		.loc 1 226 0
 617 036c D7F8E030 		ldr	r3, [r7, #224]
 618 0370 0433     		adds	r3, r3, #4
 619 0372 C7F8E030 		str	r3, [r7, #224]
 227:libs/STM32F4xx_StdPeriph_Driver/src/stm32f4xx_cryp_aes.c ****     CRYP_DataIn(*(uint32_t*)(inputaddr));
 620              		.loc 1 227 0
 621 0376 D7F8E030 		ldr	r3, [r7, #224]
 622 037a 1B68     		ldr	r3, [r3]
 623 037c 1846     		mov	r0, r3
 624 037e FFF7FEFF 		bl	CRYP_DataIn
 228:libs/STM32F4xx_StdPeriph_Driver/src/stm32f4xx_cryp_aes.c ****     inputaddr+=4;
 625              		.loc 1 228 0
 626 0382 D7F8E030 		ldr	r3, [r7, #224]
 627 0386 0433     		adds	r3, r3, #4
 628 0388 C7F8E030 		str	r3, [r7, #224]
 229:libs/STM32F4xx_StdPeriph_Driver/src/stm32f4xx_cryp_aes.c **** 
 230:libs/STM32F4xx_StdPeriph_Driver/src/stm32f4xx_cryp_aes.c ****     /* Wait until the complete message has been processed */
 231:libs/STM32F4xx_StdPeriph_Driver/src/stm32f4xx_cryp_aes.c ****     counter = 0;
 629              		.loc 1 231 0
 630 038c 0023     		movs	r3, #0
 631 038e 7B61     		str	r3, [r7, #20]
 632              	.L33:
 232:libs/STM32F4xx_StdPeriph_Driver/src/stm32f4xx_cryp_aes.c ****     do
 233:libs/STM32F4xx_StdPeriph_Driver/src/stm32f4xx_cryp_aes.c ****     {
 234:libs/STM32F4xx_StdPeriph_Driver/src/stm32f4xx_cryp_aes.c ****       busystatus = CRYP_GetFlagStatus(CRYP_FLAG_BUSY);
 633              		.loc 1 234 0 discriminator 1
 634 0390 1020     		movs	r0, #16
 635 0392 FFF7FEFF 		bl	CRYP_GetFlagStatus
 636 0396 0346     		mov	r3, r0
 637 0398 C7F8D430 		str	r3, [r7, #212]
 235:libs/STM32F4xx_StdPeriph_Driver/src/stm32f4xx_cryp_aes.c ****       counter++;
 638              		.loc 1 235 0 discriminator 1
 639 039c 7B69     		ldr	r3, [r7, #20]
 640 039e 0133     		adds	r3, r3, #1
 641 03a0 7B61     		str	r3, [r7, #20]
 236:libs/STM32F4xx_StdPeriph_Driver/src/stm32f4xx_cryp_aes.c ****     }while ((counter != AESBUSY_TIMEOUT) && (busystatus != RESET));
 642              		.loc 1 236 0 discriminator 1
 643 03a2 7B69     		ldr	r3, [r7, #20]
 644 03a4 B3F5803F 		cmp	r3, #65536
 645 03a8 03D0     		beq	.L32
 646 03aa D7F8D430 		ldr	r3, [r7, #212]
 647 03ae 002B     		cmp	r3, #0
 648 03b0 EED1     		bne	.L33
 649              	.L32:
 237:libs/STM32F4xx_StdPeriph_Driver/src/stm32f4xx_cryp_aes.c **** 
 238:libs/STM32F4xx_StdPeriph_Driver/src/stm32f4xx_cryp_aes.c ****     if (busystatus != RESET)
 650              		.loc 1 238 0
 651 03b2 D7F8D430 		ldr	r3, [r7, #212]
 652 03b6 002B     		cmp	r3, #0
 653 03b8 03D0     		beq	.L34
 239:libs/STM32F4xx_StdPeriph_Driver/src/stm32f4xx_cryp_aes.c ****    {
 240:libs/STM32F4xx_StdPeriph_Driver/src/stm32f4xx_cryp_aes.c ****        status = ERROR;
 654              		.loc 1 240 0
 655 03ba 0023     		movs	r3, #0
 656 03bc 87F8E730 		strb	r3, [r7, #231]
 657 03c0 2BE0     		b	.L35
 658              	.L34:
 241:libs/STM32F4xx_StdPeriph_Driver/src/stm32f4xx_cryp_aes.c ****     }
 242:libs/STM32F4xx_StdPeriph_Driver/src/stm32f4xx_cryp_aes.c ****     else
 243:libs/STM32F4xx_StdPeriph_Driver/src/stm32f4xx_cryp_aes.c ****     {
 244:libs/STM32F4xx_StdPeriph_Driver/src/stm32f4xx_cryp_aes.c **** 
 245:libs/STM32F4xx_StdPeriph_Driver/src/stm32f4xx_cryp_aes.c ****       /* Read the Output block from the Output FIFO */
 246:libs/STM32F4xx_StdPeriph_Driver/src/stm32f4xx_cryp_aes.c ****       *(uint32_t*)(outputaddr) = CRYP_DataOut();
 659              		.loc 1 246 0
 660 03c2 D7F8DC40 		ldr	r4, [r7, #220]
 661 03c6 FFF7FEFF 		bl	CRYP_DataOut
 662 03ca 0346     		mov	r3, r0
 663 03cc 2360     		str	r3, [r4]
 247:libs/STM32F4xx_StdPeriph_Driver/src/stm32f4xx_cryp_aes.c ****       outputaddr+=4;
 664              		.loc 1 247 0
 665 03ce D7F8DC30 		ldr	r3, [r7, #220]
 666 03d2 0433     		adds	r3, r3, #4
 667 03d4 C7F8DC30 		str	r3, [r7, #220]
 248:libs/STM32F4xx_StdPeriph_Driver/src/stm32f4xx_cryp_aes.c ****       *(uint32_t*)(outputaddr) = CRYP_DataOut();
 668              		.loc 1 248 0
 669 03d8 D7F8DC40 		ldr	r4, [r7, #220]
 670 03dc FFF7FEFF 		bl	CRYP_DataOut
 671 03e0 0346     		mov	r3, r0
 672 03e2 2360     		str	r3, [r4]
 249:libs/STM32F4xx_StdPeriph_Driver/src/stm32f4xx_cryp_aes.c ****       outputaddr+=4;
 673              		.loc 1 249 0
 674 03e4 D7F8DC30 		ldr	r3, [r7, #220]
 675 03e8 0433     		adds	r3, r3, #4
 676 03ea C7F8DC30 		str	r3, [r7, #220]
 250:libs/STM32F4xx_StdPeriph_Driver/src/stm32f4xx_cryp_aes.c ****       *(uint32_t*)(outputaddr) = CRYP_DataOut();
 677              		.loc 1 250 0
 678 03ee D7F8DC40 		ldr	r4, [r7, #220]
 679 03f2 FFF7FEFF 		bl	CRYP_DataOut
 680 03f6 0346     		mov	r3, r0
 681 03f8 2360     		str	r3, [r4]
 251:libs/STM32F4xx_StdPeriph_Driver/src/stm32f4xx_cryp_aes.c ****       outputaddr+=4;
 682              		.loc 1 251 0
 683 03fa D7F8DC30 		ldr	r3, [r7, #220]
 684 03fe 0433     		adds	r3, r3, #4
 685 0400 C7F8DC30 		str	r3, [r7, #220]
 252:libs/STM32F4xx_StdPeriph_Driver/src/stm32f4xx_cryp_aes.c ****       *(uint32_t*)(outputaddr) = CRYP_DataOut(); 
 686              		.loc 1 252 0
 687 0404 D7F8DC40 		ldr	r4, [r7, #220]
 688 0408 FFF7FEFF 		bl	CRYP_DataOut
 689 040c 0346     		mov	r3, r0
 690 040e 2360     		str	r3, [r4]
 253:libs/STM32F4xx_StdPeriph_Driver/src/stm32f4xx_cryp_aes.c ****       outputaddr+=4;
 691              		.loc 1 253 0
 692 0410 D7F8DC30 		ldr	r3, [r7, #220]
 693 0414 0433     		adds	r3, r3, #4
 694 0416 C7F8DC30 		str	r3, [r7, #220]
 695              	.L35:
 217:libs/STM32F4xx_StdPeriph_Driver/src/stm32f4xx_cryp_aes.c ****   for(i=0; ((i<Ilength) && (status != ERROR)); i+=16)
 696              		.loc 1 217 0
 697 041a D7F8D830 		ldr	r3, [r7, #216]
 698 041e 1033     		adds	r3, r3, #16
 699 0420 C7F8D830 		str	r3, [r7, #216]
 700              	.L31:
 217:libs/STM32F4xx_StdPeriph_Driver/src/stm32f4xx_cryp_aes.c ****   for(i=0; ((i<Ilength) && (status != ERROR)); i+=16)
 701              		.loc 1 217 0 is_stmt 0 discriminator 1
 702 0424 D7F8D820 		ldr	r2, [r7, #216]
 703 0428 D7F8F830 		ldr	r3, [r7, #248]
 704 042c 9A42     		cmp	r2, r3
 705 042e 04D2     		bcs	.L36
 217:libs/STM32F4xx_StdPeriph_Driver/src/stm32f4xx_cryp_aes.c ****   for(i=0; ((i<Ilength) && (status != ERROR)); i+=16)
 706              		.loc 1 217 0 discriminator 2
 707 0430 97F8E730 		ldrb	r3, [r7, #231]	@ zero_extendqisi2
 708 0434 002B     		cmp	r3, #0
 709 0436 7FF47DAF 		bne	.L37
 710              	.L36:
 254:libs/STM32F4xx_StdPeriph_Driver/src/stm32f4xx_cryp_aes.c ****     }
 255:libs/STM32F4xx_StdPeriph_Driver/src/stm32f4xx_cryp_aes.c ****   }
 256:libs/STM32F4xx_StdPeriph_Driver/src/stm32f4xx_cryp_aes.c **** 
 257:libs/STM32F4xx_StdPeriph_Driver/src/stm32f4xx_cryp_aes.c ****   /* Disable Crypto */
 258:libs/STM32F4xx_StdPeriph_Driver/src/stm32f4xx_cryp_aes.c ****   CRYP_Cmd(DISABLE);
 711              		.loc 1 258 0 is_stmt 1
 712 043a 0020     		movs	r0, #0
 713 043c FFF7FEFF 		bl	CRYP_Cmd
 259:libs/STM32F4xx_StdPeriph_Driver/src/stm32f4xx_cryp_aes.c **** 
 260:libs/STM32F4xx_StdPeriph_Driver/src/stm32f4xx_cryp_aes.c ****   return status; 
 714              		.loc 1 260 0
 715 0440 97F8E730 		ldrb	r3, [r7, #231]	@ zero_extendqisi2
 261:libs/STM32F4xx_StdPeriph_Driver/src/stm32f4xx_cryp_aes.c **** }
 716              		.loc 1 261 0
 717 0444 1846     		mov	r0, r3
 718 0446 EC37     		adds	r7, r7, #236
 719 0448 BD46     		mov	sp, r7
 720              		@ sp needed
 721 044a 90BD     		pop	{r4, r7, pc}
 722              		.cfi_endproc
 723              	.LFE110:
 725              		.section	.text.CRYP_AES_CBC,"ax",%progbits
 726              		.align	2
 727              		.global	CRYP_AES_CBC
 728              		.thumb
 729              		.thumb_func
 731              	CRYP_AES_CBC:
 732              	.LFB111:
 262:libs/STM32F4xx_StdPeriph_Driver/src/stm32f4xx_cryp_aes.c **** 
 263:libs/STM32F4xx_StdPeriph_Driver/src/stm32f4xx_cryp_aes.c **** /**
 264:libs/STM32F4xx_StdPeriph_Driver/src/stm32f4xx_cryp_aes.c ****   * @brief  Encrypt and decrypt using AES in CBC Mode
 265:libs/STM32F4xx_StdPeriph_Driver/src/stm32f4xx_cryp_aes.c ****   * @param  Mode: encryption or decryption Mode.
 266:libs/STM32F4xx_StdPeriph_Driver/src/stm32f4xx_cryp_aes.c ****   *          This parameter can be one of the following values:
 267:libs/STM32F4xx_StdPeriph_Driver/src/stm32f4xx_cryp_aes.c ****   *            @arg MODE_ENCRYPT: Encryption
 268:libs/STM32F4xx_StdPeriph_Driver/src/stm32f4xx_cryp_aes.c ****   *            @arg MODE_DECRYPT: Decryption
 269:libs/STM32F4xx_StdPeriph_Driver/src/stm32f4xx_cryp_aes.c ****   * @param  InitVectors: Initialisation Vectors used for AES algorithm.
 270:libs/STM32F4xx_StdPeriph_Driver/src/stm32f4xx_cryp_aes.c ****   * @param  Key: Key used for AES algorithm.
 271:libs/STM32F4xx_StdPeriph_Driver/src/stm32f4xx_cryp_aes.c ****   * @param  Keysize: length of the Key, must be a 128, 192 or 256.
 272:libs/STM32F4xx_StdPeriph_Driver/src/stm32f4xx_cryp_aes.c ****   * @param  Input: pointer to the Input buffer.
 273:libs/STM32F4xx_StdPeriph_Driver/src/stm32f4xx_cryp_aes.c ****   * @param  Ilength: length of the Input buffer, must be a multiple of 16.
 274:libs/STM32F4xx_StdPeriph_Driver/src/stm32f4xx_cryp_aes.c ****   * @param  Output: pointer to the returned buffer.
 275:libs/STM32F4xx_StdPeriph_Driver/src/stm32f4xx_cryp_aes.c ****   * @retval An ErrorStatus enumeration value:
 276:libs/STM32F4xx_StdPeriph_Driver/src/stm32f4xx_cryp_aes.c ****   *          - SUCCESS: Operation done
 277:libs/STM32F4xx_StdPeriph_Driver/src/stm32f4xx_cryp_aes.c ****   *          - ERROR: Operation failed
 278:libs/STM32F4xx_StdPeriph_Driver/src/stm32f4xx_cryp_aes.c ****   */
 279:libs/STM32F4xx_StdPeriph_Driver/src/stm32f4xx_cryp_aes.c **** ErrorStatus CRYP_AES_CBC(uint8_t Mode, uint8_t InitVectors[16], uint8_t *Key,
 280:libs/STM32F4xx_StdPeriph_Driver/src/stm32f4xx_cryp_aes.c ****                          uint16_t Keysize, uint8_t *Input, uint32_t Ilength,
 281:libs/STM32F4xx_StdPeriph_Driver/src/stm32f4xx_cryp_aes.c ****                          uint8_t *Output)
 282:libs/STM32F4xx_StdPeriph_Driver/src/stm32f4xx_cryp_aes.c **** {
 733              		.loc 1 282 0
 734              		.cfi_startproc
 735              		@ args = 12, pretend = 0, frame = 280
 736              		@ frame_needed = 1, uses_anonymous_args = 0
 737 0000 90B5     		push	{r4, r7, lr}
 738              	.LCFI3:
 739              		.cfi_def_cfa_offset 12
 740              		.cfi_offset 4, -12
 741              		.cfi_offset 7, -8
 742              		.cfi_offset 14, -4
 743 0002 C7B0     		sub	sp, sp, #284
 744              	.LCFI4:
 745              		.cfi_def_cfa_offset 296
 746 0004 00AF     		add	r7, sp, #0
 747              	.LCFI5:
 748              		.cfi_def_cfa_register 7
 749 0006 07F10804 		add	r4, r7, #8
 750 000a 2160     		str	r1, [r4]
 751 000c 391D     		adds	r1, r7, #4
 752 000e 0A60     		str	r2, [r1]
 753 0010 1A46     		mov	r2, r3
 754 0012 07F10F03 		add	r3, r7, #15
 755 0016 0146     		mov	r1, r0
 756 0018 1970     		strb	r1, [r3]
 757 001a 07F10C03 		add	r3, r7, #12
 758 001e 1A80     		strh	r2, [r3]	@ movhi
 283:libs/STM32F4xx_StdPeriph_Driver/src/stm32f4xx_cryp_aes.c ****   CRYP_InitTypeDef AES_CRYP_InitStructure;
 284:libs/STM32F4xx_StdPeriph_Driver/src/stm32f4xx_cryp_aes.c ****   CRYP_KeyInitTypeDef AES_CRYP_KeyInitStructure;
 285:libs/STM32F4xx_StdPeriph_Driver/src/stm32f4xx_cryp_aes.c ****   CRYP_IVInitTypeDef AES_CRYP_IVInitStructure;
 286:libs/STM32F4xx_StdPeriph_Driver/src/stm32f4xx_cryp_aes.c ****   __IO uint32_t counter = 0;
 759              		.loc 1 286 0
 760 0020 07F11003 		add	r3, r7, #16
 761 0024 0022     		movs	r2, #0
 762 0026 1A60     		str	r2, [r3]
 287:libs/STM32F4xx_StdPeriph_Driver/src/stm32f4xx_cryp_aes.c ****   uint32_t busystatus = 0;
 763              		.loc 1 287 0
 764 0028 0023     		movs	r3, #0
 765 002a C7F80431 		str	r3, [r7, #260]
 288:libs/STM32F4xx_StdPeriph_Driver/src/stm32f4xx_cryp_aes.c ****   ErrorStatus status = SUCCESS;
 766              		.loc 1 288 0
 767 002e 0123     		movs	r3, #1
 768 0030 87F81731 		strb	r3, [r7, #279]
 289:libs/STM32F4xx_StdPeriph_Driver/src/stm32f4xx_cryp_aes.c ****   uint32_t keyaddr    = (uint32_t)Key;
 769              		.loc 1 289 0
 770 0034 3B1D     		adds	r3, r7, #4
 771 0036 1B68     		ldr	r3, [r3]
 772 0038 C7F80031 		str	r3, [r7, #256]
 290:libs/STM32F4xx_StdPeriph_Driver/src/stm32f4xx_cryp_aes.c ****   uint32_t inputaddr  = (uint32_t)Input;
 773              		.loc 1 290 0
 774 003c D7F82831 		ldr	r3, [r7, #296]
 775 0040 C7F81031 		str	r3, [r7, #272]
 291:libs/STM32F4xx_StdPeriph_Driver/src/stm32f4xx_cryp_aes.c ****   uint32_t outputaddr = (uint32_t)Output;
 776              		.loc 1 291 0
 777 0044 D7F83031 		ldr	r3, [r7, #304]
 778 0048 C7F80C31 		str	r3, [r7, #268]
 292:libs/STM32F4xx_StdPeriph_Driver/src/stm32f4xx_cryp_aes.c ****   uint32_t ivaddr     = (uint32_t)InitVectors;
 779              		.loc 1 292 0
 780 004c 07F10803 		add	r3, r7, #8
 781 0050 1B68     		ldr	r3, [r3]
 782 0052 C7F8FC30 		str	r3, [r7, #252]
 293:libs/STM32F4xx_StdPeriph_Driver/src/stm32f4xx_cryp_aes.c ****   uint32_t i = 0;
 783              		.loc 1 293 0
 784 0056 0023     		movs	r3, #0
 785 0058 C7F80831 		str	r3, [r7, #264]
 294:libs/STM32F4xx_StdPeriph_Driver/src/stm32f4xx_cryp_aes.c **** 
 295:libs/STM32F4xx_StdPeriph_Driver/src/stm32f4xx_cryp_aes.c ****   /* Crypto structures initialisation*/
 296:libs/STM32F4xx_StdPeriph_Driver/src/stm32f4xx_cryp_aes.c ****   CRYP_KeyStructInit(&AES_CRYP_KeyInitStructure);
 786              		.loc 1 296 0
 787 005c 07F12403 		add	r3, r7, #36
 788 0060 1846     		mov	r0, r3
 789 0062 FFF7FEFF 		bl	CRYP_KeyStructInit
 297:libs/STM32F4xx_StdPeriph_Driver/src/stm32f4xx_cryp_aes.c **** 
 298:libs/STM32F4xx_StdPeriph_Driver/src/stm32f4xx_cryp_aes.c ****   switch(Keysize)
 790              		.loc 1 298 0
 791 0066 07F10C03 		add	r3, r7, #12
 792 006a 1B88     		ldrh	r3, [r3]
 793 006c C02B     		cmp	r3, #192
 794 006e 4DD0     		beq	.L41
 795 0070 B3F5807F 		cmp	r3, #256
 796 0074 00F0B680 		beq	.L42
 797 0078 802B     		cmp	r3, #128
 798 007a 00D0     		beq	.L43
 299:libs/STM32F4xx_StdPeriph_Driver/src/stm32f4xx_cryp_aes.c ****   {
 300:libs/STM32F4xx_StdPeriph_Driver/src/stm32f4xx_cryp_aes.c ****     case 128:
 301:libs/STM32F4xx_StdPeriph_Driver/src/stm32f4xx_cryp_aes.c ****     AES_CRYP_InitStructure.CRYP_KeySize = CRYP_KeySize_128b;
 302:libs/STM32F4xx_StdPeriph_Driver/src/stm32f4xx_cryp_aes.c ****     AES_CRYP_KeyInitStructure.CRYP_Key2Left = __REV(*(uint32_t*)(keyaddr));
 303:libs/STM32F4xx_StdPeriph_Driver/src/stm32f4xx_cryp_aes.c ****     keyaddr+=4;
 304:libs/STM32F4xx_StdPeriph_Driver/src/stm32f4xx_cryp_aes.c ****     AES_CRYP_KeyInitStructure.CRYP_Key2Right= __REV(*(uint32_t*)(keyaddr));
 305:libs/STM32F4xx_StdPeriph_Driver/src/stm32f4xx_cryp_aes.c ****     keyaddr+=4;
 306:libs/STM32F4xx_StdPeriph_Driver/src/stm32f4xx_cryp_aes.c ****     AES_CRYP_KeyInitStructure.CRYP_Key3Left = __REV(*(uint32_t*)(keyaddr));
 307:libs/STM32F4xx_StdPeriph_Driver/src/stm32f4xx_cryp_aes.c ****     keyaddr+=4;
 308:libs/STM32F4xx_StdPeriph_Driver/src/stm32f4xx_cryp_aes.c ****     AES_CRYP_KeyInitStructure.CRYP_Key3Right= __REV(*(uint32_t*)(keyaddr));
 309:libs/STM32F4xx_StdPeriph_Driver/src/stm32f4xx_cryp_aes.c ****     break;
 310:libs/STM32F4xx_StdPeriph_Driver/src/stm32f4xx_cryp_aes.c ****     case 192:
 311:libs/STM32F4xx_StdPeriph_Driver/src/stm32f4xx_cryp_aes.c ****     AES_CRYP_InitStructure.CRYP_KeySize  = CRYP_KeySize_192b;
 312:libs/STM32F4xx_StdPeriph_Driver/src/stm32f4xx_cryp_aes.c ****     AES_CRYP_KeyInitStructure.CRYP_Key1Left = __REV(*(uint32_t*)(keyaddr));
 313:libs/STM32F4xx_StdPeriph_Driver/src/stm32f4xx_cryp_aes.c ****     keyaddr+=4;
 314:libs/STM32F4xx_StdPeriph_Driver/src/stm32f4xx_cryp_aes.c ****     AES_CRYP_KeyInitStructure.CRYP_Key1Right= __REV(*(uint32_t*)(keyaddr));
 315:libs/STM32F4xx_StdPeriph_Driver/src/stm32f4xx_cryp_aes.c ****     keyaddr+=4;
 316:libs/STM32F4xx_StdPeriph_Driver/src/stm32f4xx_cryp_aes.c ****     AES_CRYP_KeyInitStructure.CRYP_Key2Left = __REV(*(uint32_t*)(keyaddr));
 317:libs/STM32F4xx_StdPeriph_Driver/src/stm32f4xx_cryp_aes.c ****     keyaddr+=4;
 318:libs/STM32F4xx_StdPeriph_Driver/src/stm32f4xx_cryp_aes.c ****     AES_CRYP_KeyInitStructure.CRYP_Key2Right= __REV(*(uint32_t*)(keyaddr));
 319:libs/STM32F4xx_StdPeriph_Driver/src/stm32f4xx_cryp_aes.c ****     keyaddr+=4;
 320:libs/STM32F4xx_StdPeriph_Driver/src/stm32f4xx_cryp_aes.c ****     AES_CRYP_KeyInitStructure.CRYP_Key3Left = __REV(*(uint32_t*)(keyaddr));
 321:libs/STM32F4xx_StdPeriph_Driver/src/stm32f4xx_cryp_aes.c ****     keyaddr+=4;
 322:libs/STM32F4xx_StdPeriph_Driver/src/stm32f4xx_cryp_aes.c ****     AES_CRYP_KeyInitStructure.CRYP_Key3Right= __REV(*(uint32_t*)(keyaddr));
 323:libs/STM32F4xx_StdPeriph_Driver/src/stm32f4xx_cryp_aes.c ****     break;
 324:libs/STM32F4xx_StdPeriph_Driver/src/stm32f4xx_cryp_aes.c ****     case 256:
 325:libs/STM32F4xx_StdPeriph_Driver/src/stm32f4xx_cryp_aes.c ****     AES_CRYP_InitStructure.CRYP_KeySize  = CRYP_KeySize_256b;
 326:libs/STM32F4xx_StdPeriph_Driver/src/stm32f4xx_cryp_aes.c ****     AES_CRYP_KeyInitStructure.CRYP_Key0Left = __REV(*(uint32_t*)(keyaddr));
 327:libs/STM32F4xx_StdPeriph_Driver/src/stm32f4xx_cryp_aes.c ****     keyaddr+=4;
 328:libs/STM32F4xx_StdPeriph_Driver/src/stm32f4xx_cryp_aes.c ****     AES_CRYP_KeyInitStructure.CRYP_Key0Right= __REV(*(uint32_t*)(keyaddr));
 329:libs/STM32F4xx_StdPeriph_Driver/src/stm32f4xx_cryp_aes.c ****     keyaddr+=4;
 330:libs/STM32F4xx_StdPeriph_Driver/src/stm32f4xx_cryp_aes.c ****     AES_CRYP_KeyInitStructure.CRYP_Key1Left = __REV(*(uint32_t*)(keyaddr));
 331:libs/STM32F4xx_StdPeriph_Driver/src/stm32f4xx_cryp_aes.c ****     keyaddr+=4;
 332:libs/STM32F4xx_StdPeriph_Driver/src/stm32f4xx_cryp_aes.c ****     AES_CRYP_KeyInitStructure.CRYP_Key1Right= __REV(*(uint32_t*)(keyaddr));
 333:libs/STM32F4xx_StdPeriph_Driver/src/stm32f4xx_cryp_aes.c ****     keyaddr+=4;
 334:libs/STM32F4xx_StdPeriph_Driver/src/stm32f4xx_cryp_aes.c ****     AES_CRYP_KeyInitStructure.CRYP_Key2Left = __REV(*(uint32_t*)(keyaddr));
 335:libs/STM32F4xx_StdPeriph_Driver/src/stm32f4xx_cryp_aes.c ****     keyaddr+=4;
 336:libs/STM32F4xx_StdPeriph_Driver/src/stm32f4xx_cryp_aes.c ****     AES_CRYP_KeyInitStructure.CRYP_Key2Right= __REV(*(uint32_t*)(keyaddr));
 337:libs/STM32F4xx_StdPeriph_Driver/src/stm32f4xx_cryp_aes.c ****     keyaddr+=4;
 338:libs/STM32F4xx_StdPeriph_Driver/src/stm32f4xx_cryp_aes.c ****     AES_CRYP_KeyInitStructure.CRYP_Key3Left = __REV(*(uint32_t*)(keyaddr));
 339:libs/STM32F4xx_StdPeriph_Driver/src/stm32f4xx_cryp_aes.c ****     keyaddr+=4;
 340:libs/STM32F4xx_StdPeriph_Driver/src/stm32f4xx_cryp_aes.c ****     AES_CRYP_KeyInitStructure.CRYP_Key3Right= __REV(*(uint32_t*)(keyaddr));
 341:libs/STM32F4xx_StdPeriph_Driver/src/stm32f4xx_cryp_aes.c ****     break;
 342:libs/STM32F4xx_StdPeriph_Driver/src/stm32f4xx_cryp_aes.c ****     default:
 343:libs/STM32F4xx_StdPeriph_Driver/src/stm32f4xx_cryp_aes.c ****     break;
 799              		.loc 1 343 0
 800 007c 38E1     		b	.L48
 801              	.L43:
 301:libs/STM32F4xx_StdPeriph_Driver/src/stm32f4xx_cryp_aes.c ****     AES_CRYP_InitStructure.CRYP_KeySize = CRYP_KeySize_128b;
 802              		.loc 1 301 0
 803 007e 0023     		movs	r3, #0
 804 0080 A7F84A30 		strh	r3, [r7, #74]	@ movhi
 302:libs/STM32F4xx_StdPeriph_Driver/src/stm32f4xx_cryp_aes.c ****     AES_CRYP_KeyInitStructure.CRYP_Key2Left = __REV(*(uint32_t*)(keyaddr));
 805              		.loc 1 302 0
 806 0084 D7F80031 		ldr	r3, [r7, #256]
 807 0088 1B68     		ldr	r3, [r3]
 808 008a C7F8F830 		str	r3, [r7, #248]
 809              	.LBB162:
 810              	.LBB163:
 352:libs/CMSIS/Include/core_cmInstr.h ****   __ASM volatile ("rev %0, %1" : "=r" (result) : "r" (value) );
 811              		.loc 2 352 0
 812 008e D7F8F830 		ldr	r3, [r7, #248]
 813              	@ 352 "libs/CMSIS/Include/core_cmInstr.h" 1
 814 0092 1BBA     		rev r3, r3
 815              	@ 0 "" 2
 816              		.thumb
 817 0094 C7F8F430 		str	r3, [r7, #244]
 818              		.loc 2 353 0
 819 0098 D7F8F430 		ldr	r3, [r7, #244]
 820              	.LBE163:
 821              	.LBE162:
 302:libs/STM32F4xx_StdPeriph_Driver/src/stm32f4xx_cryp_aes.c ****     AES_CRYP_KeyInitStructure.CRYP_Key2Left = __REV(*(uint32_t*)(keyaddr));
 822              		.loc 1 302 0
 823 009c 7B63     		str	r3, [r7, #52]
 303:libs/STM32F4xx_StdPeriph_Driver/src/stm32f4xx_cryp_aes.c ****     keyaddr+=4;
 824              		.loc 1 303 0
 825 009e D7F80031 		ldr	r3, [r7, #256]
 826 00a2 0433     		adds	r3, r3, #4
 827 00a4 C7F80031 		str	r3, [r7, #256]
 304:libs/STM32F4xx_StdPeriph_Driver/src/stm32f4xx_cryp_aes.c ****     AES_CRYP_KeyInitStructure.CRYP_Key2Right= __REV(*(uint32_t*)(keyaddr));
 828              		.loc 1 304 0
 829 00a8 D7F80031 		ldr	r3, [r7, #256]
 830 00ac 1B68     		ldr	r3, [r3]
 831 00ae C7F8F030 		str	r3, [r7, #240]
 832              	.LBB164:
 833              	.LBB165:
 352:libs/CMSIS/Include/core_cmInstr.h ****   __ASM volatile ("rev %0, %1" : "=r" (result) : "r" (value) );
 834              		.loc 2 352 0
 835 00b2 D7F8F030 		ldr	r3, [r7, #240]
 836              	@ 352 "libs/CMSIS/Include/core_cmInstr.h" 1
 837 00b6 1BBA     		rev r3, r3
 838              	@ 0 "" 2
 839              		.thumb
 840 00b8 C7F8EC30 		str	r3, [r7, #236]
 841              		.loc 2 353 0
 842 00bc D7F8EC30 		ldr	r3, [r7, #236]
 843              	.LBE165:
 844              	.LBE164:
 304:libs/STM32F4xx_StdPeriph_Driver/src/stm32f4xx_cryp_aes.c ****     AES_CRYP_KeyInitStructure.CRYP_Key2Right= __REV(*(uint32_t*)(keyaddr));
 845              		.loc 1 304 0
 846 00c0 BB63     		str	r3, [r7, #56]
 305:libs/STM32F4xx_StdPeriph_Driver/src/stm32f4xx_cryp_aes.c ****     keyaddr+=4;
 847              		.loc 1 305 0
 848 00c2 D7F80031 		ldr	r3, [r7, #256]
 849 00c6 0433     		adds	r3, r3, #4
 850 00c8 C7F80031 		str	r3, [r7, #256]
 306:libs/STM32F4xx_StdPeriph_Driver/src/stm32f4xx_cryp_aes.c ****     AES_CRYP_KeyInitStructure.CRYP_Key3Left = __REV(*(uint32_t*)(keyaddr));
 851              		.loc 1 306 0
 852 00cc D7F80031 		ldr	r3, [r7, #256]
 853 00d0 1B68     		ldr	r3, [r3]
 854 00d2 C7F8E830 		str	r3, [r7, #232]
 855              	.LBB166:
 856              	.LBB167:
 352:libs/CMSIS/Include/core_cmInstr.h ****   __ASM volatile ("rev %0, %1" : "=r" (result) : "r" (value) );
 857              		.loc 2 352 0
 858 00d6 D7F8E830 		ldr	r3, [r7, #232]
 859              	@ 352 "libs/CMSIS/Include/core_cmInstr.h" 1
 860 00da 1BBA     		rev r3, r3
 861              	@ 0 "" 2
 862              		.thumb
 863 00dc C7F8E430 		str	r3, [r7, #228]
 864              		.loc 2 353 0
 865 00e0 D7F8E430 		ldr	r3, [r7, #228]
 866              	.LBE167:
 867              	.LBE166:
 306:libs/STM32F4xx_StdPeriph_Driver/src/stm32f4xx_cryp_aes.c ****     AES_CRYP_KeyInitStructure.CRYP_Key3Left = __REV(*(uint32_t*)(keyaddr));
 868              		.loc 1 306 0
 869 00e4 FB63     		str	r3, [r7, #60]
 307:libs/STM32F4xx_StdPeriph_Driver/src/stm32f4xx_cryp_aes.c ****     keyaddr+=4;
 870              		.loc 1 307 0
 871 00e6 D7F80031 		ldr	r3, [r7, #256]
 872 00ea 0433     		adds	r3, r3, #4
 873 00ec C7F80031 		str	r3, [r7, #256]
 308:libs/STM32F4xx_StdPeriph_Driver/src/stm32f4xx_cryp_aes.c ****     AES_CRYP_KeyInitStructure.CRYP_Key3Right= __REV(*(uint32_t*)(keyaddr));
 874              		.loc 1 308 0
 875 00f0 D7F80031 		ldr	r3, [r7, #256]
 876 00f4 1B68     		ldr	r3, [r3]
 877 00f6 C7F8E030 		str	r3, [r7, #224]
 878              	.LBB168:
 879              	.LBB169:
 352:libs/CMSIS/Include/core_cmInstr.h ****   __ASM volatile ("rev %0, %1" : "=r" (result) : "r" (value) );
 880              		.loc 2 352 0
 881 00fa D7F8E030 		ldr	r3, [r7, #224]
 882              	@ 352 "libs/CMSIS/Include/core_cmInstr.h" 1
 883 00fe 1BBA     		rev r3, r3
 884              	@ 0 "" 2
 885              		.thumb
 886 0100 C7F8DC30 		str	r3, [r7, #220]
 887              		.loc 2 353 0
 888 0104 D7F8DC30 		ldr	r3, [r7, #220]
 889              	.LBE169:
 890              	.LBE168:
 308:libs/STM32F4xx_StdPeriph_Driver/src/stm32f4xx_cryp_aes.c ****     AES_CRYP_KeyInitStructure.CRYP_Key3Right= __REV(*(uint32_t*)(keyaddr));
 891              		.loc 1 308 0
 892 0108 3B64     		str	r3, [r7, #64]
 309:libs/STM32F4xx_StdPeriph_Driver/src/stm32f4xx_cryp_aes.c ****     break;
 893              		.loc 1 309 0
 894 010a F1E0     		b	.L48
 895              	.L41:
 311:libs/STM32F4xx_StdPeriph_Driver/src/stm32f4xx_cryp_aes.c ****     AES_CRYP_InitStructure.CRYP_KeySize  = CRYP_KeySize_192b;
 896              		.loc 1 311 0
 897 010c 4FF48073 		mov	r3, #256
 898 0110 A7F84A30 		strh	r3, [r7, #74]	@ movhi
 312:libs/STM32F4xx_StdPeriph_Driver/src/stm32f4xx_cryp_aes.c ****     AES_CRYP_KeyInitStructure.CRYP_Key1Left = __REV(*(uint32_t*)(keyaddr));
 899              		.loc 1 312 0
 900 0114 D7F80031 		ldr	r3, [r7, #256]
 901 0118 1B68     		ldr	r3, [r3]
 902 011a C7F8D830 		str	r3, [r7, #216]
 903              	.LBB170:
 904              	.LBB171:
 352:libs/CMSIS/Include/core_cmInstr.h ****   __ASM volatile ("rev %0, %1" : "=r" (result) : "r" (value) );
 905              		.loc 2 352 0
 906 011e D7F8D830 		ldr	r3, [r7, #216]
 907              	@ 352 "libs/CMSIS/Include/core_cmInstr.h" 1
 908 0122 1BBA     		rev r3, r3
 909              	@ 0 "" 2
 910              		.thumb
 911 0124 C7F8D430 		str	r3, [r7, #212]
 912              		.loc 2 353 0
 913 0128 D7F8D430 		ldr	r3, [r7, #212]
 914              	.LBE171:
 915              	.LBE170:
 312:libs/STM32F4xx_StdPeriph_Driver/src/stm32f4xx_cryp_aes.c ****     AES_CRYP_KeyInitStructure.CRYP_Key1Left = __REV(*(uint32_t*)(keyaddr));
 916              		.loc 1 312 0
 917 012c FB62     		str	r3, [r7, #44]
 313:libs/STM32F4xx_StdPeriph_Driver/src/stm32f4xx_cryp_aes.c ****     keyaddr+=4;
 918              		.loc 1 313 0
 919 012e D7F80031 		ldr	r3, [r7, #256]
 920 0132 0433     		adds	r3, r3, #4
 921 0134 C7F80031 		str	r3, [r7, #256]
 314:libs/STM32F4xx_StdPeriph_Driver/src/stm32f4xx_cryp_aes.c ****     AES_CRYP_KeyInitStructure.CRYP_Key1Right= __REV(*(uint32_t*)(keyaddr));
 922              		.loc 1 314 0
 923 0138 D7F80031 		ldr	r3, [r7, #256]
 924 013c 1B68     		ldr	r3, [r3]
 925 013e C7F8D030 		str	r3, [r7, #208]
 926              	.LBB172:
 927              	.LBB173:
 352:libs/CMSIS/Include/core_cmInstr.h ****   __ASM volatile ("rev %0, %1" : "=r" (result) : "r" (value) );
 928              		.loc 2 352 0
 929 0142 D7F8D030 		ldr	r3, [r7, #208]
 930              	@ 352 "libs/CMSIS/Include/core_cmInstr.h" 1
 931 0146 1BBA     		rev r3, r3
 932              	@ 0 "" 2
 933              		.thumb
 934 0148 C7F8CC30 		str	r3, [r7, #204]
 935              		.loc 2 353 0
 936 014c D7F8CC30 		ldr	r3, [r7, #204]
 937              	.LBE173:
 938              	.LBE172:
 314:libs/STM32F4xx_StdPeriph_Driver/src/stm32f4xx_cryp_aes.c ****     AES_CRYP_KeyInitStructure.CRYP_Key1Right= __REV(*(uint32_t*)(keyaddr));
 939              		.loc 1 314 0
 940 0150 3B63     		str	r3, [r7, #48]
 315:libs/STM32F4xx_StdPeriph_Driver/src/stm32f4xx_cryp_aes.c ****     keyaddr+=4;
 941              		.loc 1 315 0
 942 0152 D7F80031 		ldr	r3, [r7, #256]
 943 0156 0433     		adds	r3, r3, #4
 944 0158 C7F80031 		str	r3, [r7, #256]
 316:libs/STM32F4xx_StdPeriph_Driver/src/stm32f4xx_cryp_aes.c ****     AES_CRYP_KeyInitStructure.CRYP_Key2Left = __REV(*(uint32_t*)(keyaddr));
 945              		.loc 1 316 0
 946 015c D7F80031 		ldr	r3, [r7, #256]
 947 0160 1B68     		ldr	r3, [r3]
 948 0162 C7F8C830 		str	r3, [r7, #200]
 949              	.LBB174:
 950              	.LBB175:
 352:libs/CMSIS/Include/core_cmInstr.h ****   __ASM volatile ("rev %0, %1" : "=r" (result) : "r" (value) );
 951              		.loc 2 352 0
 952 0166 D7F8C830 		ldr	r3, [r7, #200]
 953              	@ 352 "libs/CMSIS/Include/core_cmInstr.h" 1
 954 016a 1BBA     		rev r3, r3
 955              	@ 0 "" 2
 956              		.thumb
 957 016c C7F8C430 		str	r3, [r7, #196]
 958              		.loc 2 353 0
 959 0170 D7F8C430 		ldr	r3, [r7, #196]
 960              	.LBE175:
 961              	.LBE174:
 316:libs/STM32F4xx_StdPeriph_Driver/src/stm32f4xx_cryp_aes.c ****     AES_CRYP_KeyInitStructure.CRYP_Key2Left = __REV(*(uint32_t*)(keyaddr));
 962              		.loc 1 316 0
 963 0174 7B63     		str	r3, [r7, #52]
 317:libs/STM32F4xx_StdPeriph_Driver/src/stm32f4xx_cryp_aes.c ****     keyaddr+=4;
 964              		.loc 1 317 0
 965 0176 D7F80031 		ldr	r3, [r7, #256]
 966 017a 0433     		adds	r3, r3, #4
 967 017c C7F80031 		str	r3, [r7, #256]
 318:libs/STM32F4xx_StdPeriph_Driver/src/stm32f4xx_cryp_aes.c ****     AES_CRYP_KeyInitStructure.CRYP_Key2Right= __REV(*(uint32_t*)(keyaddr));
 968              		.loc 1 318 0
 969 0180 D7F80031 		ldr	r3, [r7, #256]
 970 0184 1B68     		ldr	r3, [r3]
 971 0186 C7F8C030 		str	r3, [r7, #192]
 972              	.LBB176:
 973              	.LBB177:
 352:libs/CMSIS/Include/core_cmInstr.h ****   __ASM volatile ("rev %0, %1" : "=r" (result) : "r" (value) );
 974              		.loc 2 352 0
 975 018a D7F8C030 		ldr	r3, [r7, #192]
 976              	@ 352 "libs/CMSIS/Include/core_cmInstr.h" 1
 977 018e 1BBA     		rev r3, r3
 978              	@ 0 "" 2
 979              		.thumb
 980 0190 C7F8BC30 		str	r3, [r7, #188]
 981              		.loc 2 353 0
 982 0194 D7F8BC30 		ldr	r3, [r7, #188]
 983              	.LBE177:
 984              	.LBE176:
 318:libs/STM32F4xx_StdPeriph_Driver/src/stm32f4xx_cryp_aes.c ****     AES_CRYP_KeyInitStructure.CRYP_Key2Right= __REV(*(uint32_t*)(keyaddr));
 985              		.loc 1 318 0
 986 0198 BB63     		str	r3, [r7, #56]
 319:libs/STM32F4xx_StdPeriph_Driver/src/stm32f4xx_cryp_aes.c ****     keyaddr+=4;
 987              		.loc 1 319 0
 988 019a D7F80031 		ldr	r3, [r7, #256]
 989 019e 0433     		adds	r3, r3, #4
 990 01a0 C7F80031 		str	r3, [r7, #256]
 320:libs/STM32F4xx_StdPeriph_Driver/src/stm32f4xx_cryp_aes.c ****     AES_CRYP_KeyInitStructure.CRYP_Key3Left = __REV(*(uint32_t*)(keyaddr));
 991              		.loc 1 320 0
 992 01a4 D7F80031 		ldr	r3, [r7, #256]
 993 01a8 1B68     		ldr	r3, [r3]
 994 01aa C7F8B830 		str	r3, [r7, #184]
 995              	.LBB178:
 996              	.LBB179:
 352:libs/CMSIS/Include/core_cmInstr.h ****   __ASM volatile ("rev %0, %1" : "=r" (result) : "r" (value) );
 997              		.loc 2 352 0
 998 01ae D7F8B830 		ldr	r3, [r7, #184]
 999              	@ 352 "libs/CMSIS/Include/core_cmInstr.h" 1
 1000 01b2 1BBA     		rev r3, r3
 1001              	@ 0 "" 2
 1002              		.thumb
 1003 01b4 C7F8B430 		str	r3, [r7, #180]
 1004              		.loc 2 353 0
 1005 01b8 D7F8B430 		ldr	r3, [r7, #180]
 1006              	.LBE179:
 1007              	.LBE178:
 320:libs/STM32F4xx_StdPeriph_Driver/src/stm32f4xx_cryp_aes.c ****     AES_CRYP_KeyInitStructure.CRYP_Key3Left = __REV(*(uint32_t*)(keyaddr));
 1008              		.loc 1 320 0
 1009 01bc FB63     		str	r3, [r7, #60]
 321:libs/STM32F4xx_StdPeriph_Driver/src/stm32f4xx_cryp_aes.c ****     keyaddr+=4;
 1010              		.loc 1 321 0
 1011 01be D7F80031 		ldr	r3, [r7, #256]
 1012 01c2 0433     		adds	r3, r3, #4
 1013 01c4 C7F80031 		str	r3, [r7, #256]
 322:libs/STM32F4xx_StdPeriph_Driver/src/stm32f4xx_cryp_aes.c ****     AES_CRYP_KeyInitStructure.CRYP_Key3Right= __REV(*(uint32_t*)(keyaddr));
 1014              		.loc 1 322 0
 1015 01c8 D7F80031 		ldr	r3, [r7, #256]
 1016 01cc 1B68     		ldr	r3, [r3]
 1017 01ce C7F8B030 		str	r3, [r7, #176]
 1018              	.LBB180:
 1019              	.LBB181:
 352:libs/CMSIS/Include/core_cmInstr.h ****   __ASM volatile ("rev %0, %1" : "=r" (result) : "r" (value) );
 1020              		.loc 2 352 0
 1021 01d2 D7F8B030 		ldr	r3, [r7, #176]
 1022              	@ 352 "libs/CMSIS/Include/core_cmInstr.h" 1
 1023 01d6 1BBA     		rev r3, r3
 1024              	@ 0 "" 2
 1025              		.thumb
 1026 01d8 C7F8AC30 		str	r3, [r7, #172]
 1027              		.loc 2 353 0
 1028 01dc D7F8AC30 		ldr	r3, [r7, #172]
 1029              	.LBE181:
 1030              	.LBE180:
 322:libs/STM32F4xx_StdPeriph_Driver/src/stm32f4xx_cryp_aes.c ****     AES_CRYP_KeyInitStructure.CRYP_Key3Right= __REV(*(uint32_t*)(keyaddr));
 1031              		.loc 1 322 0
 1032 01e0 3B64     		str	r3, [r7, #64]
 323:libs/STM32F4xx_StdPeriph_Driver/src/stm32f4xx_cryp_aes.c ****     break;
 1033              		.loc 1 323 0
 1034 01e2 85E0     		b	.L48
 1035              	.L42:
 325:libs/STM32F4xx_StdPeriph_Driver/src/stm32f4xx_cryp_aes.c ****     AES_CRYP_InitStructure.CRYP_KeySize  = CRYP_KeySize_256b;
 1036              		.loc 1 325 0
 1037 01e4 4FF40073 		mov	r3, #512
 1038 01e8 A7F84A30 		strh	r3, [r7, #74]	@ movhi
 326:libs/STM32F4xx_StdPeriph_Driver/src/stm32f4xx_cryp_aes.c ****     AES_CRYP_KeyInitStructure.CRYP_Key0Left = __REV(*(uint32_t*)(keyaddr));
 1039              		.loc 1 326 0
 1040 01ec D7F80031 		ldr	r3, [r7, #256]
 1041 01f0 1B68     		ldr	r3, [r3]
 1042 01f2 C7F8A830 		str	r3, [r7, #168]
 1043              	.LBB182:
 1044              	.LBB183:
 352:libs/CMSIS/Include/core_cmInstr.h ****   __ASM volatile ("rev %0, %1" : "=r" (result) : "r" (value) );
 1045              		.loc 2 352 0
 1046 01f6 D7F8A830 		ldr	r3, [r7, #168]
 1047              	@ 352 "libs/CMSIS/Include/core_cmInstr.h" 1
 1048 01fa 1BBA     		rev r3, r3
 1049              	@ 0 "" 2
 1050              		.thumb
 1051 01fc C7F8A430 		str	r3, [r7, #164]
 1052              		.loc 2 353 0
 1053 0200 D7F8A430 		ldr	r3, [r7, #164]
 1054              	.LBE183:
 1055              	.LBE182:
 326:libs/STM32F4xx_StdPeriph_Driver/src/stm32f4xx_cryp_aes.c ****     AES_CRYP_KeyInitStructure.CRYP_Key0Left = __REV(*(uint32_t*)(keyaddr));
 1056              		.loc 1 326 0
 1057 0204 7B62     		str	r3, [r7, #36]
 327:libs/STM32F4xx_StdPeriph_Driver/src/stm32f4xx_cryp_aes.c ****     keyaddr+=4;
 1058              		.loc 1 327 0
 1059 0206 D7F80031 		ldr	r3, [r7, #256]
 1060 020a 0433     		adds	r3, r3, #4
 1061 020c C7F80031 		str	r3, [r7, #256]
 328:libs/STM32F4xx_StdPeriph_Driver/src/stm32f4xx_cryp_aes.c ****     AES_CRYP_KeyInitStructure.CRYP_Key0Right= __REV(*(uint32_t*)(keyaddr));
 1062              		.loc 1 328 0
 1063 0210 D7F80031 		ldr	r3, [r7, #256]
 1064 0214 1B68     		ldr	r3, [r3]
 1065 0216 C7F8A030 		str	r3, [r7, #160]
 1066              	.LBB184:
 1067              	.LBB185:
 352:libs/CMSIS/Include/core_cmInstr.h ****   __ASM volatile ("rev %0, %1" : "=r" (result) : "r" (value) );
 1068              		.loc 2 352 0
 1069 021a D7F8A030 		ldr	r3, [r7, #160]
 1070              	@ 352 "libs/CMSIS/Include/core_cmInstr.h" 1
 1071 021e 1BBA     		rev r3, r3
 1072              	@ 0 "" 2
 1073              		.thumb
 1074 0220 C7F89C30 		str	r3, [r7, #156]
 1075              		.loc 2 353 0
 1076 0224 D7F89C30 		ldr	r3, [r7, #156]
 1077              	.LBE185:
 1078              	.LBE184:
 328:libs/STM32F4xx_StdPeriph_Driver/src/stm32f4xx_cryp_aes.c ****     AES_CRYP_KeyInitStructure.CRYP_Key0Right= __REV(*(uint32_t*)(keyaddr));
 1079              		.loc 1 328 0
 1080 0228 BB62     		str	r3, [r7, #40]
 329:libs/STM32F4xx_StdPeriph_Driver/src/stm32f4xx_cryp_aes.c ****     keyaddr+=4;
 1081              		.loc 1 329 0
 1082 022a D7F80031 		ldr	r3, [r7, #256]
 1083 022e 0433     		adds	r3, r3, #4
 1084 0230 C7F80031 		str	r3, [r7, #256]
 330:libs/STM32F4xx_StdPeriph_Driver/src/stm32f4xx_cryp_aes.c ****     AES_CRYP_KeyInitStructure.CRYP_Key1Left = __REV(*(uint32_t*)(keyaddr));
 1085              		.loc 1 330 0
 1086 0234 D7F80031 		ldr	r3, [r7, #256]
 1087 0238 1B68     		ldr	r3, [r3]
 1088 023a C7F89830 		str	r3, [r7, #152]
 1089              	.LBB186:
 1090              	.LBB187:
 352:libs/CMSIS/Include/core_cmInstr.h ****   __ASM volatile ("rev %0, %1" : "=r" (result) : "r" (value) );
 1091              		.loc 2 352 0
 1092 023e D7F89830 		ldr	r3, [r7, #152]
 1093              	@ 352 "libs/CMSIS/Include/core_cmInstr.h" 1
 1094 0242 1BBA     		rev r3, r3
 1095              	@ 0 "" 2
 1096              		.thumb
 1097 0244 C7F89430 		str	r3, [r7, #148]
 1098              		.loc 2 353 0
 1099 0248 D7F89430 		ldr	r3, [r7, #148]
 1100              	.LBE187:
 1101              	.LBE186:
 330:libs/STM32F4xx_StdPeriph_Driver/src/stm32f4xx_cryp_aes.c ****     AES_CRYP_KeyInitStructure.CRYP_Key1Left = __REV(*(uint32_t*)(keyaddr));
 1102              		.loc 1 330 0
 1103 024c FB62     		str	r3, [r7, #44]
 331:libs/STM32F4xx_StdPeriph_Driver/src/stm32f4xx_cryp_aes.c ****     keyaddr+=4;
 1104              		.loc 1 331 0
 1105 024e D7F80031 		ldr	r3, [r7, #256]
 1106 0252 0433     		adds	r3, r3, #4
 1107 0254 C7F80031 		str	r3, [r7, #256]
 332:libs/STM32F4xx_StdPeriph_Driver/src/stm32f4xx_cryp_aes.c ****     AES_CRYP_KeyInitStructure.CRYP_Key1Right= __REV(*(uint32_t*)(keyaddr));
 1108              		.loc 1 332 0
 1109 0258 D7F80031 		ldr	r3, [r7, #256]
 1110 025c 1B68     		ldr	r3, [r3]
 1111 025e C7F89030 		str	r3, [r7, #144]
 1112              	.LBB188:
 1113              	.LBB189:
 352:libs/CMSIS/Include/core_cmInstr.h ****   __ASM volatile ("rev %0, %1" : "=r" (result) : "r" (value) );
 1114              		.loc 2 352 0
 1115 0262 D7F89030 		ldr	r3, [r7, #144]
 1116              	@ 352 "libs/CMSIS/Include/core_cmInstr.h" 1
 1117 0266 1BBA     		rev r3, r3
 1118              	@ 0 "" 2
 1119              		.thumb
 1120 0268 C7F88C30 		str	r3, [r7, #140]
 1121              		.loc 2 353 0
 1122 026c D7F88C30 		ldr	r3, [r7, #140]
 1123              	.LBE189:
 1124              	.LBE188:
 332:libs/STM32F4xx_StdPeriph_Driver/src/stm32f4xx_cryp_aes.c ****     AES_CRYP_KeyInitStructure.CRYP_Key1Right= __REV(*(uint32_t*)(keyaddr));
 1125              		.loc 1 332 0
 1126 0270 3B63     		str	r3, [r7, #48]
 333:libs/STM32F4xx_StdPeriph_Driver/src/stm32f4xx_cryp_aes.c ****     keyaddr+=4;
 1127              		.loc 1 333 0
 1128 0272 D7F80031 		ldr	r3, [r7, #256]
 1129 0276 0433     		adds	r3, r3, #4
 1130 0278 C7F80031 		str	r3, [r7, #256]
 334:libs/STM32F4xx_StdPeriph_Driver/src/stm32f4xx_cryp_aes.c ****     AES_CRYP_KeyInitStructure.CRYP_Key2Left = __REV(*(uint32_t*)(keyaddr));
 1131              		.loc 1 334 0
 1132 027c D7F80031 		ldr	r3, [r7, #256]
 1133 0280 1B68     		ldr	r3, [r3]
 1134 0282 C7F88830 		str	r3, [r7, #136]
 1135              	.LBB190:
 1136              	.LBB191:
 352:libs/CMSIS/Include/core_cmInstr.h ****   __ASM volatile ("rev %0, %1" : "=r" (result) : "r" (value) );
 1137              		.loc 2 352 0
 1138 0286 D7F88830 		ldr	r3, [r7, #136]
 1139              	@ 352 "libs/CMSIS/Include/core_cmInstr.h" 1
 1140 028a 1BBA     		rev r3, r3
 1141              	@ 0 "" 2
 1142              		.thumb
 1143 028c C7F88430 		str	r3, [r7, #132]
 1144              		.loc 2 353 0
 1145 0290 D7F88430 		ldr	r3, [r7, #132]
 1146              	.LBE191:
 1147              	.LBE190:
 334:libs/STM32F4xx_StdPeriph_Driver/src/stm32f4xx_cryp_aes.c ****     AES_CRYP_KeyInitStructure.CRYP_Key2Left = __REV(*(uint32_t*)(keyaddr));
 1148              		.loc 1 334 0
 1149 0294 7B63     		str	r3, [r7, #52]
 335:libs/STM32F4xx_StdPeriph_Driver/src/stm32f4xx_cryp_aes.c ****     keyaddr+=4;
 1150              		.loc 1 335 0
 1151 0296 D7F80031 		ldr	r3, [r7, #256]
 1152 029a 0433     		adds	r3, r3, #4
 1153 029c C7F80031 		str	r3, [r7, #256]
 336:libs/STM32F4xx_StdPeriph_Driver/src/stm32f4xx_cryp_aes.c ****     AES_CRYP_KeyInitStructure.CRYP_Key2Right= __REV(*(uint32_t*)(keyaddr));
 1154              		.loc 1 336 0
 1155 02a0 D7F80031 		ldr	r3, [r7, #256]
 1156 02a4 1B68     		ldr	r3, [r3]
 1157 02a6 C7F88030 		str	r3, [r7, #128]
 1158              	.LBB192:
 1159              	.LBB193:
 352:libs/CMSIS/Include/core_cmInstr.h ****   __ASM volatile ("rev %0, %1" : "=r" (result) : "r" (value) );
 1160              		.loc 2 352 0
 1161 02aa D7F88030 		ldr	r3, [r7, #128]
 1162              	@ 352 "libs/CMSIS/Include/core_cmInstr.h" 1
 1163 02ae 1BBA     		rev r3, r3
 1164              	@ 0 "" 2
 1165              		.thumb
 1166 02b0 FB67     		str	r3, [r7, #124]
 1167              		.loc 2 353 0
 1168 02b2 FB6F     		ldr	r3, [r7, #124]
 1169              	.LBE193:
 1170              	.LBE192:
 336:libs/STM32F4xx_StdPeriph_Driver/src/stm32f4xx_cryp_aes.c ****     AES_CRYP_KeyInitStructure.CRYP_Key2Right= __REV(*(uint32_t*)(keyaddr));
 1171              		.loc 1 336 0
 1172 02b4 BB63     		str	r3, [r7, #56]
 337:libs/STM32F4xx_StdPeriph_Driver/src/stm32f4xx_cryp_aes.c ****     keyaddr+=4;
 1173              		.loc 1 337 0
 1174 02b6 D7F80031 		ldr	r3, [r7, #256]
 1175 02ba 0433     		adds	r3, r3, #4
 1176 02bc C7F80031 		str	r3, [r7, #256]
 338:libs/STM32F4xx_StdPeriph_Driver/src/stm32f4xx_cryp_aes.c ****     AES_CRYP_KeyInitStructure.CRYP_Key3Left = __REV(*(uint32_t*)(keyaddr));
 1177              		.loc 1 338 0
 1178 02c0 D7F80031 		ldr	r3, [r7, #256]
 1179 02c4 1B68     		ldr	r3, [r3]
 1180 02c6 BB67     		str	r3, [r7, #120]
 1181              	.LBB194:
 1182              	.LBB195:
 352:libs/CMSIS/Include/core_cmInstr.h ****   __ASM volatile ("rev %0, %1" : "=r" (result) : "r" (value) );
 1183              		.loc 2 352 0
 1184 02c8 BB6F     		ldr	r3, [r7, #120]
 1185              	@ 352 "libs/CMSIS/Include/core_cmInstr.h" 1
 1186 02ca 1BBA     		rev r3, r3
 1187              	@ 0 "" 2
 1188              		.thumb
 1189 02cc 7B67     		str	r3, [r7, #116]
 1190              		.loc 2 353 0
 1191 02ce 7B6F     		ldr	r3, [r7, #116]
 1192              	.LBE195:
 1193              	.LBE194:
 338:libs/STM32F4xx_StdPeriph_Driver/src/stm32f4xx_cryp_aes.c ****     AES_CRYP_KeyInitStructure.CRYP_Key3Left = __REV(*(uint32_t*)(keyaddr));
 1194              		.loc 1 338 0
 1195 02d0 FB63     		str	r3, [r7, #60]
 339:libs/STM32F4xx_StdPeriph_Driver/src/stm32f4xx_cryp_aes.c ****     keyaddr+=4;
 1196              		.loc 1 339 0
 1197 02d2 D7F80031 		ldr	r3, [r7, #256]
 1198 02d6 0433     		adds	r3, r3, #4
 1199 02d8 C7F80031 		str	r3, [r7, #256]
 340:libs/STM32F4xx_StdPeriph_Driver/src/stm32f4xx_cryp_aes.c ****     AES_CRYP_KeyInitStructure.CRYP_Key3Right= __REV(*(uint32_t*)(keyaddr));
 1200              		.loc 1 340 0
 1201 02dc D7F80031 		ldr	r3, [r7, #256]
 1202 02e0 1B68     		ldr	r3, [r3]
 1203 02e2 3B67     		str	r3, [r7, #112]
 1204              	.LBB196:
 1205              	.LBB197:
 352:libs/CMSIS/Include/core_cmInstr.h ****   __ASM volatile ("rev %0, %1" : "=r" (result) : "r" (value) );
 1206              		.loc 2 352 0
 1207 02e4 3B6F     		ldr	r3, [r7, #112]
 1208              	@ 352 "libs/CMSIS/Include/core_cmInstr.h" 1
 1209 02e6 1BBA     		rev r3, r3
 1210              	@ 0 "" 2
 1211              		.thumb
 1212 02e8 FB66     		str	r3, [r7, #108]
 1213              		.loc 2 353 0
 1214 02ea FB6E     		ldr	r3, [r7, #108]
 1215              	.LBE197:
 1216              	.LBE196:
 340:libs/STM32F4xx_StdPeriph_Driver/src/stm32f4xx_cryp_aes.c ****     AES_CRYP_KeyInitStructure.CRYP_Key3Right= __REV(*(uint32_t*)(keyaddr));
 1217              		.loc 1 340 0
 1218 02ec 3B64     		str	r3, [r7, #64]
 341:libs/STM32F4xx_StdPeriph_Driver/src/stm32f4xx_cryp_aes.c ****     break;
 1219              		.loc 1 341 0
 1220 02ee 00BF     		nop
 1221              	.L48:
 344:libs/STM32F4xx_StdPeriph_Driver/src/stm32f4xx_cryp_aes.c ****   }
 345:libs/STM32F4xx_StdPeriph_Driver/src/stm32f4xx_cryp_aes.c **** 
 346:libs/STM32F4xx_StdPeriph_Driver/src/stm32f4xx_cryp_aes.c ****   /* CRYP Initialization Vectors */
 347:libs/STM32F4xx_StdPeriph_Driver/src/stm32f4xx_cryp_aes.c ****   AES_CRYP_IVInitStructure.CRYP_IV0Left = __REV(*(uint32_t*)(ivaddr));
 1222              		.loc 1 347 0
 1223 02f0 D7F8FC30 		ldr	r3, [r7, #252]
 1224 02f4 1B68     		ldr	r3, [r3]
 1225 02f6 BB66     		str	r3, [r7, #104]
 1226              	.LBB198:
 1227              	.LBB199:
 352:libs/CMSIS/Include/core_cmInstr.h ****   __ASM volatile ("rev %0, %1" : "=r" (result) : "r" (value) );
 1228              		.loc 2 352 0
 1229 02f8 BB6E     		ldr	r3, [r7, #104]
 1230              	@ 352 "libs/CMSIS/Include/core_cmInstr.h" 1
 1231 02fa 1BBA     		rev r3, r3
 1232              	@ 0 "" 2
 1233              		.thumb
 1234 02fc 7B66     		str	r3, [r7, #100]
 1235              		.loc 2 353 0
 1236 02fe 7B6E     		ldr	r3, [r7, #100]
 1237              	.LBE199:
 1238              	.LBE198:
 1239              		.loc 1 347 0
 1240 0300 1A46     		mov	r2, r3
 1241 0302 07F11403 		add	r3, r7, #20
 1242 0306 1A60     		str	r2, [r3]
 348:libs/STM32F4xx_StdPeriph_Driver/src/stm32f4xx_cryp_aes.c ****   ivaddr+=4;
 1243              		.loc 1 348 0
 1244 0308 D7F8FC30 		ldr	r3, [r7, #252]
 1245 030c 0433     		adds	r3, r3, #4
 1246 030e C7F8FC30 		str	r3, [r7, #252]
 349:libs/STM32F4xx_StdPeriph_Driver/src/stm32f4xx_cryp_aes.c ****   AES_CRYP_IVInitStructure.CRYP_IV0Right= __REV(*(uint32_t*)(ivaddr));
 1247              		.loc 1 349 0
 1248 0312 D7F8FC30 		ldr	r3, [r7, #252]
 1249 0316 1B68     		ldr	r3, [r3]
 1250 0318 3B66     		str	r3, [r7, #96]
 1251              	.LBB200:
 1252              	.LBB201:
 352:libs/CMSIS/Include/core_cmInstr.h ****   __ASM volatile ("rev %0, %1" : "=r" (result) : "r" (value) );
 1253              		.loc 2 352 0
 1254 031a 3B6E     		ldr	r3, [r7, #96]
 1255              	@ 352 "libs/CMSIS/Include/core_cmInstr.h" 1
 1256 031c 1BBA     		rev r3, r3
 1257              	@ 0 "" 2
 1258              		.thumb
 1259 031e FB65     		str	r3, [r7, #92]
 1260              		.loc 2 353 0
 1261 0320 FB6D     		ldr	r3, [r7, #92]
 1262              	.LBE201:
 1263              	.LBE200:
 1264              		.loc 1 349 0
 1265 0322 1A46     		mov	r2, r3
 1266 0324 07F11403 		add	r3, r7, #20
 1267 0328 5A60     		str	r2, [r3, #4]
 350:libs/STM32F4xx_StdPeriph_Driver/src/stm32f4xx_cryp_aes.c ****   ivaddr+=4;
 1268              		.loc 1 350 0
 1269 032a D7F8FC30 		ldr	r3, [r7, #252]
 1270 032e 0433     		adds	r3, r3, #4
 1271 0330 C7F8FC30 		str	r3, [r7, #252]
 351:libs/STM32F4xx_StdPeriph_Driver/src/stm32f4xx_cryp_aes.c ****   AES_CRYP_IVInitStructure.CRYP_IV1Left = __REV(*(uint32_t*)(ivaddr));
 1272              		.loc 1 351 0
 1273 0334 D7F8FC30 		ldr	r3, [r7, #252]
 1274 0338 1B68     		ldr	r3, [r3]
 1275 033a BB65     		str	r3, [r7, #88]
 1276              	.LBB202:
 1277              	.LBB203:
 352:libs/CMSIS/Include/core_cmInstr.h ****   __ASM volatile ("rev %0, %1" : "=r" (result) : "r" (value) );
 1278              		.loc 2 352 0
 1279 033c BB6D     		ldr	r3, [r7, #88]
 1280              	@ 352 "libs/CMSIS/Include/core_cmInstr.h" 1
 1281 033e 1BBA     		rev r3, r3
 1282              	@ 0 "" 2
 1283              		.thumb
 1284 0340 7B65     		str	r3, [r7, #84]
 1285              		.loc 2 353 0
 1286 0342 7B6D     		ldr	r3, [r7, #84]
 1287              	.LBE203:
 1288              	.LBE202:
 1289              		.loc 1 351 0
 1290 0344 1A46     		mov	r2, r3
 1291 0346 07F11403 		add	r3, r7, #20
 1292 034a 9A60     		str	r2, [r3, #8]
 352:libs/STM32F4xx_StdPeriph_Driver/src/stm32f4xx_cryp_aes.c ****   ivaddr+=4;
 1293              		.loc 1 352 0
 1294 034c D7F8FC30 		ldr	r3, [r7, #252]
 1295 0350 0433     		adds	r3, r3, #4
 1296 0352 C7F8FC30 		str	r3, [r7, #252]
 353:libs/STM32F4xx_StdPeriph_Driver/src/stm32f4xx_cryp_aes.c ****   AES_CRYP_IVInitStructure.CRYP_IV1Right= __REV(*(uint32_t*)(ivaddr));
 1297              		.loc 1 353 0
 1298 0356 D7F8FC30 		ldr	r3, [r7, #252]
 1299 035a 1B68     		ldr	r3, [r3]
 1300 035c 3B65     		str	r3, [r7, #80]
 1301              	.LBB204:
 1302              	.LBB205:
 352:libs/CMSIS/Include/core_cmInstr.h ****   __ASM volatile ("rev %0, %1" : "=r" (result) : "r" (value) );
 1303              		.loc 2 352 0
 1304 035e 3B6D     		ldr	r3, [r7, #80]
 1305              	@ 352 "libs/CMSIS/Include/core_cmInstr.h" 1
 1306 0360 1BBA     		rev r3, r3
 1307              	@ 0 "" 2
 1308              		.thumb
 1309 0362 FB64     		str	r3, [r7, #76]
 1310              		.loc 2 353 0
 1311 0364 FB6C     		ldr	r3, [r7, #76]
 1312              	.LBE205:
 1313              	.LBE204:
 1314              		.loc 1 353 0
 1315 0366 1A46     		mov	r2, r3
 1316 0368 07F11403 		add	r3, r7, #20
 1317 036c DA60     		str	r2, [r3, #12]
 354:libs/STM32F4xx_StdPeriph_Driver/src/stm32f4xx_cryp_aes.c **** 
 355:libs/STM32F4xx_StdPeriph_Driver/src/stm32f4xx_cryp_aes.c **** 
 356:libs/STM32F4xx_StdPeriph_Driver/src/stm32f4xx_cryp_aes.c ****   /*------------------ AES Decryption ------------------*/
 357:libs/STM32F4xx_StdPeriph_Driver/src/stm32f4xx_cryp_aes.c ****   if(Mode == MODE_DECRYPT) /* AES decryption */
 1318              		.loc 1 357 0
 1319 036e 07F10F03 		add	r3, r7, #15
 1320 0372 1B78     		ldrb	r3, [r3]	@ zero_extendqisi2
 1321 0374 002B     		cmp	r3, #0
 1322 0376 3AD1     		bne	.L67
 358:libs/STM32F4xx_StdPeriph_Driver/src/stm32f4xx_cryp_aes.c ****   {
 359:libs/STM32F4xx_StdPeriph_Driver/src/stm32f4xx_cryp_aes.c ****     /* Flush IN/OUT FIFOs */
 360:libs/STM32F4xx_StdPeriph_Driver/src/stm32f4xx_cryp_aes.c ****     CRYP_FIFOFlush();
 1323              		.loc 1 360 0
 1324 0378 FFF7FEFF 		bl	CRYP_FIFOFlush
 361:libs/STM32F4xx_StdPeriph_Driver/src/stm32f4xx_cryp_aes.c **** 
 362:libs/STM32F4xx_StdPeriph_Driver/src/stm32f4xx_cryp_aes.c ****     /* Crypto Init for Key preparation for decryption process */
 363:libs/STM32F4xx_StdPeriph_Driver/src/stm32f4xx_cryp_aes.c ****     AES_CRYP_InitStructure.CRYP_AlgoDir = CRYP_AlgoDir_Decrypt;
 1325              		.loc 1 363 0
 1326 037c 0423     		movs	r3, #4
 1327 037e A7F84430 		strh	r3, [r7, #68]	@ movhi
 364:libs/STM32F4xx_StdPeriph_Driver/src/stm32f4xx_cryp_aes.c ****     AES_CRYP_InitStructure.CRYP_AlgoMode = CRYP_AlgoMode_AES_Key;
 1328              		.loc 1 364 0
 1329 0382 3823     		movs	r3, #56
 1330 0384 A7F84630 		strh	r3, [r7, #70]	@ movhi
 365:libs/STM32F4xx_StdPeriph_Driver/src/stm32f4xx_cryp_aes.c ****     AES_CRYP_InitStructure.CRYP_DataType = CRYP_DataType_32b;
 1331              		.loc 1 365 0
 1332 0388 0023     		movs	r3, #0
 1333 038a A7F84830 		strh	r3, [r7, #72]	@ movhi
 366:libs/STM32F4xx_StdPeriph_Driver/src/stm32f4xx_cryp_aes.c **** 
 367:libs/STM32F4xx_StdPeriph_Driver/src/stm32f4xx_cryp_aes.c ****     CRYP_Init(&AES_CRYP_InitStructure);
 1334              		.loc 1 367 0
 1335 038e 07F14403 		add	r3, r7, #68
 1336 0392 1846     		mov	r0, r3
 1337 0394 FFF7FEFF 		bl	CRYP_Init
 368:libs/STM32F4xx_StdPeriph_Driver/src/stm32f4xx_cryp_aes.c **** 
 369:libs/STM32F4xx_StdPeriph_Driver/src/stm32f4xx_cryp_aes.c ****     /* Key Initialisation */
 370:libs/STM32F4xx_StdPeriph_Driver/src/stm32f4xx_cryp_aes.c ****     CRYP_KeyInit(&AES_CRYP_KeyInitStructure);
 1338              		.loc 1 370 0
 1339 0398 07F12403 		add	r3, r7, #36
 1340 039c 1846     		mov	r0, r3
 1341 039e FFF7FEFF 		bl	CRYP_KeyInit
 371:libs/STM32F4xx_StdPeriph_Driver/src/stm32f4xx_cryp_aes.c **** 
 372:libs/STM32F4xx_StdPeriph_Driver/src/stm32f4xx_cryp_aes.c ****     /* Enable Crypto processor */
 373:libs/STM32F4xx_StdPeriph_Driver/src/stm32f4xx_cryp_aes.c ****     CRYP_Cmd(ENABLE);
 1342              		.loc 1 373 0
 1343 03a2 0120     		movs	r0, #1
 1344 03a4 FFF7FEFF 		bl	CRYP_Cmd
 1345              	.L69:
 374:libs/STM32F4xx_StdPeriph_Driver/src/stm32f4xx_cryp_aes.c **** 
 375:libs/STM32F4xx_StdPeriph_Driver/src/stm32f4xx_cryp_aes.c ****     /* wait until the Busy flag is RESET */
 376:libs/STM32F4xx_StdPeriph_Driver/src/stm32f4xx_cryp_aes.c ****     do
 377:libs/STM32F4xx_StdPeriph_Driver/src/stm32f4xx_cryp_aes.c ****     {
 378:libs/STM32F4xx_StdPeriph_Driver/src/stm32f4xx_cryp_aes.c ****       busystatus = CRYP_GetFlagStatus(CRYP_FLAG_BUSY);
 1346              		.loc 1 378 0 discriminator 1
 1347 03a8 1020     		movs	r0, #16
 1348 03aa FFF7FEFF 		bl	CRYP_GetFlagStatus
 1349 03ae 0346     		mov	r3, r0
 1350 03b0 C7F80431 		str	r3, [r7, #260]
 379:libs/STM32F4xx_StdPeriph_Driver/src/stm32f4xx_cryp_aes.c ****       counter++;
 1351              		.loc 1 379 0 discriminator 1
 1352 03b4 07F11003 		add	r3, r7, #16
 1353 03b8 1B68     		ldr	r3, [r3]
 1354 03ba 5A1C     		adds	r2, r3, #1
 1355 03bc 07F11003 		add	r3, r7, #16
 1356 03c0 1A60     		str	r2, [r3]
 380:libs/STM32F4xx_StdPeriph_Driver/src/stm32f4xx_cryp_aes.c ****     }while ((counter != AESBUSY_TIMEOUT) && (busystatus != RESET));
 1357              		.loc 1 380 0 discriminator 1
 1358 03c2 07F11003 		add	r3, r7, #16
 1359 03c6 1B68     		ldr	r3, [r3]
 1360 03c8 B3F5803F 		cmp	r3, #65536
 1361 03cc 03D0     		beq	.L68
 1362 03ce D7F80431 		ldr	r3, [r7, #260]
 1363 03d2 002B     		cmp	r3, #0
 1364 03d4 E8D1     		bne	.L69
 1365              	.L68:
 381:libs/STM32F4xx_StdPeriph_Driver/src/stm32f4xx_cryp_aes.c **** 
 382:libs/STM32F4xx_StdPeriph_Driver/src/stm32f4xx_cryp_aes.c ****     if (busystatus != RESET)
 1366              		.loc 1 382 0
 1367 03d6 D7F80431 		ldr	r3, [r7, #260]
 1368 03da 002B     		cmp	r3, #0
 1369 03dc 03D0     		beq	.L70
 383:libs/STM32F4xx_StdPeriph_Driver/src/stm32f4xx_cryp_aes.c ****    {
 384:libs/STM32F4xx_StdPeriph_Driver/src/stm32f4xx_cryp_aes.c ****        status = ERROR;
 1370              		.loc 1 384 0
 1371 03de 0023     		movs	r3, #0
 1372 03e0 87F81731 		strb	r3, [r7, #279]
 1373 03e4 0BE0     		b	.L72
 1374              	.L70:
 385:libs/STM32F4xx_StdPeriph_Driver/src/stm32f4xx_cryp_aes.c ****     }
 386:libs/STM32F4xx_StdPeriph_Driver/src/stm32f4xx_cryp_aes.c ****     else
 387:libs/STM32F4xx_StdPeriph_Driver/src/stm32f4xx_cryp_aes.c ****     {
 388:libs/STM32F4xx_StdPeriph_Driver/src/stm32f4xx_cryp_aes.c ****       /* Crypto Init for decryption process */  
 389:libs/STM32F4xx_StdPeriph_Driver/src/stm32f4xx_cryp_aes.c ****       AES_CRYP_InitStructure.CRYP_AlgoDir = CRYP_AlgoDir_Decrypt;
 1375              		.loc 1 389 0
 1376 03e6 0423     		movs	r3, #4
 1377 03e8 A7F84430 		strh	r3, [r7, #68]	@ movhi
 1378 03ec 07E0     		b	.L72
 1379              	.L67:
 390:libs/STM32F4xx_StdPeriph_Driver/src/stm32f4xx_cryp_aes.c ****     }
 391:libs/STM32F4xx_StdPeriph_Driver/src/stm32f4xx_cryp_aes.c ****   }
 392:libs/STM32F4xx_StdPeriph_Driver/src/stm32f4xx_cryp_aes.c ****   /*------------------ AES Encryption ------------------*/
 393:libs/STM32F4xx_StdPeriph_Driver/src/stm32f4xx_cryp_aes.c ****   else /* AES encryption */
 394:libs/STM32F4xx_StdPeriph_Driver/src/stm32f4xx_cryp_aes.c ****   {
 395:libs/STM32F4xx_StdPeriph_Driver/src/stm32f4xx_cryp_aes.c ****     CRYP_KeyInit(&AES_CRYP_KeyInitStructure);
 1380              		.loc 1 395 0
 1381 03ee 07F12403 		add	r3, r7, #36
 1382 03f2 1846     		mov	r0, r3
 1383 03f4 FFF7FEFF 		bl	CRYP_KeyInit
 396:libs/STM32F4xx_StdPeriph_Driver/src/stm32f4xx_cryp_aes.c **** 
 397:libs/STM32F4xx_StdPeriph_Driver/src/stm32f4xx_cryp_aes.c ****     /* Crypto Init for Encryption process */
 398:libs/STM32F4xx_StdPeriph_Driver/src/stm32f4xx_cryp_aes.c ****     AES_CRYP_InitStructure.CRYP_AlgoDir  = CRYP_AlgoDir_Encrypt;
 1384              		.loc 1 398 0
 1385 03f8 0023     		movs	r3, #0
 1386 03fa A7F84430 		strh	r3, [r7, #68]	@ movhi
 1387              	.L72:
 399:libs/STM32F4xx_StdPeriph_Driver/src/stm32f4xx_cryp_aes.c ****   }
 400:libs/STM32F4xx_StdPeriph_Driver/src/stm32f4xx_cryp_aes.c ****   AES_CRYP_InitStructure.CRYP_AlgoMode = CRYP_AlgoMode_AES_CBC;
 1388              		.loc 1 400 0
 1389 03fe 2823     		movs	r3, #40
 1390 0400 A7F84630 		strh	r3, [r7, #70]	@ movhi
 401:libs/STM32F4xx_StdPeriph_Driver/src/stm32f4xx_cryp_aes.c ****   AES_CRYP_InitStructure.CRYP_DataType = CRYP_DataType_8b;
 1391              		.loc 1 401 0
 1392 0404 8023     		movs	r3, #128
 1393 0406 A7F84830 		strh	r3, [r7, #72]	@ movhi
 402:libs/STM32F4xx_StdPeriph_Driver/src/stm32f4xx_cryp_aes.c ****   CRYP_Init(&AES_CRYP_InitStructure);
 1394              		.loc 1 402 0
 1395 040a 07F14403 		add	r3, r7, #68
 1396 040e 1846     		mov	r0, r3
 1397 0410 FFF7FEFF 		bl	CRYP_Init
 403:libs/STM32F4xx_StdPeriph_Driver/src/stm32f4xx_cryp_aes.c **** 
 404:libs/STM32F4xx_StdPeriph_Driver/src/stm32f4xx_cryp_aes.c ****   /* CRYP Initialization Vectors */
 405:libs/STM32F4xx_StdPeriph_Driver/src/stm32f4xx_cryp_aes.c ****   CRYP_IVInit(&AES_CRYP_IVInitStructure);
 1398              		.loc 1 405 0
 1399 0414 07F11403 		add	r3, r7, #20
 1400 0418 1846     		mov	r0, r3
 1401 041a FFF7FEFF 		bl	CRYP_IVInit
 406:libs/STM32F4xx_StdPeriph_Driver/src/stm32f4xx_cryp_aes.c **** 
 407:libs/STM32F4xx_StdPeriph_Driver/src/stm32f4xx_cryp_aes.c ****   /* Flush IN/OUT FIFOs */
 408:libs/STM32F4xx_StdPeriph_Driver/src/stm32f4xx_cryp_aes.c ****   CRYP_FIFOFlush();
 1402              		.loc 1 408 0
 1403 041e FFF7FEFF 		bl	CRYP_FIFOFlush
 409:libs/STM32F4xx_StdPeriph_Driver/src/stm32f4xx_cryp_aes.c **** 
 410:libs/STM32F4xx_StdPeriph_Driver/src/stm32f4xx_cryp_aes.c ****   /* Enable Crypto processor */
 411:libs/STM32F4xx_StdPeriph_Driver/src/stm32f4xx_cryp_aes.c ****   CRYP_Cmd(ENABLE);
 1404              		.loc 1 411 0
 1405 0422 0120     		movs	r0, #1
 1406 0424 FFF7FEFF 		bl	CRYP_Cmd
 412:libs/STM32F4xx_StdPeriph_Driver/src/stm32f4xx_cryp_aes.c **** 
 413:libs/STM32F4xx_StdPeriph_Driver/src/stm32f4xx_cryp_aes.c **** 
 414:libs/STM32F4xx_StdPeriph_Driver/src/stm32f4xx_cryp_aes.c ****   for(i=0; ((i<Ilength) && (status != ERROR)); i+=16)
 1407              		.loc 1 414 0
 1408 0428 0023     		movs	r3, #0
 1409 042a C7F80831 		str	r3, [r7, #264]
 1410 042e 7FE0     		b	.L73
 1411              	.L79:
 415:libs/STM32F4xx_StdPeriph_Driver/src/stm32f4xx_cryp_aes.c ****   {
 416:libs/STM32F4xx_StdPeriph_Driver/src/stm32f4xx_cryp_aes.c **** 
 417:libs/STM32F4xx_StdPeriph_Driver/src/stm32f4xx_cryp_aes.c ****     /* Write the Input block in the IN FIFO */
 418:libs/STM32F4xx_StdPeriph_Driver/src/stm32f4xx_cryp_aes.c ****     CRYP_DataIn(*(uint32_t*)(inputaddr));
 1412              		.loc 1 418 0
 1413 0430 D7F81031 		ldr	r3, [r7, #272]
 1414 0434 1B68     		ldr	r3, [r3]
 1415 0436 1846     		mov	r0, r3
 1416 0438 FFF7FEFF 		bl	CRYP_DataIn
 419:libs/STM32F4xx_StdPeriph_Driver/src/stm32f4xx_cryp_aes.c ****     inputaddr+=4;
 1417              		.loc 1 419 0
 1418 043c D7F81031 		ldr	r3, [r7, #272]
 1419 0440 0433     		adds	r3, r3, #4
 1420 0442 C7F81031 		str	r3, [r7, #272]
 420:libs/STM32F4xx_StdPeriph_Driver/src/stm32f4xx_cryp_aes.c ****     CRYP_DataIn(*(uint32_t*)(inputaddr));
 1421              		.loc 1 420 0
 1422 0446 D7F81031 		ldr	r3, [r7, #272]
 1423 044a 1B68     		ldr	r3, [r3]
 1424 044c 1846     		mov	r0, r3
 1425 044e FFF7FEFF 		bl	CRYP_DataIn
 421:libs/STM32F4xx_StdPeriph_Driver/src/stm32f4xx_cryp_aes.c ****     inputaddr+=4;
 1426              		.loc 1 421 0
 1427 0452 D7F81031 		ldr	r3, [r7, #272]
 1428 0456 0433     		adds	r3, r3, #4
 1429 0458 C7F81031 		str	r3, [r7, #272]
 422:libs/STM32F4xx_StdPeriph_Driver/src/stm32f4xx_cryp_aes.c ****     CRYP_DataIn(*(uint32_t*)(inputaddr));
 1430              		.loc 1 422 0
 1431 045c D7F81031 		ldr	r3, [r7, #272]
 1432 0460 1B68     		ldr	r3, [r3]
 1433 0462 1846     		mov	r0, r3
 1434 0464 FFF7FEFF 		bl	CRYP_DataIn
 423:libs/STM32F4xx_StdPeriph_Driver/src/stm32f4xx_cryp_aes.c ****     inputaddr+=4;
 1435              		.loc 1 423 0
 1436 0468 D7F81031 		ldr	r3, [r7, #272]
 1437 046c 0433     		adds	r3, r3, #4
 1438 046e C7F81031 		str	r3, [r7, #272]
 424:libs/STM32F4xx_StdPeriph_Driver/src/stm32f4xx_cryp_aes.c ****     CRYP_DataIn(*(uint32_t*)(inputaddr));
 1439              		.loc 1 424 0
 1440 0472 D7F81031 		ldr	r3, [r7, #272]
 1441 0476 1B68     		ldr	r3, [r3]
 1442 0478 1846     		mov	r0, r3
 1443 047a FFF7FEFF 		bl	CRYP_DataIn
 425:libs/STM32F4xx_StdPeriph_Driver/src/stm32f4xx_cryp_aes.c ****     inputaddr+=4;
 1444              		.loc 1 425 0
 1445 047e D7F81031 		ldr	r3, [r7, #272]
 1446 0482 0433     		adds	r3, r3, #4
 1447 0484 C7F81031 		str	r3, [r7, #272]
 426:libs/STM32F4xx_StdPeriph_Driver/src/stm32f4xx_cryp_aes.c ****     /* Wait until the complete message has been processed */
 427:libs/STM32F4xx_StdPeriph_Driver/src/stm32f4xx_cryp_aes.c ****     counter = 0;
 1448              		.loc 1 427 0
 1449 0488 07F11003 		add	r3, r7, #16
 1450 048c 0022     		movs	r2, #0
 1451 048e 1A60     		str	r2, [r3]
 1452              	.L75:
 428:libs/STM32F4xx_StdPeriph_Driver/src/stm32f4xx_cryp_aes.c ****     do
 429:libs/STM32F4xx_StdPeriph_Driver/src/stm32f4xx_cryp_aes.c ****     {
 430:libs/STM32F4xx_StdPeriph_Driver/src/stm32f4xx_cryp_aes.c ****       busystatus = CRYP_GetFlagStatus(CRYP_FLAG_BUSY);
 1453              		.loc 1 430 0 discriminator 1
 1454 0490 1020     		movs	r0, #16
 1455 0492 FFF7FEFF 		bl	CRYP_GetFlagStatus
 1456 0496 0346     		mov	r3, r0
 1457 0498 C7F80431 		str	r3, [r7, #260]
 431:libs/STM32F4xx_StdPeriph_Driver/src/stm32f4xx_cryp_aes.c ****       counter++;
 1458              		.loc 1 431 0 discriminator 1
 1459 049c 07F11003 		add	r3, r7, #16
 1460 04a0 1B68     		ldr	r3, [r3]
 1461 04a2 5A1C     		adds	r2, r3, #1
 1462 04a4 07F11003 		add	r3, r7, #16
 1463 04a8 1A60     		str	r2, [r3]
 432:libs/STM32F4xx_StdPeriph_Driver/src/stm32f4xx_cryp_aes.c ****     }while ((counter != AESBUSY_TIMEOUT) && (busystatus != RESET));
 1464              		.loc 1 432 0 discriminator 1
 1465 04aa 07F11003 		add	r3, r7, #16
 1466 04ae 1B68     		ldr	r3, [r3]
 1467 04b0 B3F5803F 		cmp	r3, #65536
 1468 04b4 03D0     		beq	.L74
 1469 04b6 D7F80431 		ldr	r3, [r7, #260]
 1470 04ba 002B     		cmp	r3, #0
 1471 04bc E8D1     		bne	.L75
 1472              	.L74:
 433:libs/STM32F4xx_StdPeriph_Driver/src/stm32f4xx_cryp_aes.c **** 
 434:libs/STM32F4xx_StdPeriph_Driver/src/stm32f4xx_cryp_aes.c ****     if (busystatus != RESET)
 1473              		.loc 1 434 0
 1474 04be D7F80431 		ldr	r3, [r7, #260]
 1475 04c2 002B     		cmp	r3, #0
 1476 04c4 03D0     		beq	.L76
 435:libs/STM32F4xx_StdPeriph_Driver/src/stm32f4xx_cryp_aes.c ****    {
 436:libs/STM32F4xx_StdPeriph_Driver/src/stm32f4xx_cryp_aes.c ****        status = ERROR;
 1477              		.loc 1 436 0
 1478 04c6 0023     		movs	r3, #0
 1479 04c8 87F81731 		strb	r3, [r7, #279]
 1480 04cc 2BE0     		b	.L77
 1481              	.L76:
 437:libs/STM32F4xx_StdPeriph_Driver/src/stm32f4xx_cryp_aes.c ****     }
 438:libs/STM32F4xx_StdPeriph_Driver/src/stm32f4xx_cryp_aes.c ****     else
 439:libs/STM32F4xx_StdPeriph_Driver/src/stm32f4xx_cryp_aes.c ****     {
 440:libs/STM32F4xx_StdPeriph_Driver/src/stm32f4xx_cryp_aes.c **** 
 441:libs/STM32F4xx_StdPeriph_Driver/src/stm32f4xx_cryp_aes.c ****       /* Read the Output block from the Output FIFO */
 442:libs/STM32F4xx_StdPeriph_Driver/src/stm32f4xx_cryp_aes.c ****       *(uint32_t*)(outputaddr) = CRYP_DataOut();
 1482              		.loc 1 442 0
 1483 04ce D7F80C41 		ldr	r4, [r7, #268]
 1484 04d2 FFF7FEFF 		bl	CRYP_DataOut
 1485 04d6 0346     		mov	r3, r0
 1486 04d8 2360     		str	r3, [r4]
 443:libs/STM32F4xx_StdPeriph_Driver/src/stm32f4xx_cryp_aes.c ****       outputaddr+=4;
 1487              		.loc 1 443 0
 1488 04da D7F80C31 		ldr	r3, [r7, #268]
 1489 04de 0433     		adds	r3, r3, #4
 1490 04e0 C7F80C31 		str	r3, [r7, #268]
 444:libs/STM32F4xx_StdPeriph_Driver/src/stm32f4xx_cryp_aes.c ****       *(uint32_t*)(outputaddr) = CRYP_DataOut();
 1491              		.loc 1 444 0
 1492 04e4 D7F80C41 		ldr	r4, [r7, #268]
 1493 04e8 FFF7FEFF 		bl	CRYP_DataOut
 1494 04ec 0346     		mov	r3, r0
 1495 04ee 2360     		str	r3, [r4]
 445:libs/STM32F4xx_StdPeriph_Driver/src/stm32f4xx_cryp_aes.c ****       outputaddr+=4;
 1496              		.loc 1 445 0
 1497 04f0 D7F80C31 		ldr	r3, [r7, #268]
 1498 04f4 0433     		adds	r3, r3, #4
 1499 04f6 C7F80C31 		str	r3, [r7, #268]
 446:libs/STM32F4xx_StdPeriph_Driver/src/stm32f4xx_cryp_aes.c ****       *(uint32_t*)(outputaddr) = CRYP_DataOut();
 1500              		.loc 1 446 0
 1501 04fa D7F80C41 		ldr	r4, [r7, #268]
 1502 04fe FFF7FEFF 		bl	CRYP_DataOut
 1503 0502 0346     		mov	r3, r0
 1504 0504 2360     		str	r3, [r4]
 447:libs/STM32F4xx_StdPeriph_Driver/src/stm32f4xx_cryp_aes.c ****       outputaddr+=4;
 1505              		.loc 1 447 0
 1506 0506 D7F80C31 		ldr	r3, [r7, #268]
 1507 050a 0433     		adds	r3, r3, #4
 1508 050c C7F80C31 		str	r3, [r7, #268]
 448:libs/STM32F4xx_StdPeriph_Driver/src/stm32f4xx_cryp_aes.c ****       *(uint32_t*)(outputaddr) = CRYP_DataOut();
 1509              		.loc 1 448 0
 1510 0510 D7F80C41 		ldr	r4, [r7, #268]
 1511 0514 FFF7FEFF 		bl	CRYP_DataOut
 1512 0518 0346     		mov	r3, r0
 1513 051a 2360     		str	r3, [r4]
 449:libs/STM32F4xx_StdPeriph_Driver/src/stm32f4xx_cryp_aes.c ****       outputaddr+=4;
 1514              		.loc 1 449 0
 1515 051c D7F80C31 		ldr	r3, [r7, #268]
 1516 0520 0433     		adds	r3, r3, #4
 1517 0522 C7F80C31 		str	r3, [r7, #268]
 1518              	.L77:
 414:libs/STM32F4xx_StdPeriph_Driver/src/stm32f4xx_cryp_aes.c ****   for(i=0; ((i<Ilength) && (status != ERROR)); i+=16)
 1519              		.loc 1 414 0
 1520 0526 D7F80831 		ldr	r3, [r7, #264]
 1521 052a 1033     		adds	r3, r3, #16
 1522 052c C7F80831 		str	r3, [r7, #264]
 1523              	.L73:
 414:libs/STM32F4xx_StdPeriph_Driver/src/stm32f4xx_cryp_aes.c ****   for(i=0; ((i<Ilength) && (status != ERROR)); i+=16)
 1524              		.loc 1 414 0 is_stmt 0 discriminator 1
 1525 0530 D7F80821 		ldr	r2, [r7, #264]
 1526 0534 D7F82C31 		ldr	r3, [r7, #300]
 1527 0538 9A42     		cmp	r2, r3
 1528 053a 04D2     		bcs	.L78
 414:libs/STM32F4xx_StdPeriph_Driver/src/stm32f4xx_cryp_aes.c ****   for(i=0; ((i<Ilength) && (status != ERROR)); i+=16)
 1529              		.loc 1 414 0 discriminator 2
 1530 053c 97F81731 		ldrb	r3, [r7, #279]	@ zero_extendqisi2
 1531 0540 002B     		cmp	r3, #0
 1532 0542 7FF475AF 		bne	.L79
 1533              	.L78:
 450:libs/STM32F4xx_StdPeriph_Driver/src/stm32f4xx_cryp_aes.c ****     }
 451:libs/STM32F4xx_StdPeriph_Driver/src/stm32f4xx_cryp_aes.c ****   }
 452:libs/STM32F4xx_StdPeriph_Driver/src/stm32f4xx_cryp_aes.c **** 
 453:libs/STM32F4xx_StdPeriph_Driver/src/stm32f4xx_cryp_aes.c ****   /* Disable Crypto */
 454:libs/STM32F4xx_StdPeriph_Driver/src/stm32f4xx_cryp_aes.c ****   CRYP_Cmd(DISABLE);
 1534              		.loc 1 454 0 is_stmt 1
 1535 0546 0020     		movs	r0, #0
 1536 0548 FFF7FEFF 		bl	CRYP_Cmd
 455:libs/STM32F4xx_StdPeriph_Driver/src/stm32f4xx_cryp_aes.c **** 
 456:libs/STM32F4xx_StdPeriph_Driver/src/stm32f4xx_cryp_aes.c ****   return status;
 1537              		.loc 1 456 0
 1538 054c 97F81731 		ldrb	r3, [r7, #279]	@ zero_extendqisi2
 457:libs/STM32F4xx_StdPeriph_Driver/src/stm32f4xx_cryp_aes.c **** }
 1539              		.loc 1 457 0
 1540 0550 1846     		mov	r0, r3
 1541 0552 07F58E77 		add	r7, r7, #284
 1542 0556 BD46     		mov	sp, r7
 1543              		@ sp needed
 1544 0558 90BD     		pop	{r4, r7, pc}
 1545              		.cfi_endproc
 1546              	.LFE111:
 1548 055a 00BF     		.section	.text.CRYP_AES_CTR,"ax",%progbits
 1549              		.align	2
 1550              		.global	CRYP_AES_CTR
 1551              		.thumb
 1552              		.thumb_func
 1554              	CRYP_AES_CTR:
 1555              	.LFB112:
 458:libs/STM32F4xx_StdPeriph_Driver/src/stm32f4xx_cryp_aes.c **** 
 459:libs/STM32F4xx_StdPeriph_Driver/src/stm32f4xx_cryp_aes.c **** /**
 460:libs/STM32F4xx_StdPeriph_Driver/src/stm32f4xx_cryp_aes.c ****   * @brief  Encrypt and decrypt using AES in CTR Mode
 461:libs/STM32F4xx_StdPeriph_Driver/src/stm32f4xx_cryp_aes.c ****   * @param  Mode: encryption or decryption Mode.
 462:libs/STM32F4xx_StdPeriph_Driver/src/stm32f4xx_cryp_aes.c ****   *           This parameter can be one of the following values:
 463:libs/STM32F4xx_StdPeriph_Driver/src/stm32f4xx_cryp_aes.c ****   *            @arg MODE_ENCRYPT: Encryption
 464:libs/STM32F4xx_StdPeriph_Driver/src/stm32f4xx_cryp_aes.c ****   *            @arg MODE_DECRYPT: Decryption
 465:libs/STM32F4xx_StdPeriph_Driver/src/stm32f4xx_cryp_aes.c ****   * @param  InitVectors: Initialisation Vectors used for AES algorithm.
 466:libs/STM32F4xx_StdPeriph_Driver/src/stm32f4xx_cryp_aes.c ****   * @param  Key: Key used for AES algorithm.
 467:libs/STM32F4xx_StdPeriph_Driver/src/stm32f4xx_cryp_aes.c ****   * @param  Keysize: length of the Key, must be a 128, 192 or 256.
 468:libs/STM32F4xx_StdPeriph_Driver/src/stm32f4xx_cryp_aes.c ****   * @param  Input: pointer to the Input buffer.
 469:libs/STM32F4xx_StdPeriph_Driver/src/stm32f4xx_cryp_aes.c ****   * @param  Ilength: length of the Input buffer, must be a multiple of 16.
 470:libs/STM32F4xx_StdPeriph_Driver/src/stm32f4xx_cryp_aes.c ****   * @param  Output: pointer to the returned buffer.
 471:libs/STM32F4xx_StdPeriph_Driver/src/stm32f4xx_cryp_aes.c ****   * @retval An ErrorStatus enumeration value:
 472:libs/STM32F4xx_StdPeriph_Driver/src/stm32f4xx_cryp_aes.c ****   *          - SUCCESS: Operation done
 473:libs/STM32F4xx_StdPeriph_Driver/src/stm32f4xx_cryp_aes.c ****   *          - ERROR: Operation failed
 474:libs/STM32F4xx_StdPeriph_Driver/src/stm32f4xx_cryp_aes.c ****   */
 475:libs/STM32F4xx_StdPeriph_Driver/src/stm32f4xx_cryp_aes.c **** ErrorStatus CRYP_AES_CTR(uint8_t Mode, uint8_t InitVectors[16], uint8_t *Key, 
 476:libs/STM32F4xx_StdPeriph_Driver/src/stm32f4xx_cryp_aes.c ****                          uint16_t Keysize, uint8_t *Input, uint32_t Ilength,
 477:libs/STM32F4xx_StdPeriph_Driver/src/stm32f4xx_cryp_aes.c ****                          uint8_t *Output)
 478:libs/STM32F4xx_StdPeriph_Driver/src/stm32f4xx_cryp_aes.c **** {
 1556              		.loc 1 478 0
 1557              		.cfi_startproc
 1558              		@ args = 12, pretend = 0, frame = 280
 1559              		@ frame_needed = 1, uses_anonymous_args = 0
 1560 0000 90B5     		push	{r4, r7, lr}
 1561              	.LCFI6:
 1562              		.cfi_def_cfa_offset 12
 1563              		.cfi_offset 4, -12
 1564              		.cfi_offset 7, -8
 1565              		.cfi_offset 14, -4
 1566 0002 C7B0     		sub	sp, sp, #284
 1567              	.LCFI7:
 1568              		.cfi_def_cfa_offset 296
 1569 0004 00AF     		add	r7, sp, #0
 1570              	.LCFI8:
 1571              		.cfi_def_cfa_register 7
 1572 0006 07F10804 		add	r4, r7, #8
 1573 000a 2160     		str	r1, [r4]
 1574 000c 391D     		adds	r1, r7, #4
 1575 000e 0A60     		str	r2, [r1]
 1576 0010 1A46     		mov	r2, r3
 1577 0012 07F10F03 		add	r3, r7, #15
 1578 0016 0146     		mov	r1, r0
 1579 0018 1970     		strb	r1, [r3]
 1580 001a 07F10C03 		add	r3, r7, #12
 1581 001e 1A80     		strh	r2, [r3]	@ movhi
 479:libs/STM32F4xx_StdPeriph_Driver/src/stm32f4xx_cryp_aes.c ****   CRYP_InitTypeDef AES_CRYP_InitStructure;
 480:libs/STM32F4xx_StdPeriph_Driver/src/stm32f4xx_cryp_aes.c ****   CRYP_KeyInitTypeDef AES_CRYP_KeyInitStructure;
 481:libs/STM32F4xx_StdPeriph_Driver/src/stm32f4xx_cryp_aes.c ****   CRYP_IVInitTypeDef AES_CRYP_IVInitStructure;
 482:libs/STM32F4xx_StdPeriph_Driver/src/stm32f4xx_cryp_aes.c ****   __IO uint32_t counter = 0;
 1582              		.loc 1 482 0
 1583 0020 07F11003 		add	r3, r7, #16
 1584 0024 0022     		movs	r2, #0
 1585 0026 1A60     		str	r2, [r3]
 483:libs/STM32F4xx_StdPeriph_Driver/src/stm32f4xx_cryp_aes.c ****   uint32_t busystatus = 0;
 1586              		.loc 1 483 0
 1587 0028 0023     		movs	r3, #0
 1588 002a C7F80431 		str	r3, [r7, #260]
 484:libs/STM32F4xx_StdPeriph_Driver/src/stm32f4xx_cryp_aes.c ****   ErrorStatus status = SUCCESS;
 1589              		.loc 1 484 0
 1590 002e 0123     		movs	r3, #1
 1591 0030 87F81731 		strb	r3, [r7, #279]
 485:libs/STM32F4xx_StdPeriph_Driver/src/stm32f4xx_cryp_aes.c ****   uint32_t keyaddr    = (uint32_t)Key;
 1592              		.loc 1 485 0
 1593 0034 3B1D     		adds	r3, r7, #4
 1594 0036 1B68     		ldr	r3, [r3]
 1595 0038 C7F80031 		str	r3, [r7, #256]
 486:libs/STM32F4xx_StdPeriph_Driver/src/stm32f4xx_cryp_aes.c ****   uint32_t inputaddr  = (uint32_t)Input;
 1596              		.loc 1 486 0
 1597 003c D7F82831 		ldr	r3, [r7, #296]
 1598 0040 C7F81031 		str	r3, [r7, #272]
 487:libs/STM32F4xx_StdPeriph_Driver/src/stm32f4xx_cryp_aes.c ****   uint32_t outputaddr = (uint32_t)Output;
 1599              		.loc 1 487 0
 1600 0044 D7F83031 		ldr	r3, [r7, #304]
 1601 0048 C7F80C31 		str	r3, [r7, #268]
 488:libs/STM32F4xx_StdPeriph_Driver/src/stm32f4xx_cryp_aes.c ****   uint32_t ivaddr     = (uint32_t)InitVectors;
 1602              		.loc 1 488 0
 1603 004c 07F10803 		add	r3, r7, #8
 1604 0050 1B68     		ldr	r3, [r3]
 1605 0052 C7F8FC30 		str	r3, [r7, #252]
 489:libs/STM32F4xx_StdPeriph_Driver/src/stm32f4xx_cryp_aes.c ****   uint32_t i = 0;
 1606              		.loc 1 489 0
 1607 0056 0023     		movs	r3, #0
 1608 0058 C7F80831 		str	r3, [r7, #264]
 490:libs/STM32F4xx_StdPeriph_Driver/src/stm32f4xx_cryp_aes.c **** 
 491:libs/STM32F4xx_StdPeriph_Driver/src/stm32f4xx_cryp_aes.c ****   /* Crypto structures initialisation*/
 492:libs/STM32F4xx_StdPeriph_Driver/src/stm32f4xx_cryp_aes.c ****   CRYP_KeyStructInit(&AES_CRYP_KeyInitStructure);
 1609              		.loc 1 492 0
 1610 005c 07F12403 		add	r3, r7, #36
 1611 0060 1846     		mov	r0, r3
 1612 0062 FFF7FEFF 		bl	CRYP_KeyStructInit
 493:libs/STM32F4xx_StdPeriph_Driver/src/stm32f4xx_cryp_aes.c **** 
 494:libs/STM32F4xx_StdPeriph_Driver/src/stm32f4xx_cryp_aes.c ****   switch(Keysize)
 1613              		.loc 1 494 0
 1614 0066 07F10C03 		add	r3, r7, #12
 1615 006a 1B88     		ldrh	r3, [r3]
 1616 006c C02B     		cmp	r3, #192
 1617 006e 4DD0     		beq	.L83
 1618 0070 B3F5807F 		cmp	r3, #256
 1619 0074 00F0B680 		beq	.L84
 1620 0078 802B     		cmp	r3, #128
 1621 007a 00D0     		beq	.L85
 495:libs/STM32F4xx_StdPeriph_Driver/src/stm32f4xx_cryp_aes.c ****   {
 496:libs/STM32F4xx_StdPeriph_Driver/src/stm32f4xx_cryp_aes.c ****     case 128:
 497:libs/STM32F4xx_StdPeriph_Driver/src/stm32f4xx_cryp_aes.c ****     AES_CRYP_InitStructure.CRYP_KeySize = CRYP_KeySize_128b;
 498:libs/STM32F4xx_StdPeriph_Driver/src/stm32f4xx_cryp_aes.c ****     AES_CRYP_KeyInitStructure.CRYP_Key2Left = __REV(*(uint32_t*)(keyaddr));
 499:libs/STM32F4xx_StdPeriph_Driver/src/stm32f4xx_cryp_aes.c ****     keyaddr+=4;
 500:libs/STM32F4xx_StdPeriph_Driver/src/stm32f4xx_cryp_aes.c ****     AES_CRYP_KeyInitStructure.CRYP_Key2Right= __REV(*(uint32_t*)(keyaddr));
 501:libs/STM32F4xx_StdPeriph_Driver/src/stm32f4xx_cryp_aes.c ****     keyaddr+=4;
 502:libs/STM32F4xx_StdPeriph_Driver/src/stm32f4xx_cryp_aes.c ****     AES_CRYP_KeyInitStructure.CRYP_Key3Left = __REV(*(uint32_t*)(keyaddr));
 503:libs/STM32F4xx_StdPeriph_Driver/src/stm32f4xx_cryp_aes.c ****     keyaddr+=4;
 504:libs/STM32F4xx_StdPeriph_Driver/src/stm32f4xx_cryp_aes.c ****     AES_CRYP_KeyInitStructure.CRYP_Key3Right= __REV(*(uint32_t*)(keyaddr));
 505:libs/STM32F4xx_StdPeriph_Driver/src/stm32f4xx_cryp_aes.c ****     break;
 506:libs/STM32F4xx_StdPeriph_Driver/src/stm32f4xx_cryp_aes.c ****     case 192:
 507:libs/STM32F4xx_StdPeriph_Driver/src/stm32f4xx_cryp_aes.c ****     AES_CRYP_InitStructure.CRYP_KeySize  = CRYP_KeySize_192b;
 508:libs/STM32F4xx_StdPeriph_Driver/src/stm32f4xx_cryp_aes.c ****     AES_CRYP_KeyInitStructure.CRYP_Key1Left = __REV(*(uint32_t*)(keyaddr));
 509:libs/STM32F4xx_StdPeriph_Driver/src/stm32f4xx_cryp_aes.c ****     keyaddr+=4;
 510:libs/STM32F4xx_StdPeriph_Driver/src/stm32f4xx_cryp_aes.c ****     AES_CRYP_KeyInitStructure.CRYP_Key1Right= __REV(*(uint32_t*)(keyaddr));
 511:libs/STM32F4xx_StdPeriph_Driver/src/stm32f4xx_cryp_aes.c ****     keyaddr+=4;
 512:libs/STM32F4xx_StdPeriph_Driver/src/stm32f4xx_cryp_aes.c ****     AES_CRYP_KeyInitStructure.CRYP_Key2Left = __REV(*(uint32_t*)(keyaddr));
 513:libs/STM32F4xx_StdPeriph_Driver/src/stm32f4xx_cryp_aes.c ****     keyaddr+=4;
 514:libs/STM32F4xx_StdPeriph_Driver/src/stm32f4xx_cryp_aes.c ****     AES_CRYP_KeyInitStructure.CRYP_Key2Right= __REV(*(uint32_t*)(keyaddr));
 515:libs/STM32F4xx_StdPeriph_Driver/src/stm32f4xx_cryp_aes.c ****     keyaddr+=4;
 516:libs/STM32F4xx_StdPeriph_Driver/src/stm32f4xx_cryp_aes.c ****     AES_CRYP_KeyInitStructure.CRYP_Key3Left = __REV(*(uint32_t*)(keyaddr));
 517:libs/STM32F4xx_StdPeriph_Driver/src/stm32f4xx_cryp_aes.c ****     keyaddr+=4;
 518:libs/STM32F4xx_StdPeriph_Driver/src/stm32f4xx_cryp_aes.c ****     AES_CRYP_KeyInitStructure.CRYP_Key3Right= __REV(*(uint32_t*)(keyaddr));
 519:libs/STM32F4xx_StdPeriph_Driver/src/stm32f4xx_cryp_aes.c ****     break;
 520:libs/STM32F4xx_StdPeriph_Driver/src/stm32f4xx_cryp_aes.c ****     case 256:
 521:libs/STM32F4xx_StdPeriph_Driver/src/stm32f4xx_cryp_aes.c ****     AES_CRYP_InitStructure.CRYP_KeySize  = CRYP_KeySize_256b;
 522:libs/STM32F4xx_StdPeriph_Driver/src/stm32f4xx_cryp_aes.c ****     AES_CRYP_KeyInitStructure.CRYP_Key0Left = __REV(*(uint32_t*)(keyaddr));
 523:libs/STM32F4xx_StdPeriph_Driver/src/stm32f4xx_cryp_aes.c ****     keyaddr+=4;
 524:libs/STM32F4xx_StdPeriph_Driver/src/stm32f4xx_cryp_aes.c ****     AES_CRYP_KeyInitStructure.CRYP_Key0Right= __REV(*(uint32_t*)(keyaddr));
 525:libs/STM32F4xx_StdPeriph_Driver/src/stm32f4xx_cryp_aes.c ****     keyaddr+=4;
 526:libs/STM32F4xx_StdPeriph_Driver/src/stm32f4xx_cryp_aes.c ****     AES_CRYP_KeyInitStructure.CRYP_Key1Left = __REV(*(uint32_t*)(keyaddr));
 527:libs/STM32F4xx_StdPeriph_Driver/src/stm32f4xx_cryp_aes.c ****     keyaddr+=4;
 528:libs/STM32F4xx_StdPeriph_Driver/src/stm32f4xx_cryp_aes.c ****     AES_CRYP_KeyInitStructure.CRYP_Key1Right= __REV(*(uint32_t*)(keyaddr));
 529:libs/STM32F4xx_StdPeriph_Driver/src/stm32f4xx_cryp_aes.c ****     keyaddr+=4;
 530:libs/STM32F4xx_StdPeriph_Driver/src/stm32f4xx_cryp_aes.c ****     AES_CRYP_KeyInitStructure.CRYP_Key2Left = __REV(*(uint32_t*)(keyaddr));
 531:libs/STM32F4xx_StdPeriph_Driver/src/stm32f4xx_cryp_aes.c ****     keyaddr+=4;
 532:libs/STM32F4xx_StdPeriph_Driver/src/stm32f4xx_cryp_aes.c ****     AES_CRYP_KeyInitStructure.CRYP_Key2Right= __REV(*(uint32_t*)(keyaddr));
 533:libs/STM32F4xx_StdPeriph_Driver/src/stm32f4xx_cryp_aes.c ****     keyaddr+=4;
 534:libs/STM32F4xx_StdPeriph_Driver/src/stm32f4xx_cryp_aes.c ****     AES_CRYP_KeyInitStructure.CRYP_Key3Left = __REV(*(uint32_t*)(keyaddr));
 535:libs/STM32F4xx_StdPeriph_Driver/src/stm32f4xx_cryp_aes.c ****     keyaddr+=4;
 536:libs/STM32F4xx_StdPeriph_Driver/src/stm32f4xx_cryp_aes.c ****     AES_CRYP_KeyInitStructure.CRYP_Key3Right= __REV(*(uint32_t*)(keyaddr));
 537:libs/STM32F4xx_StdPeriph_Driver/src/stm32f4xx_cryp_aes.c ****     break;
 538:libs/STM32F4xx_StdPeriph_Driver/src/stm32f4xx_cryp_aes.c ****     default:
 539:libs/STM32F4xx_StdPeriph_Driver/src/stm32f4xx_cryp_aes.c ****     break;
 1622              		.loc 1 539 0
 1623 007c 38E1     		b	.L90
 1624              	.L85:
 497:libs/STM32F4xx_StdPeriph_Driver/src/stm32f4xx_cryp_aes.c ****     AES_CRYP_InitStructure.CRYP_KeySize = CRYP_KeySize_128b;
 1625              		.loc 1 497 0
 1626 007e 0023     		movs	r3, #0
 1627 0080 A7F84A30 		strh	r3, [r7, #74]	@ movhi
 498:libs/STM32F4xx_StdPeriph_Driver/src/stm32f4xx_cryp_aes.c ****     AES_CRYP_KeyInitStructure.CRYP_Key2Left = __REV(*(uint32_t*)(keyaddr));
 1628              		.loc 1 498 0
 1629 0084 D7F80031 		ldr	r3, [r7, #256]
 1630 0088 1B68     		ldr	r3, [r3]
 1631 008a C7F8F830 		str	r3, [r7, #248]
 1632              	.LBB206:
 1633              	.LBB207:
 352:libs/CMSIS/Include/core_cmInstr.h ****   __ASM volatile ("rev %0, %1" : "=r" (result) : "r" (value) );
 1634              		.loc 2 352 0
 1635 008e D7F8F830 		ldr	r3, [r7, #248]
 1636              	@ 352 "libs/CMSIS/Include/core_cmInstr.h" 1
 1637 0092 1BBA     		rev r3, r3
 1638              	@ 0 "" 2
 1639              		.thumb
 1640 0094 C7F8F430 		str	r3, [r7, #244]
 1641              		.loc 2 353 0
 1642 0098 D7F8F430 		ldr	r3, [r7, #244]
 1643              	.LBE207:
 1644              	.LBE206:
 498:libs/STM32F4xx_StdPeriph_Driver/src/stm32f4xx_cryp_aes.c ****     AES_CRYP_KeyInitStructure.CRYP_Key2Left = __REV(*(uint32_t*)(keyaddr));
 1645              		.loc 1 498 0
 1646 009c 7B63     		str	r3, [r7, #52]
 499:libs/STM32F4xx_StdPeriph_Driver/src/stm32f4xx_cryp_aes.c ****     keyaddr+=4;
 1647              		.loc 1 499 0
 1648 009e D7F80031 		ldr	r3, [r7, #256]
 1649 00a2 0433     		adds	r3, r3, #4
 1650 00a4 C7F80031 		str	r3, [r7, #256]
 500:libs/STM32F4xx_StdPeriph_Driver/src/stm32f4xx_cryp_aes.c ****     AES_CRYP_KeyInitStructure.CRYP_Key2Right= __REV(*(uint32_t*)(keyaddr));
 1651              		.loc 1 500 0
 1652 00a8 D7F80031 		ldr	r3, [r7, #256]
 1653 00ac 1B68     		ldr	r3, [r3]
 1654 00ae C7F8F030 		str	r3, [r7, #240]
 1655              	.LBB208:
 1656              	.LBB209:
 352:libs/CMSIS/Include/core_cmInstr.h ****   __ASM volatile ("rev %0, %1" : "=r" (result) : "r" (value) );
 1657              		.loc 2 352 0
 1658 00b2 D7F8F030 		ldr	r3, [r7, #240]
 1659              	@ 352 "libs/CMSIS/Include/core_cmInstr.h" 1
 1660 00b6 1BBA     		rev r3, r3
 1661              	@ 0 "" 2
 1662              		.thumb
 1663 00b8 C7F8EC30 		str	r3, [r7, #236]
 1664              		.loc 2 353 0
 1665 00bc D7F8EC30 		ldr	r3, [r7, #236]
 1666              	.LBE209:
 1667              	.LBE208:
 500:libs/STM32F4xx_StdPeriph_Driver/src/stm32f4xx_cryp_aes.c ****     AES_CRYP_KeyInitStructure.CRYP_Key2Right= __REV(*(uint32_t*)(keyaddr));
 1668              		.loc 1 500 0
 1669 00c0 BB63     		str	r3, [r7, #56]
 501:libs/STM32F4xx_StdPeriph_Driver/src/stm32f4xx_cryp_aes.c ****     keyaddr+=4;
 1670              		.loc 1 501 0
 1671 00c2 D7F80031 		ldr	r3, [r7, #256]
 1672 00c6 0433     		adds	r3, r3, #4
 1673 00c8 C7F80031 		str	r3, [r7, #256]
 502:libs/STM32F4xx_StdPeriph_Driver/src/stm32f4xx_cryp_aes.c ****     AES_CRYP_KeyInitStructure.CRYP_Key3Left = __REV(*(uint32_t*)(keyaddr));
 1674              		.loc 1 502 0
 1675 00cc D7F80031 		ldr	r3, [r7, #256]
 1676 00d0 1B68     		ldr	r3, [r3]
 1677 00d2 C7F8E830 		str	r3, [r7, #232]
 1678              	.LBB210:
 1679              	.LBB211:
 352:libs/CMSIS/Include/core_cmInstr.h ****   __ASM volatile ("rev %0, %1" : "=r" (result) : "r" (value) );
 1680              		.loc 2 352 0
 1681 00d6 D7F8E830 		ldr	r3, [r7, #232]
 1682              	@ 352 "libs/CMSIS/Include/core_cmInstr.h" 1
 1683 00da 1BBA     		rev r3, r3
 1684              	@ 0 "" 2
 1685              		.thumb
 1686 00dc C7F8E430 		str	r3, [r7, #228]
 1687              		.loc 2 353 0
 1688 00e0 D7F8E430 		ldr	r3, [r7, #228]
 1689              	.LBE211:
 1690              	.LBE210:
 502:libs/STM32F4xx_StdPeriph_Driver/src/stm32f4xx_cryp_aes.c ****     AES_CRYP_KeyInitStructure.CRYP_Key3Left = __REV(*(uint32_t*)(keyaddr));
 1691              		.loc 1 502 0
 1692 00e4 FB63     		str	r3, [r7, #60]
 503:libs/STM32F4xx_StdPeriph_Driver/src/stm32f4xx_cryp_aes.c ****     keyaddr+=4;
 1693              		.loc 1 503 0
 1694 00e6 D7F80031 		ldr	r3, [r7, #256]
 1695 00ea 0433     		adds	r3, r3, #4
 1696 00ec C7F80031 		str	r3, [r7, #256]
 504:libs/STM32F4xx_StdPeriph_Driver/src/stm32f4xx_cryp_aes.c ****     AES_CRYP_KeyInitStructure.CRYP_Key3Right= __REV(*(uint32_t*)(keyaddr));
 1697              		.loc 1 504 0
 1698 00f0 D7F80031 		ldr	r3, [r7, #256]
 1699 00f4 1B68     		ldr	r3, [r3]
 1700 00f6 C7F8E030 		str	r3, [r7, #224]
 1701              	.LBB212:
 1702              	.LBB213:
 352:libs/CMSIS/Include/core_cmInstr.h ****   __ASM volatile ("rev %0, %1" : "=r" (result) : "r" (value) );
 1703              		.loc 2 352 0
 1704 00fa D7F8E030 		ldr	r3, [r7, #224]
 1705              	@ 352 "libs/CMSIS/Include/core_cmInstr.h" 1
 1706 00fe 1BBA     		rev r3, r3
 1707              	@ 0 "" 2
 1708              		.thumb
 1709 0100 C7F8DC30 		str	r3, [r7, #220]
 1710              		.loc 2 353 0
 1711 0104 D7F8DC30 		ldr	r3, [r7, #220]
 1712              	.LBE213:
 1713              	.LBE212:
 504:libs/STM32F4xx_StdPeriph_Driver/src/stm32f4xx_cryp_aes.c ****     AES_CRYP_KeyInitStructure.CRYP_Key3Right= __REV(*(uint32_t*)(keyaddr));
 1714              		.loc 1 504 0
 1715 0108 3B64     		str	r3, [r7, #64]
 505:libs/STM32F4xx_StdPeriph_Driver/src/stm32f4xx_cryp_aes.c ****     break;
 1716              		.loc 1 505 0
 1717 010a F1E0     		b	.L90
 1718              	.L83:
 507:libs/STM32F4xx_StdPeriph_Driver/src/stm32f4xx_cryp_aes.c ****     AES_CRYP_InitStructure.CRYP_KeySize  = CRYP_KeySize_192b;
 1719              		.loc 1 507 0
 1720 010c 4FF48073 		mov	r3, #256
 1721 0110 A7F84A30 		strh	r3, [r7, #74]	@ movhi
 508:libs/STM32F4xx_StdPeriph_Driver/src/stm32f4xx_cryp_aes.c ****     AES_CRYP_KeyInitStructure.CRYP_Key1Left = __REV(*(uint32_t*)(keyaddr));
 1722              		.loc 1 508 0
 1723 0114 D7F80031 		ldr	r3, [r7, #256]
 1724 0118 1B68     		ldr	r3, [r3]
 1725 011a C7F8D830 		str	r3, [r7, #216]
 1726              	.LBB214:
 1727              	.LBB215:
 352:libs/CMSIS/Include/core_cmInstr.h ****   __ASM volatile ("rev %0, %1" : "=r" (result) : "r" (value) );
 1728              		.loc 2 352 0
 1729 011e D7F8D830 		ldr	r3, [r7, #216]
 1730              	@ 352 "libs/CMSIS/Include/core_cmInstr.h" 1
 1731 0122 1BBA     		rev r3, r3
 1732              	@ 0 "" 2
 1733              		.thumb
 1734 0124 C7F8D430 		str	r3, [r7, #212]
 1735              		.loc 2 353 0
 1736 0128 D7F8D430 		ldr	r3, [r7, #212]
 1737              	.LBE215:
 1738              	.LBE214:
 508:libs/STM32F4xx_StdPeriph_Driver/src/stm32f4xx_cryp_aes.c ****     AES_CRYP_KeyInitStructure.CRYP_Key1Left = __REV(*(uint32_t*)(keyaddr));
 1739              		.loc 1 508 0
 1740 012c FB62     		str	r3, [r7, #44]
 509:libs/STM32F4xx_StdPeriph_Driver/src/stm32f4xx_cryp_aes.c ****     keyaddr+=4;
 1741              		.loc 1 509 0
 1742 012e D7F80031 		ldr	r3, [r7, #256]
 1743 0132 0433     		adds	r3, r3, #4
 1744 0134 C7F80031 		str	r3, [r7, #256]
 510:libs/STM32F4xx_StdPeriph_Driver/src/stm32f4xx_cryp_aes.c ****     AES_CRYP_KeyInitStructure.CRYP_Key1Right= __REV(*(uint32_t*)(keyaddr));
 1745              		.loc 1 510 0
 1746 0138 D7F80031 		ldr	r3, [r7, #256]
 1747 013c 1B68     		ldr	r3, [r3]
 1748 013e C7F8D030 		str	r3, [r7, #208]
 1749              	.LBB216:
 1750              	.LBB217:
 352:libs/CMSIS/Include/core_cmInstr.h ****   __ASM volatile ("rev %0, %1" : "=r" (result) : "r" (value) );
 1751              		.loc 2 352 0
 1752 0142 D7F8D030 		ldr	r3, [r7, #208]
 1753              	@ 352 "libs/CMSIS/Include/core_cmInstr.h" 1
 1754 0146 1BBA     		rev r3, r3
 1755              	@ 0 "" 2
 1756              		.thumb
 1757 0148 C7F8CC30 		str	r3, [r7, #204]
 1758              		.loc 2 353 0
 1759 014c D7F8CC30 		ldr	r3, [r7, #204]
 1760              	.LBE217:
 1761              	.LBE216:
 510:libs/STM32F4xx_StdPeriph_Driver/src/stm32f4xx_cryp_aes.c ****     AES_CRYP_KeyInitStructure.CRYP_Key1Right= __REV(*(uint32_t*)(keyaddr));
 1762              		.loc 1 510 0
 1763 0150 3B63     		str	r3, [r7, #48]
 511:libs/STM32F4xx_StdPeriph_Driver/src/stm32f4xx_cryp_aes.c ****     keyaddr+=4;
 1764              		.loc 1 511 0
 1765 0152 D7F80031 		ldr	r3, [r7, #256]
 1766 0156 0433     		adds	r3, r3, #4
 1767 0158 C7F80031 		str	r3, [r7, #256]
 512:libs/STM32F4xx_StdPeriph_Driver/src/stm32f4xx_cryp_aes.c ****     AES_CRYP_KeyInitStructure.CRYP_Key2Left = __REV(*(uint32_t*)(keyaddr));
 1768              		.loc 1 512 0
 1769 015c D7F80031 		ldr	r3, [r7, #256]
 1770 0160 1B68     		ldr	r3, [r3]
 1771 0162 C7F8C830 		str	r3, [r7, #200]
 1772              	.LBB218:
 1773              	.LBB219:
 352:libs/CMSIS/Include/core_cmInstr.h ****   __ASM volatile ("rev %0, %1" : "=r" (result) : "r" (value) );
 1774              		.loc 2 352 0
 1775 0166 D7F8C830 		ldr	r3, [r7, #200]
 1776              	@ 352 "libs/CMSIS/Include/core_cmInstr.h" 1
 1777 016a 1BBA     		rev r3, r3
 1778              	@ 0 "" 2
 1779              		.thumb
 1780 016c C7F8C430 		str	r3, [r7, #196]
 1781              		.loc 2 353 0
 1782 0170 D7F8C430 		ldr	r3, [r7, #196]
 1783              	.LBE219:
 1784              	.LBE218:
 512:libs/STM32F4xx_StdPeriph_Driver/src/stm32f4xx_cryp_aes.c ****     AES_CRYP_KeyInitStructure.CRYP_Key2Left = __REV(*(uint32_t*)(keyaddr));
 1785              		.loc 1 512 0
 1786 0174 7B63     		str	r3, [r7, #52]
 513:libs/STM32F4xx_StdPeriph_Driver/src/stm32f4xx_cryp_aes.c ****     keyaddr+=4;
 1787              		.loc 1 513 0
 1788 0176 D7F80031 		ldr	r3, [r7, #256]
 1789 017a 0433     		adds	r3, r3, #4
 1790 017c C7F80031 		str	r3, [r7, #256]
 514:libs/STM32F4xx_StdPeriph_Driver/src/stm32f4xx_cryp_aes.c ****     AES_CRYP_KeyInitStructure.CRYP_Key2Right= __REV(*(uint32_t*)(keyaddr));
 1791              		.loc 1 514 0
 1792 0180 D7F80031 		ldr	r3, [r7, #256]
 1793 0184 1B68     		ldr	r3, [r3]
 1794 0186 C7F8C030 		str	r3, [r7, #192]
 1795              	.LBB220:
 1796              	.LBB221:
 352:libs/CMSIS/Include/core_cmInstr.h ****   __ASM volatile ("rev %0, %1" : "=r" (result) : "r" (value) );
 1797              		.loc 2 352 0
 1798 018a D7F8C030 		ldr	r3, [r7, #192]
 1799              	@ 352 "libs/CMSIS/Include/core_cmInstr.h" 1
 1800 018e 1BBA     		rev r3, r3
 1801              	@ 0 "" 2
 1802              		.thumb
 1803 0190 C7F8BC30 		str	r3, [r7, #188]
 1804              		.loc 2 353 0
 1805 0194 D7F8BC30 		ldr	r3, [r7, #188]
 1806              	.LBE221:
 1807              	.LBE220:
 514:libs/STM32F4xx_StdPeriph_Driver/src/stm32f4xx_cryp_aes.c ****     AES_CRYP_KeyInitStructure.CRYP_Key2Right= __REV(*(uint32_t*)(keyaddr));
 1808              		.loc 1 514 0
 1809 0198 BB63     		str	r3, [r7, #56]
 515:libs/STM32F4xx_StdPeriph_Driver/src/stm32f4xx_cryp_aes.c ****     keyaddr+=4;
 1810              		.loc 1 515 0
 1811 019a D7F80031 		ldr	r3, [r7, #256]
 1812 019e 0433     		adds	r3, r3, #4
 1813 01a0 C7F80031 		str	r3, [r7, #256]
 516:libs/STM32F4xx_StdPeriph_Driver/src/stm32f4xx_cryp_aes.c ****     AES_CRYP_KeyInitStructure.CRYP_Key3Left = __REV(*(uint32_t*)(keyaddr));
 1814              		.loc 1 516 0
 1815 01a4 D7F80031 		ldr	r3, [r7, #256]
 1816 01a8 1B68     		ldr	r3, [r3]
 1817 01aa C7F8B830 		str	r3, [r7, #184]
 1818              	.LBB222:
 1819              	.LBB223:
 352:libs/CMSIS/Include/core_cmInstr.h ****   __ASM volatile ("rev %0, %1" : "=r" (result) : "r" (value) );
 1820              		.loc 2 352 0
 1821 01ae D7F8B830 		ldr	r3, [r7, #184]
 1822              	@ 352 "libs/CMSIS/Include/core_cmInstr.h" 1
 1823 01b2 1BBA     		rev r3, r3
 1824              	@ 0 "" 2
 1825              		.thumb
 1826 01b4 C7F8B430 		str	r3, [r7, #180]
 1827              		.loc 2 353 0
 1828 01b8 D7F8B430 		ldr	r3, [r7, #180]
 1829              	.LBE223:
 1830              	.LBE222:
 516:libs/STM32F4xx_StdPeriph_Driver/src/stm32f4xx_cryp_aes.c ****     AES_CRYP_KeyInitStructure.CRYP_Key3Left = __REV(*(uint32_t*)(keyaddr));
 1831              		.loc 1 516 0
 1832 01bc FB63     		str	r3, [r7, #60]
 517:libs/STM32F4xx_StdPeriph_Driver/src/stm32f4xx_cryp_aes.c ****     keyaddr+=4;
 1833              		.loc 1 517 0
 1834 01be D7F80031 		ldr	r3, [r7, #256]
 1835 01c2 0433     		adds	r3, r3, #4
 1836 01c4 C7F80031 		str	r3, [r7, #256]
 518:libs/STM32F4xx_StdPeriph_Driver/src/stm32f4xx_cryp_aes.c ****     AES_CRYP_KeyInitStructure.CRYP_Key3Right= __REV(*(uint32_t*)(keyaddr));
 1837              		.loc 1 518 0
 1838 01c8 D7F80031 		ldr	r3, [r7, #256]
 1839 01cc 1B68     		ldr	r3, [r3]
 1840 01ce C7F8B030 		str	r3, [r7, #176]
 1841              	.LBB224:
 1842              	.LBB225:
 352:libs/CMSIS/Include/core_cmInstr.h ****   __ASM volatile ("rev %0, %1" : "=r" (result) : "r" (value) );
 1843              		.loc 2 352 0
 1844 01d2 D7F8B030 		ldr	r3, [r7, #176]
 1845              	@ 352 "libs/CMSIS/Include/core_cmInstr.h" 1
 1846 01d6 1BBA     		rev r3, r3
 1847              	@ 0 "" 2
 1848              		.thumb
 1849 01d8 C7F8AC30 		str	r3, [r7, #172]
 1850              		.loc 2 353 0
 1851 01dc D7F8AC30 		ldr	r3, [r7, #172]
 1852              	.LBE225:
 1853              	.LBE224:
 518:libs/STM32F4xx_StdPeriph_Driver/src/stm32f4xx_cryp_aes.c ****     AES_CRYP_KeyInitStructure.CRYP_Key3Right= __REV(*(uint32_t*)(keyaddr));
 1854              		.loc 1 518 0
 1855 01e0 3B64     		str	r3, [r7, #64]
 519:libs/STM32F4xx_StdPeriph_Driver/src/stm32f4xx_cryp_aes.c ****     break;
 1856              		.loc 1 519 0
 1857 01e2 85E0     		b	.L90
 1858              	.L84:
 521:libs/STM32F4xx_StdPeriph_Driver/src/stm32f4xx_cryp_aes.c ****     AES_CRYP_InitStructure.CRYP_KeySize  = CRYP_KeySize_256b;
 1859              		.loc 1 521 0
 1860 01e4 4FF40073 		mov	r3, #512
 1861 01e8 A7F84A30 		strh	r3, [r7, #74]	@ movhi
 522:libs/STM32F4xx_StdPeriph_Driver/src/stm32f4xx_cryp_aes.c ****     AES_CRYP_KeyInitStructure.CRYP_Key0Left = __REV(*(uint32_t*)(keyaddr));
 1862              		.loc 1 522 0
 1863 01ec D7F80031 		ldr	r3, [r7, #256]
 1864 01f0 1B68     		ldr	r3, [r3]
 1865 01f2 C7F8A830 		str	r3, [r7, #168]
 1866              	.LBB226:
 1867              	.LBB227:
 352:libs/CMSIS/Include/core_cmInstr.h ****   __ASM volatile ("rev %0, %1" : "=r" (result) : "r" (value) );
 1868              		.loc 2 352 0
 1869 01f6 D7F8A830 		ldr	r3, [r7, #168]
 1870              	@ 352 "libs/CMSIS/Include/core_cmInstr.h" 1
 1871 01fa 1BBA     		rev r3, r3
 1872              	@ 0 "" 2
 1873              		.thumb
 1874 01fc C7F8A430 		str	r3, [r7, #164]
 1875              		.loc 2 353 0
 1876 0200 D7F8A430 		ldr	r3, [r7, #164]
 1877              	.LBE227:
 1878              	.LBE226:
 522:libs/STM32F4xx_StdPeriph_Driver/src/stm32f4xx_cryp_aes.c ****     AES_CRYP_KeyInitStructure.CRYP_Key0Left = __REV(*(uint32_t*)(keyaddr));
 1879              		.loc 1 522 0
 1880 0204 7B62     		str	r3, [r7, #36]
 523:libs/STM32F4xx_StdPeriph_Driver/src/stm32f4xx_cryp_aes.c ****     keyaddr+=4;
 1881              		.loc 1 523 0
 1882 0206 D7F80031 		ldr	r3, [r7, #256]
 1883 020a 0433     		adds	r3, r3, #4
 1884 020c C7F80031 		str	r3, [r7, #256]
 524:libs/STM32F4xx_StdPeriph_Driver/src/stm32f4xx_cryp_aes.c ****     AES_CRYP_KeyInitStructure.CRYP_Key0Right= __REV(*(uint32_t*)(keyaddr));
 1885              		.loc 1 524 0
 1886 0210 D7F80031 		ldr	r3, [r7, #256]
 1887 0214 1B68     		ldr	r3, [r3]
 1888 0216 C7F8A030 		str	r3, [r7, #160]
 1889              	.LBB228:
 1890              	.LBB229:
 352:libs/CMSIS/Include/core_cmInstr.h ****   __ASM volatile ("rev %0, %1" : "=r" (result) : "r" (value) );
 1891              		.loc 2 352 0
 1892 021a D7F8A030 		ldr	r3, [r7, #160]
 1893              	@ 352 "libs/CMSIS/Include/core_cmInstr.h" 1
 1894 021e 1BBA     		rev r3, r3
 1895              	@ 0 "" 2
 1896              		.thumb
 1897 0220 C7F89C30 		str	r3, [r7, #156]
 1898              		.loc 2 353 0
 1899 0224 D7F89C30 		ldr	r3, [r7, #156]
 1900              	.LBE229:
 1901              	.LBE228:
 524:libs/STM32F4xx_StdPeriph_Driver/src/stm32f4xx_cryp_aes.c ****     AES_CRYP_KeyInitStructure.CRYP_Key0Right= __REV(*(uint32_t*)(keyaddr));
 1902              		.loc 1 524 0
 1903 0228 BB62     		str	r3, [r7, #40]
 525:libs/STM32F4xx_StdPeriph_Driver/src/stm32f4xx_cryp_aes.c ****     keyaddr+=4;
 1904              		.loc 1 525 0
 1905 022a D7F80031 		ldr	r3, [r7, #256]
 1906 022e 0433     		adds	r3, r3, #4
 1907 0230 C7F80031 		str	r3, [r7, #256]
 526:libs/STM32F4xx_StdPeriph_Driver/src/stm32f4xx_cryp_aes.c ****     AES_CRYP_KeyInitStructure.CRYP_Key1Left = __REV(*(uint32_t*)(keyaddr));
 1908              		.loc 1 526 0
 1909 0234 D7F80031 		ldr	r3, [r7, #256]
 1910 0238 1B68     		ldr	r3, [r3]
 1911 023a C7F89830 		str	r3, [r7, #152]
 1912              	.LBB230:
 1913              	.LBB231:
 352:libs/CMSIS/Include/core_cmInstr.h ****   __ASM volatile ("rev %0, %1" : "=r" (result) : "r" (value) );
 1914              		.loc 2 352 0
 1915 023e D7F89830 		ldr	r3, [r7, #152]
 1916              	@ 352 "libs/CMSIS/Include/core_cmInstr.h" 1
 1917 0242 1BBA     		rev r3, r3
 1918              	@ 0 "" 2
 1919              		.thumb
 1920 0244 C7F89430 		str	r3, [r7, #148]
 1921              		.loc 2 353 0
 1922 0248 D7F89430 		ldr	r3, [r7, #148]
 1923              	.LBE231:
 1924              	.LBE230:
 526:libs/STM32F4xx_StdPeriph_Driver/src/stm32f4xx_cryp_aes.c ****     AES_CRYP_KeyInitStructure.CRYP_Key1Left = __REV(*(uint32_t*)(keyaddr));
 1925              		.loc 1 526 0
 1926 024c FB62     		str	r3, [r7, #44]
 527:libs/STM32F4xx_StdPeriph_Driver/src/stm32f4xx_cryp_aes.c ****     keyaddr+=4;
 1927              		.loc 1 527 0
 1928 024e D7F80031 		ldr	r3, [r7, #256]
 1929 0252 0433     		adds	r3, r3, #4
 1930 0254 C7F80031 		str	r3, [r7, #256]
 528:libs/STM32F4xx_StdPeriph_Driver/src/stm32f4xx_cryp_aes.c ****     AES_CRYP_KeyInitStructure.CRYP_Key1Right= __REV(*(uint32_t*)(keyaddr));
 1931              		.loc 1 528 0
 1932 0258 D7F80031 		ldr	r3, [r7, #256]
 1933 025c 1B68     		ldr	r3, [r3]
 1934 025e C7F89030 		str	r3, [r7, #144]
 1935              	.LBB232:
 1936              	.LBB233:
 352:libs/CMSIS/Include/core_cmInstr.h ****   __ASM volatile ("rev %0, %1" : "=r" (result) : "r" (value) );
 1937              		.loc 2 352 0
 1938 0262 D7F89030 		ldr	r3, [r7, #144]
 1939              	@ 352 "libs/CMSIS/Include/core_cmInstr.h" 1
 1940 0266 1BBA     		rev r3, r3
 1941              	@ 0 "" 2
 1942              		.thumb
 1943 0268 C7F88C30 		str	r3, [r7, #140]
 1944              		.loc 2 353 0
 1945 026c D7F88C30 		ldr	r3, [r7, #140]
 1946              	.LBE233:
 1947              	.LBE232:
 528:libs/STM32F4xx_StdPeriph_Driver/src/stm32f4xx_cryp_aes.c ****     AES_CRYP_KeyInitStructure.CRYP_Key1Right= __REV(*(uint32_t*)(keyaddr));
 1948              		.loc 1 528 0
 1949 0270 3B63     		str	r3, [r7, #48]
 529:libs/STM32F4xx_StdPeriph_Driver/src/stm32f4xx_cryp_aes.c ****     keyaddr+=4;
 1950              		.loc 1 529 0
 1951 0272 D7F80031 		ldr	r3, [r7, #256]
 1952 0276 0433     		adds	r3, r3, #4
 1953 0278 C7F80031 		str	r3, [r7, #256]
 530:libs/STM32F4xx_StdPeriph_Driver/src/stm32f4xx_cryp_aes.c ****     AES_CRYP_KeyInitStructure.CRYP_Key2Left = __REV(*(uint32_t*)(keyaddr));
 1954              		.loc 1 530 0
 1955 027c D7F80031 		ldr	r3, [r7, #256]
 1956 0280 1B68     		ldr	r3, [r3]
 1957 0282 C7F88830 		str	r3, [r7, #136]
 1958              	.LBB234:
 1959              	.LBB235:
 352:libs/CMSIS/Include/core_cmInstr.h ****   __ASM volatile ("rev %0, %1" : "=r" (result) : "r" (value) );
 1960              		.loc 2 352 0
 1961 0286 D7F88830 		ldr	r3, [r7, #136]
 1962              	@ 352 "libs/CMSIS/Include/core_cmInstr.h" 1
 1963 028a 1BBA     		rev r3, r3
 1964              	@ 0 "" 2
 1965              		.thumb
 1966 028c C7F88430 		str	r3, [r7, #132]
 1967              		.loc 2 353 0
 1968 0290 D7F88430 		ldr	r3, [r7, #132]
 1969              	.LBE235:
 1970              	.LBE234:
 530:libs/STM32F4xx_StdPeriph_Driver/src/stm32f4xx_cryp_aes.c ****     AES_CRYP_KeyInitStructure.CRYP_Key2Left = __REV(*(uint32_t*)(keyaddr));
 1971              		.loc 1 530 0
 1972 0294 7B63     		str	r3, [r7, #52]
 531:libs/STM32F4xx_StdPeriph_Driver/src/stm32f4xx_cryp_aes.c ****     keyaddr+=4;
 1973              		.loc 1 531 0
 1974 0296 D7F80031 		ldr	r3, [r7, #256]
 1975 029a 0433     		adds	r3, r3, #4
 1976 029c C7F80031 		str	r3, [r7, #256]
 532:libs/STM32F4xx_StdPeriph_Driver/src/stm32f4xx_cryp_aes.c ****     AES_CRYP_KeyInitStructure.CRYP_Key2Right= __REV(*(uint32_t*)(keyaddr));
 1977              		.loc 1 532 0
 1978 02a0 D7F80031 		ldr	r3, [r7, #256]
 1979 02a4 1B68     		ldr	r3, [r3]
 1980 02a6 C7F88030 		str	r3, [r7, #128]
 1981              	.LBB236:
 1982              	.LBB237:
 352:libs/CMSIS/Include/core_cmInstr.h ****   __ASM volatile ("rev %0, %1" : "=r" (result) : "r" (value) );
 1983              		.loc 2 352 0
 1984 02aa D7F88030 		ldr	r3, [r7, #128]
 1985              	@ 352 "libs/CMSIS/Include/core_cmInstr.h" 1
 1986 02ae 1BBA     		rev r3, r3
 1987              	@ 0 "" 2
 1988              		.thumb
 1989 02b0 FB67     		str	r3, [r7, #124]
 1990              		.loc 2 353 0
 1991 02b2 FB6F     		ldr	r3, [r7, #124]
 1992              	.LBE237:
 1993              	.LBE236:
 532:libs/STM32F4xx_StdPeriph_Driver/src/stm32f4xx_cryp_aes.c ****     AES_CRYP_KeyInitStructure.CRYP_Key2Right= __REV(*(uint32_t*)(keyaddr));
 1994              		.loc 1 532 0
 1995 02b4 BB63     		str	r3, [r7, #56]
 533:libs/STM32F4xx_StdPeriph_Driver/src/stm32f4xx_cryp_aes.c ****     keyaddr+=4;
 1996              		.loc 1 533 0
 1997 02b6 D7F80031 		ldr	r3, [r7, #256]
 1998 02ba 0433     		adds	r3, r3, #4
 1999 02bc C7F80031 		str	r3, [r7, #256]
 534:libs/STM32F4xx_StdPeriph_Driver/src/stm32f4xx_cryp_aes.c ****     AES_CRYP_KeyInitStructure.CRYP_Key3Left = __REV(*(uint32_t*)(keyaddr));
 2000              		.loc 1 534 0
 2001 02c0 D7F80031 		ldr	r3, [r7, #256]
 2002 02c4 1B68     		ldr	r3, [r3]
 2003 02c6 BB67     		str	r3, [r7, #120]
 2004              	.LBB238:
 2005              	.LBB239:
 352:libs/CMSIS/Include/core_cmInstr.h ****   __ASM volatile ("rev %0, %1" : "=r" (result) : "r" (value) );
 2006              		.loc 2 352 0
 2007 02c8 BB6F     		ldr	r3, [r7, #120]
 2008              	@ 352 "libs/CMSIS/Include/core_cmInstr.h" 1
 2009 02ca 1BBA     		rev r3, r3
 2010              	@ 0 "" 2
 2011              		.thumb
 2012 02cc 7B67     		str	r3, [r7, #116]
 2013              		.loc 2 353 0
 2014 02ce 7B6F     		ldr	r3, [r7, #116]
 2015              	.LBE239:
 2016              	.LBE238:
 534:libs/STM32F4xx_StdPeriph_Driver/src/stm32f4xx_cryp_aes.c ****     AES_CRYP_KeyInitStructure.CRYP_Key3Left = __REV(*(uint32_t*)(keyaddr));
 2017              		.loc 1 534 0
 2018 02d0 FB63     		str	r3, [r7, #60]
 535:libs/STM32F4xx_StdPeriph_Driver/src/stm32f4xx_cryp_aes.c ****     keyaddr+=4;
 2019              		.loc 1 535 0
 2020 02d2 D7F80031 		ldr	r3, [r7, #256]
 2021 02d6 0433     		adds	r3, r3, #4
 2022 02d8 C7F80031 		str	r3, [r7, #256]
 536:libs/STM32F4xx_StdPeriph_Driver/src/stm32f4xx_cryp_aes.c ****     AES_CRYP_KeyInitStructure.CRYP_Key3Right= __REV(*(uint32_t*)(keyaddr));
 2023              		.loc 1 536 0
 2024 02dc D7F80031 		ldr	r3, [r7, #256]
 2025 02e0 1B68     		ldr	r3, [r3]
 2026 02e2 3B67     		str	r3, [r7, #112]
 2027              	.LBB240:
 2028              	.LBB241:
 352:libs/CMSIS/Include/core_cmInstr.h ****   __ASM volatile ("rev %0, %1" : "=r" (result) : "r" (value) );
 2029              		.loc 2 352 0
 2030 02e4 3B6F     		ldr	r3, [r7, #112]
 2031              	@ 352 "libs/CMSIS/Include/core_cmInstr.h" 1
 2032 02e6 1BBA     		rev r3, r3
 2033              	@ 0 "" 2
 2034              		.thumb
 2035 02e8 FB66     		str	r3, [r7, #108]
 2036              		.loc 2 353 0
 2037 02ea FB6E     		ldr	r3, [r7, #108]
 2038              	.LBE241:
 2039              	.LBE240:
 536:libs/STM32F4xx_StdPeriph_Driver/src/stm32f4xx_cryp_aes.c ****     AES_CRYP_KeyInitStructure.CRYP_Key3Right= __REV(*(uint32_t*)(keyaddr));
 2040              		.loc 1 536 0
 2041 02ec 3B64     		str	r3, [r7, #64]
 537:libs/STM32F4xx_StdPeriph_Driver/src/stm32f4xx_cryp_aes.c ****     break;
 2042              		.loc 1 537 0
 2043 02ee 00BF     		nop
 2044              	.L90:
 540:libs/STM32F4xx_StdPeriph_Driver/src/stm32f4xx_cryp_aes.c ****   }
 541:libs/STM32F4xx_StdPeriph_Driver/src/stm32f4xx_cryp_aes.c ****   /* CRYP Initialization Vectors */
 542:libs/STM32F4xx_StdPeriph_Driver/src/stm32f4xx_cryp_aes.c ****   AES_CRYP_IVInitStructure.CRYP_IV0Left = __REV(*(uint32_t*)(ivaddr));
 2045              		.loc 1 542 0
 2046 02f0 D7F8FC30 		ldr	r3, [r7, #252]
 2047 02f4 1B68     		ldr	r3, [r3]
 2048 02f6 BB66     		str	r3, [r7, #104]
 2049              	.LBB242:
 2050              	.LBB243:
 352:libs/CMSIS/Include/core_cmInstr.h ****   __ASM volatile ("rev %0, %1" : "=r" (result) : "r" (value) );
 2051              		.loc 2 352 0
 2052 02f8 BB6E     		ldr	r3, [r7, #104]
 2053              	@ 352 "libs/CMSIS/Include/core_cmInstr.h" 1
 2054 02fa 1BBA     		rev r3, r3
 2055              	@ 0 "" 2
 2056              		.thumb
 2057 02fc 7B66     		str	r3, [r7, #100]
 2058              		.loc 2 353 0
 2059 02fe 7B6E     		ldr	r3, [r7, #100]
 2060              	.LBE243:
 2061              	.LBE242:
 2062              		.loc 1 542 0
 2063 0300 1A46     		mov	r2, r3
 2064 0302 07F11403 		add	r3, r7, #20
 2065 0306 1A60     		str	r2, [r3]
 543:libs/STM32F4xx_StdPeriph_Driver/src/stm32f4xx_cryp_aes.c ****   ivaddr+=4;
 2066              		.loc 1 543 0
 2067 0308 D7F8FC30 		ldr	r3, [r7, #252]
 2068 030c 0433     		adds	r3, r3, #4
 2069 030e C7F8FC30 		str	r3, [r7, #252]
 544:libs/STM32F4xx_StdPeriph_Driver/src/stm32f4xx_cryp_aes.c ****   AES_CRYP_IVInitStructure.CRYP_IV0Right= __REV(*(uint32_t*)(ivaddr));
 2070              		.loc 1 544 0
 2071 0312 D7F8FC30 		ldr	r3, [r7, #252]
 2072 0316 1B68     		ldr	r3, [r3]
 2073 0318 3B66     		str	r3, [r7, #96]
 2074              	.LBB244:
 2075              	.LBB245:
 352:libs/CMSIS/Include/core_cmInstr.h ****   __ASM volatile ("rev %0, %1" : "=r" (result) : "r" (value) );
 2076              		.loc 2 352 0
 2077 031a 3B6E     		ldr	r3, [r7, #96]
 2078              	@ 352 "libs/CMSIS/Include/core_cmInstr.h" 1
 2079 031c 1BBA     		rev r3, r3
 2080              	@ 0 "" 2
 2081              		.thumb
 2082 031e FB65     		str	r3, [r7, #92]
 2083              		.loc 2 353 0
 2084 0320 FB6D     		ldr	r3, [r7, #92]
 2085              	.LBE245:
 2086              	.LBE244:
 2087              		.loc 1 544 0
 2088 0322 1A46     		mov	r2, r3
 2089 0324 07F11403 		add	r3, r7, #20
 2090 0328 5A60     		str	r2, [r3, #4]
 545:libs/STM32F4xx_StdPeriph_Driver/src/stm32f4xx_cryp_aes.c ****   ivaddr+=4;
 2091              		.loc 1 545 0
 2092 032a D7F8FC30 		ldr	r3, [r7, #252]
 2093 032e 0433     		adds	r3, r3, #4
 2094 0330 C7F8FC30 		str	r3, [r7, #252]
 546:libs/STM32F4xx_StdPeriph_Driver/src/stm32f4xx_cryp_aes.c ****   AES_CRYP_IVInitStructure.CRYP_IV1Left = __REV(*(uint32_t*)(ivaddr));
 2095              		.loc 1 546 0
 2096 0334 D7F8FC30 		ldr	r3, [r7, #252]
 2097 0338 1B68     		ldr	r3, [r3]
 2098 033a BB65     		str	r3, [r7, #88]
 2099              	.LBB246:
 2100              	.LBB247:
 352:libs/CMSIS/Include/core_cmInstr.h ****   __ASM volatile ("rev %0, %1" : "=r" (result) : "r" (value) );
 2101              		.loc 2 352 0
 2102 033c BB6D     		ldr	r3, [r7, #88]
 2103              	@ 352 "libs/CMSIS/Include/core_cmInstr.h" 1
 2104 033e 1BBA     		rev r3, r3
 2105              	@ 0 "" 2
 2106              		.thumb
 2107 0340 7B65     		str	r3, [r7, #84]
 2108              		.loc 2 353 0
 2109 0342 7B6D     		ldr	r3, [r7, #84]
 2110              	.LBE247:
 2111              	.LBE246:
 2112              		.loc 1 546 0
 2113 0344 1A46     		mov	r2, r3
 2114 0346 07F11403 		add	r3, r7, #20
 2115 034a 9A60     		str	r2, [r3, #8]
 547:libs/STM32F4xx_StdPeriph_Driver/src/stm32f4xx_cryp_aes.c ****   ivaddr+=4;
 2116              		.loc 1 547 0
 2117 034c D7F8FC30 		ldr	r3, [r7, #252]
 2118 0350 0433     		adds	r3, r3, #4
 2119 0352 C7F8FC30 		str	r3, [r7, #252]
 548:libs/STM32F4xx_StdPeriph_Driver/src/stm32f4xx_cryp_aes.c ****   AES_CRYP_IVInitStructure.CRYP_IV1Right= __REV(*(uint32_t*)(ivaddr));
 2120              		.loc 1 548 0
 2121 0356 D7F8FC30 		ldr	r3, [r7, #252]
 2122 035a 1B68     		ldr	r3, [r3]
 2123 035c 3B65     		str	r3, [r7, #80]
 2124              	.LBB248:
 2125              	.LBB249:
 352:libs/CMSIS/Include/core_cmInstr.h ****   __ASM volatile ("rev %0, %1" : "=r" (result) : "r" (value) );
 2126              		.loc 2 352 0
 2127 035e 3B6D     		ldr	r3, [r7, #80]
 2128              	@ 352 "libs/CMSIS/Include/core_cmInstr.h" 1
 2129 0360 1BBA     		rev r3, r3
 2130              	@ 0 "" 2
 2131              		.thumb
 2132 0362 FB64     		str	r3, [r7, #76]
 2133              		.loc 2 353 0
 2134 0364 FB6C     		ldr	r3, [r7, #76]
 2135              	.LBE249:
 2136              	.LBE248:
 2137              		.loc 1 548 0
 2138 0366 1A46     		mov	r2, r3
 2139 0368 07F11403 		add	r3, r7, #20
 2140 036c DA60     		str	r2, [r3, #12]
 549:libs/STM32F4xx_StdPeriph_Driver/src/stm32f4xx_cryp_aes.c **** 
 550:libs/STM32F4xx_StdPeriph_Driver/src/stm32f4xx_cryp_aes.c ****   /* Key Initialisation */
 551:libs/STM32F4xx_StdPeriph_Driver/src/stm32f4xx_cryp_aes.c ****   CRYP_KeyInit(&AES_CRYP_KeyInitStructure);
 2141              		.loc 1 551 0
 2142 036e 07F12403 		add	r3, r7, #36
 2143 0372 1846     		mov	r0, r3
 2144 0374 FFF7FEFF 		bl	CRYP_KeyInit
 552:libs/STM32F4xx_StdPeriph_Driver/src/stm32f4xx_cryp_aes.c **** 
 553:libs/STM32F4xx_StdPeriph_Driver/src/stm32f4xx_cryp_aes.c ****   /*------------------ AES Decryption ------------------*/
 554:libs/STM32F4xx_StdPeriph_Driver/src/stm32f4xx_cryp_aes.c ****   if(Mode == MODE_DECRYPT) /* AES decryption */
 2145              		.loc 1 554 0
 2146 0378 07F10F03 		add	r3, r7, #15
 2147 037c 1B78     		ldrb	r3, [r3]	@ zero_extendqisi2
 2148 037e 002B     		cmp	r3, #0
 2149 0380 03D1     		bne	.L109
 555:libs/STM32F4xx_StdPeriph_Driver/src/stm32f4xx_cryp_aes.c ****   {
 556:libs/STM32F4xx_StdPeriph_Driver/src/stm32f4xx_cryp_aes.c ****     /* Crypto Init for decryption process */
 557:libs/STM32F4xx_StdPeriph_Driver/src/stm32f4xx_cryp_aes.c ****     AES_CRYP_InitStructure.CRYP_AlgoDir = CRYP_AlgoDir_Decrypt;
 2150              		.loc 1 557 0
 2151 0382 0423     		movs	r3, #4
 2152 0384 A7F84430 		strh	r3, [r7, #68]	@ movhi
 2153 0388 02E0     		b	.L110
 2154              	.L109:
 558:libs/STM32F4xx_StdPeriph_Driver/src/stm32f4xx_cryp_aes.c ****   }
 559:libs/STM32F4xx_StdPeriph_Driver/src/stm32f4xx_cryp_aes.c ****   /*------------------ AES Encryption ------------------*/
 560:libs/STM32F4xx_StdPeriph_Driver/src/stm32f4xx_cryp_aes.c ****   else /* AES encryption */
 561:libs/STM32F4xx_StdPeriph_Driver/src/stm32f4xx_cryp_aes.c ****   {
 562:libs/STM32F4xx_StdPeriph_Driver/src/stm32f4xx_cryp_aes.c ****     /* Crypto Init for Encryption process */
 563:libs/STM32F4xx_StdPeriph_Driver/src/stm32f4xx_cryp_aes.c ****     AES_CRYP_InitStructure.CRYP_AlgoDir = CRYP_AlgoDir_Encrypt;
 2155              		.loc 1 563 0
 2156 038a 0023     		movs	r3, #0
 2157 038c A7F84430 		strh	r3, [r7, #68]	@ movhi
 2158              	.L110:
 564:libs/STM32F4xx_StdPeriph_Driver/src/stm32f4xx_cryp_aes.c ****   }
 565:libs/STM32F4xx_StdPeriph_Driver/src/stm32f4xx_cryp_aes.c ****   AES_CRYP_InitStructure.CRYP_AlgoMode = CRYP_AlgoMode_AES_CTR;
 2159              		.loc 1 565 0
 2160 0390 3023     		movs	r3, #48
 2161 0392 A7F84630 		strh	r3, [r7, #70]	@ movhi
 566:libs/STM32F4xx_StdPeriph_Driver/src/stm32f4xx_cryp_aes.c ****   AES_CRYP_InitStructure.CRYP_DataType = CRYP_DataType_8b;
 2162              		.loc 1 566 0
 2163 0396 8023     		movs	r3, #128
 2164 0398 A7F84830 		strh	r3, [r7, #72]	@ movhi
 567:libs/STM32F4xx_StdPeriph_Driver/src/stm32f4xx_cryp_aes.c ****   CRYP_Init(&AES_CRYP_InitStructure);
 2165              		.loc 1 567 0
 2166 039c 07F14403 		add	r3, r7, #68
 2167 03a0 1846     		mov	r0, r3
 2168 03a2 FFF7FEFF 		bl	CRYP_Init
 568:libs/STM32F4xx_StdPeriph_Driver/src/stm32f4xx_cryp_aes.c **** 
 569:libs/STM32F4xx_StdPeriph_Driver/src/stm32f4xx_cryp_aes.c ****   /* CRYP Initialization Vectors */
 570:libs/STM32F4xx_StdPeriph_Driver/src/stm32f4xx_cryp_aes.c ****   CRYP_IVInit(&AES_CRYP_IVInitStructure);
 2169              		.loc 1 570 0
 2170 03a6 07F11403 		add	r3, r7, #20
 2171 03aa 1846     		mov	r0, r3
 2172 03ac FFF7FEFF 		bl	CRYP_IVInit
 571:libs/STM32F4xx_StdPeriph_Driver/src/stm32f4xx_cryp_aes.c **** 
 572:libs/STM32F4xx_StdPeriph_Driver/src/stm32f4xx_cryp_aes.c ****   /* Flush IN/OUT FIFOs */
 573:libs/STM32F4xx_StdPeriph_Driver/src/stm32f4xx_cryp_aes.c ****   CRYP_FIFOFlush();
 2173              		.loc 1 573 0
 2174 03b0 FFF7FEFF 		bl	CRYP_FIFOFlush
 574:libs/STM32F4xx_StdPeriph_Driver/src/stm32f4xx_cryp_aes.c **** 
 575:libs/STM32F4xx_StdPeriph_Driver/src/stm32f4xx_cryp_aes.c ****   /* Enable Crypto processor */
 576:libs/STM32F4xx_StdPeriph_Driver/src/stm32f4xx_cryp_aes.c ****   CRYP_Cmd(ENABLE);
 2175              		.loc 1 576 0
 2176 03b4 0120     		movs	r0, #1
 2177 03b6 FFF7FEFF 		bl	CRYP_Cmd
 577:libs/STM32F4xx_StdPeriph_Driver/src/stm32f4xx_cryp_aes.c **** 
 578:libs/STM32F4xx_StdPeriph_Driver/src/stm32f4xx_cryp_aes.c ****   for(i=0; ((i<Ilength) && (status != ERROR)); i+=16)
 2178              		.loc 1 578 0
 2179 03ba 0023     		movs	r3, #0
 2180 03bc C7F80831 		str	r3, [r7, #264]
 2181 03c0 7FE0     		b	.L111
 2182              	.L117:
 579:libs/STM32F4xx_StdPeriph_Driver/src/stm32f4xx_cryp_aes.c ****   {
 580:libs/STM32F4xx_StdPeriph_Driver/src/stm32f4xx_cryp_aes.c **** 
 581:libs/STM32F4xx_StdPeriph_Driver/src/stm32f4xx_cryp_aes.c ****     /* Write the Input block in the IN FIFO */
 582:libs/STM32F4xx_StdPeriph_Driver/src/stm32f4xx_cryp_aes.c ****     CRYP_DataIn(*(uint32_t*)(inputaddr));
 2183              		.loc 1 582 0
 2184 03c2 D7F81031 		ldr	r3, [r7, #272]
 2185 03c6 1B68     		ldr	r3, [r3]
 2186 03c8 1846     		mov	r0, r3
 2187 03ca FFF7FEFF 		bl	CRYP_DataIn
 583:libs/STM32F4xx_StdPeriph_Driver/src/stm32f4xx_cryp_aes.c ****     inputaddr+=4;
 2188              		.loc 1 583 0
 2189 03ce D7F81031 		ldr	r3, [r7, #272]
 2190 03d2 0433     		adds	r3, r3, #4
 2191 03d4 C7F81031 		str	r3, [r7, #272]
 584:libs/STM32F4xx_StdPeriph_Driver/src/stm32f4xx_cryp_aes.c ****     CRYP_DataIn(*(uint32_t*)(inputaddr));
 2192              		.loc 1 584 0
 2193 03d8 D7F81031 		ldr	r3, [r7, #272]
 2194 03dc 1B68     		ldr	r3, [r3]
 2195 03de 1846     		mov	r0, r3
 2196 03e0 FFF7FEFF 		bl	CRYP_DataIn
 585:libs/STM32F4xx_StdPeriph_Driver/src/stm32f4xx_cryp_aes.c ****     inputaddr+=4;
 2197              		.loc 1 585 0
 2198 03e4 D7F81031 		ldr	r3, [r7, #272]
 2199 03e8 0433     		adds	r3, r3, #4
 2200 03ea C7F81031 		str	r3, [r7, #272]
 586:libs/STM32F4xx_StdPeriph_Driver/src/stm32f4xx_cryp_aes.c ****     CRYP_DataIn(*(uint32_t*)(inputaddr));
 2201              		.loc 1 586 0
 2202 03ee D7F81031 		ldr	r3, [r7, #272]
 2203 03f2 1B68     		ldr	r3, [r3]
 2204 03f4 1846     		mov	r0, r3
 2205 03f6 FFF7FEFF 		bl	CRYP_DataIn
 587:libs/STM32F4xx_StdPeriph_Driver/src/stm32f4xx_cryp_aes.c ****     inputaddr+=4;
 2206              		.loc 1 587 0
 2207 03fa D7F81031 		ldr	r3, [r7, #272]
 2208 03fe 0433     		adds	r3, r3, #4
 2209 0400 C7F81031 		str	r3, [r7, #272]
 588:libs/STM32F4xx_StdPeriph_Driver/src/stm32f4xx_cryp_aes.c ****     CRYP_DataIn(*(uint32_t*)(inputaddr));
 2210              		.loc 1 588 0
 2211 0404 D7F81031 		ldr	r3, [r7, #272]
 2212 0408 1B68     		ldr	r3, [r3]
 2213 040a 1846     		mov	r0, r3
 2214 040c FFF7FEFF 		bl	CRYP_DataIn
 589:libs/STM32F4xx_StdPeriph_Driver/src/stm32f4xx_cryp_aes.c ****     inputaddr+=4;
 2215              		.loc 1 589 0
 2216 0410 D7F81031 		ldr	r3, [r7, #272]
 2217 0414 0433     		adds	r3, r3, #4
 2218 0416 C7F81031 		str	r3, [r7, #272]
 590:libs/STM32F4xx_StdPeriph_Driver/src/stm32f4xx_cryp_aes.c ****     /* Wait until the complete message has been processed */
 591:libs/STM32F4xx_StdPeriph_Driver/src/stm32f4xx_cryp_aes.c ****     counter = 0;
 2219              		.loc 1 591 0
 2220 041a 07F11003 		add	r3, r7, #16
 2221 041e 0022     		movs	r2, #0
 2222 0420 1A60     		str	r2, [r3]
 2223              	.L113:
 592:libs/STM32F4xx_StdPeriph_Driver/src/stm32f4xx_cryp_aes.c ****     do
 593:libs/STM32F4xx_StdPeriph_Driver/src/stm32f4xx_cryp_aes.c ****     {
 594:libs/STM32F4xx_StdPeriph_Driver/src/stm32f4xx_cryp_aes.c ****       busystatus = CRYP_GetFlagStatus(CRYP_FLAG_BUSY);
 2224              		.loc 1 594 0 discriminator 1
 2225 0422 1020     		movs	r0, #16
 2226 0424 FFF7FEFF 		bl	CRYP_GetFlagStatus
 2227 0428 0346     		mov	r3, r0
 2228 042a C7F80431 		str	r3, [r7, #260]
 595:libs/STM32F4xx_StdPeriph_Driver/src/stm32f4xx_cryp_aes.c ****       counter++;
 2229              		.loc 1 595 0 discriminator 1
 2230 042e 07F11003 		add	r3, r7, #16
 2231 0432 1B68     		ldr	r3, [r3]
 2232 0434 5A1C     		adds	r2, r3, #1
 2233 0436 07F11003 		add	r3, r7, #16
 2234 043a 1A60     		str	r2, [r3]
 596:libs/STM32F4xx_StdPeriph_Driver/src/stm32f4xx_cryp_aes.c ****     }while ((counter != AESBUSY_TIMEOUT) && (busystatus != RESET));
 2235              		.loc 1 596 0 discriminator 1
 2236 043c 07F11003 		add	r3, r7, #16
 2237 0440 1B68     		ldr	r3, [r3]
 2238 0442 B3F5803F 		cmp	r3, #65536
 2239 0446 03D0     		beq	.L112
 2240 0448 D7F80431 		ldr	r3, [r7, #260]
 2241 044c 002B     		cmp	r3, #0
 2242 044e E8D1     		bne	.L113
 2243              	.L112:
 597:libs/STM32F4xx_StdPeriph_Driver/src/stm32f4xx_cryp_aes.c **** 
 598:libs/STM32F4xx_StdPeriph_Driver/src/stm32f4xx_cryp_aes.c ****     if (busystatus != RESET)
 2244              		.loc 1 598 0
 2245 0450 D7F80431 		ldr	r3, [r7, #260]
 2246 0454 002B     		cmp	r3, #0
 2247 0456 03D0     		beq	.L114
 599:libs/STM32F4xx_StdPeriph_Driver/src/stm32f4xx_cryp_aes.c ****    {
 600:libs/STM32F4xx_StdPeriph_Driver/src/stm32f4xx_cryp_aes.c ****        status = ERROR;
 2248              		.loc 1 600 0
 2249 0458 0023     		movs	r3, #0
 2250 045a 87F81731 		strb	r3, [r7, #279]
 2251 045e 2BE0     		b	.L115
 2252              	.L114:
 601:libs/STM32F4xx_StdPeriph_Driver/src/stm32f4xx_cryp_aes.c ****     }
 602:libs/STM32F4xx_StdPeriph_Driver/src/stm32f4xx_cryp_aes.c ****     else
 603:libs/STM32F4xx_StdPeriph_Driver/src/stm32f4xx_cryp_aes.c ****     {
 604:libs/STM32F4xx_StdPeriph_Driver/src/stm32f4xx_cryp_aes.c **** 
 605:libs/STM32F4xx_StdPeriph_Driver/src/stm32f4xx_cryp_aes.c ****       /* Read the Output block from the Output FIFO */
 606:libs/STM32F4xx_StdPeriph_Driver/src/stm32f4xx_cryp_aes.c ****       *(uint32_t*)(outputaddr) = CRYP_DataOut();
 2253              		.loc 1 606 0
 2254 0460 D7F80C41 		ldr	r4, [r7, #268]
 2255 0464 FFF7FEFF 		bl	CRYP_DataOut
 2256 0468 0346     		mov	r3, r0
 2257 046a 2360     		str	r3, [r4]
 607:libs/STM32F4xx_StdPeriph_Driver/src/stm32f4xx_cryp_aes.c ****       outputaddr+=4;
 2258              		.loc 1 607 0
 2259 046c D7F80C31 		ldr	r3, [r7, #268]
 2260 0470 0433     		adds	r3, r3, #4
 2261 0472 C7F80C31 		str	r3, [r7, #268]
 608:libs/STM32F4xx_StdPeriph_Driver/src/stm32f4xx_cryp_aes.c ****       *(uint32_t*)(outputaddr) = CRYP_DataOut();
 2262              		.loc 1 608 0
 2263 0476 D7F80C41 		ldr	r4, [r7, #268]
 2264 047a FFF7FEFF 		bl	CRYP_DataOut
 2265 047e 0346     		mov	r3, r0
 2266 0480 2360     		str	r3, [r4]
 609:libs/STM32F4xx_StdPeriph_Driver/src/stm32f4xx_cryp_aes.c ****       outputaddr+=4;
 2267              		.loc 1 609 0
 2268 0482 D7F80C31 		ldr	r3, [r7, #268]
 2269 0486 0433     		adds	r3, r3, #4
 2270 0488 C7F80C31 		str	r3, [r7, #268]
 610:libs/STM32F4xx_StdPeriph_Driver/src/stm32f4xx_cryp_aes.c ****       *(uint32_t*)(outputaddr) = CRYP_DataOut();
 2271              		.loc 1 610 0
 2272 048c D7F80C41 		ldr	r4, [r7, #268]
 2273 0490 FFF7FEFF 		bl	CRYP_DataOut
 2274 0494 0346     		mov	r3, r0
 2275 0496 2360     		str	r3, [r4]
 611:libs/STM32F4xx_StdPeriph_Driver/src/stm32f4xx_cryp_aes.c ****       outputaddr+=4;
 2276              		.loc 1 611 0
 2277 0498 D7F80C31 		ldr	r3, [r7, #268]
 2278 049c 0433     		adds	r3, r3, #4
 2279 049e C7F80C31 		str	r3, [r7, #268]
 612:libs/STM32F4xx_StdPeriph_Driver/src/stm32f4xx_cryp_aes.c ****       *(uint32_t*)(outputaddr) = CRYP_DataOut();
 2280              		.loc 1 612 0
 2281 04a2 D7F80C41 		ldr	r4, [r7, #268]
 2282 04a6 FFF7FEFF 		bl	CRYP_DataOut
 2283 04aa 0346     		mov	r3, r0
 2284 04ac 2360     		str	r3, [r4]
 613:libs/STM32F4xx_StdPeriph_Driver/src/stm32f4xx_cryp_aes.c ****       outputaddr+=4;
 2285              		.loc 1 613 0
 2286 04ae D7F80C31 		ldr	r3, [r7, #268]
 2287 04b2 0433     		adds	r3, r3, #4
 2288 04b4 C7F80C31 		str	r3, [r7, #268]
 2289              	.L115:
 578:libs/STM32F4xx_StdPeriph_Driver/src/stm32f4xx_cryp_aes.c ****   for(i=0; ((i<Ilength) && (status != ERROR)); i+=16)
 2290              		.loc 1 578 0
 2291 04b8 D7F80831 		ldr	r3, [r7, #264]
 2292 04bc 1033     		adds	r3, r3, #16
 2293 04be C7F80831 		str	r3, [r7, #264]
 2294              	.L111:
 578:libs/STM32F4xx_StdPeriph_Driver/src/stm32f4xx_cryp_aes.c ****   for(i=0; ((i<Ilength) && (status != ERROR)); i+=16)
 2295              		.loc 1 578 0 is_stmt 0 discriminator 1
 2296 04c2 D7F80821 		ldr	r2, [r7, #264]
 2297 04c6 D7F82C31 		ldr	r3, [r7, #300]
 2298 04ca 9A42     		cmp	r2, r3
 2299 04cc 04D2     		bcs	.L116
 578:libs/STM32F4xx_StdPeriph_Driver/src/stm32f4xx_cryp_aes.c ****   for(i=0; ((i<Ilength) && (status != ERROR)); i+=16)
 2300              		.loc 1 578 0 discriminator 2
 2301 04ce 97F81731 		ldrb	r3, [r7, #279]	@ zero_extendqisi2
 2302 04d2 002B     		cmp	r3, #0
 2303 04d4 7FF475AF 		bne	.L117
 2304              	.L116:
 614:libs/STM32F4xx_StdPeriph_Driver/src/stm32f4xx_cryp_aes.c ****     }
 615:libs/STM32F4xx_StdPeriph_Driver/src/stm32f4xx_cryp_aes.c ****   }
 616:libs/STM32F4xx_StdPeriph_Driver/src/stm32f4xx_cryp_aes.c ****   /* Disable Crypto */
 617:libs/STM32F4xx_StdPeriph_Driver/src/stm32f4xx_cryp_aes.c ****   CRYP_Cmd(DISABLE);
 2305              		.loc 1 617 0 is_stmt 1
 2306 04d8 0020     		movs	r0, #0
 2307 04da FFF7FEFF 		bl	CRYP_Cmd
 618:libs/STM32F4xx_StdPeriph_Driver/src/stm32f4xx_cryp_aes.c **** 
 619:libs/STM32F4xx_StdPeriph_Driver/src/stm32f4xx_cryp_aes.c ****   return status;
 2308              		.loc 1 619 0
 2309 04de 97F81731 		ldrb	r3, [r7, #279]	@ zero_extendqisi2
 620:libs/STM32F4xx_StdPeriph_Driver/src/stm32f4xx_cryp_aes.c **** }
 2310              		.loc 1 620 0
 2311 04e2 1846     		mov	r0, r3
 2312 04e4 07F58E77 		add	r7, r7, #284
 2313 04e8 BD46     		mov	sp, r7
 2314              		@ sp needed
 2315 04ea 90BD     		pop	{r4, r7, pc}
 2316              		.cfi_endproc
 2317              	.LFE112:
 2319              		.text
 2320              	.Letext0:
 2321              		.file 3 "/home/shihyu/data/STM32F4/gcc-arm-none-eabi-4_8-2013q4/arm-none-eabi/include/stdint.h"
 2322              		.file 4 "libs/Device/STM32F4xx/Include/stm32f4xx.h"
 2323              		.file 5 "libs/STM32F4xx_StdPeriph_Driver/inc/stm32f4xx_cryp.h"
 2324              		.file 6 "libs/CMSIS/Include/core_cm4.h"