   1              		.syntax unified
   2              		.cpu cortex-m4
   3              		.eabi_attribute 27, 3
   4              		.fpu fpv4-sp-d16
   5              		.eabi_attribute 20, 1
   6              		.eabi_attribute 21, 1
   7              		.eabi_attribute 23, 3
   8              		.eabi_attribute 24, 1
   9              		.eabi_attribute 25, 1
  10              		.eabi_attribute 26, 1
  11              		.eabi_attribute 30, 6
  12              		.eabi_attribute 34, 1
  13              		.eabi_attribute 18, 4
  14              		.thumb
  15              		.file	"stm32f4xx_cryp_tdes.c"
  16              		.text
  17              	.Ltext0:
  18              		.cfi_sections	.debug_frame
  19              		.section	.text.CRYP_TDES_ECB,"ax",%progbits
  20              		.align	2
  21              		.global	CRYP_TDES_ECB
  22              		.thumb
  23              		.thumb_func
  25              	CRYP_TDES_ECB:
  26              	.LFB110:
  27              		.file 1 "libs/STM32F4xx_StdPeriph_Driver/src/stm32f4xx_cryp_tdes.c"
   1:libs/STM32F4xx_StdPeriph_Driver/src/stm32f4xx_cryp_tdes.c **** /**
   2:libs/STM32F4xx_StdPeriph_Driver/src/stm32f4xx_cryp_tdes.c ****   ******************************************************************************
   3:libs/STM32F4xx_StdPeriph_Driver/src/stm32f4xx_cryp_tdes.c ****   * @file    stm32f4xx_cryp_tdes.c
   4:libs/STM32F4xx_StdPeriph_Driver/src/stm32f4xx_cryp_tdes.c ****   * @author  MCD Application Team
   5:libs/STM32F4xx_StdPeriph_Driver/src/stm32f4xx_cryp_tdes.c ****   * @version V1.0.0RC1
   6:libs/STM32F4xx_StdPeriph_Driver/src/stm32f4xx_cryp_tdes.c ****   * @date    25-August-2011
   7:libs/STM32F4xx_StdPeriph_Driver/src/stm32f4xx_cryp_tdes.c ****   * @brief   This file provides high level functions to encrypt and decrypt an 
   8:libs/STM32F4xx_StdPeriph_Driver/src/stm32f4xx_cryp_tdes.c ****   *          input message using TDES in ECB/CBC modes .
   9:libs/STM32F4xx_StdPeriph_Driver/src/stm32f4xx_cryp_tdes.c ****   *          It uses the stm32f4xx_cryp.c/.h drivers to access the STM32F4xx CRYP
  10:libs/STM32F4xx_StdPeriph_Driver/src/stm32f4xx_cryp_tdes.c ****   *          peripheral.
  11:libs/STM32F4xx_StdPeriph_Driver/src/stm32f4xx_cryp_tdes.c ****   *
  12:libs/STM32F4xx_StdPeriph_Driver/src/stm32f4xx_cryp_tdes.c ****   *  @verbatim
  13:libs/STM32F4xx_StdPeriph_Driver/src/stm32f4xx_cryp_tdes.c ****   *
  14:libs/STM32F4xx_StdPeriph_Driver/src/stm32f4xx_cryp_tdes.c ****   *          ===================================================================
  15:libs/STM32F4xx_StdPeriph_Driver/src/stm32f4xx_cryp_tdes.c ****   *                                   How to use this driver
  16:libs/STM32F4xx_StdPeriph_Driver/src/stm32f4xx_cryp_tdes.c ****   *          ===================================================================
  17:libs/STM32F4xx_StdPeriph_Driver/src/stm32f4xx_cryp_tdes.c ****   *          1. Enable The CRYP controller clock using 
  18:libs/STM32F4xx_StdPeriph_Driver/src/stm32f4xx_cryp_tdes.c ****   *            RCC_AHB2PeriphClockCmd(RCC_AHB2Periph_CRYP, ENABLE); function.
  19:libs/STM32F4xx_StdPeriph_Driver/src/stm32f4xx_cryp_tdes.c ****   *
  20:libs/STM32F4xx_StdPeriph_Driver/src/stm32f4xx_cryp_tdes.c ****   *          2. Encrypt and decrypt using TDES in ECB Mode using CRYP_TDES_ECB()
  21:libs/STM32F4xx_StdPeriph_Driver/src/stm32f4xx_cryp_tdes.c ****   *             function.
  22:libs/STM32F4xx_StdPeriph_Driver/src/stm32f4xx_cryp_tdes.c ****   *
  23:libs/STM32F4xx_StdPeriph_Driver/src/stm32f4xx_cryp_tdes.c ****   *          3. Encrypt and decrypt using TDES in CBC Mode using CRYP_TDES_CBC()
  24:libs/STM32F4xx_StdPeriph_Driver/src/stm32f4xx_cryp_tdes.c ****   *             function.
  25:libs/STM32F4xx_StdPeriph_Driver/src/stm32f4xx_cryp_tdes.c ****   *
  26:libs/STM32F4xx_StdPeriph_Driver/src/stm32f4xx_cryp_tdes.c ****   *  @endverbatim
  27:libs/STM32F4xx_StdPeriph_Driver/src/stm32f4xx_cryp_tdes.c ****   *
  28:libs/STM32F4xx_StdPeriph_Driver/src/stm32f4xx_cryp_tdes.c ****   ******************************************************************************
  29:libs/STM32F4xx_StdPeriph_Driver/src/stm32f4xx_cryp_tdes.c ****   * @attention
  30:libs/STM32F4xx_StdPeriph_Driver/src/stm32f4xx_cryp_tdes.c ****   *
  31:libs/STM32F4xx_StdPeriph_Driver/src/stm32f4xx_cryp_tdes.c ****   * THE PRESENT FIRMWARE WHICH IS FOR GUIDANCE ONLY AIMS AT PROVIDING CUSTOMERS
  32:libs/STM32F4xx_StdPeriph_Driver/src/stm32f4xx_cryp_tdes.c ****   * WITH CODING INFORMATION REGARDING THEIR PRODUCTS IN ORDER FOR THEM TO SAVE
  33:libs/STM32F4xx_StdPeriph_Driver/src/stm32f4xx_cryp_tdes.c ****   * TIME. AS A RESULT, STMICROELECTRONICS SHALL NOT BE HELD LIABLE FOR ANY
  34:libs/STM32F4xx_StdPeriph_Driver/src/stm32f4xx_cryp_tdes.c ****   * DIRECT, INDIRECT OR CONSEQUENTIAL DAMAGES WITH RESPECT TO ANY CLAIMS ARISING
  35:libs/STM32F4xx_StdPeriph_Driver/src/stm32f4xx_cryp_tdes.c ****   * FROM THE CONTENT OF SUCH FIRMWARE AND/OR THE USE MADE BY CUSTOMERS OF THE
  36:libs/STM32F4xx_StdPeriph_Driver/src/stm32f4xx_cryp_tdes.c ****   * CODING INFORMATION CONTAINED HEREIN IN CONNECTION WITH THEIR PRODUCTS.
  37:libs/STM32F4xx_StdPeriph_Driver/src/stm32f4xx_cryp_tdes.c ****   *
  38:libs/STM32F4xx_StdPeriph_Driver/src/stm32f4xx_cryp_tdes.c ****   * <h2><center>&copy; COPYRIGHT 2011 STMicroelectronics</center></h2>
  39:libs/STM32F4xx_StdPeriph_Driver/src/stm32f4xx_cryp_tdes.c ****   ******************************************************************************
  40:libs/STM32F4xx_StdPeriph_Driver/src/stm32f4xx_cryp_tdes.c ****   */ 
  41:libs/STM32F4xx_StdPeriph_Driver/src/stm32f4xx_cryp_tdes.c **** 
  42:libs/STM32F4xx_StdPeriph_Driver/src/stm32f4xx_cryp_tdes.c **** /* Includes ------------------------------------------------------------------*/
  43:libs/STM32F4xx_StdPeriph_Driver/src/stm32f4xx_cryp_tdes.c **** #include "stm32f4xx_cryp.h"
  44:libs/STM32F4xx_StdPeriph_Driver/src/stm32f4xx_cryp_tdes.c **** 
  45:libs/STM32F4xx_StdPeriph_Driver/src/stm32f4xx_cryp_tdes.c **** 
  46:libs/STM32F4xx_StdPeriph_Driver/src/stm32f4xx_cryp_tdes.c **** /** @addtogroup STM32F4xx_StdPeriph_Driver
  47:libs/STM32F4xx_StdPeriph_Driver/src/stm32f4xx_cryp_tdes.c ****   * @{
  48:libs/STM32F4xx_StdPeriph_Driver/src/stm32f4xx_cryp_tdes.c ****   */
  49:libs/STM32F4xx_StdPeriph_Driver/src/stm32f4xx_cryp_tdes.c **** 
  50:libs/STM32F4xx_StdPeriph_Driver/src/stm32f4xx_cryp_tdes.c **** /** @defgroup CRYP 
  51:libs/STM32F4xx_StdPeriph_Driver/src/stm32f4xx_cryp_tdes.c ****   * @brief CRYP driver modules
  52:libs/STM32F4xx_StdPeriph_Driver/src/stm32f4xx_cryp_tdes.c ****   * @{
  53:libs/STM32F4xx_StdPeriph_Driver/src/stm32f4xx_cryp_tdes.c ****   */
  54:libs/STM32F4xx_StdPeriph_Driver/src/stm32f4xx_cryp_tdes.c **** 
  55:libs/STM32F4xx_StdPeriph_Driver/src/stm32f4xx_cryp_tdes.c **** /* Private typedef -----------------------------------------------------------*/
  56:libs/STM32F4xx_StdPeriph_Driver/src/stm32f4xx_cryp_tdes.c **** /* Private define ------------------------------------------------------------*/
  57:libs/STM32F4xx_StdPeriph_Driver/src/stm32f4xx_cryp_tdes.c **** #define TDESBUSY_TIMEOUT    ((uint32_t) 0x00010000)
  58:libs/STM32F4xx_StdPeriph_Driver/src/stm32f4xx_cryp_tdes.c **** 
  59:libs/STM32F4xx_StdPeriph_Driver/src/stm32f4xx_cryp_tdes.c **** /* Private macro -------------------------------------------------------------*/
  60:libs/STM32F4xx_StdPeriph_Driver/src/stm32f4xx_cryp_tdes.c **** /* Private variables ---------------------------------------------------------*/
  61:libs/STM32F4xx_StdPeriph_Driver/src/stm32f4xx_cryp_tdes.c **** /* Private function prototypes -----------------------------------------------*/
  62:libs/STM32F4xx_StdPeriph_Driver/src/stm32f4xx_cryp_tdes.c **** /* Private functions ---------------------------------------------------------*/
  63:libs/STM32F4xx_StdPeriph_Driver/src/stm32f4xx_cryp_tdes.c **** 
  64:libs/STM32F4xx_StdPeriph_Driver/src/stm32f4xx_cryp_tdes.c **** 
  65:libs/STM32F4xx_StdPeriph_Driver/src/stm32f4xx_cryp_tdes.c **** /** @defgroup CRYP_Private_Functions
  66:libs/STM32F4xx_StdPeriph_Driver/src/stm32f4xx_cryp_tdes.c ****   * @{
  67:libs/STM32F4xx_StdPeriph_Driver/src/stm32f4xx_cryp_tdes.c ****   */ 
  68:libs/STM32F4xx_StdPeriph_Driver/src/stm32f4xx_cryp_tdes.c **** 
  69:libs/STM32F4xx_StdPeriph_Driver/src/stm32f4xx_cryp_tdes.c **** /** @defgroup CRYP_Group7 High Level TDES functions
  70:libs/STM32F4xx_StdPeriph_Driver/src/stm32f4xx_cryp_tdes.c ****  *  @brief   High Level TDES functions 
  71:libs/STM32F4xx_StdPeriph_Driver/src/stm32f4xx_cryp_tdes.c ****  *
  72:libs/STM32F4xx_StdPeriph_Driver/src/stm32f4xx_cryp_tdes.c **** @verbatim   
  73:libs/STM32F4xx_StdPeriph_Driver/src/stm32f4xx_cryp_tdes.c ****  ===============================================================================
  74:libs/STM32F4xx_StdPeriph_Driver/src/stm32f4xx_cryp_tdes.c ****                           High Level TDES functions
  75:libs/STM32F4xx_StdPeriph_Driver/src/stm32f4xx_cryp_tdes.c ****  ===============================================================================
  76:libs/STM32F4xx_StdPeriph_Driver/src/stm32f4xx_cryp_tdes.c **** 
  77:libs/STM32F4xx_StdPeriph_Driver/src/stm32f4xx_cryp_tdes.c **** 
  78:libs/STM32F4xx_StdPeriph_Driver/src/stm32f4xx_cryp_tdes.c **** @endverbatim
  79:libs/STM32F4xx_StdPeriph_Driver/src/stm32f4xx_cryp_tdes.c ****   * @{
  80:libs/STM32F4xx_StdPeriph_Driver/src/stm32f4xx_cryp_tdes.c ****   */
  81:libs/STM32F4xx_StdPeriph_Driver/src/stm32f4xx_cryp_tdes.c **** 
  82:libs/STM32F4xx_StdPeriph_Driver/src/stm32f4xx_cryp_tdes.c **** /**
  83:libs/STM32F4xx_StdPeriph_Driver/src/stm32f4xx_cryp_tdes.c ****   * @brief  Encrypt and decrypt using TDES in ECB Mode
  84:libs/STM32F4xx_StdPeriph_Driver/src/stm32f4xx_cryp_tdes.c ****   * @param  Mode: encryption or decryption Mode.
  85:libs/STM32F4xx_StdPeriph_Driver/src/stm32f4xx_cryp_tdes.c ****   *           This parameter can be one of the following values:
  86:libs/STM32F4xx_StdPeriph_Driver/src/stm32f4xx_cryp_tdes.c ****   *            @arg MODE_ENCRYPT: Encryption
  87:libs/STM32F4xx_StdPeriph_Driver/src/stm32f4xx_cryp_tdes.c ****   *            @arg MODE_DECRYPT: Decryption
  88:libs/STM32F4xx_StdPeriph_Driver/src/stm32f4xx_cryp_tdes.c ****   * @param  Key: Key used for TDES algorithm.
  89:libs/STM32F4xx_StdPeriph_Driver/src/stm32f4xx_cryp_tdes.c ****   * @param  Ilength: length of the Input buffer, must be a multiple of 8.
  90:libs/STM32F4xx_StdPeriph_Driver/src/stm32f4xx_cryp_tdes.c ****   * @param  Input: pointer to the Input buffer.
  91:libs/STM32F4xx_StdPeriph_Driver/src/stm32f4xx_cryp_tdes.c ****   * @param  Output: pointer to the returned buffer.
  92:libs/STM32F4xx_StdPeriph_Driver/src/stm32f4xx_cryp_tdes.c ****   * @retval An ErrorStatus enumeration value:
  93:libs/STM32F4xx_StdPeriph_Driver/src/stm32f4xx_cryp_tdes.c ****   *          - SUCCESS: Operation done
  94:libs/STM32F4xx_StdPeriph_Driver/src/stm32f4xx_cryp_tdes.c ****   *          - ERROR: Operation failed
  95:libs/STM32F4xx_StdPeriph_Driver/src/stm32f4xx_cryp_tdes.c ****   */
  96:libs/STM32F4xx_StdPeriph_Driver/src/stm32f4xx_cryp_tdes.c **** ErrorStatus CRYP_TDES_ECB(uint8_t Mode, uint8_t Key[24], uint8_t *Input, 
  97:libs/STM32F4xx_StdPeriph_Driver/src/stm32f4xx_cryp_tdes.c ****                           uint32_t Ilength, uint8_t *Output)
  98:libs/STM32F4xx_StdPeriph_Driver/src/stm32f4xx_cryp_tdes.c **** {
  28              		.loc 1 98 0
  29              		.cfi_startproc
  30              		@ args = 4, pretend = 0, frame = 136
  31              		@ frame_needed = 1, uses_anonymous_args = 0
  32 0000 90B5     		push	{r4, r7, lr}
  33              	.LCFI0:
  34              		.cfi_def_cfa_offset 12
  35              		.cfi_offset 4, -12
  36              		.cfi_offset 7, -8
  37              		.cfi_offset 14, -4
  38 0002 A3B0     		sub	sp, sp, #140
  39              	.LCFI1:
  40              		.cfi_def_cfa_offset 152
  41 0004 00AF     		add	r7, sp, #0
  42              	.LCFI2:
  43              		.cfi_def_cfa_register 7
  44 0006 B960     		str	r1, [r7, #8]
  45 0008 7A60     		str	r2, [r7, #4]
  46 000a 3B60     		str	r3, [r7]
  47 000c 0346     		mov	r3, r0
  48 000e FB73     		strb	r3, [r7, #15]
  99:libs/STM32F4xx_StdPeriph_Driver/src/stm32f4xx_cryp_tdes.c ****   CRYP_InitTypeDef TDES_CRYP_InitStructure;
 100:libs/STM32F4xx_StdPeriph_Driver/src/stm32f4xx_cryp_tdes.c ****   CRYP_KeyInitTypeDef TDES_CRYP_KeyInitStructure;
 101:libs/STM32F4xx_StdPeriph_Driver/src/stm32f4xx_cryp_tdes.c ****   __IO uint32_t counter = 0;
  49              		.loc 1 101 0
  50 0010 0023     		movs	r3, #0
  51 0012 7B61     		str	r3, [r7, #20]
 102:libs/STM32F4xx_StdPeriph_Driver/src/stm32f4xx_cryp_tdes.c ****   uint32_t busystatus = 0;
  52              		.loc 1 102 0
  53 0014 0023     		movs	r3, #0
  54 0016 7B67     		str	r3, [r7, #116]
 103:libs/STM32F4xx_StdPeriph_Driver/src/stm32f4xx_cryp_tdes.c ****   ErrorStatus status = SUCCESS;
  55              		.loc 1 103 0
  56 0018 0123     		movs	r3, #1
  57 001a 87F88730 		strb	r3, [r7, #135]
 104:libs/STM32F4xx_StdPeriph_Driver/src/stm32f4xx_cryp_tdes.c ****   uint32_t keyaddr    = (uint32_t)Key;
  58              		.loc 1 104 0
  59 001e BB68     		ldr	r3, [r7, #8]
  60 0020 3B67     		str	r3, [r7, #112]
 105:libs/STM32F4xx_StdPeriph_Driver/src/stm32f4xx_cryp_tdes.c ****   uint32_t inputaddr  = (uint32_t)Input;
  61              		.loc 1 105 0
  62 0022 7B68     		ldr	r3, [r7, #4]
  63 0024 C7F88030 		str	r3, [r7, #128]
 106:libs/STM32F4xx_StdPeriph_Driver/src/stm32f4xx_cryp_tdes.c ****   uint32_t outputaddr = (uint32_t)Output;
  64              		.loc 1 106 0
  65 0028 D7F89830 		ldr	r3, [r7, #152]
  66 002c FB67     		str	r3, [r7, #124]
 107:libs/STM32F4xx_StdPeriph_Driver/src/stm32f4xx_cryp_tdes.c ****   uint32_t i = 0;
  67              		.loc 1 107 0
  68 002e 0023     		movs	r3, #0
  69 0030 BB67     		str	r3, [r7, #120]
 108:libs/STM32F4xx_StdPeriph_Driver/src/stm32f4xx_cryp_tdes.c **** 
 109:libs/STM32F4xx_StdPeriph_Driver/src/stm32f4xx_cryp_tdes.c ****   /* Crypto structures initialisation*/
 110:libs/STM32F4xx_StdPeriph_Driver/src/stm32f4xx_cryp_tdes.c ****   CRYP_KeyStructInit(&TDES_CRYP_KeyInitStructure);
  70              		.loc 1 110 0
  71 0032 07F11803 		add	r3, r7, #24
  72 0036 1846     		mov	r0, r3
  73 0038 FFF7FEFF 		bl	CRYP_KeyStructInit
 111:libs/STM32F4xx_StdPeriph_Driver/src/stm32f4xx_cryp_tdes.c **** 
 112:libs/STM32F4xx_StdPeriph_Driver/src/stm32f4xx_cryp_tdes.c ****   /* Crypto Init for Encryption process */
 113:libs/STM32F4xx_StdPeriph_Driver/src/stm32f4xx_cryp_tdes.c ****   if(Mode == MODE_ENCRYPT) /* TDES encryption */
  74              		.loc 1 113 0
  75 003c FB7B     		ldrb	r3, [r7, #15]	@ zero_extendqisi2
  76 003e 012B     		cmp	r3, #1
  77 0040 02D1     		bne	.L2
 114:libs/STM32F4xx_StdPeriph_Driver/src/stm32f4xx_cryp_tdes.c ****   {
 115:libs/STM32F4xx_StdPeriph_Driver/src/stm32f4xx_cryp_tdes.c ****      TDES_CRYP_InitStructure.CRYP_AlgoDir = CRYP_AlgoDir_Encrypt;
  78              		.loc 1 115 0
  79 0042 0023     		movs	r3, #0
  80 0044 3B87     		strh	r3, [r7, #56]	@ movhi
  81 0046 01E0     		b	.L3
  82              	.L2:
 116:libs/STM32F4xx_StdPeriph_Driver/src/stm32f4xx_cryp_tdes.c ****   }
 117:libs/STM32F4xx_StdPeriph_Driver/src/stm32f4xx_cryp_tdes.c ****   else /*if(Mode == MODE_DECRYPT)*/ /* TDES decryption */
 118:libs/STM32F4xx_StdPeriph_Driver/src/stm32f4xx_cryp_tdes.c ****   {
 119:libs/STM32F4xx_StdPeriph_Driver/src/stm32f4xx_cryp_tdes.c ****      TDES_CRYP_InitStructure.CRYP_AlgoDir = CRYP_AlgoDir_Decrypt;
  83              		.loc 1 119 0
  84 0048 0423     		movs	r3, #4
  85 004a 3B87     		strh	r3, [r7, #56]	@ movhi
  86              	.L3:
 120:libs/STM32F4xx_StdPeriph_Driver/src/stm32f4xx_cryp_tdes.c ****   }
 121:libs/STM32F4xx_StdPeriph_Driver/src/stm32f4xx_cryp_tdes.c **** 
 122:libs/STM32F4xx_StdPeriph_Driver/src/stm32f4xx_cryp_tdes.c ****   TDES_CRYP_InitStructure.CRYP_AlgoMode = CRYP_AlgoMode_TDES_ECB;
  87              		.loc 1 122 0
  88 004c 0023     		movs	r3, #0
  89 004e 7B87     		strh	r3, [r7, #58]	@ movhi
 123:libs/STM32F4xx_StdPeriph_Driver/src/stm32f4xx_cryp_tdes.c ****   TDES_CRYP_InitStructure.CRYP_DataType = CRYP_DataType_8b;
  90              		.loc 1 123 0
  91 0050 8023     		movs	r3, #128
  92 0052 BB87     		strh	r3, [r7, #60]	@ movhi
 124:libs/STM32F4xx_StdPeriph_Driver/src/stm32f4xx_cryp_tdes.c ****   CRYP_Init(&TDES_CRYP_InitStructure);
  93              		.loc 1 124 0
  94 0054 07F13803 		add	r3, r7, #56
  95 0058 1846     		mov	r0, r3
  96 005a FFF7FEFF 		bl	CRYP_Init
 125:libs/STM32F4xx_StdPeriph_Driver/src/stm32f4xx_cryp_tdes.c **** 
 126:libs/STM32F4xx_StdPeriph_Driver/src/stm32f4xx_cryp_tdes.c ****   /* Key Initialisation */
 127:libs/STM32F4xx_StdPeriph_Driver/src/stm32f4xx_cryp_tdes.c ****   TDES_CRYP_KeyInitStructure.CRYP_Key1Left = __REV(*(uint32_t*)(keyaddr));
  97              		.loc 1 127 0
  98 005e 3B6F     		ldr	r3, [r7, #112]
  99 0060 1B68     		ldr	r3, [r3]
 100 0062 FB66     		str	r3, [r7, #108]
 101              	.LBB30:
 102              	.LBB31:
 103              		.file 2 "libs/CMSIS/Include/core_cmInstr.h"
   1:libs/CMSIS/Include/core_cmInstr.h **** /**************************************************************************//**
   2:libs/CMSIS/Include/core_cmInstr.h ****  * @file     core_cmInstr.h
   3:libs/CMSIS/Include/core_cmInstr.h ****  * @brief    CMSIS Cortex-M Core Instruction Access Header File
   4:libs/CMSIS/Include/core_cmInstr.h ****  * @version  V2.10
   5:libs/CMSIS/Include/core_cmInstr.h ****  * @date     19. July 2011
   6:libs/CMSIS/Include/core_cmInstr.h ****  *
   7:libs/CMSIS/Include/core_cmInstr.h ****  * @note
   8:libs/CMSIS/Include/core_cmInstr.h ****  * Copyright (C) 2009-2011 ARM Limited. All rights reserved.
   9:libs/CMSIS/Include/core_cmInstr.h ****  *
  10:libs/CMSIS/Include/core_cmInstr.h ****  * @par
  11:libs/CMSIS/Include/core_cmInstr.h ****  * ARM Limited (ARM) is supplying this software for use with Cortex-M 
  12:libs/CMSIS/Include/core_cmInstr.h ****  * processor based microcontrollers.  This file can be freely distributed 
  13:libs/CMSIS/Include/core_cmInstr.h ****  * within development tools that are supporting such ARM based processors. 
  14:libs/CMSIS/Include/core_cmInstr.h ****  *
  15:libs/CMSIS/Include/core_cmInstr.h ****  * @par
  16:libs/CMSIS/Include/core_cmInstr.h ****  * THIS SOFTWARE IS PROVIDED "AS IS".  NO WARRANTIES, WHETHER EXPRESS, IMPLIED
  17:libs/CMSIS/Include/core_cmInstr.h ****  * OR STATUTORY, INCLUDING, BUT NOT LIMITED TO, IMPLIED WARRANTIES OF
  18:libs/CMSIS/Include/core_cmInstr.h ****  * MERCHANTABILITY AND FITNESS FOR A PARTICULAR PURPOSE APPLY TO THIS SOFTWARE.
  19:libs/CMSIS/Include/core_cmInstr.h ****  * ARM SHALL NOT, IN ANY CIRCUMSTANCES, BE LIABLE FOR SPECIAL, INCIDENTAL, OR
  20:libs/CMSIS/Include/core_cmInstr.h ****  * CONSEQUENTIAL DAMAGES, FOR ANY REASON WHATSOEVER.
  21:libs/CMSIS/Include/core_cmInstr.h ****  *
  22:libs/CMSIS/Include/core_cmInstr.h ****  ******************************************************************************/
  23:libs/CMSIS/Include/core_cmInstr.h **** 
  24:libs/CMSIS/Include/core_cmInstr.h **** #ifndef __CORE_CMINSTR_H
  25:libs/CMSIS/Include/core_cmInstr.h **** #define __CORE_CMINSTR_H
  26:libs/CMSIS/Include/core_cmInstr.h **** 
  27:libs/CMSIS/Include/core_cmInstr.h **** 
  28:libs/CMSIS/Include/core_cmInstr.h **** /* ##########################  Core Instruction Access  ######################### */
  29:libs/CMSIS/Include/core_cmInstr.h **** /** \defgroup CMSIS_Core_InstructionInterface CMSIS Core Instruction Interface
  30:libs/CMSIS/Include/core_cmInstr.h ****   Access to dedicated instructions
  31:libs/CMSIS/Include/core_cmInstr.h ****   @{
  32:libs/CMSIS/Include/core_cmInstr.h **** */
  33:libs/CMSIS/Include/core_cmInstr.h **** 
  34:libs/CMSIS/Include/core_cmInstr.h **** #if   defined ( __CC_ARM ) /*------------------RealView Compiler -----------------*/
  35:libs/CMSIS/Include/core_cmInstr.h **** /* ARM armcc specific functions */
  36:libs/CMSIS/Include/core_cmInstr.h **** 
  37:libs/CMSIS/Include/core_cmInstr.h **** #if (__ARMCC_VERSION < 400677)
  38:libs/CMSIS/Include/core_cmInstr.h ****   #error "Please use ARM Compiler Toolchain V4.0.677 or later!"
  39:libs/CMSIS/Include/core_cmInstr.h **** #endif
  40:libs/CMSIS/Include/core_cmInstr.h **** 
  41:libs/CMSIS/Include/core_cmInstr.h **** 
  42:libs/CMSIS/Include/core_cmInstr.h **** /** \brief  No Operation
  43:libs/CMSIS/Include/core_cmInstr.h **** 
  44:libs/CMSIS/Include/core_cmInstr.h ****     No Operation does nothing. This instruction can be used for code alignment purposes.
  45:libs/CMSIS/Include/core_cmInstr.h ****  */
  46:libs/CMSIS/Include/core_cmInstr.h **** #define __NOP                             __nop
  47:libs/CMSIS/Include/core_cmInstr.h **** 
  48:libs/CMSIS/Include/core_cmInstr.h **** 
  49:libs/CMSIS/Include/core_cmInstr.h **** /** \brief  Wait For Interrupt
  50:libs/CMSIS/Include/core_cmInstr.h **** 
  51:libs/CMSIS/Include/core_cmInstr.h ****     Wait For Interrupt is a hint instruction that suspends execution
  52:libs/CMSIS/Include/core_cmInstr.h ****     until one of a number of events occurs.
  53:libs/CMSIS/Include/core_cmInstr.h ****  */
  54:libs/CMSIS/Include/core_cmInstr.h **** #define __WFI                             __wfi
  55:libs/CMSIS/Include/core_cmInstr.h **** 
  56:libs/CMSIS/Include/core_cmInstr.h **** 
  57:libs/CMSIS/Include/core_cmInstr.h **** /** \brief  Wait For Event
  58:libs/CMSIS/Include/core_cmInstr.h **** 
  59:libs/CMSIS/Include/core_cmInstr.h ****     Wait For Event is a hint instruction that permits the processor to enter
  60:libs/CMSIS/Include/core_cmInstr.h ****     a low-power state until one of a number of events occurs.
  61:libs/CMSIS/Include/core_cmInstr.h ****  */
  62:libs/CMSIS/Include/core_cmInstr.h **** #define __WFE                             __wfe
  63:libs/CMSIS/Include/core_cmInstr.h **** 
  64:libs/CMSIS/Include/core_cmInstr.h **** 
  65:libs/CMSIS/Include/core_cmInstr.h **** /** \brief  Send Event
  66:libs/CMSIS/Include/core_cmInstr.h **** 
  67:libs/CMSIS/Include/core_cmInstr.h ****     Send Event is a hint instruction. It causes an event to be signaled to the CPU.
  68:libs/CMSIS/Include/core_cmInstr.h ****  */
  69:libs/CMSIS/Include/core_cmInstr.h **** #define __SEV                             __sev
  70:libs/CMSIS/Include/core_cmInstr.h **** 
  71:libs/CMSIS/Include/core_cmInstr.h **** 
  72:libs/CMSIS/Include/core_cmInstr.h **** /** \brief  Instruction Synchronization Barrier
  73:libs/CMSIS/Include/core_cmInstr.h **** 
  74:libs/CMSIS/Include/core_cmInstr.h ****     Instruction Synchronization Barrier flushes the pipeline in the processor, 
  75:libs/CMSIS/Include/core_cmInstr.h ****     so that all instructions following the ISB are fetched from cache or 
  76:libs/CMSIS/Include/core_cmInstr.h ****     memory, after the instruction has been completed.
  77:libs/CMSIS/Include/core_cmInstr.h ****  */
  78:libs/CMSIS/Include/core_cmInstr.h **** #define __ISB()                           __isb(0xF)
  79:libs/CMSIS/Include/core_cmInstr.h **** 
  80:libs/CMSIS/Include/core_cmInstr.h **** 
  81:libs/CMSIS/Include/core_cmInstr.h **** /** \brief  Data Synchronization Barrier
  82:libs/CMSIS/Include/core_cmInstr.h **** 
  83:libs/CMSIS/Include/core_cmInstr.h ****     This function acts as a special kind of Data Memory Barrier. 
  84:libs/CMSIS/Include/core_cmInstr.h ****     It completes when all explicit memory accesses before this instruction complete.
  85:libs/CMSIS/Include/core_cmInstr.h ****  */
  86:libs/CMSIS/Include/core_cmInstr.h **** #define __DSB()                           __dsb(0xF)
  87:libs/CMSIS/Include/core_cmInstr.h **** 
  88:libs/CMSIS/Include/core_cmInstr.h **** 
  89:libs/CMSIS/Include/core_cmInstr.h **** /** \brief  Data Memory Barrier
  90:libs/CMSIS/Include/core_cmInstr.h **** 
  91:libs/CMSIS/Include/core_cmInstr.h ****     This function ensures the apparent order of the explicit memory operations before 
  92:libs/CMSIS/Include/core_cmInstr.h ****     and after the instruction, without ensuring their completion.
  93:libs/CMSIS/Include/core_cmInstr.h ****  */
  94:libs/CMSIS/Include/core_cmInstr.h **** #define __DMB()                           __dmb(0xF)
  95:libs/CMSIS/Include/core_cmInstr.h **** 
  96:libs/CMSIS/Include/core_cmInstr.h **** 
  97:libs/CMSIS/Include/core_cmInstr.h **** /** \brief  Reverse byte order (32 bit)
  98:libs/CMSIS/Include/core_cmInstr.h **** 
  99:libs/CMSIS/Include/core_cmInstr.h ****     This function reverses the byte order in integer value.
 100:libs/CMSIS/Include/core_cmInstr.h **** 
 101:libs/CMSIS/Include/core_cmInstr.h ****     \param [in]    value  Value to reverse
 102:libs/CMSIS/Include/core_cmInstr.h ****     \return               Reversed value
 103:libs/CMSIS/Include/core_cmInstr.h ****  */
 104:libs/CMSIS/Include/core_cmInstr.h **** #define __REV                             __rev
 105:libs/CMSIS/Include/core_cmInstr.h **** 
 106:libs/CMSIS/Include/core_cmInstr.h **** 
 107:libs/CMSIS/Include/core_cmInstr.h **** /** \brief  Reverse byte order (16 bit)
 108:libs/CMSIS/Include/core_cmInstr.h **** 
 109:libs/CMSIS/Include/core_cmInstr.h ****     This function reverses the byte order in two unsigned short values.
 110:libs/CMSIS/Include/core_cmInstr.h **** 
 111:libs/CMSIS/Include/core_cmInstr.h ****     \param [in]    value  Value to reverse
 112:libs/CMSIS/Include/core_cmInstr.h ****     \return               Reversed value
 113:libs/CMSIS/Include/core_cmInstr.h ****  */
 114:libs/CMSIS/Include/core_cmInstr.h **** static __INLINE __ASM uint32_t __REV16(uint32_t value)
 115:libs/CMSIS/Include/core_cmInstr.h **** {
 116:libs/CMSIS/Include/core_cmInstr.h ****   rev16 r0, r0
 117:libs/CMSIS/Include/core_cmInstr.h ****   bx lr
 118:libs/CMSIS/Include/core_cmInstr.h **** }
 119:libs/CMSIS/Include/core_cmInstr.h **** 
 120:libs/CMSIS/Include/core_cmInstr.h **** 
 121:libs/CMSIS/Include/core_cmInstr.h **** /** \brief  Reverse byte order in signed short value
 122:libs/CMSIS/Include/core_cmInstr.h **** 
 123:libs/CMSIS/Include/core_cmInstr.h ****     This function reverses the byte order in a signed short value with sign extension to integer.
 124:libs/CMSIS/Include/core_cmInstr.h **** 
 125:libs/CMSIS/Include/core_cmInstr.h ****     \param [in]    value  Value to reverse
 126:libs/CMSIS/Include/core_cmInstr.h ****     \return               Reversed value
 127:libs/CMSIS/Include/core_cmInstr.h ****  */
 128:libs/CMSIS/Include/core_cmInstr.h **** static __INLINE __ASM int32_t __REVSH(int32_t value)
 129:libs/CMSIS/Include/core_cmInstr.h **** {
 130:libs/CMSIS/Include/core_cmInstr.h ****   revsh r0, r0
 131:libs/CMSIS/Include/core_cmInstr.h ****   bx lr
 132:libs/CMSIS/Include/core_cmInstr.h **** }
 133:libs/CMSIS/Include/core_cmInstr.h **** 
 134:libs/CMSIS/Include/core_cmInstr.h **** 
 135:libs/CMSIS/Include/core_cmInstr.h **** #if       (__CORTEX_M >= 0x03)
 136:libs/CMSIS/Include/core_cmInstr.h **** 
 137:libs/CMSIS/Include/core_cmInstr.h **** /** \brief  Reverse bit order of value
 138:libs/CMSIS/Include/core_cmInstr.h **** 
 139:libs/CMSIS/Include/core_cmInstr.h ****     This function reverses the bit order of the given value.
 140:libs/CMSIS/Include/core_cmInstr.h **** 
 141:libs/CMSIS/Include/core_cmInstr.h ****     \param [in]    value  Value to reverse
 142:libs/CMSIS/Include/core_cmInstr.h ****     \return               Reversed value
 143:libs/CMSIS/Include/core_cmInstr.h ****  */
 144:libs/CMSIS/Include/core_cmInstr.h **** #define __RBIT                            __rbit
 145:libs/CMSIS/Include/core_cmInstr.h **** 
 146:libs/CMSIS/Include/core_cmInstr.h **** 
 147:libs/CMSIS/Include/core_cmInstr.h **** /** \brief  LDR Exclusive (8 bit)
 148:libs/CMSIS/Include/core_cmInstr.h **** 
 149:libs/CMSIS/Include/core_cmInstr.h ****     This function performs a exclusive LDR command for 8 bit value.
 150:libs/CMSIS/Include/core_cmInstr.h **** 
 151:libs/CMSIS/Include/core_cmInstr.h ****     \param [in]    ptr  Pointer to data
 152:libs/CMSIS/Include/core_cmInstr.h ****     \return             value of type uint8_t at (*ptr)
 153:libs/CMSIS/Include/core_cmInstr.h ****  */
 154:libs/CMSIS/Include/core_cmInstr.h **** #define __LDREXB(ptr)                     ((uint8_t ) __ldrex(ptr))
 155:libs/CMSIS/Include/core_cmInstr.h **** 
 156:libs/CMSIS/Include/core_cmInstr.h **** 
 157:libs/CMSIS/Include/core_cmInstr.h **** /** \brief  LDR Exclusive (16 bit)
 158:libs/CMSIS/Include/core_cmInstr.h **** 
 159:libs/CMSIS/Include/core_cmInstr.h ****     This function performs a exclusive LDR command for 16 bit values.
 160:libs/CMSIS/Include/core_cmInstr.h **** 
 161:libs/CMSIS/Include/core_cmInstr.h ****     \param [in]    ptr  Pointer to data
 162:libs/CMSIS/Include/core_cmInstr.h ****     \return        value of type uint16_t at (*ptr)
 163:libs/CMSIS/Include/core_cmInstr.h ****  */
 164:libs/CMSIS/Include/core_cmInstr.h **** #define __LDREXH(ptr)                     ((uint16_t) __ldrex(ptr))
 165:libs/CMSIS/Include/core_cmInstr.h **** 
 166:libs/CMSIS/Include/core_cmInstr.h **** 
 167:libs/CMSIS/Include/core_cmInstr.h **** /** \brief  LDR Exclusive (32 bit)
 168:libs/CMSIS/Include/core_cmInstr.h **** 
 169:libs/CMSIS/Include/core_cmInstr.h ****     This function performs a exclusive LDR command for 32 bit values.
 170:libs/CMSIS/Include/core_cmInstr.h **** 
 171:libs/CMSIS/Include/core_cmInstr.h ****     \param [in]    ptr  Pointer to data
 172:libs/CMSIS/Include/core_cmInstr.h ****     \return        value of type uint32_t at (*ptr)
 173:libs/CMSIS/Include/core_cmInstr.h ****  */
 174:libs/CMSIS/Include/core_cmInstr.h **** #define __LDREXW(ptr)                     ((uint32_t ) __ldrex(ptr))
 175:libs/CMSIS/Include/core_cmInstr.h **** 
 176:libs/CMSIS/Include/core_cmInstr.h **** 
 177:libs/CMSIS/Include/core_cmInstr.h **** /** \brief  STR Exclusive (8 bit)
 178:libs/CMSIS/Include/core_cmInstr.h **** 
 179:libs/CMSIS/Include/core_cmInstr.h ****     This function performs a exclusive STR command for 8 bit values.
 180:libs/CMSIS/Include/core_cmInstr.h **** 
 181:libs/CMSIS/Include/core_cmInstr.h ****     \param [in]  value  Value to store
 182:libs/CMSIS/Include/core_cmInstr.h ****     \param [in]    ptr  Pointer to location
 183:libs/CMSIS/Include/core_cmInstr.h ****     \return          0  Function succeeded
 184:libs/CMSIS/Include/core_cmInstr.h ****     \return          1  Function failed
 185:libs/CMSIS/Include/core_cmInstr.h ****  */
 186:libs/CMSIS/Include/core_cmInstr.h **** #define __STREXB(value, ptr)              __strex(value, ptr)
 187:libs/CMSIS/Include/core_cmInstr.h **** 
 188:libs/CMSIS/Include/core_cmInstr.h **** 
 189:libs/CMSIS/Include/core_cmInstr.h **** /** \brief  STR Exclusive (16 bit)
 190:libs/CMSIS/Include/core_cmInstr.h **** 
 191:libs/CMSIS/Include/core_cmInstr.h ****     This function performs a exclusive STR command for 16 bit values.
 192:libs/CMSIS/Include/core_cmInstr.h **** 
 193:libs/CMSIS/Include/core_cmInstr.h ****     \param [in]  value  Value to store
 194:libs/CMSIS/Include/core_cmInstr.h ****     \param [in]    ptr  Pointer to location
 195:libs/CMSIS/Include/core_cmInstr.h ****     \return          0  Function succeeded
 196:libs/CMSIS/Include/core_cmInstr.h ****     \return          1  Function failed
 197:libs/CMSIS/Include/core_cmInstr.h ****  */
 198:libs/CMSIS/Include/core_cmInstr.h **** #define __STREXH(value, ptr)              __strex(value, ptr)
 199:libs/CMSIS/Include/core_cmInstr.h **** 
 200:libs/CMSIS/Include/core_cmInstr.h **** 
 201:libs/CMSIS/Include/core_cmInstr.h **** /** \brief  STR Exclusive (32 bit)
 202:libs/CMSIS/Include/core_cmInstr.h **** 
 203:libs/CMSIS/Include/core_cmInstr.h ****     This function performs a exclusive STR command for 32 bit values.
 204:libs/CMSIS/Include/core_cmInstr.h **** 
 205:libs/CMSIS/Include/core_cmInstr.h ****     \param [in]  value  Value to store
 206:libs/CMSIS/Include/core_cmInstr.h ****     \param [in]    ptr  Pointer to location
 207:libs/CMSIS/Include/core_cmInstr.h ****     \return          0  Function succeeded
 208:libs/CMSIS/Include/core_cmInstr.h ****     \return          1  Function failed
 209:libs/CMSIS/Include/core_cmInstr.h ****  */
 210:libs/CMSIS/Include/core_cmInstr.h **** #define __STREXW(value, ptr)              __strex(value, ptr)
 211:libs/CMSIS/Include/core_cmInstr.h **** 
 212:libs/CMSIS/Include/core_cmInstr.h **** 
 213:libs/CMSIS/Include/core_cmInstr.h **** /** \brief  Remove the exclusive lock
 214:libs/CMSIS/Include/core_cmInstr.h **** 
 215:libs/CMSIS/Include/core_cmInstr.h ****     This function removes the exclusive lock which is created by LDREX.
 216:libs/CMSIS/Include/core_cmInstr.h **** 
 217:libs/CMSIS/Include/core_cmInstr.h ****  */
 218:libs/CMSIS/Include/core_cmInstr.h **** #define __CLREX                           __clrex
 219:libs/CMSIS/Include/core_cmInstr.h **** 
 220:libs/CMSIS/Include/core_cmInstr.h **** 
 221:libs/CMSIS/Include/core_cmInstr.h **** /** \brief  Signed Saturate
 222:libs/CMSIS/Include/core_cmInstr.h **** 
 223:libs/CMSIS/Include/core_cmInstr.h ****     This function saturates a signed value.
 224:libs/CMSIS/Include/core_cmInstr.h **** 
 225:libs/CMSIS/Include/core_cmInstr.h ****     \param [in]  value  Value to be saturated
 226:libs/CMSIS/Include/core_cmInstr.h ****     \param [in]    sat  Bit position to saturate to (1..32)
 227:libs/CMSIS/Include/core_cmInstr.h ****     \return             Saturated value
 228:libs/CMSIS/Include/core_cmInstr.h ****  */
 229:libs/CMSIS/Include/core_cmInstr.h **** #define __SSAT                            __ssat
 230:libs/CMSIS/Include/core_cmInstr.h **** 
 231:libs/CMSIS/Include/core_cmInstr.h **** 
 232:libs/CMSIS/Include/core_cmInstr.h **** /** \brief  Unsigned Saturate
 233:libs/CMSIS/Include/core_cmInstr.h **** 
 234:libs/CMSIS/Include/core_cmInstr.h ****     This function saturates an unsigned value.
 235:libs/CMSIS/Include/core_cmInstr.h **** 
 236:libs/CMSIS/Include/core_cmInstr.h ****     \param [in]  value  Value to be saturated
 237:libs/CMSIS/Include/core_cmInstr.h ****     \param [in]    sat  Bit position to saturate to (0..31)
 238:libs/CMSIS/Include/core_cmInstr.h ****     \return             Saturated value
 239:libs/CMSIS/Include/core_cmInstr.h ****  */
 240:libs/CMSIS/Include/core_cmInstr.h **** #define __USAT                            __usat
 241:libs/CMSIS/Include/core_cmInstr.h **** 
 242:libs/CMSIS/Include/core_cmInstr.h **** 
 243:libs/CMSIS/Include/core_cmInstr.h **** /** \brief  Count leading zeros
 244:libs/CMSIS/Include/core_cmInstr.h **** 
 245:libs/CMSIS/Include/core_cmInstr.h ****     This function counts the number of leading zeros of a data value.
 246:libs/CMSIS/Include/core_cmInstr.h **** 
 247:libs/CMSIS/Include/core_cmInstr.h ****     \param [in]  value  Value to count the leading zeros
 248:libs/CMSIS/Include/core_cmInstr.h ****     \return             number of leading zeros in value
 249:libs/CMSIS/Include/core_cmInstr.h ****  */
 250:libs/CMSIS/Include/core_cmInstr.h **** #define __CLZ                             __clz 
 251:libs/CMSIS/Include/core_cmInstr.h **** 
 252:libs/CMSIS/Include/core_cmInstr.h **** #endif /* (__CORTEX_M >= 0x03) */
 253:libs/CMSIS/Include/core_cmInstr.h **** 
 254:libs/CMSIS/Include/core_cmInstr.h **** 
 255:libs/CMSIS/Include/core_cmInstr.h **** 
 256:libs/CMSIS/Include/core_cmInstr.h **** #elif defined ( __ICCARM__ ) /*------------------ ICC Compiler -------------------*/
 257:libs/CMSIS/Include/core_cmInstr.h **** /* IAR iccarm specific functions */
 258:libs/CMSIS/Include/core_cmInstr.h **** 
 259:libs/CMSIS/Include/core_cmInstr.h **** #include <cmsis_iar.h>
 260:libs/CMSIS/Include/core_cmInstr.h **** 
 261:libs/CMSIS/Include/core_cmInstr.h **** 
 262:libs/CMSIS/Include/core_cmInstr.h **** #elif defined ( __GNUC__ ) /*------------------ GNU Compiler ---------------------*/
 263:libs/CMSIS/Include/core_cmInstr.h **** /* GNU gcc specific functions */
 264:libs/CMSIS/Include/core_cmInstr.h **** 
 265:libs/CMSIS/Include/core_cmInstr.h **** /** \brief  No Operation
 266:libs/CMSIS/Include/core_cmInstr.h **** 
 267:libs/CMSIS/Include/core_cmInstr.h ****     No Operation does nothing. This instruction can be used for code alignment purposes.
 268:libs/CMSIS/Include/core_cmInstr.h ****  */
 269:libs/CMSIS/Include/core_cmInstr.h **** __attribute__( ( always_inline ) ) static __INLINE void __NOP(void)
 270:libs/CMSIS/Include/core_cmInstr.h **** {
 271:libs/CMSIS/Include/core_cmInstr.h ****   __ASM volatile ("nop");
 272:libs/CMSIS/Include/core_cmInstr.h **** }
 273:libs/CMSIS/Include/core_cmInstr.h **** 
 274:libs/CMSIS/Include/core_cmInstr.h **** 
 275:libs/CMSIS/Include/core_cmInstr.h **** /** \brief  Wait For Interrupt
 276:libs/CMSIS/Include/core_cmInstr.h **** 
 277:libs/CMSIS/Include/core_cmInstr.h ****     Wait For Interrupt is a hint instruction that suspends execution
 278:libs/CMSIS/Include/core_cmInstr.h ****     until one of a number of events occurs.
 279:libs/CMSIS/Include/core_cmInstr.h ****  */
 280:libs/CMSIS/Include/core_cmInstr.h **** __attribute__( ( always_inline ) ) static __INLINE void __WFI(void)
 281:libs/CMSIS/Include/core_cmInstr.h **** {
 282:libs/CMSIS/Include/core_cmInstr.h ****   __ASM volatile ("wfi");
 283:libs/CMSIS/Include/core_cmInstr.h **** }
 284:libs/CMSIS/Include/core_cmInstr.h **** 
 285:libs/CMSIS/Include/core_cmInstr.h **** 
 286:libs/CMSIS/Include/core_cmInstr.h **** /** \brief  Wait For Event
 287:libs/CMSIS/Include/core_cmInstr.h **** 
 288:libs/CMSIS/Include/core_cmInstr.h ****     Wait For Event is a hint instruction that permits the processor to enter
 289:libs/CMSIS/Include/core_cmInstr.h ****     a low-power state until one of a number of events occurs.
 290:libs/CMSIS/Include/core_cmInstr.h ****  */
 291:libs/CMSIS/Include/core_cmInstr.h **** __attribute__( ( always_inline ) ) static __INLINE void __WFE(void)
 292:libs/CMSIS/Include/core_cmInstr.h **** {
 293:libs/CMSIS/Include/core_cmInstr.h ****   __ASM volatile ("wfe");
 294:libs/CMSIS/Include/core_cmInstr.h **** }
 295:libs/CMSIS/Include/core_cmInstr.h **** 
 296:libs/CMSIS/Include/core_cmInstr.h **** 
 297:libs/CMSIS/Include/core_cmInstr.h **** /** \brief  Send Event
 298:libs/CMSIS/Include/core_cmInstr.h **** 
 299:libs/CMSIS/Include/core_cmInstr.h ****     Send Event is a hint instruction. It causes an event to be signaled to the CPU.
 300:libs/CMSIS/Include/core_cmInstr.h ****  */
 301:libs/CMSIS/Include/core_cmInstr.h **** __attribute__( ( always_inline ) ) static __INLINE void __SEV(void)
 302:libs/CMSIS/Include/core_cmInstr.h **** {
 303:libs/CMSIS/Include/core_cmInstr.h ****   __ASM volatile ("sev");
 304:libs/CMSIS/Include/core_cmInstr.h **** }
 305:libs/CMSIS/Include/core_cmInstr.h **** 
 306:libs/CMSIS/Include/core_cmInstr.h **** 
 307:libs/CMSIS/Include/core_cmInstr.h **** /** \brief  Instruction Synchronization Barrier
 308:libs/CMSIS/Include/core_cmInstr.h **** 
 309:libs/CMSIS/Include/core_cmInstr.h ****     Instruction Synchronization Barrier flushes the pipeline in the processor, 
 310:libs/CMSIS/Include/core_cmInstr.h ****     so that all instructions following the ISB are fetched from cache or 
 311:libs/CMSIS/Include/core_cmInstr.h ****     memory, after the instruction has been completed.
 312:libs/CMSIS/Include/core_cmInstr.h ****  */
 313:libs/CMSIS/Include/core_cmInstr.h **** __attribute__( ( always_inline ) ) static __INLINE void __ISB(void)
 314:libs/CMSIS/Include/core_cmInstr.h **** {
 315:libs/CMSIS/Include/core_cmInstr.h ****   __ASM volatile ("isb");
 316:libs/CMSIS/Include/core_cmInstr.h **** }
 317:libs/CMSIS/Include/core_cmInstr.h **** 
 318:libs/CMSIS/Include/core_cmInstr.h **** 
 319:libs/CMSIS/Include/core_cmInstr.h **** /** \brief  Data Synchronization Barrier
 320:libs/CMSIS/Include/core_cmInstr.h **** 
 321:libs/CMSIS/Include/core_cmInstr.h ****     This function acts as a special kind of Data Memory Barrier. 
 322:libs/CMSIS/Include/core_cmInstr.h ****     It completes when all explicit memory accesses before this instruction complete.
 323:libs/CMSIS/Include/core_cmInstr.h ****  */
 324:libs/CMSIS/Include/core_cmInstr.h **** __attribute__( ( always_inline ) ) static __INLINE void __DSB(void)
 325:libs/CMSIS/Include/core_cmInstr.h **** {
 326:libs/CMSIS/Include/core_cmInstr.h ****   __ASM volatile ("dsb");
 327:libs/CMSIS/Include/core_cmInstr.h **** }
 328:libs/CMSIS/Include/core_cmInstr.h **** 
 329:libs/CMSIS/Include/core_cmInstr.h **** 
 330:libs/CMSIS/Include/core_cmInstr.h **** /** \brief  Data Memory Barrier
 331:libs/CMSIS/Include/core_cmInstr.h **** 
 332:libs/CMSIS/Include/core_cmInstr.h ****     This function ensures the apparent order of the explicit memory operations before 
 333:libs/CMSIS/Include/core_cmInstr.h ****     and after the instruction, without ensuring their completion.
 334:libs/CMSIS/Include/core_cmInstr.h ****  */
 335:libs/CMSIS/Include/core_cmInstr.h **** __attribute__( ( always_inline ) ) static __INLINE void __DMB(void)
 336:libs/CMSIS/Include/core_cmInstr.h **** {
 337:libs/CMSIS/Include/core_cmInstr.h ****   __ASM volatile ("dmb");
 338:libs/CMSIS/Include/core_cmInstr.h **** }
 339:libs/CMSIS/Include/core_cmInstr.h **** 
 340:libs/CMSIS/Include/core_cmInstr.h **** 
 341:libs/CMSIS/Include/core_cmInstr.h **** /** \brief  Reverse byte order (32 bit)
 342:libs/CMSIS/Include/core_cmInstr.h **** 
 343:libs/CMSIS/Include/core_cmInstr.h ****     This function reverses the byte order in integer value.
 344:libs/CMSIS/Include/core_cmInstr.h **** 
 345:libs/CMSIS/Include/core_cmInstr.h ****     \param [in]    value  Value to reverse
 346:libs/CMSIS/Include/core_cmInstr.h ****     \return               Reversed value
 347:libs/CMSIS/Include/core_cmInstr.h ****  */
 348:libs/CMSIS/Include/core_cmInstr.h **** __attribute__( ( always_inline ) ) static __INLINE uint32_t __REV(uint32_t value)
 349:libs/CMSIS/Include/core_cmInstr.h **** {
 350:libs/CMSIS/Include/core_cmInstr.h ****   uint32_t result;
 351:libs/CMSIS/Include/core_cmInstr.h ****   
 352:libs/CMSIS/Include/core_cmInstr.h ****   __ASM volatile ("rev %0, %1" : "=r" (result) : "r" (value) );
 104              		.loc 2 352 0
 105 0064 FB6E     		ldr	r3, [r7, #108]
 106              	@ 352 "libs/CMSIS/Include/core_cmInstr.h" 1
 107 0066 1BBA     		rev r3, r3
 108              	@ 0 "" 2
 109              		.thumb
 110 0068 BB66     		str	r3, [r7, #104]
 353:libs/CMSIS/Include/core_cmInstr.h ****   return(result);
 111              		.loc 2 353 0
 112 006a BB6E     		ldr	r3, [r7, #104]
 113              	.LBE31:
 114              	.LBE30:
 115              		.loc 1 127 0
 116 006c 3B62     		str	r3, [r7, #32]
 128:libs/STM32F4xx_StdPeriph_Driver/src/stm32f4xx_cryp_tdes.c ****   keyaddr+=4;
 117              		.loc 1 128 0
 118 006e 3B6F     		ldr	r3, [r7, #112]
 119 0070 0433     		adds	r3, r3, #4
 120 0072 3B67     		str	r3, [r7, #112]
 129:libs/STM32F4xx_StdPeriph_Driver/src/stm32f4xx_cryp_tdes.c ****   TDES_CRYP_KeyInitStructure.CRYP_Key1Right= __REV(*(uint32_t*)(keyaddr));
 121              		.loc 1 129 0
 122 0074 3B6F     		ldr	r3, [r7, #112]
 123 0076 1B68     		ldr	r3, [r3]
 124 0078 7B66     		str	r3, [r7, #100]
 125              	.LBB32:
 126              	.LBB33:
 352:libs/CMSIS/Include/core_cmInstr.h ****   __ASM volatile ("rev %0, %1" : "=r" (result) : "r" (value) );
 127              		.loc 2 352 0
 128 007a 7B6E     		ldr	r3, [r7, #100]
 129              	@ 352 "libs/CMSIS/Include/core_cmInstr.h" 1
 130 007c 1BBA     		rev r3, r3
 131              	@ 0 "" 2
 132              		.thumb
 133 007e 3B66     		str	r3, [r7, #96]
 134              		.loc 2 353 0
 135 0080 3B6E     		ldr	r3, [r7, #96]
 136              	.LBE33:
 137              	.LBE32:
 138              		.loc 1 129 0
 139 0082 7B62     		str	r3, [r7, #36]
 130:libs/STM32F4xx_StdPeriph_Driver/src/stm32f4xx_cryp_tdes.c ****   keyaddr+=4;
 140              		.loc 1 130 0
 141 0084 3B6F     		ldr	r3, [r7, #112]
 142 0086 0433     		adds	r3, r3, #4
 143 0088 3B67     		str	r3, [r7, #112]
 131:libs/STM32F4xx_StdPeriph_Driver/src/stm32f4xx_cryp_tdes.c ****   TDES_CRYP_KeyInitStructure.CRYP_Key2Left = __REV(*(uint32_t*)(keyaddr));
 144              		.loc 1 131 0
 145 008a 3B6F     		ldr	r3, [r7, #112]
 146 008c 1B68     		ldr	r3, [r3]
 147 008e FB65     		str	r3, [r7, #92]
 148              	.LBB34:
 149              	.LBB35:
 352:libs/CMSIS/Include/core_cmInstr.h ****   __ASM volatile ("rev %0, %1" : "=r" (result) : "r" (value) );
 150              		.loc 2 352 0
 151 0090 FB6D     		ldr	r3, [r7, #92]
 152              	@ 352 "libs/CMSIS/Include/core_cmInstr.h" 1
 153 0092 1BBA     		rev r3, r3
 154              	@ 0 "" 2
 155              		.thumb
 156 0094 BB65     		str	r3, [r7, #88]
 157              		.loc 2 353 0
 158 0096 BB6D     		ldr	r3, [r7, #88]
 159              	.LBE35:
 160              	.LBE34:
 161              		.loc 1 131 0
 162 0098 BB62     		str	r3, [r7, #40]
 132:libs/STM32F4xx_StdPeriph_Driver/src/stm32f4xx_cryp_tdes.c ****   keyaddr+=4;
 163              		.loc 1 132 0
 164 009a 3B6F     		ldr	r3, [r7, #112]
 165 009c 0433     		adds	r3, r3, #4
 166 009e 3B67     		str	r3, [r7, #112]
 133:libs/STM32F4xx_StdPeriph_Driver/src/stm32f4xx_cryp_tdes.c ****   TDES_CRYP_KeyInitStructure.CRYP_Key2Right= __REV(*(uint32_t*)(keyaddr));
 167              		.loc 1 133 0
 168 00a0 3B6F     		ldr	r3, [r7, #112]
 169 00a2 1B68     		ldr	r3, [r3]
 170 00a4 7B65     		str	r3, [r7, #84]
 171              	.LBB36:
 172              	.LBB37:
 352:libs/CMSIS/Include/core_cmInstr.h ****   __ASM volatile ("rev %0, %1" : "=r" (result) : "r" (value) );
 173              		.loc 2 352 0
 174 00a6 7B6D     		ldr	r3, [r7, #84]
 175              	@ 352 "libs/CMSIS/Include/core_cmInstr.h" 1
 176 00a8 1BBA     		rev r3, r3
 177              	@ 0 "" 2
 178              		.thumb
 179 00aa 3B65     		str	r3, [r7, #80]
 180              		.loc 2 353 0
 181 00ac 3B6D     		ldr	r3, [r7, #80]
 182              	.LBE37:
 183              	.LBE36:
 184              		.loc 1 133 0
 185 00ae FB62     		str	r3, [r7, #44]
 134:libs/STM32F4xx_StdPeriph_Driver/src/stm32f4xx_cryp_tdes.c ****   keyaddr+=4;
 186              		.loc 1 134 0
 187 00b0 3B6F     		ldr	r3, [r7, #112]
 188 00b2 0433     		adds	r3, r3, #4
 189 00b4 3B67     		str	r3, [r7, #112]
 135:libs/STM32F4xx_StdPeriph_Driver/src/stm32f4xx_cryp_tdes.c ****   TDES_CRYP_KeyInitStructure.CRYP_Key3Left = __REV(*(uint32_t*)(keyaddr));
 190              		.loc 1 135 0
 191 00b6 3B6F     		ldr	r3, [r7, #112]
 192 00b8 1B68     		ldr	r3, [r3]
 193 00ba FB64     		str	r3, [r7, #76]
 194              	.LBB38:
 195              	.LBB39:
 352:libs/CMSIS/Include/core_cmInstr.h ****   __ASM volatile ("rev %0, %1" : "=r" (result) : "r" (value) );
 196              		.loc 2 352 0
 197 00bc FB6C     		ldr	r3, [r7, #76]
 198              	@ 352 "libs/CMSIS/Include/core_cmInstr.h" 1
 199 00be 1BBA     		rev r3, r3
 200              	@ 0 "" 2
 201              		.thumb
 202 00c0 BB64     		str	r3, [r7, #72]
 203              		.loc 2 353 0
 204 00c2 BB6C     		ldr	r3, [r7, #72]
 205              	.LBE39:
 206              	.LBE38:
 207              		.loc 1 135 0
 208 00c4 3B63     		str	r3, [r7, #48]
 136:libs/STM32F4xx_StdPeriph_Driver/src/stm32f4xx_cryp_tdes.c ****   keyaddr+=4;
 209              		.loc 1 136 0
 210 00c6 3B6F     		ldr	r3, [r7, #112]
 211 00c8 0433     		adds	r3, r3, #4
 212 00ca 3B67     		str	r3, [r7, #112]
 137:libs/STM32F4xx_StdPeriph_Driver/src/stm32f4xx_cryp_tdes.c ****   TDES_CRYP_KeyInitStructure.CRYP_Key3Right= __REV(*(uint32_t*)(keyaddr));
 213              		.loc 1 137 0
 214 00cc 3B6F     		ldr	r3, [r7, #112]
 215 00ce 1B68     		ldr	r3, [r3]
 216 00d0 7B64     		str	r3, [r7, #68]
 217              	.LBB40:
 218              	.LBB41:
 352:libs/CMSIS/Include/core_cmInstr.h ****   __ASM volatile ("rev %0, %1" : "=r" (result) : "r" (value) );
 219              		.loc 2 352 0
 220 00d2 7B6C     		ldr	r3, [r7, #68]
 221              	@ 352 "libs/CMSIS/Include/core_cmInstr.h" 1
 222 00d4 1BBA     		rev r3, r3
 223              	@ 0 "" 2
 224              		.thumb
 225 00d6 3B64     		str	r3, [r7, #64]
 226              		.loc 2 353 0
 227 00d8 3B6C     		ldr	r3, [r7, #64]
 228              	.LBE41:
 229              	.LBE40:
 230              		.loc 1 137 0
 231 00da 7B63     		str	r3, [r7, #52]
 138:libs/STM32F4xx_StdPeriph_Driver/src/stm32f4xx_cryp_tdes.c ****   CRYP_KeyInit(& TDES_CRYP_KeyInitStructure);
 232              		.loc 1 138 0
 233 00dc 07F11803 		add	r3, r7, #24
 234 00e0 1846     		mov	r0, r3
 235 00e2 FFF7FEFF 		bl	CRYP_KeyInit
 139:libs/STM32F4xx_StdPeriph_Driver/src/stm32f4xx_cryp_tdes.c **** 
 140:libs/STM32F4xx_StdPeriph_Driver/src/stm32f4xx_cryp_tdes.c ****   /* Flush IN/OUT FIFO */
 141:libs/STM32F4xx_StdPeriph_Driver/src/stm32f4xx_cryp_tdes.c ****   CRYP_FIFOFlush();
 236              		.loc 1 141 0
 237 00e6 FFF7FEFF 		bl	CRYP_FIFOFlush
 142:libs/STM32F4xx_StdPeriph_Driver/src/stm32f4xx_cryp_tdes.c **** 
 143:libs/STM32F4xx_StdPeriph_Driver/src/stm32f4xx_cryp_tdes.c ****   /* Enable Crypto processor */
 144:libs/STM32F4xx_StdPeriph_Driver/src/stm32f4xx_cryp_tdes.c ****   CRYP_Cmd(ENABLE);
 238              		.loc 1 144 0
 239 00ea 0120     		movs	r0, #1
 240 00ec FFF7FEFF 		bl	CRYP_Cmd
 145:libs/STM32F4xx_StdPeriph_Driver/src/stm32f4xx_cryp_tdes.c **** 
 146:libs/STM32F4xx_StdPeriph_Driver/src/stm32f4xx_cryp_tdes.c ****   for(i=0; ((i<Ilength) && (status != ERROR)); i+=8)
 241              		.loc 1 146 0
 242 00f0 0023     		movs	r3, #0
 243 00f2 BB67     		str	r3, [r7, #120]
 244 00f4 40E0     		b	.L10
 245              	.L16:
 147:libs/STM32F4xx_StdPeriph_Driver/src/stm32f4xx_cryp_tdes.c ****   {
 148:libs/STM32F4xx_StdPeriph_Driver/src/stm32f4xx_cryp_tdes.c ****     /* Write the Input block in the Input FIFO */
 149:libs/STM32F4xx_StdPeriph_Driver/src/stm32f4xx_cryp_tdes.c ****     CRYP_DataIn(*(uint32_t*)(inputaddr));
 246              		.loc 1 149 0
 247 00f6 D7F88030 		ldr	r3, [r7, #128]
 248 00fa 1B68     		ldr	r3, [r3]
 249 00fc 1846     		mov	r0, r3
 250 00fe FFF7FEFF 		bl	CRYP_DataIn
 150:libs/STM32F4xx_StdPeriph_Driver/src/stm32f4xx_cryp_tdes.c ****     inputaddr+=4;
 251              		.loc 1 150 0
 252 0102 D7F88030 		ldr	r3, [r7, #128]
 253 0106 0433     		adds	r3, r3, #4
 254 0108 C7F88030 		str	r3, [r7, #128]
 151:libs/STM32F4xx_StdPeriph_Driver/src/stm32f4xx_cryp_tdes.c ****     CRYP_DataIn(*(uint32_t*)(inputaddr));
 255              		.loc 1 151 0
 256 010c D7F88030 		ldr	r3, [r7, #128]
 257 0110 1B68     		ldr	r3, [r3]
 258 0112 1846     		mov	r0, r3
 259 0114 FFF7FEFF 		bl	CRYP_DataIn
 152:libs/STM32F4xx_StdPeriph_Driver/src/stm32f4xx_cryp_tdes.c ****     inputaddr+=4;
 260              		.loc 1 152 0
 261 0118 D7F88030 		ldr	r3, [r7, #128]
 262 011c 0433     		adds	r3, r3, #4
 263 011e C7F88030 		str	r3, [r7, #128]
 153:libs/STM32F4xx_StdPeriph_Driver/src/stm32f4xx_cryp_tdes.c **** 
 154:libs/STM32F4xx_StdPeriph_Driver/src/stm32f4xx_cryp_tdes.c ****     /* Wait until the complete message has been processed */
 155:libs/STM32F4xx_StdPeriph_Driver/src/stm32f4xx_cryp_tdes.c ****     counter = 0;
 264              		.loc 1 155 0
 265 0122 0023     		movs	r3, #0
 266 0124 7B61     		str	r3, [r7, #20]
 267              	.L12:
 156:libs/STM32F4xx_StdPeriph_Driver/src/stm32f4xx_cryp_tdes.c ****     do
 157:libs/STM32F4xx_StdPeriph_Driver/src/stm32f4xx_cryp_tdes.c ****     {
 158:libs/STM32F4xx_StdPeriph_Driver/src/stm32f4xx_cryp_tdes.c ****       busystatus = CRYP_GetFlagStatus(CRYP_FLAG_BUSY);
 268              		.loc 1 158 0 discriminator 1
 269 0126 1020     		movs	r0, #16
 270 0128 FFF7FEFF 		bl	CRYP_GetFlagStatus
 271 012c 0346     		mov	r3, r0
 272 012e 7B67     		str	r3, [r7, #116]
 159:libs/STM32F4xx_StdPeriph_Driver/src/stm32f4xx_cryp_tdes.c ****       counter++;
 273              		.loc 1 159 0 discriminator 1
 274 0130 7B69     		ldr	r3, [r7, #20]
 275 0132 0133     		adds	r3, r3, #1
 276 0134 7B61     		str	r3, [r7, #20]
 160:libs/STM32F4xx_StdPeriph_Driver/src/stm32f4xx_cryp_tdes.c ****     }while ((counter != TDESBUSY_TIMEOUT) && (busystatus != RESET));
 277              		.loc 1 160 0 discriminator 1
 278 0136 7B69     		ldr	r3, [r7, #20]
 279 0138 B3F5803F 		cmp	r3, #65536
 280 013c 02D0     		beq	.L11
 281 013e 7B6F     		ldr	r3, [r7, #116]
 282 0140 002B     		cmp	r3, #0
 283 0142 F0D1     		bne	.L12
 284              	.L11:
 161:libs/STM32F4xx_StdPeriph_Driver/src/stm32f4xx_cryp_tdes.c **** 
 162:libs/STM32F4xx_StdPeriph_Driver/src/stm32f4xx_cryp_tdes.c ****     if (busystatus != RESET)
 285              		.loc 1 162 0
 286 0144 7B6F     		ldr	r3, [r7, #116]
 287 0146 002B     		cmp	r3, #0
 288 0148 03D0     		beq	.L13
 163:libs/STM32F4xx_StdPeriph_Driver/src/stm32f4xx_cryp_tdes.c ****     {
 164:libs/STM32F4xx_StdPeriph_Driver/src/stm32f4xx_cryp_tdes.c ****        status = ERROR;
 289              		.loc 1 164 0
 290 014a 0023     		movs	r3, #0
 291 014c 87F88730 		strb	r3, [r7, #135]
 292 0150 0FE0     		b	.L14
 293              	.L13:
 165:libs/STM32F4xx_StdPeriph_Driver/src/stm32f4xx_cryp_tdes.c ****     }
 166:libs/STM32F4xx_StdPeriph_Driver/src/stm32f4xx_cryp_tdes.c ****     else
 167:libs/STM32F4xx_StdPeriph_Driver/src/stm32f4xx_cryp_tdes.c ****     {
 168:libs/STM32F4xx_StdPeriph_Driver/src/stm32f4xx_cryp_tdes.c **** 
 169:libs/STM32F4xx_StdPeriph_Driver/src/stm32f4xx_cryp_tdes.c ****       /* Read the Output block from the Output FIFO */
 170:libs/STM32F4xx_StdPeriph_Driver/src/stm32f4xx_cryp_tdes.c ****       *(uint32_t*)(outputaddr) = CRYP_DataOut();
 294              		.loc 1 170 0
 295 0152 FC6F     		ldr	r4, [r7, #124]
 296 0154 FFF7FEFF 		bl	CRYP_DataOut
 297 0158 0346     		mov	r3, r0
 298 015a 2360     		str	r3, [r4]
 171:libs/STM32F4xx_StdPeriph_Driver/src/stm32f4xx_cryp_tdes.c ****       outputaddr+=4;
 299              		.loc 1 171 0
 300 015c FB6F     		ldr	r3, [r7, #124]
 301 015e 0433     		adds	r3, r3, #4
 302 0160 FB67     		str	r3, [r7, #124]
 172:libs/STM32F4xx_StdPeriph_Driver/src/stm32f4xx_cryp_tdes.c ****       *(uint32_t*)(outputaddr) = CRYP_DataOut();
 303              		.loc 1 172 0
 304 0162 FC6F     		ldr	r4, [r7, #124]
 305 0164 FFF7FEFF 		bl	CRYP_DataOut
 306 0168 0346     		mov	r3, r0
 307 016a 2360     		str	r3, [r4]
 173:libs/STM32F4xx_StdPeriph_Driver/src/stm32f4xx_cryp_tdes.c ****       outputaddr+=4;
 308              		.loc 1 173 0
 309 016c FB6F     		ldr	r3, [r7, #124]
 310 016e 0433     		adds	r3, r3, #4
 311 0170 FB67     		str	r3, [r7, #124]
 312              	.L14:
 146:libs/STM32F4xx_StdPeriph_Driver/src/stm32f4xx_cryp_tdes.c ****   for(i=0; ((i<Ilength) && (status != ERROR)); i+=8)
 313              		.loc 1 146 0
 314 0172 BB6F     		ldr	r3, [r7, #120]
 315 0174 0833     		adds	r3, r3, #8
 316 0176 BB67     		str	r3, [r7, #120]
 317              	.L10:
 146:libs/STM32F4xx_StdPeriph_Driver/src/stm32f4xx_cryp_tdes.c ****   for(i=0; ((i<Ilength) && (status != ERROR)); i+=8)
 318              		.loc 1 146 0 is_stmt 0 discriminator 1
 319 0178 BA6F     		ldr	r2, [r7, #120]
 320 017a 3B68     		ldr	r3, [r7]
 321 017c 9A42     		cmp	r2, r3
 322 017e 03D2     		bcs	.L15
 146:libs/STM32F4xx_StdPeriph_Driver/src/stm32f4xx_cryp_tdes.c ****   for(i=0; ((i<Ilength) && (status != ERROR)); i+=8)
 323              		.loc 1 146 0 discriminator 2
 324 0180 97F88730 		ldrb	r3, [r7, #135]	@ zero_extendqisi2
 325 0184 002B     		cmp	r3, #0
 326 0186 B6D1     		bne	.L16
 327              	.L15:
 174:libs/STM32F4xx_StdPeriph_Driver/src/stm32f4xx_cryp_tdes.c ****     }
 175:libs/STM32F4xx_StdPeriph_Driver/src/stm32f4xx_cryp_tdes.c ****   }
 176:libs/STM32F4xx_StdPeriph_Driver/src/stm32f4xx_cryp_tdes.c **** 
 177:libs/STM32F4xx_StdPeriph_Driver/src/stm32f4xx_cryp_tdes.c ****   /* Disable Crypto */
 178:libs/STM32F4xx_StdPeriph_Driver/src/stm32f4xx_cryp_tdes.c ****   CRYP_Cmd(DISABLE);
 328              		.loc 1 178 0 is_stmt 1
 329 0188 0020     		movs	r0, #0
 330 018a FFF7FEFF 		bl	CRYP_Cmd
 179:libs/STM32F4xx_StdPeriph_Driver/src/stm32f4xx_cryp_tdes.c **** 
 180:libs/STM32F4xx_StdPeriph_Driver/src/stm32f4xx_cryp_tdes.c ****   return status; 
 331              		.loc 1 180 0
 332 018e 97F88730 		ldrb	r3, [r7, #135]	@ zero_extendqisi2
 181:libs/STM32F4xx_StdPeriph_Driver/src/stm32f4xx_cryp_tdes.c **** }
 333              		.loc 1 181 0
 334 0192 1846     		mov	r0, r3
 335 0194 8C37     		adds	r7, r7, #140
 336 0196 BD46     		mov	sp, r7
 337              		@ sp needed
 338 0198 90BD     		pop	{r4, r7, pc}
 339              		.cfi_endproc
 340              	.LFE110:
 342 019a 00BF     		.section	.text.CRYP_TDES_CBC,"ax",%progbits
 343              		.align	2
 344              		.global	CRYP_TDES_CBC
 345              		.thumb
 346              		.thumb_func
 348              	CRYP_TDES_CBC:
 349              	.LFB111:
 182:libs/STM32F4xx_StdPeriph_Driver/src/stm32f4xx_cryp_tdes.c **** 
 183:libs/STM32F4xx_StdPeriph_Driver/src/stm32f4xx_cryp_tdes.c **** /**
 184:libs/STM32F4xx_StdPeriph_Driver/src/stm32f4xx_cryp_tdes.c ****   * @brief  Encrypt and decrypt using TDES in CBC Mode
 185:libs/STM32F4xx_StdPeriph_Driver/src/stm32f4xx_cryp_tdes.c ****   * @param  Mode: encryption or decryption Mode.
 186:libs/STM32F4xx_StdPeriph_Driver/src/stm32f4xx_cryp_tdes.c ****   *           This parameter can be one of the following values:
 187:libs/STM32F4xx_StdPeriph_Driver/src/stm32f4xx_cryp_tdes.c ****   *            @arg MODE_ENCRYPT: Encryption
 188:libs/STM32F4xx_StdPeriph_Driver/src/stm32f4xx_cryp_tdes.c ****   *            @arg MODE_DECRYPT: Decryption
 189:libs/STM32F4xx_StdPeriph_Driver/src/stm32f4xx_cryp_tdes.c ****   * @param  Key: Key used for TDES algorithm.
 190:libs/STM32F4xx_StdPeriph_Driver/src/stm32f4xx_cryp_tdes.c ****   * @param  InitVectors: Initialisation Vectors used for TDES algorithm.
 191:libs/STM32F4xx_StdPeriph_Driver/src/stm32f4xx_cryp_tdes.c ****   * @param  Input: pointer to the Input buffer.
 192:libs/STM32F4xx_StdPeriph_Driver/src/stm32f4xx_cryp_tdes.c ****   * @param  Ilength: length of the Input buffer, must be a multiple of 8.
 193:libs/STM32F4xx_StdPeriph_Driver/src/stm32f4xx_cryp_tdes.c ****   * @param  Output: pointer to the returned buffer.
 194:libs/STM32F4xx_StdPeriph_Driver/src/stm32f4xx_cryp_tdes.c ****   * @retval An ErrorStatus enumeration value:
 195:libs/STM32F4xx_StdPeriph_Driver/src/stm32f4xx_cryp_tdes.c ****   *          - SUCCESS: Operation done
 196:libs/STM32F4xx_StdPeriph_Driver/src/stm32f4xx_cryp_tdes.c ****   *          - ERROR: Operation failed
 197:libs/STM32F4xx_StdPeriph_Driver/src/stm32f4xx_cryp_tdes.c ****   */
 198:libs/STM32F4xx_StdPeriph_Driver/src/stm32f4xx_cryp_tdes.c **** ErrorStatus CRYP_TDES_CBC(uint8_t Mode, uint8_t Key[24], uint8_t InitVectors[8],
 199:libs/STM32F4xx_StdPeriph_Driver/src/stm32f4xx_cryp_tdes.c ****                           uint8_t *Input, uint32_t Ilength, uint8_t *Output)
 200:libs/STM32F4xx_StdPeriph_Driver/src/stm32f4xx_cryp_tdes.c **** {
 350              		.loc 1 200 0
 351              		.cfi_startproc
 352              		@ args = 8, pretend = 0, frame = 168
 353              		@ frame_needed = 1, uses_anonymous_args = 0
 354 0000 90B5     		push	{r4, r7, lr}
 355              	.LCFI3:
 356              		.cfi_def_cfa_offset 12
 357              		.cfi_offset 4, -12
 358              		.cfi_offset 7, -8
 359              		.cfi_offset 14, -4
 360 0002 ABB0     		sub	sp, sp, #172
 361              	.LCFI4:
 362              		.cfi_def_cfa_offset 184
 363 0004 00AF     		add	r7, sp, #0
 364              	.LCFI5:
 365              		.cfi_def_cfa_register 7
 366 0006 B960     		str	r1, [r7, #8]
 367 0008 7A60     		str	r2, [r7, #4]
 368 000a 3B60     		str	r3, [r7]
 369 000c 0346     		mov	r3, r0
 370 000e FB73     		strb	r3, [r7, #15]
 201:libs/STM32F4xx_StdPeriph_Driver/src/stm32f4xx_cryp_tdes.c ****   CRYP_InitTypeDef TDES_CRYP_InitStructure;
 202:libs/STM32F4xx_StdPeriph_Driver/src/stm32f4xx_cryp_tdes.c ****   CRYP_KeyInitTypeDef TDES_CRYP_KeyInitStructure;
 203:libs/STM32F4xx_StdPeriph_Driver/src/stm32f4xx_cryp_tdes.c ****   CRYP_IVInitTypeDef TDES_CRYP_IVInitStructure;
 204:libs/STM32F4xx_StdPeriph_Driver/src/stm32f4xx_cryp_tdes.c ****   __IO uint32_t counter = 0;
 371              		.loc 1 204 0
 372 0010 0023     		movs	r3, #0
 373 0012 3B61     		str	r3, [r7, #16]
 205:libs/STM32F4xx_StdPeriph_Driver/src/stm32f4xx_cryp_tdes.c ****   uint32_t busystatus = 0;
 374              		.loc 1 205 0
 375 0014 0023     		movs	r3, #0
 376 0016 C7F89430 		str	r3, [r7, #148]
 206:libs/STM32F4xx_StdPeriph_Driver/src/stm32f4xx_cryp_tdes.c ****   ErrorStatus status = SUCCESS;
 377              		.loc 1 206 0
 378 001a 0123     		movs	r3, #1
 379 001c 87F8A730 		strb	r3, [r7, #167]
 207:libs/STM32F4xx_StdPeriph_Driver/src/stm32f4xx_cryp_tdes.c ****   uint32_t keyaddr    = (uint32_t)Key;
 380              		.loc 1 207 0
 381 0020 BB68     		ldr	r3, [r7, #8]
 382 0022 C7F89030 		str	r3, [r7, #144]
 208:libs/STM32F4xx_StdPeriph_Driver/src/stm32f4xx_cryp_tdes.c ****   uint32_t inputaddr  = (uint32_t)Input;
 383              		.loc 1 208 0
 384 0026 3B68     		ldr	r3, [r7]
 385 0028 C7F8A030 		str	r3, [r7, #160]
 209:libs/STM32F4xx_StdPeriph_Driver/src/stm32f4xx_cryp_tdes.c ****   uint32_t outputaddr = (uint32_t)Output;
 386              		.loc 1 209 0
 387 002c D7F8BC30 		ldr	r3, [r7, #188]
 388 0030 C7F89C30 		str	r3, [r7, #156]
 210:libs/STM32F4xx_StdPeriph_Driver/src/stm32f4xx_cryp_tdes.c ****   uint32_t ivaddr     = (uint32_t)InitVectors;
 389              		.loc 1 210 0
 390 0034 7B68     		ldr	r3, [r7, #4]
 391 0036 C7F88C30 		str	r3, [r7, #140]
 211:libs/STM32F4xx_StdPeriph_Driver/src/stm32f4xx_cryp_tdes.c ****   uint32_t i = 0;
 392              		.loc 1 211 0
 393 003a 0023     		movs	r3, #0
 394 003c C7F89830 		str	r3, [r7, #152]
 212:libs/STM32F4xx_StdPeriph_Driver/src/stm32f4xx_cryp_tdes.c **** 
 213:libs/STM32F4xx_StdPeriph_Driver/src/stm32f4xx_cryp_tdes.c ****   /* Crypto structures initialisation*/
 214:libs/STM32F4xx_StdPeriph_Driver/src/stm32f4xx_cryp_tdes.c ****   CRYP_KeyStructInit(&TDES_CRYP_KeyInitStructure);
 395              		.loc 1 214 0
 396 0040 07F12403 		add	r3, r7, #36
 397 0044 1846     		mov	r0, r3
 398 0046 FFF7FEFF 		bl	CRYP_KeyStructInit
 215:libs/STM32F4xx_StdPeriph_Driver/src/stm32f4xx_cryp_tdes.c **** 
 216:libs/STM32F4xx_StdPeriph_Driver/src/stm32f4xx_cryp_tdes.c ****   /* Crypto Init for Encryption process */
 217:libs/STM32F4xx_StdPeriph_Driver/src/stm32f4xx_cryp_tdes.c ****   if(Mode == MODE_ENCRYPT) /* TDES encryption */
 399              		.loc 1 217 0
 400 004a FB7B     		ldrb	r3, [r7, #15]	@ zero_extendqisi2
 401 004c 012B     		cmp	r3, #1
 402 004e 03D1     		bne	.L19
 218:libs/STM32F4xx_StdPeriph_Driver/src/stm32f4xx_cryp_tdes.c ****   {
 219:libs/STM32F4xx_StdPeriph_Driver/src/stm32f4xx_cryp_tdes.c ****     TDES_CRYP_InitStructure.CRYP_AlgoDir = CRYP_AlgoDir_Encrypt;
 403              		.loc 1 219 0
 404 0050 0023     		movs	r3, #0
 405 0052 A7F84430 		strh	r3, [r7, #68]	@ movhi
 406 0056 02E0     		b	.L20
 407              	.L19:
 220:libs/STM32F4xx_StdPeriph_Driver/src/stm32f4xx_cryp_tdes.c ****   }
 221:libs/STM32F4xx_StdPeriph_Driver/src/stm32f4xx_cryp_tdes.c ****   else
 222:libs/STM32F4xx_StdPeriph_Driver/src/stm32f4xx_cryp_tdes.c ****   {
 223:libs/STM32F4xx_StdPeriph_Driver/src/stm32f4xx_cryp_tdes.c ****     TDES_CRYP_InitStructure.CRYP_AlgoDir = CRYP_AlgoDir_Decrypt;
 408              		.loc 1 223 0
 409 0058 0423     		movs	r3, #4
 410 005a A7F84430 		strh	r3, [r7, #68]	@ movhi
 411              	.L20:
 224:libs/STM32F4xx_StdPeriph_Driver/src/stm32f4xx_cryp_tdes.c ****   }
 225:libs/STM32F4xx_StdPeriph_Driver/src/stm32f4xx_cryp_tdes.c ****   TDES_CRYP_InitStructure.CRYP_AlgoMode = CRYP_AlgoMode_TDES_CBC;
 412              		.loc 1 225 0
 413 005e 0823     		movs	r3, #8
 414 0060 A7F84630 		strh	r3, [r7, #70]	@ movhi
 226:libs/STM32F4xx_StdPeriph_Driver/src/stm32f4xx_cryp_tdes.c ****   TDES_CRYP_InitStructure.CRYP_DataType = CRYP_DataType_8b;
 415              		.loc 1 226 0
 416 0064 8023     		movs	r3, #128
 417 0066 A7F84830 		strh	r3, [r7, #72]	@ movhi
 227:libs/STM32F4xx_StdPeriph_Driver/src/stm32f4xx_cryp_tdes.c **** 
 228:libs/STM32F4xx_StdPeriph_Driver/src/stm32f4xx_cryp_tdes.c ****   CRYP_Init(&TDES_CRYP_InitStructure);
 418              		.loc 1 228 0
 419 006a 07F14403 		add	r3, r7, #68
 420 006e 1846     		mov	r0, r3
 421 0070 FFF7FEFF 		bl	CRYP_Init
 229:libs/STM32F4xx_StdPeriph_Driver/src/stm32f4xx_cryp_tdes.c **** 
 230:libs/STM32F4xx_StdPeriph_Driver/src/stm32f4xx_cryp_tdes.c ****   /* Key Initialisation */
 231:libs/STM32F4xx_StdPeriph_Driver/src/stm32f4xx_cryp_tdes.c ****   TDES_CRYP_KeyInitStructure.CRYP_Key1Left = __REV(*(uint32_t*)(keyaddr));
 422              		.loc 1 231 0
 423 0074 D7F89030 		ldr	r3, [r7, #144]
 424 0078 1B68     		ldr	r3, [r3]
 425 007a C7F88830 		str	r3, [r7, #136]
 426              	.LBB42:
 427              	.LBB43:
 352:libs/CMSIS/Include/core_cmInstr.h ****   __ASM volatile ("rev %0, %1" : "=r" (result) : "r" (value) );
 428              		.loc 2 352 0
 429 007e D7F88830 		ldr	r3, [r7, #136]
 430              	@ 352 "libs/CMSIS/Include/core_cmInstr.h" 1
 431 0082 1BBA     		rev r3, r3
 432              	@ 0 "" 2
 433              		.thumb
 434 0084 C7F88430 		str	r3, [r7, #132]
 435              		.loc 2 353 0
 436 0088 D7F88430 		ldr	r3, [r7, #132]
 437              	.LBE43:
 438              	.LBE42:
 439              		.loc 1 231 0
 440 008c FB62     		str	r3, [r7, #44]
 232:libs/STM32F4xx_StdPeriph_Driver/src/stm32f4xx_cryp_tdes.c ****   keyaddr+=4;
 441              		.loc 1 232 0
 442 008e D7F89030 		ldr	r3, [r7, #144]
 443 0092 0433     		adds	r3, r3, #4
 444 0094 C7F89030 		str	r3, [r7, #144]
 233:libs/STM32F4xx_StdPeriph_Driver/src/stm32f4xx_cryp_tdes.c ****   TDES_CRYP_KeyInitStructure.CRYP_Key1Right= __REV(*(uint32_t*)(keyaddr));
 445              		.loc 1 233 0
 446 0098 D7F89030 		ldr	r3, [r7, #144]
 447 009c 1B68     		ldr	r3, [r3]
 448 009e C7F88030 		str	r3, [r7, #128]
 449              	.LBB44:
 450              	.LBB45:
 352:libs/CMSIS/Include/core_cmInstr.h ****   __ASM volatile ("rev %0, %1" : "=r" (result) : "r" (value) );
 451              		.loc 2 352 0
 452 00a2 D7F88030 		ldr	r3, [r7, #128]
 453              	@ 352 "libs/CMSIS/Include/core_cmInstr.h" 1
 454 00a6 1BBA     		rev r3, r3
 455              	@ 0 "" 2
 456              		.thumb
 457 00a8 FB67     		str	r3, [r7, #124]
 458              		.loc 2 353 0
 459 00aa FB6F     		ldr	r3, [r7, #124]
 460              	.LBE45:
 461              	.LBE44:
 462              		.loc 1 233 0
 463 00ac 3B63     		str	r3, [r7, #48]
 234:libs/STM32F4xx_StdPeriph_Driver/src/stm32f4xx_cryp_tdes.c ****   keyaddr+=4;
 464              		.loc 1 234 0
 465 00ae D7F89030 		ldr	r3, [r7, #144]
 466 00b2 0433     		adds	r3, r3, #4
 467 00b4 C7F89030 		str	r3, [r7, #144]
 235:libs/STM32F4xx_StdPeriph_Driver/src/stm32f4xx_cryp_tdes.c ****   TDES_CRYP_KeyInitStructure.CRYP_Key2Left = __REV(*(uint32_t*)(keyaddr));
 468              		.loc 1 235 0
 469 00b8 D7F89030 		ldr	r3, [r7, #144]
 470 00bc 1B68     		ldr	r3, [r3]
 471 00be BB67     		str	r3, [r7, #120]
 472              	.LBB46:
 473              	.LBB47:
 352:libs/CMSIS/Include/core_cmInstr.h ****   __ASM volatile ("rev %0, %1" : "=r" (result) : "r" (value) );
 474              		.loc 2 352 0
 475 00c0 BB6F     		ldr	r3, [r7, #120]
 476              	@ 352 "libs/CMSIS/Include/core_cmInstr.h" 1
 477 00c2 1BBA     		rev r3, r3
 478              	@ 0 "" 2
 479              		.thumb
 480 00c4 7B67     		str	r3, [r7, #116]
 481              		.loc 2 353 0
 482 00c6 7B6F     		ldr	r3, [r7, #116]
 483              	.LBE47:
 484              	.LBE46:
 485              		.loc 1 235 0
 486 00c8 7B63     		str	r3, [r7, #52]
 236:libs/STM32F4xx_StdPeriph_Driver/src/stm32f4xx_cryp_tdes.c ****   keyaddr+=4;
 487              		.loc 1 236 0
 488 00ca D7F89030 		ldr	r3, [r7, #144]
 489 00ce 0433     		adds	r3, r3, #4
 490 00d0 C7F89030 		str	r3, [r7, #144]
 237:libs/STM32F4xx_StdPeriph_Driver/src/stm32f4xx_cryp_tdes.c ****   TDES_CRYP_KeyInitStructure.CRYP_Key2Right= __REV(*(uint32_t*)(keyaddr));
 491              		.loc 1 237 0
 492 00d4 D7F89030 		ldr	r3, [r7, #144]
 493 00d8 1B68     		ldr	r3, [r3]
 494 00da 3B67     		str	r3, [r7, #112]
 495              	.LBB48:
 496              	.LBB49:
 352:libs/CMSIS/Include/core_cmInstr.h ****   __ASM volatile ("rev %0, %1" : "=r" (result) : "r" (value) );
 497              		.loc 2 352 0
 498 00dc 3B6F     		ldr	r3, [r7, #112]
 499              	@ 352 "libs/CMSIS/Include/core_cmInstr.h" 1
 500 00de 1BBA     		rev r3, r3
 501              	@ 0 "" 2
 502              		.thumb
 503 00e0 FB66     		str	r3, [r7, #108]
 504              		.loc 2 353 0
 505 00e2 FB6E     		ldr	r3, [r7, #108]
 506              	.LBE49:
 507              	.LBE48:
 508              		.loc 1 237 0
 509 00e4 BB63     		str	r3, [r7, #56]
 238:libs/STM32F4xx_StdPeriph_Driver/src/stm32f4xx_cryp_tdes.c ****   keyaddr+=4;
 510              		.loc 1 238 0
 511 00e6 D7F89030 		ldr	r3, [r7, #144]
 512 00ea 0433     		adds	r3, r3, #4
 513 00ec C7F89030 		str	r3, [r7, #144]
 239:libs/STM32F4xx_StdPeriph_Driver/src/stm32f4xx_cryp_tdes.c ****   TDES_CRYP_KeyInitStructure.CRYP_Key3Left = __REV(*(uint32_t*)(keyaddr));
 514              		.loc 1 239 0
 515 00f0 D7F89030 		ldr	r3, [r7, #144]
 516 00f4 1B68     		ldr	r3, [r3]
 517 00f6 BB66     		str	r3, [r7, #104]
 518              	.LBB50:
 519              	.LBB51:
 352:libs/CMSIS/Include/core_cmInstr.h ****   __ASM volatile ("rev %0, %1" : "=r" (result) : "r" (value) );
 520              		.loc 2 352 0
 521 00f8 BB6E     		ldr	r3, [r7, #104]
 522              	@ 352 "libs/CMSIS/Include/core_cmInstr.h" 1
 523 00fa 1BBA     		rev r3, r3
 524              	@ 0 "" 2
 525              		.thumb
 526 00fc 7B66     		str	r3, [r7, #100]
 527              		.loc 2 353 0
 528 00fe 7B6E     		ldr	r3, [r7, #100]
 529              	.LBE51:
 530              	.LBE50:
 531              		.loc 1 239 0
 532 0100 FB63     		str	r3, [r7, #60]
 240:libs/STM32F4xx_StdPeriph_Driver/src/stm32f4xx_cryp_tdes.c ****   keyaddr+=4;
 533              		.loc 1 240 0
 534 0102 D7F89030 		ldr	r3, [r7, #144]
 535 0106 0433     		adds	r3, r3, #4
 536 0108 C7F89030 		str	r3, [r7, #144]
 241:libs/STM32F4xx_StdPeriph_Driver/src/stm32f4xx_cryp_tdes.c ****   TDES_CRYP_KeyInitStructure.CRYP_Key3Right= __REV(*(uint32_t*)(keyaddr));
 537              		.loc 1 241 0
 538 010c D7F89030 		ldr	r3, [r7, #144]
 539 0110 1B68     		ldr	r3, [r3]
 540 0112 3B66     		str	r3, [r7, #96]
 541              	.LBB52:
 542              	.LBB53:
 352:libs/CMSIS/Include/core_cmInstr.h ****   __ASM volatile ("rev %0, %1" : "=r" (result) : "r" (value) );
 543              		.loc 2 352 0
 544 0114 3B6E     		ldr	r3, [r7, #96]
 545              	@ 352 "libs/CMSIS/Include/core_cmInstr.h" 1
 546 0116 1BBA     		rev r3, r3
 547              	@ 0 "" 2
 548              		.thumb
 549 0118 FB65     		str	r3, [r7, #92]
 550              		.loc 2 353 0
 551 011a FB6D     		ldr	r3, [r7, #92]
 552              	.LBE53:
 553              	.LBE52:
 554              		.loc 1 241 0
 555 011c 3B64     		str	r3, [r7, #64]
 242:libs/STM32F4xx_StdPeriph_Driver/src/stm32f4xx_cryp_tdes.c ****   CRYP_KeyInit(& TDES_CRYP_KeyInitStructure);
 556              		.loc 1 242 0
 557 011e 07F12403 		add	r3, r7, #36
 558 0122 1846     		mov	r0, r3
 559 0124 FFF7FEFF 		bl	CRYP_KeyInit
 243:libs/STM32F4xx_StdPeriph_Driver/src/stm32f4xx_cryp_tdes.c **** 
 244:libs/STM32F4xx_StdPeriph_Driver/src/stm32f4xx_cryp_tdes.c ****   /* Initialization Vectors */
 245:libs/STM32F4xx_StdPeriph_Driver/src/stm32f4xx_cryp_tdes.c ****   TDES_CRYP_IVInitStructure.CRYP_IV0Left = __REV(*(uint32_t*)(ivaddr));
 560              		.loc 1 245 0
 561 0128 D7F88C30 		ldr	r3, [r7, #140]
 562 012c 1B68     		ldr	r3, [r3]
 563 012e BB65     		str	r3, [r7, #88]
 564              	.LBB54:
 565              	.LBB55:
 352:libs/CMSIS/Include/core_cmInstr.h ****   __ASM volatile ("rev %0, %1" : "=r" (result) : "r" (value) );
 566              		.loc 2 352 0
 567 0130 BB6D     		ldr	r3, [r7, #88]
 568              	@ 352 "libs/CMSIS/Include/core_cmInstr.h" 1
 569 0132 1BBA     		rev r3, r3
 570              	@ 0 "" 2
 571              		.thumb
 572 0134 7B65     		str	r3, [r7, #84]
 573              		.loc 2 353 0
 574 0136 7B6D     		ldr	r3, [r7, #84]
 575              	.LBE55:
 576              	.LBE54:
 577              		.loc 1 245 0
 578 0138 7B61     		str	r3, [r7, #20]
 246:libs/STM32F4xx_StdPeriph_Driver/src/stm32f4xx_cryp_tdes.c ****   ivaddr+=4;
 579              		.loc 1 246 0
 580 013a D7F88C30 		ldr	r3, [r7, #140]
 581 013e 0433     		adds	r3, r3, #4
 582 0140 C7F88C30 		str	r3, [r7, #140]
 247:libs/STM32F4xx_StdPeriph_Driver/src/stm32f4xx_cryp_tdes.c ****   TDES_CRYP_IVInitStructure.CRYP_IV0Right= __REV(*(uint32_t*)(ivaddr));
 583              		.loc 1 247 0
 584 0144 D7F88C30 		ldr	r3, [r7, #140]
 585 0148 1B68     		ldr	r3, [r3]
 586 014a 3B65     		str	r3, [r7, #80]
 587              	.LBB56:
 588              	.LBB57:
 352:libs/CMSIS/Include/core_cmInstr.h ****   __ASM volatile ("rev %0, %1" : "=r" (result) : "r" (value) );
 589              		.loc 2 352 0
 590 014c 3B6D     		ldr	r3, [r7, #80]
 591              	@ 352 "libs/CMSIS/Include/core_cmInstr.h" 1
 592 014e 1BBA     		rev r3, r3
 593              	@ 0 "" 2
 594              		.thumb
 595 0150 FB64     		str	r3, [r7, #76]
 596              		.loc 2 353 0
 597 0152 FB6C     		ldr	r3, [r7, #76]
 598              	.LBE57:
 599              	.LBE56:
 600              		.loc 1 247 0
 601 0154 BB61     		str	r3, [r7, #24]
 248:libs/STM32F4xx_StdPeriph_Driver/src/stm32f4xx_cryp_tdes.c ****   CRYP_IVInit(&TDES_CRYP_IVInitStructure);
 602              		.loc 1 248 0
 603 0156 07F11403 		add	r3, r7, #20
 604 015a 1846     		mov	r0, r3
 605 015c FFF7FEFF 		bl	CRYP_IVInit
 249:libs/STM32F4xx_StdPeriph_Driver/src/stm32f4xx_cryp_tdes.c **** 
 250:libs/STM32F4xx_StdPeriph_Driver/src/stm32f4xx_cryp_tdes.c ****   /* Flush IN/OUT FIFO */
 251:libs/STM32F4xx_StdPeriph_Driver/src/stm32f4xx_cryp_tdes.c ****   CRYP_FIFOFlush();
 606              		.loc 1 251 0
 607 0160 FFF7FEFF 		bl	CRYP_FIFOFlush
 252:libs/STM32F4xx_StdPeriph_Driver/src/stm32f4xx_cryp_tdes.c **** 
 253:libs/STM32F4xx_StdPeriph_Driver/src/stm32f4xx_cryp_tdes.c ****   /* Enable Crypto processor */
 254:libs/STM32F4xx_StdPeriph_Driver/src/stm32f4xx_cryp_tdes.c ****   CRYP_Cmd(ENABLE);
 608              		.loc 1 254 0
 609 0164 0120     		movs	r0, #1
 610 0166 FFF7FEFF 		bl	CRYP_Cmd
 255:libs/STM32F4xx_StdPeriph_Driver/src/stm32f4xx_cryp_tdes.c **** 
 256:libs/STM32F4xx_StdPeriph_Driver/src/stm32f4xx_cryp_tdes.c ****   for(i=0; ((i<Ilength) && (status != ERROR)); i+=8)
 611              		.loc 1 256 0
 612 016a 0023     		movs	r3, #0
 613 016c C7F89830 		str	r3, [r7, #152]
 614 0170 4BE0     		b	.L29
 615              	.L35:
 257:libs/STM32F4xx_StdPeriph_Driver/src/stm32f4xx_cryp_tdes.c ****   {
 258:libs/STM32F4xx_StdPeriph_Driver/src/stm32f4xx_cryp_tdes.c ****     /* Write the Input block in the Input FIFO */
 259:libs/STM32F4xx_StdPeriph_Driver/src/stm32f4xx_cryp_tdes.c ****     CRYP_DataIn(*(uint32_t*)(inputaddr));
 616              		.loc 1 259 0
 617 0172 D7F8A030 		ldr	r3, [r7, #160]
 618 0176 1B68     		ldr	r3, [r3]
 619 0178 1846     		mov	r0, r3
 620 017a FFF7FEFF 		bl	CRYP_DataIn
 260:libs/STM32F4xx_StdPeriph_Driver/src/stm32f4xx_cryp_tdes.c ****     inputaddr+=4;
 621              		.loc 1 260 0
 622 017e D7F8A030 		ldr	r3, [r7, #160]
 623 0182 0433     		adds	r3, r3, #4
 624 0184 C7F8A030 		str	r3, [r7, #160]
 261:libs/STM32F4xx_StdPeriph_Driver/src/stm32f4xx_cryp_tdes.c ****     CRYP_DataIn(*(uint32_t*)(inputaddr));
 625              		.loc 1 261 0
 626 0188 D7F8A030 		ldr	r3, [r7, #160]
 627 018c 1B68     		ldr	r3, [r3]
 628 018e 1846     		mov	r0, r3
 629 0190 FFF7FEFF 		bl	CRYP_DataIn
 262:libs/STM32F4xx_StdPeriph_Driver/src/stm32f4xx_cryp_tdes.c ****     inputaddr+=4;
 630              		.loc 1 262 0
 631 0194 D7F8A030 		ldr	r3, [r7, #160]
 632 0198 0433     		adds	r3, r3, #4
 633 019a C7F8A030 		str	r3, [r7, #160]
 263:libs/STM32F4xx_StdPeriph_Driver/src/stm32f4xx_cryp_tdes.c **** 
 264:libs/STM32F4xx_StdPeriph_Driver/src/stm32f4xx_cryp_tdes.c ****     /* Wait until the complete message has been processed */
 265:libs/STM32F4xx_StdPeriph_Driver/src/stm32f4xx_cryp_tdes.c ****     counter = 0;
 634              		.loc 1 265 0
 635 019e 0023     		movs	r3, #0
 636 01a0 3B61     		str	r3, [r7, #16]
 637              	.L31:
 266:libs/STM32F4xx_StdPeriph_Driver/src/stm32f4xx_cryp_tdes.c ****     do
 267:libs/STM32F4xx_StdPeriph_Driver/src/stm32f4xx_cryp_tdes.c ****     {
 268:libs/STM32F4xx_StdPeriph_Driver/src/stm32f4xx_cryp_tdes.c ****       busystatus = CRYP_GetFlagStatus(CRYP_FLAG_BUSY);
 638              		.loc 1 268 0 discriminator 1
 639 01a2 1020     		movs	r0, #16
 640 01a4 FFF7FEFF 		bl	CRYP_GetFlagStatus
 641 01a8 0346     		mov	r3, r0
 642 01aa C7F89430 		str	r3, [r7, #148]
 269:libs/STM32F4xx_StdPeriph_Driver/src/stm32f4xx_cryp_tdes.c ****       counter++;
 643              		.loc 1 269 0 discriminator 1
 644 01ae 3B69     		ldr	r3, [r7, #16]
 645 01b0 0133     		adds	r3, r3, #1
 646 01b2 3B61     		str	r3, [r7, #16]
 270:libs/STM32F4xx_StdPeriph_Driver/src/stm32f4xx_cryp_tdes.c ****     }while ((counter != TDESBUSY_TIMEOUT) && (busystatus != RESET));
 647              		.loc 1 270 0 discriminator 1
 648 01b4 3B69     		ldr	r3, [r7, #16]
 649 01b6 B3F5803F 		cmp	r3, #65536
 650 01ba 03D0     		beq	.L30
 651 01bc D7F89430 		ldr	r3, [r7, #148]
 652 01c0 002B     		cmp	r3, #0
 653 01c2 EED1     		bne	.L31
 654              	.L30:
 271:libs/STM32F4xx_StdPeriph_Driver/src/stm32f4xx_cryp_tdes.c **** 
 272:libs/STM32F4xx_StdPeriph_Driver/src/stm32f4xx_cryp_tdes.c ****     if (busystatus != RESET)
 655              		.loc 1 272 0
 656 01c4 D7F89430 		ldr	r3, [r7, #148]
 657 01c8 002B     		cmp	r3, #0
 658 01ca 03D0     		beq	.L32
 273:libs/STM32F4xx_StdPeriph_Driver/src/stm32f4xx_cryp_tdes.c ****    {
 274:libs/STM32F4xx_StdPeriph_Driver/src/stm32f4xx_cryp_tdes.c ****        status = ERROR;
 659              		.loc 1 274 0
 660 01cc 0023     		movs	r3, #0
 661 01ce 87F8A730 		strb	r3, [r7, #167]
 662 01d2 15E0     		b	.L33
 663              	.L32:
 275:libs/STM32F4xx_StdPeriph_Driver/src/stm32f4xx_cryp_tdes.c ****     }
 276:libs/STM32F4xx_StdPeriph_Driver/src/stm32f4xx_cryp_tdes.c ****     else
 277:libs/STM32F4xx_StdPeriph_Driver/src/stm32f4xx_cryp_tdes.c ****     {
 278:libs/STM32F4xx_StdPeriph_Driver/src/stm32f4xx_cryp_tdes.c **** 
 279:libs/STM32F4xx_StdPeriph_Driver/src/stm32f4xx_cryp_tdes.c ****       /* Read the Output block from the Output FIFO */
 280:libs/STM32F4xx_StdPeriph_Driver/src/stm32f4xx_cryp_tdes.c ****       *(uint32_t*)(outputaddr) = CRYP_DataOut();
 664              		.loc 1 280 0
 665 01d4 D7F89C40 		ldr	r4, [r7, #156]
 666 01d8 FFF7FEFF 		bl	CRYP_DataOut
 667 01dc 0346     		mov	r3, r0
 668 01de 2360     		str	r3, [r4]
 281:libs/STM32F4xx_StdPeriph_Driver/src/stm32f4xx_cryp_tdes.c ****       outputaddr+=4;
 669              		.loc 1 281 0
 670 01e0 D7F89C30 		ldr	r3, [r7, #156]
 671 01e4 0433     		adds	r3, r3, #4
 672 01e6 C7F89C30 		str	r3, [r7, #156]
 282:libs/STM32F4xx_StdPeriph_Driver/src/stm32f4xx_cryp_tdes.c ****       *(uint32_t*)(outputaddr) = CRYP_DataOut();
 673              		.loc 1 282 0
 674 01ea D7F89C40 		ldr	r4, [r7, #156]
 675 01ee FFF7FEFF 		bl	CRYP_DataOut
 676 01f2 0346     		mov	r3, r0
 677 01f4 2360     		str	r3, [r4]
 283:libs/STM32F4xx_StdPeriph_Driver/src/stm32f4xx_cryp_tdes.c ****       outputaddr+=4;
 678              		.loc 1 283 0
 679 01f6 D7F89C30 		ldr	r3, [r7, #156]
 680 01fa 0433     		adds	r3, r3, #4
 681 01fc C7F89C30 		str	r3, [r7, #156]
 682              	.L33:
 256:libs/STM32F4xx_StdPeriph_Driver/src/stm32f4xx_cryp_tdes.c ****   for(i=0; ((i<Ilength) && (status != ERROR)); i+=8)
 683              		.loc 1 256 0
 684 0200 D7F89830 		ldr	r3, [r7, #152]
 685 0204 0833     		adds	r3, r3, #8
 686 0206 C7F89830 		str	r3, [r7, #152]
 687              	.L29:
 256:libs/STM32F4xx_StdPeriph_Driver/src/stm32f4xx_cryp_tdes.c ****   for(i=0; ((i<Ilength) && (status != ERROR)); i+=8)
 688              		.loc 1 256 0 is_stmt 0 discriminator 1
 689 020a D7F89820 		ldr	r2, [r7, #152]
 690 020e D7F8B830 		ldr	r3, [r7, #184]
 691 0212 9A42     		cmp	r2, r3
 692 0214 03D2     		bcs	.L34
 256:libs/STM32F4xx_StdPeriph_Driver/src/stm32f4xx_cryp_tdes.c ****   for(i=0; ((i<Ilength) && (status != ERROR)); i+=8)
 693              		.loc 1 256 0 discriminator 2
 694 0216 97F8A730 		ldrb	r3, [r7, #167]	@ zero_extendqisi2
 695 021a 002B     		cmp	r3, #0
 696 021c A9D1     		bne	.L35
 697              	.L34:
 284:libs/STM32F4xx_StdPeriph_Driver/src/stm32f4xx_cryp_tdes.c ****     }
 285:libs/STM32F4xx_StdPeriph_Driver/src/stm32f4xx_cryp_tdes.c ****   }
 286:libs/STM32F4xx_StdPeriph_Driver/src/stm32f4xx_cryp_tdes.c **** 
 287:libs/STM32F4xx_StdPeriph_Driver/src/stm32f4xx_cryp_tdes.c ****   /* Disable Crypto */
 288:libs/STM32F4xx_StdPeriph_Driver/src/stm32f4xx_cryp_tdes.c ****   CRYP_Cmd(DISABLE);
 698              		.loc 1 288 0 is_stmt 1
 699 021e 0020     		movs	r0, #0
 700 0220 FFF7FEFF 		bl	CRYP_Cmd
 289:libs/STM32F4xx_StdPeriph_Driver/src/stm32f4xx_cryp_tdes.c **** 
 290:libs/STM32F4xx_StdPeriph_Driver/src/stm32f4xx_cryp_tdes.c ****   return status; 
 701              		.loc 1 290 0
 702 0224 97F8A730 		ldrb	r3, [r7, #167]	@ zero_extendqisi2
 291:libs/STM32F4xx_StdPeriph_Driver/src/stm32f4xx_cryp_tdes.c **** }
 703              		.loc 1 291 0
 704 0228 1846     		mov	r0, r3
 705 022a AC37     		adds	r7, r7, #172
 706 022c BD46     		mov	sp, r7
 707              		@ sp needed
 708 022e 90BD     		pop	{r4, r7, pc}
 709              		.cfi_endproc
 710              	.LFE111:
 712              		.text
 713              	.Letext0:
 714              		.file 3 "/home/shihyu/data/STM32F4/gcc-arm-none-eabi-4_8-2013q4/arm-none-eabi/include/stdint.h"
 715              		.file 4 "libs/Device/STM32F4xx/Include/stm32f4xx.h"
 716              		.file 5 "libs/STM32F4xx_StdPeriph_Driver/inc/stm32f4xx_cryp.h"
 717              		.file 6 "libs/CMSIS/Include/core_cm4.h"