   1              		.syntax unified
   2              		.cpu cortex-m4
   3              		.eabi_attribute 27, 3
   4              		.fpu fpv4-sp-d16
   5              		.eabi_attribute 20, 1
   6              		.eabi_attribute 21, 1
   7              		.eabi_attribute 23, 3
   8              		.eabi_attribute 24, 1
   9              		.eabi_attribute 25, 1
  10              		.eabi_attribute 26, 1
  11              		.eabi_attribute 30, 6
  12              		.eabi_attribute 34, 1
  13              		.eabi_attribute 18, 4
  14              		.thumb
  15              		.file	"heap_1.c"
  16              		.text
  17              	.Ltext0:
  18              		.cfi_sections	.debug_frame
  19              		.section	.bss.ucHeap,"aw",%nobits
  20              		.align	2
  23              	ucHeap:
  24 0000 00000000 		.space	76800
  24      00000000 
  24      00000000 
  24      00000000 
  24      00000000 
  25              		.section	.bss.xNextFreeByte,"aw",%nobits
  26              		.align	2
  29              	xNextFreeByte:
  30 0000 00000000 		.space	4
  31              		.section	.text.pvPortMalloc,"ax",%progbits
  32              		.align	2
  33              		.global	pvPortMalloc
  34              		.thumb
  35              		.thumb_func
  37              	pvPortMalloc:
  38              	.LFB110:
  39              		.file 1 "Source/portable/MemMang/heap_1.c"
   1:Source/portable/MemMang/heap_1.c **** /*
   2:Source/portable/MemMang/heap_1.c ****     FreeRTOS V7.5.3 - Copyright (C) 2013 Real Time Engineers Ltd. 
   3:Source/portable/MemMang/heap_1.c ****     All rights reserved
   4:Source/portable/MemMang/heap_1.c **** 
   5:Source/portable/MemMang/heap_1.c ****     VISIT http://www.FreeRTOS.org TO ENSURE YOU ARE USING THE LATEST VERSION.
   6:Source/portable/MemMang/heap_1.c **** 
   7:Source/portable/MemMang/heap_1.c ****     ***************************************************************************
   8:Source/portable/MemMang/heap_1.c ****      *                                                                       *
   9:Source/portable/MemMang/heap_1.c ****      *    FreeRTOS provides completely free yet professionally developed,    *
  10:Source/portable/MemMang/heap_1.c ****      *    robust, strictly quality controlled, supported, and cross          *
  11:Source/portable/MemMang/heap_1.c ****      *    platform software that has become a de facto standard.             *
  12:Source/portable/MemMang/heap_1.c ****      *                                                                       *
  13:Source/portable/MemMang/heap_1.c ****      *    Help yourself get started quickly and support the FreeRTOS         *
  14:Source/portable/MemMang/heap_1.c ****      *    project by purchasing a FreeRTOS tutorial book, reference          *
  15:Source/portable/MemMang/heap_1.c ****      *    manual, or both from: http://www.FreeRTOS.org/Documentation        *
  16:Source/portable/MemMang/heap_1.c ****      *                                                                       *
  17:Source/portable/MemMang/heap_1.c ****      *    Thank you!                                                         *
  18:Source/portable/MemMang/heap_1.c ****      *                                                                       *
  19:Source/portable/MemMang/heap_1.c ****     ***************************************************************************
  20:Source/portable/MemMang/heap_1.c **** 
  21:Source/portable/MemMang/heap_1.c ****     This file is part of the FreeRTOS distribution.
  22:Source/portable/MemMang/heap_1.c **** 
  23:Source/portable/MemMang/heap_1.c ****     FreeRTOS is free software; you can redistribute it and/or modify it under
  24:Source/portable/MemMang/heap_1.c ****     the terms of the GNU General Public License (version 2) as published by the
  25:Source/portable/MemMang/heap_1.c ****     Free Software Foundation >>!AND MODIFIED BY!<< the FreeRTOS exception.
  26:Source/portable/MemMang/heap_1.c **** 
  27:Source/portable/MemMang/heap_1.c ****     >>! NOTE: The modification to the GPL is included to allow you to distribute
  28:Source/portable/MemMang/heap_1.c ****     >>! a combined work that includes FreeRTOS without being obliged to provide
  29:Source/portable/MemMang/heap_1.c ****     >>! the source code for proprietary components outside of the FreeRTOS
  30:Source/portable/MemMang/heap_1.c ****     >>! kernel.
  31:Source/portable/MemMang/heap_1.c **** 
  32:Source/portable/MemMang/heap_1.c ****     FreeRTOS is distributed in the hope that it will be useful, but WITHOUT ANY
  33:Source/portable/MemMang/heap_1.c ****     WARRANTY; without even the implied warranty of MERCHANTABILITY or FITNESS
  34:Source/portable/MemMang/heap_1.c ****     FOR A PARTICULAR PURPOSE.  Full license text is available from the following
  35:Source/portable/MemMang/heap_1.c ****     link: http://www.freertos.org/a00114.html
  36:Source/portable/MemMang/heap_1.c **** 
  37:Source/portable/MemMang/heap_1.c ****     1 tab == 4 spaces!
  38:Source/portable/MemMang/heap_1.c **** 
  39:Source/portable/MemMang/heap_1.c ****     ***************************************************************************
  40:Source/portable/MemMang/heap_1.c ****      *                                                                       *
  41:Source/portable/MemMang/heap_1.c ****      *    Having a problem?  Start by reading the FAQ "My application does   *
  42:Source/portable/MemMang/heap_1.c ****      *    not run, what could be wrong?"                                     *
  43:Source/portable/MemMang/heap_1.c ****      *                                                                       *
  44:Source/portable/MemMang/heap_1.c ****      *    http://www.FreeRTOS.org/FAQHelp.html                               *
  45:Source/portable/MemMang/heap_1.c ****      *                                                                       *
  46:Source/portable/MemMang/heap_1.c ****     ***************************************************************************
  47:Source/portable/MemMang/heap_1.c **** 
  48:Source/portable/MemMang/heap_1.c ****     http://www.FreeRTOS.org - Documentation, books, training, latest versions,
  49:Source/portable/MemMang/heap_1.c ****     license and Real Time Engineers Ltd. contact details.
  50:Source/portable/MemMang/heap_1.c **** 
  51:Source/portable/MemMang/heap_1.c ****     http://www.FreeRTOS.org/plus - A selection of FreeRTOS ecosystem products,
  52:Source/portable/MemMang/heap_1.c ****     including FreeRTOS+Trace - an indispensable productivity tool, a DOS
  53:Source/portable/MemMang/heap_1.c ****     compatible FAT file system, and our tiny thread aware UDP/IP stack.
  54:Source/portable/MemMang/heap_1.c **** 
  55:Source/portable/MemMang/heap_1.c ****     http://www.OpenRTOS.com - Real Time Engineers ltd license FreeRTOS to High
  56:Source/portable/MemMang/heap_1.c ****     Integrity Systems to sell under the OpenRTOS brand.  Low cost OpenRTOS
  57:Source/portable/MemMang/heap_1.c ****     licenses offer ticketed support, indemnification and middleware.
  58:Source/portable/MemMang/heap_1.c **** 
  59:Source/portable/MemMang/heap_1.c ****     http://www.SafeRTOS.com - High Integrity Systems also provide a safety
  60:Source/portable/MemMang/heap_1.c ****     engineered and independently SIL3 certified version for use in safety and
  61:Source/portable/MemMang/heap_1.c ****     mission critical applications that require provable dependability.
  62:Source/portable/MemMang/heap_1.c **** 
  63:Source/portable/MemMang/heap_1.c ****     1 tab == 4 spaces!
  64:Source/portable/MemMang/heap_1.c **** */
  65:Source/portable/MemMang/heap_1.c **** 
  66:Source/portable/MemMang/heap_1.c **** 
  67:Source/portable/MemMang/heap_1.c **** /*
  68:Source/portable/MemMang/heap_1.c ****  * The simplest possible implementation of pvPortMalloc().  Note that this
  69:Source/portable/MemMang/heap_1.c ****  * implementation does NOT allow allocated memory to be freed again.
  70:Source/portable/MemMang/heap_1.c ****  *
  71:Source/portable/MemMang/heap_1.c ****  * See heap_2.c, heap_3.c and heap_4.c for alternative implementations, and the
  72:Source/portable/MemMang/heap_1.c ****  * memory management pages of http://www.FreeRTOS.org for more information.
  73:Source/portable/MemMang/heap_1.c ****  */
  74:Source/portable/MemMang/heap_1.c **** #include <stdlib.h>
  75:Source/portable/MemMang/heap_1.c **** 
  76:Source/portable/MemMang/heap_1.c **** /* Defining MPU_WRAPPERS_INCLUDED_FROM_API_FILE prevents task.h from redefining
  77:Source/portable/MemMang/heap_1.c **** all the API functions to use the MPU wrappers.  That should only be done when
  78:Source/portable/MemMang/heap_1.c **** task.h is included from an application file. */
  79:Source/portable/MemMang/heap_1.c **** #define MPU_WRAPPERS_INCLUDED_FROM_API_FILE
  80:Source/portable/MemMang/heap_1.c **** 
  81:Source/portable/MemMang/heap_1.c **** #include "FreeRTOS.h"
  82:Source/portable/MemMang/heap_1.c **** #include "task.h"
  83:Source/portable/MemMang/heap_1.c **** 
  84:Source/portable/MemMang/heap_1.c **** #undef MPU_WRAPPERS_INCLUDED_FROM_API_FILE
  85:Source/portable/MemMang/heap_1.c **** 
  86:Source/portable/MemMang/heap_1.c **** /* A few bytes might be lost to byte aligning the heap start address. */
  87:Source/portable/MemMang/heap_1.c **** #define configADJUSTED_HEAP_SIZE	( configTOTAL_HEAP_SIZE - portBYTE_ALIGNMENT )
  88:Source/portable/MemMang/heap_1.c **** 
  89:Source/portable/MemMang/heap_1.c **** /* Allocate the memory for the heap. */
  90:Source/portable/MemMang/heap_1.c **** static unsigned char ucHeap[ configTOTAL_HEAP_SIZE ];
  91:Source/portable/MemMang/heap_1.c **** static size_t xNextFreeByte = ( size_t ) 0;
  92:Source/portable/MemMang/heap_1.c **** 
  93:Source/portable/MemMang/heap_1.c **** /*-----------------------------------------------------------*/
  94:Source/portable/MemMang/heap_1.c **** 
  95:Source/portable/MemMang/heap_1.c **** void *pvPortMalloc( size_t xWantedSize )
  96:Source/portable/MemMang/heap_1.c **** {
  40              		.loc 1 96 0
  41              		.cfi_startproc
  42              		@ args = 0, pretend = 0, frame = 16
  43              		@ frame_needed = 1, uses_anonymous_args = 0
  44 0000 80B5     		push	{r7, lr}
  45              	.LCFI0:
  46              		.cfi_def_cfa_offset 8
  47              		.cfi_offset 7, -8
  48              		.cfi_offset 14, -4
  49 0002 84B0     		sub	sp, sp, #16
  50              	.LCFI1:
  51              		.cfi_def_cfa_offset 24
  52 0004 00AF     		add	r7, sp, #0
  53              	.LCFI2:
  54              		.cfi_def_cfa_register 7
  55 0006 7860     		str	r0, [r7, #4]
  97:Source/portable/MemMang/heap_1.c **** void *pvReturn = NULL;
  56              		.loc 1 97 0
  57 0008 0023     		movs	r3, #0
  58 000a FB60     		str	r3, [r7, #12]
  98:Source/portable/MemMang/heap_1.c **** static unsigned char *pucAlignedHeap = NULL;
  99:Source/portable/MemMang/heap_1.c **** 
 100:Source/portable/MemMang/heap_1.c **** 	/* Ensure that blocks are always aligned to the required number of bytes. */
 101:Source/portable/MemMang/heap_1.c **** 	#if portBYTE_ALIGNMENT != 1
 102:Source/portable/MemMang/heap_1.c **** 		if( xWantedSize & portBYTE_ALIGNMENT_MASK )
  59              		.loc 1 102 0
  60 000c 7B68     		ldr	r3, [r7, #4]
  61 000e 03F00703 		and	r3, r3, #7
  62 0012 002B     		cmp	r3, #0
  63 0014 04D0     		beq	.L2
 103:Source/portable/MemMang/heap_1.c **** 		{
 104:Source/portable/MemMang/heap_1.c **** 			/* Byte alignment required. */
 105:Source/portable/MemMang/heap_1.c **** 			xWantedSize += ( portBYTE_ALIGNMENT - ( xWantedSize & portBYTE_ALIGNMENT_MASK ) );
  64              		.loc 1 105 0
  65 0016 7B68     		ldr	r3, [r7, #4]
  66 0018 23F00703 		bic	r3, r3, #7
  67 001c 0833     		adds	r3, r3, #8
  68 001e 7B60     		str	r3, [r7, #4]
  69              	.L2:
 106:Source/portable/MemMang/heap_1.c **** 		}
 107:Source/portable/MemMang/heap_1.c **** 	#endif
 108:Source/portable/MemMang/heap_1.c **** 
 109:Source/portable/MemMang/heap_1.c **** 	vTaskSuspendAll();
  70              		.loc 1 109 0
  71 0020 FFF7FEFF 		bl	vTaskSuspendAll
 110:Source/portable/MemMang/heap_1.c **** 	{
 111:Source/portable/MemMang/heap_1.c **** 		if( pucAlignedHeap == NULL )
  72              		.loc 1 111 0
  73 0024 184B     		ldr	r3, .L7
  74 0026 1B68     		ldr	r3, [r3]
  75 0028 002B     		cmp	r3, #0
  76 002a 05D1     		bne	.L3
 112:Source/portable/MemMang/heap_1.c **** 		{
 113:Source/portable/MemMang/heap_1.c **** 			/* Ensure the heap starts on a correctly aligned boundary. */
 114:Source/portable/MemMang/heap_1.c **** 			pucAlignedHeap = ( unsigned char * ) ( ( ( portPOINTER_SIZE_TYPE ) &ucHeap[ portBYTE_ALIGNMENT ]
  77              		.loc 1 114 0
  78 002c 174B     		ldr	r3, .L7+4
  79 002e 23F00703 		bic	r3, r3, #7
  80 0032 1A46     		mov	r2, r3
  81 0034 144B     		ldr	r3, .L7
  82 0036 1A60     		str	r2, [r3]
  83              	.L3:
 115:Source/portable/MemMang/heap_1.c **** 		}
 116:Source/portable/MemMang/heap_1.c **** 
 117:Source/portable/MemMang/heap_1.c **** 		/* Check there is enough room left for the allocation. */
 118:Source/portable/MemMang/heap_1.c **** 		if( ( ( xNextFreeByte + xWantedSize ) < configADJUSTED_HEAP_SIZE ) &&
  84              		.loc 1 118 0
  85 0038 154B     		ldr	r3, .L7+8
  86 003a 1A68     		ldr	r2, [r3]
  87 003c 7B68     		ldr	r3, [r7, #4]
  88 003e 1A44     		add	r2, r2, r3
  89 0040 144B     		ldr	r3, .L7+12
  90 0042 9A42     		cmp	r2, r3
  91 0044 13D8     		bhi	.L4
 119:Source/portable/MemMang/heap_1.c **** 			( ( xNextFreeByte + xWantedSize ) > xNextFreeByte )	)/* Check for overflow. */
  92              		.loc 1 119 0 discriminator 1
  93 0046 124B     		ldr	r3, .L7+8
  94 0048 1A68     		ldr	r2, [r3]
  95 004a 7B68     		ldr	r3, [r7, #4]
  96 004c 1A44     		add	r2, r2, r3
  97 004e 104B     		ldr	r3, .L7+8
  98 0050 1B68     		ldr	r3, [r3]
 118:Source/portable/MemMang/heap_1.c **** 		if( ( ( xNextFreeByte + xWantedSize ) < configADJUSTED_HEAP_SIZE ) &&
  99              		.loc 1 118 0 discriminator 1
 100 0052 9A42     		cmp	r2, r3
 101 0054 0BD9     		bls	.L4
 120:Source/portable/MemMang/heap_1.c **** 		{
 121:Source/portable/MemMang/heap_1.c **** 			/* Return the next free byte then increment the index past this
 122:Source/portable/MemMang/heap_1.c **** 			block. */
 123:Source/portable/MemMang/heap_1.c **** 			pvReturn = pucAlignedHeap + xNextFreeByte;
 102              		.loc 1 123 0
 103 0056 0C4B     		ldr	r3, .L7
 104 0058 1A68     		ldr	r2, [r3]
 105 005a 0D4B     		ldr	r3, .L7+8
 106 005c 1B68     		ldr	r3, [r3]
 107 005e 1344     		add	r3, r3, r2
 108 0060 FB60     		str	r3, [r7, #12]
 124:Source/portable/MemMang/heap_1.c **** 			xNextFreeByte += xWantedSize;
 109              		.loc 1 124 0
 110 0062 0B4B     		ldr	r3, .L7+8
 111 0064 1A68     		ldr	r2, [r3]
 112 0066 7B68     		ldr	r3, [r7, #4]
 113 0068 1A44     		add	r2, r2, r3
 114 006a 094B     		ldr	r3, .L7+8
 115 006c 1A60     		str	r2, [r3]
 116              	.L4:
 125:Source/portable/MemMang/heap_1.c **** 		}
 126:Source/portable/MemMang/heap_1.c **** 
 127:Source/portable/MemMang/heap_1.c **** 		traceMALLOC( pvReturn, xWantedSize );
 128:Source/portable/MemMang/heap_1.c **** 	}	
 129:Source/portable/MemMang/heap_1.c **** 	xTaskResumeAll();
 117              		.loc 1 129 0
 118 006e FFF7FEFF 		bl	xTaskResumeAll
 130:Source/portable/MemMang/heap_1.c **** 
 131:Source/portable/MemMang/heap_1.c **** 	#if( configUSE_MALLOC_FAILED_HOOK == 1 )
 132:Source/portable/MemMang/heap_1.c **** 	{
 133:Source/portable/MemMang/heap_1.c **** 		if( pvReturn == NULL )
 119              		.loc 1 133 0
 120 0072 FB68     		ldr	r3, [r7, #12]
 121 0074 002B     		cmp	r3, #0
 122 0076 01D1     		bne	.L5
 123              	.LBB2:
 134:Source/portable/MemMang/heap_1.c **** 		{
 135:Source/portable/MemMang/heap_1.c **** 			extern void vApplicationMallocFailedHook( void );
 136:Source/portable/MemMang/heap_1.c **** 			vApplicationMallocFailedHook();
 124              		.loc 1 136 0
 125 0078 FFF7FEFF 		bl	vApplicationMallocFailedHook
 126              	.L5:
 127              	.LBE2:
 137:Source/portable/MemMang/heap_1.c **** 		}
 138:Source/portable/MemMang/heap_1.c **** 	}
 139:Source/portable/MemMang/heap_1.c **** 	#endif
 140:Source/portable/MemMang/heap_1.c **** 
 141:Source/portable/MemMang/heap_1.c **** 	return pvReturn;
 128              		.loc 1 141 0
 129 007c FB68     		ldr	r3, [r7, #12]
 142:Source/portable/MemMang/heap_1.c **** }
 130              		.loc 1 142 0
 131 007e 1846     		mov	r0, r3
 132 0080 1037     		adds	r7, r7, #16
 133 0082 BD46     		mov	sp, r7
 134              		@ sp needed
 135 0084 80BD     		pop	{r7, pc}
 136              	.L8:
 137 0086 00BF     		.align	2
 138              	.L7:
 139 0088 00000000 		.word	pucAlignedHeap.8084
 140 008c 08000000 		.word	ucHeap+8
 141 0090 00000000 		.word	xNextFreeByte
 142 0094 F72B0100 		.word	76791
 143              		.cfi_endproc
 144              	.LFE110:
 146              		.section	.text.vPortFree,"ax",%progbits
 147              		.align	2
 148              		.global	vPortFree
 149              		.thumb
 150              		.thumb_func
 152              	vPortFree:
 153              	.LFB111:
 143:Source/portable/MemMang/heap_1.c **** /*-----------------------------------------------------------*/
 144:Source/portable/MemMang/heap_1.c **** 
 145:Source/portable/MemMang/heap_1.c **** void vPortFree( void *pv )
 146:Source/portable/MemMang/heap_1.c **** {
 154              		.loc 1 146 0
 155              		.cfi_startproc
 156              		@ args = 0, pretend = 0, frame = 8
 157              		@ frame_needed = 1, uses_anonymous_args = 0
 158 0000 80B5     		push	{r7, lr}
 159              	.LCFI3:
 160              		.cfi_def_cfa_offset 8
 161              		.cfi_offset 7, -8
 162              		.cfi_offset 14, -4
 163 0002 82B0     		sub	sp, sp, #8
 164              	.LCFI4:
 165              		.cfi_def_cfa_offset 16
 166 0004 00AF     		add	r7, sp, #0
 167              	.LCFI5:
 168              		.cfi_def_cfa_register 7
 169 0006 7860     		str	r0, [r7, #4]
 147:Source/portable/MemMang/heap_1.c **** 	/* Memory cannot be freed using this scheme.  See heap_2.c, heap_3.c and
 148:Source/portable/MemMang/heap_1.c **** 	heap_4.c for alternative implementations, and the memory management pages of
 149:Source/portable/MemMang/heap_1.c **** 	http://www.FreeRTOS.org for more information. */
 150:Source/portable/MemMang/heap_1.c **** 	( void ) pv;
 151:Source/portable/MemMang/heap_1.c **** 
 152:Source/portable/MemMang/heap_1.c **** 	/* Force an assert as it is invalid to call this function. */
 153:Source/portable/MemMang/heap_1.c **** 	configASSERT( pv == NULL );
 170              		.loc 1 153 0
 171 0008 7B68     		ldr	r3, [r7, #4]
 172 000a 002B     		cmp	r3, #0
 173 000c 02D0     		beq	.L9
 174              		.loc 1 153 0 is_stmt 0 discriminator 1
 175 000e FFF7FEFF 		bl	ulPortSetInterruptMask
 176              	.L11:
 177 0012 FEE7     		b	.L11
 178              	.L9:
 154:Source/portable/MemMang/heap_1.c **** }
 179              		.loc 1 154 0 is_stmt 1
 180 0014 0837     		adds	r7, r7, #8
 181 0016 BD46     		mov	sp, r7
 182              		@ sp needed
 183 0018 80BD     		pop	{r7, pc}
 184              		.cfi_endproc
 185              	.LFE111:
 187 001a 00BF     		.section	.text.vPortInitialiseBlocks,"ax",%progbits
 188              		.align	2
 189              		.global	vPortInitialiseBlocks
 190              		.thumb
 191              		.thumb_func
 193              	vPortInitialiseBlocks:
 194              	.LFB112:
 155:Source/portable/MemMang/heap_1.c **** /*-----------------------------------------------------------*/
 156:Source/portable/MemMang/heap_1.c **** 
 157:Source/portable/MemMang/heap_1.c **** void vPortInitialiseBlocks( void )
 158:Source/portable/MemMang/heap_1.c **** {
 195              		.loc 1 158 0
 196              		.cfi_startproc
 197              		@ args = 0, pretend = 0, frame = 0
 198              		@ frame_needed = 1, uses_anonymous_args = 0
 199              		@ link register save eliminated.
 200 0000 80B4     		push	{r7}
 201              	.LCFI6:
 202              		.cfi_def_cfa_offset 4
 203              		.cfi_offset 7, -4
 204 0002 00AF     		add	r7, sp, #0
 205              	.LCFI7:
 206              		.cfi_def_cfa_register 7
 159:Source/portable/MemMang/heap_1.c **** 	/* Only required when static memory is not cleared. */
 160:Source/portable/MemMang/heap_1.c **** 	xNextFreeByte = ( size_t ) 0;
 207              		.loc 1 160 0
 208 0004 034B     		ldr	r3, .L13
 209 0006 0022     		movs	r2, #0
 210 0008 1A60     		str	r2, [r3]
 161:Source/portable/MemMang/heap_1.c **** }
 211              		.loc 1 161 0
 212 000a BD46     		mov	sp, r7
 213              		@ sp needed
 214 000c 5DF8047B 		ldr	r7, [sp], #4
 215 0010 7047     		bx	lr
 216              	.L14:
 217 0012 00BF     		.align	2
 218              	.L13:
 219 0014 00000000 		.word	xNextFreeByte
 220              		.cfi_endproc
 221              	.LFE112:
 223              		.section	.text.xPortGetFreeHeapSize,"ax",%progbits
 224              		.align	2
 225              		.global	xPortGetFreeHeapSize
 226              		.thumb
 227              		.thumb_func
 229              	xPortGetFreeHeapSize:
 230              	.LFB113:
 162:Source/portable/MemMang/heap_1.c **** /*-----------------------------------------------------------*/
 163:Source/portable/MemMang/heap_1.c **** 
 164:Source/portable/MemMang/heap_1.c **** size_t xPortGetFreeHeapSize( void )
 165:Source/portable/MemMang/heap_1.c **** {
 231              		.loc 1 165 0
 232              		.cfi_startproc
 233              		@ args = 0, pretend = 0, frame = 0
 234              		@ frame_needed = 1, uses_anonymous_args = 0
 235              		@ link register save eliminated.
 236 0000 80B4     		push	{r7}
 237              	.LCFI8:
 238              		.cfi_def_cfa_offset 4
 239              		.cfi_offset 7, -4
 240 0002 00AF     		add	r7, sp, #0
 241              	.LCFI9:
 242              		.cfi_def_cfa_register 7
 166:Source/portable/MemMang/heap_1.c **** 	return ( configADJUSTED_HEAP_SIZE - xNextFreeByte );
 243              		.loc 1 166 0
 244 0004 054B     		ldr	r3, .L17
 245 0006 1B68     		ldr	r3, [r3]
 246 0008 C3F59533 		rsb	r3, r3, #76288
 247 000c 03F5FC73 		add	r3, r3, #504
 167:Source/portable/MemMang/heap_1.c **** }
 248              		.loc 1 167 0
 249 0010 1846     		mov	r0, r3
 250 0012 BD46     		mov	sp, r7
 251              		@ sp needed
 252 0014 5DF8047B 		ldr	r7, [sp], #4
 253 0018 7047     		bx	lr
 254              	.L18:
 255 001a 00BF     		.align	2
 256              	.L17:
 257 001c 00000000 		.word	xNextFreeByte
 258              		.cfi_endproc
 259              	.LFE113:
 261              		.section	.bss.pucAlignedHeap.8084,"aw",%nobits
 262              		.align	2
 265              	pucAlignedHeap.8084:
 266 0000 00000000 		.space	4
 267              		.text
 268              	.Letext0:
 269              		.file 2 "/home/shihyu/data/STM32F4/gcc-arm-none-eabi-4_8-2013q4/lib/gcc/arm-none-eabi/4.8.3/includ
 270              		.file 3 "/home/shihyu/data/STM32F4/gcc-arm-none-eabi-4_8-2013q4/arm-none-eabi/include/stdint.h"
 271              		.file 4 "App/STM32F4-Discovery/Libraries/CMSIS/Include/core_cm4.h"