   1              		.syntax unified
   2              		.cpu cortex-m4
   3              		.eabi_attribute 27, 3
   4              		.fpu fpv4-sp-d16
   5              		.eabi_attribute 20, 1
   6              		.eabi_attribute 21, 1
   7              		.eabi_attribute 23, 3
   8              		.eabi_attribute 24, 1
   9              		.eabi_attribute 25, 1
  10              		.eabi_attribute 26, 1
  11              		.eabi_attribute 30, 6
  12              		.eabi_attribute 34, 1
  13              		.eabi_attribute 18, 4
  14              		.thumb
  15              		.file	"ParTest.c"
  16              		.text
  17              	.Ltext0:
  18              		.cfi_sections	.debug_frame
  19              		.section	.rodata.xLEDs,"a",%progbits
  20              		.align	2
  23              	xLEDs:
  24 0000 01       		.byte	1
  25 0001 00       		.byte	0
  26 0002 02       		.byte	2
  27 0003 03       		.byte	3
  28              		.section	.text.vParTestInitialise,"ax",%progbits
  29              		.align	2
  30              		.global	vParTestInitialise
  31              		.thumb
  32              		.thumb_func
  34              	vParTestInitialise:
  35              	.LFB110:
  36              		.file 1 "App/STM32F4-Discovery/ParTest.c"
   1:App/STM32F4-Discovery/ParTest.c **** /*
   2:App/STM32F4-Discovery/ParTest.c ****     FreeRTOS V7.5.3 - Copyright (C) 2013 Real Time Engineers Ltd. 
   3:App/STM32F4-Discovery/ParTest.c ****     All rights reserved
   4:App/STM32F4-Discovery/ParTest.c **** 
   5:App/STM32F4-Discovery/ParTest.c ****     VISIT http://www.FreeRTOS.org TO ENSURE YOU ARE USING THE LATEST VERSION.
   6:App/STM32F4-Discovery/ParTest.c **** 
   7:App/STM32F4-Discovery/ParTest.c ****     ***************************************************************************
   8:App/STM32F4-Discovery/ParTest.c ****      *                                                                       *
   9:App/STM32F4-Discovery/ParTest.c ****      *    FreeRTOS provides completely free yet professionally developed,    *
  10:App/STM32F4-Discovery/ParTest.c ****      *    robust, strictly quality controlled, supported, and cross          *
  11:App/STM32F4-Discovery/ParTest.c ****      *    platform software that has become a de facto standard.             *
  12:App/STM32F4-Discovery/ParTest.c ****      *                                                                       *
  13:App/STM32F4-Discovery/ParTest.c ****      *    Help yourself get started quickly and support the FreeRTOS         *
  14:App/STM32F4-Discovery/ParTest.c ****      *    project by purchasing a FreeRTOS tutorial book, reference          *
  15:App/STM32F4-Discovery/ParTest.c ****      *    manual, or both from: http://www.FreeRTOS.org/Documentation        *
  16:App/STM32F4-Discovery/ParTest.c ****      *                                                                       *
  17:App/STM32F4-Discovery/ParTest.c ****      *    Thank you!                                                         *
  18:App/STM32F4-Discovery/ParTest.c ****      *                                                                       *
  19:App/STM32F4-Discovery/ParTest.c ****     ***************************************************************************
  20:App/STM32F4-Discovery/ParTest.c **** 
  21:App/STM32F4-Discovery/ParTest.c ****     This file is part of the FreeRTOS distribution.
  22:App/STM32F4-Discovery/ParTest.c **** 
  23:App/STM32F4-Discovery/ParTest.c ****     FreeRTOS is free software; you can redistribute it and/or modify it under
  24:App/STM32F4-Discovery/ParTest.c ****     the terms of the GNU General Public License (version 2) as published by the
  25:App/STM32F4-Discovery/ParTest.c ****     Free Software Foundation >>!AND MODIFIED BY!<< the FreeRTOS exception.
  26:App/STM32F4-Discovery/ParTest.c **** 
  27:App/STM32F4-Discovery/ParTest.c ****     >>! NOTE: The modification to the GPL is included to allow you to distribute
  28:App/STM32F4-Discovery/ParTest.c ****     >>! a combined work that includes FreeRTOS without being obliged to provide
  29:App/STM32F4-Discovery/ParTest.c ****     >>! the source code for proprietary components outside of the FreeRTOS
  30:App/STM32F4-Discovery/ParTest.c ****     >>! kernel.
  31:App/STM32F4-Discovery/ParTest.c **** 
  32:App/STM32F4-Discovery/ParTest.c ****     FreeRTOS is distributed in the hope that it will be useful, but WITHOUT ANY
  33:App/STM32F4-Discovery/ParTest.c ****     WARRANTY; without even the implied warranty of MERCHANTABILITY or FITNESS
  34:App/STM32F4-Discovery/ParTest.c ****     FOR A PARTICULAR PURPOSE.  Full license text is available from the following
  35:App/STM32F4-Discovery/ParTest.c ****     link: http://www.freertos.org/a00114.html
  36:App/STM32F4-Discovery/ParTest.c **** 
  37:App/STM32F4-Discovery/ParTest.c ****     1 tab == 4 spaces!
  38:App/STM32F4-Discovery/ParTest.c **** 
  39:App/STM32F4-Discovery/ParTest.c ****     ***************************************************************************
  40:App/STM32F4-Discovery/ParTest.c ****      *                                                                       *
  41:App/STM32F4-Discovery/ParTest.c ****      *    Having a problem?  Start by reading the FAQ "My application does   *
  42:App/STM32F4-Discovery/ParTest.c ****      *    not run, what could be wrong?"                                     *
  43:App/STM32F4-Discovery/ParTest.c ****      *                                                                       *
  44:App/STM32F4-Discovery/ParTest.c ****      *    http://www.FreeRTOS.org/FAQHelp.html                               *
  45:App/STM32F4-Discovery/ParTest.c ****      *                                                                       *
  46:App/STM32F4-Discovery/ParTest.c ****     ***************************************************************************
  47:App/STM32F4-Discovery/ParTest.c **** 
  48:App/STM32F4-Discovery/ParTest.c ****     http://www.FreeRTOS.org - Documentation, books, training, latest versions,
  49:App/STM32F4-Discovery/ParTest.c ****     license and Real Time Engineers Ltd. contact details.
  50:App/STM32F4-Discovery/ParTest.c **** 
  51:App/STM32F4-Discovery/ParTest.c ****     http://www.FreeRTOS.org/plus - A selection of FreeRTOS ecosystem products,
  52:App/STM32F4-Discovery/ParTest.c ****     including FreeRTOS+Trace - an indispensable productivity tool, a DOS
  53:App/STM32F4-Discovery/ParTest.c ****     compatible FAT file system, and our tiny thread aware UDP/IP stack.
  54:App/STM32F4-Discovery/ParTest.c **** 
  55:App/STM32F4-Discovery/ParTest.c ****     http://www.OpenRTOS.com - Real Time Engineers ltd license FreeRTOS to High
  56:App/STM32F4-Discovery/ParTest.c ****     Integrity Systems to sell under the OpenRTOS brand.  Low cost OpenRTOS
  57:App/STM32F4-Discovery/ParTest.c ****     licenses offer ticketed support, indemnification and middleware.
  58:App/STM32F4-Discovery/ParTest.c **** 
  59:App/STM32F4-Discovery/ParTest.c ****     http://www.SafeRTOS.com - High Integrity Systems also provide a safety
  60:App/STM32F4-Discovery/ParTest.c ****     engineered and independently SIL3 certified version for use in safety and
  61:App/STM32F4-Discovery/ParTest.c ****     mission critical applications that require provable dependability.
  62:App/STM32F4-Discovery/ParTest.c **** 
  63:App/STM32F4-Discovery/ParTest.c ****     1 tab == 4 spaces!
  64:App/STM32F4-Discovery/ParTest.c **** */
  65:App/STM32F4-Discovery/ParTest.c **** 
  66:App/STM32F4-Discovery/ParTest.c **** /*-----------------------------------------------------------
  67:App/STM32F4-Discovery/ParTest.c ****  * Simple GPIO (parallel port) IO routines.
  68:App/STM32F4-Discovery/ParTest.c ****  *-----------------------------------------------------------*/
  69:App/STM32F4-Discovery/ParTest.c **** 
  70:App/STM32F4-Discovery/ParTest.c **** /* Kernel includes. */
  71:App/STM32F4-Discovery/ParTest.c **** #include "FreeRTOS.h"
  72:App/STM32F4-Discovery/ParTest.c **** #include "task.h"
  73:App/STM32F4-Discovery/ParTest.c **** 
  74:App/STM32F4-Discovery/ParTest.c **** /* Standard demo include. */
  75:App/STM32F4-Discovery/ParTest.c **** #include "partest.h"
  76:App/STM32F4-Discovery/ParTest.c **** 
  77:App/STM32F4-Discovery/ParTest.c **** /* Starter kit includes. */
  78:App/STM32F4-Discovery/ParTest.c **** #include "stm32f4_discovery.h"
  79:App/STM32F4-Discovery/ParTest.c **** 
  80:App/STM32F4-Discovery/ParTest.c **** /* Only the LEDs on one of the two seven segment displays are used. */
  81:App/STM32F4-Discovery/ParTest.c **** #define partstMAX_LEDS		4
  82:App/STM32F4-Discovery/ParTest.c **** 
  83:App/STM32F4-Discovery/ParTest.c **** static const Led_TypeDef xLEDs[ partstMAX_LEDS ] = { LED3, LED4, LED5, LED6 };
  84:App/STM32F4-Discovery/ParTest.c **** 
  85:App/STM32F4-Discovery/ParTest.c **** /*-----------------------------------------------------------*/
  86:App/STM32F4-Discovery/ParTest.c **** 
  87:App/STM32F4-Discovery/ParTest.c **** void vParTestInitialise( void )
  88:App/STM32F4-Discovery/ParTest.c **** {
  37              		.loc 1 88 0
  38              		.cfi_startproc
  39              		@ args = 0, pretend = 0, frame = 0
  40              		@ frame_needed = 1, uses_anonymous_args = 0
  41 0000 80B5     		push	{r7, lr}
  42              	.LCFI0:
  43              		.cfi_def_cfa_offset 8
  44              		.cfi_offset 7, -8
  45              		.cfi_offset 14, -4
  46 0002 00AF     		add	r7, sp, #0
  47              	.LCFI1:
  48              		.cfi_def_cfa_register 7
  89:App/STM32F4-Discovery/ParTest.c **** 	/* Initialise all four LEDs that are built onto the starter kit. */
  90:App/STM32F4-Discovery/ParTest.c **** 	STM_EVAL_LEDInit( LED3 );
  49              		.loc 1 90 0
  50 0004 0120     		movs	r0, #1
  51 0006 FFF7FEFF 		bl	STM_EVAL_LEDInit
  91:App/STM32F4-Discovery/ParTest.c **** 	STM_EVAL_LEDInit( LED4 );
  52              		.loc 1 91 0
  53 000a 0020     		movs	r0, #0
  54 000c FFF7FEFF 		bl	STM_EVAL_LEDInit
  92:App/STM32F4-Discovery/ParTest.c **** 	STM_EVAL_LEDInit( LED5 );
  55              		.loc 1 92 0
  56 0010 0220     		movs	r0, #2
  57 0012 FFF7FEFF 		bl	STM_EVAL_LEDInit
  93:App/STM32F4-Discovery/ParTest.c **** 	STM_EVAL_LEDInit( LED6 );
  58              		.loc 1 93 0
  59 0016 0320     		movs	r0, #3
  60 0018 FFF7FEFF 		bl	STM_EVAL_LEDInit
  94:App/STM32F4-Discovery/ParTest.c **** }
  61              		.loc 1 94 0
  62 001c 80BD     		pop	{r7, pc}
  63              		.cfi_endproc
  64              	.LFE110:
  66 001e 00BF     		.section	.text.vParTestSetLED,"ax",%progbits
  67              		.align	2
  68              		.global	vParTestSetLED
  69              		.thumb
  70              		.thumb_func
  72              	vParTestSetLED:
  73              	.LFB111:
  95:App/STM32F4-Discovery/ParTest.c **** /*-----------------------------------------------------------*/
  96:App/STM32F4-Discovery/ParTest.c **** 
  97:App/STM32F4-Discovery/ParTest.c **** void vParTestSetLED( unsigned long ulLED, signed portBASE_TYPE xValue )
  98:App/STM32F4-Discovery/ParTest.c **** {
  74              		.loc 1 98 0
  75              		.cfi_startproc
  76              		@ args = 0, pretend = 0, frame = 8
  77              		@ frame_needed = 1, uses_anonymous_args = 0
  78 0000 80B5     		push	{r7, lr}
  79              	.LCFI2:
  80              		.cfi_def_cfa_offset 8
  81              		.cfi_offset 7, -8
  82              		.cfi_offset 14, -4
  83 0002 82B0     		sub	sp, sp, #8
  84              	.LCFI3:
  85              		.cfi_def_cfa_offset 16
  86 0004 00AF     		add	r7, sp, #0
  87              	.LCFI4:
  88              		.cfi_def_cfa_register 7
  89 0006 7860     		str	r0, [r7, #4]
  90 0008 3960     		str	r1, [r7]
  99:App/STM32F4-Discovery/ParTest.c **** 	if( ulLED < partstMAX_LEDS )
  91              		.loc 1 99 0
  92 000a 7B68     		ldr	r3, [r7, #4]
  93 000c 032B     		cmp	r3, #3
  94 000e 11D8     		bhi	.L2
 100:App/STM32F4-Discovery/ParTest.c **** 	{
 101:App/STM32F4-Discovery/ParTest.c **** 		if( xValue == pdTRUE )
  95              		.loc 1 101 0
  96 0010 3B68     		ldr	r3, [r7]
  97 0012 012B     		cmp	r3, #1
  98 0014 07D1     		bne	.L4
 102:App/STM32F4-Discovery/ParTest.c **** 		{
 103:App/STM32F4-Discovery/ParTest.c **** 			STM_EVAL_LEDOn( xLEDs[ ulLED ] );
  99              		.loc 1 103 0
 100 0016 094A     		ldr	r2, .L5
 101 0018 7B68     		ldr	r3, [r7, #4]
 102 001a 1344     		add	r3, r3, r2
 103 001c 1B78     		ldrb	r3, [r3]	@ zero_extendqisi2
 104 001e 1846     		mov	r0, r3
 105 0020 FFF7FEFF 		bl	STM_EVAL_LEDOn
 106 0024 06E0     		b	.L2
 107              	.L4:
 104:App/STM32F4-Discovery/ParTest.c **** 		}
 105:App/STM32F4-Discovery/ParTest.c **** 		else
 106:App/STM32F4-Discovery/ParTest.c **** 		{
 107:App/STM32F4-Discovery/ParTest.c **** 			STM_EVAL_LEDOff( xLEDs[ ulLED ] );
 108              		.loc 1 107 0
 109 0026 054A     		ldr	r2, .L5
 110 0028 7B68     		ldr	r3, [r7, #4]
 111 002a 1344     		add	r3, r3, r2
 112 002c 1B78     		ldrb	r3, [r3]	@ zero_extendqisi2
 113 002e 1846     		mov	r0, r3
 114 0030 FFF7FEFF 		bl	STM_EVAL_LEDOff
 115              	.L2:
 108:App/STM32F4-Discovery/ParTest.c **** 		}
 109:App/STM32F4-Discovery/ParTest.c **** 	}
 110:App/STM32F4-Discovery/ParTest.c **** }
 116              		.loc 1 110 0
 117 0034 0837     		adds	r7, r7, #8
 118 0036 BD46     		mov	sp, r7
 119              		@ sp needed
 120 0038 80BD     		pop	{r7, pc}
 121              	.L6:
 122 003a 00BF     		.align	2
 123              	.L5:
 124 003c 00000000 		.word	xLEDs
 125              		.cfi_endproc
 126              	.LFE111:
 128              		.section	.text.vParTestToggleLED,"ax",%progbits
 129              		.align	2
 130              		.global	vParTestToggleLED
 131              		.thumb
 132              		.thumb_func
 134              	vParTestToggleLED:
 135              	.LFB112:
 111:App/STM32F4-Discovery/ParTest.c **** /*-----------------------------------------------------------*/
 112:App/STM32F4-Discovery/ParTest.c **** 
 113:App/STM32F4-Discovery/ParTest.c **** void vParTestToggleLED( unsigned long ulLED )
 114:App/STM32F4-Discovery/ParTest.c **** {
 136              		.loc 1 114 0
 137              		.cfi_startproc
 138              		@ args = 0, pretend = 0, frame = 8
 139              		@ frame_needed = 1, uses_anonymous_args = 0
 140 0000 80B5     		push	{r7, lr}
 141              	.LCFI5:
 142              		.cfi_def_cfa_offset 8
 143              		.cfi_offset 7, -8
 144              		.cfi_offset 14, -4
 145 0002 82B0     		sub	sp, sp, #8
 146              	.LCFI6:
 147              		.cfi_def_cfa_offset 16
 148 0004 00AF     		add	r7, sp, #0
 149              	.LCFI7:
 150              		.cfi_def_cfa_register 7
 151 0006 7860     		str	r0, [r7, #4]
 115:App/STM32F4-Discovery/ParTest.c **** 	if( ulLED < partstMAX_LEDS )
 152              		.loc 1 115 0
 153 0008 7B68     		ldr	r3, [r7, #4]
 154 000a 032B     		cmp	r3, #3
 155 000c 0AD8     		bhi	.L7
 116:App/STM32F4-Discovery/ParTest.c **** 	{
 117:App/STM32F4-Discovery/ParTest.c **** 		taskENTER_CRITICAL();
 156              		.loc 1 117 0
 157 000e FFF7FEFF 		bl	vPortEnterCritical
 118:App/STM32F4-Discovery/ParTest.c **** 		{
 119:App/STM32F4-Discovery/ParTest.c **** 			STM_EVAL_LEDToggle( xLEDs[ ulLED ] );
 158              		.loc 1 119 0
 159 0012 064A     		ldr	r2, .L9
 160 0014 7B68     		ldr	r3, [r7, #4]
 161 0016 1344     		add	r3, r3, r2
 162 0018 1B78     		ldrb	r3, [r3]	@ zero_extendqisi2
 163 001a 1846     		mov	r0, r3
 164 001c FFF7FEFF 		bl	STM_EVAL_LEDToggle
 120:App/STM32F4-Discovery/ParTest.c **** 		}
 121:App/STM32F4-Discovery/ParTest.c **** 		taskEXIT_CRITICAL();
 165              		.loc 1 121 0
 166 0020 FFF7FEFF 		bl	vPortExitCritical
 167              	.L7:
 122:App/STM32F4-Discovery/ParTest.c **** 	}
 123:App/STM32F4-Discovery/ParTest.c **** }
 168              		.loc 1 123 0
 169 0024 0837     		adds	r7, r7, #8
 170 0026 BD46     		mov	sp, r7
 171              		@ sp needed
 172 0028 80BD     		pop	{r7, pc}
 173              	.L10:
 174 002a 00BF     		.align	2
 175              	.L9:
 176 002c 00000000 		.word	xLEDs
 177              		.cfi_endproc
 178              	.LFE112:
 180              		.text
 181              	.Letext0:
 182              		.file 2 "/home/shihyu/data/STM32F4/gcc-arm-none-eabi-4_8-2013q4/arm-none-eabi/include/stdint.h"
 183              		.file 3 "App/STM32F4-Discovery/board/stm32f4_discovery.h"
 184              		.file 4 "App/STM32F4-Discovery/Libraries/CMSIS/Include/core_cm4.h"