   1              		.syntax unified
   2              		.cpu cortex-m4
   3              		.eabi_attribute 27, 3
   4              		.fpu fpv4-sp-d16
   5              		.eabi_attribute 20, 1
   6              		.eabi_attribute 21, 1
   7              		.eabi_attribute 23, 3
   8              		.eabi_attribute 24, 1
   9              		.eabi_attribute 25, 1
  10              		.eabi_attribute 26, 1
  11              		.eabi_attribute 30, 6
  12              		.eabi_attribute 34, 1
  13              		.eabi_attribute 18, 4
  14              		.thumb
  15              		.file	"stm32f4xx_tim.c"
  16              		.text
  17              	.Ltext0:
  18              		.cfi_sections	.debug_frame
  19              		.section	.rodata
  20              		.align	2
  21              	.LC0:
  22 0000 4170702F 		.ascii	"App/STM32F4-Discovery/Libraries/STM32F4xx_StdPeriph"
  22      53544D33 
  22      3246342D 
  22      44697363 
  22      6F766572 
  23 0033 5F447269 		.ascii	"_Driver/src/stm32f4xx_tim.c\000"
  23      7665722F 
  23      7372632F 
  23      73746D33 
  23      32663478 
  24 004f 00       		.section	.text.TIM_DeInit,"ax",%progbits
  25              		.align	2
  26              		.global	TIM_DeInit
  27              		.thumb
  28              		.thumb_func
  30              	TIM_DeInit:
  31              	.LFB110:
  32              		.file 1 "App/STM32F4-Discovery/Libraries/STM32F4xx_StdPeriph_Driver/src/stm32f4xx_tim.c"
   1:App/STM32F4-Discovery/Libraries/STM32F4xx_StdPeriph_Driver/src/stm32f4xx_tim.c **** /**
   2:App/STM32F4-Discovery/Libraries/STM32F4xx_StdPeriph_Driver/src/stm32f4xx_tim.c ****   ******************************************************************************
   3:App/STM32F4-Discovery/Libraries/STM32F4xx_StdPeriph_Driver/src/stm32f4xx_tim.c ****   * @file    stm32f4xx_tim.c
   4:App/STM32F4-Discovery/Libraries/STM32F4xx_StdPeriph_Driver/src/stm32f4xx_tim.c ****   * @author  MCD Application Team
   5:App/STM32F4-Discovery/Libraries/STM32F4xx_StdPeriph_Driver/src/stm32f4xx_tim.c ****   * @version V1.0.0
   6:App/STM32F4-Discovery/Libraries/STM32F4xx_StdPeriph_Driver/src/stm32f4xx_tim.c ****   * @date    30-September-2011
   7:App/STM32F4-Discovery/Libraries/STM32F4xx_StdPeriph_Driver/src/stm32f4xx_tim.c ****   * @brief   This file provides firmware functions to manage the following 
   8:App/STM32F4-Discovery/Libraries/STM32F4xx_StdPeriph_Driver/src/stm32f4xx_tim.c ****   *          functionalities of the TIM peripheral:
   9:App/STM32F4-Discovery/Libraries/STM32F4xx_StdPeriph_Driver/src/stm32f4xx_tim.c ****   *            - TimeBase management
  10:App/STM32F4-Discovery/Libraries/STM32F4xx_StdPeriph_Driver/src/stm32f4xx_tim.c ****   *            - Output Compare management
  11:App/STM32F4-Discovery/Libraries/STM32F4xx_StdPeriph_Driver/src/stm32f4xx_tim.c ****   *            - Input Capture management
  12:App/STM32F4-Discovery/Libraries/STM32F4xx_StdPeriph_Driver/src/stm32f4xx_tim.c ****   *            - Advanced-control timers (TIM1 and TIM8) specific features  
  13:App/STM32F4-Discovery/Libraries/STM32F4xx_StdPeriph_Driver/src/stm32f4xx_tim.c ****   *            - Interrupts, DMA and flags management
  14:App/STM32F4-Discovery/Libraries/STM32F4xx_StdPeriph_Driver/src/stm32f4xx_tim.c ****   *            - Clocks management
  15:App/STM32F4-Discovery/Libraries/STM32F4xx_StdPeriph_Driver/src/stm32f4xx_tim.c ****   *            - Synchronization management
  16:App/STM32F4-Discovery/Libraries/STM32F4xx_StdPeriph_Driver/src/stm32f4xx_tim.c ****   *            - Specific interface management
  17:App/STM32F4-Discovery/Libraries/STM32F4xx_StdPeriph_Driver/src/stm32f4xx_tim.c ****   *            - Specific remapping management      
  18:App/STM32F4-Discovery/Libraries/STM32F4xx_StdPeriph_Driver/src/stm32f4xx_tim.c ****   *              
  19:App/STM32F4-Discovery/Libraries/STM32F4xx_StdPeriph_Driver/src/stm32f4xx_tim.c ****   *  @verbatim
  20:App/STM32F4-Discovery/Libraries/STM32F4xx_StdPeriph_Driver/src/stm32f4xx_tim.c ****   *  
  21:App/STM32F4-Discovery/Libraries/STM32F4xx_StdPeriph_Driver/src/stm32f4xx_tim.c ****   *          ===================================================================
  22:App/STM32F4-Discovery/Libraries/STM32F4xx_StdPeriph_Driver/src/stm32f4xx_tim.c ****   *                                 How to use this driver
  23:App/STM32F4-Discovery/Libraries/STM32F4xx_StdPeriph_Driver/src/stm32f4xx_tim.c ****   *          ===================================================================
  24:App/STM32F4-Discovery/Libraries/STM32F4xx_StdPeriph_Driver/src/stm32f4xx_tim.c ****   *          This driver provides functions to configure and program the TIM 
  25:App/STM32F4-Discovery/Libraries/STM32F4xx_StdPeriph_Driver/src/stm32f4xx_tim.c ****   *          of all STM32F4xx devices.
  26:App/STM32F4-Discovery/Libraries/STM32F4xx_StdPeriph_Driver/src/stm32f4xx_tim.c ****   *          These functions are split in 9 groups: 
  27:App/STM32F4-Discovery/Libraries/STM32F4xx_StdPeriph_Driver/src/stm32f4xx_tim.c ****   *   
  28:App/STM32F4-Discovery/Libraries/STM32F4xx_StdPeriph_Driver/src/stm32f4xx_tim.c ****   *          1. TIM TimeBase management: this group includes all needed functions 
  29:App/STM32F4-Discovery/Libraries/STM32F4xx_StdPeriph_Driver/src/stm32f4xx_tim.c ****   *             to configure the TM Timebase unit:
  30:App/STM32F4-Discovery/Libraries/STM32F4xx_StdPeriph_Driver/src/stm32f4xx_tim.c ****   *                   - Set/Get Prescaler
  31:App/STM32F4-Discovery/Libraries/STM32F4xx_StdPeriph_Driver/src/stm32f4xx_tim.c ****   *                   - Set/Get Autoreload  
  32:App/STM32F4-Discovery/Libraries/STM32F4xx_StdPeriph_Driver/src/stm32f4xx_tim.c ****   *                   - Counter modes configuration
  33:App/STM32F4-Discovery/Libraries/STM32F4xx_StdPeriph_Driver/src/stm32f4xx_tim.c ****   *                   - Set Clock division  
  34:App/STM32F4-Discovery/Libraries/STM32F4xx_StdPeriph_Driver/src/stm32f4xx_tim.c ****   *                   - Select the One Pulse mode
  35:App/STM32F4-Discovery/Libraries/STM32F4xx_StdPeriph_Driver/src/stm32f4xx_tim.c ****   *                   - Update Request Configuration
  36:App/STM32F4-Discovery/Libraries/STM32F4xx_StdPeriph_Driver/src/stm32f4xx_tim.c ****   *                   - Update Disable Configuration
  37:App/STM32F4-Discovery/Libraries/STM32F4xx_StdPeriph_Driver/src/stm32f4xx_tim.c ****   *                   - Auto-Preload Configuration 
  38:App/STM32F4-Discovery/Libraries/STM32F4xx_StdPeriph_Driver/src/stm32f4xx_tim.c ****   *                   - Enable/Disable the counter     
  39:App/STM32F4-Discovery/Libraries/STM32F4xx_StdPeriph_Driver/src/stm32f4xx_tim.c ****   *                 
  40:App/STM32F4-Discovery/Libraries/STM32F4xx_StdPeriph_Driver/src/stm32f4xx_tim.c ****   *          2. TIM Output Compare management: this group includes all needed 
  41:App/STM32F4-Discovery/Libraries/STM32F4xx_StdPeriph_Driver/src/stm32f4xx_tim.c ****   *             functions to configure the Capture/Compare unit used in Output 
  42:App/STM32F4-Discovery/Libraries/STM32F4xx_StdPeriph_Driver/src/stm32f4xx_tim.c ****   *             compare mode: 
  43:App/STM32F4-Discovery/Libraries/STM32F4xx_StdPeriph_Driver/src/stm32f4xx_tim.c ****   *                   - Configure each channel, independently, in Output Compare mode
  44:App/STM32F4-Discovery/Libraries/STM32F4xx_StdPeriph_Driver/src/stm32f4xx_tim.c ****   *                   - Select the output compare modes
  45:App/STM32F4-Discovery/Libraries/STM32F4xx_StdPeriph_Driver/src/stm32f4xx_tim.c ****   *                   - Select the Polarities of each channel
  46:App/STM32F4-Discovery/Libraries/STM32F4xx_StdPeriph_Driver/src/stm32f4xx_tim.c ****   *                   - Set/Get the Capture/Compare register values
  47:App/STM32F4-Discovery/Libraries/STM32F4xx_StdPeriph_Driver/src/stm32f4xx_tim.c ****   *                   - Select the Output Compare Fast mode 
  48:App/STM32F4-Discovery/Libraries/STM32F4xx_StdPeriph_Driver/src/stm32f4xx_tim.c ****   *                   - Select the Output Compare Forced mode  
  49:App/STM32F4-Discovery/Libraries/STM32F4xx_StdPeriph_Driver/src/stm32f4xx_tim.c ****   *                   - Output Compare-Preload Configuration 
  50:App/STM32F4-Discovery/Libraries/STM32F4xx_StdPeriph_Driver/src/stm32f4xx_tim.c ****   *                   - Clear Output Compare Reference
  51:App/STM32F4-Discovery/Libraries/STM32F4xx_StdPeriph_Driver/src/stm32f4xx_tim.c ****   *                   - Select the OCREF Clear signal
  52:App/STM32F4-Discovery/Libraries/STM32F4xx_StdPeriph_Driver/src/stm32f4xx_tim.c ****   *                   - Enable/Disable the Capture/Compare Channels    
  53:App/STM32F4-Discovery/Libraries/STM32F4xx_StdPeriph_Driver/src/stm32f4xx_tim.c ****   *                   
  54:App/STM32F4-Discovery/Libraries/STM32F4xx_StdPeriph_Driver/src/stm32f4xx_tim.c ****   *          3. TIM Input Capture management: this group includes all needed 
  55:App/STM32F4-Discovery/Libraries/STM32F4xx_StdPeriph_Driver/src/stm32f4xx_tim.c ****   *             functions to configure the Capture/Compare unit used in 
  56:App/STM32F4-Discovery/Libraries/STM32F4xx_StdPeriph_Driver/src/stm32f4xx_tim.c ****   *             Input Capture mode:
  57:App/STM32F4-Discovery/Libraries/STM32F4xx_StdPeriph_Driver/src/stm32f4xx_tim.c ****   *                   - Configure each channel in input capture mode
  58:App/STM32F4-Discovery/Libraries/STM32F4xx_StdPeriph_Driver/src/stm32f4xx_tim.c ****   *                   - Configure Channel1/2 in PWM Input mode
  59:App/STM32F4-Discovery/Libraries/STM32F4xx_StdPeriph_Driver/src/stm32f4xx_tim.c ****   *                   - Set the Input Capture Prescaler
  60:App/STM32F4-Discovery/Libraries/STM32F4xx_StdPeriph_Driver/src/stm32f4xx_tim.c ****   *                   - Get the Capture/Compare values      
  61:App/STM32F4-Discovery/Libraries/STM32F4xx_StdPeriph_Driver/src/stm32f4xx_tim.c ****   *                   
  62:App/STM32F4-Discovery/Libraries/STM32F4xx_StdPeriph_Driver/src/stm32f4xx_tim.c ****   *          4. Advanced-control timers (TIM1 and TIM8) specific features
  63:App/STM32F4-Discovery/Libraries/STM32F4xx_StdPeriph_Driver/src/stm32f4xx_tim.c ****   *                   - Configures the Break input, dead time, Lock level, the OSSI,
  64:App/STM32F4-Discovery/Libraries/STM32F4xx_StdPeriph_Driver/src/stm32f4xx_tim.c ****   *                      the OSSR State and the AOE(automatic output enable)
  65:App/STM32F4-Discovery/Libraries/STM32F4xx_StdPeriph_Driver/src/stm32f4xx_tim.c ****   *                   - Enable/Disable the TIM peripheral Main Outputs
  66:App/STM32F4-Discovery/Libraries/STM32F4xx_StdPeriph_Driver/src/stm32f4xx_tim.c ****   *                   - Select the Commutation event
  67:App/STM32F4-Discovery/Libraries/STM32F4xx_StdPeriph_Driver/src/stm32f4xx_tim.c ****   *                   - Set/Reset the Capture Compare Preload Control bit
  68:App/STM32F4-Discovery/Libraries/STM32F4xx_StdPeriph_Driver/src/stm32f4xx_tim.c ****   *                              
  69:App/STM32F4-Discovery/Libraries/STM32F4xx_StdPeriph_Driver/src/stm32f4xx_tim.c ****   *          5. TIM interrupts, DMA and flags management
  70:App/STM32F4-Discovery/Libraries/STM32F4xx_StdPeriph_Driver/src/stm32f4xx_tim.c ****   *                   - Enable/Disable interrupt sources
  71:App/STM32F4-Discovery/Libraries/STM32F4xx_StdPeriph_Driver/src/stm32f4xx_tim.c ****   *                   - Get flags status
  72:App/STM32F4-Discovery/Libraries/STM32F4xx_StdPeriph_Driver/src/stm32f4xx_tim.c ****   *                   - Clear flags/ Pending bits
  73:App/STM32F4-Discovery/Libraries/STM32F4xx_StdPeriph_Driver/src/stm32f4xx_tim.c ****   *                   - Enable/Disable DMA requests 
  74:App/STM32F4-Discovery/Libraries/STM32F4xx_StdPeriph_Driver/src/stm32f4xx_tim.c ****   *                   - Configure DMA burst mode
  75:App/STM32F4-Discovery/Libraries/STM32F4xx_StdPeriph_Driver/src/stm32f4xx_tim.c ****   *                   - Select CaptureCompare DMA request  
  76:App/STM32F4-Discovery/Libraries/STM32F4xx_StdPeriph_Driver/src/stm32f4xx_tim.c ****   *              
  77:App/STM32F4-Discovery/Libraries/STM32F4xx_StdPeriph_Driver/src/stm32f4xx_tim.c ****   *          6. TIM clocks management: this group includes all needed functions 
  78:App/STM32F4-Discovery/Libraries/STM32F4xx_StdPeriph_Driver/src/stm32f4xx_tim.c ****   *             to configure the clock controller unit:
  79:App/STM32F4-Discovery/Libraries/STM32F4xx_StdPeriph_Driver/src/stm32f4xx_tim.c ****   *                   - Select internal/External clock
  80:App/STM32F4-Discovery/Libraries/STM32F4xx_StdPeriph_Driver/src/stm32f4xx_tim.c ****   *                   - Select the external clock mode: ETR(Mode1/Mode2), TIx or ITRx
  81:App/STM32F4-Discovery/Libraries/STM32F4xx_StdPeriph_Driver/src/stm32f4xx_tim.c ****   *         
  82:App/STM32F4-Discovery/Libraries/STM32F4xx_StdPeriph_Driver/src/stm32f4xx_tim.c ****   *          7. TIM synchronization management: this group includes all needed 
  83:App/STM32F4-Discovery/Libraries/STM32F4xx_StdPeriph_Driver/src/stm32f4xx_tim.c ****   *             functions to configure the Synchronization unit:
  84:App/STM32F4-Discovery/Libraries/STM32F4xx_StdPeriph_Driver/src/stm32f4xx_tim.c ****   *                   - Select Input Trigger  
  85:App/STM32F4-Discovery/Libraries/STM32F4xx_StdPeriph_Driver/src/stm32f4xx_tim.c ****   *                   - Select Output Trigger  
  86:App/STM32F4-Discovery/Libraries/STM32F4xx_StdPeriph_Driver/src/stm32f4xx_tim.c ****   *                   - Select Master Slave Mode 
  87:App/STM32F4-Discovery/Libraries/STM32F4xx_StdPeriph_Driver/src/stm32f4xx_tim.c ****   *                   - ETR Configuration when used as external trigger   
  88:App/STM32F4-Discovery/Libraries/STM32F4xx_StdPeriph_Driver/src/stm32f4xx_tim.c ****   *     
  89:App/STM32F4-Discovery/Libraries/STM32F4xx_StdPeriph_Driver/src/stm32f4xx_tim.c ****   *          8. TIM specific interface management, this group includes all 
  90:App/STM32F4-Discovery/Libraries/STM32F4xx_StdPeriph_Driver/src/stm32f4xx_tim.c ****   *             needed functions to use the specific TIM interface:
  91:App/STM32F4-Discovery/Libraries/STM32F4xx_StdPeriph_Driver/src/stm32f4xx_tim.c ****   *                   - Encoder Interface Configuration
  92:App/STM32F4-Discovery/Libraries/STM32F4xx_StdPeriph_Driver/src/stm32f4xx_tim.c ****   *                   - Select Hall Sensor   
  93:App/STM32F4-Discovery/Libraries/STM32F4xx_StdPeriph_Driver/src/stm32f4xx_tim.c ****   *         
  94:App/STM32F4-Discovery/Libraries/STM32F4xx_StdPeriph_Driver/src/stm32f4xx_tim.c ****   *          9. TIM specific remapping management includes the Remapping 
  95:App/STM32F4-Discovery/Libraries/STM32F4xx_StdPeriph_Driver/src/stm32f4xx_tim.c ****   *             configuration of specific timers               
  96:App/STM32F4-Discovery/Libraries/STM32F4xx_StdPeriph_Driver/src/stm32f4xx_tim.c ****   *   
  97:App/STM32F4-Discovery/Libraries/STM32F4xx_StdPeriph_Driver/src/stm32f4xx_tim.c ****   *  @endverbatim
  98:App/STM32F4-Discovery/Libraries/STM32F4xx_StdPeriph_Driver/src/stm32f4xx_tim.c ****   *    
  99:App/STM32F4-Discovery/Libraries/STM32F4xx_StdPeriph_Driver/src/stm32f4xx_tim.c ****   ******************************************************************************
 100:App/STM32F4-Discovery/Libraries/STM32F4xx_StdPeriph_Driver/src/stm32f4xx_tim.c ****   * @attention
 101:App/STM32F4-Discovery/Libraries/STM32F4xx_StdPeriph_Driver/src/stm32f4xx_tim.c ****   *
 102:App/STM32F4-Discovery/Libraries/STM32F4xx_StdPeriph_Driver/src/stm32f4xx_tim.c ****   * THE PRESENT FIRMWARE WHICH IS FOR GUIDANCE ONLY AIMS AT PROVIDING CUSTOMERS
 103:App/STM32F4-Discovery/Libraries/STM32F4xx_StdPeriph_Driver/src/stm32f4xx_tim.c ****   * WITH CODING INFORMATION REGARDING THEIR PRODUCTS IN ORDER FOR THEM TO SAVE
 104:App/STM32F4-Discovery/Libraries/STM32F4xx_StdPeriph_Driver/src/stm32f4xx_tim.c ****   * TIME. AS A RESULT, STMICROELECTRONICS SHALL NOT BE HELD LIABLE FOR ANY
 105:App/STM32F4-Discovery/Libraries/STM32F4xx_StdPeriph_Driver/src/stm32f4xx_tim.c ****   * DIRECT, INDIRECT OR CONSEQUENTIAL DAMAGES WITH RESPECT TO ANY CLAIMS ARISING
 106:App/STM32F4-Discovery/Libraries/STM32F4xx_StdPeriph_Driver/src/stm32f4xx_tim.c ****   * FROM THE CONTENT OF SUCH FIRMWARE AND/OR THE USE MADE BY CUSTOMERS OF THE
 107:App/STM32F4-Discovery/Libraries/STM32F4xx_StdPeriph_Driver/src/stm32f4xx_tim.c ****   * CODING INFORMATION CONTAINED HEREIN IN CONNECTION WITH THEIR PRODUCTS.
 108:App/STM32F4-Discovery/Libraries/STM32F4xx_StdPeriph_Driver/src/stm32f4xx_tim.c ****   *
 109:App/STM32F4-Discovery/Libraries/STM32F4xx_StdPeriph_Driver/src/stm32f4xx_tim.c ****   * <h2><center>&copy; COPYRIGHT 2011 STMicroelectronics</center></h2>
 110:App/STM32F4-Discovery/Libraries/STM32F4xx_StdPeriph_Driver/src/stm32f4xx_tim.c ****   ******************************************************************************
 111:App/STM32F4-Discovery/Libraries/STM32F4xx_StdPeriph_Driver/src/stm32f4xx_tim.c ****   */
 112:App/STM32F4-Discovery/Libraries/STM32F4xx_StdPeriph_Driver/src/stm32f4xx_tim.c **** 
 113:App/STM32F4-Discovery/Libraries/STM32F4xx_StdPeriph_Driver/src/stm32f4xx_tim.c **** /* Includes ------------------------------------------------------------------*/
 114:App/STM32F4-Discovery/Libraries/STM32F4xx_StdPeriph_Driver/src/stm32f4xx_tim.c **** #include "stm32f4xx_tim.h"
 115:App/STM32F4-Discovery/Libraries/STM32F4xx_StdPeriph_Driver/src/stm32f4xx_tim.c **** #include "stm32f4xx_rcc.h"
 116:App/STM32F4-Discovery/Libraries/STM32F4xx_StdPeriph_Driver/src/stm32f4xx_tim.c **** 
 117:App/STM32F4-Discovery/Libraries/STM32F4xx_StdPeriph_Driver/src/stm32f4xx_tim.c **** /** @addtogroup STM32F4xx_StdPeriph_Driver
 118:App/STM32F4-Discovery/Libraries/STM32F4xx_StdPeriph_Driver/src/stm32f4xx_tim.c ****   * @{
 119:App/STM32F4-Discovery/Libraries/STM32F4xx_StdPeriph_Driver/src/stm32f4xx_tim.c ****   */
 120:App/STM32F4-Discovery/Libraries/STM32F4xx_StdPeriph_Driver/src/stm32f4xx_tim.c **** 
 121:App/STM32F4-Discovery/Libraries/STM32F4xx_StdPeriph_Driver/src/stm32f4xx_tim.c **** /** @defgroup TIM 
 122:App/STM32F4-Discovery/Libraries/STM32F4xx_StdPeriph_Driver/src/stm32f4xx_tim.c ****   * @brief TIM driver modules
 123:App/STM32F4-Discovery/Libraries/STM32F4xx_StdPeriph_Driver/src/stm32f4xx_tim.c ****   * @{
 124:App/STM32F4-Discovery/Libraries/STM32F4xx_StdPeriph_Driver/src/stm32f4xx_tim.c ****   */
 125:App/STM32F4-Discovery/Libraries/STM32F4xx_StdPeriph_Driver/src/stm32f4xx_tim.c **** 
 126:App/STM32F4-Discovery/Libraries/STM32F4xx_StdPeriph_Driver/src/stm32f4xx_tim.c **** /* Private typedef -----------------------------------------------------------*/
 127:App/STM32F4-Discovery/Libraries/STM32F4xx_StdPeriph_Driver/src/stm32f4xx_tim.c **** /* Private define ------------------------------------------------------------*/
 128:App/STM32F4-Discovery/Libraries/STM32F4xx_StdPeriph_Driver/src/stm32f4xx_tim.c **** 
 129:App/STM32F4-Discovery/Libraries/STM32F4xx_StdPeriph_Driver/src/stm32f4xx_tim.c **** /* ---------------------- TIM registers bit mask ------------------------ */
 130:App/STM32F4-Discovery/Libraries/STM32F4xx_StdPeriph_Driver/src/stm32f4xx_tim.c **** #define SMCR_ETR_MASK      ((uint16_t)0x00FF) 
 131:App/STM32F4-Discovery/Libraries/STM32F4xx_StdPeriph_Driver/src/stm32f4xx_tim.c **** #define CCMR_OFFSET        ((uint16_t)0x0018)
 132:App/STM32F4-Discovery/Libraries/STM32F4xx_StdPeriph_Driver/src/stm32f4xx_tim.c **** #define CCER_CCE_SET       ((uint16_t)0x0001)  
 133:App/STM32F4-Discovery/Libraries/STM32F4xx_StdPeriph_Driver/src/stm32f4xx_tim.c **** #define	CCER_CCNE_SET      ((uint16_t)0x0004) 
 134:App/STM32F4-Discovery/Libraries/STM32F4xx_StdPeriph_Driver/src/stm32f4xx_tim.c **** #define CCMR_OC13M_MASK    ((uint16_t)0xFF8F)
 135:App/STM32F4-Discovery/Libraries/STM32F4xx_StdPeriph_Driver/src/stm32f4xx_tim.c **** #define CCMR_OC24M_MASK    ((uint16_t)0x8FFF) 
 136:App/STM32F4-Discovery/Libraries/STM32F4xx_StdPeriph_Driver/src/stm32f4xx_tim.c **** 
 137:App/STM32F4-Discovery/Libraries/STM32F4xx_StdPeriph_Driver/src/stm32f4xx_tim.c **** /* Private macro -------------------------------------------------------------*/
 138:App/STM32F4-Discovery/Libraries/STM32F4xx_StdPeriph_Driver/src/stm32f4xx_tim.c **** /* Private variables ---------------------------------------------------------*/
 139:App/STM32F4-Discovery/Libraries/STM32F4xx_StdPeriph_Driver/src/stm32f4xx_tim.c **** /* Private function prototypes -----------------------------------------------*/
 140:App/STM32F4-Discovery/Libraries/STM32F4xx_StdPeriph_Driver/src/stm32f4xx_tim.c **** static void TI1_Config(TIM_TypeDef* TIMx, uint16_t TIM_ICPolarity, uint16_t TIM_ICSelection,
 141:App/STM32F4-Discovery/Libraries/STM32F4xx_StdPeriph_Driver/src/stm32f4xx_tim.c ****                        uint16_t TIM_ICFilter);
 142:App/STM32F4-Discovery/Libraries/STM32F4xx_StdPeriph_Driver/src/stm32f4xx_tim.c **** static void TI2_Config(TIM_TypeDef* TIMx, uint16_t TIM_ICPolarity, uint16_t TIM_ICSelection,
 143:App/STM32F4-Discovery/Libraries/STM32F4xx_StdPeriph_Driver/src/stm32f4xx_tim.c ****                        uint16_t TIM_ICFilter);
 144:App/STM32F4-Discovery/Libraries/STM32F4xx_StdPeriph_Driver/src/stm32f4xx_tim.c **** static void TI3_Config(TIM_TypeDef* TIMx, uint16_t TIM_ICPolarity, uint16_t TIM_ICSelection,
 145:App/STM32F4-Discovery/Libraries/STM32F4xx_StdPeriph_Driver/src/stm32f4xx_tim.c ****                        uint16_t TIM_ICFilter);
 146:App/STM32F4-Discovery/Libraries/STM32F4xx_StdPeriph_Driver/src/stm32f4xx_tim.c **** static void TI4_Config(TIM_TypeDef* TIMx, uint16_t TIM_ICPolarity, uint16_t TIM_ICSelection,
 147:App/STM32F4-Discovery/Libraries/STM32F4xx_StdPeriph_Driver/src/stm32f4xx_tim.c ****                        uint16_t TIM_ICFilter);
 148:App/STM32F4-Discovery/Libraries/STM32F4xx_StdPeriph_Driver/src/stm32f4xx_tim.c **** 
 149:App/STM32F4-Discovery/Libraries/STM32F4xx_StdPeriph_Driver/src/stm32f4xx_tim.c **** /* Private functions ---------------------------------------------------------*/
 150:App/STM32F4-Discovery/Libraries/STM32F4xx_StdPeriph_Driver/src/stm32f4xx_tim.c **** 
 151:App/STM32F4-Discovery/Libraries/STM32F4xx_StdPeriph_Driver/src/stm32f4xx_tim.c **** /** @defgroup TIM_Private_Functions
 152:App/STM32F4-Discovery/Libraries/STM32F4xx_StdPeriph_Driver/src/stm32f4xx_tim.c ****   * @{
 153:App/STM32F4-Discovery/Libraries/STM32F4xx_StdPeriph_Driver/src/stm32f4xx_tim.c ****   */
 154:App/STM32F4-Discovery/Libraries/STM32F4xx_StdPeriph_Driver/src/stm32f4xx_tim.c **** 
 155:App/STM32F4-Discovery/Libraries/STM32F4xx_StdPeriph_Driver/src/stm32f4xx_tim.c **** /** @defgroup TIM_Group1 TimeBase management functions
 156:App/STM32F4-Discovery/Libraries/STM32F4xx_StdPeriph_Driver/src/stm32f4xx_tim.c ****  *  @brief   TimeBase management functions 
 157:App/STM32F4-Discovery/Libraries/STM32F4xx_StdPeriph_Driver/src/stm32f4xx_tim.c ****  *
 158:App/STM32F4-Discovery/Libraries/STM32F4xx_StdPeriph_Driver/src/stm32f4xx_tim.c **** @verbatim   
 159:App/STM32F4-Discovery/Libraries/STM32F4xx_StdPeriph_Driver/src/stm32f4xx_tim.c ****  ===============================================================================
 160:App/STM32F4-Discovery/Libraries/STM32F4xx_StdPeriph_Driver/src/stm32f4xx_tim.c ****                        TimeBase management functions
 161:App/STM32F4-Discovery/Libraries/STM32F4xx_StdPeriph_Driver/src/stm32f4xx_tim.c ****  ===============================================================================  
 162:App/STM32F4-Discovery/Libraries/STM32F4xx_StdPeriph_Driver/src/stm32f4xx_tim.c ****   
 163:App/STM32F4-Discovery/Libraries/STM32F4xx_StdPeriph_Driver/src/stm32f4xx_tim.c ****        ===================================================================      
 164:App/STM32F4-Discovery/Libraries/STM32F4xx_StdPeriph_Driver/src/stm32f4xx_tim.c ****               TIM Driver: how to use it in Timing(Time base) Mode
 165:App/STM32F4-Discovery/Libraries/STM32F4xx_StdPeriph_Driver/src/stm32f4xx_tim.c ****        =================================================================== 
 166:App/STM32F4-Discovery/Libraries/STM32F4xx_StdPeriph_Driver/src/stm32f4xx_tim.c ****        To use the Timer in Timing(Time base) mode, the following steps are mandatory:
 167:App/STM32F4-Discovery/Libraries/STM32F4xx_StdPeriph_Driver/src/stm32f4xx_tim.c ****        
 168:App/STM32F4-Discovery/Libraries/STM32F4xx_StdPeriph_Driver/src/stm32f4xx_tim.c ****        1. Enable TIM clock using RCC_APBxPeriphClockCmd(RCC_APBxPeriph_TIMx, ENABLE) function
 169:App/STM32F4-Discovery/Libraries/STM32F4xx_StdPeriph_Driver/src/stm32f4xx_tim.c ****                     
 170:App/STM32F4-Discovery/Libraries/STM32F4xx_StdPeriph_Driver/src/stm32f4xx_tim.c ****        2. Fill the TIM_TimeBaseInitStruct with the desired parameters.
 171:App/STM32F4-Discovery/Libraries/STM32F4xx_StdPeriph_Driver/src/stm32f4xx_tim.c ****        
 172:App/STM32F4-Discovery/Libraries/STM32F4xx_StdPeriph_Driver/src/stm32f4xx_tim.c ****        3. Call TIM_TimeBaseInit(TIMx, &TIM_TimeBaseInitStruct) to configure the Time Base unit
 173:App/STM32F4-Discovery/Libraries/STM32F4xx_StdPeriph_Driver/src/stm32f4xx_tim.c ****           with the corresponding configuration
 174:App/STM32F4-Discovery/Libraries/STM32F4xx_StdPeriph_Driver/src/stm32f4xx_tim.c ****           
 175:App/STM32F4-Discovery/Libraries/STM32F4xx_StdPeriph_Driver/src/stm32f4xx_tim.c ****        4. Enable the NVIC if you need to generate the update interrupt. 
 176:App/STM32F4-Discovery/Libraries/STM32F4xx_StdPeriph_Driver/src/stm32f4xx_tim.c ****           
 177:App/STM32F4-Discovery/Libraries/STM32F4xx_StdPeriph_Driver/src/stm32f4xx_tim.c ****        5. Enable the corresponding interrupt using the function TIM_ITConfig(TIMx, TIM_IT_Update) 
 178:App/STM32F4-Discovery/Libraries/STM32F4xx_StdPeriph_Driver/src/stm32f4xx_tim.c ****        
 179:App/STM32F4-Discovery/Libraries/STM32F4xx_StdPeriph_Driver/src/stm32f4xx_tim.c ****        6. Call the TIM_Cmd(ENABLE) function to enable the TIM counter.
 180:App/STM32F4-Discovery/Libraries/STM32F4xx_StdPeriph_Driver/src/stm32f4xx_tim.c ****              
 181:App/STM32F4-Discovery/Libraries/STM32F4xx_StdPeriph_Driver/src/stm32f4xx_tim.c ****        Note1: All other functions can be used separately to modify, if needed,
 182:App/STM32F4-Discovery/Libraries/STM32F4xx_StdPeriph_Driver/src/stm32f4xx_tim.c ****           a specific feature of the Timer. 
 183:App/STM32F4-Discovery/Libraries/STM32F4xx_StdPeriph_Driver/src/stm32f4xx_tim.c **** 
 184:App/STM32F4-Discovery/Libraries/STM32F4xx_StdPeriph_Driver/src/stm32f4xx_tim.c **** @endverbatim
 185:App/STM32F4-Discovery/Libraries/STM32F4xx_StdPeriph_Driver/src/stm32f4xx_tim.c ****   * @{
 186:App/STM32F4-Discovery/Libraries/STM32F4xx_StdPeriph_Driver/src/stm32f4xx_tim.c ****   */
 187:App/STM32F4-Discovery/Libraries/STM32F4xx_StdPeriph_Driver/src/stm32f4xx_tim.c ****   
 188:App/STM32F4-Discovery/Libraries/STM32F4xx_StdPeriph_Driver/src/stm32f4xx_tim.c **** /**
 189:App/STM32F4-Discovery/Libraries/STM32F4xx_StdPeriph_Driver/src/stm32f4xx_tim.c ****   * @brief  Deinitializes the TIMx peripheral registers to their default reset values.
 190:App/STM32F4-Discovery/Libraries/STM32F4xx_StdPeriph_Driver/src/stm32f4xx_tim.c ****   * @param  TIMx: where x can be 1 to 14 to select the TIM peripheral.
 191:App/STM32F4-Discovery/Libraries/STM32F4xx_StdPeriph_Driver/src/stm32f4xx_tim.c ****   * @retval None
 192:App/STM32F4-Discovery/Libraries/STM32F4xx_StdPeriph_Driver/src/stm32f4xx_tim.c **** 
 193:App/STM32F4-Discovery/Libraries/STM32F4xx_StdPeriph_Driver/src/stm32f4xx_tim.c ****   */
 194:App/STM32F4-Discovery/Libraries/STM32F4xx_StdPeriph_Driver/src/stm32f4xx_tim.c **** void TIM_DeInit(TIM_TypeDef* TIMx)
 195:App/STM32F4-Discovery/Libraries/STM32F4xx_StdPeriph_Driver/src/stm32f4xx_tim.c **** {
  33              		.loc 1 195 0
  34              		.cfi_startproc
  35              		@ args = 0, pretend = 0, frame = 8
  36              		@ frame_needed = 1, uses_anonymous_args = 0
  37 0000 80B5     		push	{r7, lr}
  38              	.LCFI0:
  39              		.cfi_def_cfa_offset 8
  40              		.cfi_offset 7, -8
  41              		.cfi_offset 14, -4
  42 0002 82B0     		sub	sp, sp, #8
  43              	.LCFI1:
  44              		.cfi_def_cfa_offset 16
  45 0004 00AF     		add	r7, sp, #0
  46              	.LCFI2:
  47              		.cfi_def_cfa_register 7
  48 0006 7860     		str	r0, [r7, #4]
 196:App/STM32F4-Discovery/Libraries/STM32F4xx_StdPeriph_Driver/src/stm32f4xx_tim.c ****   /* Check the parameters */
 197:App/STM32F4-Discovery/Libraries/STM32F4xx_StdPeriph_Driver/src/stm32f4xx_tim.c ****   assert_param(IS_TIM_ALL_PERIPH(TIMx)); 
  49              		.loc 1 197 0
  50 0008 7A68     		ldr	r2, [r7, #4]
  51 000a 7D4B     		ldr	r3, .L17
  52 000c 9A42     		cmp	r2, r3
  53 000e 37D0     		beq	.L2
  54              		.loc 1 197 0 is_stmt 0 discriminator 1
  55 0010 7B68     		ldr	r3, [r7, #4]
  56 0012 B3F1804F 		cmp	r3, #1073741824
  57 0016 33D0     		beq	.L2
  58 0018 7A68     		ldr	r2, [r7, #4]
  59 001a 7A4B     		ldr	r3, .L17+4
  60 001c 9A42     		cmp	r2, r3
  61 001e 2FD0     		beq	.L2
  62 0020 7A68     		ldr	r2, [r7, #4]
  63 0022 794B     		ldr	r3, .L17+8
  64 0024 9A42     		cmp	r2, r3
  65 0026 2BD0     		beq	.L2
  66 0028 7A68     		ldr	r2, [r7, #4]
  67 002a 784B     		ldr	r3, .L17+12
  68 002c 9A42     		cmp	r2, r3
  69 002e 27D0     		beq	.L2
  70 0030 7A68     		ldr	r2, [r7, #4]
  71 0032 774B     		ldr	r3, .L17+16
  72 0034 9A42     		cmp	r2, r3
  73 0036 23D0     		beq	.L2
  74 0038 7A68     		ldr	r2, [r7, #4]
  75 003a 764B     		ldr	r3, .L17+20
  76 003c 9A42     		cmp	r2, r3
  77 003e 1FD0     		beq	.L2
  78 0040 7A68     		ldr	r2, [r7, #4]
  79 0042 754B     		ldr	r3, .L17+24
  80 0044 9A42     		cmp	r2, r3
  81 0046 1BD0     		beq	.L2
  82 0048 7A68     		ldr	r2, [r7, #4]
  83 004a 744B     		ldr	r3, .L17+28
  84 004c 9A42     		cmp	r2, r3
  85 004e 17D0     		beq	.L2
  86 0050 7A68     		ldr	r2, [r7, #4]
  87 0052 734B     		ldr	r3, .L17+32
  88 0054 9A42     		cmp	r2, r3
  89 0056 13D0     		beq	.L2
  90 0058 7A68     		ldr	r2, [r7, #4]
  91 005a 724B     		ldr	r3, .L17+36
  92 005c 9A42     		cmp	r2, r3
  93 005e 0FD0     		beq	.L2
  94 0060 7A68     		ldr	r2, [r7, #4]
  95 0062 714B     		ldr	r3, .L17+40
  96 0064 9A42     		cmp	r2, r3
  97 0066 0BD0     		beq	.L2
  98 0068 7A68     		ldr	r2, [r7, #4]
  99 006a 704B     		ldr	r3, .L17+44
 100 006c 9A42     		cmp	r2, r3
 101 006e 07D0     		beq	.L2
 102 0070 7A68     		ldr	r2, [r7, #4]
 103 0072 6F4B     		ldr	r3, .L17+48
 104 0074 9A42     		cmp	r2, r3
 105 0076 03D0     		beq	.L2
 106 0078 6E48     		ldr	r0, .L17+52
 107 007a C521     		movs	r1, #197
 108 007c FFF7FEFF 		bl	assert_failed
 109              	.L2:
 198:App/STM32F4-Discovery/Libraries/STM32F4xx_StdPeriph_Driver/src/stm32f4xx_tim.c ****  
 199:App/STM32F4-Discovery/Libraries/STM32F4xx_StdPeriph_Driver/src/stm32f4xx_tim.c ****   if (TIMx == TIM1)
 110              		.loc 1 199 0 is_stmt 1
 111 0080 7A68     		ldr	r2, [r7, #4]
 112 0082 5F4B     		ldr	r3, .L17
 113 0084 9A42     		cmp	r2, r3
 114 0086 08D1     		bne	.L3
 200:App/STM32F4-Discovery/Libraries/STM32F4xx_StdPeriph_Driver/src/stm32f4xx_tim.c ****   {
 201:App/STM32F4-Discovery/Libraries/STM32F4xx_StdPeriph_Driver/src/stm32f4xx_tim.c ****     RCC_APB2PeriphResetCmd(RCC_APB2Periph_TIM1, ENABLE);
 115              		.loc 1 201 0
 116 0088 0120     		movs	r0, #1
 117 008a 0121     		movs	r1, #1
 118 008c FFF7FEFF 		bl	RCC_APB2PeriphResetCmd
 202:App/STM32F4-Discovery/Libraries/STM32F4xx_StdPeriph_Driver/src/stm32f4xx_tim.c ****     RCC_APB2PeriphResetCmd(RCC_APB2Periph_TIM1, DISABLE);  
 119              		.loc 1 202 0
 120 0090 0120     		movs	r0, #1
 121 0092 0021     		movs	r1, #0
 122 0094 FFF7FEFF 		bl	RCC_APB2PeriphResetCmd
 123 0098 AFE0     		b	.L1
 124              	.L3:
 203:App/STM32F4-Discovery/Libraries/STM32F4xx_StdPeriph_Driver/src/stm32f4xx_tim.c ****   } 
 204:App/STM32F4-Discovery/Libraries/STM32F4xx_StdPeriph_Driver/src/stm32f4xx_tim.c ****   else if (TIMx == TIM2) 
 125              		.loc 1 204 0
 126 009a 7B68     		ldr	r3, [r7, #4]
 127 009c B3F1804F 		cmp	r3, #1073741824
 128 00a0 08D1     		bne	.L5
 205:App/STM32F4-Discovery/Libraries/STM32F4xx_StdPeriph_Driver/src/stm32f4xx_tim.c ****   {     
 206:App/STM32F4-Discovery/Libraries/STM32F4xx_StdPeriph_Driver/src/stm32f4xx_tim.c ****     RCC_APB1PeriphResetCmd(RCC_APB1Periph_TIM2, ENABLE);
 129              		.loc 1 206 0
 130 00a2 0120     		movs	r0, #1
 131 00a4 0121     		movs	r1, #1
 132 00a6 FFF7FEFF 		bl	RCC_APB1PeriphResetCmd
 207:App/STM32F4-Discovery/Libraries/STM32F4xx_StdPeriph_Driver/src/stm32f4xx_tim.c ****     RCC_APB1PeriphResetCmd(RCC_APB1Periph_TIM2, DISABLE);
 133              		.loc 1 207 0
 134 00aa 0120     		movs	r0, #1
 135 00ac 0021     		movs	r1, #0
 136 00ae FFF7FEFF 		bl	RCC_APB1PeriphResetCmd
 137 00b2 A2E0     		b	.L1
 138              	.L5:
 208:App/STM32F4-Discovery/Libraries/STM32F4xx_StdPeriph_Driver/src/stm32f4xx_tim.c ****   }  
 209:App/STM32F4-Discovery/Libraries/STM32F4xx_StdPeriph_Driver/src/stm32f4xx_tim.c ****   else if (TIMx == TIM3)
 139              		.loc 1 209 0
 140 00b4 7A68     		ldr	r2, [r7, #4]
 141 00b6 534B     		ldr	r3, .L17+4
 142 00b8 9A42     		cmp	r2, r3
 143 00ba 08D1     		bne	.L6
 210:App/STM32F4-Discovery/Libraries/STM32F4xx_StdPeriph_Driver/src/stm32f4xx_tim.c ****   { 
 211:App/STM32F4-Discovery/Libraries/STM32F4xx_StdPeriph_Driver/src/stm32f4xx_tim.c ****     RCC_APB1PeriphResetCmd(RCC_APB1Periph_TIM3, ENABLE);
 144              		.loc 1 211 0
 145 00bc 0220     		movs	r0, #2
 146 00be 0121     		movs	r1, #1
 147 00c0 FFF7FEFF 		bl	RCC_APB1PeriphResetCmd
 212:App/STM32F4-Discovery/Libraries/STM32F4xx_StdPeriph_Driver/src/stm32f4xx_tim.c ****     RCC_APB1PeriphResetCmd(RCC_APB1Periph_TIM3, DISABLE);
 148              		.loc 1 212 0
 149 00c4 0220     		movs	r0, #2
 150 00c6 0021     		movs	r1, #0
 151 00c8 FFF7FEFF 		bl	RCC_APB1PeriphResetCmd
 152 00cc 95E0     		b	.L1
 153              	.L6:
 213:App/STM32F4-Discovery/Libraries/STM32F4xx_StdPeriph_Driver/src/stm32f4xx_tim.c ****   }  
 214:App/STM32F4-Discovery/Libraries/STM32F4xx_StdPeriph_Driver/src/stm32f4xx_tim.c ****   else if (TIMx == TIM4)
 154              		.loc 1 214 0
 155 00ce 7A68     		ldr	r2, [r7, #4]
 156 00d0 4D4B     		ldr	r3, .L17+8
 157 00d2 9A42     		cmp	r2, r3
 158 00d4 08D1     		bne	.L7
 215:App/STM32F4-Discovery/Libraries/STM32F4xx_StdPeriph_Driver/src/stm32f4xx_tim.c ****   { 
 216:App/STM32F4-Discovery/Libraries/STM32F4xx_StdPeriph_Driver/src/stm32f4xx_tim.c ****     RCC_APB1PeriphResetCmd(RCC_APB1Periph_TIM4, ENABLE);
 159              		.loc 1 216 0
 160 00d6 0420     		movs	r0, #4
 161 00d8 0121     		movs	r1, #1
 162 00da FFF7FEFF 		bl	RCC_APB1PeriphResetCmd
 217:App/STM32F4-Discovery/Libraries/STM32F4xx_StdPeriph_Driver/src/stm32f4xx_tim.c ****     RCC_APB1PeriphResetCmd(RCC_APB1Periph_TIM4, DISABLE);
 163              		.loc 1 217 0
 164 00de 0420     		movs	r0, #4
 165 00e0 0021     		movs	r1, #0
 166 00e2 FFF7FEFF 		bl	RCC_APB1PeriphResetCmd
 167 00e6 88E0     		b	.L1
 168              	.L7:
 218:App/STM32F4-Discovery/Libraries/STM32F4xx_StdPeriph_Driver/src/stm32f4xx_tim.c ****   }  
 219:App/STM32F4-Discovery/Libraries/STM32F4xx_StdPeriph_Driver/src/stm32f4xx_tim.c ****   else if (TIMx == TIM5)
 169              		.loc 1 219 0
 170 00e8 7A68     		ldr	r2, [r7, #4]
 171 00ea 484B     		ldr	r3, .L17+12
 172 00ec 9A42     		cmp	r2, r3
 173 00ee 08D1     		bne	.L8
 220:App/STM32F4-Discovery/Libraries/STM32F4xx_StdPeriph_Driver/src/stm32f4xx_tim.c ****   {      
 221:App/STM32F4-Discovery/Libraries/STM32F4xx_StdPeriph_Driver/src/stm32f4xx_tim.c ****     RCC_APB1PeriphResetCmd(RCC_APB1Periph_TIM5, ENABLE);
 174              		.loc 1 221 0
 175 00f0 0820     		movs	r0, #8
 176 00f2 0121     		movs	r1, #1
 177 00f4 FFF7FEFF 		bl	RCC_APB1PeriphResetCmd
 222:App/STM32F4-Discovery/Libraries/STM32F4xx_StdPeriph_Driver/src/stm32f4xx_tim.c ****     RCC_APB1PeriphResetCmd(RCC_APB1Periph_TIM5, DISABLE);
 178              		.loc 1 222 0
 179 00f8 0820     		movs	r0, #8
 180 00fa 0021     		movs	r1, #0
 181 00fc FFF7FEFF 		bl	RCC_APB1PeriphResetCmd
 182 0100 7BE0     		b	.L1
 183              	.L8:
 223:App/STM32F4-Discovery/Libraries/STM32F4xx_StdPeriph_Driver/src/stm32f4xx_tim.c ****   }  
 224:App/STM32F4-Discovery/Libraries/STM32F4xx_StdPeriph_Driver/src/stm32f4xx_tim.c ****   else if (TIMx == TIM6)  
 184              		.loc 1 224 0
 185 0102 7A68     		ldr	r2, [r7, #4]
 186 0104 424B     		ldr	r3, .L17+16
 187 0106 9A42     		cmp	r2, r3
 188 0108 08D1     		bne	.L9
 225:App/STM32F4-Discovery/Libraries/STM32F4xx_StdPeriph_Driver/src/stm32f4xx_tim.c ****   {    
 226:App/STM32F4-Discovery/Libraries/STM32F4xx_StdPeriph_Driver/src/stm32f4xx_tim.c ****     RCC_APB1PeriphResetCmd(RCC_APB1Periph_TIM6, ENABLE);
 189              		.loc 1 226 0
 190 010a 1020     		movs	r0, #16
 191 010c 0121     		movs	r1, #1
 192 010e FFF7FEFF 		bl	RCC_APB1PeriphResetCmd
 227:App/STM32F4-Discovery/Libraries/STM32F4xx_StdPeriph_Driver/src/stm32f4xx_tim.c ****     RCC_APB1PeriphResetCmd(RCC_APB1Periph_TIM6, DISABLE);
 193              		.loc 1 227 0
 194 0112 1020     		movs	r0, #16
 195 0114 0021     		movs	r1, #0
 196 0116 FFF7FEFF 		bl	RCC_APB1PeriphResetCmd
 197 011a 6EE0     		b	.L1
 198              	.L9:
 228:App/STM32F4-Discovery/Libraries/STM32F4xx_StdPeriph_Driver/src/stm32f4xx_tim.c ****   }  
 229:App/STM32F4-Discovery/Libraries/STM32F4xx_StdPeriph_Driver/src/stm32f4xx_tim.c ****   else if (TIMx == TIM7)
 199              		.loc 1 229 0
 200 011c 7A68     		ldr	r2, [r7, #4]
 201 011e 3D4B     		ldr	r3, .L17+20
 202 0120 9A42     		cmp	r2, r3
 203 0122 08D1     		bne	.L10
 230:App/STM32F4-Discovery/Libraries/STM32F4xx_StdPeriph_Driver/src/stm32f4xx_tim.c ****   {      
 231:App/STM32F4-Discovery/Libraries/STM32F4xx_StdPeriph_Driver/src/stm32f4xx_tim.c ****     RCC_APB1PeriphResetCmd(RCC_APB1Periph_TIM7, ENABLE);
 204              		.loc 1 231 0
 205 0124 2020     		movs	r0, #32
 206 0126 0121     		movs	r1, #1
 207 0128 FFF7FEFF 		bl	RCC_APB1PeriphResetCmd
 232:App/STM32F4-Discovery/Libraries/STM32F4xx_StdPeriph_Driver/src/stm32f4xx_tim.c ****     RCC_APB1PeriphResetCmd(RCC_APB1Periph_TIM7, DISABLE);
 208              		.loc 1 232 0
 209 012c 2020     		movs	r0, #32
 210 012e 0021     		movs	r1, #0
 211 0130 FFF7FEFF 		bl	RCC_APB1PeriphResetCmd
 212 0134 61E0     		b	.L1
 213              	.L10:
 233:App/STM32F4-Discovery/Libraries/STM32F4xx_StdPeriph_Driver/src/stm32f4xx_tim.c ****   }  
 234:App/STM32F4-Discovery/Libraries/STM32F4xx_StdPeriph_Driver/src/stm32f4xx_tim.c ****   else if (TIMx == TIM8)
 214              		.loc 1 234 0
 215 0136 7A68     		ldr	r2, [r7, #4]
 216 0138 374B     		ldr	r3, .L17+24
 217 013a 9A42     		cmp	r2, r3
 218 013c 08D1     		bne	.L11
 235:App/STM32F4-Discovery/Libraries/STM32F4xx_StdPeriph_Driver/src/stm32f4xx_tim.c ****   {      
 236:App/STM32F4-Discovery/Libraries/STM32F4xx_StdPeriph_Driver/src/stm32f4xx_tim.c ****     RCC_APB2PeriphResetCmd(RCC_APB2Periph_TIM8, ENABLE);
 219              		.loc 1 236 0
 220 013e 0220     		movs	r0, #2
 221 0140 0121     		movs	r1, #1
 222 0142 FFF7FEFF 		bl	RCC_APB2PeriphResetCmd
 237:App/STM32F4-Discovery/Libraries/STM32F4xx_StdPeriph_Driver/src/stm32f4xx_tim.c ****     RCC_APB2PeriphResetCmd(RCC_APB2Periph_TIM8, DISABLE);  
 223              		.loc 1 237 0
 224 0146 0220     		movs	r0, #2
 225 0148 0021     		movs	r1, #0
 226 014a FFF7FEFF 		bl	RCC_APB2PeriphResetCmd
 227 014e 54E0     		b	.L1
 228              	.L11:
 238:App/STM32F4-Discovery/Libraries/STM32F4xx_StdPeriph_Driver/src/stm32f4xx_tim.c ****   }  
 239:App/STM32F4-Discovery/Libraries/STM32F4xx_StdPeriph_Driver/src/stm32f4xx_tim.c ****   else if (TIMx == TIM9)
 229              		.loc 1 239 0
 230 0150 7A68     		ldr	r2, [r7, #4]
 231 0152 324B     		ldr	r3, .L17+28
 232 0154 9A42     		cmp	r2, r3
 233 0156 0AD1     		bne	.L12
 240:App/STM32F4-Discovery/Libraries/STM32F4xx_StdPeriph_Driver/src/stm32f4xx_tim.c ****   {      
 241:App/STM32F4-Discovery/Libraries/STM32F4xx_StdPeriph_Driver/src/stm32f4xx_tim.c ****     RCC_APB2PeriphResetCmd(RCC_APB2Periph_TIM9, ENABLE);
 234              		.loc 1 241 0
 235 0158 4FF48030 		mov	r0, #65536
 236 015c 0121     		movs	r1, #1
 237 015e FFF7FEFF 		bl	RCC_APB2PeriphResetCmd
 242:App/STM32F4-Discovery/Libraries/STM32F4xx_StdPeriph_Driver/src/stm32f4xx_tim.c ****     RCC_APB2PeriphResetCmd(RCC_APB2Periph_TIM9, DISABLE);  
 238              		.loc 1 242 0
 239 0162 4FF48030 		mov	r0, #65536
 240 0166 0021     		movs	r1, #0
 241 0168 FFF7FEFF 		bl	RCC_APB2PeriphResetCmd
 242 016c 45E0     		b	.L1
 243              	.L12:
 243:App/STM32F4-Discovery/Libraries/STM32F4xx_StdPeriph_Driver/src/stm32f4xx_tim.c ****    }  
 244:App/STM32F4-Discovery/Libraries/STM32F4xx_StdPeriph_Driver/src/stm32f4xx_tim.c ****   else if (TIMx == TIM10)
 244              		.loc 1 244 0
 245 016e 7A68     		ldr	r2, [r7, #4]
 246 0170 2B4B     		ldr	r3, .L17+32
 247 0172 9A42     		cmp	r2, r3
 248 0174 0AD1     		bne	.L13
 245:App/STM32F4-Discovery/Libraries/STM32F4xx_StdPeriph_Driver/src/stm32f4xx_tim.c ****   {      
 246:App/STM32F4-Discovery/Libraries/STM32F4xx_StdPeriph_Driver/src/stm32f4xx_tim.c ****     RCC_APB2PeriphResetCmd(RCC_APB2Periph_TIM10, ENABLE);
 249              		.loc 1 246 0
 250 0176 4FF40030 		mov	r0, #131072
 251 017a 0121     		movs	r1, #1
 252 017c FFF7FEFF 		bl	RCC_APB2PeriphResetCmd
 247:App/STM32F4-Discovery/Libraries/STM32F4xx_StdPeriph_Driver/src/stm32f4xx_tim.c ****     RCC_APB2PeriphResetCmd(RCC_APB2Periph_TIM10, DISABLE);  
 253              		.loc 1 247 0
 254 0180 4FF40030 		mov	r0, #131072
 255 0184 0021     		movs	r1, #0
 256 0186 FFF7FEFF 		bl	RCC_APB2PeriphResetCmd
 257 018a 36E0     		b	.L1
 258              	.L13:
 248:App/STM32F4-Discovery/Libraries/STM32F4xx_StdPeriph_Driver/src/stm32f4xx_tim.c ****   }  
 249:App/STM32F4-Discovery/Libraries/STM32F4xx_StdPeriph_Driver/src/stm32f4xx_tim.c ****   else if (TIMx == TIM11) 
 259              		.loc 1 249 0
 260 018c 7A68     		ldr	r2, [r7, #4]
 261 018e 254B     		ldr	r3, .L17+36
 262 0190 9A42     		cmp	r2, r3
 263 0192 0AD1     		bne	.L14
 250:App/STM32F4-Discovery/Libraries/STM32F4xx_StdPeriph_Driver/src/stm32f4xx_tim.c ****   {     
 251:App/STM32F4-Discovery/Libraries/STM32F4xx_StdPeriph_Driver/src/stm32f4xx_tim.c ****     RCC_APB2PeriphResetCmd(RCC_APB2Periph_TIM11, ENABLE);
 264              		.loc 1 251 0
 265 0194 4FF48020 		mov	r0, #262144
 266 0198 0121     		movs	r1, #1
 267 019a FFF7FEFF 		bl	RCC_APB2PeriphResetCmd
 252:App/STM32F4-Discovery/Libraries/STM32F4xx_StdPeriph_Driver/src/stm32f4xx_tim.c ****     RCC_APB2PeriphResetCmd(RCC_APB2Periph_TIM11, DISABLE);  
 268              		.loc 1 252 0
 269 019e 4FF48020 		mov	r0, #262144
 270 01a2 0021     		movs	r1, #0
 271 01a4 FFF7FEFF 		bl	RCC_APB2PeriphResetCmd
 272 01a8 27E0     		b	.L1
 273              	.L14:
 253:App/STM32F4-Discovery/Libraries/STM32F4xx_StdPeriph_Driver/src/stm32f4xx_tim.c ****   }  
 254:App/STM32F4-Discovery/Libraries/STM32F4xx_StdPeriph_Driver/src/stm32f4xx_tim.c ****   else if (TIMx == TIM12)
 274              		.loc 1 254 0
 275 01aa 7A68     		ldr	r2, [r7, #4]
 276 01ac 1E4B     		ldr	r3, .L17+40
 277 01ae 9A42     		cmp	r2, r3
 278 01b0 08D1     		bne	.L15
 255:App/STM32F4-Discovery/Libraries/STM32F4xx_StdPeriph_Driver/src/stm32f4xx_tim.c ****   {      
 256:App/STM32F4-Discovery/Libraries/STM32F4xx_StdPeriph_Driver/src/stm32f4xx_tim.c ****     RCC_APB1PeriphResetCmd(RCC_APB1Periph_TIM12, ENABLE);
 279              		.loc 1 256 0
 280 01b2 4020     		movs	r0, #64
 281 01b4 0121     		movs	r1, #1
 282 01b6 FFF7FEFF 		bl	RCC_APB1PeriphResetCmd
 257:App/STM32F4-Discovery/Libraries/STM32F4xx_StdPeriph_Driver/src/stm32f4xx_tim.c ****     RCC_APB1PeriphResetCmd(RCC_APB1Periph_TIM12, DISABLE);  
 283              		.loc 1 257 0
 284 01ba 4020     		movs	r0, #64
 285 01bc 0021     		movs	r1, #0
 286 01be FFF7FEFF 		bl	RCC_APB1PeriphResetCmd
 287 01c2 1AE0     		b	.L1
 288              	.L15:
 258:App/STM32F4-Discovery/Libraries/STM32F4xx_StdPeriph_Driver/src/stm32f4xx_tim.c ****   }  
 259:App/STM32F4-Discovery/Libraries/STM32F4xx_StdPeriph_Driver/src/stm32f4xx_tim.c ****   else if (TIMx == TIM13) 
 289              		.loc 1 259 0
 290 01c4 7A68     		ldr	r2, [r7, #4]
 291 01c6 194B     		ldr	r3, .L17+44
 292 01c8 9A42     		cmp	r2, r3
 293 01ca 08D1     		bne	.L16
 260:App/STM32F4-Discovery/Libraries/STM32F4xx_StdPeriph_Driver/src/stm32f4xx_tim.c ****   {       
 261:App/STM32F4-Discovery/Libraries/STM32F4xx_StdPeriph_Driver/src/stm32f4xx_tim.c ****     RCC_APB1PeriphResetCmd(RCC_APB1Periph_TIM13, ENABLE);
 294              		.loc 1 261 0
 295 01cc 8020     		movs	r0, #128
 296 01ce 0121     		movs	r1, #1
 297 01d0 FFF7FEFF 		bl	RCC_APB1PeriphResetCmd
 262:App/STM32F4-Discovery/Libraries/STM32F4xx_StdPeriph_Driver/src/stm32f4xx_tim.c ****     RCC_APB1PeriphResetCmd(RCC_APB1Periph_TIM13, DISABLE);  
 298              		.loc 1 262 0
 299 01d4 8020     		movs	r0, #128
 300 01d6 0021     		movs	r1, #0
 301 01d8 FFF7FEFF 		bl	RCC_APB1PeriphResetCmd
 302 01dc 0DE0     		b	.L1
 303              	.L16:
 263:App/STM32F4-Discovery/Libraries/STM32F4xx_StdPeriph_Driver/src/stm32f4xx_tim.c ****   }  
 264:App/STM32F4-Discovery/Libraries/STM32F4xx_StdPeriph_Driver/src/stm32f4xx_tim.c ****   else
 265:App/STM32F4-Discovery/Libraries/STM32F4xx_StdPeriph_Driver/src/stm32f4xx_tim.c ****   { 
 266:App/STM32F4-Discovery/Libraries/STM32F4xx_StdPeriph_Driver/src/stm32f4xx_tim.c ****     if (TIMx == TIM14) 
 304              		.loc 1 266 0
 305 01de 7A68     		ldr	r2, [r7, #4]
 306 01e0 134B     		ldr	r3, .L17+48
 307 01e2 9A42     		cmp	r2, r3
 308 01e4 09D1     		bne	.L1
 267:App/STM32F4-Discovery/Libraries/STM32F4xx_StdPeriph_Driver/src/stm32f4xx_tim.c ****     {     
 268:App/STM32F4-Discovery/Libraries/STM32F4xx_StdPeriph_Driver/src/stm32f4xx_tim.c ****       RCC_APB1PeriphResetCmd(RCC_APB1Periph_TIM14, ENABLE);
 309              		.loc 1 268 0
 310 01e6 4FF48070 		mov	r0, #256
 311 01ea 0121     		movs	r1, #1
 312 01ec FFF7FEFF 		bl	RCC_APB1PeriphResetCmd
 269:App/STM32F4-Discovery/Libraries/STM32F4xx_StdPeriph_Driver/src/stm32f4xx_tim.c ****       RCC_APB1PeriphResetCmd(RCC_APB1Periph_TIM14, DISABLE); 
 313              		.loc 1 269 0
 314 01f0 4FF48070 		mov	r0, #256
 315 01f4 0021     		movs	r1, #0
 316 01f6 FFF7FEFF 		bl	RCC_APB1PeriphResetCmd
 317              	.L1:
 270:App/STM32F4-Discovery/Libraries/STM32F4xx_StdPeriph_Driver/src/stm32f4xx_tim.c ****     }   
 271:App/STM32F4-Discovery/Libraries/STM32F4xx_StdPeriph_Driver/src/stm32f4xx_tim.c ****   }
 272:App/STM32F4-Discovery/Libraries/STM32F4xx_StdPeriph_Driver/src/stm32f4xx_tim.c **** }
 318              		.loc 1 272 0
 319 01fa 0837     		adds	r7, r7, #8
 320 01fc BD46     		mov	sp, r7
 321              		@ sp needed
 322 01fe 80BD     		pop	{r7, pc}
 323              	.L18:
 324              		.align	2
 325              	.L17:
 326 0200 00000140 		.word	1073807360
 327 0204 00040040 		.word	1073742848
 328 0208 00080040 		.word	1073743872
 329 020c 000C0040 		.word	1073744896
 330 0210 00100040 		.word	1073745920
 331 0214 00140040 		.word	1073746944
 332 0218 00040140 		.word	1073808384
 333 021c 00400140 		.word	1073823744
 334 0220 00440140 		.word	1073824768
 335 0224 00480140 		.word	1073825792
 336 0228 00180040 		.word	1073747968
 337 022c 001C0040 		.word	1073748992
 338 0230 00200040 		.word	1073750016
 339 0234 00000000 		.word	.LC0
 340              		.cfi_endproc
 341              	.LFE110:
 343              		.section	.text.TIM_TimeBaseInit,"ax",%progbits
 344              		.align	2
 345              		.global	TIM_TimeBaseInit
 346              		.thumb
 347              		.thumb_func
 349              	TIM_TimeBaseInit:
 350              	.LFB111:
 273:App/STM32F4-Discovery/Libraries/STM32F4xx_StdPeriph_Driver/src/stm32f4xx_tim.c **** 
 274:App/STM32F4-Discovery/Libraries/STM32F4xx_StdPeriph_Driver/src/stm32f4xx_tim.c **** /**
 275:App/STM32F4-Discovery/Libraries/STM32F4xx_StdPeriph_Driver/src/stm32f4xx_tim.c ****   * @brief  Initializes the TIMx Time Base Unit peripheral according to 
 276:App/STM32F4-Discovery/Libraries/STM32F4xx_StdPeriph_Driver/src/stm32f4xx_tim.c ****   *         the specified parameters in the TIM_TimeBaseInitStruct.
 277:App/STM32F4-Discovery/Libraries/STM32F4xx_StdPeriph_Driver/src/stm32f4xx_tim.c ****   * @param  TIMx: where x can be  1 to 14 to select the TIM peripheral.
 278:App/STM32F4-Discovery/Libraries/STM32F4xx_StdPeriph_Driver/src/stm32f4xx_tim.c ****   * @param  TIM_TimeBaseInitStruct: pointer to a TIM_TimeBaseInitTypeDef structure
 279:App/STM32F4-Discovery/Libraries/STM32F4xx_StdPeriph_Driver/src/stm32f4xx_tim.c ****   *         that contains the configuration information for the specified TIM peripheral.
 280:App/STM32F4-Discovery/Libraries/STM32F4xx_StdPeriph_Driver/src/stm32f4xx_tim.c ****   * @retval None
 281:App/STM32F4-Discovery/Libraries/STM32F4xx_StdPeriph_Driver/src/stm32f4xx_tim.c ****   */
 282:App/STM32F4-Discovery/Libraries/STM32F4xx_StdPeriph_Driver/src/stm32f4xx_tim.c **** void TIM_TimeBaseInit(TIM_TypeDef* TIMx, TIM_TimeBaseInitTypeDef* TIM_TimeBaseInitStruct)
 283:App/STM32F4-Discovery/Libraries/STM32F4xx_StdPeriph_Driver/src/stm32f4xx_tim.c **** {
 351              		.loc 1 283 0
 352              		.cfi_startproc
 353              		@ args = 0, pretend = 0, frame = 16
 354              		@ frame_needed = 1, uses_anonymous_args = 0
 355 0000 80B5     		push	{r7, lr}
 356              	.LCFI3:
 357              		.cfi_def_cfa_offset 8
 358              		.cfi_offset 7, -8
 359              		.cfi_offset 14, -4
 360 0002 84B0     		sub	sp, sp, #16
 361              	.LCFI4:
 362              		.cfi_def_cfa_offset 24
 363 0004 00AF     		add	r7, sp, #0
 364              	.LCFI5:
 365              		.cfi_def_cfa_register 7
 366 0006 7860     		str	r0, [r7, #4]
 367 0008 3960     		str	r1, [r7]
 284:App/STM32F4-Discovery/Libraries/STM32F4xx_StdPeriph_Driver/src/stm32f4xx_tim.c ****   uint16_t tmpcr1 = 0;
 368              		.loc 1 284 0
 369 000a 0023     		movs	r3, #0
 370 000c FB81     		strh	r3, [r7, #14]	@ movhi
 285:App/STM32F4-Discovery/Libraries/STM32F4xx_StdPeriph_Driver/src/stm32f4xx_tim.c **** 
 286:App/STM32F4-Discovery/Libraries/STM32F4xx_StdPeriph_Driver/src/stm32f4xx_tim.c ****   /* Check the parameters */
 287:App/STM32F4-Discovery/Libraries/STM32F4xx_StdPeriph_Driver/src/stm32f4xx_tim.c ****   assert_param(IS_TIM_ALL_PERIPH(TIMx)); 
 371              		.loc 1 287 0
 372 000e 7A68     		ldr	r2, [r7, #4]
 373 0010 5D4B     		ldr	r3, .L28
 374 0012 9A42     		cmp	r2, r3
 375 0014 38D0     		beq	.L20
 376              		.loc 1 287 0 is_stmt 0 discriminator 1
 377 0016 7B68     		ldr	r3, [r7, #4]
 378 0018 B3F1804F 		cmp	r3, #1073741824
 379 001c 34D0     		beq	.L20
 380 001e 7A68     		ldr	r2, [r7, #4]
 381 0020 5A4B     		ldr	r3, .L28+4
 382 0022 9A42     		cmp	r2, r3
 383 0024 30D0     		beq	.L20
 384 0026 7A68     		ldr	r2, [r7, #4]
 385 0028 594B     		ldr	r3, .L28+8
 386 002a 9A42     		cmp	r2, r3
 387 002c 2CD0     		beq	.L20
 388 002e 7A68     		ldr	r2, [r7, #4]
 389 0030 584B     		ldr	r3, .L28+12
 390 0032 9A42     		cmp	r2, r3
 391 0034 28D0     		beq	.L20
 392 0036 7A68     		ldr	r2, [r7, #4]
 393 0038 574B     		ldr	r3, .L28+16
 394 003a 9A42     		cmp	r2, r3
 395 003c 24D0     		beq	.L20
 396 003e 7A68     		ldr	r2, [r7, #4]
 397 0040 564B     		ldr	r3, .L28+20
 398 0042 9A42     		cmp	r2, r3
 399 0044 20D0     		beq	.L20
 400 0046 7A68     		ldr	r2, [r7, #4]
 401 0048 554B     		ldr	r3, .L28+24
 402 004a 9A42     		cmp	r2, r3
 403 004c 1CD0     		beq	.L20
 404 004e 7A68     		ldr	r2, [r7, #4]
 405 0050 544B     		ldr	r3, .L28+28
 406 0052 9A42     		cmp	r2, r3
 407 0054 18D0     		beq	.L20
 408 0056 7A68     		ldr	r2, [r7, #4]
 409 0058 534B     		ldr	r3, .L28+32
 410 005a 9A42     		cmp	r2, r3
 411 005c 14D0     		beq	.L20
 412 005e 7A68     		ldr	r2, [r7, #4]
 413 0060 524B     		ldr	r3, .L28+36
 414 0062 9A42     		cmp	r2, r3
 415 0064 10D0     		beq	.L20
 416 0066 7A68     		ldr	r2, [r7, #4]
 417 0068 514B     		ldr	r3, .L28+40
 418 006a 9A42     		cmp	r2, r3
 419 006c 0CD0     		beq	.L20
 420 006e 7A68     		ldr	r2, [r7, #4]
 421 0070 504B     		ldr	r3, .L28+44
 422 0072 9A42     		cmp	r2, r3
 423 0074 08D0     		beq	.L20
 424 0076 7A68     		ldr	r2, [r7, #4]
 425 0078 4F4B     		ldr	r3, .L28+48
 426 007a 9A42     		cmp	r2, r3
 427 007c 04D0     		beq	.L20
 428 007e 4F48     		ldr	r0, .L28+52
 429 0080 40F21F11 		movw	r1, #287
 430 0084 FFF7FEFF 		bl	assert_failed
 431              	.L20:
 288:App/STM32F4-Discovery/Libraries/STM32F4xx_StdPeriph_Driver/src/stm32f4xx_tim.c ****   assert_param(IS_TIM_COUNTER_MODE(TIM_TimeBaseInitStruct->TIM_CounterMode));
 432              		.loc 1 288 0 is_stmt 1
 433 0088 3B68     		ldr	r3, [r7]
 434 008a 5B88     		ldrh	r3, [r3, #2]
 435 008c 002B     		cmp	r3, #0
 436 008e 14D0     		beq	.L21
 437              		.loc 1 288 0 is_stmt 0 discriminator 1
 438 0090 3B68     		ldr	r3, [r7]
 439 0092 5B88     		ldrh	r3, [r3, #2]
 440 0094 102B     		cmp	r3, #16
 441 0096 10D0     		beq	.L21
 442 0098 3B68     		ldr	r3, [r7]
 443 009a 5B88     		ldrh	r3, [r3, #2]
 444 009c 202B     		cmp	r3, #32
 445 009e 0CD0     		beq	.L21
 446 00a0 3B68     		ldr	r3, [r7]
 447 00a2 5B88     		ldrh	r3, [r3, #2]
 448 00a4 402B     		cmp	r3, #64
 449 00a6 08D0     		beq	.L21
 450 00a8 3B68     		ldr	r3, [r7]
 451 00aa 5B88     		ldrh	r3, [r3, #2]
 452 00ac 602B     		cmp	r3, #96
 453 00ae 04D0     		beq	.L21
 454 00b0 4248     		ldr	r0, .L28+52
 455 00b2 4FF49071 		mov	r1, #288
 456 00b6 FFF7FEFF 		bl	assert_failed
 457              	.L21:
 289:App/STM32F4-Discovery/Libraries/STM32F4xx_StdPeriph_Driver/src/stm32f4xx_tim.c ****   assert_param(IS_TIM_CKD_DIV(TIM_TimeBaseInitStruct->TIM_ClockDivision));
 458              		.loc 1 289 0 is_stmt 1
 459 00ba 3B68     		ldr	r3, [r7]
 460 00bc 1B89     		ldrh	r3, [r3, #8]
 461 00be 002B     		cmp	r3, #0
 462 00c0 0ED0     		beq	.L22
 463              		.loc 1 289 0 is_stmt 0 discriminator 1
 464 00c2 3B68     		ldr	r3, [r7]
 465 00c4 1B89     		ldrh	r3, [r3, #8]
 466 00c6 B3F5807F 		cmp	r3, #256
 467 00ca 09D0     		beq	.L22
 468 00cc 3B68     		ldr	r3, [r7]
 469 00ce 1B89     		ldrh	r3, [r3, #8]
 470 00d0 B3F5007F 		cmp	r3, #512
 471 00d4 04D0     		beq	.L22
 472 00d6 3948     		ldr	r0, .L28+52
 473 00d8 40F22111 		movw	r1, #289
 474 00dc FFF7FEFF 		bl	assert_failed
 475              	.L22:
 290:App/STM32F4-Discovery/Libraries/STM32F4xx_StdPeriph_Driver/src/stm32f4xx_tim.c **** 
 291:App/STM32F4-Discovery/Libraries/STM32F4xx_StdPeriph_Driver/src/stm32f4xx_tim.c ****   tmpcr1 = TIMx->CR1;  
 476              		.loc 1 291 0 is_stmt 1
 477 00e0 7B68     		ldr	r3, [r7, #4]
 478 00e2 1B88     		ldrh	r3, [r3]	@ movhi
 479 00e4 FB81     		strh	r3, [r7, #14]	@ movhi
 292:App/STM32F4-Discovery/Libraries/STM32F4xx_StdPeriph_Driver/src/stm32f4xx_tim.c **** 
 293:App/STM32F4-Discovery/Libraries/STM32F4xx_StdPeriph_Driver/src/stm32f4xx_tim.c ****   if((TIMx == TIM1) || (TIMx == TIM8)||
 480              		.loc 1 293 0
 481 00e6 7A68     		ldr	r2, [r7, #4]
 482 00e8 274B     		ldr	r3, .L28
 483 00ea 9A42     		cmp	r2, r3
 484 00ec 13D0     		beq	.L23
 485              		.loc 1 293 0 is_stmt 0 discriminator 1
 486 00ee 7A68     		ldr	r2, [r7, #4]
 487 00f0 2B4B     		ldr	r3, .L28+24
 488 00f2 9A42     		cmp	r2, r3
 489 00f4 0FD0     		beq	.L23
 490 00f6 7B68     		ldr	r3, [r7, #4]
 491 00f8 B3F1804F 		cmp	r3, #1073741824
 492 00fc 0BD0     		beq	.L23
 294:App/STM32F4-Discovery/Libraries/STM32F4xx_StdPeriph_Driver/src/stm32f4xx_tim.c ****      (TIMx == TIM2) || (TIMx == TIM3)||
 493              		.loc 1 294 0 is_stmt 1
 494 00fe 7A68     		ldr	r2, [r7, #4]
 495 0100 224B     		ldr	r3, .L28+4
 496 0102 9A42     		cmp	r2, r3
 497 0104 07D0     		beq	.L23
 498              		.loc 1 294 0 is_stmt 0 discriminator 1
 499 0106 7A68     		ldr	r2, [r7, #4]
 500 0108 214B     		ldr	r3, .L28+8
 501 010a 9A42     		cmp	r2, r3
 502 010c 03D0     		beq	.L23
 295:App/STM32F4-Discovery/Libraries/STM32F4xx_StdPeriph_Driver/src/stm32f4xx_tim.c ****      (TIMx == TIM4) || (TIMx == TIM5)) 
 503              		.loc 1 295 0 is_stmt 1
 504 010e 7A68     		ldr	r2, [r7, #4]
 505 0110 204B     		ldr	r3, .L28+12
 506 0112 9A42     		cmp	r2, r3
 507 0114 08D1     		bne	.L24
 508              	.L23:
 296:App/STM32F4-Discovery/Libraries/STM32F4xx_StdPeriph_Driver/src/stm32f4xx_tim.c ****   {
 297:App/STM32F4-Discovery/Libraries/STM32F4xx_StdPeriph_Driver/src/stm32f4xx_tim.c ****     /* Select the Counter Mode */
 298:App/STM32F4-Discovery/Libraries/STM32F4xx_StdPeriph_Driver/src/stm32f4xx_tim.c ****     tmpcr1 &= (uint16_t)(~(TIM_CR1_DIR | TIM_CR1_CMS));
 509              		.loc 1 298 0
 510 0116 FB89     		ldrh	r3, [r7, #14]	@ movhi
 511 0118 23F07003 		bic	r3, r3, #112
 512 011c FB81     		strh	r3, [r7, #14]	@ movhi
 299:App/STM32F4-Discovery/Libraries/STM32F4xx_StdPeriph_Driver/src/stm32f4xx_tim.c ****     tmpcr1 |= (uint32_t)TIM_TimeBaseInitStruct->TIM_CounterMode;
 513              		.loc 1 299 0
 514 011e 3B68     		ldr	r3, [r7]
 515 0120 5A88     		ldrh	r2, [r3, #2]
 516 0122 FB89     		ldrh	r3, [r7, #14]	@ movhi
 517 0124 1343     		orrs	r3, r3, r2
 518 0126 FB81     		strh	r3, [r7, #14]	@ movhi
 519              	.L24:
 300:App/STM32F4-Discovery/Libraries/STM32F4xx_StdPeriph_Driver/src/stm32f4xx_tim.c ****   }
 301:App/STM32F4-Discovery/Libraries/STM32F4xx_StdPeriph_Driver/src/stm32f4xx_tim.c ****  
 302:App/STM32F4-Discovery/Libraries/STM32F4xx_StdPeriph_Driver/src/stm32f4xx_tim.c ****   if((TIMx != TIM6) && (TIMx != TIM7))
 520              		.loc 1 302 0
 521 0128 7A68     		ldr	r2, [r7, #4]
 522 012a 1B4B     		ldr	r3, .L28+16
 523 012c 9A42     		cmp	r2, r3
 524 012e 0CD0     		beq	.L25
 525              		.loc 1 302 0 is_stmt 0 discriminator 1
 526 0130 7A68     		ldr	r2, [r7, #4]
 527 0132 1A4B     		ldr	r3, .L28+20
 528 0134 9A42     		cmp	r2, r3
 529 0136 08D0     		beq	.L25
 303:App/STM32F4-Discovery/Libraries/STM32F4xx_StdPeriph_Driver/src/stm32f4xx_tim.c ****   {
 304:App/STM32F4-Discovery/Libraries/STM32F4xx_StdPeriph_Driver/src/stm32f4xx_tim.c ****     /* Set the clock division */
 305:App/STM32F4-Discovery/Libraries/STM32F4xx_StdPeriph_Driver/src/stm32f4xx_tim.c ****     tmpcr1 &=  (uint16_t)(~TIM_CR1_CKD);
 530              		.loc 1 305 0 is_stmt 1
 531 0138 FB89     		ldrh	r3, [r7, #14]	@ movhi
 532 013a 23F44073 		bic	r3, r3, #768
 533 013e FB81     		strh	r3, [r7, #14]	@ movhi
 306:App/STM32F4-Discovery/Libraries/STM32F4xx_StdPeriph_Driver/src/stm32f4xx_tim.c ****     tmpcr1 |= (uint32_t)TIM_TimeBaseInitStruct->TIM_ClockDivision;
 534              		.loc 1 306 0
 535 0140 3B68     		ldr	r3, [r7]
 536 0142 1A89     		ldrh	r2, [r3, #8]
 537 0144 FB89     		ldrh	r3, [r7, #14]	@ movhi
 538 0146 1343     		orrs	r3, r3, r2
 539 0148 FB81     		strh	r3, [r7, #14]	@ movhi
 540              	.L25:
 307:App/STM32F4-Discovery/Libraries/STM32F4xx_StdPeriph_Driver/src/stm32f4xx_tim.c ****   }
 308:App/STM32F4-Discovery/Libraries/STM32F4xx_StdPeriph_Driver/src/stm32f4xx_tim.c **** 
 309:App/STM32F4-Discovery/Libraries/STM32F4xx_StdPeriph_Driver/src/stm32f4xx_tim.c ****   TIMx->CR1 = tmpcr1;
 541              		.loc 1 309 0
 542 014a 7B68     		ldr	r3, [r7, #4]
 543 014c FA89     		ldrh	r2, [r7, #14]	@ movhi
 544 014e 1A80     		strh	r2, [r3]	@ movhi
 310:App/STM32F4-Discovery/Libraries/STM32F4xx_StdPeriph_Driver/src/stm32f4xx_tim.c **** 
 311:App/STM32F4-Discovery/Libraries/STM32F4xx_StdPeriph_Driver/src/stm32f4xx_tim.c ****   /* Set the Autoreload value */
 312:App/STM32F4-Discovery/Libraries/STM32F4xx_StdPeriph_Driver/src/stm32f4xx_tim.c ****   TIMx->ARR = TIM_TimeBaseInitStruct->TIM_Period ;
 545              		.loc 1 312 0
 546 0150 3B68     		ldr	r3, [r7]
 547 0152 5A68     		ldr	r2, [r3, #4]
 548 0154 7B68     		ldr	r3, [r7, #4]
 549 0156 DA62     		str	r2, [r3, #44]
 313:App/STM32F4-Discovery/Libraries/STM32F4xx_StdPeriph_Driver/src/stm32f4xx_tim.c ****  
 314:App/STM32F4-Discovery/Libraries/STM32F4xx_StdPeriph_Driver/src/stm32f4xx_tim.c ****   /* Set the Prescaler value */
 315:App/STM32F4-Discovery/Libraries/STM32F4xx_StdPeriph_Driver/src/stm32f4xx_tim.c ****   TIMx->PSC = TIM_TimeBaseInitStruct->TIM_Prescaler;
 550              		.loc 1 315 0
 551 0158 3B68     		ldr	r3, [r7]
 552 015a 1A88     		ldrh	r2, [r3]
 553 015c 7B68     		ldr	r3, [r7, #4]
 554 015e 1A85     		strh	r2, [r3, #40]	@ movhi
 316:App/STM32F4-Discovery/Libraries/STM32F4xx_StdPeriph_Driver/src/stm32f4xx_tim.c ****     
 317:App/STM32F4-Discovery/Libraries/STM32F4xx_StdPeriph_Driver/src/stm32f4xx_tim.c ****   if ((TIMx == TIM1) || (TIMx == TIM8))  
 555              		.loc 1 317 0
 556 0160 7A68     		ldr	r2, [r7, #4]
 557 0162 094B     		ldr	r3, .L28
 558 0164 9A42     		cmp	r2, r3
 559 0166 03D0     		beq	.L26
 560              		.loc 1 317 0 is_stmt 0 discriminator 1
 561 0168 7A68     		ldr	r2, [r7, #4]
 562 016a 0D4B     		ldr	r3, .L28+24
 563 016c 9A42     		cmp	r2, r3
 564 016e 04D1     		bne	.L27
 565              	.L26:
 318:App/STM32F4-Discovery/Libraries/STM32F4xx_StdPeriph_Driver/src/stm32f4xx_tim.c ****   {
 319:App/STM32F4-Discovery/Libraries/STM32F4xx_StdPeriph_Driver/src/stm32f4xx_tim.c ****     /* Set the Repetition Counter value */
 320:App/STM32F4-Discovery/Libraries/STM32F4xx_StdPeriph_Driver/src/stm32f4xx_tim.c ****     TIMx->RCR = TIM_TimeBaseInitStruct->TIM_RepetitionCounter;
 566              		.loc 1 320 0 is_stmt 1
 567 0170 3B68     		ldr	r3, [r7]
 568 0172 9B7A     		ldrb	r3, [r3, #10]	@ zero_extendqisi2
 569 0174 1A46     		mov	r2, r3
 570 0176 7B68     		ldr	r3, [r7, #4]
 571 0178 1A86     		strh	r2, [r3, #48]	@ movhi
 572              	.L27:
 321:App/STM32F4-Discovery/Libraries/STM32F4xx_StdPeriph_Driver/src/stm32f4xx_tim.c ****   }
 322:App/STM32F4-Discovery/Libraries/STM32F4xx_StdPeriph_Driver/src/stm32f4xx_tim.c **** 
 323:App/STM32F4-Discovery/Libraries/STM32F4xx_StdPeriph_Driver/src/stm32f4xx_tim.c ****   /* Generate an update event to reload the Prescaler 
 324:App/STM32F4-Discovery/Libraries/STM32F4xx_StdPeriph_Driver/src/stm32f4xx_tim.c ****      and the repetition counter(only for TIM1 and TIM8) value immediatly */
 325:App/STM32F4-Discovery/Libraries/STM32F4xx_StdPeriph_Driver/src/stm32f4xx_tim.c ****   TIMx->EGR = TIM_PSCReloadMode_Immediate;          
 573              		.loc 1 325 0
 574 017a 7B68     		ldr	r3, [r7, #4]
 575 017c 0122     		movs	r2, #1
 576 017e 9A82     		strh	r2, [r3, #20]	@ movhi
 326:App/STM32F4-Discovery/Libraries/STM32F4xx_StdPeriph_Driver/src/stm32f4xx_tim.c **** }
 577              		.loc 1 326 0
 578 0180 1037     		adds	r7, r7, #16
 579 0182 BD46     		mov	sp, r7
 580              		@ sp needed
 581 0184 80BD     		pop	{r7, pc}
 582              	.L29:
 583 0186 00BF     		.align	2
 584              	.L28:
 585 0188 00000140 		.word	1073807360
 586 018c 00040040 		.word	1073742848
 587 0190 00080040 		.word	1073743872
 588 0194 000C0040 		.word	1073744896
 589 0198 00100040 		.word	1073745920
 590 019c 00140040 		.word	1073746944
 591 01a0 00040140 		.word	1073808384
 592 01a4 00400140 		.word	1073823744
 593 01a8 00440140 		.word	1073824768
 594 01ac 00480140 		.word	1073825792
 595 01b0 00180040 		.word	1073747968
 596 01b4 001C0040 		.word	1073748992
 597 01b8 00200040 		.word	1073750016
 598 01bc 00000000 		.word	.LC0
 599              		.cfi_endproc
 600              	.LFE111:
 602              		.section	.text.TIM_TimeBaseStructInit,"ax",%progbits
 603              		.align	2
 604              		.global	TIM_TimeBaseStructInit
 605              		.thumb
 606              		.thumb_func
 608              	TIM_TimeBaseStructInit:
 609              	.LFB112:
 327:App/STM32F4-Discovery/Libraries/STM32F4xx_StdPeriph_Driver/src/stm32f4xx_tim.c **** 
 328:App/STM32F4-Discovery/Libraries/STM32F4xx_StdPeriph_Driver/src/stm32f4xx_tim.c **** /**
 329:App/STM32F4-Discovery/Libraries/STM32F4xx_StdPeriph_Driver/src/stm32f4xx_tim.c ****   * @brief  Fills each TIM_TimeBaseInitStruct member with its default value.
 330:App/STM32F4-Discovery/Libraries/STM32F4xx_StdPeriph_Driver/src/stm32f4xx_tim.c ****   * @param  TIM_TimeBaseInitStruct : pointer to a TIM_TimeBaseInitTypeDef
 331:App/STM32F4-Discovery/Libraries/STM32F4xx_StdPeriph_Driver/src/stm32f4xx_tim.c ****   *         structure which will be initialized.
 332:App/STM32F4-Discovery/Libraries/STM32F4xx_StdPeriph_Driver/src/stm32f4xx_tim.c ****   * @retval None
 333:App/STM32F4-Discovery/Libraries/STM32F4xx_StdPeriph_Driver/src/stm32f4xx_tim.c ****   */
 334:App/STM32F4-Discovery/Libraries/STM32F4xx_StdPeriph_Driver/src/stm32f4xx_tim.c **** void TIM_TimeBaseStructInit(TIM_TimeBaseInitTypeDef* TIM_TimeBaseInitStruct)
 335:App/STM32F4-Discovery/Libraries/STM32F4xx_StdPeriph_Driver/src/stm32f4xx_tim.c **** {
 610              		.loc 1 335 0
 611              		.cfi_startproc
 612              		@ args = 0, pretend = 0, frame = 8
 613              		@ frame_needed = 1, uses_anonymous_args = 0
 614              		@ link register save eliminated.
 615 0000 80B4     		push	{r7}
 616              	.LCFI6:
 617              		.cfi_def_cfa_offset 4
 618              		.cfi_offset 7, -4
 619 0002 83B0     		sub	sp, sp, #12
 620              	.LCFI7:
 621              		.cfi_def_cfa_offset 16
 622 0004 00AF     		add	r7, sp, #0
 623              	.LCFI8:
 624              		.cfi_def_cfa_register 7
 625 0006 7860     		str	r0, [r7, #4]
 336:App/STM32F4-Discovery/Libraries/STM32F4xx_StdPeriph_Driver/src/stm32f4xx_tim.c ****   /* Set the default configuration */
 337:App/STM32F4-Discovery/Libraries/STM32F4xx_StdPeriph_Driver/src/stm32f4xx_tim.c ****   TIM_TimeBaseInitStruct->TIM_Period = 0xFFFFFFFF;
 626              		.loc 1 337 0
 627 0008 7B68     		ldr	r3, [r7, #4]
 628 000a 4FF0FF32 		mov	r2, #-1
 629 000e 5A60     		str	r2, [r3, #4]
 338:App/STM32F4-Discovery/Libraries/STM32F4xx_StdPeriph_Driver/src/stm32f4xx_tim.c ****   TIM_TimeBaseInitStruct->TIM_Prescaler = 0x0000;
 630              		.loc 1 338 0
 631 0010 7B68     		ldr	r3, [r7, #4]
 632 0012 0022     		movs	r2, #0
 633 0014 1A80     		strh	r2, [r3]	@ movhi
 339:App/STM32F4-Discovery/Libraries/STM32F4xx_StdPeriph_Driver/src/stm32f4xx_tim.c ****   TIM_TimeBaseInitStruct->TIM_ClockDivision = TIM_CKD_DIV1;
 634              		.loc 1 339 0
 635 0016 7B68     		ldr	r3, [r7, #4]
 636 0018 0022     		movs	r2, #0
 637 001a 1A81     		strh	r2, [r3, #8]	@ movhi
 340:App/STM32F4-Discovery/Libraries/STM32F4xx_StdPeriph_Driver/src/stm32f4xx_tim.c ****   TIM_TimeBaseInitStruct->TIM_CounterMode = TIM_CounterMode_Up;
 638              		.loc 1 340 0
 639 001c 7B68     		ldr	r3, [r7, #4]
 640 001e 0022     		movs	r2, #0
 641 0020 5A80     		strh	r2, [r3, #2]	@ movhi
 341:App/STM32F4-Discovery/Libraries/STM32F4xx_StdPeriph_Driver/src/stm32f4xx_tim.c ****   TIM_TimeBaseInitStruct->TIM_RepetitionCounter = 0x0000;
 642              		.loc 1 341 0
 643 0022 7B68     		ldr	r3, [r7, #4]
 644 0024 0022     		movs	r2, #0
 645 0026 9A72     		strb	r2, [r3, #10]
 342:App/STM32F4-Discovery/Libraries/STM32F4xx_StdPeriph_Driver/src/stm32f4xx_tim.c **** }
 646              		.loc 1 342 0
 647 0028 0C37     		adds	r7, r7, #12
 648 002a BD46     		mov	sp, r7
 649              		@ sp needed
 650 002c 5DF8047B 		ldr	r7, [sp], #4
 651 0030 7047     		bx	lr
 652              		.cfi_endproc
 653              	.LFE112:
 655 0032 00BF     		.section	.text.TIM_PrescalerConfig,"ax",%progbits
 656              		.align	2
 657              		.global	TIM_PrescalerConfig
 658              		.thumb
 659              		.thumb_func
 661              	TIM_PrescalerConfig:
 662              	.LFB113:
 343:App/STM32F4-Discovery/Libraries/STM32F4xx_StdPeriph_Driver/src/stm32f4xx_tim.c **** 
 344:App/STM32F4-Discovery/Libraries/STM32F4xx_StdPeriph_Driver/src/stm32f4xx_tim.c **** /**
 345:App/STM32F4-Discovery/Libraries/STM32F4xx_StdPeriph_Driver/src/stm32f4xx_tim.c ****   * @brief  Configures the TIMx Prescaler.
 346:App/STM32F4-Discovery/Libraries/STM32F4xx_StdPeriph_Driver/src/stm32f4xx_tim.c ****   * @param  TIMx: where x can be  1 to 14 to select the TIM peripheral.
 347:App/STM32F4-Discovery/Libraries/STM32F4xx_StdPeriph_Driver/src/stm32f4xx_tim.c ****   * @param  Prescaler: specifies the Prescaler Register value
 348:App/STM32F4-Discovery/Libraries/STM32F4xx_StdPeriph_Driver/src/stm32f4xx_tim.c ****   * @param  TIM_PSCReloadMode: specifies the TIM Prescaler Reload mode
 349:App/STM32F4-Discovery/Libraries/STM32F4xx_StdPeriph_Driver/src/stm32f4xx_tim.c ****   *          This parameter can be one of the following values:
 350:App/STM32F4-Discovery/Libraries/STM32F4xx_StdPeriph_Driver/src/stm32f4xx_tim.c ****   *            @arg TIM_PSCReloadMode_Update: The Prescaler is loaded at the update event.
 351:App/STM32F4-Discovery/Libraries/STM32F4xx_StdPeriph_Driver/src/stm32f4xx_tim.c ****   *            @arg TIM_PSCReloadMode_Immediate: The Prescaler is loaded immediatly.
 352:App/STM32F4-Discovery/Libraries/STM32F4xx_StdPeriph_Driver/src/stm32f4xx_tim.c ****   * @retval None
 353:App/STM32F4-Discovery/Libraries/STM32F4xx_StdPeriph_Driver/src/stm32f4xx_tim.c ****   */
 354:App/STM32F4-Discovery/Libraries/STM32F4xx_StdPeriph_Driver/src/stm32f4xx_tim.c **** void TIM_PrescalerConfig(TIM_TypeDef* TIMx, uint16_t Prescaler, uint16_t TIM_PSCReloadMode)
 355:App/STM32F4-Discovery/Libraries/STM32F4xx_StdPeriph_Driver/src/stm32f4xx_tim.c **** {
 663              		.loc 1 355 0
 664              		.cfi_startproc
 665              		@ args = 0, pretend = 0, frame = 8
 666              		@ frame_needed = 1, uses_anonymous_args = 0
 667 0000 80B5     		push	{r7, lr}
 668              	.LCFI9:
 669              		.cfi_def_cfa_offset 8
 670              		.cfi_offset 7, -8
 671              		.cfi_offset 14, -4
 672 0002 82B0     		sub	sp, sp, #8
 673              	.LCFI10:
 674              		.cfi_def_cfa_offset 16
 675 0004 00AF     		add	r7, sp, #0
 676              	.LCFI11:
 677              		.cfi_def_cfa_register 7
 678 0006 7860     		str	r0, [r7, #4]
 679 0008 1346     		mov	r3, r2
 680 000a 0A46     		mov	r2, r1	@ movhi
 681 000c 7A80     		strh	r2, [r7, #2]	@ movhi
 682 000e 3B80     		strh	r3, [r7]	@ movhi
 356:App/STM32F4-Discovery/Libraries/STM32F4xx_StdPeriph_Driver/src/stm32f4xx_tim.c ****   /* Check the parameters */
 357:App/STM32F4-Discovery/Libraries/STM32F4xx_StdPeriph_Driver/src/stm32f4xx_tim.c ****   assert_param(IS_TIM_ALL_PERIPH(TIMx));
 683              		.loc 1 357 0
 684 0010 7A68     		ldr	r2, [r7, #4]
 685 0012 284B     		ldr	r3, .L34
 686 0014 9A42     		cmp	r2, r3
 687 0016 38D0     		beq	.L32
 688              		.loc 1 357 0 is_stmt 0 discriminator 1
 689 0018 7B68     		ldr	r3, [r7, #4]
 690 001a B3F1804F 		cmp	r3, #1073741824
 691 001e 34D0     		beq	.L32
 692 0020 7A68     		ldr	r2, [r7, #4]
 693 0022 254B     		ldr	r3, .L34+4
 694 0024 9A42     		cmp	r2, r3
 695 0026 30D0     		beq	.L32
 696 0028 7A68     		ldr	r2, [r7, #4]
 697 002a 244B     		ldr	r3, .L34+8
 698 002c 9A42     		cmp	r2, r3
 699 002e 2CD0     		beq	.L32
 700 0030 7A68     		ldr	r2, [r7, #4]
 701 0032 234B     		ldr	r3, .L34+12
 702 0034 9A42     		cmp	r2, r3
 703 0036 28D0     		beq	.L32
 704 0038 7A68     		ldr	r2, [r7, #4]
 705 003a 224B     		ldr	r3, .L34+16
 706 003c 9A42     		cmp	r2, r3
 707 003e 24D0     		beq	.L32
 708 0040 7A68     		ldr	r2, [r7, #4]
 709 0042 214B     		ldr	r3, .L34+20
 710 0044 9A42     		cmp	r2, r3
 711 0046 20D0     		beq	.L32
 712 0048 7A68     		ldr	r2, [r7, #4]
 713 004a 204B     		ldr	r3, .L34+24
 714 004c 9A42     		cmp	r2, r3
 715 004e 1CD0     		beq	.L32
 716 0050 7A68     		ldr	r2, [r7, #4]
 717 0052 1F4B     		ldr	r3, .L34+28
 718 0054 9A42     		cmp	r2, r3
 719 0056 18D0     		beq	.L32
 720 0058 7A68     		ldr	r2, [r7, #4]
 721 005a 1E4B     		ldr	r3, .L34+32
 722 005c 9A42     		cmp	r2, r3
 723 005e 14D0     		beq	.L32
 724 0060 7A68     		ldr	r2, [r7, #4]
 725 0062 1D4B     		ldr	r3, .L34+36
 726 0064 9A42     		cmp	r2, r3
 727 0066 10D0     		beq	.L32
 728 0068 7A68     		ldr	r2, [r7, #4]
 729 006a 1C4B     		ldr	r3, .L34+40
 730 006c 9A42     		cmp	r2, r3
 731 006e 0CD0     		beq	.L32
 732 0070 7A68     		ldr	r2, [r7, #4]
 733 0072 1B4B     		ldr	r3, .L34+44
 734 0074 9A42     		cmp	r2, r3
 735 0076 08D0     		beq	.L32
 736 0078 7A68     		ldr	r2, [r7, #4]
 737 007a 1A4B     		ldr	r3, .L34+48
 738 007c 9A42     		cmp	r2, r3
 739 007e 04D0     		beq	.L32
 740 0080 1948     		ldr	r0, .L34+52
 741 0082 40F26511 		movw	r1, #357
 742 0086 FFF7FEFF 		bl	assert_failed
 743              	.L32:
 358:App/STM32F4-Discovery/Libraries/STM32F4xx_StdPeriph_Driver/src/stm32f4xx_tim.c ****   assert_param(IS_TIM_PRESCALER_RELOAD(TIM_PSCReloadMode));
 744              		.loc 1 358 0 is_stmt 1
 745 008a 3B88     		ldrh	r3, [r7]
 746 008c 002B     		cmp	r3, #0
 747 008e 07D0     		beq	.L33
 748              		.loc 1 358 0 is_stmt 0 discriminator 1
 749 0090 3B88     		ldrh	r3, [r7]
 750 0092 012B     		cmp	r3, #1
 751 0094 04D0     		beq	.L33
 752 0096 1448     		ldr	r0, .L34+52
 753 0098 4FF4B371 		mov	r1, #358
 754 009c FFF7FEFF 		bl	assert_failed
 755              	.L33:
 359:App/STM32F4-Discovery/Libraries/STM32F4xx_StdPeriph_Driver/src/stm32f4xx_tim.c ****   /* Set the Prescaler value */
 360:App/STM32F4-Discovery/Libraries/STM32F4xx_StdPeriph_Driver/src/stm32f4xx_tim.c ****   TIMx->PSC = Prescaler;
 756              		.loc 1 360 0 is_stmt 1
 757 00a0 7B68     		ldr	r3, [r7, #4]
 758 00a2 7A88     		ldrh	r2, [r7, #2]	@ movhi
 759 00a4 1A85     		strh	r2, [r3, #40]	@ movhi
 361:App/STM32F4-Discovery/Libraries/STM32F4xx_StdPeriph_Driver/src/stm32f4xx_tim.c ****   /* Set or reset the UG Bit */
 362:App/STM32F4-Discovery/Libraries/STM32F4xx_StdPeriph_Driver/src/stm32f4xx_tim.c ****   TIMx->EGR = TIM_PSCReloadMode;
 760              		.loc 1 362 0
 761 00a6 7B68     		ldr	r3, [r7, #4]
 762 00a8 3A88     		ldrh	r2, [r7]	@ movhi
 763 00aa 9A82     		strh	r2, [r3, #20]	@ movhi
 363:App/STM32F4-Discovery/Libraries/STM32F4xx_StdPeriph_Driver/src/stm32f4xx_tim.c **** }
 764              		.loc 1 363 0
 765 00ac 0837     		adds	r7, r7, #8
 766 00ae BD46     		mov	sp, r7
 767              		@ sp needed
 768 00b0 80BD     		pop	{r7, pc}
 769              	.L35:
 770 00b2 00BF     		.align	2
 771              	.L34:
 772 00b4 00000140 		.word	1073807360
 773 00b8 00040040 		.word	1073742848
 774 00bc 00080040 		.word	1073743872
 775 00c0 000C0040 		.word	1073744896
 776 00c4 00100040 		.word	1073745920
 777 00c8 00140040 		.word	1073746944
 778 00cc 00040140 		.word	1073808384
 779 00d0 00400140 		.word	1073823744
 780 00d4 00440140 		.word	1073824768
 781 00d8 00480140 		.word	1073825792
 782 00dc 00180040 		.word	1073747968
 783 00e0 001C0040 		.word	1073748992
 784 00e4 00200040 		.word	1073750016
 785 00e8 00000000 		.word	.LC0
 786              		.cfi_endproc
 787              	.LFE113:
 789              		.section	.text.TIM_CounterModeConfig,"ax",%progbits
 790              		.align	2
 791              		.global	TIM_CounterModeConfig
 792              		.thumb
 793              		.thumb_func
 795              	TIM_CounterModeConfig:
 796              	.LFB114:
 364:App/STM32F4-Discovery/Libraries/STM32F4xx_StdPeriph_Driver/src/stm32f4xx_tim.c **** 
 365:App/STM32F4-Discovery/Libraries/STM32F4xx_StdPeriph_Driver/src/stm32f4xx_tim.c **** /**
 366:App/STM32F4-Discovery/Libraries/STM32F4xx_StdPeriph_Driver/src/stm32f4xx_tim.c ****   * @brief  Specifies the TIMx Counter Mode to be used.
 367:App/STM32F4-Discovery/Libraries/STM32F4xx_StdPeriph_Driver/src/stm32f4xx_tim.c ****   * @param  TIMx: where x can be  1, 2, 3, 4, 5 or 8 to select the TIM peripheral.
 368:App/STM32F4-Discovery/Libraries/STM32F4xx_StdPeriph_Driver/src/stm32f4xx_tim.c ****   * @param  TIM_CounterMode: specifies the Counter Mode to be used
 369:App/STM32F4-Discovery/Libraries/STM32F4xx_StdPeriph_Driver/src/stm32f4xx_tim.c ****   *          This parameter can be one of the following values:
 370:App/STM32F4-Discovery/Libraries/STM32F4xx_StdPeriph_Driver/src/stm32f4xx_tim.c ****   *            @arg TIM_CounterMode_Up: TIM Up Counting Mode
 371:App/STM32F4-Discovery/Libraries/STM32F4xx_StdPeriph_Driver/src/stm32f4xx_tim.c ****   *            @arg TIM_CounterMode_Down: TIM Down Counting Mode
 372:App/STM32F4-Discovery/Libraries/STM32F4xx_StdPeriph_Driver/src/stm32f4xx_tim.c ****   *            @arg TIM_CounterMode_CenterAligned1: TIM Center Aligned Mode1
 373:App/STM32F4-Discovery/Libraries/STM32F4xx_StdPeriph_Driver/src/stm32f4xx_tim.c ****   *            @arg TIM_CounterMode_CenterAligned2: TIM Center Aligned Mode2
 374:App/STM32F4-Discovery/Libraries/STM32F4xx_StdPeriph_Driver/src/stm32f4xx_tim.c ****   *            @arg TIM_CounterMode_CenterAligned3: TIM Center Aligned Mode3
 375:App/STM32F4-Discovery/Libraries/STM32F4xx_StdPeriph_Driver/src/stm32f4xx_tim.c ****   * @retval None
 376:App/STM32F4-Discovery/Libraries/STM32F4xx_StdPeriph_Driver/src/stm32f4xx_tim.c ****   */
 377:App/STM32F4-Discovery/Libraries/STM32F4xx_StdPeriph_Driver/src/stm32f4xx_tim.c **** void TIM_CounterModeConfig(TIM_TypeDef* TIMx, uint16_t TIM_CounterMode)
 378:App/STM32F4-Discovery/Libraries/STM32F4xx_StdPeriph_Driver/src/stm32f4xx_tim.c **** {
 797              		.loc 1 378 0
 798              		.cfi_startproc
 799              		@ args = 0, pretend = 0, frame = 16
 800              		@ frame_needed = 1, uses_anonymous_args = 0
 801 0000 80B5     		push	{r7, lr}
 802              	.LCFI12:
 803              		.cfi_def_cfa_offset 8
 804              		.cfi_offset 7, -8
 805              		.cfi_offset 14, -4
 806 0002 84B0     		sub	sp, sp, #16
 807              	.LCFI13:
 808              		.cfi_def_cfa_offset 24
 809 0004 00AF     		add	r7, sp, #0
 810              	.LCFI14:
 811              		.cfi_def_cfa_register 7
 812 0006 7860     		str	r0, [r7, #4]
 813 0008 0B46     		mov	r3, r1
 814 000a 7B80     		strh	r3, [r7, #2]	@ movhi
 379:App/STM32F4-Discovery/Libraries/STM32F4xx_StdPeriph_Driver/src/stm32f4xx_tim.c ****   uint16_t tmpcr1 = 0;
 815              		.loc 1 379 0
 816 000c 0023     		movs	r3, #0
 817 000e FB81     		strh	r3, [r7, #14]	@ movhi
 380:App/STM32F4-Discovery/Libraries/STM32F4xx_StdPeriph_Driver/src/stm32f4xx_tim.c **** 
 381:App/STM32F4-Discovery/Libraries/STM32F4xx_StdPeriph_Driver/src/stm32f4xx_tim.c ****   /* Check the parameters */
 382:App/STM32F4-Discovery/Libraries/STM32F4xx_StdPeriph_Driver/src/stm32f4xx_tim.c ****   assert_param(IS_TIM_LIST3_PERIPH(TIMx));
 818              		.loc 1 382 0
 819 0010 7A68     		ldr	r2, [r7, #4]
 820 0012 204B     		ldr	r3, .L39
 821 0014 9A42     		cmp	r2, r3
 822 0016 18D0     		beq	.L37
 823              		.loc 1 382 0 is_stmt 0 discriminator 1
 824 0018 7B68     		ldr	r3, [r7, #4]
 825 001a B3F1804F 		cmp	r3, #1073741824
 826 001e 14D0     		beq	.L37
 827 0020 7A68     		ldr	r2, [r7, #4]
 828 0022 1D4B     		ldr	r3, .L39+4
 829 0024 9A42     		cmp	r2, r3
 830 0026 10D0     		beq	.L37
 831 0028 7A68     		ldr	r2, [r7, #4]
 832 002a 1C4B     		ldr	r3, .L39+8
 833 002c 9A42     		cmp	r2, r3
 834 002e 0CD0     		beq	.L37
 835 0030 7A68     		ldr	r2, [r7, #4]
 836 0032 1B4B     		ldr	r3, .L39+12
 837 0034 9A42     		cmp	r2, r3
 838 0036 08D0     		beq	.L37
 839 0038 7A68     		ldr	r2, [r7, #4]
 840 003a 1A4B     		ldr	r3, .L39+16
 841 003c 9A42     		cmp	r2, r3
 842 003e 04D0     		beq	.L37
 843 0040 1948     		ldr	r0, .L39+20
 844 0042 4FF4BF71 		mov	r1, #382
 845 0046 FFF7FEFF 		bl	assert_failed
 846              	.L37:
 383:App/STM32F4-Discovery/Libraries/STM32F4xx_StdPeriph_Driver/src/stm32f4xx_tim.c ****   assert_param(IS_TIM_COUNTER_MODE(TIM_CounterMode));
 847              		.loc 1 383 0 is_stmt 1
 848 004a 7B88     		ldrh	r3, [r7, #2]
 849 004c 002B     		cmp	r3, #0
 850 004e 10D0     		beq	.L38
 851              		.loc 1 383 0 is_stmt 0 discriminator 1
 852 0050 7B88     		ldrh	r3, [r7, #2]
 853 0052 102B     		cmp	r3, #16
 854 0054 0DD0     		beq	.L38
 855 0056 7B88     		ldrh	r3, [r7, #2]
 856 0058 202B     		cmp	r3, #32
 857 005a 0AD0     		beq	.L38
 858 005c 7B88     		ldrh	r3, [r7, #2]
 859 005e 402B     		cmp	r3, #64
 860 0060 07D0     		beq	.L38
 861 0062 7B88     		ldrh	r3, [r7, #2]
 862 0064 602B     		cmp	r3, #96
 863 0066 04D0     		beq	.L38
 864 0068 0F48     		ldr	r0, .L39+20
 865 006a 40F27F11 		movw	r1, #383
 866 006e FFF7FEFF 		bl	assert_failed
 867              	.L38:
 384:App/STM32F4-Discovery/Libraries/STM32F4xx_StdPeriph_Driver/src/stm32f4xx_tim.c **** 
 385:App/STM32F4-Discovery/Libraries/STM32F4xx_StdPeriph_Driver/src/stm32f4xx_tim.c ****   tmpcr1 = TIMx->CR1;
 868              		.loc 1 385 0 is_stmt 1
 869 0072 7B68     		ldr	r3, [r7, #4]
 870 0074 1B88     		ldrh	r3, [r3]	@ movhi
 871 0076 FB81     		strh	r3, [r7, #14]	@ movhi
 386:App/STM32F4-Discovery/Libraries/STM32F4xx_StdPeriph_Driver/src/stm32f4xx_tim.c **** 
 387:App/STM32F4-Discovery/Libraries/STM32F4xx_StdPeriph_Driver/src/stm32f4xx_tim.c ****   /* Reset the CMS and DIR Bits */
 388:App/STM32F4-Discovery/Libraries/STM32F4xx_StdPeriph_Driver/src/stm32f4xx_tim.c ****   tmpcr1 &= (uint16_t)~(TIM_CR1_DIR | TIM_CR1_CMS);
 872              		.loc 1 388 0
 873 0078 FB89     		ldrh	r3, [r7, #14]	@ movhi
 874 007a 23F07003 		bic	r3, r3, #112
 875 007e FB81     		strh	r3, [r7, #14]	@ movhi
 389:App/STM32F4-Discovery/Libraries/STM32F4xx_StdPeriph_Driver/src/stm32f4xx_tim.c **** 
 390:App/STM32F4-Discovery/Libraries/STM32F4xx_StdPeriph_Driver/src/stm32f4xx_tim.c ****   /* Set the Counter Mode */
 391:App/STM32F4-Discovery/Libraries/STM32F4xx_StdPeriph_Driver/src/stm32f4xx_tim.c ****   tmpcr1 |= TIM_CounterMode;
 876              		.loc 1 391 0
 877 0080 FA89     		ldrh	r2, [r7, #14]	@ movhi
 878 0082 7B88     		ldrh	r3, [r7, #2]	@ movhi
 879 0084 1343     		orrs	r3, r3, r2
 880 0086 FB81     		strh	r3, [r7, #14]	@ movhi
 392:App/STM32F4-Discovery/Libraries/STM32F4xx_StdPeriph_Driver/src/stm32f4xx_tim.c **** 
 393:App/STM32F4-Discovery/Libraries/STM32F4xx_StdPeriph_Driver/src/stm32f4xx_tim.c ****   /* Write to TIMx CR1 register */
 394:App/STM32F4-Discovery/Libraries/STM32F4xx_StdPeriph_Driver/src/stm32f4xx_tim.c ****   TIMx->CR1 = tmpcr1;
 881              		.loc 1 394 0
 882 0088 7B68     		ldr	r3, [r7, #4]
 883 008a FA89     		ldrh	r2, [r7, #14]	@ movhi
 884 008c 1A80     		strh	r2, [r3]	@ movhi
 395:App/STM32F4-Discovery/Libraries/STM32F4xx_StdPeriph_Driver/src/stm32f4xx_tim.c **** }
 885              		.loc 1 395 0
 886 008e 1037     		adds	r7, r7, #16
 887 0090 BD46     		mov	sp, r7
 888              		@ sp needed
 889 0092 80BD     		pop	{r7, pc}
 890              	.L40:
 891              		.align	2
 892              	.L39:
 893 0094 00000140 		.word	1073807360
 894 0098 00040040 		.word	1073742848
 895 009c 00080040 		.word	1073743872
 896 00a0 000C0040 		.word	1073744896
 897 00a4 00040140 		.word	1073808384
 898 00a8 00000000 		.word	.LC0
 899              		.cfi_endproc
 900              	.LFE114:
 902              		.section	.text.TIM_SetCounter,"ax",%progbits
 903              		.align	2
 904              		.global	TIM_SetCounter
 905              		.thumb
 906              		.thumb_func
 908              	TIM_SetCounter:
 909              	.LFB115:
 396:App/STM32F4-Discovery/Libraries/STM32F4xx_StdPeriph_Driver/src/stm32f4xx_tim.c **** 
 397:App/STM32F4-Discovery/Libraries/STM32F4xx_StdPeriph_Driver/src/stm32f4xx_tim.c **** /**
 398:App/STM32F4-Discovery/Libraries/STM32F4xx_StdPeriph_Driver/src/stm32f4xx_tim.c ****   * @brief  Sets the TIMx Counter Register value
 399:App/STM32F4-Discovery/Libraries/STM32F4xx_StdPeriph_Driver/src/stm32f4xx_tim.c ****   * @param  TIMx: where x can be 1 to 14 to select the TIM peripheral.
 400:App/STM32F4-Discovery/Libraries/STM32F4xx_StdPeriph_Driver/src/stm32f4xx_tim.c ****   * @param  Counter: specifies the Counter register new value.
 401:App/STM32F4-Discovery/Libraries/STM32F4xx_StdPeriph_Driver/src/stm32f4xx_tim.c ****   * @retval None
 402:App/STM32F4-Discovery/Libraries/STM32F4xx_StdPeriph_Driver/src/stm32f4xx_tim.c ****   */
 403:App/STM32F4-Discovery/Libraries/STM32F4xx_StdPeriph_Driver/src/stm32f4xx_tim.c **** void TIM_SetCounter(TIM_TypeDef* TIMx, uint32_t Counter)
 404:App/STM32F4-Discovery/Libraries/STM32F4xx_StdPeriph_Driver/src/stm32f4xx_tim.c **** {
 910              		.loc 1 404 0
 911              		.cfi_startproc
 912              		@ args = 0, pretend = 0, frame = 8
 913              		@ frame_needed = 1, uses_anonymous_args = 0
 914 0000 80B5     		push	{r7, lr}
 915              	.LCFI15:
 916              		.cfi_def_cfa_offset 8
 917              		.cfi_offset 7, -8
 918              		.cfi_offset 14, -4
 919 0002 82B0     		sub	sp, sp, #8
 920              	.LCFI16:
 921              		.cfi_def_cfa_offset 16
 922 0004 00AF     		add	r7, sp, #0
 923              	.LCFI17:
 924              		.cfi_def_cfa_register 7
 925 0006 7860     		str	r0, [r7, #4]
 926 0008 3960     		str	r1, [r7]
 405:App/STM32F4-Discovery/Libraries/STM32F4xx_StdPeriph_Driver/src/stm32f4xx_tim.c ****   /* Check the parameters */
 406:App/STM32F4-Discovery/Libraries/STM32F4xx_StdPeriph_Driver/src/stm32f4xx_tim.c ****    assert_param(IS_TIM_ALL_PERIPH(TIMx));
 927              		.loc 1 406 0
 928 000a 7A68     		ldr	r2, [r7, #4]
 929 000c 204B     		ldr	r3, .L43
 930 000e 9A42     		cmp	r2, r3
 931 0010 38D0     		beq	.L42
 932              		.loc 1 406 0 is_stmt 0 discriminator 1
 933 0012 7B68     		ldr	r3, [r7, #4]
 934 0014 B3F1804F 		cmp	r3, #1073741824
 935 0018 34D0     		beq	.L42
 936 001a 7A68     		ldr	r2, [r7, #4]
 937 001c 1D4B     		ldr	r3, .L43+4
 938 001e 9A42     		cmp	r2, r3
 939 0020 30D0     		beq	.L42
 940 0022 7A68     		ldr	r2, [r7, #4]
 941 0024 1C4B     		ldr	r3, .L43+8
 942 0026 9A42     		cmp	r2, r3
 943 0028 2CD0     		beq	.L42
 944 002a 7A68     		ldr	r2, [r7, #4]
 945 002c 1B4B     		ldr	r3, .L43+12
 946 002e 9A42     		cmp	r2, r3
 947 0030 28D0     		beq	.L42
 948 0032 7A68     		ldr	r2, [r7, #4]
 949 0034 1A4B     		ldr	r3, .L43+16
 950 0036 9A42     		cmp	r2, r3
 951 0038 24D0     		beq	.L42
 952 003a 7A68     		ldr	r2, [r7, #4]
 953 003c 194B     		ldr	r3, .L43+20
 954 003e 9A42     		cmp	r2, r3
 955 0040 20D0     		beq	.L42
 956 0042 7A68     		ldr	r2, [r7, #4]
 957 0044 184B     		ldr	r3, .L43+24
 958 0046 9A42     		cmp	r2, r3
 959 0048 1CD0     		beq	.L42
 960 004a 7A68     		ldr	r2, [r7, #4]
 961 004c 174B     		ldr	r3, .L43+28
 962 004e 9A42     		cmp	r2, r3
 963 0050 18D0     		beq	.L42
 964 0052 7A68     		ldr	r2, [r7, #4]
 965 0054 164B     		ldr	r3, .L43+32
 966 0056 9A42     		cmp	r2, r3
 967 0058 14D0     		beq	.L42
 968 005a 7A68     		ldr	r2, [r7, #4]
 969 005c 154B     		ldr	r3, .L43+36
 970 005e 9A42     		cmp	r2, r3
 971 0060 10D0     		beq	.L42
 972 0062 7A68     		ldr	r2, [r7, #4]
 973 0064 144B     		ldr	r3, .L43+40
 974 0066 9A42     		cmp	r2, r3
 975 0068 0CD0     		beq	.L42
 976 006a 7A68     		ldr	r2, [r7, #4]
 977 006c 134B     		ldr	r3, .L43+44
 978 006e 9A42     		cmp	r2, r3
 979 0070 08D0     		beq	.L42
 980 0072 7A68     		ldr	r2, [r7, #4]
 981 0074 124B     		ldr	r3, .L43+48
 982 0076 9A42     		cmp	r2, r3
 983 0078 04D0     		beq	.L42
 984 007a 1248     		ldr	r0, .L43+52
 985 007c 4FF4CB71 		mov	r1, #406
 986 0080 FFF7FEFF 		bl	assert_failed
 987              	.L42:
 407:App/STM32F4-Discovery/Libraries/STM32F4xx_StdPeriph_Driver/src/stm32f4xx_tim.c **** 
 408:App/STM32F4-Discovery/Libraries/STM32F4xx_StdPeriph_Driver/src/stm32f4xx_tim.c ****   /* Set the Counter Register value */
 409:App/STM32F4-Discovery/Libraries/STM32F4xx_StdPeriph_Driver/src/stm32f4xx_tim.c ****   TIMx->CNT = Counter;
 988              		.loc 1 409 0 is_stmt 1
 989 0084 7B68     		ldr	r3, [r7, #4]
 990 0086 3A68     		ldr	r2, [r7]
 991 0088 5A62     		str	r2, [r3, #36]
 410:App/STM32F4-Discovery/Libraries/STM32F4xx_StdPeriph_Driver/src/stm32f4xx_tim.c **** }
 992              		.loc 1 410 0
 993 008a 0837     		adds	r7, r7, #8
 994 008c BD46     		mov	sp, r7
 995              		@ sp needed
 996 008e 80BD     		pop	{r7, pc}
 997              	.L44:
 998              		.align	2
 999              	.L43:
 1000 0090 00000140 		.word	1073807360
 1001 0094 00040040 		.word	1073742848
 1002 0098 00080040 		.word	1073743872
 1003 009c 000C0040 		.word	1073744896
 1004 00a0 00100040 		.word	1073745920
 1005 00a4 00140040 		.word	1073746944
 1006 00a8 00040140 		.word	1073808384
 1007 00ac 00400140 		.word	1073823744
 1008 00b0 00440140 		.word	1073824768
 1009 00b4 00480140 		.word	1073825792
 1010 00b8 00180040 		.word	1073747968
 1011 00bc 001C0040 		.word	1073748992
 1012 00c0 00200040 		.word	1073750016
 1013 00c4 00000000 		.word	.LC0
 1014              		.cfi_endproc
 1015              	.LFE115:
 1017              		.section	.text.TIM_SetAutoreload,"ax",%progbits
 1018              		.align	2
 1019              		.global	TIM_SetAutoreload
 1020              		.thumb
 1021              		.thumb_func
 1023              	TIM_SetAutoreload:
 1024              	.LFB116:
 411:App/STM32F4-Discovery/Libraries/STM32F4xx_StdPeriph_Driver/src/stm32f4xx_tim.c **** 
 412:App/STM32F4-Discovery/Libraries/STM32F4xx_StdPeriph_Driver/src/stm32f4xx_tim.c **** /**
 413:App/STM32F4-Discovery/Libraries/STM32F4xx_StdPeriph_Driver/src/stm32f4xx_tim.c ****   * @brief  Sets the TIMx Autoreload Register value
 414:App/STM32F4-Discovery/Libraries/STM32F4xx_StdPeriph_Driver/src/stm32f4xx_tim.c ****   * @param  TIMx: where x can be 1 to 14 to select the TIM peripheral.
 415:App/STM32F4-Discovery/Libraries/STM32F4xx_StdPeriph_Driver/src/stm32f4xx_tim.c ****   * @param  Autoreload: specifies the Autoreload register new value.
 416:App/STM32F4-Discovery/Libraries/STM32F4xx_StdPeriph_Driver/src/stm32f4xx_tim.c ****   * @retval None
 417:App/STM32F4-Discovery/Libraries/STM32F4xx_StdPeriph_Driver/src/stm32f4xx_tim.c ****   */
 418:App/STM32F4-Discovery/Libraries/STM32F4xx_StdPeriph_Driver/src/stm32f4xx_tim.c **** void TIM_SetAutoreload(TIM_TypeDef* TIMx, uint32_t Autoreload)
 419:App/STM32F4-Discovery/Libraries/STM32F4xx_StdPeriph_Driver/src/stm32f4xx_tim.c **** {
 1025              		.loc 1 419 0
 1026              		.cfi_startproc
 1027              		@ args = 0, pretend = 0, frame = 8
 1028              		@ frame_needed = 1, uses_anonymous_args = 0
 1029 0000 80B5     		push	{r7, lr}
 1030              	.LCFI18:
 1031              		.cfi_def_cfa_offset 8
 1032              		.cfi_offset 7, -8
 1033              		.cfi_offset 14, -4
 1034 0002 82B0     		sub	sp, sp, #8
 1035              	.LCFI19:
 1036              		.cfi_def_cfa_offset 16
 1037 0004 00AF     		add	r7, sp, #0
 1038              	.LCFI20:
 1039              		.cfi_def_cfa_register 7
 1040 0006 7860     		str	r0, [r7, #4]
 1041 0008 3960     		str	r1, [r7]
 420:App/STM32F4-Discovery/Libraries/STM32F4xx_StdPeriph_Driver/src/stm32f4xx_tim.c ****   /* Check the parameters */
 421:App/STM32F4-Discovery/Libraries/STM32F4xx_StdPeriph_Driver/src/stm32f4xx_tim.c ****   assert_param(IS_TIM_ALL_PERIPH(TIMx));
 1042              		.loc 1 421 0
 1043 000a 7A68     		ldr	r2, [r7, #4]
 1044 000c 204B     		ldr	r3, .L47
 1045 000e 9A42     		cmp	r2, r3
 1046 0010 38D0     		beq	.L46
 1047              		.loc 1 421 0 is_stmt 0 discriminator 1
 1048 0012 7B68     		ldr	r3, [r7, #4]
 1049 0014 B3F1804F 		cmp	r3, #1073741824
 1050 0018 34D0     		beq	.L46
 1051 001a 7A68     		ldr	r2, [r7, #4]
 1052 001c 1D4B     		ldr	r3, .L47+4
 1053 001e 9A42     		cmp	r2, r3
 1054 0020 30D0     		beq	.L46
 1055 0022 7A68     		ldr	r2, [r7, #4]
 1056 0024 1C4B     		ldr	r3, .L47+8
 1057 0026 9A42     		cmp	r2, r3
 1058 0028 2CD0     		beq	.L46
 1059 002a 7A68     		ldr	r2, [r7, #4]
 1060 002c 1B4B     		ldr	r3, .L47+12
 1061 002e 9A42     		cmp	r2, r3
 1062 0030 28D0     		beq	.L46
 1063 0032 7A68     		ldr	r2, [r7, #4]
 1064 0034 1A4B     		ldr	r3, .L47+16
 1065 0036 9A42     		cmp	r2, r3
 1066 0038 24D0     		beq	.L46
 1067 003a 7A68     		ldr	r2, [r7, #4]
 1068 003c 194B     		ldr	r3, .L47+20
 1069 003e 9A42     		cmp	r2, r3
 1070 0040 20D0     		beq	.L46
 1071 0042 7A68     		ldr	r2, [r7, #4]
 1072 0044 184B     		ldr	r3, .L47+24
 1073 0046 9A42     		cmp	r2, r3
 1074 0048 1CD0     		beq	.L46
 1075 004a 7A68     		ldr	r2, [r7, #4]
 1076 004c 174B     		ldr	r3, .L47+28
 1077 004e 9A42     		cmp	r2, r3
 1078 0050 18D0     		beq	.L46
 1079 0052 7A68     		ldr	r2, [r7, #4]
 1080 0054 164B     		ldr	r3, .L47+32
 1081 0056 9A42     		cmp	r2, r3
 1082 0058 14D0     		beq	.L46
 1083 005a 7A68     		ldr	r2, [r7, #4]
 1084 005c 154B     		ldr	r3, .L47+36
 1085 005e 9A42     		cmp	r2, r3
 1086 0060 10D0     		beq	.L46
 1087 0062 7A68     		ldr	r2, [r7, #4]
 1088 0064 144B     		ldr	r3, .L47+40
 1089 0066 9A42     		cmp	r2, r3
 1090 0068 0CD0     		beq	.L46
 1091 006a 7A68     		ldr	r2, [r7, #4]
 1092 006c 134B     		ldr	r3, .L47+44
 1093 006e 9A42     		cmp	r2, r3
 1094 0070 08D0     		beq	.L46
 1095 0072 7A68     		ldr	r2, [r7, #4]
 1096 0074 124B     		ldr	r3, .L47+48
 1097 0076 9A42     		cmp	r2, r3
 1098 0078 04D0     		beq	.L46
 1099 007a 1248     		ldr	r0, .L47+52
 1100 007c 40F2A511 		movw	r1, #421
 1101 0080 FFF7FEFF 		bl	assert_failed
 1102              	.L46:
 422:App/STM32F4-Discovery/Libraries/STM32F4xx_StdPeriph_Driver/src/stm32f4xx_tim.c ****   
 423:App/STM32F4-Discovery/Libraries/STM32F4xx_StdPeriph_Driver/src/stm32f4xx_tim.c ****   /* Set the Autoreload Register value */
 424:App/STM32F4-Discovery/Libraries/STM32F4xx_StdPeriph_Driver/src/stm32f4xx_tim.c ****   TIMx->ARR = Autoreload;
 1103              		.loc 1 424 0 is_stmt 1
 1104 0084 7B68     		ldr	r3, [r7, #4]
 1105 0086 3A68     		ldr	r2, [r7]
 1106 0088 DA62     		str	r2, [r3, #44]
 425:App/STM32F4-Discovery/Libraries/STM32F4xx_StdPeriph_Driver/src/stm32f4xx_tim.c **** }
 1107              		.loc 1 425 0
 1108 008a 0837     		adds	r7, r7, #8
 1109 008c BD46     		mov	sp, r7
 1110              		@ sp needed
 1111 008e 80BD     		pop	{r7, pc}
 1112              	.L48:
 1113              		.align	2
 1114              	.L47:
 1115 0090 00000140 		.word	1073807360
 1116 0094 00040040 		.word	1073742848
 1117 0098 00080040 		.word	1073743872
 1118 009c 000C0040 		.word	1073744896
 1119 00a0 00100040 		.word	1073745920
 1120 00a4 00140040 		.word	1073746944
 1121 00a8 00040140 		.word	1073808384
 1122 00ac 00400140 		.word	1073823744
 1123 00b0 00440140 		.word	1073824768
 1124 00b4 00480140 		.word	1073825792
 1125 00b8 00180040 		.word	1073747968
 1126 00bc 001C0040 		.word	1073748992
 1127 00c0 00200040 		.word	1073750016
 1128 00c4 00000000 		.word	.LC0
 1129              		.cfi_endproc
 1130              	.LFE116:
 1132              		.section	.text.TIM_GetCounter,"ax",%progbits
 1133              		.align	2
 1134              		.global	TIM_GetCounter
 1135              		.thumb
 1136              		.thumb_func
 1138              	TIM_GetCounter:
 1139              	.LFB117:
 426:App/STM32F4-Discovery/Libraries/STM32F4xx_StdPeriph_Driver/src/stm32f4xx_tim.c **** 
 427:App/STM32F4-Discovery/Libraries/STM32F4xx_StdPeriph_Driver/src/stm32f4xx_tim.c **** /**
 428:App/STM32F4-Discovery/Libraries/STM32F4xx_StdPeriph_Driver/src/stm32f4xx_tim.c ****   * @brief  Gets the TIMx Counter value.
 429:App/STM32F4-Discovery/Libraries/STM32F4xx_StdPeriph_Driver/src/stm32f4xx_tim.c ****   * @param  TIMx: where x can be 1 to 14 to select the TIM peripheral.
 430:App/STM32F4-Discovery/Libraries/STM32F4xx_StdPeriph_Driver/src/stm32f4xx_tim.c ****   * @retval Counter Register value
 431:App/STM32F4-Discovery/Libraries/STM32F4xx_StdPeriph_Driver/src/stm32f4xx_tim.c ****   */
 432:App/STM32F4-Discovery/Libraries/STM32F4xx_StdPeriph_Driver/src/stm32f4xx_tim.c **** uint32_t TIM_GetCounter(TIM_TypeDef* TIMx)
 433:App/STM32F4-Discovery/Libraries/STM32F4xx_StdPeriph_Driver/src/stm32f4xx_tim.c **** {
 1140              		.loc 1 433 0
 1141              		.cfi_startproc
 1142              		@ args = 0, pretend = 0, frame = 8
 1143              		@ frame_needed = 1, uses_anonymous_args = 0
 1144 0000 80B5     		push	{r7, lr}
 1145              	.LCFI21:
 1146              		.cfi_def_cfa_offset 8
 1147              		.cfi_offset 7, -8
 1148              		.cfi_offset 14, -4
 1149 0002 82B0     		sub	sp, sp, #8
 1150              	.LCFI22:
 1151              		.cfi_def_cfa_offset 16
 1152 0004 00AF     		add	r7, sp, #0
 1153              	.LCFI23:
 1154              		.cfi_def_cfa_register 7
 1155 0006 7860     		str	r0, [r7, #4]
 434:App/STM32F4-Discovery/Libraries/STM32F4xx_StdPeriph_Driver/src/stm32f4xx_tim.c ****   /* Check the parameters */
 435:App/STM32F4-Discovery/Libraries/STM32F4xx_StdPeriph_Driver/src/stm32f4xx_tim.c ****   assert_param(IS_TIM_ALL_PERIPH(TIMx));
 1156              		.loc 1 435 0
 1157 0008 7A68     		ldr	r2, [r7, #4]
 1158 000a 214B     		ldr	r3, .L52
 1159 000c 9A42     		cmp	r2, r3
 1160 000e 38D0     		beq	.L50
 1161              		.loc 1 435 0 is_stmt 0 discriminator 1
 1162 0010 7B68     		ldr	r3, [r7, #4]
 1163 0012 B3F1804F 		cmp	r3, #1073741824
 1164 0016 34D0     		beq	.L50
 1165 0018 7A68     		ldr	r2, [r7, #4]
 1166 001a 1E4B     		ldr	r3, .L52+4
 1167 001c 9A42     		cmp	r2, r3
 1168 001e 30D0     		beq	.L50
 1169 0020 7A68     		ldr	r2, [r7, #4]
 1170 0022 1D4B     		ldr	r3, .L52+8
 1171 0024 9A42     		cmp	r2, r3
 1172 0026 2CD0     		beq	.L50
 1173 0028 7A68     		ldr	r2, [r7, #4]
 1174 002a 1C4B     		ldr	r3, .L52+12
 1175 002c 9A42     		cmp	r2, r3
 1176 002e 28D0     		beq	.L50
 1177 0030 7A68     		ldr	r2, [r7, #4]
 1178 0032 1B4B     		ldr	r3, .L52+16
 1179 0034 9A42     		cmp	r2, r3
 1180 0036 24D0     		beq	.L50
 1181 0038 7A68     		ldr	r2, [r7, #4]
 1182 003a 1A4B     		ldr	r3, .L52+20
 1183 003c 9A42     		cmp	r2, r3
 1184 003e 20D0     		beq	.L50
 1185 0040 7A68     		ldr	r2, [r7, #4]
 1186 0042 194B     		ldr	r3, .L52+24
 1187 0044 9A42     		cmp	r2, r3
 1188 0046 1CD0     		beq	.L50
 1189 0048 7A68     		ldr	r2, [r7, #4]
 1190 004a 184B     		ldr	r3, .L52+28
 1191 004c 9A42     		cmp	r2, r3
 1192 004e 18D0     		beq	.L50
 1193 0050 7A68     		ldr	r2, [r7, #4]
 1194 0052 174B     		ldr	r3, .L52+32
 1195 0054 9A42     		cmp	r2, r3
 1196 0056 14D0     		beq	.L50
 1197 0058 7A68     		ldr	r2, [r7, #4]
 1198 005a 164B     		ldr	r3, .L52+36
 1199 005c 9A42     		cmp	r2, r3
 1200 005e 10D0     		beq	.L50
 1201 0060 7A68     		ldr	r2, [r7, #4]
 1202 0062 154B     		ldr	r3, .L52+40
 1203 0064 9A42     		cmp	r2, r3
 1204 0066 0CD0     		beq	.L50
 1205 0068 7A68     		ldr	r2, [r7, #4]
 1206 006a 144B     		ldr	r3, .L52+44
 1207 006c 9A42     		cmp	r2, r3
 1208 006e 08D0     		beq	.L50
 1209 0070 7A68     		ldr	r2, [r7, #4]
 1210 0072 134B     		ldr	r3, .L52+48
 1211 0074 9A42     		cmp	r2, r3
 1212 0076 04D0     		beq	.L50
 1213 0078 1248     		ldr	r0, .L52+52
 1214 007a 40F2B311 		movw	r1, #435
 1215 007e FFF7FEFF 		bl	assert_failed
 1216              	.L50:
 436:App/STM32F4-Discovery/Libraries/STM32F4xx_StdPeriph_Driver/src/stm32f4xx_tim.c **** 
 437:App/STM32F4-Discovery/Libraries/STM32F4xx_StdPeriph_Driver/src/stm32f4xx_tim.c ****   /* Get the Counter Register value */
 438:App/STM32F4-Discovery/Libraries/STM32F4xx_StdPeriph_Driver/src/stm32f4xx_tim.c ****   return TIMx->CNT;
 1217              		.loc 1 438 0 is_stmt 1
 1218 0082 7B68     		ldr	r3, [r7, #4]
 1219 0084 5B6A     		ldr	r3, [r3, #36]
 439:App/STM32F4-Discovery/Libraries/STM32F4xx_StdPeriph_Driver/src/stm32f4xx_tim.c **** }
 1220              		.loc 1 439 0
 1221 0086 1846     		mov	r0, r3
 1222 0088 0837     		adds	r7, r7, #8
 1223 008a BD46     		mov	sp, r7
 1224              		@ sp needed
 1225 008c 80BD     		pop	{r7, pc}
 1226              	.L53:
 1227 008e 00BF     		.align	2
 1228              	.L52:
 1229 0090 00000140 		.word	1073807360
 1230 0094 00040040 		.word	1073742848
 1231 0098 00080040 		.word	1073743872
 1232 009c 000C0040 		.word	1073744896
 1233 00a0 00100040 		.word	1073745920
 1234 00a4 00140040 		.word	1073746944
 1235 00a8 00040140 		.word	1073808384
 1236 00ac 00400140 		.word	1073823744
 1237 00b0 00440140 		.word	1073824768
 1238 00b4 00480140 		.word	1073825792
 1239 00b8 00180040 		.word	1073747968
 1240 00bc 001C0040 		.word	1073748992
 1241 00c0 00200040 		.word	1073750016
 1242 00c4 00000000 		.word	.LC0
 1243              		.cfi_endproc
 1244              	.LFE117:
 1246              		.section	.text.TIM_GetPrescaler,"ax",%progbits
 1247              		.align	2
 1248              		.global	TIM_GetPrescaler
 1249              		.thumb
 1250              		.thumb_func
 1252              	TIM_GetPrescaler:
 1253              	.LFB118:
 440:App/STM32F4-Discovery/Libraries/STM32F4xx_StdPeriph_Driver/src/stm32f4xx_tim.c **** 
 441:App/STM32F4-Discovery/Libraries/STM32F4xx_StdPeriph_Driver/src/stm32f4xx_tim.c **** /**
 442:App/STM32F4-Discovery/Libraries/STM32F4xx_StdPeriph_Driver/src/stm32f4xx_tim.c ****   * @brief  Gets the TIMx Prescaler value.
 443:App/STM32F4-Discovery/Libraries/STM32F4xx_StdPeriph_Driver/src/stm32f4xx_tim.c ****   * @param  TIMx: where x can be 1 to 14 to select the TIM peripheral.
 444:App/STM32F4-Discovery/Libraries/STM32F4xx_StdPeriph_Driver/src/stm32f4xx_tim.c ****   * @retval Prescaler Register value.
 445:App/STM32F4-Discovery/Libraries/STM32F4xx_StdPeriph_Driver/src/stm32f4xx_tim.c ****   */
 446:App/STM32F4-Discovery/Libraries/STM32F4xx_StdPeriph_Driver/src/stm32f4xx_tim.c **** uint16_t TIM_GetPrescaler(TIM_TypeDef* TIMx)
 447:App/STM32F4-Discovery/Libraries/STM32F4xx_StdPeriph_Driver/src/stm32f4xx_tim.c **** {
 1254              		.loc 1 447 0
 1255              		.cfi_startproc
 1256              		@ args = 0, pretend = 0, frame = 8
 1257              		@ frame_needed = 1, uses_anonymous_args = 0
 1258 0000 80B5     		push	{r7, lr}
 1259              	.LCFI24:
 1260              		.cfi_def_cfa_offset 8
 1261              		.cfi_offset 7, -8
 1262              		.cfi_offset 14, -4
 1263 0002 82B0     		sub	sp, sp, #8
 1264              	.LCFI25:
 1265              		.cfi_def_cfa_offset 16
 1266 0004 00AF     		add	r7, sp, #0
 1267              	.LCFI26:
 1268              		.cfi_def_cfa_register 7
 1269 0006 7860     		str	r0, [r7, #4]
 448:App/STM32F4-Discovery/Libraries/STM32F4xx_StdPeriph_Driver/src/stm32f4xx_tim.c ****   /* Check the parameters */
 449:App/STM32F4-Discovery/Libraries/STM32F4xx_StdPeriph_Driver/src/stm32f4xx_tim.c ****   assert_param(IS_TIM_ALL_PERIPH(TIMx));
 1270              		.loc 1 449 0
 1271 0008 7A68     		ldr	r2, [r7, #4]
 1272 000a 214B     		ldr	r3, .L57
 1273 000c 9A42     		cmp	r2, r3
 1274 000e 38D0     		beq	.L55
 1275              		.loc 1 449 0 is_stmt 0 discriminator 1
 1276 0010 7B68     		ldr	r3, [r7, #4]
 1277 0012 B3F1804F 		cmp	r3, #1073741824
 1278 0016 34D0     		beq	.L55
 1279 0018 7A68     		ldr	r2, [r7, #4]
 1280 001a 1E4B     		ldr	r3, .L57+4
 1281 001c 9A42     		cmp	r2, r3
 1282 001e 30D0     		beq	.L55
 1283 0020 7A68     		ldr	r2, [r7, #4]
 1284 0022 1D4B     		ldr	r3, .L57+8
 1285 0024 9A42     		cmp	r2, r3
 1286 0026 2CD0     		beq	.L55
 1287 0028 7A68     		ldr	r2, [r7, #4]
 1288 002a 1C4B     		ldr	r3, .L57+12
 1289 002c 9A42     		cmp	r2, r3
 1290 002e 28D0     		beq	.L55
 1291 0030 7A68     		ldr	r2, [r7, #4]
 1292 0032 1B4B     		ldr	r3, .L57+16
 1293 0034 9A42     		cmp	r2, r3
 1294 0036 24D0     		beq	.L55
 1295 0038 7A68     		ldr	r2, [r7, #4]
 1296 003a 1A4B     		ldr	r3, .L57+20
 1297 003c 9A42     		cmp	r2, r3
 1298 003e 20D0     		beq	.L55
 1299 0040 7A68     		ldr	r2, [r7, #4]
 1300 0042 194B     		ldr	r3, .L57+24
 1301 0044 9A42     		cmp	r2, r3
 1302 0046 1CD0     		beq	.L55
 1303 0048 7A68     		ldr	r2, [r7, #4]
 1304 004a 184B     		ldr	r3, .L57+28
 1305 004c 9A42     		cmp	r2, r3
 1306 004e 18D0     		beq	.L55
 1307 0050 7A68     		ldr	r2, [r7, #4]
 1308 0052 174B     		ldr	r3, .L57+32
 1309 0054 9A42     		cmp	r2, r3
 1310 0056 14D0     		beq	.L55
 1311 0058 7A68     		ldr	r2, [r7, #4]
 1312 005a 164B     		ldr	r3, .L57+36
 1313 005c 9A42     		cmp	r2, r3
 1314 005e 10D0     		beq	.L55
 1315 0060 7A68     		ldr	r2, [r7, #4]
 1316 0062 154B     		ldr	r3, .L57+40
 1317 0064 9A42     		cmp	r2, r3
 1318 0066 0CD0     		beq	.L55
 1319 0068 7A68     		ldr	r2, [r7, #4]
 1320 006a 144B     		ldr	r3, .L57+44
 1321 006c 9A42     		cmp	r2, r3
 1322 006e 08D0     		beq	.L55
 1323 0070 7A68     		ldr	r2, [r7, #4]
 1324 0072 134B     		ldr	r3, .L57+48
 1325 0074 9A42     		cmp	r2, r3
 1326 0076 04D0     		beq	.L55
 1327 0078 1248     		ldr	r0, .L57+52
 1328 007a 40F2C111 		movw	r1, #449
 1329 007e FFF7FEFF 		bl	assert_failed
 1330              	.L55:
 450:App/STM32F4-Discovery/Libraries/STM32F4xx_StdPeriph_Driver/src/stm32f4xx_tim.c **** 
 451:App/STM32F4-Discovery/Libraries/STM32F4xx_StdPeriph_Driver/src/stm32f4xx_tim.c ****   /* Get the Prescaler Register value */
 452:App/STM32F4-Discovery/Libraries/STM32F4xx_StdPeriph_Driver/src/stm32f4xx_tim.c ****   return TIMx->PSC;
 1331              		.loc 1 452 0 is_stmt 1
 1332 0082 7B68     		ldr	r3, [r7, #4]
 1333 0084 1B8D     		ldrh	r3, [r3, #40]	@ movhi
 1334 0086 9BB2     		uxth	r3, r3
 453:App/STM32F4-Discovery/Libraries/STM32F4xx_StdPeriph_Driver/src/stm32f4xx_tim.c **** }
 1335              		.loc 1 453 0
 1336 0088 1846     		mov	r0, r3
 1337 008a 0837     		adds	r7, r7, #8
 1338 008c BD46     		mov	sp, r7
 1339              		@ sp needed
 1340 008e 80BD     		pop	{r7, pc}
 1341              	.L58:
 1342              		.align	2
 1343              	.L57:
 1344 0090 00000140 		.word	1073807360
 1345 0094 00040040 		.word	1073742848
 1346 0098 00080040 		.word	1073743872
 1347 009c 000C0040 		.word	1073744896
 1348 00a0 00100040 		.word	1073745920
 1349 00a4 00140040 		.word	1073746944
 1350 00a8 00040140 		.word	1073808384
 1351 00ac 00400140 		.word	1073823744
 1352 00b0 00440140 		.word	1073824768
 1353 00b4 00480140 		.word	1073825792
 1354 00b8 00180040 		.word	1073747968
 1355 00bc 001C0040 		.word	1073748992
 1356 00c0 00200040 		.word	1073750016
 1357 00c4 00000000 		.word	.LC0
 1358              		.cfi_endproc
 1359              	.LFE118:
 1361              		.section	.text.TIM_UpdateDisableConfig,"ax",%progbits
 1362              		.align	2
 1363              		.global	TIM_UpdateDisableConfig
 1364              		.thumb
 1365              		.thumb_func
 1367              	TIM_UpdateDisableConfig:
 1368              	.LFB119:
 454:App/STM32F4-Discovery/Libraries/STM32F4xx_StdPeriph_Driver/src/stm32f4xx_tim.c **** 
 455:App/STM32F4-Discovery/Libraries/STM32F4xx_StdPeriph_Driver/src/stm32f4xx_tim.c **** /**
 456:App/STM32F4-Discovery/Libraries/STM32F4xx_StdPeriph_Driver/src/stm32f4xx_tim.c ****   * @brief  Enables or Disables the TIMx Update event.
 457:App/STM32F4-Discovery/Libraries/STM32F4xx_StdPeriph_Driver/src/stm32f4xx_tim.c ****   * @param  TIMx: where x can be 1 to 14 to select the TIM peripheral.
 458:App/STM32F4-Discovery/Libraries/STM32F4xx_StdPeriph_Driver/src/stm32f4xx_tim.c ****   * @param  NewState: new state of the TIMx UDIS bit
 459:App/STM32F4-Discovery/Libraries/STM32F4xx_StdPeriph_Driver/src/stm32f4xx_tim.c ****   *          This parameter can be: ENABLE or DISABLE.
 460:App/STM32F4-Discovery/Libraries/STM32F4xx_StdPeriph_Driver/src/stm32f4xx_tim.c ****   * @retval None
 461:App/STM32F4-Discovery/Libraries/STM32F4xx_StdPeriph_Driver/src/stm32f4xx_tim.c ****   */
 462:App/STM32F4-Discovery/Libraries/STM32F4xx_StdPeriph_Driver/src/stm32f4xx_tim.c **** void TIM_UpdateDisableConfig(TIM_TypeDef* TIMx, FunctionalState NewState)
 463:App/STM32F4-Discovery/Libraries/STM32F4xx_StdPeriph_Driver/src/stm32f4xx_tim.c **** {
 1369              		.loc 1 463 0
 1370              		.cfi_startproc
 1371              		@ args = 0, pretend = 0, frame = 8
 1372              		@ frame_needed = 1, uses_anonymous_args = 0
 1373 0000 80B5     		push	{r7, lr}
 1374              	.LCFI27:
 1375              		.cfi_def_cfa_offset 8
 1376              		.cfi_offset 7, -8
 1377              		.cfi_offset 14, -4
 1378 0002 82B0     		sub	sp, sp, #8
 1379              	.LCFI28:
 1380              		.cfi_def_cfa_offset 16
 1381 0004 00AF     		add	r7, sp, #0
 1382              	.LCFI29:
 1383              		.cfi_def_cfa_register 7
 1384 0006 7860     		str	r0, [r7, #4]
 1385 0008 0B46     		mov	r3, r1
 1386 000a FB70     		strb	r3, [r7, #3]
 464:App/STM32F4-Discovery/Libraries/STM32F4xx_StdPeriph_Driver/src/stm32f4xx_tim.c ****   /* Check the parameters */
 465:App/STM32F4-Discovery/Libraries/STM32F4xx_StdPeriph_Driver/src/stm32f4xx_tim.c ****   assert_param(IS_TIM_ALL_PERIPH(TIMx));
 1387              		.loc 1 465 0
 1388 000c 7A68     		ldr	r2, [r7, #4]
 1389 000e 2F4B     		ldr	r3, .L64
 1390 0010 9A42     		cmp	r2, r3
 1391 0012 38D0     		beq	.L60
 1392              		.loc 1 465 0 is_stmt 0 discriminator 1
 1393 0014 7B68     		ldr	r3, [r7, #4]
 1394 0016 B3F1804F 		cmp	r3, #1073741824
 1395 001a 34D0     		beq	.L60
 1396 001c 7A68     		ldr	r2, [r7, #4]
 1397 001e 2C4B     		ldr	r3, .L64+4
 1398 0020 9A42     		cmp	r2, r3
 1399 0022 30D0     		beq	.L60
 1400 0024 7A68     		ldr	r2, [r7, #4]
 1401 0026 2B4B     		ldr	r3, .L64+8
 1402 0028 9A42     		cmp	r2, r3
 1403 002a 2CD0     		beq	.L60
 1404 002c 7A68     		ldr	r2, [r7, #4]
 1405 002e 2A4B     		ldr	r3, .L64+12
 1406 0030 9A42     		cmp	r2, r3
 1407 0032 28D0     		beq	.L60
 1408 0034 7A68     		ldr	r2, [r7, #4]
 1409 0036 294B     		ldr	r3, .L64+16
 1410 0038 9A42     		cmp	r2, r3
 1411 003a 24D0     		beq	.L60
 1412 003c 7A68     		ldr	r2, [r7, #4]
 1413 003e 284B     		ldr	r3, .L64+20
 1414 0040 9A42     		cmp	r2, r3
 1415 0042 20D0     		beq	.L60
 1416 0044 7A68     		ldr	r2, [r7, #4]
 1417 0046 274B     		ldr	r3, .L64+24
 1418 0048 9A42     		cmp	r2, r3
 1419 004a 1CD0     		beq	.L60
 1420 004c 7A68     		ldr	r2, [r7, #4]
 1421 004e 264B     		ldr	r3, .L64+28
 1422 0050 9A42     		cmp	r2, r3
 1423 0052 18D0     		beq	.L60
 1424 0054 7A68     		ldr	r2, [r7, #4]
 1425 0056 254B     		ldr	r3, .L64+32
 1426 0058 9A42     		cmp	r2, r3
 1427 005a 14D0     		beq	.L60
 1428 005c 7A68     		ldr	r2, [r7, #4]
 1429 005e 244B     		ldr	r3, .L64+36
 1430 0060 9A42     		cmp	r2, r3
 1431 0062 10D0     		beq	.L60
 1432 0064 7A68     		ldr	r2, [r7, #4]
 1433 0066 234B     		ldr	r3, .L64+40
 1434 0068 9A42     		cmp	r2, r3
 1435 006a 0CD0     		beq	.L60
 1436 006c 7A68     		ldr	r2, [r7, #4]
 1437 006e 224B     		ldr	r3, .L64+44
 1438 0070 9A42     		cmp	r2, r3
 1439 0072 08D0     		beq	.L60
 1440 0074 7A68     		ldr	r2, [r7, #4]
 1441 0076 214B     		ldr	r3, .L64+48
 1442 0078 9A42     		cmp	r2, r3
 1443 007a 04D0     		beq	.L60
 1444 007c 2048     		ldr	r0, .L64+52
 1445 007e 40F2D111 		movw	r1, #465
 1446 0082 FFF7FEFF 		bl	assert_failed
 1447              	.L60:
 466:App/STM32F4-Discovery/Libraries/STM32F4xx_StdPeriph_Driver/src/stm32f4xx_tim.c ****   assert_param(IS_FUNCTIONAL_STATE(NewState));
 1448              		.loc 1 466 0 is_stmt 1
 1449 0086 FB78     		ldrb	r3, [r7, #3]	@ zero_extendqisi2
 1450 0088 002B     		cmp	r3, #0
 1451 008a 07D0     		beq	.L61
 1452              		.loc 1 466 0 is_stmt 0 discriminator 1
 1453 008c FB78     		ldrb	r3, [r7, #3]	@ zero_extendqisi2
 1454 008e 012B     		cmp	r3, #1
 1455 0090 04D0     		beq	.L61
 1456 0092 1B48     		ldr	r0, .L64+52
 1457 0094 4FF4E971 		mov	r1, #466
 1458 0098 FFF7FEFF 		bl	assert_failed
 1459              	.L61:
 467:App/STM32F4-Discovery/Libraries/STM32F4xx_StdPeriph_Driver/src/stm32f4xx_tim.c **** 
 468:App/STM32F4-Discovery/Libraries/STM32F4xx_StdPeriph_Driver/src/stm32f4xx_tim.c ****   if (NewState != DISABLE)
 1460              		.loc 1 468 0 is_stmt 1
 1461 009c FB78     		ldrb	r3, [r7, #3]	@ zero_extendqisi2
 1462 009e 002B     		cmp	r3, #0
 1463 00a0 08D0     		beq	.L62
 469:App/STM32F4-Discovery/Libraries/STM32F4xx_StdPeriph_Driver/src/stm32f4xx_tim.c ****   {
 470:App/STM32F4-Discovery/Libraries/STM32F4xx_StdPeriph_Driver/src/stm32f4xx_tim.c ****     /* Set the Update Disable Bit */
 471:App/STM32F4-Discovery/Libraries/STM32F4xx_StdPeriph_Driver/src/stm32f4xx_tim.c ****     TIMx->CR1 |= TIM_CR1_UDIS;
 1464              		.loc 1 471 0
 1465 00a2 7B68     		ldr	r3, [r7, #4]
 1466 00a4 1B88     		ldrh	r3, [r3]	@ movhi
 1467 00a6 9BB2     		uxth	r3, r3
 1468 00a8 43F00203 		orr	r3, r3, #2
 1469 00ac 9AB2     		uxth	r2, r3
 1470 00ae 7B68     		ldr	r3, [r7, #4]
 1471 00b0 1A80     		strh	r2, [r3]	@ movhi
 1472 00b2 07E0     		b	.L59
 1473              	.L62:
 472:App/STM32F4-Discovery/Libraries/STM32F4xx_StdPeriph_Driver/src/stm32f4xx_tim.c ****   }
 473:App/STM32F4-Discovery/Libraries/STM32F4xx_StdPeriph_Driver/src/stm32f4xx_tim.c ****   else
 474:App/STM32F4-Discovery/Libraries/STM32F4xx_StdPeriph_Driver/src/stm32f4xx_tim.c ****   {
 475:App/STM32F4-Discovery/Libraries/STM32F4xx_StdPeriph_Driver/src/stm32f4xx_tim.c ****     /* Reset the Update Disable Bit */
 476:App/STM32F4-Discovery/Libraries/STM32F4xx_StdPeriph_Driver/src/stm32f4xx_tim.c ****     TIMx->CR1 &= (uint16_t)~TIM_CR1_UDIS;
 1474              		.loc 1 476 0
 1475 00b4 7B68     		ldr	r3, [r7, #4]
 1476 00b6 1B88     		ldrh	r3, [r3]	@ movhi
 1477 00b8 9BB2     		uxth	r3, r3
 1478 00ba 23F00203 		bic	r3, r3, #2
 1479 00be 9AB2     		uxth	r2, r3
 1480 00c0 7B68     		ldr	r3, [r7, #4]
 1481 00c2 1A80     		strh	r2, [r3]	@ movhi
 1482              	.L59:
 477:App/STM32F4-Discovery/Libraries/STM32F4xx_StdPeriph_Driver/src/stm32f4xx_tim.c ****   }
 478:App/STM32F4-Discovery/Libraries/STM32F4xx_StdPeriph_Driver/src/stm32f4xx_tim.c **** }
 1483              		.loc 1 478 0
 1484 00c4 0837     		adds	r7, r7, #8
 1485 00c6 BD46     		mov	sp, r7
 1486              		@ sp needed
 1487 00c8 80BD     		pop	{r7, pc}
 1488              	.L65:
 1489 00ca 00BF     		.align	2
 1490              	.L64:
 1491 00cc 00000140 		.word	1073807360
 1492 00d0 00040040 		.word	1073742848
 1493 00d4 00080040 		.word	1073743872
 1494 00d8 000C0040 		.word	1073744896
 1495 00dc 00100040 		.word	1073745920
 1496 00e0 00140040 		.word	1073746944
 1497 00e4 00040140 		.word	1073808384
 1498 00e8 00400140 		.word	1073823744
 1499 00ec 00440140 		.word	1073824768
 1500 00f0 00480140 		.word	1073825792
 1501 00f4 00180040 		.word	1073747968
 1502 00f8 001C0040 		.word	1073748992
 1503 00fc 00200040 		.word	1073750016
 1504 0100 00000000 		.word	.LC0
 1505              		.cfi_endproc
 1506              	.LFE119:
 1508              		.section	.text.TIM_UpdateRequestConfig,"ax",%progbits
 1509              		.align	2
 1510              		.global	TIM_UpdateRequestConfig
 1511              		.thumb
 1512              		.thumb_func
 1514              	TIM_UpdateRequestConfig:
 1515              	.LFB120:
 479:App/STM32F4-Discovery/Libraries/STM32F4xx_StdPeriph_Driver/src/stm32f4xx_tim.c **** 
 480:App/STM32F4-Discovery/Libraries/STM32F4xx_StdPeriph_Driver/src/stm32f4xx_tim.c **** /**
 481:App/STM32F4-Discovery/Libraries/STM32F4xx_StdPeriph_Driver/src/stm32f4xx_tim.c ****   * @brief  Configures the TIMx Update Request Interrupt source.
 482:App/STM32F4-Discovery/Libraries/STM32F4xx_StdPeriph_Driver/src/stm32f4xx_tim.c ****   * @param  TIMx: where x can be 1 to 14 to select the TIM peripheral.
 483:App/STM32F4-Discovery/Libraries/STM32F4xx_StdPeriph_Driver/src/stm32f4xx_tim.c ****   * @param  TIM_UpdateSource: specifies the Update source.
 484:App/STM32F4-Discovery/Libraries/STM32F4xx_StdPeriph_Driver/src/stm32f4xx_tim.c ****   *          This parameter can be one of the following values:
 485:App/STM32F4-Discovery/Libraries/STM32F4xx_StdPeriph_Driver/src/stm32f4xx_tim.c ****   *            @arg TIM_UpdateSource_Global: Source of update is the counter
 486:App/STM32F4-Discovery/Libraries/STM32F4xx_StdPeriph_Driver/src/stm32f4xx_tim.c ****   *                 overflow/underflow or the setting of UG bit, or an update
 487:App/STM32F4-Discovery/Libraries/STM32F4xx_StdPeriph_Driver/src/stm32f4xx_tim.c ****   *                 generation through the slave mode controller.
 488:App/STM32F4-Discovery/Libraries/STM32F4xx_StdPeriph_Driver/src/stm32f4xx_tim.c ****   *            @arg TIM_UpdateSource_Regular: Source of update is counter overflow/underflow.
 489:App/STM32F4-Discovery/Libraries/STM32F4xx_StdPeriph_Driver/src/stm32f4xx_tim.c ****   * @retval None
 490:App/STM32F4-Discovery/Libraries/STM32F4xx_StdPeriph_Driver/src/stm32f4xx_tim.c ****   */
 491:App/STM32F4-Discovery/Libraries/STM32F4xx_StdPeriph_Driver/src/stm32f4xx_tim.c **** void TIM_UpdateRequestConfig(TIM_TypeDef* TIMx, uint16_t TIM_UpdateSource)
 492:App/STM32F4-Discovery/Libraries/STM32F4xx_StdPeriph_Driver/src/stm32f4xx_tim.c **** {
 1516              		.loc 1 492 0
 1517              		.cfi_startproc
 1518              		@ args = 0, pretend = 0, frame = 8
 1519              		@ frame_needed = 1, uses_anonymous_args = 0
 1520 0000 80B5     		push	{r7, lr}
 1521              	.LCFI30:
 1522              		.cfi_def_cfa_offset 8
 1523              		.cfi_offset 7, -8
 1524              		.cfi_offset 14, -4
 1525 0002 82B0     		sub	sp, sp, #8
 1526              	.LCFI31:
 1527              		.cfi_def_cfa_offset 16
 1528 0004 00AF     		add	r7, sp, #0
 1529              	.LCFI32:
 1530              		.cfi_def_cfa_register 7
 1531 0006 7860     		str	r0, [r7, #4]
 1532 0008 0B46     		mov	r3, r1
 1533 000a 7B80     		strh	r3, [r7, #2]	@ movhi
 493:App/STM32F4-Discovery/Libraries/STM32F4xx_StdPeriph_Driver/src/stm32f4xx_tim.c ****   /* Check the parameters */
 494:App/STM32F4-Discovery/Libraries/STM32F4xx_StdPeriph_Driver/src/stm32f4xx_tim.c ****   assert_param(IS_TIM_ALL_PERIPH(TIMx));
 1534              		.loc 1 494 0
 1535 000c 7A68     		ldr	r2, [r7, #4]
 1536 000e 2F4B     		ldr	r3, .L71
 1537 0010 9A42     		cmp	r2, r3
 1538 0012 38D0     		beq	.L67
 1539              		.loc 1 494 0 is_stmt 0 discriminator 1
 1540 0014 7B68     		ldr	r3, [r7, #4]
 1541 0016 B3F1804F 		cmp	r3, #1073741824
 1542 001a 34D0     		beq	.L67
 1543 001c 7A68     		ldr	r2, [r7, #4]
 1544 001e 2C4B     		ldr	r3, .L71+4
 1545 0020 9A42     		cmp	r2, r3
 1546 0022 30D0     		beq	.L67
 1547 0024 7A68     		ldr	r2, [r7, #4]
 1548 0026 2B4B     		ldr	r3, .L71+8
 1549 0028 9A42     		cmp	r2, r3
 1550 002a 2CD0     		beq	.L67
 1551 002c 7A68     		ldr	r2, [r7, #4]
 1552 002e 2A4B     		ldr	r3, .L71+12
 1553 0030 9A42     		cmp	r2, r3
 1554 0032 28D0     		beq	.L67
 1555 0034 7A68     		ldr	r2, [r7, #4]
 1556 0036 294B     		ldr	r3, .L71+16
 1557 0038 9A42     		cmp	r2, r3
 1558 003a 24D0     		beq	.L67
 1559 003c 7A68     		ldr	r2, [r7, #4]
 1560 003e 284B     		ldr	r3, .L71+20
 1561 0040 9A42     		cmp	r2, r3
 1562 0042 20D0     		beq	.L67
 1563 0044 7A68     		ldr	r2, [r7, #4]
 1564 0046 274B     		ldr	r3, .L71+24
 1565 0048 9A42     		cmp	r2, r3
 1566 004a 1CD0     		beq	.L67
 1567 004c 7A68     		ldr	r2, [r7, #4]
 1568 004e 264B     		ldr	r3, .L71+28
 1569 0050 9A42     		cmp	r2, r3
 1570 0052 18D0     		beq	.L67
 1571 0054 7A68     		ldr	r2, [r7, #4]
 1572 0056 254B     		ldr	r3, .L71+32
 1573 0058 9A42     		cmp	r2, r3
 1574 005a 14D0     		beq	.L67
 1575 005c 7A68     		ldr	r2, [r7, #4]
 1576 005e 244B     		ldr	r3, .L71+36
 1577 0060 9A42     		cmp	r2, r3
 1578 0062 10D0     		beq	.L67
 1579 0064 7A68     		ldr	r2, [r7, #4]
 1580 0066 234B     		ldr	r3, .L71+40
 1581 0068 9A42     		cmp	r2, r3
 1582 006a 0CD0     		beq	.L67
 1583 006c 7A68     		ldr	r2, [r7, #4]
 1584 006e 224B     		ldr	r3, .L71+44
 1585 0070 9A42     		cmp	r2, r3
 1586 0072 08D0     		beq	.L67
 1587 0074 7A68     		ldr	r2, [r7, #4]
 1588 0076 214B     		ldr	r3, .L71+48
 1589 0078 9A42     		cmp	r2, r3
 1590 007a 04D0     		beq	.L67
 1591 007c 2048     		ldr	r0, .L71+52
 1592 007e 4FF4F771 		mov	r1, #494
 1593 0082 FFF7FEFF 		bl	assert_failed
 1594              	.L67:
 495:App/STM32F4-Discovery/Libraries/STM32F4xx_StdPeriph_Driver/src/stm32f4xx_tim.c ****   assert_param(IS_TIM_UPDATE_SOURCE(TIM_UpdateSource));
 1595              		.loc 1 495 0 is_stmt 1
 1596 0086 7B88     		ldrh	r3, [r7, #2]
 1597 0088 002B     		cmp	r3, #0
 1598 008a 07D0     		beq	.L68
 1599              		.loc 1 495 0 is_stmt 0 discriminator 1
 1600 008c 7B88     		ldrh	r3, [r7, #2]
 1601 008e 012B     		cmp	r3, #1
 1602 0090 04D0     		beq	.L68
 1603 0092 1B48     		ldr	r0, .L71+52
 1604 0094 40F2EF11 		movw	r1, #495
 1605 0098 FFF7FEFF 		bl	assert_failed
 1606              	.L68:
 496:App/STM32F4-Discovery/Libraries/STM32F4xx_StdPeriph_Driver/src/stm32f4xx_tim.c **** 
 497:App/STM32F4-Discovery/Libraries/STM32F4xx_StdPeriph_Driver/src/stm32f4xx_tim.c ****   if (TIM_UpdateSource != TIM_UpdateSource_Global)
 1607              		.loc 1 497 0 is_stmt 1
 1608 009c 7B88     		ldrh	r3, [r7, #2]
 1609 009e 002B     		cmp	r3, #0
 1610 00a0 08D0     		beq	.L69
 498:App/STM32F4-Discovery/Libraries/STM32F4xx_StdPeriph_Driver/src/stm32f4xx_tim.c ****   {
 499:App/STM32F4-Discovery/Libraries/STM32F4xx_StdPeriph_Driver/src/stm32f4xx_tim.c ****     /* Set the URS Bit */
 500:App/STM32F4-Discovery/Libraries/STM32F4xx_StdPeriph_Driver/src/stm32f4xx_tim.c ****     TIMx->CR1 |= TIM_CR1_URS;
 1611              		.loc 1 500 0
 1612 00a2 7B68     		ldr	r3, [r7, #4]
 1613 00a4 1B88     		ldrh	r3, [r3]	@ movhi
 1614 00a6 9BB2     		uxth	r3, r3
 1615 00a8 43F00403 		orr	r3, r3, #4
 1616 00ac 9AB2     		uxth	r2, r3
 1617 00ae 7B68     		ldr	r3, [r7, #4]
 1618 00b0 1A80     		strh	r2, [r3]	@ movhi
 1619 00b2 07E0     		b	.L66
 1620              	.L69:
 501:App/STM32F4-Discovery/Libraries/STM32F4xx_StdPeriph_Driver/src/stm32f4xx_tim.c ****   }
 502:App/STM32F4-Discovery/Libraries/STM32F4xx_StdPeriph_Driver/src/stm32f4xx_tim.c ****   else
 503:App/STM32F4-Discovery/Libraries/STM32F4xx_StdPeriph_Driver/src/stm32f4xx_tim.c ****   {
 504:App/STM32F4-Discovery/Libraries/STM32F4xx_StdPeriph_Driver/src/stm32f4xx_tim.c ****     /* Reset the URS Bit */
 505:App/STM32F4-Discovery/Libraries/STM32F4xx_StdPeriph_Driver/src/stm32f4xx_tim.c ****     TIMx->CR1 &= (uint16_t)~TIM_CR1_URS;
 1621              		.loc 1 505 0
 1622 00b4 7B68     		ldr	r3, [r7, #4]
 1623 00b6 1B88     		ldrh	r3, [r3]	@ movhi
 1624 00b8 9BB2     		uxth	r3, r3
 1625 00ba 23F00403 		bic	r3, r3, #4
 1626 00be 9AB2     		uxth	r2, r3
 1627 00c0 7B68     		ldr	r3, [r7, #4]
 1628 00c2 1A80     		strh	r2, [r3]	@ movhi
 1629              	.L66:
 506:App/STM32F4-Discovery/Libraries/STM32F4xx_StdPeriph_Driver/src/stm32f4xx_tim.c ****   }
 507:App/STM32F4-Discovery/Libraries/STM32F4xx_StdPeriph_Driver/src/stm32f4xx_tim.c **** }
 1630              		.loc 1 507 0
 1631 00c4 0837     		adds	r7, r7, #8
 1632 00c6 BD46     		mov	sp, r7
 1633              		@ sp needed
 1634 00c8 80BD     		pop	{r7, pc}
 1635              	.L72:
 1636 00ca 00BF     		.align	2
 1637              	.L71:
 1638 00cc 00000140 		.word	1073807360
 1639 00d0 00040040 		.word	1073742848
 1640 00d4 00080040 		.word	1073743872
 1641 00d8 000C0040 		.word	1073744896
 1642 00dc 00100040 		.word	1073745920
 1643 00e0 00140040 		.word	1073746944
 1644 00e4 00040140 		.word	1073808384
 1645 00e8 00400140 		.word	1073823744
 1646 00ec 00440140 		.word	1073824768
 1647 00f0 00480140 		.word	1073825792
 1648 00f4 00180040 		.word	1073747968
 1649 00f8 001C0040 		.word	1073748992
 1650 00fc 00200040 		.word	1073750016
 1651 0100 00000000 		.word	.LC0
 1652              		.cfi_endproc
 1653              	.LFE120:
 1655              		.section	.text.TIM_ARRPreloadConfig,"ax",%progbits
 1656              		.align	2
 1657              		.global	TIM_ARRPreloadConfig
 1658              		.thumb
 1659              		.thumb_func
 1661              	TIM_ARRPreloadConfig:
 1662              	.LFB121:
 508:App/STM32F4-Discovery/Libraries/STM32F4xx_StdPeriph_Driver/src/stm32f4xx_tim.c **** 
 509:App/STM32F4-Discovery/Libraries/STM32F4xx_StdPeriph_Driver/src/stm32f4xx_tim.c **** /**
 510:App/STM32F4-Discovery/Libraries/STM32F4xx_StdPeriph_Driver/src/stm32f4xx_tim.c ****   * @brief  Enables or disables TIMx peripheral Preload register on ARR.
 511:App/STM32F4-Discovery/Libraries/STM32F4xx_StdPeriph_Driver/src/stm32f4xx_tim.c ****   * @param  TIMx: where x can be 1 to 14 to select the TIM peripheral.
 512:App/STM32F4-Discovery/Libraries/STM32F4xx_StdPeriph_Driver/src/stm32f4xx_tim.c ****   * @param  NewState: new state of the TIMx peripheral Preload register
 513:App/STM32F4-Discovery/Libraries/STM32F4xx_StdPeriph_Driver/src/stm32f4xx_tim.c ****   *          This parameter can be: ENABLE or DISABLE.
 514:App/STM32F4-Discovery/Libraries/STM32F4xx_StdPeriph_Driver/src/stm32f4xx_tim.c ****   * @retval None
 515:App/STM32F4-Discovery/Libraries/STM32F4xx_StdPeriph_Driver/src/stm32f4xx_tim.c ****   */
 516:App/STM32F4-Discovery/Libraries/STM32F4xx_StdPeriph_Driver/src/stm32f4xx_tim.c **** void TIM_ARRPreloadConfig(TIM_TypeDef* TIMx, FunctionalState NewState)
 517:App/STM32F4-Discovery/Libraries/STM32F4xx_StdPeriph_Driver/src/stm32f4xx_tim.c **** {
 1663              		.loc 1 517 0
 1664              		.cfi_startproc
 1665              		@ args = 0, pretend = 0, frame = 8
 1666              		@ frame_needed = 1, uses_anonymous_args = 0
 1667 0000 80B5     		push	{r7, lr}
 1668              	.LCFI33:
 1669              		.cfi_def_cfa_offset 8
 1670              		.cfi_offset 7, -8
 1671              		.cfi_offset 14, -4
 1672 0002 82B0     		sub	sp, sp, #8
 1673              	.LCFI34:
 1674              		.cfi_def_cfa_offset 16
 1675 0004 00AF     		add	r7, sp, #0
 1676              	.LCFI35:
 1677              		.cfi_def_cfa_register 7
 1678 0006 7860     		str	r0, [r7, #4]
 1679 0008 0B46     		mov	r3, r1
 1680 000a FB70     		strb	r3, [r7, #3]
 518:App/STM32F4-Discovery/Libraries/STM32F4xx_StdPeriph_Driver/src/stm32f4xx_tim.c ****   /* Check the parameters */
 519:App/STM32F4-Discovery/Libraries/STM32F4xx_StdPeriph_Driver/src/stm32f4xx_tim.c ****   assert_param(IS_TIM_ALL_PERIPH(TIMx));
 1681              		.loc 1 519 0
 1682 000c 7A68     		ldr	r2, [r7, #4]
 1683 000e 2F4B     		ldr	r3, .L78
 1684 0010 9A42     		cmp	r2, r3
 1685 0012 38D0     		beq	.L74
 1686              		.loc 1 519 0 is_stmt 0 discriminator 1
 1687 0014 7B68     		ldr	r3, [r7, #4]
 1688 0016 B3F1804F 		cmp	r3, #1073741824
 1689 001a 34D0     		beq	.L74
 1690 001c 7A68     		ldr	r2, [r7, #4]
 1691 001e 2C4B     		ldr	r3, .L78+4
 1692 0020 9A42     		cmp	r2, r3
 1693 0022 30D0     		beq	.L74
 1694 0024 7A68     		ldr	r2, [r7, #4]
 1695 0026 2B4B     		ldr	r3, .L78+8
 1696 0028 9A42     		cmp	r2, r3
 1697 002a 2CD0     		beq	.L74
 1698 002c 7A68     		ldr	r2, [r7, #4]
 1699 002e 2A4B     		ldr	r3, .L78+12
 1700 0030 9A42     		cmp	r2, r3
 1701 0032 28D0     		beq	.L74
 1702 0034 7A68     		ldr	r2, [r7, #4]
 1703 0036 294B     		ldr	r3, .L78+16
 1704 0038 9A42     		cmp	r2, r3
 1705 003a 24D0     		beq	.L74
 1706 003c 7A68     		ldr	r2, [r7, #4]
 1707 003e 284B     		ldr	r3, .L78+20
 1708 0040 9A42     		cmp	r2, r3
 1709 0042 20D0     		beq	.L74
 1710 0044 7A68     		ldr	r2, [r7, #4]
 1711 0046 274B     		ldr	r3, .L78+24
 1712 0048 9A42     		cmp	r2, r3
 1713 004a 1CD0     		beq	.L74
 1714 004c 7A68     		ldr	r2, [r7, #4]
 1715 004e 264B     		ldr	r3, .L78+28
 1716 0050 9A42     		cmp	r2, r3
 1717 0052 18D0     		beq	.L74
 1718 0054 7A68     		ldr	r2, [r7, #4]
 1719 0056 254B     		ldr	r3, .L78+32
 1720 0058 9A42     		cmp	r2, r3
 1721 005a 14D0     		beq	.L74
 1722 005c 7A68     		ldr	r2, [r7, #4]
 1723 005e 244B     		ldr	r3, .L78+36
 1724 0060 9A42     		cmp	r2, r3
 1725 0062 10D0     		beq	.L74
 1726 0064 7A68     		ldr	r2, [r7, #4]
 1727 0066 234B     		ldr	r3, .L78+40
 1728 0068 9A42     		cmp	r2, r3
 1729 006a 0CD0     		beq	.L74
 1730 006c 7A68     		ldr	r2, [r7, #4]
 1731 006e 224B     		ldr	r3, .L78+44
 1732 0070 9A42     		cmp	r2, r3
 1733 0072 08D0     		beq	.L74
 1734 0074 7A68     		ldr	r2, [r7, #4]
 1735 0076 214B     		ldr	r3, .L78+48
 1736 0078 9A42     		cmp	r2, r3
 1737 007a 04D0     		beq	.L74
 1738 007c 2048     		ldr	r0, .L78+52
 1739 007e 40F20721 		movw	r1, #519
 1740 0082 FFF7FEFF 		bl	assert_failed
 1741              	.L74:
 520:App/STM32F4-Discovery/Libraries/STM32F4xx_StdPeriph_Driver/src/stm32f4xx_tim.c ****   assert_param(IS_FUNCTIONAL_STATE(NewState));
 1742              		.loc 1 520 0 is_stmt 1
 1743 0086 FB78     		ldrb	r3, [r7, #3]	@ zero_extendqisi2
 1744 0088 002B     		cmp	r3, #0
 1745 008a 07D0     		beq	.L75
 1746              		.loc 1 520 0 is_stmt 0 discriminator 1
 1747 008c FB78     		ldrb	r3, [r7, #3]	@ zero_extendqisi2
 1748 008e 012B     		cmp	r3, #1
 1749 0090 04D0     		beq	.L75
 1750 0092 1B48     		ldr	r0, .L78+52
 1751 0094 4FF40271 		mov	r1, #520
 1752 0098 FFF7FEFF 		bl	assert_failed
 1753              	.L75:
 521:App/STM32F4-Discovery/Libraries/STM32F4xx_StdPeriph_Driver/src/stm32f4xx_tim.c **** 
 522:App/STM32F4-Discovery/Libraries/STM32F4xx_StdPeriph_Driver/src/stm32f4xx_tim.c ****   if (NewState != DISABLE)
 1754              		.loc 1 522 0 is_stmt 1
 1755 009c FB78     		ldrb	r3, [r7, #3]	@ zero_extendqisi2
 1756 009e 002B     		cmp	r3, #0
 1757 00a0 08D0     		beq	.L76
 523:App/STM32F4-Discovery/Libraries/STM32F4xx_StdPeriph_Driver/src/stm32f4xx_tim.c ****   {
 524:App/STM32F4-Discovery/Libraries/STM32F4xx_StdPeriph_Driver/src/stm32f4xx_tim.c ****     /* Set the ARR Preload Bit */
 525:App/STM32F4-Discovery/Libraries/STM32F4xx_StdPeriph_Driver/src/stm32f4xx_tim.c ****     TIMx->CR1 |= TIM_CR1_ARPE;
 1758              		.loc 1 525 0
 1759 00a2 7B68     		ldr	r3, [r7, #4]
 1760 00a4 1B88     		ldrh	r3, [r3]	@ movhi
 1761 00a6 9BB2     		uxth	r3, r3
 1762 00a8 43F08003 		orr	r3, r3, #128
 1763 00ac 9AB2     		uxth	r2, r3
 1764 00ae 7B68     		ldr	r3, [r7, #4]
 1765 00b0 1A80     		strh	r2, [r3]	@ movhi
 1766 00b2 07E0     		b	.L73
 1767              	.L76:
 526:App/STM32F4-Discovery/Libraries/STM32F4xx_StdPeriph_Driver/src/stm32f4xx_tim.c ****   }
 527:App/STM32F4-Discovery/Libraries/STM32F4xx_StdPeriph_Driver/src/stm32f4xx_tim.c ****   else
 528:App/STM32F4-Discovery/Libraries/STM32F4xx_StdPeriph_Driver/src/stm32f4xx_tim.c ****   {
 529:App/STM32F4-Discovery/Libraries/STM32F4xx_StdPeriph_Driver/src/stm32f4xx_tim.c ****     /* Reset the ARR Preload Bit */
 530:App/STM32F4-Discovery/Libraries/STM32F4xx_StdPeriph_Driver/src/stm32f4xx_tim.c ****     TIMx->CR1 &= (uint16_t)~TIM_CR1_ARPE;
 1768              		.loc 1 530 0
 1769 00b4 7B68     		ldr	r3, [r7, #4]
 1770 00b6 1B88     		ldrh	r3, [r3]	@ movhi
 1771 00b8 9BB2     		uxth	r3, r3
 1772 00ba 23F08003 		bic	r3, r3, #128
 1773 00be 9AB2     		uxth	r2, r3
 1774 00c0 7B68     		ldr	r3, [r7, #4]
 1775 00c2 1A80     		strh	r2, [r3]	@ movhi
 1776              	.L73:
 531:App/STM32F4-Discovery/Libraries/STM32F4xx_StdPeriph_Driver/src/stm32f4xx_tim.c ****   }
 532:App/STM32F4-Discovery/Libraries/STM32F4xx_StdPeriph_Driver/src/stm32f4xx_tim.c **** }
 1777              		.loc 1 532 0
 1778 00c4 0837     		adds	r7, r7, #8
 1779 00c6 BD46     		mov	sp, r7
 1780              		@ sp needed
 1781 00c8 80BD     		pop	{r7, pc}
 1782              	.L79:
 1783 00ca 00BF     		.align	2
 1784              	.L78:
 1785 00cc 00000140 		.word	1073807360
 1786 00d0 00040040 		.word	1073742848
 1787 00d4 00080040 		.word	1073743872
 1788 00d8 000C0040 		.word	1073744896
 1789 00dc 00100040 		.word	1073745920
 1790 00e0 00140040 		.word	1073746944
 1791 00e4 00040140 		.word	1073808384
 1792 00e8 00400140 		.word	1073823744
 1793 00ec 00440140 		.word	1073824768
 1794 00f0 00480140 		.word	1073825792
 1795 00f4 00180040 		.word	1073747968
 1796 00f8 001C0040 		.word	1073748992
 1797 00fc 00200040 		.word	1073750016
 1798 0100 00000000 		.word	.LC0
 1799              		.cfi_endproc
 1800              	.LFE121:
 1802              		.section	.text.TIM_SelectOnePulseMode,"ax",%progbits
 1803              		.align	2
 1804              		.global	TIM_SelectOnePulseMode
 1805              		.thumb
 1806              		.thumb_func
 1808              	TIM_SelectOnePulseMode:
 1809              	.LFB122:
 533:App/STM32F4-Discovery/Libraries/STM32F4xx_StdPeriph_Driver/src/stm32f4xx_tim.c **** 
 534:App/STM32F4-Discovery/Libraries/STM32F4xx_StdPeriph_Driver/src/stm32f4xx_tim.c **** /**
 535:App/STM32F4-Discovery/Libraries/STM32F4xx_StdPeriph_Driver/src/stm32f4xx_tim.c ****   * @brief  Selects the TIMx's One Pulse Mode.
 536:App/STM32F4-Discovery/Libraries/STM32F4xx_StdPeriph_Driver/src/stm32f4xx_tim.c ****   * @param  TIMx: where x can be 1 to 14 to select the TIM peripheral.
 537:App/STM32F4-Discovery/Libraries/STM32F4xx_StdPeriph_Driver/src/stm32f4xx_tim.c ****   * @param  TIM_OPMode: specifies the OPM Mode to be used.
 538:App/STM32F4-Discovery/Libraries/STM32F4xx_StdPeriph_Driver/src/stm32f4xx_tim.c ****   *          This parameter can be one of the following values:
 539:App/STM32F4-Discovery/Libraries/STM32F4xx_StdPeriph_Driver/src/stm32f4xx_tim.c ****   *            @arg TIM_OPMode_Single
 540:App/STM32F4-Discovery/Libraries/STM32F4xx_StdPeriph_Driver/src/stm32f4xx_tim.c ****   *            @arg TIM_OPMode_Repetitive
 541:App/STM32F4-Discovery/Libraries/STM32F4xx_StdPeriph_Driver/src/stm32f4xx_tim.c ****   * @retval None
 542:App/STM32F4-Discovery/Libraries/STM32F4xx_StdPeriph_Driver/src/stm32f4xx_tim.c ****   */
 543:App/STM32F4-Discovery/Libraries/STM32F4xx_StdPeriph_Driver/src/stm32f4xx_tim.c **** void TIM_SelectOnePulseMode(TIM_TypeDef* TIMx, uint16_t TIM_OPMode)
 544:App/STM32F4-Discovery/Libraries/STM32F4xx_StdPeriph_Driver/src/stm32f4xx_tim.c **** {
 1810              		.loc 1 544 0
 1811              		.cfi_startproc
 1812              		@ args = 0, pretend = 0, frame = 8
 1813              		@ frame_needed = 1, uses_anonymous_args = 0
 1814 0000 80B5     		push	{r7, lr}
 1815              	.LCFI36:
 1816              		.cfi_def_cfa_offset 8
 1817              		.cfi_offset 7, -8
 1818              		.cfi_offset 14, -4
 1819 0002 82B0     		sub	sp, sp, #8
 1820              	.LCFI37:
 1821              		.cfi_def_cfa_offset 16
 1822 0004 00AF     		add	r7, sp, #0
 1823              	.LCFI38:
 1824              		.cfi_def_cfa_register 7
 1825 0006 7860     		str	r0, [r7, #4]
 1826 0008 0B46     		mov	r3, r1
 1827 000a 7B80     		strh	r3, [r7, #2]	@ movhi
 545:App/STM32F4-Discovery/Libraries/STM32F4xx_StdPeriph_Driver/src/stm32f4xx_tim.c ****   /* Check the parameters */
 546:App/STM32F4-Discovery/Libraries/STM32F4xx_StdPeriph_Driver/src/stm32f4xx_tim.c ****   assert_param(IS_TIM_ALL_PERIPH(TIMx));
 1828              		.loc 1 546 0
 1829 000c 7A68     		ldr	r2, [r7, #4]
 1830 000e 2D4B     		ldr	r3, .L83
 1831 0010 9A42     		cmp	r2, r3
 1832 0012 38D0     		beq	.L81
 1833              		.loc 1 546 0 is_stmt 0 discriminator 1
 1834 0014 7B68     		ldr	r3, [r7, #4]
 1835 0016 B3F1804F 		cmp	r3, #1073741824
 1836 001a 34D0     		beq	.L81
 1837 001c 7A68     		ldr	r2, [r7, #4]
 1838 001e 2A4B     		ldr	r3, .L83+4
 1839 0020 9A42     		cmp	r2, r3
 1840 0022 30D0     		beq	.L81
 1841 0024 7A68     		ldr	r2, [r7, #4]
 1842 0026 294B     		ldr	r3, .L83+8
 1843 0028 9A42     		cmp	r2, r3
 1844 002a 2CD0     		beq	.L81
 1845 002c 7A68     		ldr	r2, [r7, #4]
 1846 002e 284B     		ldr	r3, .L83+12
 1847 0030 9A42     		cmp	r2, r3
 1848 0032 28D0     		beq	.L81
 1849 0034 7A68     		ldr	r2, [r7, #4]
 1850 0036 274B     		ldr	r3, .L83+16
 1851 0038 9A42     		cmp	r2, r3
 1852 003a 24D0     		beq	.L81
 1853 003c 7A68     		ldr	r2, [r7, #4]
 1854 003e 264B     		ldr	r3, .L83+20
 1855 0040 9A42     		cmp	r2, r3
 1856 0042 20D0     		beq	.L81
 1857 0044 7A68     		ldr	r2, [r7, #4]
 1858 0046 254B     		ldr	r3, .L83+24
 1859 0048 9A42     		cmp	r2, r3
 1860 004a 1CD0     		beq	.L81
 1861 004c 7A68     		ldr	r2, [r7, #4]
 1862 004e 244B     		ldr	r3, .L83+28
 1863 0050 9A42     		cmp	r2, r3
 1864 0052 18D0     		beq	.L81
 1865 0054 7A68     		ldr	r2, [r7, #4]
 1866 0056 234B     		ldr	r3, .L83+32
 1867 0058 9A42     		cmp	r2, r3
 1868 005a 14D0     		beq	.L81
 1869 005c 7A68     		ldr	r2, [r7, #4]
 1870 005e 224B     		ldr	r3, .L83+36
 1871 0060 9A42     		cmp	r2, r3
 1872 0062 10D0     		beq	.L81
 1873 0064 7A68     		ldr	r2, [r7, #4]
 1874 0066 214B     		ldr	r3, .L83+40
 1875 0068 9A42     		cmp	r2, r3
 1876 006a 0CD0     		beq	.L81
 1877 006c 7A68     		ldr	r2, [r7, #4]
 1878 006e 204B     		ldr	r3, .L83+44
 1879 0070 9A42     		cmp	r2, r3
 1880 0072 08D0     		beq	.L81
 1881 0074 7A68     		ldr	r2, [r7, #4]
 1882 0076 1F4B     		ldr	r3, .L83+48
 1883 0078 9A42     		cmp	r2, r3
 1884 007a 04D0     		beq	.L81
 1885 007c 1E48     		ldr	r0, .L83+52
 1886 007e 40F22221 		movw	r1, #546
 1887 0082 FFF7FEFF 		bl	assert_failed
 1888              	.L81:
 547:App/STM32F4-Discovery/Libraries/STM32F4xx_StdPeriph_Driver/src/stm32f4xx_tim.c ****   assert_param(IS_TIM_OPM_MODE(TIM_OPMode));
 1889              		.loc 1 547 0 is_stmt 1
 1890 0086 7B88     		ldrh	r3, [r7, #2]
 1891 0088 082B     		cmp	r3, #8
 1892 008a 07D0     		beq	.L82
 1893              		.loc 1 547 0 is_stmt 0 discriminator 1
 1894 008c 7B88     		ldrh	r3, [r7, #2]
 1895 008e 002B     		cmp	r3, #0
 1896 0090 04D0     		beq	.L82
 1897 0092 1948     		ldr	r0, .L83+52
 1898 0094 40F22321 		movw	r1, #547
 1899 0098 FFF7FEFF 		bl	assert_failed
 1900              	.L82:
 548:App/STM32F4-Discovery/Libraries/STM32F4xx_StdPeriph_Driver/src/stm32f4xx_tim.c **** 
 549:App/STM32F4-Discovery/Libraries/STM32F4xx_StdPeriph_Driver/src/stm32f4xx_tim.c ****   /* Reset the OPM Bit */
 550:App/STM32F4-Discovery/Libraries/STM32F4xx_StdPeriph_Driver/src/stm32f4xx_tim.c ****   TIMx->CR1 &= (uint16_t)~TIM_CR1_OPM;
 1901              		.loc 1 550 0 is_stmt 1
 1902 009c 7B68     		ldr	r3, [r7, #4]
 1903 009e 1B88     		ldrh	r3, [r3]	@ movhi
 1904 00a0 9BB2     		uxth	r3, r3
 1905 00a2 23F00803 		bic	r3, r3, #8
 1906 00a6 9AB2     		uxth	r2, r3
 1907 00a8 7B68     		ldr	r3, [r7, #4]
 1908 00aa 1A80     		strh	r2, [r3]	@ movhi
 551:App/STM32F4-Discovery/Libraries/STM32F4xx_StdPeriph_Driver/src/stm32f4xx_tim.c **** 
 552:App/STM32F4-Discovery/Libraries/STM32F4xx_StdPeriph_Driver/src/stm32f4xx_tim.c ****   /* Configure the OPM Mode */
 553:App/STM32F4-Discovery/Libraries/STM32F4xx_StdPeriph_Driver/src/stm32f4xx_tim.c ****   TIMx->CR1 |= TIM_OPMode;
 1909              		.loc 1 553 0
 1910 00ac 7B68     		ldr	r3, [r7, #4]
 1911 00ae 1B88     		ldrh	r3, [r3]	@ movhi
 1912 00b0 9AB2     		uxth	r2, r3
 1913 00b2 7B88     		ldrh	r3, [r7, #2]	@ movhi
 1914 00b4 1343     		orrs	r3, r3, r2
 1915 00b6 9AB2     		uxth	r2, r3
 1916 00b8 7B68     		ldr	r3, [r7, #4]
 1917 00ba 1A80     		strh	r2, [r3]	@ movhi
 554:App/STM32F4-Discovery/Libraries/STM32F4xx_StdPeriph_Driver/src/stm32f4xx_tim.c **** }
 1918              		.loc 1 554 0
 1919 00bc 0837     		adds	r7, r7, #8
 1920 00be BD46     		mov	sp, r7
 1921              		@ sp needed
 1922 00c0 80BD     		pop	{r7, pc}
 1923              	.L84:
 1924 00c2 00BF     		.align	2
 1925              	.L83:
 1926 00c4 00000140 		.word	1073807360
 1927 00c8 00040040 		.word	1073742848
 1928 00cc 00080040 		.word	1073743872
 1929 00d0 000C0040 		.word	1073744896
 1930 00d4 00100040 		.word	1073745920
 1931 00d8 00140040 		.word	1073746944
 1932 00dc 00040140 		.word	1073808384
 1933 00e0 00400140 		.word	1073823744
 1934 00e4 00440140 		.word	1073824768
 1935 00e8 00480140 		.word	1073825792
 1936 00ec 00180040 		.word	1073747968
 1937 00f0 001C0040 		.word	1073748992
 1938 00f4 00200040 		.word	1073750016
 1939 00f8 00000000 		.word	.LC0
 1940              		.cfi_endproc
 1941              	.LFE122:
 1943              		.section	.text.TIM_SetClockDivision,"ax",%progbits
 1944              		.align	2
 1945              		.global	TIM_SetClockDivision
 1946              		.thumb
 1947              		.thumb_func
 1949              	TIM_SetClockDivision:
 1950              	.LFB123:
 555:App/STM32F4-Discovery/Libraries/STM32F4xx_StdPeriph_Driver/src/stm32f4xx_tim.c **** 
 556:App/STM32F4-Discovery/Libraries/STM32F4xx_StdPeriph_Driver/src/stm32f4xx_tim.c **** /**
 557:App/STM32F4-Discovery/Libraries/STM32F4xx_StdPeriph_Driver/src/stm32f4xx_tim.c ****   * @brief  Sets the TIMx Clock Division value.
 558:App/STM32F4-Discovery/Libraries/STM32F4xx_StdPeriph_Driver/src/stm32f4xx_tim.c ****   * @param  TIMx: where x can be 1 to 14 except 6 and 7, to select the TIM peripheral.
 559:App/STM32F4-Discovery/Libraries/STM32F4xx_StdPeriph_Driver/src/stm32f4xx_tim.c ****   * @param  TIM_CKD: specifies the clock division value.
 560:App/STM32F4-Discovery/Libraries/STM32F4xx_StdPeriph_Driver/src/stm32f4xx_tim.c ****   *          This parameter can be one of the following value:
 561:App/STM32F4-Discovery/Libraries/STM32F4xx_StdPeriph_Driver/src/stm32f4xx_tim.c ****   *            @arg TIM_CKD_DIV1: TDTS = Tck_tim
 562:App/STM32F4-Discovery/Libraries/STM32F4xx_StdPeriph_Driver/src/stm32f4xx_tim.c ****   *            @arg TIM_CKD_DIV2: TDTS = 2*Tck_tim
 563:App/STM32F4-Discovery/Libraries/STM32F4xx_StdPeriph_Driver/src/stm32f4xx_tim.c ****   *            @arg TIM_CKD_DIV4: TDTS = 4*Tck_tim
 564:App/STM32F4-Discovery/Libraries/STM32F4xx_StdPeriph_Driver/src/stm32f4xx_tim.c ****   * @retval None
 565:App/STM32F4-Discovery/Libraries/STM32F4xx_StdPeriph_Driver/src/stm32f4xx_tim.c ****   */
 566:App/STM32F4-Discovery/Libraries/STM32F4xx_StdPeriph_Driver/src/stm32f4xx_tim.c **** void TIM_SetClockDivision(TIM_TypeDef* TIMx, uint16_t TIM_CKD)
 567:App/STM32F4-Discovery/Libraries/STM32F4xx_StdPeriph_Driver/src/stm32f4xx_tim.c **** {
 1951              		.loc 1 567 0
 1952              		.cfi_startproc
 1953              		@ args = 0, pretend = 0, frame = 8
 1954              		@ frame_needed = 1, uses_anonymous_args = 0
 1955 0000 80B5     		push	{r7, lr}
 1956              	.LCFI39:
 1957              		.cfi_def_cfa_offset 8
 1958              		.cfi_offset 7, -8
 1959              		.cfi_offset 14, -4
 1960 0002 82B0     		sub	sp, sp, #8
 1961              	.LCFI40:
 1962              		.cfi_def_cfa_offset 16
 1963 0004 00AF     		add	r7, sp, #0
 1964              	.LCFI41:
 1965              		.cfi_def_cfa_register 7
 1966 0006 7860     		str	r0, [r7, #4]
 1967 0008 0B46     		mov	r3, r1
 1968 000a 7B80     		strh	r3, [r7, #2]	@ movhi
 568:App/STM32F4-Discovery/Libraries/STM32F4xx_StdPeriph_Driver/src/stm32f4xx_tim.c ****   /* Check the parameters */
 569:App/STM32F4-Discovery/Libraries/STM32F4xx_StdPeriph_Driver/src/stm32f4xx_tim.c ****   assert_param(IS_TIM_LIST1_PERIPH(TIMx));
 1969              		.loc 1 569 0
 1970 000c 7A68     		ldr	r2, [r7, #4]
 1971 000e 2B4B     		ldr	r3, .L88
 1972 0010 9A42     		cmp	r2, r3
 1973 0012 30D0     		beq	.L86
 1974              		.loc 1 569 0 is_stmt 0 discriminator 1
 1975 0014 7B68     		ldr	r3, [r7, #4]
 1976 0016 B3F1804F 		cmp	r3, #1073741824
 1977 001a 2CD0     		beq	.L86
 1978 001c 7A68     		ldr	r2, [r7, #4]
 1979 001e 284B     		ldr	r3, .L88+4
 1980 0020 9A42     		cmp	r2, r3
 1981 0022 28D0     		beq	.L86
 1982 0024 7A68     		ldr	r2, [r7, #4]
 1983 0026 274B     		ldr	r3, .L88+8
 1984 0028 9A42     		cmp	r2, r3
 1985 002a 24D0     		beq	.L86
 1986 002c 7A68     		ldr	r2, [r7, #4]
 1987 002e 264B     		ldr	r3, .L88+12
 1988 0030 9A42     		cmp	r2, r3
 1989 0032 20D0     		beq	.L86
 1990 0034 7A68     		ldr	r2, [r7, #4]
 1991 0036 254B     		ldr	r3, .L88+16
 1992 0038 9A42     		cmp	r2, r3
 1993 003a 1CD0     		beq	.L86
 1994 003c 7A68     		ldr	r2, [r7, #4]
 1995 003e 244B     		ldr	r3, .L88+20
 1996 0040 9A42     		cmp	r2, r3
 1997 0042 18D0     		beq	.L86
 1998 0044 7A68     		ldr	r2, [r7, #4]
 1999 0046 234B     		ldr	r3, .L88+24
 2000 0048 9A42     		cmp	r2, r3
 2001 004a 14D0     		beq	.L86
 2002 004c 7A68     		ldr	r2, [r7, #4]
 2003 004e 224B     		ldr	r3, .L88+28
 2004 0050 9A42     		cmp	r2, r3
 2005 0052 10D0     		beq	.L86
 2006 0054 7A68     		ldr	r2, [r7, #4]
 2007 0056 214B     		ldr	r3, .L88+32
 2008 0058 9A42     		cmp	r2, r3
 2009 005a 0CD0     		beq	.L86
 2010 005c 7A68     		ldr	r2, [r7, #4]
 2011 005e 204B     		ldr	r3, .L88+36
 2012 0060 9A42     		cmp	r2, r3
 2013 0062 08D0     		beq	.L86
 2014 0064 7A68     		ldr	r2, [r7, #4]
 2015 0066 1F4B     		ldr	r3, .L88+40
 2016 0068 9A42     		cmp	r2, r3
 2017 006a 04D0     		beq	.L86
 2018 006c 1E48     		ldr	r0, .L88+44
 2019 006e 40F23921 		movw	r1, #569
 2020 0072 FFF7FEFF 		bl	assert_failed
 2021              	.L86:
 570:App/STM32F4-Discovery/Libraries/STM32F4xx_StdPeriph_Driver/src/stm32f4xx_tim.c ****   assert_param(IS_TIM_CKD_DIV(TIM_CKD));
 2022              		.loc 1 570 0 is_stmt 1
 2023 0076 7B88     		ldrh	r3, [r7, #2]
 2024 0078 002B     		cmp	r3, #0
 2025 007a 0CD0     		beq	.L87
 2026              		.loc 1 570 0 is_stmt 0 discriminator 1
 2027 007c 7B88     		ldrh	r3, [r7, #2]
 2028 007e B3F5807F 		cmp	r3, #256
 2029 0082 08D0     		beq	.L87
 2030 0084 7B88     		ldrh	r3, [r7, #2]
 2031 0086 B3F5007F 		cmp	r3, #512
 2032 008a 04D0     		beq	.L87
 2033 008c 1648     		ldr	r0, .L88+44
 2034 008e 40F23A21 		movw	r1, #570
 2035 0092 FFF7FEFF 		bl	assert_failed
 2036              	.L87:
 571:App/STM32F4-Discovery/Libraries/STM32F4xx_StdPeriph_Driver/src/stm32f4xx_tim.c **** 
 572:App/STM32F4-Discovery/Libraries/STM32F4xx_StdPeriph_Driver/src/stm32f4xx_tim.c ****   /* Reset the CKD Bits */
 573:App/STM32F4-Discovery/Libraries/STM32F4xx_StdPeriph_Driver/src/stm32f4xx_tim.c ****   TIMx->CR1 &= (uint16_t)(~TIM_CR1_CKD);
 2037              		.loc 1 573 0 is_stmt 1
 2038 0096 7B68     		ldr	r3, [r7, #4]
 2039 0098 1B88     		ldrh	r3, [r3]	@ movhi
 2040 009a 9BB2     		uxth	r3, r3
 2041 009c 23F44073 		bic	r3, r3, #768
 2042 00a0 9AB2     		uxth	r2, r3
 2043 00a2 7B68     		ldr	r3, [r7, #4]
 2044 00a4 1A80     		strh	r2, [r3]	@ movhi
 574:App/STM32F4-Discovery/Libraries/STM32F4xx_StdPeriph_Driver/src/stm32f4xx_tim.c **** 
 575:App/STM32F4-Discovery/Libraries/STM32F4xx_StdPeriph_Driver/src/stm32f4xx_tim.c ****   /* Set the CKD value */
 576:App/STM32F4-Discovery/Libraries/STM32F4xx_StdPeriph_Driver/src/stm32f4xx_tim.c ****   TIMx->CR1 |= TIM_CKD;
 2045              		.loc 1 576 0
 2046 00a6 7B68     		ldr	r3, [r7, #4]
 2047 00a8 1B88     		ldrh	r3, [r3]	@ movhi
 2048 00aa 9AB2     		uxth	r2, r3
 2049 00ac 7B88     		ldrh	r3, [r7, #2]	@ movhi
 2050 00ae 1343     		orrs	r3, r3, r2
 2051 00b0 9AB2     		uxth	r2, r3
 2052 00b2 7B68     		ldr	r3, [r7, #4]
 2053 00b4 1A80     		strh	r2, [r3]	@ movhi
 577:App/STM32F4-Discovery/Libraries/STM32F4xx_StdPeriph_Driver/src/stm32f4xx_tim.c **** }
 2054              		.loc 1 577 0
 2055 00b6 0837     		adds	r7, r7, #8
 2056 00b8 BD46     		mov	sp, r7
 2057              		@ sp needed
 2058 00ba 80BD     		pop	{r7, pc}
 2059              	.L89:
 2060              		.align	2
 2061              	.L88:
 2062 00bc 00000140 		.word	1073807360
 2063 00c0 00040040 		.word	1073742848
 2064 00c4 00080040 		.word	1073743872
 2065 00c8 000C0040 		.word	1073744896
 2066 00cc 00040140 		.word	1073808384
 2067 00d0 00400140 		.word	1073823744
 2068 00d4 00440140 		.word	1073824768
 2069 00d8 00480140 		.word	1073825792
 2070 00dc 00180040 		.word	1073747968
 2071 00e0 001C0040 		.word	1073748992
 2072 00e4 00200040 		.word	1073750016
 2073 00e8 00000000 		.word	.LC0
 2074              		.cfi_endproc
 2075              	.LFE123:
 2077              		.section	.text.TIM_Cmd,"ax",%progbits
 2078              		.align	2
 2079              		.global	TIM_Cmd
 2080              		.thumb
 2081              		.thumb_func
 2083              	TIM_Cmd:
 2084              	.LFB124:
 578:App/STM32F4-Discovery/Libraries/STM32F4xx_StdPeriph_Driver/src/stm32f4xx_tim.c **** 
 579:App/STM32F4-Discovery/Libraries/STM32F4xx_StdPeriph_Driver/src/stm32f4xx_tim.c **** /**
 580:App/STM32F4-Discovery/Libraries/STM32F4xx_StdPeriph_Driver/src/stm32f4xx_tim.c ****   * @brief  Enables or disables the specified TIM peripheral.
 581:App/STM32F4-Discovery/Libraries/STM32F4xx_StdPeriph_Driver/src/stm32f4xx_tim.c ****   * @param  TIMx: where x can be 1 to 14 to select the TIMx peripheral.
 582:App/STM32F4-Discovery/Libraries/STM32F4xx_StdPeriph_Driver/src/stm32f4xx_tim.c ****   * @param  NewState: new state of the TIMx peripheral.
 583:App/STM32F4-Discovery/Libraries/STM32F4xx_StdPeriph_Driver/src/stm32f4xx_tim.c ****   *          This parameter can be: ENABLE or DISABLE.
 584:App/STM32F4-Discovery/Libraries/STM32F4xx_StdPeriph_Driver/src/stm32f4xx_tim.c ****   * @retval None
 585:App/STM32F4-Discovery/Libraries/STM32F4xx_StdPeriph_Driver/src/stm32f4xx_tim.c ****   */
 586:App/STM32F4-Discovery/Libraries/STM32F4xx_StdPeriph_Driver/src/stm32f4xx_tim.c **** void TIM_Cmd(TIM_TypeDef* TIMx, FunctionalState NewState)
 587:App/STM32F4-Discovery/Libraries/STM32F4xx_StdPeriph_Driver/src/stm32f4xx_tim.c **** {
 2085              		.loc 1 587 0
 2086              		.cfi_startproc
 2087              		@ args = 0, pretend = 0, frame = 8
 2088              		@ frame_needed = 1, uses_anonymous_args = 0
 2089 0000 80B5     		push	{r7, lr}
 2090              	.LCFI42:
 2091              		.cfi_def_cfa_offset 8
 2092              		.cfi_offset 7, -8
 2093              		.cfi_offset 14, -4
 2094 0002 82B0     		sub	sp, sp, #8
 2095              	.LCFI43:
 2096              		.cfi_def_cfa_offset 16
 2097 0004 00AF     		add	r7, sp, #0
 2098              	.LCFI44:
 2099              		.cfi_def_cfa_register 7
 2100 0006 7860     		str	r0, [r7, #4]
 2101 0008 0B46     		mov	r3, r1
 2102 000a FB70     		strb	r3, [r7, #3]
 588:App/STM32F4-Discovery/Libraries/STM32F4xx_StdPeriph_Driver/src/stm32f4xx_tim.c ****   /* Check the parameters */
 589:App/STM32F4-Discovery/Libraries/STM32F4xx_StdPeriph_Driver/src/stm32f4xx_tim.c ****   assert_param(IS_TIM_ALL_PERIPH(TIMx)); 
 2103              		.loc 1 589 0
 2104 000c 7A68     		ldr	r2, [r7, #4]
 2105 000e 2F4B     		ldr	r3, .L95
 2106 0010 9A42     		cmp	r2, r3
 2107 0012 38D0     		beq	.L91
 2108              		.loc 1 589 0 is_stmt 0 discriminator 1
 2109 0014 7B68     		ldr	r3, [r7, #4]
 2110 0016 B3F1804F 		cmp	r3, #1073741824
 2111 001a 34D0     		beq	.L91
 2112 001c 7A68     		ldr	r2, [r7, #4]
 2113 001e 2C4B     		ldr	r3, .L95+4
 2114 0020 9A42     		cmp	r2, r3
 2115 0022 30D0     		beq	.L91
 2116 0024 7A68     		ldr	r2, [r7, #4]
 2117 0026 2B4B     		ldr	r3, .L95+8
 2118 0028 9A42     		cmp	r2, r3
 2119 002a 2CD0     		beq	.L91
 2120 002c 7A68     		ldr	r2, [r7, #4]
 2121 002e 2A4B     		ldr	r3, .L95+12
 2122 0030 9A42     		cmp	r2, r3
 2123 0032 28D0     		beq	.L91
 2124 0034 7A68     		ldr	r2, [r7, #4]
 2125 0036 294B     		ldr	r3, .L95+16
 2126 0038 9A42     		cmp	r2, r3
 2127 003a 24D0     		beq	.L91
 2128 003c 7A68     		ldr	r2, [r7, #4]
 2129 003e 284B     		ldr	r3, .L95+20
 2130 0040 9A42     		cmp	r2, r3
 2131 0042 20D0     		beq	.L91
 2132 0044 7A68     		ldr	r2, [r7, #4]
 2133 0046 274B     		ldr	r3, .L95+24
 2134 0048 9A42     		cmp	r2, r3
 2135 004a 1CD0     		beq	.L91
 2136 004c 7A68     		ldr	r2, [r7, #4]
 2137 004e 264B     		ldr	r3, .L95+28
 2138 0050 9A42     		cmp	r2, r3
 2139 0052 18D0     		beq	.L91
 2140 0054 7A68     		ldr	r2, [r7, #4]
 2141 0056 254B     		ldr	r3, .L95+32
 2142 0058 9A42     		cmp	r2, r3
 2143 005a 14D0     		beq	.L91
 2144 005c 7A68     		ldr	r2, [r7, #4]
 2145 005e 244B     		ldr	r3, .L95+36
 2146 0060 9A42     		cmp	r2, r3
 2147 0062 10D0     		beq	.L91
 2148 0064 7A68     		ldr	r2, [r7, #4]
 2149 0066 234B     		ldr	r3, .L95+40
 2150 0068 9A42     		cmp	r2, r3
 2151 006a 0CD0     		beq	.L91
 2152 006c 7A68     		ldr	r2, [r7, #4]
 2153 006e 224B     		ldr	r3, .L95+44
 2154 0070 9A42     		cmp	r2, r3
 2155 0072 08D0     		beq	.L91
 2156 0074 7A68     		ldr	r2, [r7, #4]
 2157 0076 214B     		ldr	r3, .L95+48
 2158 0078 9A42     		cmp	r2, r3
 2159 007a 04D0     		beq	.L91
 2160 007c 2048     		ldr	r0, .L95+52
 2161 007e 40F24D21 		movw	r1, #589
 2162 0082 FFF7FEFF 		bl	assert_failed
 2163              	.L91:
 590:App/STM32F4-Discovery/Libraries/STM32F4xx_StdPeriph_Driver/src/stm32f4xx_tim.c ****   assert_param(IS_FUNCTIONAL_STATE(NewState));
 2164              		.loc 1 590 0 is_stmt 1
 2165 0086 FB78     		ldrb	r3, [r7, #3]	@ zero_extendqisi2
 2166 0088 002B     		cmp	r3, #0
 2167 008a 07D0     		beq	.L92
 2168              		.loc 1 590 0 is_stmt 0 discriminator 1
 2169 008c FB78     		ldrb	r3, [r7, #3]	@ zero_extendqisi2
 2170 008e 012B     		cmp	r3, #1
 2171 0090 04D0     		beq	.L92
 2172 0092 1B48     		ldr	r0, .L95+52
 2173 0094 40F24E21 		movw	r1, #590
 2174 0098 FFF7FEFF 		bl	assert_failed
 2175              	.L92:
 591:App/STM32F4-Discovery/Libraries/STM32F4xx_StdPeriph_Driver/src/stm32f4xx_tim.c ****   
 592:App/STM32F4-Discovery/Libraries/STM32F4xx_StdPeriph_Driver/src/stm32f4xx_tim.c ****   if (NewState != DISABLE)
 2176              		.loc 1 592 0 is_stmt 1
 2177 009c FB78     		ldrb	r3, [r7, #3]	@ zero_extendqisi2
 2178 009e 002B     		cmp	r3, #0
 2179 00a0 08D0     		beq	.L93
 593:App/STM32F4-Discovery/Libraries/STM32F4xx_StdPeriph_Driver/src/stm32f4xx_tim.c ****   {
 594:App/STM32F4-Discovery/Libraries/STM32F4xx_StdPeriph_Driver/src/stm32f4xx_tim.c ****     /* Enable the TIM Counter */
 595:App/STM32F4-Discovery/Libraries/STM32F4xx_StdPeriph_Driver/src/stm32f4xx_tim.c ****     TIMx->CR1 |= TIM_CR1_CEN;
 2180              		.loc 1 595 0
 2181 00a2 7B68     		ldr	r3, [r7, #4]
 2182 00a4 1B88     		ldrh	r3, [r3]	@ movhi
 2183 00a6 9BB2     		uxth	r3, r3
 2184 00a8 43F00103 		orr	r3, r3, #1
 2185 00ac 9AB2     		uxth	r2, r3
 2186 00ae 7B68     		ldr	r3, [r7, #4]
 2187 00b0 1A80     		strh	r2, [r3]	@ movhi
 2188 00b2 07E0     		b	.L90
 2189              	.L93:
 596:App/STM32F4-Discovery/Libraries/STM32F4xx_StdPeriph_Driver/src/stm32f4xx_tim.c ****   }
 597:App/STM32F4-Discovery/Libraries/STM32F4xx_StdPeriph_Driver/src/stm32f4xx_tim.c ****   else
 598:App/STM32F4-Discovery/Libraries/STM32F4xx_StdPeriph_Driver/src/stm32f4xx_tim.c ****   {
 599:App/STM32F4-Discovery/Libraries/STM32F4xx_StdPeriph_Driver/src/stm32f4xx_tim.c ****     /* Disable the TIM Counter */
 600:App/STM32F4-Discovery/Libraries/STM32F4xx_StdPeriph_Driver/src/stm32f4xx_tim.c ****     TIMx->CR1 &= (uint16_t)~TIM_CR1_CEN;
 2190              		.loc 1 600 0
 2191 00b4 7B68     		ldr	r3, [r7, #4]
 2192 00b6 1B88     		ldrh	r3, [r3]	@ movhi
 2193 00b8 9BB2     		uxth	r3, r3
 2194 00ba 23F00103 		bic	r3, r3, #1
 2195 00be 9AB2     		uxth	r2, r3
 2196 00c0 7B68     		ldr	r3, [r7, #4]
 2197 00c2 1A80     		strh	r2, [r3]	@ movhi
 2198              	.L90:
 601:App/STM32F4-Discovery/Libraries/STM32F4xx_StdPeriph_Driver/src/stm32f4xx_tim.c ****   }
 602:App/STM32F4-Discovery/Libraries/STM32F4xx_StdPeriph_Driver/src/stm32f4xx_tim.c **** }
 2199              		.loc 1 602 0
 2200 00c4 0837     		adds	r7, r7, #8
 2201 00c6 BD46     		mov	sp, r7
 2202              		@ sp needed
 2203 00c8 80BD     		pop	{r7, pc}
 2204              	.L96:
 2205 00ca 00BF     		.align	2
 2206              	.L95:
 2207 00cc 00000140 		.word	1073807360
 2208 00d0 00040040 		.word	1073742848
 2209 00d4 00080040 		.word	1073743872
 2210 00d8 000C0040 		.word	1073744896
 2211 00dc 00100040 		.word	1073745920
 2212 00e0 00140040 		.word	1073746944
 2213 00e4 00040140 		.word	1073808384
 2214 00e8 00400140 		.word	1073823744
 2215 00ec 00440140 		.word	1073824768
 2216 00f0 00480140 		.word	1073825792
 2217 00f4 00180040 		.word	1073747968
 2218 00f8 001C0040 		.word	1073748992
 2219 00fc 00200040 		.word	1073750016
 2220 0100 00000000 		.word	.LC0
 2221              		.cfi_endproc
 2222              	.LFE124:
 2224              		.section	.text.TIM_OC1Init,"ax",%progbits
 2225              		.align	2
 2226              		.global	TIM_OC1Init
 2227              		.thumb
 2228              		.thumb_func
 2230              	TIM_OC1Init:
 2231              	.LFB125:
 603:App/STM32F4-Discovery/Libraries/STM32F4xx_StdPeriph_Driver/src/stm32f4xx_tim.c **** /**
 604:App/STM32F4-Discovery/Libraries/STM32F4xx_StdPeriph_Driver/src/stm32f4xx_tim.c ****   * @}
 605:App/STM32F4-Discovery/Libraries/STM32F4xx_StdPeriph_Driver/src/stm32f4xx_tim.c ****   */
 606:App/STM32F4-Discovery/Libraries/STM32F4xx_StdPeriph_Driver/src/stm32f4xx_tim.c **** 
 607:App/STM32F4-Discovery/Libraries/STM32F4xx_StdPeriph_Driver/src/stm32f4xx_tim.c **** /** @defgroup TIM_Group2 Output Compare management functions
 608:App/STM32F4-Discovery/Libraries/STM32F4xx_StdPeriph_Driver/src/stm32f4xx_tim.c ****  *  @brief    Output Compare management functions 
 609:App/STM32F4-Discovery/Libraries/STM32F4xx_StdPeriph_Driver/src/stm32f4xx_tim.c ****  *
 610:App/STM32F4-Discovery/Libraries/STM32F4xx_StdPeriph_Driver/src/stm32f4xx_tim.c **** @verbatim   
 611:App/STM32F4-Discovery/Libraries/STM32F4xx_StdPeriph_Driver/src/stm32f4xx_tim.c ****  ===============================================================================
 612:App/STM32F4-Discovery/Libraries/STM32F4xx_StdPeriph_Driver/src/stm32f4xx_tim.c ****                         Output Compare management functions
 613:App/STM32F4-Discovery/Libraries/STM32F4xx_StdPeriph_Driver/src/stm32f4xx_tim.c ****  ===============================================================================  
 614:App/STM32F4-Discovery/Libraries/STM32F4xx_StdPeriph_Driver/src/stm32f4xx_tim.c ****    
 615:App/STM32F4-Discovery/Libraries/STM32F4xx_StdPeriph_Driver/src/stm32f4xx_tim.c ****        ===================================================================      
 616:App/STM32F4-Discovery/Libraries/STM32F4xx_StdPeriph_Driver/src/stm32f4xx_tim.c ****               TIM Driver: how to use it in Output Compare Mode
 617:App/STM32F4-Discovery/Libraries/STM32F4xx_StdPeriph_Driver/src/stm32f4xx_tim.c ****        =================================================================== 
 618:App/STM32F4-Discovery/Libraries/STM32F4xx_StdPeriph_Driver/src/stm32f4xx_tim.c ****        To use the Timer in Output Compare mode, the following steps are mandatory:
 619:App/STM32F4-Discovery/Libraries/STM32F4xx_StdPeriph_Driver/src/stm32f4xx_tim.c ****        
 620:App/STM32F4-Discovery/Libraries/STM32F4xx_StdPeriph_Driver/src/stm32f4xx_tim.c ****        1. Enable TIM clock using RCC_APBxPeriphClockCmd(RCC_APBxPeriph_TIMx, ENABLE) function
 621:App/STM32F4-Discovery/Libraries/STM32F4xx_StdPeriph_Driver/src/stm32f4xx_tim.c ****        
 622:App/STM32F4-Discovery/Libraries/STM32F4xx_StdPeriph_Driver/src/stm32f4xx_tim.c ****        2. Configure the TIM pins by configuring the corresponding GPIO pins
 623:App/STM32F4-Discovery/Libraries/STM32F4xx_StdPeriph_Driver/src/stm32f4xx_tim.c ****        
 624:App/STM32F4-Discovery/Libraries/STM32F4xx_StdPeriph_Driver/src/stm32f4xx_tim.c ****        2. Configure the Time base unit as described in the first part of this driver, 
 625:App/STM32F4-Discovery/Libraries/STM32F4xx_StdPeriph_Driver/src/stm32f4xx_tim.c ****           if needed, else the Timer will run with the default configuration:
 626:App/STM32F4-Discovery/Libraries/STM32F4xx_StdPeriph_Driver/src/stm32f4xx_tim.c ****           - Autoreload value = 0xFFFF
 627:App/STM32F4-Discovery/Libraries/STM32F4xx_StdPeriph_Driver/src/stm32f4xx_tim.c ****           - Prescaler value = 0x0000
 628:App/STM32F4-Discovery/Libraries/STM32F4xx_StdPeriph_Driver/src/stm32f4xx_tim.c ****           - Counter mode = Up counting
 629:App/STM32F4-Discovery/Libraries/STM32F4xx_StdPeriph_Driver/src/stm32f4xx_tim.c ****           - Clock Division = TIM_CKD_DIV1
 630:App/STM32F4-Discovery/Libraries/STM32F4xx_StdPeriph_Driver/src/stm32f4xx_tim.c ****           
 631:App/STM32F4-Discovery/Libraries/STM32F4xx_StdPeriph_Driver/src/stm32f4xx_tim.c ****        3. Fill the TIM_OCInitStruct with the desired parameters including:
 632:App/STM32F4-Discovery/Libraries/STM32F4xx_StdPeriph_Driver/src/stm32f4xx_tim.c ****           - The TIM Output Compare mode: TIM_OCMode
 633:App/STM32F4-Discovery/Libraries/STM32F4xx_StdPeriph_Driver/src/stm32f4xx_tim.c ****           - TIM Output State: TIM_OutputState
 634:App/STM32F4-Discovery/Libraries/STM32F4xx_StdPeriph_Driver/src/stm32f4xx_tim.c ****           - TIM Pulse value: TIM_Pulse
 635:App/STM32F4-Discovery/Libraries/STM32F4xx_StdPeriph_Driver/src/stm32f4xx_tim.c ****           - TIM Output Compare Polarity : TIM_OCPolarity
 636:App/STM32F4-Discovery/Libraries/STM32F4xx_StdPeriph_Driver/src/stm32f4xx_tim.c ****        
 637:App/STM32F4-Discovery/Libraries/STM32F4xx_StdPeriph_Driver/src/stm32f4xx_tim.c ****        4. Call TIM_OCxInit(TIMx, &TIM_OCInitStruct) to configure the desired channel with the 
 638:App/STM32F4-Discovery/Libraries/STM32F4xx_StdPeriph_Driver/src/stm32f4xx_tim.c ****           corresponding configuration
 639:App/STM32F4-Discovery/Libraries/STM32F4xx_StdPeriph_Driver/src/stm32f4xx_tim.c ****        
 640:App/STM32F4-Discovery/Libraries/STM32F4xx_StdPeriph_Driver/src/stm32f4xx_tim.c ****        5. Call the TIM_Cmd(ENABLE) function to enable the TIM counter.
 641:App/STM32F4-Discovery/Libraries/STM32F4xx_StdPeriph_Driver/src/stm32f4xx_tim.c ****        
 642:App/STM32F4-Discovery/Libraries/STM32F4xx_StdPeriph_Driver/src/stm32f4xx_tim.c ****        Note1: All other functions can be used separately to modify, if needed,
 643:App/STM32F4-Discovery/Libraries/STM32F4xx_StdPeriph_Driver/src/stm32f4xx_tim.c ****               a specific feature of the Timer. 
 644:App/STM32F4-Discovery/Libraries/STM32F4xx_StdPeriph_Driver/src/stm32f4xx_tim.c ****           
 645:App/STM32F4-Discovery/Libraries/STM32F4xx_StdPeriph_Driver/src/stm32f4xx_tim.c ****        Note2: In case of PWM mode, this function is mandatory:
 646:App/STM32F4-Discovery/Libraries/STM32F4xx_StdPeriph_Driver/src/stm32f4xx_tim.c ****               TIM_OCxPreloadConfig(TIMx, TIM_OCPreload_ENABLE); 
 647:App/STM32F4-Discovery/Libraries/STM32F4xx_StdPeriph_Driver/src/stm32f4xx_tim.c ****               
 648:App/STM32F4-Discovery/Libraries/STM32F4xx_StdPeriph_Driver/src/stm32f4xx_tim.c ****        Note3: If the corresponding interrupt or DMA request are needed, the user should:
 649:App/STM32F4-Discovery/Libraries/STM32F4xx_StdPeriph_Driver/src/stm32f4xx_tim.c ****                 1. Enable the NVIC (or the DMA) to use the TIM interrupts (or DMA requests). 
 650:App/STM32F4-Discovery/Libraries/STM32F4xx_StdPeriph_Driver/src/stm32f4xx_tim.c ****                 2. Enable the corresponding interrupt (or DMA request) using the function 
 651:App/STM32F4-Discovery/Libraries/STM32F4xx_StdPeriph_Driver/src/stm32f4xx_tim.c ****                    TIM_ITConfig(TIMx, TIM_IT_CCx) (or TIM_DMA_Cmd(TIMx, TIM_DMA_CCx))   
 652:App/STM32F4-Discovery/Libraries/STM32F4xx_StdPeriph_Driver/src/stm32f4xx_tim.c **** 
 653:App/STM32F4-Discovery/Libraries/STM32F4xx_StdPeriph_Driver/src/stm32f4xx_tim.c **** @endverbatim
 654:App/STM32F4-Discovery/Libraries/STM32F4xx_StdPeriph_Driver/src/stm32f4xx_tim.c ****   * @{
 655:App/STM32F4-Discovery/Libraries/STM32F4xx_StdPeriph_Driver/src/stm32f4xx_tim.c ****   */
 656:App/STM32F4-Discovery/Libraries/STM32F4xx_StdPeriph_Driver/src/stm32f4xx_tim.c **** 
 657:App/STM32F4-Discovery/Libraries/STM32F4xx_StdPeriph_Driver/src/stm32f4xx_tim.c **** /**
 658:App/STM32F4-Discovery/Libraries/STM32F4xx_StdPeriph_Driver/src/stm32f4xx_tim.c ****   * @brief  Initializes the TIMx Channel1 according to the specified parameters in
 659:App/STM32F4-Discovery/Libraries/STM32F4xx_StdPeriph_Driver/src/stm32f4xx_tim.c ****   *         the TIM_OCInitStruct.
 660:App/STM32F4-Discovery/Libraries/STM32F4xx_StdPeriph_Driver/src/stm32f4xx_tim.c ****   * @param  TIMx: where x can be 1 to 14 except 6 and 7, to select the TIM peripheral.
 661:App/STM32F4-Discovery/Libraries/STM32F4xx_StdPeriph_Driver/src/stm32f4xx_tim.c ****   * @param  TIM_OCInitStruct: pointer to a TIM_OCInitTypeDef structure that contains
 662:App/STM32F4-Discovery/Libraries/STM32F4xx_StdPeriph_Driver/src/stm32f4xx_tim.c ****   *         the configuration information for the specified TIM peripheral.
 663:App/STM32F4-Discovery/Libraries/STM32F4xx_StdPeriph_Driver/src/stm32f4xx_tim.c ****   * @retval None
 664:App/STM32F4-Discovery/Libraries/STM32F4xx_StdPeriph_Driver/src/stm32f4xx_tim.c ****   */
 665:App/STM32F4-Discovery/Libraries/STM32F4xx_StdPeriph_Driver/src/stm32f4xx_tim.c **** void TIM_OC1Init(TIM_TypeDef* TIMx, TIM_OCInitTypeDef* TIM_OCInitStruct)
 666:App/STM32F4-Discovery/Libraries/STM32F4xx_StdPeriph_Driver/src/stm32f4xx_tim.c **** {
 2232              		.loc 1 666 0
 2233              		.cfi_startproc
 2234              		@ args = 0, pretend = 0, frame = 16
 2235              		@ frame_needed = 1, uses_anonymous_args = 0
 2236 0000 80B5     		push	{r7, lr}
 2237              	.LCFI45:
 2238              		.cfi_def_cfa_offset 8
 2239              		.cfi_offset 7, -8
 2240              		.cfi_offset 14, -4
 2241 0002 84B0     		sub	sp, sp, #16
 2242              	.LCFI46:
 2243              		.cfi_def_cfa_offset 24
 2244 0004 00AF     		add	r7, sp, #0
 2245              	.LCFI47:
 2246              		.cfi_def_cfa_register 7
 2247 0006 7860     		str	r0, [r7, #4]
 2248 0008 3960     		str	r1, [r7]
 667:App/STM32F4-Discovery/Libraries/STM32F4xx_StdPeriph_Driver/src/stm32f4xx_tim.c ****   uint16_t tmpccmrx = 0, tmpccer = 0, tmpcr2 = 0;
 2249              		.loc 1 667 0
 2250 000a 0023     		movs	r3, #0
 2251 000c 7B81     		strh	r3, [r7, #10]	@ movhi
 2252 000e 0023     		movs	r3, #0
 2253 0010 FB81     		strh	r3, [r7, #14]	@ movhi
 2254 0012 0023     		movs	r3, #0
 2255 0014 BB81     		strh	r3, [r7, #12]	@ movhi
 668:App/STM32F4-Discovery/Libraries/STM32F4xx_StdPeriph_Driver/src/stm32f4xx_tim.c ****    
 669:App/STM32F4-Discovery/Libraries/STM32F4xx_StdPeriph_Driver/src/stm32f4xx_tim.c ****   /* Check the parameters */
 670:App/STM32F4-Discovery/Libraries/STM32F4xx_StdPeriph_Driver/src/stm32f4xx_tim.c ****   assert_param(IS_TIM_LIST1_PERIPH(TIMx)); 
 2256              		.loc 1 670 0
 2257 0016 7A68     		ldr	r2, [r7, #4]
 2258 0018 844B     		ldr	r3, .L108
 2259 001a 9A42     		cmp	r2, r3
 2260 001c 30D0     		beq	.L98
 2261              		.loc 1 670 0 is_stmt 0 discriminator 1
 2262 001e 7B68     		ldr	r3, [r7, #4]
 2263 0020 B3F1804F 		cmp	r3, #1073741824
 2264 0024 2CD0     		beq	.L98
 2265 0026 7A68     		ldr	r2, [r7, #4]
 2266 0028 814B     		ldr	r3, .L108+4
 2267 002a 9A42     		cmp	r2, r3
 2268 002c 28D0     		beq	.L98
 2269 002e 7A68     		ldr	r2, [r7, #4]
 2270 0030 804B     		ldr	r3, .L108+8
 2271 0032 9A42     		cmp	r2, r3
 2272 0034 24D0     		beq	.L98
 2273 0036 7A68     		ldr	r2, [r7, #4]
 2274 0038 7F4B     		ldr	r3, .L108+12
 2275 003a 9A42     		cmp	r2, r3
 2276 003c 20D0     		beq	.L98
 2277 003e 7A68     		ldr	r2, [r7, #4]
 2278 0040 7E4B     		ldr	r3, .L108+16
 2279 0042 9A42     		cmp	r2, r3
 2280 0044 1CD0     		beq	.L98
 2281 0046 7A68     		ldr	r2, [r7, #4]
 2282 0048 7D4B     		ldr	r3, .L108+20
 2283 004a 9A42     		cmp	r2, r3
 2284 004c 18D0     		beq	.L98
 2285 004e 7A68     		ldr	r2, [r7, #4]
 2286 0050 7C4B     		ldr	r3, .L108+24
 2287 0052 9A42     		cmp	r2, r3
 2288 0054 14D0     		beq	.L98
 2289 0056 7A68     		ldr	r2, [r7, #4]
 2290 0058 7B4B     		ldr	r3, .L108+28
 2291 005a 9A42     		cmp	r2, r3
 2292 005c 10D0     		beq	.L98
 2293 005e 7A68     		ldr	r2, [r7, #4]
 2294 0060 7A4B     		ldr	r3, .L108+32
 2295 0062 9A42     		cmp	r2, r3
 2296 0064 0CD0     		beq	.L98
 2297 0066 7A68     		ldr	r2, [r7, #4]
 2298 0068 794B     		ldr	r3, .L108+36
 2299 006a 9A42     		cmp	r2, r3
 2300 006c 08D0     		beq	.L98
 2301 006e 7A68     		ldr	r2, [r7, #4]
 2302 0070 784B     		ldr	r3, .L108+40
 2303 0072 9A42     		cmp	r2, r3
 2304 0074 04D0     		beq	.L98
 2305 0076 7848     		ldr	r0, .L108+44
 2306 0078 40F29E21 		movw	r1, #670
 2307 007c FFF7FEFF 		bl	assert_failed
 2308              	.L98:
 671:App/STM32F4-Discovery/Libraries/STM32F4xx_StdPeriph_Driver/src/stm32f4xx_tim.c ****   assert_param(IS_TIM_OC_MODE(TIM_OCInitStruct->TIM_OCMode));
 2309              		.loc 1 671 0 is_stmt 1
 2310 0080 3B68     		ldr	r3, [r7]
 2311 0082 1B88     		ldrh	r3, [r3]
 2312 0084 002B     		cmp	r3, #0
 2313 0086 18D0     		beq	.L99
 2314              		.loc 1 671 0 is_stmt 0 discriminator 1
 2315 0088 3B68     		ldr	r3, [r7]
 2316 008a 1B88     		ldrh	r3, [r3]
 2317 008c 102B     		cmp	r3, #16
 2318 008e 14D0     		beq	.L99
 2319 0090 3B68     		ldr	r3, [r7]
 2320 0092 1B88     		ldrh	r3, [r3]
 2321 0094 202B     		cmp	r3, #32
 2322 0096 10D0     		beq	.L99
 2323 0098 3B68     		ldr	r3, [r7]
 2324 009a 1B88     		ldrh	r3, [r3]
 2325 009c 302B     		cmp	r3, #48
 2326 009e 0CD0     		beq	.L99
 2327 00a0 3B68     		ldr	r3, [r7]
 2328 00a2 1B88     		ldrh	r3, [r3]
 2329 00a4 602B     		cmp	r3, #96
 2330 00a6 08D0     		beq	.L99
 2331 00a8 3B68     		ldr	r3, [r7]
 2332 00aa 1B88     		ldrh	r3, [r3]
 2333 00ac 702B     		cmp	r3, #112
 2334 00ae 04D0     		beq	.L99
 2335 00b0 6948     		ldr	r0, .L108+44
 2336 00b2 40F29F21 		movw	r1, #671
 2337 00b6 FFF7FEFF 		bl	assert_failed
 2338              	.L99:
 672:App/STM32F4-Discovery/Libraries/STM32F4xx_StdPeriph_Driver/src/stm32f4xx_tim.c ****   assert_param(IS_TIM_OUTPUT_STATE(TIM_OCInitStruct->TIM_OutputState));
 2339              		.loc 1 672 0 is_stmt 1
 2340 00ba 3B68     		ldr	r3, [r7]
 2341 00bc 5B88     		ldrh	r3, [r3, #2]
 2342 00be 002B     		cmp	r3, #0
 2343 00c0 08D0     		beq	.L100
 2344              		.loc 1 672 0 is_stmt 0 discriminator 1
 2345 00c2 3B68     		ldr	r3, [r7]
 2346 00c4 5B88     		ldrh	r3, [r3, #2]
 2347 00c6 012B     		cmp	r3, #1
 2348 00c8 04D0     		beq	.L100
 2349 00ca 6348     		ldr	r0, .L108+44
 2350 00cc 4FF42871 		mov	r1, #672
 2351 00d0 FFF7FEFF 		bl	assert_failed
 2352              	.L100:
 673:App/STM32F4-Discovery/Libraries/STM32F4xx_StdPeriph_Driver/src/stm32f4xx_tim.c ****   assert_param(IS_TIM_OC_POLARITY(TIM_OCInitStruct->TIM_OCPolarity));   
 2353              		.loc 1 673 0 is_stmt 1
 2354 00d4 3B68     		ldr	r3, [r7]
 2355 00d6 9B89     		ldrh	r3, [r3, #12]
 2356 00d8 002B     		cmp	r3, #0
 2357 00da 08D0     		beq	.L101
 2358              		.loc 1 673 0 is_stmt 0 discriminator 1
 2359 00dc 3B68     		ldr	r3, [r7]
 2360 00de 9B89     		ldrh	r3, [r3, #12]
 2361 00e0 022B     		cmp	r3, #2
 2362 00e2 04D0     		beq	.L101
 2363 00e4 5C48     		ldr	r0, .L108+44
 2364 00e6 40F2A121 		movw	r1, #673
 2365 00ea FFF7FEFF 		bl	assert_failed
 2366              	.L101:
 674:App/STM32F4-Discovery/Libraries/STM32F4xx_StdPeriph_Driver/src/stm32f4xx_tim.c **** 
 675:App/STM32F4-Discovery/Libraries/STM32F4xx_StdPeriph_Driver/src/stm32f4xx_tim.c ****   /* Disable the Channel 1: Reset the CC1E Bit */
 676:App/STM32F4-Discovery/Libraries/STM32F4xx_StdPeriph_Driver/src/stm32f4xx_tim.c ****   TIMx->CCER &= (uint16_t)~TIM_CCER_CC1E;
 2367              		.loc 1 676 0 is_stmt 1
 2368 00ee 7B68     		ldr	r3, [r7, #4]
 2369 00f0 1B8C     		ldrh	r3, [r3, #32]	@ movhi
 2370 00f2 9BB2     		uxth	r3, r3
 2371 00f4 23F00103 		bic	r3, r3, #1
 2372 00f8 9AB2     		uxth	r2, r3
 2373 00fa 7B68     		ldr	r3, [r7, #4]
 2374 00fc 1A84     		strh	r2, [r3, #32]	@ movhi
 677:App/STM32F4-Discovery/Libraries/STM32F4xx_StdPeriph_Driver/src/stm32f4xx_tim.c ****   
 678:App/STM32F4-Discovery/Libraries/STM32F4xx_StdPeriph_Driver/src/stm32f4xx_tim.c ****   /* Get the TIMx CCER register value */
 679:App/STM32F4-Discovery/Libraries/STM32F4xx_StdPeriph_Driver/src/stm32f4xx_tim.c ****   tmpccer = TIMx->CCER;
 2375              		.loc 1 679 0
 2376 00fe 7B68     		ldr	r3, [r7, #4]
 2377 0100 1B8C     		ldrh	r3, [r3, #32]	@ movhi
 2378 0102 FB81     		strh	r3, [r7, #14]	@ movhi
 680:App/STM32F4-Discovery/Libraries/STM32F4xx_StdPeriph_Driver/src/stm32f4xx_tim.c ****   /* Get the TIMx CR2 register value */
 681:App/STM32F4-Discovery/Libraries/STM32F4xx_StdPeriph_Driver/src/stm32f4xx_tim.c ****   tmpcr2 =  TIMx->CR2;
 2379              		.loc 1 681 0
 2380 0104 7B68     		ldr	r3, [r7, #4]
 2381 0106 9B88     		ldrh	r3, [r3, #4]	@ movhi
 2382 0108 BB81     		strh	r3, [r7, #12]	@ movhi
 682:App/STM32F4-Discovery/Libraries/STM32F4xx_StdPeriph_Driver/src/stm32f4xx_tim.c ****   
 683:App/STM32F4-Discovery/Libraries/STM32F4xx_StdPeriph_Driver/src/stm32f4xx_tim.c ****   /* Get the TIMx CCMR1 register value */
 684:App/STM32F4-Discovery/Libraries/STM32F4xx_StdPeriph_Driver/src/stm32f4xx_tim.c ****   tmpccmrx = TIMx->CCMR1;
 2383              		.loc 1 684 0
 2384 010a 7B68     		ldr	r3, [r7, #4]
 2385 010c 1B8B     		ldrh	r3, [r3, #24]	@ movhi
 2386 010e 7B81     		strh	r3, [r7, #10]	@ movhi
 685:App/STM32F4-Discovery/Libraries/STM32F4xx_StdPeriph_Driver/src/stm32f4xx_tim.c ****     
 686:App/STM32F4-Discovery/Libraries/STM32F4xx_StdPeriph_Driver/src/stm32f4xx_tim.c ****   /* Reset the Output Compare Mode Bits */
 687:App/STM32F4-Discovery/Libraries/STM32F4xx_StdPeriph_Driver/src/stm32f4xx_tim.c ****   tmpccmrx &= (uint16_t)~TIM_CCMR1_OC1M;
 2387              		.loc 1 687 0
 2388 0110 7B89     		ldrh	r3, [r7, #10]	@ movhi
 2389 0112 23F07003 		bic	r3, r3, #112
 2390 0116 7B81     		strh	r3, [r7, #10]	@ movhi
 688:App/STM32F4-Discovery/Libraries/STM32F4xx_StdPeriph_Driver/src/stm32f4xx_tim.c ****   tmpccmrx &= (uint16_t)~TIM_CCMR1_CC1S;
 2391              		.loc 1 688 0
 2392 0118 7B89     		ldrh	r3, [r7, #10]	@ movhi
 2393 011a 23F00303 		bic	r3, r3, #3
 2394 011e 7B81     		strh	r3, [r7, #10]	@ movhi
 689:App/STM32F4-Discovery/Libraries/STM32F4xx_StdPeriph_Driver/src/stm32f4xx_tim.c ****   /* Select the Output Compare Mode */
 690:App/STM32F4-Discovery/Libraries/STM32F4xx_StdPeriph_Driver/src/stm32f4xx_tim.c ****   tmpccmrx |= TIM_OCInitStruct->TIM_OCMode;
 2395              		.loc 1 690 0
 2396 0120 3B68     		ldr	r3, [r7]
 2397 0122 1A88     		ldrh	r2, [r3]
 2398 0124 7B89     		ldrh	r3, [r7, #10]	@ movhi
 2399 0126 1343     		orrs	r3, r3, r2
 2400 0128 7B81     		strh	r3, [r7, #10]	@ movhi
 691:App/STM32F4-Discovery/Libraries/STM32F4xx_StdPeriph_Driver/src/stm32f4xx_tim.c ****   
 692:App/STM32F4-Discovery/Libraries/STM32F4xx_StdPeriph_Driver/src/stm32f4xx_tim.c ****   /* Reset the Output Polarity level */
 693:App/STM32F4-Discovery/Libraries/STM32F4xx_StdPeriph_Driver/src/stm32f4xx_tim.c ****   tmpccer &= (uint16_t)~TIM_CCER_CC1P;
 2401              		.loc 1 693 0
 2402 012a FB89     		ldrh	r3, [r7, #14]	@ movhi
 2403 012c 23F00203 		bic	r3, r3, #2
 2404 0130 FB81     		strh	r3, [r7, #14]	@ movhi
 694:App/STM32F4-Discovery/Libraries/STM32F4xx_StdPeriph_Driver/src/stm32f4xx_tim.c ****   /* Set the Output Compare Polarity */
 695:App/STM32F4-Discovery/Libraries/STM32F4xx_StdPeriph_Driver/src/stm32f4xx_tim.c ****   tmpccer |= TIM_OCInitStruct->TIM_OCPolarity;
 2405              		.loc 1 695 0
 2406 0132 3B68     		ldr	r3, [r7]
 2407 0134 9A89     		ldrh	r2, [r3, #12]
 2408 0136 FB89     		ldrh	r3, [r7, #14]	@ movhi
 2409 0138 1343     		orrs	r3, r3, r2
 2410 013a FB81     		strh	r3, [r7, #14]	@ movhi
 696:App/STM32F4-Discovery/Libraries/STM32F4xx_StdPeriph_Driver/src/stm32f4xx_tim.c ****   
 697:App/STM32F4-Discovery/Libraries/STM32F4xx_StdPeriph_Driver/src/stm32f4xx_tim.c ****   /* Set the Output State */
 698:App/STM32F4-Discovery/Libraries/STM32F4xx_StdPeriph_Driver/src/stm32f4xx_tim.c ****   tmpccer |= TIM_OCInitStruct->TIM_OutputState;
 2411              		.loc 1 698 0
 2412 013c 3B68     		ldr	r3, [r7]
 2413 013e 5A88     		ldrh	r2, [r3, #2]
 2414 0140 FB89     		ldrh	r3, [r7, #14]	@ movhi
 2415 0142 1343     		orrs	r3, r3, r2
 2416 0144 FB81     		strh	r3, [r7, #14]	@ movhi
 699:App/STM32F4-Discovery/Libraries/STM32F4xx_StdPeriph_Driver/src/stm32f4xx_tim.c ****     
 700:App/STM32F4-Discovery/Libraries/STM32F4xx_StdPeriph_Driver/src/stm32f4xx_tim.c ****   if((TIMx == TIM1) || (TIMx == TIM8))
 2417              		.loc 1 700 0
 2418 0146 7A68     		ldr	r2, [r7, #4]
 2419 0148 384B     		ldr	r3, .L108
 2420 014a 9A42     		cmp	r2, r3
 2421 014c 03D0     		beq	.L102
 2422              		.loc 1 700 0 is_stmt 0 discriminator 1
 2423 014e 7A68     		ldr	r2, [r7, #4]
 2424 0150 3A4B     		ldr	r3, .L108+16
 2425 0152 9A42     		cmp	r2, r3
 2426 0154 59D1     		bne	.L103
 2427              	.L102:
 701:App/STM32F4-Discovery/Libraries/STM32F4xx_StdPeriph_Driver/src/stm32f4xx_tim.c ****   {
 702:App/STM32F4-Discovery/Libraries/STM32F4xx_StdPeriph_Driver/src/stm32f4xx_tim.c ****     assert_param(IS_TIM_OUTPUTN_STATE(TIM_OCInitStruct->TIM_OutputNState));
 2428              		.loc 1 702 0 is_stmt 1
 2429 0156 3B68     		ldr	r3, [r7]
 2430 0158 9B88     		ldrh	r3, [r3, #4]
 2431 015a 002B     		cmp	r3, #0
 2432 015c 08D0     		beq	.L104
 2433              		.loc 1 702 0 is_stmt 0 discriminator 1
 2434 015e 3B68     		ldr	r3, [r7]
 2435 0160 9B88     		ldrh	r3, [r3, #4]
 2436 0162 042B     		cmp	r3, #4
 2437 0164 04D0     		beq	.L104
 2438 0166 3C48     		ldr	r0, .L108+44
 2439 0168 40F2BE21 		movw	r1, #702
 2440 016c FFF7FEFF 		bl	assert_failed
 2441              	.L104:
 703:App/STM32F4-Discovery/Libraries/STM32F4xx_StdPeriph_Driver/src/stm32f4xx_tim.c ****     assert_param(IS_TIM_OCN_POLARITY(TIM_OCInitStruct->TIM_OCNPolarity));
 2442              		.loc 1 703 0 is_stmt 1
 2443 0170 3B68     		ldr	r3, [r7]
 2444 0172 DB89     		ldrh	r3, [r3, #14]
 2445 0174 002B     		cmp	r3, #0
 2446 0176 08D0     		beq	.L105
 2447              		.loc 1 703 0 is_stmt 0 discriminator 1
 2448 0178 3B68     		ldr	r3, [r7]
 2449 017a DB89     		ldrh	r3, [r3, #14]
 2450 017c 082B     		cmp	r3, #8
 2451 017e 04D0     		beq	.L105
 2452 0180 3548     		ldr	r0, .L108+44
 2453 0182 40F2BF21 		movw	r1, #703
 2454 0186 FFF7FEFF 		bl	assert_failed
 2455              	.L105:
 704:App/STM32F4-Discovery/Libraries/STM32F4xx_StdPeriph_Driver/src/stm32f4xx_tim.c ****     assert_param(IS_TIM_OCNIDLE_STATE(TIM_OCInitStruct->TIM_OCNIdleState));
 2456              		.loc 1 704 0 is_stmt 1
 2457 018a 3B68     		ldr	r3, [r7]
 2458 018c 5B8A     		ldrh	r3, [r3, #18]
 2459 018e B3F5007F 		cmp	r3, #512
 2460 0192 08D0     		beq	.L106
 2461              		.loc 1 704 0 is_stmt 0 discriminator 1
 2462 0194 3B68     		ldr	r3, [r7]
 2463 0196 5B8A     		ldrh	r3, [r3, #18]
 2464 0198 002B     		cmp	r3, #0
 2465 019a 04D0     		beq	.L106
 2466 019c 2E48     		ldr	r0, .L108+44
 2467 019e 4FF43071 		mov	r1, #704
 2468 01a2 FFF7FEFF 		bl	assert_failed
 2469              	.L106:
 705:App/STM32F4-Discovery/Libraries/STM32F4xx_StdPeriph_Driver/src/stm32f4xx_tim.c ****     assert_param(IS_TIM_OCIDLE_STATE(TIM_OCInitStruct->TIM_OCIdleState));
 2470              		.loc 1 705 0 is_stmt 1
 2471 01a6 3B68     		ldr	r3, [r7]
 2472 01a8 1B8A     		ldrh	r3, [r3, #16]
 2473 01aa B3F5807F 		cmp	r3, #256
 2474 01ae 08D0     		beq	.L107
 2475              		.loc 1 705 0 is_stmt 0 discriminator 1
 2476 01b0 3B68     		ldr	r3, [r7]
 2477 01b2 1B8A     		ldrh	r3, [r3, #16]
 2478 01b4 002B     		cmp	r3, #0
 2479 01b6 04D0     		beq	.L107
 2480 01b8 2748     		ldr	r0, .L108+44
 2481 01ba 40F2C121 		movw	r1, #705
 2482 01be FFF7FEFF 		bl	assert_failed
 2483              	.L107:
 706:App/STM32F4-Discovery/Libraries/STM32F4xx_StdPeriph_Driver/src/stm32f4xx_tim.c ****     
 707:App/STM32F4-Discovery/Libraries/STM32F4xx_StdPeriph_Driver/src/stm32f4xx_tim.c ****     /* Reset the Output N Polarity level */
 708:App/STM32F4-Discovery/Libraries/STM32F4xx_StdPeriph_Driver/src/stm32f4xx_tim.c ****     tmpccer &= (uint16_t)~TIM_CCER_CC1NP;
 2484              		.loc 1 708 0 is_stmt 1
 2485 01c2 FB89     		ldrh	r3, [r7, #14]	@ movhi
 2486 01c4 23F00803 		bic	r3, r3, #8
 2487 01c8 FB81     		strh	r3, [r7, #14]	@ movhi
 709:App/STM32F4-Discovery/Libraries/STM32F4xx_StdPeriph_Driver/src/stm32f4xx_tim.c ****     /* Set the Output N Polarity */
 710:App/STM32F4-Discovery/Libraries/STM32F4xx_StdPeriph_Driver/src/stm32f4xx_tim.c ****     tmpccer |= TIM_OCInitStruct->TIM_OCNPolarity;
 2488              		.loc 1 710 0
 2489 01ca 3B68     		ldr	r3, [r7]
 2490 01cc DA89     		ldrh	r2, [r3, #14]
 2491 01ce FB89     		ldrh	r3, [r7, #14]	@ movhi
 2492 01d0 1343     		orrs	r3, r3, r2
 2493 01d2 FB81     		strh	r3, [r7, #14]	@ movhi
 711:App/STM32F4-Discovery/Libraries/STM32F4xx_StdPeriph_Driver/src/stm32f4xx_tim.c ****     /* Reset the Output N State */
 712:App/STM32F4-Discovery/Libraries/STM32F4xx_StdPeriph_Driver/src/stm32f4xx_tim.c ****     tmpccer &= (uint16_t)~TIM_CCER_CC1NE;
 2494              		.loc 1 712 0
 2495 01d4 FB89     		ldrh	r3, [r7, #14]	@ movhi
 2496 01d6 23F00403 		bic	r3, r3, #4
 2497 01da FB81     		strh	r3, [r7, #14]	@ movhi
 713:App/STM32F4-Discovery/Libraries/STM32F4xx_StdPeriph_Driver/src/stm32f4xx_tim.c ****     
 714:App/STM32F4-Discovery/Libraries/STM32F4xx_StdPeriph_Driver/src/stm32f4xx_tim.c ****     /* Set the Output N State */
 715:App/STM32F4-Discovery/Libraries/STM32F4xx_StdPeriph_Driver/src/stm32f4xx_tim.c ****     tmpccer |= TIM_OCInitStruct->TIM_OutputNState;
 2498              		.loc 1 715 0
 2499 01dc 3B68     		ldr	r3, [r7]
 2500 01de 9A88     		ldrh	r2, [r3, #4]
 2501 01e0 FB89     		ldrh	r3, [r7, #14]	@ movhi
 2502 01e2 1343     		orrs	r3, r3, r2
 2503 01e4 FB81     		strh	r3, [r7, #14]	@ movhi
 716:App/STM32F4-Discovery/Libraries/STM32F4xx_StdPeriph_Driver/src/stm32f4xx_tim.c ****     /* Reset the Output Compare and Output Compare N IDLE State */
 717:App/STM32F4-Discovery/Libraries/STM32F4xx_StdPeriph_Driver/src/stm32f4xx_tim.c ****     tmpcr2 &= (uint16_t)~TIM_CR2_OIS1;
 2504              		.loc 1 717 0
 2505 01e6 BB89     		ldrh	r3, [r7, #12]	@ movhi
 2506 01e8 23F48073 		bic	r3, r3, #256
 2507 01ec BB81     		strh	r3, [r7, #12]	@ movhi
 718:App/STM32F4-Discovery/Libraries/STM32F4xx_StdPeriph_Driver/src/stm32f4xx_tim.c ****     tmpcr2 &= (uint16_t)~TIM_CR2_OIS1N;
 2508              		.loc 1 718 0
 2509 01ee BB89     		ldrh	r3, [r7, #12]	@ movhi
 2510 01f0 23F40073 		bic	r3, r3, #512
 2511 01f4 BB81     		strh	r3, [r7, #12]	@ movhi
 719:App/STM32F4-Discovery/Libraries/STM32F4xx_StdPeriph_Driver/src/stm32f4xx_tim.c ****     /* Set the Output Idle state */
 720:App/STM32F4-Discovery/Libraries/STM32F4xx_StdPeriph_Driver/src/stm32f4xx_tim.c ****     tmpcr2 |= TIM_OCInitStruct->TIM_OCIdleState;
 2512              		.loc 1 720 0
 2513 01f6 3B68     		ldr	r3, [r7]
 2514 01f8 1A8A     		ldrh	r2, [r3, #16]
 2515 01fa BB89     		ldrh	r3, [r7, #12]	@ movhi
 2516 01fc 1343     		orrs	r3, r3, r2
 2517 01fe BB81     		strh	r3, [r7, #12]	@ movhi
 721:App/STM32F4-Discovery/Libraries/STM32F4xx_StdPeriph_Driver/src/stm32f4xx_tim.c ****     /* Set the Output N Idle state */
 722:App/STM32F4-Discovery/Libraries/STM32F4xx_StdPeriph_Driver/src/stm32f4xx_tim.c ****     tmpcr2 |= TIM_OCInitStruct->TIM_OCNIdleState;
 2518              		.loc 1 722 0
 2519 0200 3B68     		ldr	r3, [r7]
 2520 0202 5A8A     		ldrh	r2, [r3, #18]
 2521 0204 BB89     		ldrh	r3, [r7, #12]	@ movhi
 2522 0206 1343     		orrs	r3, r3, r2
 2523 0208 BB81     		strh	r3, [r7, #12]	@ movhi
 2524              	.L103:
 723:App/STM32F4-Discovery/Libraries/STM32F4xx_StdPeriph_Driver/src/stm32f4xx_tim.c ****   }
 724:App/STM32F4-Discovery/Libraries/STM32F4xx_StdPeriph_Driver/src/stm32f4xx_tim.c ****   /* Write to TIMx CR2 */
 725:App/STM32F4-Discovery/Libraries/STM32F4xx_StdPeriph_Driver/src/stm32f4xx_tim.c ****   TIMx->CR2 = tmpcr2;
 2525              		.loc 1 725 0
 2526 020a 7B68     		ldr	r3, [r7, #4]
 2527 020c BA89     		ldrh	r2, [r7, #12]	@ movhi
 2528 020e 9A80     		strh	r2, [r3, #4]	@ movhi
 726:App/STM32F4-Discovery/Libraries/STM32F4xx_StdPeriph_Driver/src/stm32f4xx_tim.c ****   
 727:App/STM32F4-Discovery/Libraries/STM32F4xx_StdPeriph_Driver/src/stm32f4xx_tim.c ****   /* Write to TIMx CCMR1 */
 728:App/STM32F4-Discovery/Libraries/STM32F4xx_StdPeriph_Driver/src/stm32f4xx_tim.c ****   TIMx->CCMR1 = tmpccmrx;
 2529              		.loc 1 728 0
 2530 0210 7B68     		ldr	r3, [r7, #4]
 2531 0212 7A89     		ldrh	r2, [r7, #10]	@ movhi
 2532 0214 1A83     		strh	r2, [r3, #24]	@ movhi
 729:App/STM32F4-Discovery/Libraries/STM32F4xx_StdPeriph_Driver/src/stm32f4xx_tim.c ****   
 730:App/STM32F4-Discovery/Libraries/STM32F4xx_StdPeriph_Driver/src/stm32f4xx_tim.c ****   /* Set the Capture Compare Register value */
 731:App/STM32F4-Discovery/Libraries/STM32F4xx_StdPeriph_Driver/src/stm32f4xx_tim.c ****   TIMx->CCR1 = TIM_OCInitStruct->TIM_Pulse;
 2533              		.loc 1 731 0
 2534 0216 3B68     		ldr	r3, [r7]
 2535 0218 9A68     		ldr	r2, [r3, #8]
 2536 021a 7B68     		ldr	r3, [r7, #4]
 2537 021c 5A63     		str	r2, [r3, #52]
 732:App/STM32F4-Discovery/Libraries/STM32F4xx_StdPeriph_Driver/src/stm32f4xx_tim.c ****   
 733:App/STM32F4-Discovery/Libraries/STM32F4xx_StdPeriph_Driver/src/stm32f4xx_tim.c ****   /* Write to TIMx CCER */
 734:App/STM32F4-Discovery/Libraries/STM32F4xx_StdPeriph_Driver/src/stm32f4xx_tim.c ****   TIMx->CCER = tmpccer;
 2538              		.loc 1 734 0
 2539 021e 7B68     		ldr	r3, [r7, #4]
 2540 0220 FA89     		ldrh	r2, [r7, #14]	@ movhi
 2541 0222 1A84     		strh	r2, [r3, #32]	@ movhi
 735:App/STM32F4-Discovery/Libraries/STM32F4xx_StdPeriph_Driver/src/stm32f4xx_tim.c **** }
 2542              		.loc 1 735 0
 2543 0224 1037     		adds	r7, r7, #16
 2544 0226 BD46     		mov	sp, r7
 2545              		@ sp needed
 2546 0228 80BD     		pop	{r7, pc}
 2547              	.L109:
 2548 022a 00BF     		.align	2
 2549              	.L108:
 2550 022c 00000140 		.word	1073807360
 2551 0230 00040040 		.word	1073742848
 2552 0234 00080040 		.word	1073743872
 2553 0238 000C0040 		.word	1073744896
 2554 023c 00040140 		.word	1073808384
 2555 0240 00400140 		.word	1073823744
 2556 0244 00440140 		.word	1073824768
 2557 0248 00480140 		.word	1073825792
 2558 024c 00180040 		.word	1073747968
 2559 0250 001C0040 		.word	1073748992
 2560 0254 00200040 		.word	1073750016
 2561 0258 00000000 		.word	.LC0
 2562              		.cfi_endproc
 2563              	.LFE125:
 2565              		.section	.text.TIM_OC2Init,"ax",%progbits
 2566              		.align	2
 2567              		.global	TIM_OC2Init
 2568              		.thumb
 2569              		.thumb_func
 2571              	TIM_OC2Init:
 2572              	.LFB126:
 736:App/STM32F4-Discovery/Libraries/STM32F4xx_StdPeriph_Driver/src/stm32f4xx_tim.c **** 
 737:App/STM32F4-Discovery/Libraries/STM32F4xx_StdPeriph_Driver/src/stm32f4xx_tim.c **** /**
 738:App/STM32F4-Discovery/Libraries/STM32F4xx_StdPeriph_Driver/src/stm32f4xx_tim.c ****   * @brief  Initializes the TIMx Channel2 according to the specified parameters 
 739:App/STM32F4-Discovery/Libraries/STM32F4xx_StdPeriph_Driver/src/stm32f4xx_tim.c ****   *         in the TIM_OCInitStruct.
 740:App/STM32F4-Discovery/Libraries/STM32F4xx_StdPeriph_Driver/src/stm32f4xx_tim.c ****   * @param  TIMx: where x can be 1, 2, 3, 4, 5, 8, 9 or 12 to select the TIM 
 741:App/STM32F4-Discovery/Libraries/STM32F4xx_StdPeriph_Driver/src/stm32f4xx_tim.c ****   *         peripheral.
 742:App/STM32F4-Discovery/Libraries/STM32F4xx_StdPeriph_Driver/src/stm32f4xx_tim.c ****   * @param  TIM_OCInitStruct: pointer to a TIM_OCInitTypeDef structure that contains
 743:App/STM32F4-Discovery/Libraries/STM32F4xx_StdPeriph_Driver/src/stm32f4xx_tim.c ****   *         the configuration information for the specified TIM peripheral.
 744:App/STM32F4-Discovery/Libraries/STM32F4xx_StdPeriph_Driver/src/stm32f4xx_tim.c ****   * @retval None
 745:App/STM32F4-Discovery/Libraries/STM32F4xx_StdPeriph_Driver/src/stm32f4xx_tim.c ****   */
 746:App/STM32F4-Discovery/Libraries/STM32F4xx_StdPeriph_Driver/src/stm32f4xx_tim.c **** void TIM_OC2Init(TIM_TypeDef* TIMx, TIM_OCInitTypeDef* TIM_OCInitStruct)
 747:App/STM32F4-Discovery/Libraries/STM32F4xx_StdPeriph_Driver/src/stm32f4xx_tim.c **** {
 2573              		.loc 1 747 0
 2574              		.cfi_startproc
 2575              		@ args = 0, pretend = 0, frame = 16
 2576              		@ frame_needed = 1, uses_anonymous_args = 0
 2577 0000 80B5     		push	{r7, lr}
 2578              	.LCFI48:
 2579              		.cfi_def_cfa_offset 8
 2580              		.cfi_offset 7, -8
 2581              		.cfi_offset 14, -4
 2582 0002 84B0     		sub	sp, sp, #16
 2583              	.LCFI49:
 2584              		.cfi_def_cfa_offset 24
 2585 0004 00AF     		add	r7, sp, #0
 2586              	.LCFI50:
 2587              		.cfi_def_cfa_register 7
 2588 0006 7860     		str	r0, [r7, #4]
 2589 0008 3960     		str	r1, [r7]
 748:App/STM32F4-Discovery/Libraries/STM32F4xx_StdPeriph_Driver/src/stm32f4xx_tim.c ****   uint16_t tmpccmrx = 0, tmpccer = 0, tmpcr2 = 0;
 2590              		.loc 1 748 0
 2591 000a 0023     		movs	r3, #0
 2592 000c 7B81     		strh	r3, [r7, #10]	@ movhi
 2593 000e 0023     		movs	r3, #0
 2594 0010 FB81     		strh	r3, [r7, #14]	@ movhi
 2595 0012 0023     		movs	r3, #0
 2596 0014 BB81     		strh	r3, [r7, #12]	@ movhi
 749:App/STM32F4-Discovery/Libraries/STM32F4xx_StdPeriph_Driver/src/stm32f4xx_tim.c ****    
 750:App/STM32F4-Discovery/Libraries/STM32F4xx_StdPeriph_Driver/src/stm32f4xx_tim.c ****   /* Check the parameters */
 751:App/STM32F4-Discovery/Libraries/STM32F4xx_StdPeriph_Driver/src/stm32f4xx_tim.c ****   assert_param(IS_TIM_LIST2_PERIPH(TIMx)); 
 2597              		.loc 1 751 0
 2598 0016 7A68     		ldr	r2, [r7, #4]
 2599 0018 834B     		ldr	r3, .L121
 2600 001a 9A42     		cmp	r2, r3
 2601 001c 20D0     		beq	.L111
 2602              		.loc 1 751 0 is_stmt 0 discriminator 1
 2603 001e 7B68     		ldr	r3, [r7, #4]
 2604 0020 B3F1804F 		cmp	r3, #1073741824
 2605 0024 1CD0     		beq	.L111
 2606 0026 7A68     		ldr	r2, [r7, #4]
 2607 0028 804B     		ldr	r3, .L121+4
 2608 002a 9A42     		cmp	r2, r3
 2609 002c 18D0     		beq	.L111
 2610 002e 7A68     		ldr	r2, [r7, #4]
 2611 0030 7F4B     		ldr	r3, .L121+8
 2612 0032 9A42     		cmp	r2, r3
 2613 0034 14D0     		beq	.L111
 2614 0036 7A68     		ldr	r2, [r7, #4]
 2615 0038 7E4B     		ldr	r3, .L121+12
 2616 003a 9A42     		cmp	r2, r3
 2617 003c 10D0     		beq	.L111
 2618 003e 7A68     		ldr	r2, [r7, #4]
 2619 0040 7D4B     		ldr	r3, .L121+16
 2620 0042 9A42     		cmp	r2, r3
 2621 0044 0CD0     		beq	.L111
 2622 0046 7A68     		ldr	r2, [r7, #4]
 2623 0048 7C4B     		ldr	r3, .L121+20
 2624 004a 9A42     		cmp	r2, r3
 2625 004c 08D0     		beq	.L111
 2626 004e 7A68     		ldr	r2, [r7, #4]
 2627 0050 7B4B     		ldr	r3, .L121+24
 2628 0052 9A42     		cmp	r2, r3
 2629 0054 04D0     		beq	.L111
 2630 0056 7B48     		ldr	r0, .L121+28
 2631 0058 40F2EF21 		movw	r1, #751
 2632 005c FFF7FEFF 		bl	assert_failed
 2633              	.L111:
 752:App/STM32F4-Discovery/Libraries/STM32F4xx_StdPeriph_Driver/src/stm32f4xx_tim.c ****   assert_param(IS_TIM_OC_MODE(TIM_OCInitStruct->TIM_OCMode));
 2634              		.loc 1 752 0 is_stmt 1
 2635 0060 3B68     		ldr	r3, [r7]
 2636 0062 1B88     		ldrh	r3, [r3]
 2637 0064 002B     		cmp	r3, #0
 2638 0066 18D0     		beq	.L112
 2639              		.loc 1 752 0 is_stmt 0 discriminator 1
 2640 0068 3B68     		ldr	r3, [r7]
 2641 006a 1B88     		ldrh	r3, [r3]
 2642 006c 102B     		cmp	r3, #16
 2643 006e 14D0     		beq	.L112
 2644 0070 3B68     		ldr	r3, [r7]
 2645 0072 1B88     		ldrh	r3, [r3]
 2646 0074 202B     		cmp	r3, #32
 2647 0076 10D0     		beq	.L112
 2648 0078 3B68     		ldr	r3, [r7]
 2649 007a 1B88     		ldrh	r3, [r3]
 2650 007c 302B     		cmp	r3, #48
 2651 007e 0CD0     		beq	.L112
 2652 0080 3B68     		ldr	r3, [r7]
 2653 0082 1B88     		ldrh	r3, [r3]
 2654 0084 602B     		cmp	r3, #96
 2655 0086 08D0     		beq	.L112
 2656 0088 3B68     		ldr	r3, [r7]
 2657 008a 1B88     		ldrh	r3, [r3]
 2658 008c 702B     		cmp	r3, #112
 2659 008e 04D0     		beq	.L112
 2660 0090 6C48     		ldr	r0, .L121+28
 2661 0092 4FF43C71 		mov	r1, #752
 2662 0096 FFF7FEFF 		bl	assert_failed
 2663              	.L112:
 753:App/STM32F4-Discovery/Libraries/STM32F4xx_StdPeriph_Driver/src/stm32f4xx_tim.c ****   assert_param(IS_TIM_OUTPUT_STATE(TIM_OCInitStruct->TIM_OutputState));
 2664              		.loc 1 753 0 is_stmt 1
 2665 009a 3B68     		ldr	r3, [r7]
 2666 009c 5B88     		ldrh	r3, [r3, #2]
 2667 009e 002B     		cmp	r3, #0
 2668 00a0 08D0     		beq	.L113
 2669              		.loc 1 753 0 is_stmt 0 discriminator 1
 2670 00a2 3B68     		ldr	r3, [r7]
 2671 00a4 5B88     		ldrh	r3, [r3, #2]
 2672 00a6 012B     		cmp	r3, #1
 2673 00a8 04D0     		beq	.L113
 2674 00aa 6648     		ldr	r0, .L121+28
 2675 00ac 40F2F121 		movw	r1, #753
 2676 00b0 FFF7FEFF 		bl	assert_failed
 2677              	.L113:
 754:App/STM32F4-Discovery/Libraries/STM32F4xx_StdPeriph_Driver/src/stm32f4xx_tim.c ****   assert_param(IS_TIM_OC_POLARITY(TIM_OCInitStruct->TIM_OCPolarity));   
 2678              		.loc 1 754 0 is_stmt 1
 2679 00b4 3B68     		ldr	r3, [r7]
 2680 00b6 9B89     		ldrh	r3, [r3, #12]
 2681 00b8 002B     		cmp	r3, #0
 2682 00ba 08D0     		beq	.L114
 2683              		.loc 1 754 0 is_stmt 0 discriminator 1
 2684 00bc 3B68     		ldr	r3, [r7]
 2685 00be 9B89     		ldrh	r3, [r3, #12]
 2686 00c0 022B     		cmp	r3, #2
 2687 00c2 04D0     		beq	.L114
 2688 00c4 5F48     		ldr	r0, .L121+28
 2689 00c6 40F2F221 		movw	r1, #754
 2690 00ca FFF7FEFF 		bl	assert_failed
 2691              	.L114:
 755:App/STM32F4-Discovery/Libraries/STM32F4xx_StdPeriph_Driver/src/stm32f4xx_tim.c **** 
 756:App/STM32F4-Discovery/Libraries/STM32F4xx_StdPeriph_Driver/src/stm32f4xx_tim.c ****   /* Disable the Channel 2: Reset the CC2E Bit */
 757:App/STM32F4-Discovery/Libraries/STM32F4xx_StdPeriph_Driver/src/stm32f4xx_tim.c ****   TIMx->CCER &= (uint16_t)~TIM_CCER_CC2E;
 2692              		.loc 1 757 0 is_stmt 1
 2693 00ce 7B68     		ldr	r3, [r7, #4]
 2694 00d0 1B8C     		ldrh	r3, [r3, #32]	@ movhi
 2695 00d2 9BB2     		uxth	r3, r3
 2696 00d4 23F01003 		bic	r3, r3, #16
 2697 00d8 9AB2     		uxth	r2, r3
 2698 00da 7B68     		ldr	r3, [r7, #4]
 2699 00dc 1A84     		strh	r2, [r3, #32]	@ movhi
 758:App/STM32F4-Discovery/Libraries/STM32F4xx_StdPeriph_Driver/src/stm32f4xx_tim.c ****   
 759:App/STM32F4-Discovery/Libraries/STM32F4xx_StdPeriph_Driver/src/stm32f4xx_tim.c ****   /* Get the TIMx CCER register value */  
 760:App/STM32F4-Discovery/Libraries/STM32F4xx_StdPeriph_Driver/src/stm32f4xx_tim.c ****   tmpccer = TIMx->CCER;
 2700              		.loc 1 760 0
 2701 00de 7B68     		ldr	r3, [r7, #4]
 2702 00e0 1B8C     		ldrh	r3, [r3, #32]	@ movhi
 2703 00e2 FB81     		strh	r3, [r7, #14]	@ movhi
 761:App/STM32F4-Discovery/Libraries/STM32F4xx_StdPeriph_Driver/src/stm32f4xx_tim.c ****   /* Get the TIMx CR2 register value */
 762:App/STM32F4-Discovery/Libraries/STM32F4xx_StdPeriph_Driver/src/stm32f4xx_tim.c ****   tmpcr2 =  TIMx->CR2;
 2704              		.loc 1 762 0
 2705 00e4 7B68     		ldr	r3, [r7, #4]
 2706 00e6 9B88     		ldrh	r3, [r3, #4]	@ movhi
 2707 00e8 BB81     		strh	r3, [r7, #12]	@ movhi
 763:App/STM32F4-Discovery/Libraries/STM32F4xx_StdPeriph_Driver/src/stm32f4xx_tim.c ****   
 764:App/STM32F4-Discovery/Libraries/STM32F4xx_StdPeriph_Driver/src/stm32f4xx_tim.c ****   /* Get the TIMx CCMR1 register value */
 765:App/STM32F4-Discovery/Libraries/STM32F4xx_StdPeriph_Driver/src/stm32f4xx_tim.c ****   tmpccmrx = TIMx->CCMR1;
 2708              		.loc 1 765 0
 2709 00ea 7B68     		ldr	r3, [r7, #4]
 2710 00ec 1B8B     		ldrh	r3, [r3, #24]	@ movhi
 2711 00ee 7B81     		strh	r3, [r7, #10]	@ movhi
 766:App/STM32F4-Discovery/Libraries/STM32F4xx_StdPeriph_Driver/src/stm32f4xx_tim.c ****     
 767:App/STM32F4-Discovery/Libraries/STM32F4xx_StdPeriph_Driver/src/stm32f4xx_tim.c ****   /* Reset the Output Compare mode and Capture/Compare selection Bits */
 768:App/STM32F4-Discovery/Libraries/STM32F4xx_StdPeriph_Driver/src/stm32f4xx_tim.c ****   tmpccmrx &= (uint16_t)~TIM_CCMR1_OC2M;
 2712              		.loc 1 768 0
 2713 00f0 7B89     		ldrh	r3, [r7, #10]	@ movhi
 2714 00f2 23F4E043 		bic	r3, r3, #28672
 2715 00f6 7B81     		strh	r3, [r7, #10]	@ movhi
 769:App/STM32F4-Discovery/Libraries/STM32F4xx_StdPeriph_Driver/src/stm32f4xx_tim.c ****   tmpccmrx &= (uint16_t)~TIM_CCMR1_CC2S;
 2716              		.loc 1 769 0
 2717 00f8 7B89     		ldrh	r3, [r7, #10]	@ movhi
 2718 00fa 23F44073 		bic	r3, r3, #768
 2719 00fe 7B81     		strh	r3, [r7, #10]	@ movhi
 770:App/STM32F4-Discovery/Libraries/STM32F4xx_StdPeriph_Driver/src/stm32f4xx_tim.c ****   
 771:App/STM32F4-Discovery/Libraries/STM32F4xx_StdPeriph_Driver/src/stm32f4xx_tim.c ****   /* Select the Output Compare Mode */
 772:App/STM32F4-Discovery/Libraries/STM32F4xx_StdPeriph_Driver/src/stm32f4xx_tim.c ****   tmpccmrx |= (uint16_t)(TIM_OCInitStruct->TIM_OCMode << 8);
 2720              		.loc 1 772 0
 2721 0100 3B68     		ldr	r3, [r7]
 2722 0102 1B88     		ldrh	r3, [r3]
 2723 0104 1B02     		lsls	r3, r3, #8
 2724 0106 9AB2     		uxth	r2, r3
 2725 0108 7B89     		ldrh	r3, [r7, #10]	@ movhi
 2726 010a 1343     		orrs	r3, r3, r2
 2727 010c 7B81     		strh	r3, [r7, #10]	@ movhi
 773:App/STM32F4-Discovery/Libraries/STM32F4xx_StdPeriph_Driver/src/stm32f4xx_tim.c ****   
 774:App/STM32F4-Discovery/Libraries/STM32F4xx_StdPeriph_Driver/src/stm32f4xx_tim.c ****   /* Reset the Output Polarity level */
 775:App/STM32F4-Discovery/Libraries/STM32F4xx_StdPeriph_Driver/src/stm32f4xx_tim.c ****   tmpccer &= (uint16_t)~TIM_CCER_CC2P;
 2728              		.loc 1 775 0
 2729 010e FB89     		ldrh	r3, [r7, #14]	@ movhi
 2730 0110 23F02003 		bic	r3, r3, #32
 2731 0114 FB81     		strh	r3, [r7, #14]	@ movhi
 776:App/STM32F4-Discovery/Libraries/STM32F4xx_StdPeriph_Driver/src/stm32f4xx_tim.c ****   /* Set the Output Compare Polarity */
 777:App/STM32F4-Discovery/Libraries/STM32F4xx_StdPeriph_Driver/src/stm32f4xx_tim.c ****   tmpccer |= (uint16_t)(TIM_OCInitStruct->TIM_OCPolarity << 4);
 2732              		.loc 1 777 0
 2733 0116 3B68     		ldr	r3, [r7]
 2734 0118 9B89     		ldrh	r3, [r3, #12]
 2735 011a 1B01     		lsls	r3, r3, #4
 2736 011c 9AB2     		uxth	r2, r3
 2737 011e FB89     		ldrh	r3, [r7, #14]	@ movhi
 2738 0120 1343     		orrs	r3, r3, r2
 2739 0122 FB81     		strh	r3, [r7, #14]	@ movhi
 778:App/STM32F4-Discovery/Libraries/STM32F4xx_StdPeriph_Driver/src/stm32f4xx_tim.c ****   
 779:App/STM32F4-Discovery/Libraries/STM32F4xx_StdPeriph_Driver/src/stm32f4xx_tim.c ****   /* Set the Output State */
 780:App/STM32F4-Discovery/Libraries/STM32F4xx_StdPeriph_Driver/src/stm32f4xx_tim.c ****   tmpccer |= (uint16_t)(TIM_OCInitStruct->TIM_OutputState << 4);
 2740              		.loc 1 780 0
 2741 0124 3B68     		ldr	r3, [r7]
 2742 0126 5B88     		ldrh	r3, [r3, #2]
 2743 0128 1B01     		lsls	r3, r3, #4
 2744 012a 9AB2     		uxth	r2, r3
 2745 012c FB89     		ldrh	r3, [r7, #14]	@ movhi
 2746 012e 1343     		orrs	r3, r3, r2
 2747 0130 FB81     		strh	r3, [r7, #14]	@ movhi
 781:App/STM32F4-Discovery/Libraries/STM32F4xx_StdPeriph_Driver/src/stm32f4xx_tim.c ****     
 782:App/STM32F4-Discovery/Libraries/STM32F4xx_StdPeriph_Driver/src/stm32f4xx_tim.c ****   if((TIMx == TIM1) || (TIMx == TIM8))
 2748              		.loc 1 782 0
 2749 0132 7A68     		ldr	r2, [r7, #4]
 2750 0134 3C4B     		ldr	r3, .L121
 2751 0136 9A42     		cmp	r2, r3
 2752 0138 03D0     		beq	.L115
 2753              		.loc 1 782 0 is_stmt 0 discriminator 1
 2754 013a 7A68     		ldr	r2, [r7, #4]
 2755 013c 3E4B     		ldr	r3, .L121+16
 2756 013e 9A42     		cmp	r2, r3
 2757 0140 61D1     		bne	.L116
 2758              	.L115:
 783:App/STM32F4-Discovery/Libraries/STM32F4xx_StdPeriph_Driver/src/stm32f4xx_tim.c ****   {
 784:App/STM32F4-Discovery/Libraries/STM32F4xx_StdPeriph_Driver/src/stm32f4xx_tim.c ****     assert_param(IS_TIM_OUTPUTN_STATE(TIM_OCInitStruct->TIM_OutputNState));
 2759              		.loc 1 784 0 is_stmt 1
 2760 0142 3B68     		ldr	r3, [r7]
 2761 0144 9B88     		ldrh	r3, [r3, #4]
 2762 0146 002B     		cmp	r3, #0
 2763 0148 08D0     		beq	.L117
 2764              		.loc 1 784 0 is_stmt 0 discriminator 1
 2765 014a 3B68     		ldr	r3, [r7]
 2766 014c 9B88     		ldrh	r3, [r3, #4]
 2767 014e 042B     		cmp	r3, #4
 2768 0150 04D0     		beq	.L117
 2769 0152 3C48     		ldr	r0, .L121+28
 2770 0154 4FF44471 		mov	r1, #784
 2771 0158 FFF7FEFF 		bl	assert_failed
 2772              	.L117:
 785:App/STM32F4-Discovery/Libraries/STM32F4xx_StdPeriph_Driver/src/stm32f4xx_tim.c ****     assert_param(IS_TIM_OCN_POLARITY(TIM_OCInitStruct->TIM_OCNPolarity));
 2773              		.loc 1 785 0 is_stmt 1
 2774 015c 3B68     		ldr	r3, [r7]
 2775 015e DB89     		ldrh	r3, [r3, #14]
 2776 0160 002B     		cmp	r3, #0
 2777 0162 08D0     		beq	.L118
 2778              		.loc 1 785 0 is_stmt 0 discriminator 1
 2779 0164 3B68     		ldr	r3, [r7]
 2780 0166 DB89     		ldrh	r3, [r3, #14]
 2781 0168 082B     		cmp	r3, #8
 2782 016a 04D0     		beq	.L118
 2783 016c 3548     		ldr	r0, .L121+28
 2784 016e 40F21131 		movw	r1, #785
 2785 0172 FFF7FEFF 		bl	assert_failed
 2786              	.L118:
 786:App/STM32F4-Discovery/Libraries/STM32F4xx_StdPeriph_Driver/src/stm32f4xx_tim.c ****     assert_param(IS_TIM_OCNIDLE_STATE(TIM_OCInitStruct->TIM_OCNIdleState));
 2787              		.loc 1 786 0 is_stmt 1
 2788 0176 3B68     		ldr	r3, [r7]
 2789 0178 5B8A     		ldrh	r3, [r3, #18]
 2790 017a B3F5007F 		cmp	r3, #512
 2791 017e 08D0     		beq	.L119
 2792              		.loc 1 786 0 is_stmt 0 discriminator 1
 2793 0180 3B68     		ldr	r3, [r7]
 2794 0182 5B8A     		ldrh	r3, [r3, #18]
 2795 0184 002B     		cmp	r3, #0
 2796 0186 04D0     		beq	.L119
 2797 0188 2E48     		ldr	r0, .L121+28
 2798 018a 40F21231 		movw	r1, #786
 2799 018e FFF7FEFF 		bl	assert_failed
 2800              	.L119:
 787:App/STM32F4-Discovery/Libraries/STM32F4xx_StdPeriph_Driver/src/stm32f4xx_tim.c ****     assert_param(IS_TIM_OCIDLE_STATE(TIM_OCInitStruct->TIM_OCIdleState));
 2801              		.loc 1 787 0 is_stmt 1
 2802 0192 3B68     		ldr	r3, [r7]
 2803 0194 1B8A     		ldrh	r3, [r3, #16]
 2804 0196 B3F5807F 		cmp	r3, #256
 2805 019a 08D0     		beq	.L120
 2806              		.loc 1 787 0 is_stmt 0 discriminator 1
 2807 019c 3B68     		ldr	r3, [r7]
 2808 019e 1B8A     		ldrh	r3, [r3, #16]
 2809 01a0 002B     		cmp	r3, #0
 2810 01a2 04D0     		beq	.L120
 2811 01a4 2748     		ldr	r0, .L121+28
 2812 01a6 40F21331 		movw	r1, #787
 2813 01aa FFF7FEFF 		bl	assert_failed
 2814              	.L120:
 788:App/STM32F4-Discovery/Libraries/STM32F4xx_StdPeriph_Driver/src/stm32f4xx_tim.c ****     
 789:App/STM32F4-Discovery/Libraries/STM32F4xx_StdPeriph_Driver/src/stm32f4xx_tim.c ****     /* Reset the Output N Polarity level */
 790:App/STM32F4-Discovery/Libraries/STM32F4xx_StdPeriph_Driver/src/stm32f4xx_tim.c ****     tmpccer &= (uint16_t)~TIM_CCER_CC2NP;
 2815              		.loc 1 790 0 is_stmt 1
 2816 01ae FB89     		ldrh	r3, [r7, #14]	@ movhi
 2817 01b0 23F08003 		bic	r3, r3, #128
 2818 01b4 FB81     		strh	r3, [r7, #14]	@ movhi
 791:App/STM32F4-Discovery/Libraries/STM32F4xx_StdPeriph_Driver/src/stm32f4xx_tim.c ****     /* Set the Output N Polarity */
 792:App/STM32F4-Discovery/Libraries/STM32F4xx_StdPeriph_Driver/src/stm32f4xx_tim.c ****     tmpccer |= (uint16_t)(TIM_OCInitStruct->TIM_OCNPolarity << 4);
 2819              		.loc 1 792 0
 2820 01b6 3B68     		ldr	r3, [r7]
 2821 01b8 DB89     		ldrh	r3, [r3, #14]
 2822 01ba 1B01     		lsls	r3, r3, #4
 2823 01bc 9AB2     		uxth	r2, r3
 2824 01be FB89     		ldrh	r3, [r7, #14]	@ movhi
 2825 01c0 1343     		orrs	r3, r3, r2
 2826 01c2 FB81     		strh	r3, [r7, #14]	@ movhi
 793:App/STM32F4-Discovery/Libraries/STM32F4xx_StdPeriph_Driver/src/stm32f4xx_tim.c ****     /* Reset the Output N State */
 794:App/STM32F4-Discovery/Libraries/STM32F4xx_StdPeriph_Driver/src/stm32f4xx_tim.c ****     tmpccer &= (uint16_t)~TIM_CCER_CC2NE;
 2827              		.loc 1 794 0
 2828 01c4 FB89     		ldrh	r3, [r7, #14]	@ movhi
 2829 01c6 23F04003 		bic	r3, r3, #64
 2830 01ca FB81     		strh	r3, [r7, #14]	@ movhi
 795:App/STM32F4-Discovery/Libraries/STM32F4xx_StdPeriph_Driver/src/stm32f4xx_tim.c ****     
 796:App/STM32F4-Discovery/Libraries/STM32F4xx_StdPeriph_Driver/src/stm32f4xx_tim.c ****     /* Set the Output N State */
 797:App/STM32F4-Discovery/Libraries/STM32F4xx_StdPeriph_Driver/src/stm32f4xx_tim.c ****     tmpccer |= (uint16_t)(TIM_OCInitStruct->TIM_OutputNState << 4);
 2831              		.loc 1 797 0
 2832 01cc 3B68     		ldr	r3, [r7]
 2833 01ce 9B88     		ldrh	r3, [r3, #4]
 2834 01d0 1B01     		lsls	r3, r3, #4
 2835 01d2 9AB2     		uxth	r2, r3
 2836 01d4 FB89     		ldrh	r3, [r7, #14]	@ movhi
 2837 01d6 1343     		orrs	r3, r3, r2
 2838 01d8 FB81     		strh	r3, [r7, #14]	@ movhi
 798:App/STM32F4-Discovery/Libraries/STM32F4xx_StdPeriph_Driver/src/stm32f4xx_tim.c ****     /* Reset the Output Compare and Output Compare N IDLE State */
 799:App/STM32F4-Discovery/Libraries/STM32F4xx_StdPeriph_Driver/src/stm32f4xx_tim.c ****     tmpcr2 &= (uint16_t)~TIM_CR2_OIS2;
 2839              		.loc 1 799 0
 2840 01da BB89     		ldrh	r3, [r7, #12]	@ movhi
 2841 01dc 23F48063 		bic	r3, r3, #1024
 2842 01e0 BB81     		strh	r3, [r7, #12]	@ movhi
 800:App/STM32F4-Discovery/Libraries/STM32F4xx_StdPeriph_Driver/src/stm32f4xx_tim.c ****     tmpcr2 &= (uint16_t)~TIM_CR2_OIS2N;
 2843              		.loc 1 800 0
 2844 01e2 BB89     		ldrh	r3, [r7, #12]	@ movhi
 2845 01e4 23F40063 		bic	r3, r3, #2048
 2846 01e8 BB81     		strh	r3, [r7, #12]	@ movhi
 801:App/STM32F4-Discovery/Libraries/STM32F4xx_StdPeriph_Driver/src/stm32f4xx_tim.c ****     /* Set the Output Idle state */
 802:App/STM32F4-Discovery/Libraries/STM32F4xx_StdPeriph_Driver/src/stm32f4xx_tim.c ****     tmpcr2 |= (uint16_t)(TIM_OCInitStruct->TIM_OCIdleState << 2);
 2847              		.loc 1 802 0
 2848 01ea 3B68     		ldr	r3, [r7]
 2849 01ec 1B8A     		ldrh	r3, [r3, #16]
 2850 01ee 9B00     		lsls	r3, r3, #2
 2851 01f0 9AB2     		uxth	r2, r3
 2852 01f2 BB89     		ldrh	r3, [r7, #12]	@ movhi
 2853 01f4 1343     		orrs	r3, r3, r2
 2854 01f6 BB81     		strh	r3, [r7, #12]	@ movhi
 803:App/STM32F4-Discovery/Libraries/STM32F4xx_StdPeriph_Driver/src/stm32f4xx_tim.c ****     /* Set the Output N Idle state */
 804:App/STM32F4-Discovery/Libraries/STM32F4xx_StdPeriph_Driver/src/stm32f4xx_tim.c ****     tmpcr2 |= (uint16_t)(TIM_OCInitStruct->TIM_OCNIdleState << 2);
 2855              		.loc 1 804 0
 2856 01f8 3B68     		ldr	r3, [r7]
 2857 01fa 5B8A     		ldrh	r3, [r3, #18]
 2858 01fc 9B00     		lsls	r3, r3, #2
 2859 01fe 9AB2     		uxth	r2, r3
 2860 0200 BB89     		ldrh	r3, [r7, #12]	@ movhi
 2861 0202 1343     		orrs	r3, r3, r2
 2862 0204 BB81     		strh	r3, [r7, #12]	@ movhi
 2863              	.L116:
 805:App/STM32F4-Discovery/Libraries/STM32F4xx_StdPeriph_Driver/src/stm32f4xx_tim.c ****   }
 806:App/STM32F4-Discovery/Libraries/STM32F4xx_StdPeriph_Driver/src/stm32f4xx_tim.c ****   /* Write to TIMx CR2 */
 807:App/STM32F4-Discovery/Libraries/STM32F4xx_StdPeriph_Driver/src/stm32f4xx_tim.c ****   TIMx->CR2 = tmpcr2;
 2864              		.loc 1 807 0
 2865 0206 7B68     		ldr	r3, [r7, #4]
 2866 0208 BA89     		ldrh	r2, [r7, #12]	@ movhi
 2867 020a 9A80     		strh	r2, [r3, #4]	@ movhi
 808:App/STM32F4-Discovery/Libraries/STM32F4xx_StdPeriph_Driver/src/stm32f4xx_tim.c ****   
 809:App/STM32F4-Discovery/Libraries/STM32F4xx_StdPeriph_Driver/src/stm32f4xx_tim.c ****   /* Write to TIMx CCMR1 */
 810:App/STM32F4-Discovery/Libraries/STM32F4xx_StdPeriph_Driver/src/stm32f4xx_tim.c ****   TIMx->CCMR1 = tmpccmrx;
 2868              		.loc 1 810 0
 2869 020c 7B68     		ldr	r3, [r7, #4]
 2870 020e 7A89     		ldrh	r2, [r7, #10]	@ movhi
 2871 0210 1A83     		strh	r2, [r3, #24]	@ movhi
 811:App/STM32F4-Discovery/Libraries/STM32F4xx_StdPeriph_Driver/src/stm32f4xx_tim.c ****   
 812:App/STM32F4-Discovery/Libraries/STM32F4xx_StdPeriph_Driver/src/stm32f4xx_tim.c ****   /* Set the Capture Compare Register value */
 813:App/STM32F4-Discovery/Libraries/STM32F4xx_StdPeriph_Driver/src/stm32f4xx_tim.c ****   TIMx->CCR2 = TIM_OCInitStruct->TIM_Pulse;
 2872              		.loc 1 813 0
 2873 0212 3B68     		ldr	r3, [r7]
 2874 0214 9A68     		ldr	r2, [r3, #8]
 2875 0216 7B68     		ldr	r3, [r7, #4]
 2876 0218 9A63     		str	r2, [r3, #56]
 814:App/STM32F4-Discovery/Libraries/STM32F4xx_StdPeriph_Driver/src/stm32f4xx_tim.c ****   
 815:App/STM32F4-Discovery/Libraries/STM32F4xx_StdPeriph_Driver/src/stm32f4xx_tim.c ****   /* Write to TIMx CCER */
 816:App/STM32F4-Discovery/Libraries/STM32F4xx_StdPeriph_Driver/src/stm32f4xx_tim.c ****   TIMx->CCER = tmpccer;
 2877              		.loc 1 816 0
 2878 021a 7B68     		ldr	r3, [r7, #4]
 2879 021c FA89     		ldrh	r2, [r7, #14]	@ movhi
 2880 021e 1A84     		strh	r2, [r3, #32]	@ movhi
 817:App/STM32F4-Discovery/Libraries/STM32F4xx_StdPeriph_Driver/src/stm32f4xx_tim.c **** }
 2881              		.loc 1 817 0
 2882 0220 1037     		adds	r7, r7, #16
 2883 0222 BD46     		mov	sp, r7
 2884              		@ sp needed
 2885 0224 80BD     		pop	{r7, pc}
 2886              	.L122:
 2887 0226 00BF     		.align	2
 2888              	.L121:
 2889 0228 00000140 		.word	1073807360
 2890 022c 00040040 		.word	1073742848
 2891 0230 00080040 		.word	1073743872
 2892 0234 000C0040 		.word	1073744896
 2893 0238 00040140 		.word	1073808384
 2894 023c 00400140 		.word	1073823744
 2895 0240 00180040 		.word	1073747968
 2896 0244 00000000 		.word	.LC0
 2897              		.cfi_endproc
 2898              	.LFE126:
 2900              		.section	.text.TIM_OC3Init,"ax",%progbits
 2901              		.align	2
 2902              		.global	TIM_OC3Init
 2903              		.thumb
 2904              		.thumb_func
 2906              	TIM_OC3Init:
 2907              	.LFB127:
 818:App/STM32F4-Discovery/Libraries/STM32F4xx_StdPeriph_Driver/src/stm32f4xx_tim.c **** 
 819:App/STM32F4-Discovery/Libraries/STM32F4xx_StdPeriph_Driver/src/stm32f4xx_tim.c **** /**
 820:App/STM32F4-Discovery/Libraries/STM32F4xx_StdPeriph_Driver/src/stm32f4xx_tim.c ****   * @brief  Initializes the TIMx Channel3 according to the specified parameters
 821:App/STM32F4-Discovery/Libraries/STM32F4xx_StdPeriph_Driver/src/stm32f4xx_tim.c ****   *         in the TIM_OCInitStruct.
 822:App/STM32F4-Discovery/Libraries/STM32F4xx_StdPeriph_Driver/src/stm32f4xx_tim.c ****   * @param  TIMx: where x can be 1, 2, 3, 4, 5 or 8 to select the TIM peripheral.
 823:App/STM32F4-Discovery/Libraries/STM32F4xx_StdPeriph_Driver/src/stm32f4xx_tim.c ****   * @param  TIM_OCInitStruct: pointer to a TIM_OCInitTypeDef structure that contains
 824:App/STM32F4-Discovery/Libraries/STM32F4xx_StdPeriph_Driver/src/stm32f4xx_tim.c ****   *         the configuration information for the specified TIM peripheral.
 825:App/STM32F4-Discovery/Libraries/STM32F4xx_StdPeriph_Driver/src/stm32f4xx_tim.c ****   * @retval None
 826:App/STM32F4-Discovery/Libraries/STM32F4xx_StdPeriph_Driver/src/stm32f4xx_tim.c ****   */
 827:App/STM32F4-Discovery/Libraries/STM32F4xx_StdPeriph_Driver/src/stm32f4xx_tim.c **** void TIM_OC3Init(TIM_TypeDef* TIMx, TIM_OCInitTypeDef* TIM_OCInitStruct)
 828:App/STM32F4-Discovery/Libraries/STM32F4xx_StdPeriph_Driver/src/stm32f4xx_tim.c **** {
 2908              		.loc 1 828 0
 2909              		.cfi_startproc
 2910              		@ args = 0, pretend = 0, frame = 16
 2911              		@ frame_needed = 1, uses_anonymous_args = 0
 2912 0000 80B5     		push	{r7, lr}
 2913              	.LCFI51:
 2914              		.cfi_def_cfa_offset 8
 2915              		.cfi_offset 7, -8
 2916              		.cfi_offset 14, -4
 2917 0002 84B0     		sub	sp, sp, #16
 2918              	.LCFI52:
 2919              		.cfi_def_cfa_offset 24
 2920 0004 00AF     		add	r7, sp, #0
 2921              	.LCFI53:
 2922              		.cfi_def_cfa_register 7
 2923 0006 7860     		str	r0, [r7, #4]
 2924 0008 3960     		str	r1, [r7]
 829:App/STM32F4-Discovery/Libraries/STM32F4xx_StdPeriph_Driver/src/stm32f4xx_tim.c ****   uint16_t tmpccmrx = 0, tmpccer = 0, tmpcr2 = 0;
 2925              		.loc 1 829 0
 2926 000a 0023     		movs	r3, #0
 2927 000c 7B81     		strh	r3, [r7, #10]	@ movhi
 2928 000e 0023     		movs	r3, #0
 2929 0010 FB81     		strh	r3, [r7, #14]	@ movhi
 2930 0012 0023     		movs	r3, #0
 2931 0014 BB81     		strh	r3, [r7, #12]	@ movhi
 830:App/STM32F4-Discovery/Libraries/STM32F4xx_StdPeriph_Driver/src/stm32f4xx_tim.c ****    
 831:App/STM32F4-Discovery/Libraries/STM32F4xx_StdPeriph_Driver/src/stm32f4xx_tim.c ****   /* Check the parameters */
 832:App/STM32F4-Discovery/Libraries/STM32F4xx_StdPeriph_Driver/src/stm32f4xx_tim.c ****   assert_param(IS_TIM_LIST3_PERIPH(TIMx)); 
 2932              		.loc 1 832 0
 2933 0016 7A68     		ldr	r2, [r7, #4]
 2934 0018 7E4B     		ldr	r3, .L134
 2935 001a 9A42     		cmp	r2, r3
 2936 001c 18D0     		beq	.L124
 2937              		.loc 1 832 0 is_stmt 0 discriminator 1
 2938 001e 7B68     		ldr	r3, [r7, #4]
 2939 0020 B3F1804F 		cmp	r3, #1073741824
 2940 0024 14D0     		beq	.L124
 2941 0026 7A68     		ldr	r2, [r7, #4]
 2942 0028 7B4B     		ldr	r3, .L134+4
 2943 002a 9A42     		cmp	r2, r3
 2944 002c 10D0     		beq	.L124
 2945 002e 7A68     		ldr	r2, [r7, #4]
 2946 0030 7A4B     		ldr	r3, .L134+8
 2947 0032 9A42     		cmp	r2, r3
 2948 0034 0CD0     		beq	.L124
 2949 0036 7A68     		ldr	r2, [r7, #4]
 2950 0038 794B     		ldr	r3, .L134+12
 2951 003a 9A42     		cmp	r2, r3
 2952 003c 08D0     		beq	.L124
 2953 003e 7A68     		ldr	r2, [r7, #4]
 2954 0040 784B     		ldr	r3, .L134+16
 2955 0042 9A42     		cmp	r2, r3
 2956 0044 04D0     		beq	.L124
 2957 0046 7848     		ldr	r0, .L134+20
 2958 0048 4FF45071 		mov	r1, #832
 2959 004c FFF7FEFF 		bl	assert_failed
 2960              	.L124:
 833:App/STM32F4-Discovery/Libraries/STM32F4xx_StdPeriph_Driver/src/stm32f4xx_tim.c ****   assert_param(IS_TIM_OC_MODE(TIM_OCInitStruct->TIM_OCMode));
 2961              		.loc 1 833 0 is_stmt 1
 2962 0050 3B68     		ldr	r3, [r7]
 2963 0052 1B88     		ldrh	r3, [r3]
 2964 0054 002B     		cmp	r3, #0
 2965 0056 18D0     		beq	.L125
 2966              		.loc 1 833 0 is_stmt 0 discriminator 1
 2967 0058 3B68     		ldr	r3, [r7]
 2968 005a 1B88     		ldrh	r3, [r3]
 2969 005c 102B     		cmp	r3, #16
 2970 005e 14D0     		beq	.L125
 2971 0060 3B68     		ldr	r3, [r7]
 2972 0062 1B88     		ldrh	r3, [r3]
 2973 0064 202B     		cmp	r3, #32
 2974 0066 10D0     		beq	.L125
 2975 0068 3B68     		ldr	r3, [r7]
 2976 006a 1B88     		ldrh	r3, [r3]
 2977 006c 302B     		cmp	r3, #48
 2978 006e 0CD0     		beq	.L125
 2979 0070 3B68     		ldr	r3, [r7]
 2980 0072 1B88     		ldrh	r3, [r3]
 2981 0074 602B     		cmp	r3, #96
 2982 0076 08D0     		beq	.L125
 2983 0078 3B68     		ldr	r3, [r7]
 2984 007a 1B88     		ldrh	r3, [r3]
 2985 007c 702B     		cmp	r3, #112
 2986 007e 04D0     		beq	.L125
 2987 0080 6948     		ldr	r0, .L134+20
 2988 0082 40F24131 		movw	r1, #833
 2989 0086 FFF7FEFF 		bl	assert_failed
 2990              	.L125:
 834:App/STM32F4-Discovery/Libraries/STM32F4xx_StdPeriph_Driver/src/stm32f4xx_tim.c ****   assert_param(IS_TIM_OUTPUT_STATE(TIM_OCInitStruct->TIM_OutputState));
 2991              		.loc 1 834 0 is_stmt 1
 2992 008a 3B68     		ldr	r3, [r7]
 2993 008c 5B88     		ldrh	r3, [r3, #2]
 2994 008e 002B     		cmp	r3, #0
 2995 0090 08D0     		beq	.L126
 2996              		.loc 1 834 0 is_stmt 0 discriminator 1
 2997 0092 3B68     		ldr	r3, [r7]
 2998 0094 5B88     		ldrh	r3, [r3, #2]
 2999 0096 012B     		cmp	r3, #1
 3000 0098 04D0     		beq	.L126
 3001 009a 6348     		ldr	r0, .L134+20
 3002 009c 40F24231 		movw	r1, #834
 3003 00a0 FFF7FEFF 		bl	assert_failed
 3004              	.L126:
 835:App/STM32F4-Discovery/Libraries/STM32F4xx_StdPeriph_Driver/src/stm32f4xx_tim.c ****   assert_param(IS_TIM_OC_POLARITY(TIM_OCInitStruct->TIM_OCPolarity));   
 3005              		.loc 1 835 0 is_stmt 1
 3006 00a4 3B68     		ldr	r3, [r7]
 3007 00a6 9B89     		ldrh	r3, [r3, #12]
 3008 00a8 002B     		cmp	r3, #0
 3009 00aa 08D0     		beq	.L127
 3010              		.loc 1 835 0 is_stmt 0 discriminator 1
 3011 00ac 3B68     		ldr	r3, [r7]
 3012 00ae 9B89     		ldrh	r3, [r3, #12]
 3013 00b0 022B     		cmp	r3, #2
 3014 00b2 04D0     		beq	.L127
 3015 00b4 5C48     		ldr	r0, .L134+20
 3016 00b6 40F24331 		movw	r1, #835
 3017 00ba FFF7FEFF 		bl	assert_failed
 3018              	.L127:
 836:App/STM32F4-Discovery/Libraries/STM32F4xx_StdPeriph_Driver/src/stm32f4xx_tim.c **** 
 837:App/STM32F4-Discovery/Libraries/STM32F4xx_StdPeriph_Driver/src/stm32f4xx_tim.c ****   /* Disable the Channel 3: Reset the CC2E Bit */
 838:App/STM32F4-Discovery/Libraries/STM32F4xx_StdPeriph_Driver/src/stm32f4xx_tim.c ****   TIMx->CCER &= (uint16_t)~TIM_CCER_CC3E;
 3019              		.loc 1 838 0 is_stmt 1
 3020 00be 7B68     		ldr	r3, [r7, #4]
 3021 00c0 1B8C     		ldrh	r3, [r3, #32]	@ movhi
 3022 00c2 9BB2     		uxth	r3, r3
 3023 00c4 23F48073 		bic	r3, r3, #256
 3024 00c8 9AB2     		uxth	r2, r3
 3025 00ca 7B68     		ldr	r3, [r7, #4]
 3026 00cc 1A84     		strh	r2, [r3, #32]	@ movhi
 839:App/STM32F4-Discovery/Libraries/STM32F4xx_StdPeriph_Driver/src/stm32f4xx_tim.c ****   
 840:App/STM32F4-Discovery/Libraries/STM32F4xx_StdPeriph_Driver/src/stm32f4xx_tim.c ****   /* Get the TIMx CCER register value */
 841:App/STM32F4-Discovery/Libraries/STM32F4xx_StdPeriph_Driver/src/stm32f4xx_tim.c ****   tmpccer = TIMx->CCER;
 3027              		.loc 1 841 0
 3028 00ce 7B68     		ldr	r3, [r7, #4]
 3029 00d0 1B8C     		ldrh	r3, [r3, #32]	@ movhi
 3030 00d2 FB81     		strh	r3, [r7, #14]	@ movhi
 842:App/STM32F4-Discovery/Libraries/STM32F4xx_StdPeriph_Driver/src/stm32f4xx_tim.c ****   /* Get the TIMx CR2 register value */
 843:App/STM32F4-Discovery/Libraries/STM32F4xx_StdPeriph_Driver/src/stm32f4xx_tim.c ****   tmpcr2 =  TIMx->CR2;
 3031              		.loc 1 843 0
 3032 00d4 7B68     		ldr	r3, [r7, #4]
 3033 00d6 9B88     		ldrh	r3, [r3, #4]	@ movhi
 3034 00d8 BB81     		strh	r3, [r7, #12]	@ movhi
 844:App/STM32F4-Discovery/Libraries/STM32F4xx_StdPeriph_Driver/src/stm32f4xx_tim.c ****   
 845:App/STM32F4-Discovery/Libraries/STM32F4xx_StdPeriph_Driver/src/stm32f4xx_tim.c ****   /* Get the TIMx CCMR2 register value */
 846:App/STM32F4-Discovery/Libraries/STM32F4xx_StdPeriph_Driver/src/stm32f4xx_tim.c ****   tmpccmrx = TIMx->CCMR2;
 3035              		.loc 1 846 0
 3036 00da 7B68     		ldr	r3, [r7, #4]
 3037 00dc 9B8B     		ldrh	r3, [r3, #28]	@ movhi
 3038 00de 7B81     		strh	r3, [r7, #10]	@ movhi
 847:App/STM32F4-Discovery/Libraries/STM32F4xx_StdPeriph_Driver/src/stm32f4xx_tim.c ****     
 848:App/STM32F4-Discovery/Libraries/STM32F4xx_StdPeriph_Driver/src/stm32f4xx_tim.c ****   /* Reset the Output Compare mode and Capture/Compare selection Bits */
 849:App/STM32F4-Discovery/Libraries/STM32F4xx_StdPeriph_Driver/src/stm32f4xx_tim.c ****   tmpccmrx &= (uint16_t)~TIM_CCMR2_OC3M;
 3039              		.loc 1 849 0
 3040 00e0 7B89     		ldrh	r3, [r7, #10]	@ movhi
 3041 00e2 23F07003 		bic	r3, r3, #112
 3042 00e6 7B81     		strh	r3, [r7, #10]	@ movhi
 850:App/STM32F4-Discovery/Libraries/STM32F4xx_StdPeriph_Driver/src/stm32f4xx_tim.c ****   tmpccmrx &= (uint16_t)~TIM_CCMR2_CC3S;  
 3043              		.loc 1 850 0
 3044 00e8 7B89     		ldrh	r3, [r7, #10]	@ movhi
 3045 00ea 23F00303 		bic	r3, r3, #3
 3046 00ee 7B81     		strh	r3, [r7, #10]	@ movhi
 851:App/STM32F4-Discovery/Libraries/STM32F4xx_StdPeriph_Driver/src/stm32f4xx_tim.c ****   /* Select the Output Compare Mode */
 852:App/STM32F4-Discovery/Libraries/STM32F4xx_StdPeriph_Driver/src/stm32f4xx_tim.c ****   tmpccmrx |= TIM_OCInitStruct->TIM_OCMode;
 3047              		.loc 1 852 0
 3048 00f0 3B68     		ldr	r3, [r7]
 3049 00f2 1A88     		ldrh	r2, [r3]
 3050 00f4 7B89     		ldrh	r3, [r7, #10]	@ movhi
 3051 00f6 1343     		orrs	r3, r3, r2
 3052 00f8 7B81     		strh	r3, [r7, #10]	@ movhi
 853:App/STM32F4-Discovery/Libraries/STM32F4xx_StdPeriph_Driver/src/stm32f4xx_tim.c ****   
 854:App/STM32F4-Discovery/Libraries/STM32F4xx_StdPeriph_Driver/src/stm32f4xx_tim.c ****   /* Reset the Output Polarity level */
 855:App/STM32F4-Discovery/Libraries/STM32F4xx_StdPeriph_Driver/src/stm32f4xx_tim.c ****   tmpccer &= (uint16_t)~TIM_CCER_CC3P;
 3053              		.loc 1 855 0
 3054 00fa FB89     		ldrh	r3, [r7, #14]	@ movhi
 3055 00fc 23F40073 		bic	r3, r3, #512
 3056 0100 FB81     		strh	r3, [r7, #14]	@ movhi
 856:App/STM32F4-Discovery/Libraries/STM32F4xx_StdPeriph_Driver/src/stm32f4xx_tim.c ****   /* Set the Output Compare Polarity */
 857:App/STM32F4-Discovery/Libraries/STM32F4xx_StdPeriph_Driver/src/stm32f4xx_tim.c ****   tmpccer |= (uint16_t)(TIM_OCInitStruct->TIM_OCPolarity << 8);
 3057              		.loc 1 857 0
 3058 0102 3B68     		ldr	r3, [r7]
 3059 0104 9B89     		ldrh	r3, [r3, #12]
 3060 0106 1B02     		lsls	r3, r3, #8
 3061 0108 9AB2     		uxth	r2, r3
 3062 010a FB89     		ldrh	r3, [r7, #14]	@ movhi
 3063 010c 1343     		orrs	r3, r3, r2
 3064 010e FB81     		strh	r3, [r7, #14]	@ movhi
 858:App/STM32F4-Discovery/Libraries/STM32F4xx_StdPeriph_Driver/src/stm32f4xx_tim.c ****   
 859:App/STM32F4-Discovery/Libraries/STM32F4xx_StdPeriph_Driver/src/stm32f4xx_tim.c ****   /* Set the Output State */
 860:App/STM32F4-Discovery/Libraries/STM32F4xx_StdPeriph_Driver/src/stm32f4xx_tim.c ****   tmpccer |= (uint16_t)(TIM_OCInitStruct->TIM_OutputState << 8);
 3065              		.loc 1 860 0
 3066 0110 3B68     		ldr	r3, [r7]
 3067 0112 5B88     		ldrh	r3, [r3, #2]
 3068 0114 1B02     		lsls	r3, r3, #8
 3069 0116 9AB2     		uxth	r2, r3
 3070 0118 FB89     		ldrh	r3, [r7, #14]	@ movhi
 3071 011a 1343     		orrs	r3, r3, r2
 3072 011c FB81     		strh	r3, [r7, #14]	@ movhi
 861:App/STM32F4-Discovery/Libraries/STM32F4xx_StdPeriph_Driver/src/stm32f4xx_tim.c ****     
 862:App/STM32F4-Discovery/Libraries/STM32F4xx_StdPeriph_Driver/src/stm32f4xx_tim.c ****   if((TIMx == TIM1) || (TIMx == TIM8))
 3073              		.loc 1 862 0
 3074 011e 7A68     		ldr	r2, [r7, #4]
 3075 0120 3C4B     		ldr	r3, .L134
 3076 0122 9A42     		cmp	r2, r3
 3077 0124 03D0     		beq	.L128
 3078              		.loc 1 862 0 is_stmt 0 discriminator 1
 3079 0126 7A68     		ldr	r2, [r7, #4]
 3080 0128 3E4B     		ldr	r3, .L134+16
 3081 012a 9A42     		cmp	r2, r3
 3082 012c 61D1     		bne	.L129
 3083              	.L128:
 863:App/STM32F4-Discovery/Libraries/STM32F4xx_StdPeriph_Driver/src/stm32f4xx_tim.c ****   {
 864:App/STM32F4-Discovery/Libraries/STM32F4xx_StdPeriph_Driver/src/stm32f4xx_tim.c ****     assert_param(IS_TIM_OUTPUTN_STATE(TIM_OCInitStruct->TIM_OutputNState));
 3084              		.loc 1 864 0 is_stmt 1
 3085 012e 3B68     		ldr	r3, [r7]
 3086 0130 9B88     		ldrh	r3, [r3, #4]
 3087 0132 002B     		cmp	r3, #0
 3088 0134 08D0     		beq	.L130
 3089              		.loc 1 864 0 is_stmt 0 discriminator 1
 3090 0136 3B68     		ldr	r3, [r7]
 3091 0138 9B88     		ldrh	r3, [r3, #4]
 3092 013a 042B     		cmp	r3, #4
 3093 013c 04D0     		beq	.L130
 3094 013e 3A48     		ldr	r0, .L134+20
 3095 0140 4FF45871 		mov	r1, #864
 3096 0144 FFF7FEFF 		bl	assert_failed
 3097              	.L130:
 865:App/STM32F4-Discovery/Libraries/STM32F4xx_StdPeriph_Driver/src/stm32f4xx_tim.c ****     assert_param(IS_TIM_OCN_POLARITY(TIM_OCInitStruct->TIM_OCNPolarity));
 3098              		.loc 1 865 0 is_stmt 1
 3099 0148 3B68     		ldr	r3, [r7]
 3100 014a DB89     		ldrh	r3, [r3, #14]
 3101 014c 002B     		cmp	r3, #0
 3102 014e 08D0     		beq	.L131
 3103              		.loc 1 865 0 is_stmt 0 discriminator 1
 3104 0150 3B68     		ldr	r3, [r7]
 3105 0152 DB89     		ldrh	r3, [r3, #14]
 3106 0154 082B     		cmp	r3, #8
 3107 0156 04D0     		beq	.L131
 3108 0158 3348     		ldr	r0, .L134+20
 3109 015a 40F26131 		movw	r1, #865
 3110 015e FFF7FEFF 		bl	assert_failed
 3111              	.L131:
 866:App/STM32F4-Discovery/Libraries/STM32F4xx_StdPeriph_Driver/src/stm32f4xx_tim.c ****     assert_param(IS_TIM_OCNIDLE_STATE(TIM_OCInitStruct->TIM_OCNIdleState));
 3112              		.loc 1 866 0 is_stmt 1
 3113 0162 3B68     		ldr	r3, [r7]
 3114 0164 5B8A     		ldrh	r3, [r3, #18]
 3115 0166 B3F5007F 		cmp	r3, #512
 3116 016a 08D0     		beq	.L132
 3117              		.loc 1 866 0 is_stmt 0 discriminator 1
 3118 016c 3B68     		ldr	r3, [r7]
 3119 016e 5B8A     		ldrh	r3, [r3, #18]
 3120 0170 002B     		cmp	r3, #0
 3121 0172 04D0     		beq	.L132
 3122 0174 2C48     		ldr	r0, .L134+20
 3123 0176 40F26231 		movw	r1, #866
 3124 017a FFF7FEFF 		bl	assert_failed
 3125              	.L132:
 867:App/STM32F4-Discovery/Libraries/STM32F4xx_StdPeriph_Driver/src/stm32f4xx_tim.c ****     assert_param(IS_TIM_OCIDLE_STATE(TIM_OCInitStruct->TIM_OCIdleState));
 3126              		.loc 1 867 0 is_stmt 1
 3127 017e 3B68     		ldr	r3, [r7]
 3128 0180 1B8A     		ldrh	r3, [r3, #16]
 3129 0182 B3F5807F 		cmp	r3, #256
 3130 0186 08D0     		beq	.L133
 3131              		.loc 1 867 0 is_stmt 0 discriminator 1
 3132 0188 3B68     		ldr	r3, [r7]
 3133 018a 1B8A     		ldrh	r3, [r3, #16]
 3134 018c 002B     		cmp	r3, #0
 3135 018e 04D0     		beq	.L133
 3136 0190 2548     		ldr	r0, .L134+20
 3137 0192 40F26331 		movw	r1, #867
 3138 0196 FFF7FEFF 		bl	assert_failed
 3139              	.L133:
 868:App/STM32F4-Discovery/Libraries/STM32F4xx_StdPeriph_Driver/src/stm32f4xx_tim.c ****     
 869:App/STM32F4-Discovery/Libraries/STM32F4xx_StdPeriph_Driver/src/stm32f4xx_tim.c ****     /* Reset the Output N Polarity level */
 870:App/STM32F4-Discovery/Libraries/STM32F4xx_StdPeriph_Driver/src/stm32f4xx_tim.c ****     tmpccer &= (uint16_t)~TIM_CCER_CC3NP;
 3140              		.loc 1 870 0 is_stmt 1
 3141 019a FB89     		ldrh	r3, [r7, #14]	@ movhi
 3142 019c 23F40063 		bic	r3, r3, #2048
 3143 01a0 FB81     		strh	r3, [r7, #14]	@ movhi
 871:App/STM32F4-Discovery/Libraries/STM32F4xx_StdPeriph_Driver/src/stm32f4xx_tim.c ****     /* Set the Output N Polarity */
 872:App/STM32F4-Discovery/Libraries/STM32F4xx_StdPeriph_Driver/src/stm32f4xx_tim.c ****     tmpccer |= (uint16_t)(TIM_OCInitStruct->TIM_OCNPolarity << 8);
 3144              		.loc 1 872 0
 3145 01a2 3B68     		ldr	r3, [r7]
 3146 01a4 DB89     		ldrh	r3, [r3, #14]
 3147 01a6 1B02     		lsls	r3, r3, #8
 3148 01a8 9AB2     		uxth	r2, r3
 3149 01aa FB89     		ldrh	r3, [r7, #14]	@ movhi
 3150 01ac 1343     		orrs	r3, r3, r2
 3151 01ae FB81     		strh	r3, [r7, #14]	@ movhi
 873:App/STM32F4-Discovery/Libraries/STM32F4xx_StdPeriph_Driver/src/stm32f4xx_tim.c ****     /* Reset the Output N State */
 874:App/STM32F4-Discovery/Libraries/STM32F4xx_StdPeriph_Driver/src/stm32f4xx_tim.c ****     tmpccer &= (uint16_t)~TIM_CCER_CC3NE;
 3152              		.loc 1 874 0
 3153 01b0 FB89     		ldrh	r3, [r7, #14]	@ movhi
 3154 01b2 23F48063 		bic	r3, r3, #1024
 3155 01b6 FB81     		strh	r3, [r7, #14]	@ movhi
 875:App/STM32F4-Discovery/Libraries/STM32F4xx_StdPeriph_Driver/src/stm32f4xx_tim.c ****     
 876:App/STM32F4-Discovery/Libraries/STM32F4xx_StdPeriph_Driver/src/stm32f4xx_tim.c ****     /* Set the Output N State */
 877:App/STM32F4-Discovery/Libraries/STM32F4xx_StdPeriph_Driver/src/stm32f4xx_tim.c ****     tmpccer |= (uint16_t)(TIM_OCInitStruct->TIM_OutputNState << 8);
 3156              		.loc 1 877 0
 3157 01b8 3B68     		ldr	r3, [r7]
 3158 01ba 9B88     		ldrh	r3, [r3, #4]
 3159 01bc 1B02     		lsls	r3, r3, #8
 3160 01be 9AB2     		uxth	r2, r3
 3161 01c0 FB89     		ldrh	r3, [r7, #14]	@ movhi
 3162 01c2 1343     		orrs	r3, r3, r2
 3163 01c4 FB81     		strh	r3, [r7, #14]	@ movhi
 878:App/STM32F4-Discovery/Libraries/STM32F4xx_StdPeriph_Driver/src/stm32f4xx_tim.c ****     /* Reset the Output Compare and Output Compare N IDLE State */
 879:App/STM32F4-Discovery/Libraries/STM32F4xx_StdPeriph_Driver/src/stm32f4xx_tim.c ****     tmpcr2 &= (uint16_t)~TIM_CR2_OIS3;
 3164              		.loc 1 879 0
 3165 01c6 BB89     		ldrh	r3, [r7, #12]	@ movhi
 3166 01c8 23F48053 		bic	r3, r3, #4096
 3167 01cc BB81     		strh	r3, [r7, #12]	@ movhi
 880:App/STM32F4-Discovery/Libraries/STM32F4xx_StdPeriph_Driver/src/stm32f4xx_tim.c ****     tmpcr2 &= (uint16_t)~TIM_CR2_OIS3N;
 3168              		.loc 1 880 0
 3169 01ce BB89     		ldrh	r3, [r7, #12]	@ movhi
 3170 01d0 23F40053 		bic	r3, r3, #8192
 3171 01d4 BB81     		strh	r3, [r7, #12]	@ movhi
 881:App/STM32F4-Discovery/Libraries/STM32F4xx_StdPeriph_Driver/src/stm32f4xx_tim.c ****     /* Set the Output Idle state */
 882:App/STM32F4-Discovery/Libraries/STM32F4xx_StdPeriph_Driver/src/stm32f4xx_tim.c ****     tmpcr2 |= (uint16_t)(TIM_OCInitStruct->TIM_OCIdleState << 4);
 3172              		.loc 1 882 0
 3173 01d6 3B68     		ldr	r3, [r7]
 3174 01d8 1B8A     		ldrh	r3, [r3, #16]
 3175 01da 1B01     		lsls	r3, r3, #4
 3176 01dc 9AB2     		uxth	r2, r3
 3177 01de BB89     		ldrh	r3, [r7, #12]	@ movhi
 3178 01e0 1343     		orrs	r3, r3, r2
 3179 01e2 BB81     		strh	r3, [r7, #12]	@ movhi
 883:App/STM32F4-Discovery/Libraries/STM32F4xx_StdPeriph_Driver/src/stm32f4xx_tim.c ****     /* Set the Output N Idle state */
 884:App/STM32F4-Discovery/Libraries/STM32F4xx_StdPeriph_Driver/src/stm32f4xx_tim.c ****     tmpcr2 |= (uint16_t)(TIM_OCInitStruct->TIM_OCNIdleState << 4);
 3180              		.loc 1 884 0
 3181 01e4 3B68     		ldr	r3, [r7]
 3182 01e6 5B8A     		ldrh	r3, [r3, #18]
 3183 01e8 1B01     		lsls	r3, r3, #4
 3184 01ea 9AB2     		uxth	r2, r3
 3185 01ec BB89     		ldrh	r3, [r7, #12]	@ movhi
 3186 01ee 1343     		orrs	r3, r3, r2
 3187 01f0 BB81     		strh	r3, [r7, #12]	@ movhi
 3188              	.L129:
 885:App/STM32F4-Discovery/Libraries/STM32F4xx_StdPeriph_Driver/src/stm32f4xx_tim.c ****   }
 886:App/STM32F4-Discovery/Libraries/STM32F4xx_StdPeriph_Driver/src/stm32f4xx_tim.c ****   /* Write to TIMx CR2 */
 887:App/STM32F4-Discovery/Libraries/STM32F4xx_StdPeriph_Driver/src/stm32f4xx_tim.c ****   TIMx->CR2 = tmpcr2;
 3189              		.loc 1 887 0
 3190 01f2 7B68     		ldr	r3, [r7, #4]
 3191 01f4 BA89     		ldrh	r2, [r7, #12]	@ movhi
 3192 01f6 9A80     		strh	r2, [r3, #4]	@ movhi
 888:App/STM32F4-Discovery/Libraries/STM32F4xx_StdPeriph_Driver/src/stm32f4xx_tim.c ****   
 889:App/STM32F4-Discovery/Libraries/STM32F4xx_StdPeriph_Driver/src/stm32f4xx_tim.c ****   /* Write to TIMx CCMR2 */
 890:App/STM32F4-Discovery/Libraries/STM32F4xx_StdPeriph_Driver/src/stm32f4xx_tim.c ****   TIMx->CCMR2 = tmpccmrx;
 3193              		.loc 1 890 0
 3194 01f8 7B68     		ldr	r3, [r7, #4]
 3195 01fa 7A89     		ldrh	r2, [r7, #10]	@ movhi
 3196 01fc 9A83     		strh	r2, [r3, #28]	@ movhi
 891:App/STM32F4-Discovery/Libraries/STM32F4xx_StdPeriph_Driver/src/stm32f4xx_tim.c ****   
 892:App/STM32F4-Discovery/Libraries/STM32F4xx_StdPeriph_Driver/src/stm32f4xx_tim.c ****   /* Set the Capture Compare Register value */
 893:App/STM32F4-Discovery/Libraries/STM32F4xx_StdPeriph_Driver/src/stm32f4xx_tim.c ****   TIMx->CCR3 = TIM_OCInitStruct->TIM_Pulse;
 3197              		.loc 1 893 0
 3198 01fe 3B68     		ldr	r3, [r7]
 3199 0200 9A68     		ldr	r2, [r3, #8]
 3200 0202 7B68     		ldr	r3, [r7, #4]
 3201 0204 DA63     		str	r2, [r3, #60]
 894:App/STM32F4-Discovery/Libraries/STM32F4xx_StdPeriph_Driver/src/stm32f4xx_tim.c ****   
 895:App/STM32F4-Discovery/Libraries/STM32F4xx_StdPeriph_Driver/src/stm32f4xx_tim.c ****   /* Write to TIMx CCER */
 896:App/STM32F4-Discovery/Libraries/STM32F4xx_StdPeriph_Driver/src/stm32f4xx_tim.c ****   TIMx->CCER = tmpccer;
 3202              		.loc 1 896 0
 3203 0206 7B68     		ldr	r3, [r7, #4]
 3204 0208 FA89     		ldrh	r2, [r7, #14]	@ movhi
 3205 020a 1A84     		strh	r2, [r3, #32]	@ movhi
 897:App/STM32F4-Discovery/Libraries/STM32F4xx_StdPeriph_Driver/src/stm32f4xx_tim.c **** }
 3206              		.loc 1 897 0
 3207 020c 1037     		adds	r7, r7, #16
 3208 020e BD46     		mov	sp, r7
 3209              		@ sp needed
 3210 0210 80BD     		pop	{r7, pc}
 3211              	.L135:
 3212 0212 00BF     		.align	2
 3213              	.L134:
 3214 0214 00000140 		.word	1073807360
 3215 0218 00040040 		.word	1073742848
 3216 021c 00080040 		.word	1073743872
 3217 0220 000C0040 		.word	1073744896
 3218 0224 00040140 		.word	1073808384
 3219 0228 00000000 		.word	.LC0
 3220              		.cfi_endproc
 3221              	.LFE127:
 3223              		.section	.text.TIM_OC4Init,"ax",%progbits
 3224              		.align	2
 3225              		.global	TIM_OC4Init
 3226              		.thumb
 3227              		.thumb_func
 3229              	TIM_OC4Init:
 3230              	.LFB128:
 898:App/STM32F4-Discovery/Libraries/STM32F4xx_StdPeriph_Driver/src/stm32f4xx_tim.c **** 
 899:App/STM32F4-Discovery/Libraries/STM32F4xx_StdPeriph_Driver/src/stm32f4xx_tim.c **** /**
 900:App/STM32F4-Discovery/Libraries/STM32F4xx_StdPeriph_Driver/src/stm32f4xx_tim.c ****   * @brief  Initializes the TIMx Channel4 according to the specified parameters
 901:App/STM32F4-Discovery/Libraries/STM32F4xx_StdPeriph_Driver/src/stm32f4xx_tim.c ****   *         in the TIM_OCInitStruct.
 902:App/STM32F4-Discovery/Libraries/STM32F4xx_StdPeriph_Driver/src/stm32f4xx_tim.c ****   * @param  TIMx: where x can be 1, 2, 3, 4, 5 or 8 to select the TIM peripheral.
 903:App/STM32F4-Discovery/Libraries/STM32F4xx_StdPeriph_Driver/src/stm32f4xx_tim.c ****   * @param  TIM_OCInitStruct: pointer to a TIM_OCInitTypeDef structure that contains
 904:App/STM32F4-Discovery/Libraries/STM32F4xx_StdPeriph_Driver/src/stm32f4xx_tim.c ****   *         the configuration information for the specified TIM peripheral.
 905:App/STM32F4-Discovery/Libraries/STM32F4xx_StdPeriph_Driver/src/stm32f4xx_tim.c ****   * @retval None
 906:App/STM32F4-Discovery/Libraries/STM32F4xx_StdPeriph_Driver/src/stm32f4xx_tim.c ****   */
 907:App/STM32F4-Discovery/Libraries/STM32F4xx_StdPeriph_Driver/src/stm32f4xx_tim.c **** void TIM_OC4Init(TIM_TypeDef* TIMx, TIM_OCInitTypeDef* TIM_OCInitStruct)
 908:App/STM32F4-Discovery/Libraries/STM32F4xx_StdPeriph_Driver/src/stm32f4xx_tim.c **** {
 3231              		.loc 1 908 0
 3232              		.cfi_startproc
 3233              		@ args = 0, pretend = 0, frame = 16
 3234              		@ frame_needed = 1, uses_anonymous_args = 0
 3235 0000 80B5     		push	{r7, lr}
 3236              	.LCFI54:
 3237              		.cfi_def_cfa_offset 8
 3238              		.cfi_offset 7, -8
 3239              		.cfi_offset 14, -4
 3240 0002 84B0     		sub	sp, sp, #16
 3241              	.LCFI55:
 3242              		.cfi_def_cfa_offset 24
 3243 0004 00AF     		add	r7, sp, #0
 3244              	.LCFI56:
 3245              		.cfi_def_cfa_register 7
 3246 0006 7860     		str	r0, [r7, #4]
 3247 0008 3960     		str	r1, [r7]
 909:App/STM32F4-Discovery/Libraries/STM32F4xx_StdPeriph_Driver/src/stm32f4xx_tim.c ****   uint16_t tmpccmrx = 0, tmpccer = 0, tmpcr2 = 0;
 3248              		.loc 1 909 0
 3249 000a 0023     		movs	r3, #0
 3250 000c BB81     		strh	r3, [r7, #12]	@ movhi
 3251 000e 0023     		movs	r3, #0
 3252 0010 7B81     		strh	r3, [r7, #10]	@ movhi
 3253 0012 0023     		movs	r3, #0
 3254 0014 FB81     		strh	r3, [r7, #14]	@ movhi
 910:App/STM32F4-Discovery/Libraries/STM32F4xx_StdPeriph_Driver/src/stm32f4xx_tim.c ****    
 911:App/STM32F4-Discovery/Libraries/STM32F4xx_StdPeriph_Driver/src/stm32f4xx_tim.c ****   /* Check the parameters */
 912:App/STM32F4-Discovery/Libraries/STM32F4xx_StdPeriph_Driver/src/stm32f4xx_tim.c ****   assert_param(IS_TIM_LIST3_PERIPH(TIMx)); 
 3255              		.loc 1 912 0
 3256 0016 7A68     		ldr	r2, [r7, #4]
 3257 0018 5A4B     		ldr	r3, .L144
 3258 001a 9A42     		cmp	r2, r3
 3259 001c 18D0     		beq	.L137
 3260              		.loc 1 912 0 is_stmt 0 discriminator 1
 3261 001e 7B68     		ldr	r3, [r7, #4]
 3262 0020 B3F1804F 		cmp	r3, #1073741824
 3263 0024 14D0     		beq	.L137
 3264 0026 7A68     		ldr	r2, [r7, #4]
 3265 0028 574B     		ldr	r3, .L144+4
 3266 002a 9A42     		cmp	r2, r3
 3267 002c 10D0     		beq	.L137
 3268 002e 7A68     		ldr	r2, [r7, #4]
 3269 0030 564B     		ldr	r3, .L144+8
 3270 0032 9A42     		cmp	r2, r3
 3271 0034 0CD0     		beq	.L137
 3272 0036 7A68     		ldr	r2, [r7, #4]
 3273 0038 554B     		ldr	r3, .L144+12
 3274 003a 9A42     		cmp	r2, r3
 3275 003c 08D0     		beq	.L137
 3276 003e 7A68     		ldr	r2, [r7, #4]
 3277 0040 544B     		ldr	r3, .L144+16
 3278 0042 9A42     		cmp	r2, r3
 3279 0044 04D0     		beq	.L137
 3280 0046 5448     		ldr	r0, .L144+20
 3281 0048 4FF46471 		mov	r1, #912
 3282 004c FFF7FEFF 		bl	assert_failed
 3283              	.L137:
 913:App/STM32F4-Discovery/Libraries/STM32F4xx_StdPeriph_Driver/src/stm32f4xx_tim.c ****   assert_param(IS_TIM_OC_MODE(TIM_OCInitStruct->TIM_OCMode));
 3284              		.loc 1 913 0 is_stmt 1
 3285 0050 3B68     		ldr	r3, [r7]
 3286 0052 1B88     		ldrh	r3, [r3]
 3287 0054 002B     		cmp	r3, #0
 3288 0056 18D0     		beq	.L138
 3289              		.loc 1 913 0 is_stmt 0 discriminator 1
 3290 0058 3B68     		ldr	r3, [r7]
 3291 005a 1B88     		ldrh	r3, [r3]
 3292 005c 102B     		cmp	r3, #16
 3293 005e 14D0     		beq	.L138
 3294 0060 3B68     		ldr	r3, [r7]
 3295 0062 1B88     		ldrh	r3, [r3]
 3296 0064 202B     		cmp	r3, #32
 3297 0066 10D0     		beq	.L138
 3298 0068 3B68     		ldr	r3, [r7]
 3299 006a 1B88     		ldrh	r3, [r3]
 3300 006c 302B     		cmp	r3, #48
 3301 006e 0CD0     		beq	.L138
 3302 0070 3B68     		ldr	r3, [r7]
 3303 0072 1B88     		ldrh	r3, [r3]
 3304 0074 602B     		cmp	r3, #96
 3305 0076 08D0     		beq	.L138
 3306 0078 3B68     		ldr	r3, [r7]
 3307 007a 1B88     		ldrh	r3, [r3]
 3308 007c 702B     		cmp	r3, #112
 3309 007e 04D0     		beq	.L138
 3310 0080 4548     		ldr	r0, .L144+20
 3311 0082 40F29131 		movw	r1, #913
 3312 0086 FFF7FEFF 		bl	assert_failed
 3313              	.L138:
 914:App/STM32F4-Discovery/Libraries/STM32F4xx_StdPeriph_Driver/src/stm32f4xx_tim.c ****   assert_param(IS_TIM_OUTPUT_STATE(TIM_OCInitStruct->TIM_OutputState));
 3314              		.loc 1 914 0 is_stmt 1
 3315 008a 3B68     		ldr	r3, [r7]
 3316 008c 5B88     		ldrh	r3, [r3, #2]
 3317 008e 002B     		cmp	r3, #0
 3318 0090 08D0     		beq	.L139
 3319              		.loc 1 914 0 is_stmt 0 discriminator 1
 3320 0092 3B68     		ldr	r3, [r7]
 3321 0094 5B88     		ldrh	r3, [r3, #2]
 3322 0096 012B     		cmp	r3, #1
 3323 0098 04D0     		beq	.L139
 3324 009a 3F48     		ldr	r0, .L144+20
 3325 009c 40F29231 		movw	r1, #914
 3326 00a0 FFF7FEFF 		bl	assert_failed
 3327              	.L139:
 915:App/STM32F4-Discovery/Libraries/STM32F4xx_StdPeriph_Driver/src/stm32f4xx_tim.c ****   assert_param(IS_TIM_OC_POLARITY(TIM_OCInitStruct->TIM_OCPolarity));   
 3328              		.loc 1 915 0 is_stmt 1
 3329 00a4 3B68     		ldr	r3, [r7]
 3330 00a6 9B89     		ldrh	r3, [r3, #12]
 3331 00a8 002B     		cmp	r3, #0
 3332 00aa 08D0     		beq	.L140
 3333              		.loc 1 915 0 is_stmt 0 discriminator 1
 3334 00ac 3B68     		ldr	r3, [r7]
 3335 00ae 9B89     		ldrh	r3, [r3, #12]
 3336 00b0 022B     		cmp	r3, #2
 3337 00b2 04D0     		beq	.L140
 3338 00b4 3848     		ldr	r0, .L144+20
 3339 00b6 40F29331 		movw	r1, #915
 3340 00ba FFF7FEFF 		bl	assert_failed
 3341              	.L140:
 916:App/STM32F4-Discovery/Libraries/STM32F4xx_StdPeriph_Driver/src/stm32f4xx_tim.c **** 
 917:App/STM32F4-Discovery/Libraries/STM32F4xx_StdPeriph_Driver/src/stm32f4xx_tim.c ****   /* Disable the Channel 4: Reset the CC4E Bit */
 918:App/STM32F4-Discovery/Libraries/STM32F4xx_StdPeriph_Driver/src/stm32f4xx_tim.c ****   TIMx->CCER &= (uint16_t)~TIM_CCER_CC4E;
 3342              		.loc 1 918 0 is_stmt 1
 3343 00be 7B68     		ldr	r3, [r7, #4]
 3344 00c0 1B8C     		ldrh	r3, [r3, #32]	@ movhi
 3345 00c2 9BB2     		uxth	r3, r3
 3346 00c4 23F48053 		bic	r3, r3, #4096
 3347 00c8 9AB2     		uxth	r2, r3
 3348 00ca 7B68     		ldr	r3, [r7, #4]
 3349 00cc 1A84     		strh	r2, [r3, #32]	@ movhi
 919:App/STM32F4-Discovery/Libraries/STM32F4xx_StdPeriph_Driver/src/stm32f4xx_tim.c ****   
 920:App/STM32F4-Discovery/Libraries/STM32F4xx_StdPeriph_Driver/src/stm32f4xx_tim.c ****   /* Get the TIMx CCER register value */
 921:App/STM32F4-Discovery/Libraries/STM32F4xx_StdPeriph_Driver/src/stm32f4xx_tim.c ****   tmpccer = TIMx->CCER;
 3350              		.loc 1 921 0
 3351 00ce 7B68     		ldr	r3, [r7, #4]
 3352 00d0 1B8C     		ldrh	r3, [r3, #32]	@ movhi
 3353 00d2 7B81     		strh	r3, [r7, #10]	@ movhi
 922:App/STM32F4-Discovery/Libraries/STM32F4xx_StdPeriph_Driver/src/stm32f4xx_tim.c ****   /* Get the TIMx CR2 register value */
 923:App/STM32F4-Discovery/Libraries/STM32F4xx_StdPeriph_Driver/src/stm32f4xx_tim.c ****   tmpcr2 =  TIMx->CR2;
 3354              		.loc 1 923 0
 3355 00d4 7B68     		ldr	r3, [r7, #4]
 3356 00d6 9B88     		ldrh	r3, [r3, #4]	@ movhi
 3357 00d8 FB81     		strh	r3, [r7, #14]	@ movhi
 924:App/STM32F4-Discovery/Libraries/STM32F4xx_StdPeriph_Driver/src/stm32f4xx_tim.c ****   
 925:App/STM32F4-Discovery/Libraries/STM32F4xx_StdPeriph_Driver/src/stm32f4xx_tim.c ****   /* Get the TIMx CCMR2 register value */
 926:App/STM32F4-Discovery/Libraries/STM32F4xx_StdPeriph_Driver/src/stm32f4xx_tim.c ****   tmpccmrx = TIMx->CCMR2;
 3358              		.loc 1 926 0
 3359 00da 7B68     		ldr	r3, [r7, #4]
 3360 00dc 9B8B     		ldrh	r3, [r3, #28]	@ movhi
 3361 00de BB81     		strh	r3, [r7, #12]	@ movhi
 927:App/STM32F4-Discovery/Libraries/STM32F4xx_StdPeriph_Driver/src/stm32f4xx_tim.c ****     
 928:App/STM32F4-Discovery/Libraries/STM32F4xx_StdPeriph_Driver/src/stm32f4xx_tim.c ****   /* Reset the Output Compare mode and Capture/Compare selection Bits */
 929:App/STM32F4-Discovery/Libraries/STM32F4xx_StdPeriph_Driver/src/stm32f4xx_tim.c ****   tmpccmrx &= (uint16_t)~TIM_CCMR2_OC4M;
 3362              		.loc 1 929 0
 3363 00e0 BB89     		ldrh	r3, [r7, #12]	@ movhi
 3364 00e2 23F4E043 		bic	r3, r3, #28672
 3365 00e6 BB81     		strh	r3, [r7, #12]	@ movhi
 930:App/STM32F4-Discovery/Libraries/STM32F4xx_StdPeriph_Driver/src/stm32f4xx_tim.c ****   tmpccmrx &= (uint16_t)~TIM_CCMR2_CC4S;
 3366              		.loc 1 930 0
 3367 00e8 BB89     		ldrh	r3, [r7, #12]	@ movhi
 3368 00ea 23F44073 		bic	r3, r3, #768
 3369 00ee BB81     		strh	r3, [r7, #12]	@ movhi
 931:App/STM32F4-Discovery/Libraries/STM32F4xx_StdPeriph_Driver/src/stm32f4xx_tim.c ****   
 932:App/STM32F4-Discovery/Libraries/STM32F4xx_StdPeriph_Driver/src/stm32f4xx_tim.c ****   /* Select the Output Compare Mode */
 933:App/STM32F4-Discovery/Libraries/STM32F4xx_StdPeriph_Driver/src/stm32f4xx_tim.c ****   tmpccmrx |= (uint16_t)(TIM_OCInitStruct->TIM_OCMode << 8);
 3370              		.loc 1 933 0
 3371 00f0 3B68     		ldr	r3, [r7]
 3372 00f2 1B88     		ldrh	r3, [r3]
 3373 00f4 1B02     		lsls	r3, r3, #8
 3374 00f6 9AB2     		uxth	r2, r3
 3375 00f8 BB89     		ldrh	r3, [r7, #12]	@ movhi
 3376 00fa 1343     		orrs	r3, r3, r2
 3377 00fc BB81     		strh	r3, [r7, #12]	@ movhi
 934:App/STM32F4-Discovery/Libraries/STM32F4xx_StdPeriph_Driver/src/stm32f4xx_tim.c ****   
 935:App/STM32F4-Discovery/Libraries/STM32F4xx_StdPeriph_Driver/src/stm32f4xx_tim.c ****   /* Reset the Output Polarity level */
 936:App/STM32F4-Discovery/Libraries/STM32F4xx_StdPeriph_Driver/src/stm32f4xx_tim.c ****   tmpccer &= (uint16_t)~TIM_CCER_CC4P;
 3378              		.loc 1 936 0
 3379 00fe 7B89     		ldrh	r3, [r7, #10]	@ movhi
 3380 0100 23F40053 		bic	r3, r3, #8192
 3381 0104 7B81     		strh	r3, [r7, #10]	@ movhi
 937:App/STM32F4-Discovery/Libraries/STM32F4xx_StdPeriph_Driver/src/stm32f4xx_tim.c ****   /* Set the Output Compare Polarity */
 938:App/STM32F4-Discovery/Libraries/STM32F4xx_StdPeriph_Driver/src/stm32f4xx_tim.c ****   tmpccer |= (uint16_t)(TIM_OCInitStruct->TIM_OCPolarity << 12);
 3382              		.loc 1 938 0
 3383 0106 3B68     		ldr	r3, [r7]
 3384 0108 9B89     		ldrh	r3, [r3, #12]
 3385 010a 1B03     		lsls	r3, r3, #12
 3386 010c 9AB2     		uxth	r2, r3
 3387 010e 7B89     		ldrh	r3, [r7, #10]	@ movhi
 3388 0110 1343     		orrs	r3, r3, r2
 3389 0112 7B81     		strh	r3, [r7, #10]	@ movhi
 939:App/STM32F4-Discovery/Libraries/STM32F4xx_StdPeriph_Driver/src/stm32f4xx_tim.c ****   
 940:App/STM32F4-Discovery/Libraries/STM32F4xx_StdPeriph_Driver/src/stm32f4xx_tim.c ****   /* Set the Output State */
 941:App/STM32F4-Discovery/Libraries/STM32F4xx_StdPeriph_Driver/src/stm32f4xx_tim.c ****   tmpccer |= (uint16_t)(TIM_OCInitStruct->TIM_OutputState << 12);
 3390              		.loc 1 941 0
 3391 0114 3B68     		ldr	r3, [r7]
 3392 0116 5B88     		ldrh	r3, [r3, #2]
 3393 0118 1B03     		lsls	r3, r3, #12
 3394 011a 9AB2     		uxth	r2, r3
 3395 011c 7B89     		ldrh	r3, [r7, #10]	@ movhi
 3396 011e 1343     		orrs	r3, r3, r2
 3397 0120 7B81     		strh	r3, [r7, #10]	@ movhi
 942:App/STM32F4-Discovery/Libraries/STM32F4xx_StdPeriph_Driver/src/stm32f4xx_tim.c ****   
 943:App/STM32F4-Discovery/Libraries/STM32F4xx_StdPeriph_Driver/src/stm32f4xx_tim.c ****   if((TIMx == TIM1) || (TIMx == TIM8))
 3398              		.loc 1 943 0
 3399 0122 7A68     		ldr	r2, [r7, #4]
 3400 0124 174B     		ldr	r3, .L144
 3401 0126 9A42     		cmp	r2, r3
 3402 0128 03D0     		beq	.L141
 3403              		.loc 1 943 0 is_stmt 0 discriminator 1
 3404 012a 7A68     		ldr	r2, [r7, #4]
 3405 012c 194B     		ldr	r3, .L144+16
 3406 012e 9A42     		cmp	r2, r3
 3407 0130 18D1     		bne	.L142
 3408              	.L141:
 944:App/STM32F4-Discovery/Libraries/STM32F4xx_StdPeriph_Driver/src/stm32f4xx_tim.c ****   {
 945:App/STM32F4-Discovery/Libraries/STM32F4xx_StdPeriph_Driver/src/stm32f4xx_tim.c ****     assert_param(IS_TIM_OCIDLE_STATE(TIM_OCInitStruct->TIM_OCIdleState));
 3409              		.loc 1 945 0 is_stmt 1
 3410 0132 3B68     		ldr	r3, [r7]
 3411 0134 1B8A     		ldrh	r3, [r3, #16]
 3412 0136 B3F5807F 		cmp	r3, #256
 3413 013a 08D0     		beq	.L143
 3414              		.loc 1 945 0 is_stmt 0 discriminator 1
 3415 013c 3B68     		ldr	r3, [r7]
 3416 013e 1B8A     		ldrh	r3, [r3, #16]
 3417 0140 002B     		cmp	r3, #0
 3418 0142 04D0     		beq	.L143
 3419 0144 1448     		ldr	r0, .L144+20
 3420 0146 40F2B131 		movw	r1, #945
 3421 014a FFF7FEFF 		bl	assert_failed
 3422              	.L143:
 946:App/STM32F4-Discovery/Libraries/STM32F4xx_StdPeriph_Driver/src/stm32f4xx_tim.c ****     /* Reset the Output Compare IDLE State */
 947:App/STM32F4-Discovery/Libraries/STM32F4xx_StdPeriph_Driver/src/stm32f4xx_tim.c ****     tmpcr2 &=(uint16_t) ~TIM_CR2_OIS4;
 3423              		.loc 1 947 0 is_stmt 1
 3424 014e FB89     		ldrh	r3, [r7, #14]	@ movhi
 3425 0150 23F48043 		bic	r3, r3, #16384
 3426 0154 FB81     		strh	r3, [r7, #14]	@ movhi
 948:App/STM32F4-Discovery/Libraries/STM32F4xx_StdPeriph_Driver/src/stm32f4xx_tim.c ****     /* Set the Output Idle state */
 949:App/STM32F4-Discovery/Libraries/STM32F4xx_StdPeriph_Driver/src/stm32f4xx_tim.c ****     tmpcr2 |= (uint16_t)(TIM_OCInitStruct->TIM_OCIdleState << 6);
 3427              		.loc 1 949 0
 3428 0156 3B68     		ldr	r3, [r7]
 3429 0158 1B8A     		ldrh	r3, [r3, #16]
 3430 015a 9B01     		lsls	r3, r3, #6
 3431 015c 9AB2     		uxth	r2, r3
 3432 015e FB89     		ldrh	r3, [r7, #14]	@ movhi
 3433 0160 1343     		orrs	r3, r3, r2
 3434 0162 FB81     		strh	r3, [r7, #14]	@ movhi
 3435              	.L142:
 950:App/STM32F4-Discovery/Libraries/STM32F4xx_StdPeriph_Driver/src/stm32f4xx_tim.c ****   }
 951:App/STM32F4-Discovery/Libraries/STM32F4xx_StdPeriph_Driver/src/stm32f4xx_tim.c ****   /* Write to TIMx CR2 */
 952:App/STM32F4-Discovery/Libraries/STM32F4xx_StdPeriph_Driver/src/stm32f4xx_tim.c ****   TIMx->CR2 = tmpcr2;
 3436              		.loc 1 952 0
 3437 0164 7B68     		ldr	r3, [r7, #4]
 3438 0166 FA89     		ldrh	r2, [r7, #14]	@ movhi
 3439 0168 9A80     		strh	r2, [r3, #4]	@ movhi
 953:App/STM32F4-Discovery/Libraries/STM32F4xx_StdPeriph_Driver/src/stm32f4xx_tim.c ****   
 954:App/STM32F4-Discovery/Libraries/STM32F4xx_StdPeriph_Driver/src/stm32f4xx_tim.c ****   /* Write to TIMx CCMR2 */  
 955:App/STM32F4-Discovery/Libraries/STM32F4xx_StdPeriph_Driver/src/stm32f4xx_tim.c ****   TIMx->CCMR2 = tmpccmrx;
 3440              		.loc 1 955 0
 3441 016a 7B68     		ldr	r3, [r7, #4]
 3442 016c BA89     		ldrh	r2, [r7, #12]	@ movhi
 3443 016e 9A83     		strh	r2, [r3, #28]	@ movhi
 956:App/STM32F4-Discovery/Libraries/STM32F4xx_StdPeriph_Driver/src/stm32f4xx_tim.c ****     
 957:App/STM32F4-Discovery/Libraries/STM32F4xx_StdPeriph_Driver/src/stm32f4xx_tim.c ****   /* Set the Capture Compare Register value */
 958:App/STM32F4-Discovery/Libraries/STM32F4xx_StdPeriph_Driver/src/stm32f4xx_tim.c ****   TIMx->CCR4 = TIM_OCInitStruct->TIM_Pulse;
 3444              		.loc 1 958 0
 3445 0170 3B68     		ldr	r3, [r7]
 3446 0172 9A68     		ldr	r2, [r3, #8]
 3447 0174 7B68     		ldr	r3, [r7, #4]
 3448 0176 1A64     		str	r2, [r3, #64]
 959:App/STM32F4-Discovery/Libraries/STM32F4xx_StdPeriph_Driver/src/stm32f4xx_tim.c ****   
 960:App/STM32F4-Discovery/Libraries/STM32F4xx_StdPeriph_Driver/src/stm32f4xx_tim.c ****   /* Write to TIMx CCER */
 961:App/STM32F4-Discovery/Libraries/STM32F4xx_StdPeriph_Driver/src/stm32f4xx_tim.c ****   TIMx->CCER = tmpccer;
 3449              		.loc 1 961 0
 3450 0178 7B68     		ldr	r3, [r7, #4]
 3451 017a 7A89     		ldrh	r2, [r7, #10]	@ movhi
 3452 017c 1A84     		strh	r2, [r3, #32]	@ movhi
 962:App/STM32F4-Discovery/Libraries/STM32F4xx_StdPeriph_Driver/src/stm32f4xx_tim.c **** }
 3453              		.loc 1 962 0
 3454 017e 1037     		adds	r7, r7, #16
 3455 0180 BD46     		mov	sp, r7
 3456              		@ sp needed
 3457 0182 80BD     		pop	{r7, pc}
 3458              	.L145:
 3459              		.align	2
 3460              	.L144:
 3461 0184 00000140 		.word	1073807360
 3462 0188 00040040 		.word	1073742848
 3463 018c 00080040 		.word	1073743872
 3464 0190 000C0040 		.word	1073744896
 3465 0194 00040140 		.word	1073808384
 3466 0198 00000000 		.word	.LC0
 3467              		.cfi_endproc
 3468              	.LFE128:
 3470              		.section	.text.TIM_OCStructInit,"ax",%progbits
 3471              		.align	2
 3472              		.global	TIM_OCStructInit
 3473              		.thumb
 3474              		.thumb_func
 3476              	TIM_OCStructInit:
 3477              	.LFB129:
 963:App/STM32F4-Discovery/Libraries/STM32F4xx_StdPeriph_Driver/src/stm32f4xx_tim.c **** 
 964:App/STM32F4-Discovery/Libraries/STM32F4xx_StdPeriph_Driver/src/stm32f4xx_tim.c **** /**
 965:App/STM32F4-Discovery/Libraries/STM32F4xx_StdPeriph_Driver/src/stm32f4xx_tim.c ****   * @brief  Fills each TIM_OCInitStruct member with its default value.
 966:App/STM32F4-Discovery/Libraries/STM32F4xx_StdPeriph_Driver/src/stm32f4xx_tim.c ****   * @param  TIM_OCInitStruct: pointer to a TIM_OCInitTypeDef structure which will
 967:App/STM32F4-Discovery/Libraries/STM32F4xx_StdPeriph_Driver/src/stm32f4xx_tim.c ****   *         be initialized.
 968:App/STM32F4-Discovery/Libraries/STM32F4xx_StdPeriph_Driver/src/stm32f4xx_tim.c ****   * @retval None
 969:App/STM32F4-Discovery/Libraries/STM32F4xx_StdPeriph_Driver/src/stm32f4xx_tim.c ****   */
 970:App/STM32F4-Discovery/Libraries/STM32F4xx_StdPeriph_Driver/src/stm32f4xx_tim.c **** void TIM_OCStructInit(TIM_OCInitTypeDef* TIM_OCInitStruct)
 971:App/STM32F4-Discovery/Libraries/STM32F4xx_StdPeriph_Driver/src/stm32f4xx_tim.c **** {
 3478              		.loc 1 971 0
 3479              		.cfi_startproc
 3480              		@ args = 0, pretend = 0, frame = 8
 3481              		@ frame_needed = 1, uses_anonymous_args = 0
 3482              		@ link register save eliminated.
 3483 0000 80B4     		push	{r7}
 3484              	.LCFI57:
 3485              		.cfi_def_cfa_offset 4
 3486              		.cfi_offset 7, -4
 3487 0002 83B0     		sub	sp, sp, #12
 3488              	.LCFI58:
 3489              		.cfi_def_cfa_offset 16
 3490 0004 00AF     		add	r7, sp, #0
 3491              	.LCFI59:
 3492              		.cfi_def_cfa_register 7
 3493 0006 7860     		str	r0, [r7, #4]
 972:App/STM32F4-Discovery/Libraries/STM32F4xx_StdPeriph_Driver/src/stm32f4xx_tim.c ****   /* Set the default configuration */
 973:App/STM32F4-Discovery/Libraries/STM32F4xx_StdPeriph_Driver/src/stm32f4xx_tim.c ****   TIM_OCInitStruct->TIM_OCMode = TIM_OCMode_Timing;
 3494              		.loc 1 973 0
 3495 0008 7B68     		ldr	r3, [r7, #4]
 3496 000a 0022     		movs	r2, #0
 3497 000c 1A80     		strh	r2, [r3]	@ movhi
 974:App/STM32F4-Discovery/Libraries/STM32F4xx_StdPeriph_Driver/src/stm32f4xx_tim.c ****   TIM_OCInitStruct->TIM_OutputState = TIM_OutputState_Disable;
 3498              		.loc 1 974 0
 3499 000e 7B68     		ldr	r3, [r7, #4]
 3500 0010 0022     		movs	r2, #0
 3501 0012 5A80     		strh	r2, [r3, #2]	@ movhi
 975:App/STM32F4-Discovery/Libraries/STM32F4xx_StdPeriph_Driver/src/stm32f4xx_tim.c ****   TIM_OCInitStruct->TIM_OutputNState = TIM_OutputNState_Disable;
 3502              		.loc 1 975 0
 3503 0014 7B68     		ldr	r3, [r7, #4]
 3504 0016 0022     		movs	r2, #0
 3505 0018 9A80     		strh	r2, [r3, #4]	@ movhi
 976:App/STM32F4-Discovery/Libraries/STM32F4xx_StdPeriph_Driver/src/stm32f4xx_tim.c ****   TIM_OCInitStruct->TIM_Pulse = 0x00000000;
 3506              		.loc 1 976 0
 3507 001a 7B68     		ldr	r3, [r7, #4]
 3508 001c 0022     		movs	r2, #0
 3509 001e 9A60     		str	r2, [r3, #8]
 977:App/STM32F4-Discovery/Libraries/STM32F4xx_StdPeriph_Driver/src/stm32f4xx_tim.c ****   TIM_OCInitStruct->TIM_OCPolarity = TIM_OCPolarity_High;
 3510              		.loc 1 977 0
 3511 0020 7B68     		ldr	r3, [r7, #4]
 3512 0022 0022     		movs	r2, #0
 3513 0024 9A81     		strh	r2, [r3, #12]	@ movhi
 978:App/STM32F4-Discovery/Libraries/STM32F4xx_StdPeriph_Driver/src/stm32f4xx_tim.c ****   TIM_OCInitStruct->TIM_OCNPolarity = TIM_OCPolarity_High;
 3514              		.loc 1 978 0
 3515 0026 7B68     		ldr	r3, [r7, #4]
 3516 0028 0022     		movs	r2, #0
 3517 002a DA81     		strh	r2, [r3, #14]	@ movhi
 979:App/STM32F4-Discovery/Libraries/STM32F4xx_StdPeriph_Driver/src/stm32f4xx_tim.c ****   TIM_OCInitStruct->TIM_OCIdleState = TIM_OCIdleState_Reset;
 3518              		.loc 1 979 0
 3519 002c 7B68     		ldr	r3, [r7, #4]
 3520 002e 0022     		movs	r2, #0
 3521 0030 1A82     		strh	r2, [r3, #16]	@ movhi
 980:App/STM32F4-Discovery/Libraries/STM32F4xx_StdPeriph_Driver/src/stm32f4xx_tim.c ****   TIM_OCInitStruct->TIM_OCNIdleState = TIM_OCNIdleState_Reset;
 3522              		.loc 1 980 0
 3523 0032 7B68     		ldr	r3, [r7, #4]
 3524 0034 0022     		movs	r2, #0
 3525 0036 5A82     		strh	r2, [r3, #18]	@ movhi
 981:App/STM32F4-Discovery/Libraries/STM32F4xx_StdPeriph_Driver/src/stm32f4xx_tim.c **** }
 3526              		.loc 1 981 0
 3527 0038 0C37     		adds	r7, r7, #12
 3528 003a BD46     		mov	sp, r7
 3529              		@ sp needed
 3530 003c 5DF8047B 		ldr	r7, [sp], #4
 3531 0040 7047     		bx	lr
 3532              		.cfi_endproc
 3533              	.LFE129:
 3535 0042 00BF     		.section	.text.TIM_SelectOCxM,"ax",%progbits
 3536              		.align	2
 3537              		.global	TIM_SelectOCxM
 3538              		.thumb
 3539              		.thumb_func
 3541              	TIM_SelectOCxM:
 3542              	.LFB130:
 982:App/STM32F4-Discovery/Libraries/STM32F4xx_StdPeriph_Driver/src/stm32f4xx_tim.c **** 
 983:App/STM32F4-Discovery/Libraries/STM32F4xx_StdPeriph_Driver/src/stm32f4xx_tim.c **** /**
 984:App/STM32F4-Discovery/Libraries/STM32F4xx_StdPeriph_Driver/src/stm32f4xx_tim.c ****   * @brief  Selects the TIM Output Compare Mode.
 985:App/STM32F4-Discovery/Libraries/STM32F4xx_StdPeriph_Driver/src/stm32f4xx_tim.c ****   * @note   This function disables the selected channel before changing the Output
 986:App/STM32F4-Discovery/Libraries/STM32F4xx_StdPeriph_Driver/src/stm32f4xx_tim.c ****   *         Compare Mode. If needed, user has to enable this channel using
 987:App/STM32F4-Discovery/Libraries/STM32F4xx_StdPeriph_Driver/src/stm32f4xx_tim.c ****   *         TIM_CCxCmd() and TIM_CCxNCmd() functions.
 988:App/STM32F4-Discovery/Libraries/STM32F4xx_StdPeriph_Driver/src/stm32f4xx_tim.c ****   * @param  TIMx: where x can be 1 to 14 except 6 and 7, to select the TIM peripheral.
 989:App/STM32F4-Discovery/Libraries/STM32F4xx_StdPeriph_Driver/src/stm32f4xx_tim.c ****   * @param  TIM_Channel: specifies the TIM Channel
 990:App/STM32F4-Discovery/Libraries/STM32F4xx_StdPeriph_Driver/src/stm32f4xx_tim.c ****   *          This parameter can be one of the following values:
 991:App/STM32F4-Discovery/Libraries/STM32F4xx_StdPeriph_Driver/src/stm32f4xx_tim.c ****   *            @arg TIM_Channel_1: TIM Channel 1
 992:App/STM32F4-Discovery/Libraries/STM32F4xx_StdPeriph_Driver/src/stm32f4xx_tim.c ****   *            @arg TIM_Channel_2: TIM Channel 2
 993:App/STM32F4-Discovery/Libraries/STM32F4xx_StdPeriph_Driver/src/stm32f4xx_tim.c ****   *            @arg TIM_Channel_3: TIM Channel 3
 994:App/STM32F4-Discovery/Libraries/STM32F4xx_StdPeriph_Driver/src/stm32f4xx_tim.c ****   *            @arg TIM_Channel_4: TIM Channel 4
 995:App/STM32F4-Discovery/Libraries/STM32F4xx_StdPeriph_Driver/src/stm32f4xx_tim.c ****   * @param  TIM_OCMode: specifies the TIM Output Compare Mode.
 996:App/STM32F4-Discovery/Libraries/STM32F4xx_StdPeriph_Driver/src/stm32f4xx_tim.c ****   *           This parameter can be one of the following values:
 997:App/STM32F4-Discovery/Libraries/STM32F4xx_StdPeriph_Driver/src/stm32f4xx_tim.c ****   *            @arg TIM_OCMode_Timing
 998:App/STM32F4-Discovery/Libraries/STM32F4xx_StdPeriph_Driver/src/stm32f4xx_tim.c ****   *            @arg TIM_OCMode_Active
 999:App/STM32F4-Discovery/Libraries/STM32F4xx_StdPeriph_Driver/src/stm32f4xx_tim.c ****   *            @arg TIM_OCMode_Toggle
1000:App/STM32F4-Discovery/Libraries/STM32F4xx_StdPeriph_Driver/src/stm32f4xx_tim.c ****   *            @arg TIM_OCMode_PWM1
1001:App/STM32F4-Discovery/Libraries/STM32F4xx_StdPeriph_Driver/src/stm32f4xx_tim.c ****   *            @arg TIM_OCMode_PWM2
1002:App/STM32F4-Discovery/Libraries/STM32F4xx_StdPeriph_Driver/src/stm32f4xx_tim.c ****   *            @arg TIM_ForcedAction_Active
1003:App/STM32F4-Discovery/Libraries/STM32F4xx_StdPeriph_Driver/src/stm32f4xx_tim.c ****   *            @arg TIM_ForcedAction_InActive
1004:App/STM32F4-Discovery/Libraries/STM32F4xx_StdPeriph_Driver/src/stm32f4xx_tim.c ****   * @retval None
1005:App/STM32F4-Discovery/Libraries/STM32F4xx_StdPeriph_Driver/src/stm32f4xx_tim.c ****   */
1006:App/STM32F4-Discovery/Libraries/STM32F4xx_StdPeriph_Driver/src/stm32f4xx_tim.c **** void TIM_SelectOCxM(TIM_TypeDef* TIMx, uint16_t TIM_Channel, uint16_t TIM_OCMode)
1007:App/STM32F4-Discovery/Libraries/STM32F4xx_StdPeriph_Driver/src/stm32f4xx_tim.c **** {
 3543              		.loc 1 1007 0
 3544              		.cfi_startproc
 3545              		@ args = 0, pretend = 0, frame = 16
 3546              		@ frame_needed = 1, uses_anonymous_args = 0
 3547 0000 80B5     		push	{r7, lr}
 3548              	.LCFI60:
 3549              		.cfi_def_cfa_offset 8
 3550              		.cfi_offset 7, -8
 3551              		.cfi_offset 14, -4
 3552 0002 84B0     		sub	sp, sp, #16
 3553              	.LCFI61:
 3554              		.cfi_def_cfa_offset 24
 3555 0004 00AF     		add	r7, sp, #0
 3556              	.LCFI62:
 3557              		.cfi_def_cfa_register 7
 3558 0006 7860     		str	r0, [r7, #4]
 3559 0008 1346     		mov	r3, r2
 3560 000a 0A46     		mov	r2, r1	@ movhi
 3561 000c 7A80     		strh	r2, [r7, #2]	@ movhi
 3562 000e 3B80     		strh	r3, [r7]	@ movhi
1008:App/STM32F4-Discovery/Libraries/STM32F4xx_StdPeriph_Driver/src/stm32f4xx_tim.c ****   uint32_t tmp = 0;
 3563              		.loc 1 1008 0
 3564 0010 0023     		movs	r3, #0
 3565 0012 FB60     		str	r3, [r7, #12]
1009:App/STM32F4-Discovery/Libraries/STM32F4xx_StdPeriph_Driver/src/stm32f4xx_tim.c ****   uint16_t tmp1 = 0;
 3566              		.loc 1 1009 0
 3567 0014 0023     		movs	r3, #0
 3568 0016 7B81     		strh	r3, [r7, #10]	@ movhi
1010:App/STM32F4-Discovery/Libraries/STM32F4xx_StdPeriph_Driver/src/stm32f4xx_tim.c **** 
1011:App/STM32F4-Discovery/Libraries/STM32F4xx_StdPeriph_Driver/src/stm32f4xx_tim.c ****   /* Check the parameters */
1012:App/STM32F4-Discovery/Libraries/STM32F4xx_StdPeriph_Driver/src/stm32f4xx_tim.c ****   assert_param(IS_TIM_LIST1_PERIPH(TIMx));
 3569              		.loc 1 1012 0
 3570 0018 7A68     		ldr	r2, [r7, #4]
 3571 001a 554B     		ldr	r3, .L154
 3572 001c 9A42     		cmp	r2, r3
 3573 001e 30D0     		beq	.L148
 3574              		.loc 1 1012 0 is_stmt 0 discriminator 1
 3575 0020 7B68     		ldr	r3, [r7, #4]
 3576 0022 B3F1804F 		cmp	r3, #1073741824
 3577 0026 2CD0     		beq	.L148
 3578 0028 7A68     		ldr	r2, [r7, #4]
 3579 002a 524B     		ldr	r3, .L154+4
 3580 002c 9A42     		cmp	r2, r3
 3581 002e 28D0     		beq	.L148
 3582 0030 7A68     		ldr	r2, [r7, #4]
 3583 0032 514B     		ldr	r3, .L154+8
 3584 0034 9A42     		cmp	r2, r3
 3585 0036 24D0     		beq	.L148
 3586 0038 7A68     		ldr	r2, [r7, #4]
 3587 003a 504B     		ldr	r3, .L154+12
 3588 003c 9A42     		cmp	r2, r3
 3589 003e 20D0     		beq	.L148
 3590 0040 7A68     		ldr	r2, [r7, #4]
 3591 0042 4F4B     		ldr	r3, .L154+16
 3592 0044 9A42     		cmp	r2, r3
 3593 0046 1CD0     		beq	.L148
 3594 0048 7A68     		ldr	r2, [r7, #4]
 3595 004a 4E4B     		ldr	r3, .L154+20
 3596 004c 9A42     		cmp	r2, r3
 3597 004e 18D0     		beq	.L148
 3598 0050 7A68     		ldr	r2, [r7, #4]
 3599 0052 4D4B     		ldr	r3, .L154+24
 3600 0054 9A42     		cmp	r2, r3
 3601 0056 14D0     		beq	.L148
 3602 0058 7A68     		ldr	r2, [r7, #4]
 3603 005a 4C4B     		ldr	r3, .L154+28
 3604 005c 9A42     		cmp	r2, r3
 3605 005e 10D0     		beq	.L148
 3606 0060 7A68     		ldr	r2, [r7, #4]
 3607 0062 4B4B     		ldr	r3, .L154+32
 3608 0064 9A42     		cmp	r2, r3
 3609 0066 0CD0     		beq	.L148
 3610 0068 7A68     		ldr	r2, [r7, #4]
 3611 006a 4A4B     		ldr	r3, .L154+36
 3612 006c 9A42     		cmp	r2, r3
 3613 006e 08D0     		beq	.L148
 3614 0070 7A68     		ldr	r2, [r7, #4]
 3615 0072 494B     		ldr	r3, .L154+40
 3616 0074 9A42     		cmp	r2, r3
 3617 0076 04D0     		beq	.L148
 3618 0078 4848     		ldr	r0, .L154+44
 3619 007a 4FF47D71 		mov	r1, #1012
 3620 007e FFF7FEFF 		bl	assert_failed
 3621              	.L148:
1013:App/STM32F4-Discovery/Libraries/STM32F4xx_StdPeriph_Driver/src/stm32f4xx_tim.c ****   assert_param(IS_TIM_CHANNEL(TIM_Channel));
 3622              		.loc 1 1013 0 is_stmt 1
 3623 0082 7B88     		ldrh	r3, [r7, #2]
 3624 0084 002B     		cmp	r3, #0
 3625 0086 0DD0     		beq	.L149
 3626              		.loc 1 1013 0 is_stmt 0 discriminator 1
 3627 0088 7B88     		ldrh	r3, [r7, #2]
 3628 008a 042B     		cmp	r3, #4
 3629 008c 0AD0     		beq	.L149
 3630 008e 7B88     		ldrh	r3, [r7, #2]
 3631 0090 082B     		cmp	r3, #8
 3632 0092 07D0     		beq	.L149
 3633 0094 7B88     		ldrh	r3, [r7, #2]
 3634 0096 0C2B     		cmp	r3, #12
 3635 0098 04D0     		beq	.L149
 3636 009a 4048     		ldr	r0, .L154+44
 3637 009c 40F2F531 		movw	r1, #1013
 3638 00a0 FFF7FEFF 		bl	assert_failed
 3639              	.L149:
1014:App/STM32F4-Discovery/Libraries/STM32F4xx_StdPeriph_Driver/src/stm32f4xx_tim.c ****   assert_param(IS_TIM_OCM(TIM_OCMode));
 3640              		.loc 1 1014 0 is_stmt 1
 3641 00a4 3B88     		ldrh	r3, [r7]
 3642 00a6 002B     		cmp	r3, #0
 3643 00a8 19D0     		beq	.L150
 3644              		.loc 1 1014 0 is_stmt 0 discriminator 1
 3645 00aa 3B88     		ldrh	r3, [r7]
 3646 00ac 102B     		cmp	r3, #16
 3647 00ae 16D0     		beq	.L150
 3648 00b0 3B88     		ldrh	r3, [r7]
 3649 00b2 202B     		cmp	r3, #32
 3650 00b4 13D0     		beq	.L150
 3651 00b6 3B88     		ldrh	r3, [r7]
 3652 00b8 302B     		cmp	r3, #48
 3653 00ba 10D0     		beq	.L150
 3654 00bc 3B88     		ldrh	r3, [r7]
 3655 00be 602B     		cmp	r3, #96
 3656 00c0 0DD0     		beq	.L150
 3657 00c2 3B88     		ldrh	r3, [r7]
 3658 00c4 702B     		cmp	r3, #112
 3659 00c6 0AD0     		beq	.L150
 3660 00c8 3B88     		ldrh	r3, [r7]
 3661 00ca 502B     		cmp	r3, #80
 3662 00cc 07D0     		beq	.L150
 3663 00ce 3B88     		ldrh	r3, [r7]
 3664 00d0 402B     		cmp	r3, #64
 3665 00d2 04D0     		beq	.L150
 3666 00d4 3148     		ldr	r0, .L154+44
 3667 00d6 40F2F631 		movw	r1, #1014
 3668 00da FFF7FEFF 		bl	assert_failed
 3669              	.L150:
1015:App/STM32F4-Discovery/Libraries/STM32F4xx_StdPeriph_Driver/src/stm32f4xx_tim.c **** 
1016:App/STM32F4-Discovery/Libraries/STM32F4xx_StdPeriph_Driver/src/stm32f4xx_tim.c ****   tmp = (uint32_t) TIMx;
 3670              		.loc 1 1016 0 is_stmt 1
 3671 00de 7B68     		ldr	r3, [r7, #4]
 3672 00e0 FB60     		str	r3, [r7, #12]
1017:App/STM32F4-Discovery/Libraries/STM32F4xx_StdPeriph_Driver/src/stm32f4xx_tim.c ****   tmp += CCMR_OFFSET;
 3673              		.loc 1 1017 0
 3674 00e2 FB68     		ldr	r3, [r7, #12]
 3675 00e4 1833     		adds	r3, r3, #24
 3676 00e6 FB60     		str	r3, [r7, #12]
1018:App/STM32F4-Discovery/Libraries/STM32F4xx_StdPeriph_Driver/src/stm32f4xx_tim.c **** 
1019:App/STM32F4-Discovery/Libraries/STM32F4xx_StdPeriph_Driver/src/stm32f4xx_tim.c ****   tmp1 = CCER_CCE_SET << (uint16_t)TIM_Channel;
 3677              		.loc 1 1019 0
 3678 00e8 7B88     		ldrh	r3, [r7, #2]
 3679 00ea 0122     		movs	r2, #1
 3680 00ec 02FA03F3 		lsl	r3, r2, r3
 3681 00f0 7B81     		strh	r3, [r7, #10]	@ movhi
1020:App/STM32F4-Discovery/Libraries/STM32F4xx_StdPeriph_Driver/src/stm32f4xx_tim.c **** 
1021:App/STM32F4-Discovery/Libraries/STM32F4xx_StdPeriph_Driver/src/stm32f4xx_tim.c ****   /* Disable the Channel: Reset the CCxE Bit */
1022:App/STM32F4-Discovery/Libraries/STM32F4xx_StdPeriph_Driver/src/stm32f4xx_tim.c ****   TIMx->CCER &= (uint16_t) ~tmp1;
 3682              		.loc 1 1022 0
 3683 00f2 7B68     		ldr	r3, [r7, #4]
 3684 00f4 1B8C     		ldrh	r3, [r3, #32]	@ movhi
 3685 00f6 9AB2     		uxth	r2, r3
 3686 00f8 7B89     		ldrh	r3, [r7, #10]	@ movhi
 3687 00fa DB43     		mvns	r3, r3
 3688 00fc 9BB2     		uxth	r3, r3
 3689 00fe 1340     		ands	r3, r3, r2
 3690 0100 9AB2     		uxth	r2, r3
 3691 0102 7B68     		ldr	r3, [r7, #4]
 3692 0104 1A84     		strh	r2, [r3, #32]	@ movhi
1023:App/STM32F4-Discovery/Libraries/STM32F4xx_StdPeriph_Driver/src/stm32f4xx_tim.c **** 
1024:App/STM32F4-Discovery/Libraries/STM32F4xx_StdPeriph_Driver/src/stm32f4xx_tim.c ****   if((TIM_Channel == TIM_Channel_1) ||(TIM_Channel == TIM_Channel_3))
 3693              		.loc 1 1024 0
 3694 0106 7B88     		ldrh	r3, [r7, #2]
 3695 0108 002B     		cmp	r3, #0
 3696 010a 02D0     		beq	.L151
 3697              		.loc 1 1024 0 is_stmt 0 discriminator 1
 3698 010c 7B88     		ldrh	r3, [r7, #2]
 3699 010e 082B     		cmp	r3, #8
 3700 0110 13D1     		bne	.L152
 3701              	.L151:
1025:App/STM32F4-Discovery/Libraries/STM32F4xx_StdPeriph_Driver/src/stm32f4xx_tim.c ****   {
1026:App/STM32F4-Discovery/Libraries/STM32F4xx_StdPeriph_Driver/src/stm32f4xx_tim.c ****     tmp += (TIM_Channel>>1);
 3702              		.loc 1 1026 0 is_stmt 1
 3703 0112 7B88     		ldrh	r3, [r7, #2]
 3704 0114 5B08     		lsrs	r3, r3, #1
 3705 0116 9BB2     		uxth	r3, r3
 3706 0118 FA68     		ldr	r2, [r7, #12]
 3707 011a 1344     		add	r3, r3, r2
 3708 011c FB60     		str	r3, [r7, #12]
1027:App/STM32F4-Discovery/Libraries/STM32F4xx_StdPeriph_Driver/src/stm32f4xx_tim.c **** 
1028:App/STM32F4-Discovery/Libraries/STM32F4xx_StdPeriph_Driver/src/stm32f4xx_tim.c ****     /* Reset the OCxM bits in the CCMRx register */
1029:App/STM32F4-Discovery/Libraries/STM32F4xx_StdPeriph_Driver/src/stm32f4xx_tim.c ****     *(__IO uint32_t *) tmp &= CCMR_OC13M_MASK;
 3709              		.loc 1 1029 0
 3710 011e FA68     		ldr	r2, [r7, #12]
 3711 0120 FB68     		ldr	r3, [r7, #12]
 3712 0122 1968     		ldr	r1, [r3]
 3713 0124 4FF68F73 		movw	r3, #65423
 3714 0128 0B40     		ands	r3, r3, r1
 3715 012a 1360     		str	r3, [r2]
1030:App/STM32F4-Discovery/Libraries/STM32F4xx_StdPeriph_Driver/src/stm32f4xx_tim.c ****    
1031:App/STM32F4-Discovery/Libraries/STM32F4xx_StdPeriph_Driver/src/stm32f4xx_tim.c ****     /* Configure the OCxM bits in the CCMRx register */
1032:App/STM32F4-Discovery/Libraries/STM32F4xx_StdPeriph_Driver/src/stm32f4xx_tim.c ****     *(__IO uint32_t *) tmp |= TIM_OCMode;
 3716              		.loc 1 1032 0
 3717 012c FB68     		ldr	r3, [r7, #12]
 3718 012e FA68     		ldr	r2, [r7, #12]
 3719 0130 1168     		ldr	r1, [r2]
 3720 0132 3A88     		ldrh	r2, [r7]
 3721 0134 0A43     		orrs	r2, r2, r1
 3722 0136 1A60     		str	r2, [r3]
 3723 0138 16E0     		b	.L147
 3724              	.L152:
1033:App/STM32F4-Discovery/Libraries/STM32F4xx_StdPeriph_Driver/src/stm32f4xx_tim.c ****   }
1034:App/STM32F4-Discovery/Libraries/STM32F4xx_StdPeriph_Driver/src/stm32f4xx_tim.c ****   else
1035:App/STM32F4-Discovery/Libraries/STM32F4xx_StdPeriph_Driver/src/stm32f4xx_tim.c ****   {
1036:App/STM32F4-Discovery/Libraries/STM32F4xx_StdPeriph_Driver/src/stm32f4xx_tim.c ****     tmp += (uint16_t)(TIM_Channel - (uint16_t)4)>> (uint16_t)1;
 3725              		.loc 1 1036 0
 3726 013a 7B88     		ldrh	r3, [r7, #2]	@ movhi
 3727 013c 043B     		subs	r3, r3, #4
 3728 013e 9BB2     		uxth	r3, r3
 3729 0140 5B08     		lsrs	r3, r3, #1
 3730 0142 9BB2     		uxth	r3, r3
 3731 0144 FA68     		ldr	r2, [r7, #12]
 3732 0146 1344     		add	r3, r3, r2
 3733 0148 FB60     		str	r3, [r7, #12]
1037:App/STM32F4-Discovery/Libraries/STM32F4xx_StdPeriph_Driver/src/stm32f4xx_tim.c **** 
1038:App/STM32F4-Discovery/Libraries/STM32F4xx_StdPeriph_Driver/src/stm32f4xx_tim.c ****     /* Reset the OCxM bits in the CCMRx register */
1039:App/STM32F4-Discovery/Libraries/STM32F4xx_StdPeriph_Driver/src/stm32f4xx_tim.c ****     *(__IO uint32_t *) tmp &= CCMR_OC24M_MASK;
 3734              		.loc 1 1039 0
 3735 014a FA68     		ldr	r2, [r7, #12]
 3736 014c FB68     		ldr	r3, [r7, #12]
 3737 014e 1968     		ldr	r1, [r3]
 3738 0150 48F6FF73 		movw	r3, #36863
 3739 0154 0B40     		ands	r3, r3, r1
 3740 0156 1360     		str	r3, [r2]
1040:App/STM32F4-Discovery/Libraries/STM32F4xx_StdPeriph_Driver/src/stm32f4xx_tim.c ****     
1041:App/STM32F4-Discovery/Libraries/STM32F4xx_StdPeriph_Driver/src/stm32f4xx_tim.c ****     /* Configure the OCxM bits in the CCMRx register */
1042:App/STM32F4-Discovery/Libraries/STM32F4xx_StdPeriph_Driver/src/stm32f4xx_tim.c ****     *(__IO uint32_t *) tmp |= (uint16_t)(TIM_OCMode << 8);
 3741              		.loc 1 1042 0
 3742 0158 FB68     		ldr	r3, [r7, #12]
 3743 015a FA68     		ldr	r2, [r7, #12]
 3744 015c 1168     		ldr	r1, [r2]
 3745 015e 3A88     		ldrh	r2, [r7]	@ movhi
 3746 0160 1202     		lsls	r2, r2, #8
 3747 0162 92B2     		uxth	r2, r2
 3748 0164 0A43     		orrs	r2, r2, r1
 3749 0166 1A60     		str	r2, [r3]
 3750              	.L147:
1043:App/STM32F4-Discovery/Libraries/STM32F4xx_StdPeriph_Driver/src/stm32f4xx_tim.c ****   }
1044:App/STM32F4-Discovery/Libraries/STM32F4xx_StdPeriph_Driver/src/stm32f4xx_tim.c **** }
 3751              		.loc 1 1044 0
 3752 0168 1037     		adds	r7, r7, #16
 3753 016a BD46     		mov	sp, r7
 3754              		@ sp needed
 3755 016c 80BD     		pop	{r7, pc}
 3756              	.L155:
 3757 016e 00BF     		.align	2
 3758              	.L154:
 3759 0170 00000140 		.word	1073807360
 3760 0174 00040040 		.word	1073742848
 3761 0178 00080040 		.word	1073743872
 3762 017c 000C0040 		.word	1073744896
 3763 0180 00040140 		.word	1073808384
 3764 0184 00400140 		.word	1073823744
 3765 0188 00440140 		.word	1073824768
 3766 018c 00480140 		.word	1073825792
 3767 0190 00180040 		.word	1073747968
 3768 0194 001C0040 		.word	1073748992
 3769 0198 00200040 		.word	1073750016
 3770 019c 00000000 		.word	.LC0
 3771              		.cfi_endproc
 3772              	.LFE130:
 3774              		.section	.text.TIM_SetCompare1,"ax",%progbits
 3775              		.align	2
 3776              		.global	TIM_SetCompare1
 3777              		.thumb
 3778              		.thumb_func
 3780              	TIM_SetCompare1:
 3781              	.LFB131:
1045:App/STM32F4-Discovery/Libraries/STM32F4xx_StdPeriph_Driver/src/stm32f4xx_tim.c **** 
1046:App/STM32F4-Discovery/Libraries/STM32F4xx_StdPeriph_Driver/src/stm32f4xx_tim.c **** /**
1047:App/STM32F4-Discovery/Libraries/STM32F4xx_StdPeriph_Driver/src/stm32f4xx_tim.c ****   * @brief  Sets the TIMx Capture Compare1 Register value
1048:App/STM32F4-Discovery/Libraries/STM32F4xx_StdPeriph_Driver/src/stm32f4xx_tim.c ****   * @param  TIMx: where x can be 1 to 14 except 6 and 7, to select the TIM peripheral.
1049:App/STM32F4-Discovery/Libraries/STM32F4xx_StdPeriph_Driver/src/stm32f4xx_tim.c ****   * @param  Compare1: specifies the Capture Compare1 register new value.
1050:App/STM32F4-Discovery/Libraries/STM32F4xx_StdPeriph_Driver/src/stm32f4xx_tim.c ****   * @retval None
1051:App/STM32F4-Discovery/Libraries/STM32F4xx_StdPeriph_Driver/src/stm32f4xx_tim.c ****   */
1052:App/STM32F4-Discovery/Libraries/STM32F4xx_StdPeriph_Driver/src/stm32f4xx_tim.c **** void TIM_SetCompare1(TIM_TypeDef* TIMx, uint32_t Compare1)
1053:App/STM32F4-Discovery/Libraries/STM32F4xx_StdPeriph_Driver/src/stm32f4xx_tim.c **** {
 3782              		.loc 1 1053 0
 3783              		.cfi_startproc
 3784              		@ args = 0, pretend = 0, frame = 8
 3785              		@ frame_needed = 1, uses_anonymous_args = 0
 3786 0000 80B5     		push	{r7, lr}
 3787              	.LCFI63:
 3788              		.cfi_def_cfa_offset 8
 3789              		.cfi_offset 7, -8
 3790              		.cfi_offset 14, -4
 3791 0002 82B0     		sub	sp, sp, #8
 3792              	.LCFI64:
 3793              		.cfi_def_cfa_offset 16
 3794 0004 00AF     		add	r7, sp, #0
 3795              	.LCFI65:
 3796              		.cfi_def_cfa_register 7
 3797 0006 7860     		str	r0, [r7, #4]
 3798 0008 3960     		str	r1, [r7]
1054:App/STM32F4-Discovery/Libraries/STM32F4xx_StdPeriph_Driver/src/stm32f4xx_tim.c ****   /* Check the parameters */
1055:App/STM32F4-Discovery/Libraries/STM32F4xx_StdPeriph_Driver/src/stm32f4xx_tim.c ****   assert_param(IS_TIM_LIST1_PERIPH(TIMx));
 3799              		.loc 1 1055 0
 3800 000a 7A68     		ldr	r2, [r7, #4]
 3801 000c 1C4B     		ldr	r3, .L158
 3802 000e 9A42     		cmp	r2, r3
 3803 0010 30D0     		beq	.L157
 3804              		.loc 1 1055 0 is_stmt 0 discriminator 1
 3805 0012 7B68     		ldr	r3, [r7, #4]
 3806 0014 B3F1804F 		cmp	r3, #1073741824
 3807 0018 2CD0     		beq	.L157
 3808 001a 7A68     		ldr	r2, [r7, #4]
 3809 001c 194B     		ldr	r3, .L158+4
 3810 001e 9A42     		cmp	r2, r3
 3811 0020 28D0     		beq	.L157
 3812 0022 7A68     		ldr	r2, [r7, #4]
 3813 0024 184B     		ldr	r3, .L158+8
 3814 0026 9A42     		cmp	r2, r3
 3815 0028 24D0     		beq	.L157
 3816 002a 7A68     		ldr	r2, [r7, #4]
 3817 002c 174B     		ldr	r3, .L158+12
 3818 002e 9A42     		cmp	r2, r3
 3819 0030 20D0     		beq	.L157
 3820 0032 7A68     		ldr	r2, [r7, #4]
 3821 0034 164B     		ldr	r3, .L158+16
 3822 0036 9A42     		cmp	r2, r3
 3823 0038 1CD0     		beq	.L157
 3824 003a 7A68     		ldr	r2, [r7, #4]
 3825 003c 154B     		ldr	r3, .L158+20
 3826 003e 9A42     		cmp	r2, r3
 3827 0040 18D0     		beq	.L157
 3828 0042 7A68     		ldr	r2, [r7, #4]
 3829 0044 144B     		ldr	r3, .L158+24
 3830 0046 9A42     		cmp	r2, r3
 3831 0048 14D0     		beq	.L157
 3832 004a 7A68     		ldr	r2, [r7, #4]
 3833 004c 134B     		ldr	r3, .L158+28
 3834 004e 9A42     		cmp	r2, r3
 3835 0050 10D0     		beq	.L157
 3836 0052 7A68     		ldr	r2, [r7, #4]
 3837 0054 124B     		ldr	r3, .L158+32
 3838 0056 9A42     		cmp	r2, r3
 3839 0058 0CD0     		beq	.L157
 3840 005a 7A68     		ldr	r2, [r7, #4]
 3841 005c 114B     		ldr	r3, .L158+36
 3842 005e 9A42     		cmp	r2, r3
 3843 0060 08D0     		beq	.L157
 3844 0062 7A68     		ldr	r2, [r7, #4]
 3845 0064 104B     		ldr	r3, .L158+40
 3846 0066 9A42     		cmp	r2, r3
 3847 0068 04D0     		beq	.L157
 3848 006a 1048     		ldr	r0, .L158+44
 3849 006c 40F21F41 		movw	r1, #1055
 3850 0070 FFF7FEFF 		bl	assert_failed
 3851              	.L157:
1056:App/STM32F4-Discovery/Libraries/STM32F4xx_StdPeriph_Driver/src/stm32f4xx_tim.c **** 
1057:App/STM32F4-Discovery/Libraries/STM32F4xx_StdPeriph_Driver/src/stm32f4xx_tim.c ****   /* Set the Capture Compare1 Register value */
1058:App/STM32F4-Discovery/Libraries/STM32F4xx_StdPeriph_Driver/src/stm32f4xx_tim.c ****   TIMx->CCR1 = Compare1;
 3852              		.loc 1 1058 0 is_stmt 1
 3853 0074 7B68     		ldr	r3, [r7, #4]
 3854 0076 3A68     		ldr	r2, [r7]
 3855 0078 5A63     		str	r2, [r3, #52]
1059:App/STM32F4-Discovery/Libraries/STM32F4xx_StdPeriph_Driver/src/stm32f4xx_tim.c **** }
 3856              		.loc 1 1059 0
 3857 007a 0837     		adds	r7, r7, #8
 3858 007c BD46     		mov	sp, r7
 3859              		@ sp needed
 3860 007e 80BD     		pop	{r7, pc}
 3861              	.L159:
 3862              		.align	2
 3863              	.L158:
 3864 0080 00000140 		.word	1073807360
 3865 0084 00040040 		.word	1073742848
 3866 0088 00080040 		.word	1073743872
 3867 008c 000C0040 		.word	1073744896
 3868 0090 00040140 		.word	1073808384
 3869 0094 00400140 		.word	1073823744
 3870 0098 00440140 		.word	1073824768
 3871 009c 00480140 		.word	1073825792
 3872 00a0 00180040 		.word	1073747968
 3873 00a4 001C0040 		.word	1073748992
 3874 00a8 00200040 		.word	1073750016
 3875 00ac 00000000 		.word	.LC0
 3876              		.cfi_endproc
 3877              	.LFE131:
 3879              		.section	.text.TIM_SetCompare2,"ax",%progbits
 3880              		.align	2
 3881              		.global	TIM_SetCompare2
 3882              		.thumb
 3883              		.thumb_func
 3885              	TIM_SetCompare2:
 3886              	.LFB132:
1060:App/STM32F4-Discovery/Libraries/STM32F4xx_StdPeriph_Driver/src/stm32f4xx_tim.c **** 
1061:App/STM32F4-Discovery/Libraries/STM32F4xx_StdPeriph_Driver/src/stm32f4xx_tim.c **** /**
1062:App/STM32F4-Discovery/Libraries/STM32F4xx_StdPeriph_Driver/src/stm32f4xx_tim.c ****   * @brief  Sets the TIMx Capture Compare2 Register value
1063:App/STM32F4-Discovery/Libraries/STM32F4xx_StdPeriph_Driver/src/stm32f4xx_tim.c ****   * @param  TIMx: where x can be 1, 2, 3, 4, 5, 8, 9 or 12 to select the TIM 
1064:App/STM32F4-Discovery/Libraries/STM32F4xx_StdPeriph_Driver/src/stm32f4xx_tim.c ****   *         peripheral.
1065:App/STM32F4-Discovery/Libraries/STM32F4xx_StdPeriph_Driver/src/stm32f4xx_tim.c ****   * @param  Compare2: specifies the Capture Compare2 register new value.
1066:App/STM32F4-Discovery/Libraries/STM32F4xx_StdPeriph_Driver/src/stm32f4xx_tim.c ****   * @retval None
1067:App/STM32F4-Discovery/Libraries/STM32F4xx_StdPeriph_Driver/src/stm32f4xx_tim.c ****   */
1068:App/STM32F4-Discovery/Libraries/STM32F4xx_StdPeriph_Driver/src/stm32f4xx_tim.c **** void TIM_SetCompare2(TIM_TypeDef* TIMx, uint32_t Compare2)
1069:App/STM32F4-Discovery/Libraries/STM32F4xx_StdPeriph_Driver/src/stm32f4xx_tim.c **** {
 3887              		.loc 1 1069 0
 3888              		.cfi_startproc
 3889              		@ args = 0, pretend = 0, frame = 8
 3890              		@ frame_needed = 1, uses_anonymous_args = 0
 3891 0000 80B5     		push	{r7, lr}
 3892              	.LCFI66:
 3893              		.cfi_def_cfa_offset 8
 3894              		.cfi_offset 7, -8
 3895              		.cfi_offset 14, -4
 3896 0002 82B0     		sub	sp, sp, #8
 3897              	.LCFI67:
 3898              		.cfi_def_cfa_offset 16
 3899 0004 00AF     		add	r7, sp, #0
 3900              	.LCFI68:
 3901              		.cfi_def_cfa_register 7
 3902 0006 7860     		str	r0, [r7, #4]
 3903 0008 3960     		str	r1, [r7]
1070:App/STM32F4-Discovery/Libraries/STM32F4xx_StdPeriph_Driver/src/stm32f4xx_tim.c ****   /* Check the parameters */
1071:App/STM32F4-Discovery/Libraries/STM32F4xx_StdPeriph_Driver/src/stm32f4xx_tim.c ****   assert_param(IS_TIM_LIST2_PERIPH(TIMx));
 3904              		.loc 1 1071 0
 3905 000a 7A68     		ldr	r2, [r7, #4]
 3906 000c 144B     		ldr	r3, .L162
 3907 000e 9A42     		cmp	r2, r3
 3908 0010 20D0     		beq	.L161
 3909              		.loc 1 1071 0 is_stmt 0 discriminator 1
 3910 0012 7B68     		ldr	r3, [r7, #4]
 3911 0014 B3F1804F 		cmp	r3, #1073741824
 3912 0018 1CD0     		beq	.L161
 3913 001a 7A68     		ldr	r2, [r7, #4]
 3914 001c 114B     		ldr	r3, .L162+4
 3915 001e 9A42     		cmp	r2, r3
 3916 0020 18D0     		beq	.L161
 3917 0022 7A68     		ldr	r2, [r7, #4]
 3918 0024 104B     		ldr	r3, .L162+8
 3919 0026 9A42     		cmp	r2, r3
 3920 0028 14D0     		beq	.L161
 3921 002a 7A68     		ldr	r2, [r7, #4]
 3922 002c 0F4B     		ldr	r3, .L162+12
 3923 002e 9A42     		cmp	r2, r3
 3924 0030 10D0     		beq	.L161
 3925 0032 7A68     		ldr	r2, [r7, #4]
 3926 0034 0E4B     		ldr	r3, .L162+16
 3927 0036 9A42     		cmp	r2, r3
 3928 0038 0CD0     		beq	.L161
 3929 003a 7A68     		ldr	r2, [r7, #4]
 3930 003c 0D4B     		ldr	r3, .L162+20
 3931 003e 9A42     		cmp	r2, r3
 3932 0040 08D0     		beq	.L161
 3933 0042 7A68     		ldr	r2, [r7, #4]
 3934 0044 0C4B     		ldr	r3, .L162+24
 3935 0046 9A42     		cmp	r2, r3
 3936 0048 04D0     		beq	.L161
 3937 004a 0C48     		ldr	r0, .L162+28
 3938 004c 40F22F41 		movw	r1, #1071
 3939 0050 FFF7FEFF 		bl	assert_failed
 3940              	.L161:
1072:App/STM32F4-Discovery/Libraries/STM32F4xx_StdPeriph_Driver/src/stm32f4xx_tim.c **** 
1073:App/STM32F4-Discovery/Libraries/STM32F4xx_StdPeriph_Driver/src/stm32f4xx_tim.c ****   /* Set the Capture Compare2 Register value */
1074:App/STM32F4-Discovery/Libraries/STM32F4xx_StdPeriph_Driver/src/stm32f4xx_tim.c ****   TIMx->CCR2 = Compare2;
 3941              		.loc 1 1074 0 is_stmt 1
 3942 0054 7B68     		ldr	r3, [r7, #4]
 3943 0056 3A68     		ldr	r2, [r7]
 3944 0058 9A63     		str	r2, [r3, #56]
1075:App/STM32F4-Discovery/Libraries/STM32F4xx_StdPeriph_Driver/src/stm32f4xx_tim.c **** }
 3945              		.loc 1 1075 0
 3946 005a 0837     		adds	r7, r7, #8
 3947 005c BD46     		mov	sp, r7
 3948              		@ sp needed
 3949 005e 80BD     		pop	{r7, pc}
 3950              	.L163:
 3951              		.align	2
 3952              	.L162:
 3953 0060 00000140 		.word	1073807360
 3954 0064 00040040 		.word	1073742848
 3955 0068 00080040 		.word	1073743872
 3956 006c 000C0040 		.word	1073744896
 3957 0070 00040140 		.word	1073808384
 3958 0074 00400140 		.word	1073823744
 3959 0078 00180040 		.word	1073747968
 3960 007c 00000000 		.word	.LC0
 3961              		.cfi_endproc
 3962              	.LFE132:
 3964              		.section	.text.TIM_SetCompare3,"ax",%progbits
 3965              		.align	2
 3966              		.global	TIM_SetCompare3
 3967              		.thumb
 3968              		.thumb_func
 3970              	TIM_SetCompare3:
 3971              	.LFB133:
1076:App/STM32F4-Discovery/Libraries/STM32F4xx_StdPeriph_Driver/src/stm32f4xx_tim.c **** 
1077:App/STM32F4-Discovery/Libraries/STM32F4xx_StdPeriph_Driver/src/stm32f4xx_tim.c **** /**
1078:App/STM32F4-Discovery/Libraries/STM32F4xx_StdPeriph_Driver/src/stm32f4xx_tim.c ****   * @brief  Sets the TIMx Capture Compare3 Register value
1079:App/STM32F4-Discovery/Libraries/STM32F4xx_StdPeriph_Driver/src/stm32f4xx_tim.c ****   * @param  TIMx: where x can be 1, 2, 3, 4, 5 or 8 to select the TIM peripheral.
1080:App/STM32F4-Discovery/Libraries/STM32F4xx_StdPeriph_Driver/src/stm32f4xx_tim.c ****   * @param  Compare3: specifies the Capture Compare3 register new value.
1081:App/STM32F4-Discovery/Libraries/STM32F4xx_StdPeriph_Driver/src/stm32f4xx_tim.c ****   * @retval None
1082:App/STM32F4-Discovery/Libraries/STM32F4xx_StdPeriph_Driver/src/stm32f4xx_tim.c ****   */
1083:App/STM32F4-Discovery/Libraries/STM32F4xx_StdPeriph_Driver/src/stm32f4xx_tim.c **** void TIM_SetCompare3(TIM_TypeDef* TIMx, uint32_t Compare3)
1084:App/STM32F4-Discovery/Libraries/STM32F4xx_StdPeriph_Driver/src/stm32f4xx_tim.c **** {
 3972              		.loc 1 1084 0
 3973              		.cfi_startproc
 3974              		@ args = 0, pretend = 0, frame = 8
 3975              		@ frame_needed = 1, uses_anonymous_args = 0
 3976 0000 80B5     		push	{r7, lr}
 3977              	.LCFI69:
 3978              		.cfi_def_cfa_offset 8
 3979              		.cfi_offset 7, -8
 3980              		.cfi_offset 14, -4
 3981 0002 82B0     		sub	sp, sp, #8
 3982              	.LCFI70:
 3983              		.cfi_def_cfa_offset 16
 3984 0004 00AF     		add	r7, sp, #0
 3985              	.LCFI71:
 3986              		.cfi_def_cfa_register 7
 3987 0006 7860     		str	r0, [r7, #4]
 3988 0008 3960     		str	r1, [r7]
1085:App/STM32F4-Discovery/Libraries/STM32F4xx_StdPeriph_Driver/src/stm32f4xx_tim.c ****   /* Check the parameters */
1086:App/STM32F4-Discovery/Libraries/STM32F4xx_StdPeriph_Driver/src/stm32f4xx_tim.c ****   assert_param(IS_TIM_LIST3_PERIPH(TIMx));
 3989              		.loc 1 1086 0
 3990 000a 7A68     		ldr	r2, [r7, #4]
 3991 000c 104B     		ldr	r3, .L166
 3992 000e 9A42     		cmp	r2, r3
 3993 0010 18D0     		beq	.L165
 3994              		.loc 1 1086 0 is_stmt 0 discriminator 1
 3995 0012 7B68     		ldr	r3, [r7, #4]
 3996 0014 B3F1804F 		cmp	r3, #1073741824
 3997 0018 14D0     		beq	.L165
 3998 001a 7A68     		ldr	r2, [r7, #4]
 3999 001c 0D4B     		ldr	r3, .L166+4
 4000 001e 9A42     		cmp	r2, r3
 4001 0020 10D0     		beq	.L165
 4002 0022 7A68     		ldr	r2, [r7, #4]
 4003 0024 0C4B     		ldr	r3, .L166+8
 4004 0026 9A42     		cmp	r2, r3
 4005 0028 0CD0     		beq	.L165
 4006 002a 7A68     		ldr	r2, [r7, #4]
 4007 002c 0B4B     		ldr	r3, .L166+12
 4008 002e 9A42     		cmp	r2, r3
 4009 0030 08D0     		beq	.L165
 4010 0032 7A68     		ldr	r2, [r7, #4]
 4011 0034 0A4B     		ldr	r3, .L166+16
 4012 0036 9A42     		cmp	r2, r3
 4013 0038 04D0     		beq	.L165
 4014 003a 0A48     		ldr	r0, .L166+20
 4015 003c 40F23E41 		movw	r1, #1086
 4016 0040 FFF7FEFF 		bl	assert_failed
 4017              	.L165:
1087:App/STM32F4-Discovery/Libraries/STM32F4xx_StdPeriph_Driver/src/stm32f4xx_tim.c **** 
1088:App/STM32F4-Discovery/Libraries/STM32F4xx_StdPeriph_Driver/src/stm32f4xx_tim.c ****   /* Set the Capture Compare3 Register value */
1089:App/STM32F4-Discovery/Libraries/STM32F4xx_StdPeriph_Driver/src/stm32f4xx_tim.c ****   TIMx->CCR3 = Compare3;
 4018              		.loc 1 1089 0 is_stmt 1
 4019 0044 7B68     		ldr	r3, [r7, #4]
 4020 0046 3A68     		ldr	r2, [r7]
 4021 0048 DA63     		str	r2, [r3, #60]
1090:App/STM32F4-Discovery/Libraries/STM32F4xx_StdPeriph_Driver/src/stm32f4xx_tim.c **** }
 4022              		.loc 1 1090 0
 4023 004a 0837     		adds	r7, r7, #8
 4024 004c BD46     		mov	sp, r7
 4025              		@ sp needed
 4026 004e 80BD     		pop	{r7, pc}
 4027              	.L167:
 4028              		.align	2
 4029              	.L166:
 4030 0050 00000140 		.word	1073807360
 4031 0054 00040040 		.word	1073742848
 4032 0058 00080040 		.word	1073743872
 4033 005c 000C0040 		.word	1073744896
 4034 0060 00040140 		.word	1073808384
 4035 0064 00000000 		.word	.LC0
 4036              		.cfi_endproc
 4037              	.LFE133:
 4039              		.section	.text.TIM_SetCompare4,"ax",%progbits
 4040              		.align	2
 4041              		.global	TIM_SetCompare4
 4042              		.thumb
 4043              		.thumb_func
 4045              	TIM_SetCompare4:
 4046              	.LFB134:
1091:App/STM32F4-Discovery/Libraries/STM32F4xx_StdPeriph_Driver/src/stm32f4xx_tim.c **** 
1092:App/STM32F4-Discovery/Libraries/STM32F4xx_StdPeriph_Driver/src/stm32f4xx_tim.c **** /**
1093:App/STM32F4-Discovery/Libraries/STM32F4xx_StdPeriph_Driver/src/stm32f4xx_tim.c ****   * @brief  Sets the TIMx Capture Compare4 Register value
1094:App/STM32F4-Discovery/Libraries/STM32F4xx_StdPeriph_Driver/src/stm32f4xx_tim.c ****   * @param  TIMx: where x can be 1, 2, 3, 4, 5 or 8 to select the TIM peripheral.
1095:App/STM32F4-Discovery/Libraries/STM32F4xx_StdPeriph_Driver/src/stm32f4xx_tim.c ****   * @param  Compare4: specifies the Capture Compare4 register new value.
1096:App/STM32F4-Discovery/Libraries/STM32F4xx_StdPeriph_Driver/src/stm32f4xx_tim.c ****   * @retval None
1097:App/STM32F4-Discovery/Libraries/STM32F4xx_StdPeriph_Driver/src/stm32f4xx_tim.c ****   */
1098:App/STM32F4-Discovery/Libraries/STM32F4xx_StdPeriph_Driver/src/stm32f4xx_tim.c **** void TIM_SetCompare4(TIM_TypeDef* TIMx, uint32_t Compare4)
1099:App/STM32F4-Discovery/Libraries/STM32F4xx_StdPeriph_Driver/src/stm32f4xx_tim.c **** {
 4047              		.loc 1 1099 0
 4048              		.cfi_startproc
 4049              		@ args = 0, pretend = 0, frame = 8
 4050              		@ frame_needed = 1, uses_anonymous_args = 0
 4051 0000 80B5     		push	{r7, lr}
 4052              	.LCFI72:
 4053              		.cfi_def_cfa_offset 8
 4054              		.cfi_offset 7, -8
 4055              		.cfi_offset 14, -4
 4056 0002 82B0     		sub	sp, sp, #8
 4057              	.LCFI73:
 4058              		.cfi_def_cfa_offset 16
 4059 0004 00AF     		add	r7, sp, #0
 4060              	.LCFI74:
 4061              		.cfi_def_cfa_register 7
 4062 0006 7860     		str	r0, [r7, #4]
 4063 0008 3960     		str	r1, [r7]
1100:App/STM32F4-Discovery/Libraries/STM32F4xx_StdPeriph_Driver/src/stm32f4xx_tim.c ****   /* Check the parameters */
1101:App/STM32F4-Discovery/Libraries/STM32F4xx_StdPeriph_Driver/src/stm32f4xx_tim.c ****   assert_param(IS_TIM_LIST3_PERIPH(TIMx));
 4064              		.loc 1 1101 0
 4065 000a 7A68     		ldr	r2, [r7, #4]
 4066 000c 104B     		ldr	r3, .L170
 4067 000e 9A42     		cmp	r2, r3
 4068 0010 18D0     		beq	.L169
 4069              		.loc 1 1101 0 is_stmt 0 discriminator 1
 4070 0012 7B68     		ldr	r3, [r7, #4]
 4071 0014 B3F1804F 		cmp	r3, #1073741824
 4072 0018 14D0     		beq	.L169
 4073 001a 7A68     		ldr	r2, [r7, #4]
 4074 001c 0D4B     		ldr	r3, .L170+4
 4075 001e 9A42     		cmp	r2, r3
 4076 0020 10D0     		beq	.L169
 4077 0022 7A68     		ldr	r2, [r7, #4]
 4078 0024 0C4B     		ldr	r3, .L170+8
 4079 0026 9A42     		cmp	r2, r3
 4080 0028 0CD0     		beq	.L169
 4081 002a 7A68     		ldr	r2, [r7, #4]
 4082 002c 0B4B     		ldr	r3, .L170+12
 4083 002e 9A42     		cmp	r2, r3
 4084 0030 08D0     		beq	.L169
 4085 0032 7A68     		ldr	r2, [r7, #4]
 4086 0034 0A4B     		ldr	r3, .L170+16
 4087 0036 9A42     		cmp	r2, r3
 4088 0038 04D0     		beq	.L169
 4089 003a 0A48     		ldr	r0, .L170+20
 4090 003c 40F24D41 		movw	r1, #1101
 4091 0040 FFF7FEFF 		bl	assert_failed
 4092              	.L169:
1102:App/STM32F4-Discovery/Libraries/STM32F4xx_StdPeriph_Driver/src/stm32f4xx_tim.c **** 
1103:App/STM32F4-Discovery/Libraries/STM32F4xx_StdPeriph_Driver/src/stm32f4xx_tim.c ****   /* Set the Capture Compare4 Register value */
1104:App/STM32F4-Discovery/Libraries/STM32F4xx_StdPeriph_Driver/src/stm32f4xx_tim.c ****   TIMx->CCR4 = Compare4;
 4093              		.loc 1 1104 0 is_stmt 1
 4094 0044 7B68     		ldr	r3, [r7, #4]
 4095 0046 3A68     		ldr	r2, [r7]
 4096 0048 1A64     		str	r2, [r3, #64]
1105:App/STM32F4-Discovery/Libraries/STM32F4xx_StdPeriph_Driver/src/stm32f4xx_tim.c **** }
 4097              		.loc 1 1105 0
 4098 004a 0837     		adds	r7, r7, #8
 4099 004c BD46     		mov	sp, r7
 4100              		@ sp needed
 4101 004e 80BD     		pop	{r7, pc}
 4102              	.L171:
 4103              		.align	2
 4104              	.L170:
 4105 0050 00000140 		.word	1073807360
 4106 0054 00040040 		.word	1073742848
 4107 0058 00080040 		.word	1073743872
 4108 005c 000C0040 		.word	1073744896
 4109 0060 00040140 		.word	1073808384
 4110 0064 00000000 		.word	.LC0
 4111              		.cfi_endproc
 4112              	.LFE134:
 4114              		.section	.text.TIM_ForcedOC1Config,"ax",%progbits
 4115              		.align	2
 4116              		.global	TIM_ForcedOC1Config
 4117              		.thumb
 4118              		.thumb_func
 4120              	TIM_ForcedOC1Config:
 4121              	.LFB135:
1106:App/STM32F4-Discovery/Libraries/STM32F4xx_StdPeriph_Driver/src/stm32f4xx_tim.c **** 
1107:App/STM32F4-Discovery/Libraries/STM32F4xx_StdPeriph_Driver/src/stm32f4xx_tim.c **** /**
1108:App/STM32F4-Discovery/Libraries/STM32F4xx_StdPeriph_Driver/src/stm32f4xx_tim.c ****   * @brief  Forces the TIMx output 1 waveform to active or inactive level.
1109:App/STM32F4-Discovery/Libraries/STM32F4xx_StdPeriph_Driver/src/stm32f4xx_tim.c ****   * @param  TIMx: where x can be 1 to 14 except 6 and 7, to select the TIM peripheral.
1110:App/STM32F4-Discovery/Libraries/STM32F4xx_StdPeriph_Driver/src/stm32f4xx_tim.c ****   * @param  TIM_ForcedAction: specifies the forced Action to be set to the output waveform.
1111:App/STM32F4-Discovery/Libraries/STM32F4xx_StdPeriph_Driver/src/stm32f4xx_tim.c ****   *          This parameter can be one of the following values:
1112:App/STM32F4-Discovery/Libraries/STM32F4xx_StdPeriph_Driver/src/stm32f4xx_tim.c ****   *            @arg TIM_ForcedAction_Active: Force active level on OC1REF
1113:App/STM32F4-Discovery/Libraries/STM32F4xx_StdPeriph_Driver/src/stm32f4xx_tim.c ****   *            @arg TIM_ForcedAction_InActive: Force inactive level on OC1REF.
1114:App/STM32F4-Discovery/Libraries/STM32F4xx_StdPeriph_Driver/src/stm32f4xx_tim.c ****   * @retval None
1115:App/STM32F4-Discovery/Libraries/STM32F4xx_StdPeriph_Driver/src/stm32f4xx_tim.c ****   */
1116:App/STM32F4-Discovery/Libraries/STM32F4xx_StdPeriph_Driver/src/stm32f4xx_tim.c **** void TIM_ForcedOC1Config(TIM_TypeDef* TIMx, uint16_t TIM_ForcedAction)
1117:App/STM32F4-Discovery/Libraries/STM32F4xx_StdPeriph_Driver/src/stm32f4xx_tim.c **** {
 4122              		.loc 1 1117 0
 4123              		.cfi_startproc
 4124              		@ args = 0, pretend = 0, frame = 16
 4125              		@ frame_needed = 1, uses_anonymous_args = 0
 4126 0000 80B5     		push	{r7, lr}
 4127              	.LCFI75:
 4128              		.cfi_def_cfa_offset 8
 4129              		.cfi_offset 7, -8
 4130              		.cfi_offset 14, -4
 4131 0002 84B0     		sub	sp, sp, #16
 4132              	.LCFI76:
 4133              		.cfi_def_cfa_offset 24
 4134 0004 00AF     		add	r7, sp, #0
 4135              	.LCFI77:
 4136              		.cfi_def_cfa_register 7
 4137 0006 7860     		str	r0, [r7, #4]
 4138 0008 0B46     		mov	r3, r1
 4139 000a 7B80     		strh	r3, [r7, #2]	@ movhi
1118:App/STM32F4-Discovery/Libraries/STM32F4xx_StdPeriph_Driver/src/stm32f4xx_tim.c ****   uint16_t tmpccmr1 = 0;
 4140              		.loc 1 1118 0
 4141 000c 0023     		movs	r3, #0
 4142 000e FB81     		strh	r3, [r7, #14]	@ movhi
1119:App/STM32F4-Discovery/Libraries/STM32F4xx_StdPeriph_Driver/src/stm32f4xx_tim.c **** 
1120:App/STM32F4-Discovery/Libraries/STM32F4xx_StdPeriph_Driver/src/stm32f4xx_tim.c ****   /* Check the parameters */
1121:App/STM32F4-Discovery/Libraries/STM32F4xx_StdPeriph_Driver/src/stm32f4xx_tim.c ****   assert_param(IS_TIM_LIST1_PERIPH(TIMx));
 4143              		.loc 1 1121 0
 4144 0010 7A68     		ldr	r2, [r7, #4]
 4145 0012 284B     		ldr	r3, .L175
 4146 0014 9A42     		cmp	r2, r3
 4147 0016 30D0     		beq	.L173
 4148              		.loc 1 1121 0 is_stmt 0 discriminator 1
 4149 0018 7B68     		ldr	r3, [r7, #4]
 4150 001a B3F1804F 		cmp	r3, #1073741824
 4151 001e 2CD0     		beq	.L173
 4152 0020 7A68     		ldr	r2, [r7, #4]
 4153 0022 254B     		ldr	r3, .L175+4
 4154 0024 9A42     		cmp	r2, r3
 4155 0026 28D0     		beq	.L173
 4156 0028 7A68     		ldr	r2, [r7, #4]
 4157 002a 244B     		ldr	r3, .L175+8
 4158 002c 9A42     		cmp	r2, r3
 4159 002e 24D0     		beq	.L173
 4160 0030 7A68     		ldr	r2, [r7, #4]
 4161 0032 234B     		ldr	r3, .L175+12
 4162 0034 9A42     		cmp	r2, r3
 4163 0036 20D0     		beq	.L173
 4164 0038 7A68     		ldr	r2, [r7, #4]
 4165 003a 224B     		ldr	r3, .L175+16
 4166 003c 9A42     		cmp	r2, r3
 4167 003e 1CD0     		beq	.L173
 4168 0040 7A68     		ldr	r2, [r7, #4]
 4169 0042 214B     		ldr	r3, .L175+20
 4170 0044 9A42     		cmp	r2, r3
 4171 0046 18D0     		beq	.L173
 4172 0048 7A68     		ldr	r2, [r7, #4]
 4173 004a 204B     		ldr	r3, .L175+24
 4174 004c 9A42     		cmp	r2, r3
 4175 004e 14D0     		beq	.L173
 4176 0050 7A68     		ldr	r2, [r7, #4]
 4177 0052 1F4B     		ldr	r3, .L175+28
 4178 0054 9A42     		cmp	r2, r3
 4179 0056 10D0     		beq	.L173
 4180 0058 7A68     		ldr	r2, [r7, #4]
 4181 005a 1E4B     		ldr	r3, .L175+32
 4182 005c 9A42     		cmp	r2, r3
 4183 005e 0CD0     		beq	.L173
 4184 0060 7A68     		ldr	r2, [r7, #4]
 4185 0062 1D4B     		ldr	r3, .L175+36
 4186 0064 9A42     		cmp	r2, r3
 4187 0066 08D0     		beq	.L173
 4188 0068 7A68     		ldr	r2, [r7, #4]
 4189 006a 1C4B     		ldr	r3, .L175+40
 4190 006c 9A42     		cmp	r2, r3
 4191 006e 04D0     		beq	.L173
 4192 0070 1B48     		ldr	r0, .L175+44
 4193 0072 40F26141 		movw	r1, #1121
 4194 0076 FFF7FEFF 		bl	assert_failed
 4195              	.L173:
1122:App/STM32F4-Discovery/Libraries/STM32F4xx_StdPeriph_Driver/src/stm32f4xx_tim.c ****   assert_param(IS_TIM_FORCED_ACTION(TIM_ForcedAction));
 4196              		.loc 1 1122 0 is_stmt 1
 4197 007a 7B88     		ldrh	r3, [r7, #2]
 4198 007c 502B     		cmp	r3, #80
 4199 007e 07D0     		beq	.L174
 4200              		.loc 1 1122 0 is_stmt 0 discriminator 1
 4201 0080 7B88     		ldrh	r3, [r7, #2]
 4202 0082 402B     		cmp	r3, #64
 4203 0084 04D0     		beq	.L174
 4204 0086 1648     		ldr	r0, .L175+44
 4205 0088 40F26241 		movw	r1, #1122
 4206 008c FFF7FEFF 		bl	assert_failed
 4207              	.L174:
1123:App/STM32F4-Discovery/Libraries/STM32F4xx_StdPeriph_Driver/src/stm32f4xx_tim.c ****   tmpccmr1 = TIMx->CCMR1;
 4208              		.loc 1 1123 0 is_stmt 1
 4209 0090 7B68     		ldr	r3, [r7, #4]
 4210 0092 1B8B     		ldrh	r3, [r3, #24]	@ movhi
 4211 0094 FB81     		strh	r3, [r7, #14]	@ movhi
1124:App/STM32F4-Discovery/Libraries/STM32F4xx_StdPeriph_Driver/src/stm32f4xx_tim.c **** 
1125:App/STM32F4-Discovery/Libraries/STM32F4xx_StdPeriph_Driver/src/stm32f4xx_tim.c ****   /* Reset the OC1M Bits */
1126:App/STM32F4-Discovery/Libraries/STM32F4xx_StdPeriph_Driver/src/stm32f4xx_tim.c ****   tmpccmr1 &= (uint16_t)~TIM_CCMR1_OC1M;
 4212              		.loc 1 1126 0
 4213 0096 FB89     		ldrh	r3, [r7, #14]	@ movhi
 4214 0098 23F07003 		bic	r3, r3, #112
 4215 009c FB81     		strh	r3, [r7, #14]	@ movhi
1127:App/STM32F4-Discovery/Libraries/STM32F4xx_StdPeriph_Driver/src/stm32f4xx_tim.c **** 
1128:App/STM32F4-Discovery/Libraries/STM32F4xx_StdPeriph_Driver/src/stm32f4xx_tim.c ****   /* Configure The Forced output Mode */
1129:App/STM32F4-Discovery/Libraries/STM32F4xx_StdPeriph_Driver/src/stm32f4xx_tim.c ****   tmpccmr1 |= TIM_ForcedAction;
 4216              		.loc 1 1129 0
 4217 009e FA89     		ldrh	r2, [r7, #14]	@ movhi
 4218 00a0 7B88     		ldrh	r3, [r7, #2]	@ movhi
 4219 00a2 1343     		orrs	r3, r3, r2
 4220 00a4 FB81     		strh	r3, [r7, #14]	@ movhi
1130:App/STM32F4-Discovery/Libraries/STM32F4xx_StdPeriph_Driver/src/stm32f4xx_tim.c **** 
1131:App/STM32F4-Discovery/Libraries/STM32F4xx_StdPeriph_Driver/src/stm32f4xx_tim.c ****   /* Write to TIMx CCMR1 register */
1132:App/STM32F4-Discovery/Libraries/STM32F4xx_StdPeriph_Driver/src/stm32f4xx_tim.c ****   TIMx->CCMR1 = tmpccmr1;
 4221              		.loc 1 1132 0
 4222 00a6 7B68     		ldr	r3, [r7, #4]
 4223 00a8 FA89     		ldrh	r2, [r7, #14]	@ movhi
 4224 00aa 1A83     		strh	r2, [r3, #24]	@ movhi
1133:App/STM32F4-Discovery/Libraries/STM32F4xx_StdPeriph_Driver/src/stm32f4xx_tim.c **** }
 4225              		.loc 1 1133 0
 4226 00ac 1037     		adds	r7, r7, #16
 4227 00ae BD46     		mov	sp, r7
 4228              		@ sp needed
 4229 00b0 80BD     		pop	{r7, pc}
 4230              	.L176:
 4231 00b2 00BF     		.align	2
 4232              	.L175:
 4233 00b4 00000140 		.word	1073807360
 4234 00b8 00040040 		.word	1073742848
 4235 00bc 00080040 		.word	1073743872
 4236 00c0 000C0040 		.word	1073744896
 4237 00c4 00040140 		.word	1073808384
 4238 00c8 00400140 		.word	1073823744
 4239 00cc 00440140 		.word	1073824768
 4240 00d0 00480140 		.word	1073825792
 4241 00d4 00180040 		.word	1073747968
 4242 00d8 001C0040 		.word	1073748992
 4243 00dc 00200040 		.word	1073750016
 4244 00e0 00000000 		.word	.LC0
 4245              		.cfi_endproc
 4246              	.LFE135:
 4248              		.section	.text.TIM_ForcedOC2Config,"ax",%progbits
 4249              		.align	2
 4250              		.global	TIM_ForcedOC2Config
 4251              		.thumb
 4252              		.thumb_func
 4254              	TIM_ForcedOC2Config:
 4255              	.LFB136:
1134:App/STM32F4-Discovery/Libraries/STM32F4xx_StdPeriph_Driver/src/stm32f4xx_tim.c **** 
1135:App/STM32F4-Discovery/Libraries/STM32F4xx_StdPeriph_Driver/src/stm32f4xx_tim.c **** /**
1136:App/STM32F4-Discovery/Libraries/STM32F4xx_StdPeriph_Driver/src/stm32f4xx_tim.c ****   * @brief  Forces the TIMx output 2 waveform to active or inactive level.
1137:App/STM32F4-Discovery/Libraries/STM32F4xx_StdPeriph_Driver/src/stm32f4xx_tim.c ****   * @param  TIMx: where x can be  1, 2, 3, 4, 5, 8, 9 or 12 to select the TIM 
1138:App/STM32F4-Discovery/Libraries/STM32F4xx_StdPeriph_Driver/src/stm32f4xx_tim.c ****   *         peripheral.
1139:App/STM32F4-Discovery/Libraries/STM32F4xx_StdPeriph_Driver/src/stm32f4xx_tim.c ****   * @param  TIM_ForcedAction: specifies the forced Action to be set to the output waveform.
1140:App/STM32F4-Discovery/Libraries/STM32F4xx_StdPeriph_Driver/src/stm32f4xx_tim.c ****   *          This parameter can be one of the following values:
1141:App/STM32F4-Discovery/Libraries/STM32F4xx_StdPeriph_Driver/src/stm32f4xx_tim.c ****   *            @arg TIM_ForcedAction_Active: Force active level on OC2REF
1142:App/STM32F4-Discovery/Libraries/STM32F4xx_StdPeriph_Driver/src/stm32f4xx_tim.c ****   *            @arg TIM_ForcedAction_InActive: Force inactive level on OC2REF.
1143:App/STM32F4-Discovery/Libraries/STM32F4xx_StdPeriph_Driver/src/stm32f4xx_tim.c ****   * @retval None
1144:App/STM32F4-Discovery/Libraries/STM32F4xx_StdPeriph_Driver/src/stm32f4xx_tim.c ****   */
1145:App/STM32F4-Discovery/Libraries/STM32F4xx_StdPeriph_Driver/src/stm32f4xx_tim.c **** void TIM_ForcedOC2Config(TIM_TypeDef* TIMx, uint16_t TIM_ForcedAction)
1146:App/STM32F4-Discovery/Libraries/STM32F4xx_StdPeriph_Driver/src/stm32f4xx_tim.c **** {
 4256              		.loc 1 1146 0
 4257              		.cfi_startproc
 4258              		@ args = 0, pretend = 0, frame = 16
 4259              		@ frame_needed = 1, uses_anonymous_args = 0
 4260 0000 80B5     		push	{r7, lr}
 4261              	.LCFI78:
 4262              		.cfi_def_cfa_offset 8
 4263              		.cfi_offset 7, -8
 4264              		.cfi_offset 14, -4
 4265 0002 84B0     		sub	sp, sp, #16
 4266              	.LCFI79:
 4267              		.cfi_def_cfa_offset 24
 4268 0004 00AF     		add	r7, sp, #0
 4269              	.LCFI80:
 4270              		.cfi_def_cfa_register 7
 4271 0006 7860     		str	r0, [r7, #4]
 4272 0008 0B46     		mov	r3, r1
 4273 000a 7B80     		strh	r3, [r7, #2]	@ movhi
1147:App/STM32F4-Discovery/Libraries/STM32F4xx_StdPeriph_Driver/src/stm32f4xx_tim.c ****   uint16_t tmpccmr1 = 0;
 4274              		.loc 1 1147 0
 4275 000c 0023     		movs	r3, #0
 4276 000e FB81     		strh	r3, [r7, #14]	@ movhi
1148:App/STM32F4-Discovery/Libraries/STM32F4xx_StdPeriph_Driver/src/stm32f4xx_tim.c **** 
1149:App/STM32F4-Discovery/Libraries/STM32F4xx_StdPeriph_Driver/src/stm32f4xx_tim.c ****   /* Check the parameters */
1150:App/STM32F4-Discovery/Libraries/STM32F4xx_StdPeriph_Driver/src/stm32f4xx_tim.c ****   assert_param(IS_TIM_LIST2_PERIPH(TIMx));
 4277              		.loc 1 1150 0
 4278 0010 7A68     		ldr	r2, [r7, #4]
 4279 0012 214B     		ldr	r3, .L180
 4280 0014 9A42     		cmp	r2, r3
 4281 0016 20D0     		beq	.L178
 4282              		.loc 1 1150 0 is_stmt 0 discriminator 1
 4283 0018 7B68     		ldr	r3, [r7, #4]
 4284 001a B3F1804F 		cmp	r3, #1073741824
 4285 001e 1CD0     		beq	.L178
 4286 0020 7A68     		ldr	r2, [r7, #4]
 4287 0022 1E4B     		ldr	r3, .L180+4
 4288 0024 9A42     		cmp	r2, r3
 4289 0026 18D0     		beq	.L178
 4290 0028 7A68     		ldr	r2, [r7, #4]
 4291 002a 1D4B     		ldr	r3, .L180+8
 4292 002c 9A42     		cmp	r2, r3
 4293 002e 14D0     		beq	.L178
 4294 0030 7A68     		ldr	r2, [r7, #4]
 4295 0032 1C4B     		ldr	r3, .L180+12
 4296 0034 9A42     		cmp	r2, r3
 4297 0036 10D0     		beq	.L178
 4298 0038 7A68     		ldr	r2, [r7, #4]
 4299 003a 1B4B     		ldr	r3, .L180+16
 4300 003c 9A42     		cmp	r2, r3
 4301 003e 0CD0     		beq	.L178
 4302 0040 7A68     		ldr	r2, [r7, #4]
 4303 0042 1A4B     		ldr	r3, .L180+20
 4304 0044 9A42     		cmp	r2, r3
 4305 0046 08D0     		beq	.L178
 4306 0048 7A68     		ldr	r2, [r7, #4]
 4307 004a 194B     		ldr	r3, .L180+24
 4308 004c 9A42     		cmp	r2, r3
 4309 004e 04D0     		beq	.L178
 4310 0050 1848     		ldr	r0, .L180+28
 4311 0052 40F27E41 		movw	r1, #1150
 4312 0056 FFF7FEFF 		bl	assert_failed
 4313              	.L178:
1151:App/STM32F4-Discovery/Libraries/STM32F4xx_StdPeriph_Driver/src/stm32f4xx_tim.c ****   assert_param(IS_TIM_FORCED_ACTION(TIM_ForcedAction));
 4314              		.loc 1 1151 0 is_stmt 1
 4315 005a 7B88     		ldrh	r3, [r7, #2]
 4316 005c 502B     		cmp	r3, #80
 4317 005e 07D0     		beq	.L179
 4318              		.loc 1 1151 0 is_stmt 0 discriminator 1
 4319 0060 7B88     		ldrh	r3, [r7, #2]
 4320 0062 402B     		cmp	r3, #64
 4321 0064 04D0     		beq	.L179
 4322 0066 1348     		ldr	r0, .L180+28
 4323 0068 40F27F41 		movw	r1, #1151
 4324 006c FFF7FEFF 		bl	assert_failed
 4325              	.L179:
1152:App/STM32F4-Discovery/Libraries/STM32F4xx_StdPeriph_Driver/src/stm32f4xx_tim.c ****   tmpccmr1 = TIMx->CCMR1;
 4326              		.loc 1 1152 0 is_stmt 1
 4327 0070 7B68     		ldr	r3, [r7, #4]
 4328 0072 1B8B     		ldrh	r3, [r3, #24]	@ movhi
 4329 0074 FB81     		strh	r3, [r7, #14]	@ movhi
1153:App/STM32F4-Discovery/Libraries/STM32F4xx_StdPeriph_Driver/src/stm32f4xx_tim.c **** 
1154:App/STM32F4-Discovery/Libraries/STM32F4xx_StdPeriph_Driver/src/stm32f4xx_tim.c ****   /* Reset the OC2M Bits */
1155:App/STM32F4-Discovery/Libraries/STM32F4xx_StdPeriph_Driver/src/stm32f4xx_tim.c ****   tmpccmr1 &= (uint16_t)~TIM_CCMR1_OC2M;
 4330              		.loc 1 1155 0
 4331 0076 FB89     		ldrh	r3, [r7, #14]	@ movhi
 4332 0078 23F4E043 		bic	r3, r3, #28672
 4333 007c FB81     		strh	r3, [r7, #14]	@ movhi
1156:App/STM32F4-Discovery/Libraries/STM32F4xx_StdPeriph_Driver/src/stm32f4xx_tim.c **** 
1157:App/STM32F4-Discovery/Libraries/STM32F4xx_StdPeriph_Driver/src/stm32f4xx_tim.c ****   /* Configure The Forced output Mode */
1158:App/STM32F4-Discovery/Libraries/STM32F4xx_StdPeriph_Driver/src/stm32f4xx_tim.c ****   tmpccmr1 |= (uint16_t)(TIM_ForcedAction << 8);
 4334              		.loc 1 1158 0
 4335 007e 7B88     		ldrh	r3, [r7, #2]	@ movhi
 4336 0080 1B02     		lsls	r3, r3, #8
 4337 0082 9AB2     		uxth	r2, r3
 4338 0084 FB89     		ldrh	r3, [r7, #14]	@ movhi
 4339 0086 1343     		orrs	r3, r3, r2
 4340 0088 FB81     		strh	r3, [r7, #14]	@ movhi
1159:App/STM32F4-Discovery/Libraries/STM32F4xx_StdPeriph_Driver/src/stm32f4xx_tim.c **** 
1160:App/STM32F4-Discovery/Libraries/STM32F4xx_StdPeriph_Driver/src/stm32f4xx_tim.c ****   /* Write to TIMx CCMR1 register */
1161:App/STM32F4-Discovery/Libraries/STM32F4xx_StdPeriph_Driver/src/stm32f4xx_tim.c ****   TIMx->CCMR1 = tmpccmr1;
 4341              		.loc 1 1161 0
 4342 008a 7B68     		ldr	r3, [r7, #4]
 4343 008c FA89     		ldrh	r2, [r7, #14]	@ movhi
 4344 008e 1A83     		strh	r2, [r3, #24]	@ movhi
1162:App/STM32F4-Discovery/Libraries/STM32F4xx_StdPeriph_Driver/src/stm32f4xx_tim.c **** }
 4345              		.loc 1 1162 0
 4346 0090 1037     		adds	r7, r7, #16
 4347 0092 BD46     		mov	sp, r7
 4348              		@ sp needed
 4349 0094 80BD     		pop	{r7, pc}
 4350              	.L181:
 4351 0096 00BF     		.align	2
 4352              	.L180:
 4353 0098 00000140 		.word	1073807360
 4354 009c 00040040 		.word	1073742848
 4355 00a0 00080040 		.word	1073743872
 4356 00a4 000C0040 		.word	1073744896
 4357 00a8 00040140 		.word	1073808384
 4358 00ac 00400140 		.word	1073823744
 4359 00b0 00180040 		.word	1073747968
 4360 00b4 00000000 		.word	.LC0
 4361              		.cfi_endproc
 4362              	.LFE136:
 4364              		.section	.text.TIM_ForcedOC3Config,"ax",%progbits
 4365              		.align	2
 4366              		.global	TIM_ForcedOC3Config
 4367              		.thumb
 4368              		.thumb_func
 4370              	TIM_ForcedOC3Config:
 4371              	.LFB137:
1163:App/STM32F4-Discovery/Libraries/STM32F4xx_StdPeriph_Driver/src/stm32f4xx_tim.c **** 
1164:App/STM32F4-Discovery/Libraries/STM32F4xx_StdPeriph_Driver/src/stm32f4xx_tim.c **** /**
1165:App/STM32F4-Discovery/Libraries/STM32F4xx_StdPeriph_Driver/src/stm32f4xx_tim.c ****   * @brief  Forces the TIMx output 3 waveform to active or inactive level.
1166:App/STM32F4-Discovery/Libraries/STM32F4xx_StdPeriph_Driver/src/stm32f4xx_tim.c ****   * @param  TIMx: where x can be  1, 2, 3, 4, 5 or 8 to select the TIM peripheral.
1167:App/STM32F4-Discovery/Libraries/STM32F4xx_StdPeriph_Driver/src/stm32f4xx_tim.c ****   * @param  TIM_ForcedAction: specifies the forced Action to be set to the output waveform.
1168:App/STM32F4-Discovery/Libraries/STM32F4xx_StdPeriph_Driver/src/stm32f4xx_tim.c ****   *          This parameter can be one of the following values:
1169:App/STM32F4-Discovery/Libraries/STM32F4xx_StdPeriph_Driver/src/stm32f4xx_tim.c ****   *            @arg TIM_ForcedAction_Active: Force active level on OC3REF
1170:App/STM32F4-Discovery/Libraries/STM32F4xx_StdPeriph_Driver/src/stm32f4xx_tim.c ****   *            @arg TIM_ForcedAction_InActive: Force inactive level on OC3REF.
1171:App/STM32F4-Discovery/Libraries/STM32F4xx_StdPeriph_Driver/src/stm32f4xx_tim.c ****   * @retval None
1172:App/STM32F4-Discovery/Libraries/STM32F4xx_StdPeriph_Driver/src/stm32f4xx_tim.c ****   */
1173:App/STM32F4-Discovery/Libraries/STM32F4xx_StdPeriph_Driver/src/stm32f4xx_tim.c **** void TIM_ForcedOC3Config(TIM_TypeDef* TIMx, uint16_t TIM_ForcedAction)
1174:App/STM32F4-Discovery/Libraries/STM32F4xx_StdPeriph_Driver/src/stm32f4xx_tim.c **** {
 4372              		.loc 1 1174 0
 4373              		.cfi_startproc
 4374              		@ args = 0, pretend = 0, frame = 16
 4375              		@ frame_needed = 1, uses_anonymous_args = 0
 4376 0000 80B5     		push	{r7, lr}
 4377              	.LCFI81:
 4378              		.cfi_def_cfa_offset 8
 4379              		.cfi_offset 7, -8
 4380              		.cfi_offset 14, -4
 4381 0002 84B0     		sub	sp, sp, #16
 4382              	.LCFI82:
 4383              		.cfi_def_cfa_offset 24
 4384 0004 00AF     		add	r7, sp, #0
 4385              	.LCFI83:
 4386              		.cfi_def_cfa_register 7
 4387 0006 7860     		str	r0, [r7, #4]
 4388 0008 0B46     		mov	r3, r1
 4389 000a 7B80     		strh	r3, [r7, #2]	@ movhi
1175:App/STM32F4-Discovery/Libraries/STM32F4xx_StdPeriph_Driver/src/stm32f4xx_tim.c ****   uint16_t tmpccmr2 = 0;
 4390              		.loc 1 1175 0
 4391 000c 0023     		movs	r3, #0
 4392 000e FB81     		strh	r3, [r7, #14]	@ movhi
1176:App/STM32F4-Discovery/Libraries/STM32F4xx_StdPeriph_Driver/src/stm32f4xx_tim.c **** 
1177:App/STM32F4-Discovery/Libraries/STM32F4xx_StdPeriph_Driver/src/stm32f4xx_tim.c ****   /* Check the parameters */
1178:App/STM32F4-Discovery/Libraries/STM32F4xx_StdPeriph_Driver/src/stm32f4xx_tim.c ****   assert_param(IS_TIM_LIST3_PERIPH(TIMx));
 4393              		.loc 1 1178 0
 4394 0010 7A68     		ldr	r2, [r7, #4]
 4395 0012 1C4B     		ldr	r3, .L185
 4396 0014 9A42     		cmp	r2, r3
 4397 0016 18D0     		beq	.L183
 4398              		.loc 1 1178 0 is_stmt 0 discriminator 1
 4399 0018 7B68     		ldr	r3, [r7, #4]
 4400 001a B3F1804F 		cmp	r3, #1073741824
 4401 001e 14D0     		beq	.L183
 4402 0020 7A68     		ldr	r2, [r7, #4]
 4403 0022 194B     		ldr	r3, .L185+4
 4404 0024 9A42     		cmp	r2, r3
 4405 0026 10D0     		beq	.L183
 4406 0028 7A68     		ldr	r2, [r7, #4]
 4407 002a 184B     		ldr	r3, .L185+8
 4408 002c 9A42     		cmp	r2, r3
 4409 002e 0CD0     		beq	.L183
 4410 0030 7A68     		ldr	r2, [r7, #4]
 4411 0032 174B     		ldr	r3, .L185+12
 4412 0034 9A42     		cmp	r2, r3
 4413 0036 08D0     		beq	.L183
 4414 0038 7A68     		ldr	r2, [r7, #4]
 4415 003a 164B     		ldr	r3, .L185+16
 4416 003c 9A42     		cmp	r2, r3
 4417 003e 04D0     		beq	.L183
 4418 0040 1548     		ldr	r0, .L185+20
 4419 0042 40F29A41 		movw	r1, #1178
 4420 0046 FFF7FEFF 		bl	assert_failed
 4421              	.L183:
1179:App/STM32F4-Discovery/Libraries/STM32F4xx_StdPeriph_Driver/src/stm32f4xx_tim.c ****   assert_param(IS_TIM_FORCED_ACTION(TIM_ForcedAction));
 4422              		.loc 1 1179 0 is_stmt 1
 4423 004a 7B88     		ldrh	r3, [r7, #2]
 4424 004c 502B     		cmp	r3, #80
 4425 004e 07D0     		beq	.L184
 4426              		.loc 1 1179 0 is_stmt 0 discriminator 1
 4427 0050 7B88     		ldrh	r3, [r7, #2]
 4428 0052 402B     		cmp	r3, #64
 4429 0054 04D0     		beq	.L184
 4430 0056 1048     		ldr	r0, .L185+20
 4431 0058 40F29B41 		movw	r1, #1179
 4432 005c FFF7FEFF 		bl	assert_failed
 4433              	.L184:
1180:App/STM32F4-Discovery/Libraries/STM32F4xx_StdPeriph_Driver/src/stm32f4xx_tim.c **** 
1181:App/STM32F4-Discovery/Libraries/STM32F4xx_StdPeriph_Driver/src/stm32f4xx_tim.c ****   tmpccmr2 = TIMx->CCMR2;
 4434              		.loc 1 1181 0 is_stmt 1
 4435 0060 7B68     		ldr	r3, [r7, #4]
 4436 0062 9B8B     		ldrh	r3, [r3, #28]	@ movhi
 4437 0064 FB81     		strh	r3, [r7, #14]	@ movhi
1182:App/STM32F4-Discovery/Libraries/STM32F4xx_StdPeriph_Driver/src/stm32f4xx_tim.c **** 
1183:App/STM32F4-Discovery/Libraries/STM32F4xx_StdPeriph_Driver/src/stm32f4xx_tim.c ****   /* Reset the OC1M Bits */
1184:App/STM32F4-Discovery/Libraries/STM32F4xx_StdPeriph_Driver/src/stm32f4xx_tim.c ****   tmpccmr2 &= (uint16_t)~TIM_CCMR2_OC3M;
 4438              		.loc 1 1184 0
 4439 0066 FB89     		ldrh	r3, [r7, #14]	@ movhi
 4440 0068 23F07003 		bic	r3, r3, #112
 4441 006c FB81     		strh	r3, [r7, #14]	@ movhi
1185:App/STM32F4-Discovery/Libraries/STM32F4xx_StdPeriph_Driver/src/stm32f4xx_tim.c **** 
1186:App/STM32F4-Discovery/Libraries/STM32F4xx_StdPeriph_Driver/src/stm32f4xx_tim.c ****   /* Configure The Forced output Mode */
1187:App/STM32F4-Discovery/Libraries/STM32F4xx_StdPeriph_Driver/src/stm32f4xx_tim.c ****   tmpccmr2 |= TIM_ForcedAction;
 4442              		.loc 1 1187 0
 4443 006e FA89     		ldrh	r2, [r7, #14]	@ movhi
 4444 0070 7B88     		ldrh	r3, [r7, #2]	@ movhi
 4445 0072 1343     		orrs	r3, r3, r2
 4446 0074 FB81     		strh	r3, [r7, #14]	@ movhi
1188:App/STM32F4-Discovery/Libraries/STM32F4xx_StdPeriph_Driver/src/stm32f4xx_tim.c **** 
1189:App/STM32F4-Discovery/Libraries/STM32F4xx_StdPeriph_Driver/src/stm32f4xx_tim.c ****   /* Write to TIMx CCMR2 register */
1190:App/STM32F4-Discovery/Libraries/STM32F4xx_StdPeriph_Driver/src/stm32f4xx_tim.c ****   TIMx->CCMR2 = tmpccmr2;
 4447              		.loc 1 1190 0
 4448 0076 7B68     		ldr	r3, [r7, #4]
 4449 0078 FA89     		ldrh	r2, [r7, #14]	@ movhi
 4450 007a 9A83     		strh	r2, [r3, #28]	@ movhi
1191:App/STM32F4-Discovery/Libraries/STM32F4xx_StdPeriph_Driver/src/stm32f4xx_tim.c **** }
 4451              		.loc 1 1191 0
 4452 007c 1037     		adds	r7, r7, #16
 4453 007e BD46     		mov	sp, r7
 4454              		@ sp needed
 4455 0080 80BD     		pop	{r7, pc}
 4456              	.L186:
 4457 0082 00BF     		.align	2
 4458              	.L185:
 4459 0084 00000140 		.word	1073807360
 4460 0088 00040040 		.word	1073742848
 4461 008c 00080040 		.word	1073743872
 4462 0090 000C0040 		.word	1073744896
 4463 0094 00040140 		.word	1073808384
 4464 0098 00000000 		.word	.LC0
 4465              		.cfi_endproc
 4466              	.LFE137:
 4468              		.section	.text.TIM_ForcedOC4Config,"ax",%progbits
 4469              		.align	2
 4470              		.global	TIM_ForcedOC4Config
 4471              		.thumb
 4472              		.thumb_func
 4474              	TIM_ForcedOC4Config:
 4475              	.LFB138:
1192:App/STM32F4-Discovery/Libraries/STM32F4xx_StdPeriph_Driver/src/stm32f4xx_tim.c **** 
1193:App/STM32F4-Discovery/Libraries/STM32F4xx_StdPeriph_Driver/src/stm32f4xx_tim.c **** /**
1194:App/STM32F4-Discovery/Libraries/STM32F4xx_StdPeriph_Driver/src/stm32f4xx_tim.c ****   * @brief  Forces the TIMx output 4 waveform to active or inactive level.
1195:App/STM32F4-Discovery/Libraries/STM32F4xx_StdPeriph_Driver/src/stm32f4xx_tim.c ****   * @param  TIMx: where x can be  1, 2, 3, 4, 5 or 8 to select the TIM peripheral.
1196:App/STM32F4-Discovery/Libraries/STM32F4xx_StdPeriph_Driver/src/stm32f4xx_tim.c ****   * @param  TIM_ForcedAction: specifies the forced Action to be set to the output waveform.
1197:App/STM32F4-Discovery/Libraries/STM32F4xx_StdPeriph_Driver/src/stm32f4xx_tim.c ****   *          This parameter can be one of the following values:
1198:App/STM32F4-Discovery/Libraries/STM32F4xx_StdPeriph_Driver/src/stm32f4xx_tim.c ****   *            @arg TIM_ForcedAction_Active: Force active level on OC4REF
1199:App/STM32F4-Discovery/Libraries/STM32F4xx_StdPeriph_Driver/src/stm32f4xx_tim.c ****   *            @arg TIM_ForcedAction_InActive: Force inactive level on OC4REF.
1200:App/STM32F4-Discovery/Libraries/STM32F4xx_StdPeriph_Driver/src/stm32f4xx_tim.c ****   * @retval None
1201:App/STM32F4-Discovery/Libraries/STM32F4xx_StdPeriph_Driver/src/stm32f4xx_tim.c ****   */
1202:App/STM32F4-Discovery/Libraries/STM32F4xx_StdPeriph_Driver/src/stm32f4xx_tim.c **** void TIM_ForcedOC4Config(TIM_TypeDef* TIMx, uint16_t TIM_ForcedAction)
1203:App/STM32F4-Discovery/Libraries/STM32F4xx_StdPeriph_Driver/src/stm32f4xx_tim.c **** {
 4476              		.loc 1 1203 0
 4477              		.cfi_startproc
 4478              		@ args = 0, pretend = 0, frame = 16
 4479              		@ frame_needed = 1, uses_anonymous_args = 0
 4480 0000 80B5     		push	{r7, lr}
 4481              	.LCFI84:
 4482              		.cfi_def_cfa_offset 8
 4483              		.cfi_offset 7, -8
 4484              		.cfi_offset 14, -4
 4485 0002 84B0     		sub	sp, sp, #16
 4486              	.LCFI85:
 4487              		.cfi_def_cfa_offset 24
 4488 0004 00AF     		add	r7, sp, #0
 4489              	.LCFI86:
 4490              		.cfi_def_cfa_register 7
 4491 0006 7860     		str	r0, [r7, #4]
 4492 0008 0B46     		mov	r3, r1
 4493 000a 7B80     		strh	r3, [r7, #2]	@ movhi
1204:App/STM32F4-Discovery/Libraries/STM32F4xx_StdPeriph_Driver/src/stm32f4xx_tim.c ****   uint16_t tmpccmr2 = 0;
 4494              		.loc 1 1204 0
 4495 000c 0023     		movs	r3, #0
 4496 000e FB81     		strh	r3, [r7, #14]	@ movhi
1205:App/STM32F4-Discovery/Libraries/STM32F4xx_StdPeriph_Driver/src/stm32f4xx_tim.c **** 
1206:App/STM32F4-Discovery/Libraries/STM32F4xx_StdPeriph_Driver/src/stm32f4xx_tim.c ****   /* Check the parameters */
1207:App/STM32F4-Discovery/Libraries/STM32F4xx_StdPeriph_Driver/src/stm32f4xx_tim.c ****   assert_param(IS_TIM_LIST3_PERIPH(TIMx));
 4497              		.loc 1 1207 0
 4498 0010 7A68     		ldr	r2, [r7, #4]
 4499 0012 1D4B     		ldr	r3, .L190
 4500 0014 9A42     		cmp	r2, r3
 4501 0016 18D0     		beq	.L188
 4502              		.loc 1 1207 0 is_stmt 0 discriminator 1
 4503 0018 7B68     		ldr	r3, [r7, #4]
 4504 001a B3F1804F 		cmp	r3, #1073741824
 4505 001e 14D0     		beq	.L188
 4506 0020 7A68     		ldr	r2, [r7, #4]
 4507 0022 1A4B     		ldr	r3, .L190+4
 4508 0024 9A42     		cmp	r2, r3
 4509 0026 10D0     		beq	.L188
 4510 0028 7A68     		ldr	r2, [r7, #4]
 4511 002a 194B     		ldr	r3, .L190+8
 4512 002c 9A42     		cmp	r2, r3
 4513 002e 0CD0     		beq	.L188
 4514 0030 7A68     		ldr	r2, [r7, #4]
 4515 0032 184B     		ldr	r3, .L190+12
 4516 0034 9A42     		cmp	r2, r3
 4517 0036 08D0     		beq	.L188
 4518 0038 7A68     		ldr	r2, [r7, #4]
 4519 003a 174B     		ldr	r3, .L190+16
 4520 003c 9A42     		cmp	r2, r3
 4521 003e 04D0     		beq	.L188
 4522 0040 1648     		ldr	r0, .L190+20
 4523 0042 40F2B741 		movw	r1, #1207
 4524 0046 FFF7FEFF 		bl	assert_failed
 4525              	.L188:
1208:App/STM32F4-Discovery/Libraries/STM32F4xx_StdPeriph_Driver/src/stm32f4xx_tim.c ****   assert_param(IS_TIM_FORCED_ACTION(TIM_ForcedAction));
 4526              		.loc 1 1208 0 is_stmt 1
 4527 004a 7B88     		ldrh	r3, [r7, #2]
 4528 004c 502B     		cmp	r3, #80
 4529 004e 07D0     		beq	.L189
 4530              		.loc 1 1208 0 is_stmt 0 discriminator 1
 4531 0050 7B88     		ldrh	r3, [r7, #2]
 4532 0052 402B     		cmp	r3, #64
 4533 0054 04D0     		beq	.L189
 4534 0056 1148     		ldr	r0, .L190+20
 4535 0058 4FF49761 		mov	r1, #1208
 4536 005c FFF7FEFF 		bl	assert_failed
 4537              	.L189:
1209:App/STM32F4-Discovery/Libraries/STM32F4xx_StdPeriph_Driver/src/stm32f4xx_tim.c ****   tmpccmr2 = TIMx->CCMR2;
 4538              		.loc 1 1209 0 is_stmt 1
 4539 0060 7B68     		ldr	r3, [r7, #4]
 4540 0062 9B8B     		ldrh	r3, [r3, #28]	@ movhi
 4541 0064 FB81     		strh	r3, [r7, #14]	@ movhi
1210:App/STM32F4-Discovery/Libraries/STM32F4xx_StdPeriph_Driver/src/stm32f4xx_tim.c **** 
1211:App/STM32F4-Discovery/Libraries/STM32F4xx_StdPeriph_Driver/src/stm32f4xx_tim.c ****   /* Reset the OC2M Bits */
1212:App/STM32F4-Discovery/Libraries/STM32F4xx_StdPeriph_Driver/src/stm32f4xx_tim.c ****   tmpccmr2 &= (uint16_t)~TIM_CCMR2_OC4M;
 4542              		.loc 1 1212 0
 4543 0066 FB89     		ldrh	r3, [r7, #14]	@ movhi
 4544 0068 23F4E043 		bic	r3, r3, #28672
 4545 006c FB81     		strh	r3, [r7, #14]	@ movhi
1213:App/STM32F4-Discovery/Libraries/STM32F4xx_StdPeriph_Driver/src/stm32f4xx_tim.c **** 
1214:App/STM32F4-Discovery/Libraries/STM32F4xx_StdPeriph_Driver/src/stm32f4xx_tim.c ****   /* Configure The Forced output Mode */
1215:App/STM32F4-Discovery/Libraries/STM32F4xx_StdPeriph_Driver/src/stm32f4xx_tim.c ****   tmpccmr2 |= (uint16_t)(TIM_ForcedAction << 8);
 4546              		.loc 1 1215 0
 4547 006e 7B88     		ldrh	r3, [r7, #2]	@ movhi
 4548 0070 1B02     		lsls	r3, r3, #8
 4549 0072 9AB2     		uxth	r2, r3
 4550 0074 FB89     		ldrh	r3, [r7, #14]	@ movhi
 4551 0076 1343     		orrs	r3, r3, r2
 4552 0078 FB81     		strh	r3, [r7, #14]	@ movhi
1216:App/STM32F4-Discovery/Libraries/STM32F4xx_StdPeriph_Driver/src/stm32f4xx_tim.c **** 
1217:App/STM32F4-Discovery/Libraries/STM32F4xx_StdPeriph_Driver/src/stm32f4xx_tim.c ****   /* Write to TIMx CCMR2 register */
1218:App/STM32F4-Discovery/Libraries/STM32F4xx_StdPeriph_Driver/src/stm32f4xx_tim.c ****   TIMx->CCMR2 = tmpccmr2;
 4553              		.loc 1 1218 0
 4554 007a 7B68     		ldr	r3, [r7, #4]
 4555 007c FA89     		ldrh	r2, [r7, #14]	@ movhi
 4556 007e 9A83     		strh	r2, [r3, #28]	@ movhi
1219:App/STM32F4-Discovery/Libraries/STM32F4xx_StdPeriph_Driver/src/stm32f4xx_tim.c **** }
 4557              		.loc 1 1219 0
 4558 0080 1037     		adds	r7, r7, #16
 4559 0082 BD46     		mov	sp, r7
 4560              		@ sp needed
 4561 0084 80BD     		pop	{r7, pc}
 4562              	.L191:
 4563 0086 00BF     		.align	2
 4564              	.L190:
 4565 0088 00000140 		.word	1073807360
 4566 008c 00040040 		.word	1073742848
 4567 0090 00080040 		.word	1073743872
 4568 0094 000C0040 		.word	1073744896
 4569 0098 00040140 		.word	1073808384
 4570 009c 00000000 		.word	.LC0
 4571              		.cfi_endproc
 4572              	.LFE138:
 4574              		.section	.text.TIM_OC1PreloadConfig,"ax",%progbits
 4575              		.align	2
 4576              		.global	TIM_OC1PreloadConfig
 4577              		.thumb
 4578              		.thumb_func
 4580              	TIM_OC1PreloadConfig:
 4581              	.LFB139:
1220:App/STM32F4-Discovery/Libraries/STM32F4xx_StdPeriph_Driver/src/stm32f4xx_tim.c **** 
1221:App/STM32F4-Discovery/Libraries/STM32F4xx_StdPeriph_Driver/src/stm32f4xx_tim.c **** /**
1222:App/STM32F4-Discovery/Libraries/STM32F4xx_StdPeriph_Driver/src/stm32f4xx_tim.c ****   * @brief  Enables or disables the TIMx peripheral Preload register on CCR1.
1223:App/STM32F4-Discovery/Libraries/STM32F4xx_StdPeriph_Driver/src/stm32f4xx_tim.c ****   * @param  TIMx: where x can be 1 to 14 except 6 and 7, to select the TIM peripheral.
1224:App/STM32F4-Discovery/Libraries/STM32F4xx_StdPeriph_Driver/src/stm32f4xx_tim.c ****   * @param  TIM_OCPreload: new state of the TIMx peripheral Preload register
1225:App/STM32F4-Discovery/Libraries/STM32F4xx_StdPeriph_Driver/src/stm32f4xx_tim.c ****   *          This parameter can be one of the following values:
1226:App/STM32F4-Discovery/Libraries/STM32F4xx_StdPeriph_Driver/src/stm32f4xx_tim.c ****   *            @arg TIM_OCPreload_Enable
1227:App/STM32F4-Discovery/Libraries/STM32F4xx_StdPeriph_Driver/src/stm32f4xx_tim.c ****   *            @arg TIM_OCPreload_Disable
1228:App/STM32F4-Discovery/Libraries/STM32F4xx_StdPeriph_Driver/src/stm32f4xx_tim.c ****   * @retval None
1229:App/STM32F4-Discovery/Libraries/STM32F4xx_StdPeriph_Driver/src/stm32f4xx_tim.c ****   */
1230:App/STM32F4-Discovery/Libraries/STM32F4xx_StdPeriph_Driver/src/stm32f4xx_tim.c **** void TIM_OC1PreloadConfig(TIM_TypeDef* TIMx, uint16_t TIM_OCPreload)
1231:App/STM32F4-Discovery/Libraries/STM32F4xx_StdPeriph_Driver/src/stm32f4xx_tim.c **** {
 4582              		.loc 1 1231 0
 4583              		.cfi_startproc
 4584              		@ args = 0, pretend = 0, frame = 16
 4585              		@ frame_needed = 1, uses_anonymous_args = 0
 4586 0000 80B5     		push	{r7, lr}
 4587              	.LCFI87:
 4588              		.cfi_def_cfa_offset 8
 4589              		.cfi_offset 7, -8
 4590              		.cfi_offset 14, -4
 4591 0002 84B0     		sub	sp, sp, #16
 4592              	.LCFI88:
 4593              		.cfi_def_cfa_offset 24
 4594 0004 00AF     		add	r7, sp, #0
 4595              	.LCFI89:
 4596              		.cfi_def_cfa_register 7
 4597 0006 7860     		str	r0, [r7, #4]
 4598 0008 0B46     		mov	r3, r1
 4599 000a 7B80     		strh	r3, [r7, #2]	@ movhi
1232:App/STM32F4-Discovery/Libraries/STM32F4xx_StdPeriph_Driver/src/stm32f4xx_tim.c ****   uint16_t tmpccmr1 = 0;
 4600              		.loc 1 1232 0
 4601 000c 0023     		movs	r3, #0
 4602 000e FB81     		strh	r3, [r7, #14]	@ movhi
1233:App/STM32F4-Discovery/Libraries/STM32F4xx_StdPeriph_Driver/src/stm32f4xx_tim.c **** 
1234:App/STM32F4-Discovery/Libraries/STM32F4xx_StdPeriph_Driver/src/stm32f4xx_tim.c ****   /* Check the parameters */
1235:App/STM32F4-Discovery/Libraries/STM32F4xx_StdPeriph_Driver/src/stm32f4xx_tim.c ****   assert_param(IS_TIM_LIST1_PERIPH(TIMx));
 4603              		.loc 1 1235 0
 4604 0010 7A68     		ldr	r2, [r7, #4]
 4605 0012 284B     		ldr	r3, .L195
 4606 0014 9A42     		cmp	r2, r3
 4607 0016 30D0     		beq	.L193
 4608              		.loc 1 1235 0 is_stmt 0 discriminator 1
 4609 0018 7B68     		ldr	r3, [r7, #4]
 4610 001a B3F1804F 		cmp	r3, #1073741824
 4611 001e 2CD0     		beq	.L193
 4612 0020 7A68     		ldr	r2, [r7, #4]
 4613 0022 254B     		ldr	r3, .L195+4
 4614 0024 9A42     		cmp	r2, r3
 4615 0026 28D0     		beq	.L193
 4616 0028 7A68     		ldr	r2, [r7, #4]
 4617 002a 244B     		ldr	r3, .L195+8
 4618 002c 9A42     		cmp	r2, r3
 4619 002e 24D0     		beq	.L193
 4620 0030 7A68     		ldr	r2, [r7, #4]
 4621 0032 234B     		ldr	r3, .L195+12
 4622 0034 9A42     		cmp	r2, r3
 4623 0036 20D0     		beq	.L193
 4624 0038 7A68     		ldr	r2, [r7, #4]
 4625 003a 224B     		ldr	r3, .L195+16
 4626 003c 9A42     		cmp	r2, r3
 4627 003e 1CD0     		beq	.L193
 4628 0040 7A68     		ldr	r2, [r7, #4]
 4629 0042 214B     		ldr	r3, .L195+20
 4630 0044 9A42     		cmp	r2, r3
 4631 0046 18D0     		beq	.L193
 4632 0048 7A68     		ldr	r2, [r7, #4]
 4633 004a 204B     		ldr	r3, .L195+24
 4634 004c 9A42     		cmp	r2, r3
 4635 004e 14D0     		beq	.L193
 4636 0050 7A68     		ldr	r2, [r7, #4]
 4637 0052 1F4B     		ldr	r3, .L195+28
 4638 0054 9A42     		cmp	r2, r3
 4639 0056 10D0     		beq	.L193
 4640 0058 7A68     		ldr	r2, [r7, #4]
 4641 005a 1E4B     		ldr	r3, .L195+32
 4642 005c 9A42     		cmp	r2, r3
 4643 005e 0CD0     		beq	.L193
 4644 0060 7A68     		ldr	r2, [r7, #4]
 4645 0062 1D4B     		ldr	r3, .L195+36
 4646 0064 9A42     		cmp	r2, r3
 4647 0066 08D0     		beq	.L193
 4648 0068 7A68     		ldr	r2, [r7, #4]
 4649 006a 1C4B     		ldr	r3, .L195+40
 4650 006c 9A42     		cmp	r2, r3
 4651 006e 04D0     		beq	.L193
 4652 0070 1B48     		ldr	r0, .L195+44
 4653 0072 40F2D341 		movw	r1, #1235
 4654 0076 FFF7FEFF 		bl	assert_failed
 4655              	.L193:
1236:App/STM32F4-Discovery/Libraries/STM32F4xx_StdPeriph_Driver/src/stm32f4xx_tim.c ****   assert_param(IS_TIM_OCPRELOAD_STATE(TIM_OCPreload));
 4656              		.loc 1 1236 0 is_stmt 1
 4657 007a 7B88     		ldrh	r3, [r7, #2]
 4658 007c 082B     		cmp	r3, #8
 4659 007e 07D0     		beq	.L194
 4660              		.loc 1 1236 0 is_stmt 0 discriminator 1
 4661 0080 7B88     		ldrh	r3, [r7, #2]
 4662 0082 002B     		cmp	r3, #0
 4663 0084 04D0     		beq	.L194
 4664 0086 1648     		ldr	r0, .L195+44
 4665 0088 40F2D441 		movw	r1, #1236
 4666 008c FFF7FEFF 		bl	assert_failed
 4667              	.L194:
1237:App/STM32F4-Discovery/Libraries/STM32F4xx_StdPeriph_Driver/src/stm32f4xx_tim.c **** 
1238:App/STM32F4-Discovery/Libraries/STM32F4xx_StdPeriph_Driver/src/stm32f4xx_tim.c ****   tmpccmr1 = TIMx->CCMR1;
 4668              		.loc 1 1238 0 is_stmt 1
 4669 0090 7B68     		ldr	r3, [r7, #4]
 4670 0092 1B8B     		ldrh	r3, [r3, #24]	@ movhi
 4671 0094 FB81     		strh	r3, [r7, #14]	@ movhi
1239:App/STM32F4-Discovery/Libraries/STM32F4xx_StdPeriph_Driver/src/stm32f4xx_tim.c **** 
1240:App/STM32F4-Discovery/Libraries/STM32F4xx_StdPeriph_Driver/src/stm32f4xx_tim.c ****   /* Reset the OC1PE Bit */
1241:App/STM32F4-Discovery/Libraries/STM32F4xx_StdPeriph_Driver/src/stm32f4xx_tim.c ****   tmpccmr1 &= (uint16_t)(~TIM_CCMR1_OC1PE);
 4672              		.loc 1 1241 0
 4673 0096 FB89     		ldrh	r3, [r7, #14]	@ movhi
 4674 0098 23F00803 		bic	r3, r3, #8
 4675 009c FB81     		strh	r3, [r7, #14]	@ movhi
1242:App/STM32F4-Discovery/Libraries/STM32F4xx_StdPeriph_Driver/src/stm32f4xx_tim.c **** 
1243:App/STM32F4-Discovery/Libraries/STM32F4xx_StdPeriph_Driver/src/stm32f4xx_tim.c ****   /* Enable or Disable the Output Compare Preload feature */
1244:App/STM32F4-Discovery/Libraries/STM32F4xx_StdPeriph_Driver/src/stm32f4xx_tim.c ****   tmpccmr1 |= TIM_OCPreload;
 4676              		.loc 1 1244 0
 4677 009e FA89     		ldrh	r2, [r7, #14]	@ movhi
 4678 00a0 7B88     		ldrh	r3, [r7, #2]	@ movhi
 4679 00a2 1343     		orrs	r3, r3, r2
 4680 00a4 FB81     		strh	r3, [r7, #14]	@ movhi
1245:App/STM32F4-Discovery/Libraries/STM32F4xx_StdPeriph_Driver/src/stm32f4xx_tim.c **** 
1246:App/STM32F4-Discovery/Libraries/STM32F4xx_StdPeriph_Driver/src/stm32f4xx_tim.c ****   /* Write to TIMx CCMR1 register */
1247:App/STM32F4-Discovery/Libraries/STM32F4xx_StdPeriph_Driver/src/stm32f4xx_tim.c ****   TIMx->CCMR1 = tmpccmr1;
 4681              		.loc 1 1247 0
 4682 00a6 7B68     		ldr	r3, [r7, #4]
 4683 00a8 FA89     		ldrh	r2, [r7, #14]	@ movhi
 4684 00aa 1A83     		strh	r2, [r3, #24]	@ movhi
1248:App/STM32F4-Discovery/Libraries/STM32F4xx_StdPeriph_Driver/src/stm32f4xx_tim.c **** }
 4685              		.loc 1 1248 0
 4686 00ac 1037     		adds	r7, r7, #16
 4687 00ae BD46     		mov	sp, r7
 4688              		@ sp needed
 4689 00b0 80BD     		pop	{r7, pc}
 4690              	.L196:
 4691 00b2 00BF     		.align	2
 4692              	.L195:
 4693 00b4 00000140 		.word	1073807360
 4694 00b8 00040040 		.word	1073742848
 4695 00bc 00080040 		.word	1073743872
 4696 00c0 000C0040 		.word	1073744896
 4697 00c4 00040140 		.word	1073808384
 4698 00c8 00400140 		.word	1073823744
 4699 00cc 00440140 		.word	1073824768
 4700 00d0 00480140 		.word	1073825792
 4701 00d4 00180040 		.word	1073747968
 4702 00d8 001C0040 		.word	1073748992
 4703 00dc 00200040 		.word	1073750016
 4704 00e0 00000000 		.word	.LC0
 4705              		.cfi_endproc
 4706              	.LFE139:
 4708              		.section	.text.TIM_OC2PreloadConfig,"ax",%progbits
 4709              		.align	2
 4710              		.global	TIM_OC2PreloadConfig
 4711              		.thumb
 4712              		.thumb_func
 4714              	TIM_OC2PreloadConfig:
 4715              	.LFB140:
1249:App/STM32F4-Discovery/Libraries/STM32F4xx_StdPeriph_Driver/src/stm32f4xx_tim.c **** 
1250:App/STM32F4-Discovery/Libraries/STM32F4xx_StdPeriph_Driver/src/stm32f4xx_tim.c **** /**
1251:App/STM32F4-Discovery/Libraries/STM32F4xx_StdPeriph_Driver/src/stm32f4xx_tim.c ****   * @brief  Enables or disables the TIMx peripheral Preload register on CCR2.
1252:App/STM32F4-Discovery/Libraries/STM32F4xx_StdPeriph_Driver/src/stm32f4xx_tim.c ****   * @param  TIMx: where x can be  1, 2, 3, 4, 5, 8, 9 or 12 to select the TIM 
1253:App/STM32F4-Discovery/Libraries/STM32F4xx_StdPeriph_Driver/src/stm32f4xx_tim.c ****   *         peripheral.
1254:App/STM32F4-Discovery/Libraries/STM32F4xx_StdPeriph_Driver/src/stm32f4xx_tim.c ****   * @param  TIM_OCPreload: new state of the TIMx peripheral Preload register
1255:App/STM32F4-Discovery/Libraries/STM32F4xx_StdPeriph_Driver/src/stm32f4xx_tim.c ****   *          This parameter can be one of the following values:
1256:App/STM32F4-Discovery/Libraries/STM32F4xx_StdPeriph_Driver/src/stm32f4xx_tim.c ****   *            @arg TIM_OCPreload_Enable
1257:App/STM32F4-Discovery/Libraries/STM32F4xx_StdPeriph_Driver/src/stm32f4xx_tim.c ****   *            @arg TIM_OCPreload_Disable
1258:App/STM32F4-Discovery/Libraries/STM32F4xx_StdPeriph_Driver/src/stm32f4xx_tim.c ****   * @retval None
1259:App/STM32F4-Discovery/Libraries/STM32F4xx_StdPeriph_Driver/src/stm32f4xx_tim.c ****   */
1260:App/STM32F4-Discovery/Libraries/STM32F4xx_StdPeriph_Driver/src/stm32f4xx_tim.c **** void TIM_OC2PreloadConfig(TIM_TypeDef* TIMx, uint16_t TIM_OCPreload)
1261:App/STM32F4-Discovery/Libraries/STM32F4xx_StdPeriph_Driver/src/stm32f4xx_tim.c **** {
 4716              		.loc 1 1261 0
 4717              		.cfi_startproc
 4718              		@ args = 0, pretend = 0, frame = 16
 4719              		@ frame_needed = 1, uses_anonymous_args = 0
 4720 0000 80B5     		push	{r7, lr}
 4721              	.LCFI90:
 4722              		.cfi_def_cfa_offset 8
 4723              		.cfi_offset 7, -8
 4724              		.cfi_offset 14, -4
 4725 0002 84B0     		sub	sp, sp, #16
 4726              	.LCFI91:
 4727              		.cfi_def_cfa_offset 24
 4728 0004 00AF     		add	r7, sp, #0
 4729              	.LCFI92:
 4730              		.cfi_def_cfa_register 7
 4731 0006 7860     		str	r0, [r7, #4]
 4732 0008 0B46     		mov	r3, r1
 4733 000a 7B80     		strh	r3, [r7, #2]	@ movhi
1262:App/STM32F4-Discovery/Libraries/STM32F4xx_StdPeriph_Driver/src/stm32f4xx_tim.c ****   uint16_t tmpccmr1 = 0;
 4734              		.loc 1 1262 0
 4735 000c 0023     		movs	r3, #0
 4736 000e FB81     		strh	r3, [r7, #14]	@ movhi
1263:App/STM32F4-Discovery/Libraries/STM32F4xx_StdPeriph_Driver/src/stm32f4xx_tim.c **** 
1264:App/STM32F4-Discovery/Libraries/STM32F4xx_StdPeriph_Driver/src/stm32f4xx_tim.c ****   /* Check the parameters */
1265:App/STM32F4-Discovery/Libraries/STM32F4xx_StdPeriph_Driver/src/stm32f4xx_tim.c ****   assert_param(IS_TIM_LIST2_PERIPH(TIMx));
 4737              		.loc 1 1265 0
 4738 0010 7A68     		ldr	r2, [r7, #4]
 4739 0012 214B     		ldr	r3, .L200
 4740 0014 9A42     		cmp	r2, r3
 4741 0016 20D0     		beq	.L198
 4742              		.loc 1 1265 0 is_stmt 0 discriminator 1
 4743 0018 7B68     		ldr	r3, [r7, #4]
 4744 001a B3F1804F 		cmp	r3, #1073741824
 4745 001e 1CD0     		beq	.L198
 4746 0020 7A68     		ldr	r2, [r7, #4]
 4747 0022 1E4B     		ldr	r3, .L200+4
 4748 0024 9A42     		cmp	r2, r3
 4749 0026 18D0     		beq	.L198
 4750 0028 7A68     		ldr	r2, [r7, #4]
 4751 002a 1D4B     		ldr	r3, .L200+8
 4752 002c 9A42     		cmp	r2, r3
 4753 002e 14D0     		beq	.L198
 4754 0030 7A68     		ldr	r2, [r7, #4]
 4755 0032 1C4B     		ldr	r3, .L200+12
 4756 0034 9A42     		cmp	r2, r3
 4757 0036 10D0     		beq	.L198
 4758 0038 7A68     		ldr	r2, [r7, #4]
 4759 003a 1B4B     		ldr	r3, .L200+16
 4760 003c 9A42     		cmp	r2, r3
 4761 003e 0CD0     		beq	.L198
 4762 0040 7A68     		ldr	r2, [r7, #4]
 4763 0042 1A4B     		ldr	r3, .L200+20
 4764 0044 9A42     		cmp	r2, r3
 4765 0046 08D0     		beq	.L198
 4766 0048 7A68     		ldr	r2, [r7, #4]
 4767 004a 194B     		ldr	r3, .L200+24
 4768 004c 9A42     		cmp	r2, r3
 4769 004e 04D0     		beq	.L198
 4770 0050 1848     		ldr	r0, .L200+28
 4771 0052 40F2F141 		movw	r1, #1265
 4772 0056 FFF7FEFF 		bl	assert_failed
 4773              	.L198:
1266:App/STM32F4-Discovery/Libraries/STM32F4xx_StdPeriph_Driver/src/stm32f4xx_tim.c ****   assert_param(IS_TIM_OCPRELOAD_STATE(TIM_OCPreload));
 4774              		.loc 1 1266 0 is_stmt 1
 4775 005a 7B88     		ldrh	r3, [r7, #2]
 4776 005c 082B     		cmp	r3, #8
 4777 005e 07D0     		beq	.L199
 4778              		.loc 1 1266 0 is_stmt 0 discriminator 1
 4779 0060 7B88     		ldrh	r3, [r7, #2]
 4780 0062 002B     		cmp	r3, #0
 4781 0064 04D0     		beq	.L199
 4782 0066 1348     		ldr	r0, .L200+28
 4783 0068 40F2F241 		movw	r1, #1266
 4784 006c FFF7FEFF 		bl	assert_failed
 4785              	.L199:
1267:App/STM32F4-Discovery/Libraries/STM32F4xx_StdPeriph_Driver/src/stm32f4xx_tim.c **** 
1268:App/STM32F4-Discovery/Libraries/STM32F4xx_StdPeriph_Driver/src/stm32f4xx_tim.c ****   tmpccmr1 = TIMx->CCMR1;
 4786              		.loc 1 1268 0 is_stmt 1
 4787 0070 7B68     		ldr	r3, [r7, #4]
 4788 0072 1B8B     		ldrh	r3, [r3, #24]	@ movhi
 4789 0074 FB81     		strh	r3, [r7, #14]	@ movhi
1269:App/STM32F4-Discovery/Libraries/STM32F4xx_StdPeriph_Driver/src/stm32f4xx_tim.c **** 
1270:App/STM32F4-Discovery/Libraries/STM32F4xx_StdPeriph_Driver/src/stm32f4xx_tim.c ****   /* Reset the OC2PE Bit */
1271:App/STM32F4-Discovery/Libraries/STM32F4xx_StdPeriph_Driver/src/stm32f4xx_tim.c ****   tmpccmr1 &= (uint16_t)(~TIM_CCMR1_OC2PE);
 4790              		.loc 1 1271 0
 4791 0076 FB89     		ldrh	r3, [r7, #14]	@ movhi
 4792 0078 23F40063 		bic	r3, r3, #2048
 4793 007c FB81     		strh	r3, [r7, #14]	@ movhi
1272:App/STM32F4-Discovery/Libraries/STM32F4xx_StdPeriph_Driver/src/stm32f4xx_tim.c **** 
1273:App/STM32F4-Discovery/Libraries/STM32F4xx_StdPeriph_Driver/src/stm32f4xx_tim.c ****   /* Enable or Disable the Output Compare Preload feature */
1274:App/STM32F4-Discovery/Libraries/STM32F4xx_StdPeriph_Driver/src/stm32f4xx_tim.c ****   tmpccmr1 |= (uint16_t)(TIM_OCPreload << 8);
 4794              		.loc 1 1274 0
 4795 007e 7B88     		ldrh	r3, [r7, #2]	@ movhi
 4796 0080 1B02     		lsls	r3, r3, #8
 4797 0082 9AB2     		uxth	r2, r3
 4798 0084 FB89     		ldrh	r3, [r7, #14]	@ movhi
 4799 0086 1343     		orrs	r3, r3, r2
 4800 0088 FB81     		strh	r3, [r7, #14]	@ movhi
1275:App/STM32F4-Discovery/Libraries/STM32F4xx_StdPeriph_Driver/src/stm32f4xx_tim.c **** 
1276:App/STM32F4-Discovery/Libraries/STM32F4xx_StdPeriph_Driver/src/stm32f4xx_tim.c ****   /* Write to TIMx CCMR1 register */
1277:App/STM32F4-Discovery/Libraries/STM32F4xx_StdPeriph_Driver/src/stm32f4xx_tim.c ****   TIMx->CCMR1 = tmpccmr1;
 4801              		.loc 1 1277 0
 4802 008a 7B68     		ldr	r3, [r7, #4]
 4803 008c FA89     		ldrh	r2, [r7, #14]	@ movhi
 4804 008e 1A83     		strh	r2, [r3, #24]	@ movhi
1278:App/STM32F4-Discovery/Libraries/STM32F4xx_StdPeriph_Driver/src/stm32f4xx_tim.c **** }
 4805              		.loc 1 1278 0
 4806 0090 1037     		adds	r7, r7, #16
 4807 0092 BD46     		mov	sp, r7
 4808              		@ sp needed
 4809 0094 80BD     		pop	{r7, pc}
 4810              	.L201:
 4811 0096 00BF     		.align	2
 4812              	.L200:
 4813 0098 00000140 		.word	1073807360
 4814 009c 00040040 		.word	1073742848
 4815 00a0 00080040 		.word	1073743872
 4816 00a4 000C0040 		.word	1073744896
 4817 00a8 00040140 		.word	1073808384
 4818 00ac 00400140 		.word	1073823744
 4819 00b0 00180040 		.word	1073747968
 4820 00b4 00000000 		.word	.LC0
 4821              		.cfi_endproc
 4822              	.LFE140:
 4824              		.section	.text.TIM_OC3PreloadConfig,"ax",%progbits
 4825              		.align	2
 4826              		.global	TIM_OC3PreloadConfig
 4827              		.thumb
 4828              		.thumb_func
 4830              	TIM_OC3PreloadConfig:
 4831              	.LFB141:
1279:App/STM32F4-Discovery/Libraries/STM32F4xx_StdPeriph_Driver/src/stm32f4xx_tim.c **** 
1280:App/STM32F4-Discovery/Libraries/STM32F4xx_StdPeriph_Driver/src/stm32f4xx_tim.c **** /**
1281:App/STM32F4-Discovery/Libraries/STM32F4xx_StdPeriph_Driver/src/stm32f4xx_tim.c ****   * @brief  Enables or disables the TIMx peripheral Preload register on CCR3.
1282:App/STM32F4-Discovery/Libraries/STM32F4xx_StdPeriph_Driver/src/stm32f4xx_tim.c ****   * @param  TIMx: where x can be  1, 2, 3, 4, 5 or 8 to select the TIM peripheral.
1283:App/STM32F4-Discovery/Libraries/STM32F4xx_StdPeriph_Driver/src/stm32f4xx_tim.c ****   * @param  TIM_OCPreload: new state of the TIMx peripheral Preload register
1284:App/STM32F4-Discovery/Libraries/STM32F4xx_StdPeriph_Driver/src/stm32f4xx_tim.c ****   *          This parameter can be one of the following values:
1285:App/STM32F4-Discovery/Libraries/STM32F4xx_StdPeriph_Driver/src/stm32f4xx_tim.c ****   *            @arg TIM_OCPreload_Enable
1286:App/STM32F4-Discovery/Libraries/STM32F4xx_StdPeriph_Driver/src/stm32f4xx_tim.c ****   *            @arg TIM_OCPreload_Disable
1287:App/STM32F4-Discovery/Libraries/STM32F4xx_StdPeriph_Driver/src/stm32f4xx_tim.c ****   * @retval None
1288:App/STM32F4-Discovery/Libraries/STM32F4xx_StdPeriph_Driver/src/stm32f4xx_tim.c ****   */
1289:App/STM32F4-Discovery/Libraries/STM32F4xx_StdPeriph_Driver/src/stm32f4xx_tim.c **** void TIM_OC3PreloadConfig(TIM_TypeDef* TIMx, uint16_t TIM_OCPreload)
1290:App/STM32F4-Discovery/Libraries/STM32F4xx_StdPeriph_Driver/src/stm32f4xx_tim.c **** {
 4832              		.loc 1 1290 0
 4833              		.cfi_startproc
 4834              		@ args = 0, pretend = 0, frame = 16
 4835              		@ frame_needed = 1, uses_anonymous_args = 0
 4836 0000 80B5     		push	{r7, lr}
 4837              	.LCFI93:
 4838              		.cfi_def_cfa_offset 8
 4839              		.cfi_offset 7, -8
 4840              		.cfi_offset 14, -4
 4841 0002 84B0     		sub	sp, sp, #16
 4842              	.LCFI94:
 4843              		.cfi_def_cfa_offset 24
 4844 0004 00AF     		add	r7, sp, #0
 4845              	.LCFI95:
 4846              		.cfi_def_cfa_register 7
 4847 0006 7860     		str	r0, [r7, #4]
 4848 0008 0B46     		mov	r3, r1
 4849 000a 7B80     		strh	r3, [r7, #2]	@ movhi
1291:App/STM32F4-Discovery/Libraries/STM32F4xx_StdPeriph_Driver/src/stm32f4xx_tim.c ****   uint16_t tmpccmr2 = 0;
 4850              		.loc 1 1291 0
 4851 000c 0023     		movs	r3, #0
 4852 000e FB81     		strh	r3, [r7, #14]	@ movhi
1292:App/STM32F4-Discovery/Libraries/STM32F4xx_StdPeriph_Driver/src/stm32f4xx_tim.c **** 
1293:App/STM32F4-Discovery/Libraries/STM32F4xx_StdPeriph_Driver/src/stm32f4xx_tim.c ****   /* Check the parameters */
1294:App/STM32F4-Discovery/Libraries/STM32F4xx_StdPeriph_Driver/src/stm32f4xx_tim.c ****   assert_param(IS_TIM_LIST3_PERIPH(TIMx));
 4853              		.loc 1 1294 0
 4854 0010 7A68     		ldr	r2, [r7, #4]
 4855 0012 1C4B     		ldr	r3, .L205
 4856 0014 9A42     		cmp	r2, r3
 4857 0016 18D0     		beq	.L203
 4858              		.loc 1 1294 0 is_stmt 0 discriminator 1
 4859 0018 7B68     		ldr	r3, [r7, #4]
 4860 001a B3F1804F 		cmp	r3, #1073741824
 4861 001e 14D0     		beq	.L203
 4862 0020 7A68     		ldr	r2, [r7, #4]
 4863 0022 194B     		ldr	r3, .L205+4
 4864 0024 9A42     		cmp	r2, r3
 4865 0026 10D0     		beq	.L203
 4866 0028 7A68     		ldr	r2, [r7, #4]
 4867 002a 184B     		ldr	r3, .L205+8
 4868 002c 9A42     		cmp	r2, r3
 4869 002e 0CD0     		beq	.L203
 4870 0030 7A68     		ldr	r2, [r7, #4]
 4871 0032 174B     		ldr	r3, .L205+12
 4872 0034 9A42     		cmp	r2, r3
 4873 0036 08D0     		beq	.L203
 4874 0038 7A68     		ldr	r2, [r7, #4]
 4875 003a 164B     		ldr	r3, .L205+16
 4876 003c 9A42     		cmp	r2, r3
 4877 003e 04D0     		beq	.L203
 4878 0040 1548     		ldr	r0, .L205+20
 4879 0042 40F20E51 		movw	r1, #1294
 4880 0046 FFF7FEFF 		bl	assert_failed
 4881              	.L203:
1295:App/STM32F4-Discovery/Libraries/STM32F4xx_StdPeriph_Driver/src/stm32f4xx_tim.c ****   assert_param(IS_TIM_OCPRELOAD_STATE(TIM_OCPreload));
 4882              		.loc 1 1295 0 is_stmt 1
 4883 004a 7B88     		ldrh	r3, [r7, #2]
 4884 004c 082B     		cmp	r3, #8
 4885 004e 07D0     		beq	.L204
 4886              		.loc 1 1295 0 is_stmt 0 discriminator 1
 4887 0050 7B88     		ldrh	r3, [r7, #2]
 4888 0052 002B     		cmp	r3, #0
 4889 0054 04D0     		beq	.L204
 4890 0056 1048     		ldr	r0, .L205+20
 4891 0058 40F20F51 		movw	r1, #1295
 4892 005c FFF7FEFF 		bl	assert_failed
 4893              	.L204:
1296:App/STM32F4-Discovery/Libraries/STM32F4xx_StdPeriph_Driver/src/stm32f4xx_tim.c **** 
1297:App/STM32F4-Discovery/Libraries/STM32F4xx_StdPeriph_Driver/src/stm32f4xx_tim.c ****   tmpccmr2 = TIMx->CCMR2;
 4894              		.loc 1 1297 0 is_stmt 1
 4895 0060 7B68     		ldr	r3, [r7, #4]
 4896 0062 9B8B     		ldrh	r3, [r3, #28]	@ movhi
 4897 0064 FB81     		strh	r3, [r7, #14]	@ movhi
1298:App/STM32F4-Discovery/Libraries/STM32F4xx_StdPeriph_Driver/src/stm32f4xx_tim.c **** 
1299:App/STM32F4-Discovery/Libraries/STM32F4xx_StdPeriph_Driver/src/stm32f4xx_tim.c ****   /* Reset the OC3PE Bit */
1300:App/STM32F4-Discovery/Libraries/STM32F4xx_StdPeriph_Driver/src/stm32f4xx_tim.c ****   tmpccmr2 &= (uint16_t)(~TIM_CCMR2_OC3PE);
 4898              		.loc 1 1300 0
 4899 0066 FB89     		ldrh	r3, [r7, #14]	@ movhi
 4900 0068 23F00803 		bic	r3, r3, #8
 4901 006c FB81     		strh	r3, [r7, #14]	@ movhi
1301:App/STM32F4-Discovery/Libraries/STM32F4xx_StdPeriph_Driver/src/stm32f4xx_tim.c **** 
1302:App/STM32F4-Discovery/Libraries/STM32F4xx_StdPeriph_Driver/src/stm32f4xx_tim.c ****   /* Enable or Disable the Output Compare Preload feature */
1303:App/STM32F4-Discovery/Libraries/STM32F4xx_StdPeriph_Driver/src/stm32f4xx_tim.c ****   tmpccmr2 |= TIM_OCPreload;
 4902              		.loc 1 1303 0
 4903 006e FA89     		ldrh	r2, [r7, #14]	@ movhi
 4904 0070 7B88     		ldrh	r3, [r7, #2]	@ movhi
 4905 0072 1343     		orrs	r3, r3, r2
 4906 0074 FB81     		strh	r3, [r7, #14]	@ movhi
1304:App/STM32F4-Discovery/Libraries/STM32F4xx_StdPeriph_Driver/src/stm32f4xx_tim.c **** 
1305:App/STM32F4-Discovery/Libraries/STM32F4xx_StdPeriph_Driver/src/stm32f4xx_tim.c ****   /* Write to TIMx CCMR2 register */
1306:App/STM32F4-Discovery/Libraries/STM32F4xx_StdPeriph_Driver/src/stm32f4xx_tim.c ****   TIMx->CCMR2 = tmpccmr2;
 4907              		.loc 1 1306 0
 4908 0076 7B68     		ldr	r3, [r7, #4]
 4909 0078 FA89     		ldrh	r2, [r7, #14]	@ movhi
 4910 007a 9A83     		strh	r2, [r3, #28]	@ movhi
1307:App/STM32F4-Discovery/Libraries/STM32F4xx_StdPeriph_Driver/src/stm32f4xx_tim.c **** }
 4911              		.loc 1 1307 0
 4912 007c 1037     		adds	r7, r7, #16
 4913 007e BD46     		mov	sp, r7
 4914              		@ sp needed
 4915 0080 80BD     		pop	{r7, pc}
 4916              	.L206:
 4917 0082 00BF     		.align	2
 4918              	.L205:
 4919 0084 00000140 		.word	1073807360
 4920 0088 00040040 		.word	1073742848
 4921 008c 00080040 		.word	1073743872
 4922 0090 000C0040 		.word	1073744896
 4923 0094 00040140 		.word	1073808384
 4924 0098 00000000 		.word	.LC0
 4925              		.cfi_endproc
 4926              	.LFE141:
 4928              		.section	.text.TIM_OC4PreloadConfig,"ax",%progbits
 4929              		.align	2
 4930              		.global	TIM_OC4PreloadConfig
 4931              		.thumb
 4932              		.thumb_func
 4934              	TIM_OC4PreloadConfig:
 4935              	.LFB142:
1308:App/STM32F4-Discovery/Libraries/STM32F4xx_StdPeriph_Driver/src/stm32f4xx_tim.c **** 
1309:App/STM32F4-Discovery/Libraries/STM32F4xx_StdPeriph_Driver/src/stm32f4xx_tim.c **** /**
1310:App/STM32F4-Discovery/Libraries/STM32F4xx_StdPeriph_Driver/src/stm32f4xx_tim.c ****   * @brief  Enables or disables the TIMx peripheral Preload register on CCR4.
1311:App/STM32F4-Discovery/Libraries/STM32F4xx_StdPeriph_Driver/src/stm32f4xx_tim.c ****   * @param  TIMx: where x can be  1, 2, 3, 4, 5 or 8 to select the TIM peripheral.
1312:App/STM32F4-Discovery/Libraries/STM32F4xx_StdPeriph_Driver/src/stm32f4xx_tim.c ****   * @param  TIM_OCPreload: new state of the TIMx peripheral Preload register
1313:App/STM32F4-Discovery/Libraries/STM32F4xx_StdPeriph_Driver/src/stm32f4xx_tim.c ****   *          This parameter can be one of the following values:
1314:App/STM32F4-Discovery/Libraries/STM32F4xx_StdPeriph_Driver/src/stm32f4xx_tim.c ****   *            @arg TIM_OCPreload_Enable
1315:App/STM32F4-Discovery/Libraries/STM32F4xx_StdPeriph_Driver/src/stm32f4xx_tim.c ****   *            @arg TIM_OCPreload_Disable
1316:App/STM32F4-Discovery/Libraries/STM32F4xx_StdPeriph_Driver/src/stm32f4xx_tim.c ****   * @retval None
1317:App/STM32F4-Discovery/Libraries/STM32F4xx_StdPeriph_Driver/src/stm32f4xx_tim.c ****   */
1318:App/STM32F4-Discovery/Libraries/STM32F4xx_StdPeriph_Driver/src/stm32f4xx_tim.c **** void TIM_OC4PreloadConfig(TIM_TypeDef* TIMx, uint16_t TIM_OCPreload)
1319:App/STM32F4-Discovery/Libraries/STM32F4xx_StdPeriph_Driver/src/stm32f4xx_tim.c **** {
 4936              		.loc 1 1319 0
 4937              		.cfi_startproc
 4938              		@ args = 0, pretend = 0, frame = 16
 4939              		@ frame_needed = 1, uses_anonymous_args = 0
 4940 0000 80B5     		push	{r7, lr}
 4941              	.LCFI96:
 4942              		.cfi_def_cfa_offset 8
 4943              		.cfi_offset 7, -8
 4944              		.cfi_offset 14, -4
 4945 0002 84B0     		sub	sp, sp, #16
 4946              	.LCFI97:
 4947              		.cfi_def_cfa_offset 24
 4948 0004 00AF     		add	r7, sp, #0
 4949              	.LCFI98:
 4950              		.cfi_def_cfa_register 7
 4951 0006 7860     		str	r0, [r7, #4]
 4952 0008 0B46     		mov	r3, r1
 4953 000a 7B80     		strh	r3, [r7, #2]	@ movhi
1320:App/STM32F4-Discovery/Libraries/STM32F4xx_StdPeriph_Driver/src/stm32f4xx_tim.c ****   uint16_t tmpccmr2 = 0;
 4954              		.loc 1 1320 0
 4955 000c 0023     		movs	r3, #0
 4956 000e FB81     		strh	r3, [r7, #14]	@ movhi
1321:App/STM32F4-Discovery/Libraries/STM32F4xx_StdPeriph_Driver/src/stm32f4xx_tim.c **** 
1322:App/STM32F4-Discovery/Libraries/STM32F4xx_StdPeriph_Driver/src/stm32f4xx_tim.c ****   /* Check the parameters */
1323:App/STM32F4-Discovery/Libraries/STM32F4xx_StdPeriph_Driver/src/stm32f4xx_tim.c ****   assert_param(IS_TIM_LIST3_PERIPH(TIMx));
 4957              		.loc 1 1323 0
 4958 0010 7A68     		ldr	r2, [r7, #4]
 4959 0012 1D4B     		ldr	r3, .L210
 4960 0014 9A42     		cmp	r2, r3
 4961 0016 18D0     		beq	.L208
 4962              		.loc 1 1323 0 is_stmt 0 discriminator 1
 4963 0018 7B68     		ldr	r3, [r7, #4]
 4964 001a B3F1804F 		cmp	r3, #1073741824
 4965 001e 14D0     		beq	.L208
 4966 0020 7A68     		ldr	r2, [r7, #4]
 4967 0022 1A4B     		ldr	r3, .L210+4
 4968 0024 9A42     		cmp	r2, r3
 4969 0026 10D0     		beq	.L208
 4970 0028 7A68     		ldr	r2, [r7, #4]
 4971 002a 194B     		ldr	r3, .L210+8
 4972 002c 9A42     		cmp	r2, r3
 4973 002e 0CD0     		beq	.L208
 4974 0030 7A68     		ldr	r2, [r7, #4]
 4975 0032 184B     		ldr	r3, .L210+12
 4976 0034 9A42     		cmp	r2, r3
 4977 0036 08D0     		beq	.L208
 4978 0038 7A68     		ldr	r2, [r7, #4]
 4979 003a 174B     		ldr	r3, .L210+16
 4980 003c 9A42     		cmp	r2, r3
 4981 003e 04D0     		beq	.L208
 4982 0040 1648     		ldr	r0, .L210+20
 4983 0042 40F22B51 		movw	r1, #1323
 4984 0046 FFF7FEFF 		bl	assert_failed
 4985              	.L208:
1324:App/STM32F4-Discovery/Libraries/STM32F4xx_StdPeriph_Driver/src/stm32f4xx_tim.c ****   assert_param(IS_TIM_OCPRELOAD_STATE(TIM_OCPreload));
 4986              		.loc 1 1324 0 is_stmt 1
 4987 004a 7B88     		ldrh	r3, [r7, #2]
 4988 004c 082B     		cmp	r3, #8
 4989 004e 07D0     		beq	.L209
 4990              		.loc 1 1324 0 is_stmt 0 discriminator 1
 4991 0050 7B88     		ldrh	r3, [r7, #2]
 4992 0052 002B     		cmp	r3, #0
 4993 0054 04D0     		beq	.L209
 4994 0056 1148     		ldr	r0, .L210+20
 4995 0058 40F22C51 		movw	r1, #1324
 4996 005c FFF7FEFF 		bl	assert_failed
 4997              	.L209:
1325:App/STM32F4-Discovery/Libraries/STM32F4xx_StdPeriph_Driver/src/stm32f4xx_tim.c **** 
1326:App/STM32F4-Discovery/Libraries/STM32F4xx_StdPeriph_Driver/src/stm32f4xx_tim.c ****   tmpccmr2 = TIMx->CCMR2;
 4998              		.loc 1 1326 0 is_stmt 1
 4999 0060 7B68     		ldr	r3, [r7, #4]
 5000 0062 9B8B     		ldrh	r3, [r3, #28]	@ movhi
 5001 0064 FB81     		strh	r3, [r7, #14]	@ movhi
1327:App/STM32F4-Discovery/Libraries/STM32F4xx_StdPeriph_Driver/src/stm32f4xx_tim.c **** 
1328:App/STM32F4-Discovery/Libraries/STM32F4xx_StdPeriph_Driver/src/stm32f4xx_tim.c ****   /* Reset the OC4PE Bit */
1329:App/STM32F4-Discovery/Libraries/STM32F4xx_StdPeriph_Driver/src/stm32f4xx_tim.c ****   tmpccmr2 &= (uint16_t)(~TIM_CCMR2_OC4PE);
 5002              		.loc 1 1329 0
 5003 0066 FB89     		ldrh	r3, [r7, #14]	@ movhi
 5004 0068 23F40063 		bic	r3, r3, #2048
 5005 006c FB81     		strh	r3, [r7, #14]	@ movhi
1330:App/STM32F4-Discovery/Libraries/STM32F4xx_StdPeriph_Driver/src/stm32f4xx_tim.c **** 
1331:App/STM32F4-Discovery/Libraries/STM32F4xx_StdPeriph_Driver/src/stm32f4xx_tim.c ****   /* Enable or Disable the Output Compare Preload feature */
1332:App/STM32F4-Discovery/Libraries/STM32F4xx_StdPeriph_Driver/src/stm32f4xx_tim.c ****   tmpccmr2 |= (uint16_t)(TIM_OCPreload << 8);
 5006              		.loc 1 1332 0
 5007 006e 7B88     		ldrh	r3, [r7, #2]	@ movhi
 5008 0070 1B02     		lsls	r3, r3, #8
 5009 0072 9AB2     		uxth	r2, r3
 5010 0074 FB89     		ldrh	r3, [r7, #14]	@ movhi
 5011 0076 1343     		orrs	r3, r3, r2
 5012 0078 FB81     		strh	r3, [r7, #14]	@ movhi
1333:App/STM32F4-Discovery/Libraries/STM32F4xx_StdPeriph_Driver/src/stm32f4xx_tim.c **** 
1334:App/STM32F4-Discovery/Libraries/STM32F4xx_StdPeriph_Driver/src/stm32f4xx_tim.c ****   /* Write to TIMx CCMR2 register */
1335:App/STM32F4-Discovery/Libraries/STM32F4xx_StdPeriph_Driver/src/stm32f4xx_tim.c ****   TIMx->CCMR2 = tmpccmr2;
 5013              		.loc 1 1335 0
 5014 007a 7B68     		ldr	r3, [r7, #4]
 5015 007c FA89     		ldrh	r2, [r7, #14]	@ movhi
 5016 007e 9A83     		strh	r2, [r3, #28]	@ movhi
1336:App/STM32F4-Discovery/Libraries/STM32F4xx_StdPeriph_Driver/src/stm32f4xx_tim.c **** }
 5017              		.loc 1 1336 0
 5018 0080 1037     		adds	r7, r7, #16
 5019 0082 BD46     		mov	sp, r7
 5020              		@ sp needed
 5021 0084 80BD     		pop	{r7, pc}
 5022              	.L211:
 5023 0086 00BF     		.align	2
 5024              	.L210:
 5025 0088 00000140 		.word	1073807360
 5026 008c 00040040 		.word	1073742848
 5027 0090 00080040 		.word	1073743872
 5028 0094 000C0040 		.word	1073744896
 5029 0098 00040140 		.word	1073808384
 5030 009c 00000000 		.word	.LC0
 5031              		.cfi_endproc
 5032              	.LFE142:
 5034              		.section	.text.TIM_OC1FastConfig,"ax",%progbits
 5035              		.align	2
 5036              		.global	TIM_OC1FastConfig
 5037              		.thumb
 5038              		.thumb_func
 5040              	TIM_OC1FastConfig:
 5041              	.LFB143:
1337:App/STM32F4-Discovery/Libraries/STM32F4xx_StdPeriph_Driver/src/stm32f4xx_tim.c **** 
1338:App/STM32F4-Discovery/Libraries/STM32F4xx_StdPeriph_Driver/src/stm32f4xx_tim.c **** /**
1339:App/STM32F4-Discovery/Libraries/STM32F4xx_StdPeriph_Driver/src/stm32f4xx_tim.c ****   * @brief  Configures the TIMx Output Compare 1 Fast feature.
1340:App/STM32F4-Discovery/Libraries/STM32F4xx_StdPeriph_Driver/src/stm32f4xx_tim.c ****   * @param  TIMx: where x can be 1 to 14 except 6 and 7, to select the TIM peripheral.
1341:App/STM32F4-Discovery/Libraries/STM32F4xx_StdPeriph_Driver/src/stm32f4xx_tim.c ****   * @param  TIM_OCFast: new state of the Output Compare Fast Enable Bit.
1342:App/STM32F4-Discovery/Libraries/STM32F4xx_StdPeriph_Driver/src/stm32f4xx_tim.c ****   *          This parameter can be one of the following values:
1343:App/STM32F4-Discovery/Libraries/STM32F4xx_StdPeriph_Driver/src/stm32f4xx_tim.c ****   *            @arg TIM_OCFast_Enable: TIM output compare fast enable
1344:App/STM32F4-Discovery/Libraries/STM32F4xx_StdPeriph_Driver/src/stm32f4xx_tim.c ****   *            @arg TIM_OCFast_Disable: TIM output compare fast disable
1345:App/STM32F4-Discovery/Libraries/STM32F4xx_StdPeriph_Driver/src/stm32f4xx_tim.c ****   * @retval None
1346:App/STM32F4-Discovery/Libraries/STM32F4xx_StdPeriph_Driver/src/stm32f4xx_tim.c ****   */
1347:App/STM32F4-Discovery/Libraries/STM32F4xx_StdPeriph_Driver/src/stm32f4xx_tim.c **** void TIM_OC1FastConfig(TIM_TypeDef* TIMx, uint16_t TIM_OCFast)
1348:App/STM32F4-Discovery/Libraries/STM32F4xx_StdPeriph_Driver/src/stm32f4xx_tim.c **** {
 5042              		.loc 1 1348 0
 5043              		.cfi_startproc
 5044              		@ args = 0, pretend = 0, frame = 16
 5045              		@ frame_needed = 1, uses_anonymous_args = 0
 5046 0000 80B5     		push	{r7, lr}
 5047              	.LCFI99:
 5048              		.cfi_def_cfa_offset 8
 5049              		.cfi_offset 7, -8
 5050              		.cfi_offset 14, -4
 5051 0002 84B0     		sub	sp, sp, #16
 5052              	.LCFI100:
 5053              		.cfi_def_cfa_offset 24
 5054 0004 00AF     		add	r7, sp, #0
 5055              	.LCFI101:
 5056              		.cfi_def_cfa_register 7
 5057 0006 7860     		str	r0, [r7, #4]
 5058 0008 0B46     		mov	r3, r1
 5059 000a 7B80     		strh	r3, [r7, #2]	@ movhi
1349:App/STM32F4-Discovery/Libraries/STM32F4xx_StdPeriph_Driver/src/stm32f4xx_tim.c ****   uint16_t tmpccmr1 = 0;
 5060              		.loc 1 1349 0
 5061 000c 0023     		movs	r3, #0
 5062 000e FB81     		strh	r3, [r7, #14]	@ movhi
1350:App/STM32F4-Discovery/Libraries/STM32F4xx_StdPeriph_Driver/src/stm32f4xx_tim.c **** 
1351:App/STM32F4-Discovery/Libraries/STM32F4xx_StdPeriph_Driver/src/stm32f4xx_tim.c ****   /* Check the parameters */
1352:App/STM32F4-Discovery/Libraries/STM32F4xx_StdPeriph_Driver/src/stm32f4xx_tim.c ****   assert_param(IS_TIM_LIST1_PERIPH(TIMx));
 5063              		.loc 1 1352 0
 5064 0010 7A68     		ldr	r2, [r7, #4]
 5065 0012 284B     		ldr	r3, .L215
 5066 0014 9A42     		cmp	r2, r3
 5067 0016 30D0     		beq	.L213
 5068              		.loc 1 1352 0 is_stmt 0 discriminator 1
 5069 0018 7B68     		ldr	r3, [r7, #4]
 5070 001a B3F1804F 		cmp	r3, #1073741824
 5071 001e 2CD0     		beq	.L213
 5072 0020 7A68     		ldr	r2, [r7, #4]
 5073 0022 254B     		ldr	r3, .L215+4
 5074 0024 9A42     		cmp	r2, r3
 5075 0026 28D0     		beq	.L213
 5076 0028 7A68     		ldr	r2, [r7, #4]
 5077 002a 244B     		ldr	r3, .L215+8
 5078 002c 9A42     		cmp	r2, r3
 5079 002e 24D0     		beq	.L213
 5080 0030 7A68     		ldr	r2, [r7, #4]
 5081 0032 234B     		ldr	r3, .L215+12
 5082 0034 9A42     		cmp	r2, r3
 5083 0036 20D0     		beq	.L213
 5084 0038 7A68     		ldr	r2, [r7, #4]
 5085 003a 224B     		ldr	r3, .L215+16
 5086 003c 9A42     		cmp	r2, r3
 5087 003e 1CD0     		beq	.L213
 5088 0040 7A68     		ldr	r2, [r7, #4]
 5089 0042 214B     		ldr	r3, .L215+20
 5090 0044 9A42     		cmp	r2, r3
 5091 0046 18D0     		beq	.L213
 5092 0048 7A68     		ldr	r2, [r7, #4]
 5093 004a 204B     		ldr	r3, .L215+24
 5094 004c 9A42     		cmp	r2, r3
 5095 004e 14D0     		beq	.L213
 5096 0050 7A68     		ldr	r2, [r7, #4]
 5097 0052 1F4B     		ldr	r3, .L215+28
 5098 0054 9A42     		cmp	r2, r3
 5099 0056 10D0     		beq	.L213
 5100 0058 7A68     		ldr	r2, [r7, #4]
 5101 005a 1E4B     		ldr	r3, .L215+32
 5102 005c 9A42     		cmp	r2, r3
 5103 005e 0CD0     		beq	.L213
 5104 0060 7A68     		ldr	r2, [r7, #4]
 5105 0062 1D4B     		ldr	r3, .L215+36
 5106 0064 9A42     		cmp	r2, r3
 5107 0066 08D0     		beq	.L213
 5108 0068 7A68     		ldr	r2, [r7, #4]
 5109 006a 1C4B     		ldr	r3, .L215+40
 5110 006c 9A42     		cmp	r2, r3
 5111 006e 04D0     		beq	.L213
 5112 0070 1B48     		ldr	r0, .L215+44
 5113 0072 4FF4A961 		mov	r1, #1352
 5114 0076 FFF7FEFF 		bl	assert_failed
 5115              	.L213:
1353:App/STM32F4-Discovery/Libraries/STM32F4xx_StdPeriph_Driver/src/stm32f4xx_tim.c ****   assert_param(IS_TIM_OCFAST_STATE(TIM_OCFast));
 5116              		.loc 1 1353 0 is_stmt 1
 5117 007a 7B88     		ldrh	r3, [r7, #2]
 5118 007c 042B     		cmp	r3, #4
 5119 007e 07D0     		beq	.L214
 5120              		.loc 1 1353 0 is_stmt 0 discriminator 1
 5121 0080 7B88     		ldrh	r3, [r7, #2]
 5122 0082 002B     		cmp	r3, #0
 5123 0084 04D0     		beq	.L214
 5124 0086 1648     		ldr	r0, .L215+44
 5125 0088 40F24951 		movw	r1, #1353
 5126 008c FFF7FEFF 		bl	assert_failed
 5127              	.L214:
1354:App/STM32F4-Discovery/Libraries/STM32F4xx_StdPeriph_Driver/src/stm32f4xx_tim.c **** 
1355:App/STM32F4-Discovery/Libraries/STM32F4xx_StdPeriph_Driver/src/stm32f4xx_tim.c ****   /* Get the TIMx CCMR1 register value */
1356:App/STM32F4-Discovery/Libraries/STM32F4xx_StdPeriph_Driver/src/stm32f4xx_tim.c ****   tmpccmr1 = TIMx->CCMR1;
 5128              		.loc 1 1356 0 is_stmt 1
 5129 0090 7B68     		ldr	r3, [r7, #4]
 5130 0092 1B8B     		ldrh	r3, [r3, #24]	@ movhi
 5131 0094 FB81     		strh	r3, [r7, #14]	@ movhi
1357:App/STM32F4-Discovery/Libraries/STM32F4xx_StdPeriph_Driver/src/stm32f4xx_tim.c **** 
1358:App/STM32F4-Discovery/Libraries/STM32F4xx_StdPeriph_Driver/src/stm32f4xx_tim.c ****   /* Reset the OC1FE Bit */
1359:App/STM32F4-Discovery/Libraries/STM32F4xx_StdPeriph_Driver/src/stm32f4xx_tim.c ****   tmpccmr1 &= (uint16_t)~TIM_CCMR1_OC1FE;
 5132              		.loc 1 1359 0
 5133 0096 FB89     		ldrh	r3, [r7, #14]	@ movhi
 5134 0098 23F00403 		bic	r3, r3, #4
 5135 009c FB81     		strh	r3, [r7, #14]	@ movhi
1360:App/STM32F4-Discovery/Libraries/STM32F4xx_StdPeriph_Driver/src/stm32f4xx_tim.c **** 
1361:App/STM32F4-Discovery/Libraries/STM32F4xx_StdPeriph_Driver/src/stm32f4xx_tim.c ****   /* Enable or Disable the Output Compare Fast Bit */
1362:App/STM32F4-Discovery/Libraries/STM32F4xx_StdPeriph_Driver/src/stm32f4xx_tim.c ****   tmpccmr1 |= TIM_OCFast;
 5136              		.loc 1 1362 0
 5137 009e FA89     		ldrh	r2, [r7, #14]	@ movhi
 5138 00a0 7B88     		ldrh	r3, [r7, #2]	@ movhi
 5139 00a2 1343     		orrs	r3, r3, r2
 5140 00a4 FB81     		strh	r3, [r7, #14]	@ movhi
1363:App/STM32F4-Discovery/Libraries/STM32F4xx_StdPeriph_Driver/src/stm32f4xx_tim.c **** 
1364:App/STM32F4-Discovery/Libraries/STM32F4xx_StdPeriph_Driver/src/stm32f4xx_tim.c ****   /* Write to TIMx CCMR1 */
1365:App/STM32F4-Discovery/Libraries/STM32F4xx_StdPeriph_Driver/src/stm32f4xx_tim.c ****   TIMx->CCMR1 = tmpccmr1;
 5141              		.loc 1 1365 0
 5142 00a6 7B68     		ldr	r3, [r7, #4]
 5143 00a8 FA89     		ldrh	r2, [r7, #14]	@ movhi
 5144 00aa 1A83     		strh	r2, [r3, #24]	@ movhi
1366:App/STM32F4-Discovery/Libraries/STM32F4xx_StdPeriph_Driver/src/stm32f4xx_tim.c **** }
 5145              		.loc 1 1366 0
 5146 00ac 1037     		adds	r7, r7, #16
 5147 00ae BD46     		mov	sp, r7
 5148              		@ sp needed
 5149 00b0 80BD     		pop	{r7, pc}
 5150              	.L216:
 5151 00b2 00BF     		.align	2
 5152              	.L215:
 5153 00b4 00000140 		.word	1073807360
 5154 00b8 00040040 		.word	1073742848
 5155 00bc 00080040 		.word	1073743872
 5156 00c0 000C0040 		.word	1073744896
 5157 00c4 00040140 		.word	1073808384
 5158 00c8 00400140 		.word	1073823744
 5159 00cc 00440140 		.word	1073824768
 5160 00d0 00480140 		.word	1073825792
 5161 00d4 00180040 		.word	1073747968
 5162 00d8 001C0040 		.word	1073748992
 5163 00dc 00200040 		.word	1073750016
 5164 00e0 00000000 		.word	.LC0
 5165              		.cfi_endproc
 5166              	.LFE143:
 5168              		.section	.text.TIM_OC2FastConfig,"ax",%progbits
 5169              		.align	2
 5170              		.global	TIM_OC2FastConfig
 5171              		.thumb
 5172              		.thumb_func
 5174              	TIM_OC2FastConfig:
 5175              	.LFB144:
1367:App/STM32F4-Discovery/Libraries/STM32F4xx_StdPeriph_Driver/src/stm32f4xx_tim.c **** 
1368:App/STM32F4-Discovery/Libraries/STM32F4xx_StdPeriph_Driver/src/stm32f4xx_tim.c **** /**
1369:App/STM32F4-Discovery/Libraries/STM32F4xx_StdPeriph_Driver/src/stm32f4xx_tim.c ****   * @brief  Configures the TIMx Output Compare 2 Fast feature.
1370:App/STM32F4-Discovery/Libraries/STM32F4xx_StdPeriph_Driver/src/stm32f4xx_tim.c ****   * @param  TIMx: where x can be  1, 2, 3, 4, 5, 8, 9 or 12 to select the TIM 
1371:App/STM32F4-Discovery/Libraries/STM32F4xx_StdPeriph_Driver/src/stm32f4xx_tim.c ****   *         peripheral.
1372:App/STM32F4-Discovery/Libraries/STM32F4xx_StdPeriph_Driver/src/stm32f4xx_tim.c ****   * @param  TIM_OCFast: new state of the Output Compare Fast Enable Bit.
1373:App/STM32F4-Discovery/Libraries/STM32F4xx_StdPeriph_Driver/src/stm32f4xx_tim.c ****   *          This parameter can be one of the following values:
1374:App/STM32F4-Discovery/Libraries/STM32F4xx_StdPeriph_Driver/src/stm32f4xx_tim.c ****   *            @arg TIM_OCFast_Enable: TIM output compare fast enable
1375:App/STM32F4-Discovery/Libraries/STM32F4xx_StdPeriph_Driver/src/stm32f4xx_tim.c ****   *            @arg TIM_OCFast_Disable: TIM output compare fast disable
1376:App/STM32F4-Discovery/Libraries/STM32F4xx_StdPeriph_Driver/src/stm32f4xx_tim.c ****   * @retval None
1377:App/STM32F4-Discovery/Libraries/STM32F4xx_StdPeriph_Driver/src/stm32f4xx_tim.c ****   */
1378:App/STM32F4-Discovery/Libraries/STM32F4xx_StdPeriph_Driver/src/stm32f4xx_tim.c **** void TIM_OC2FastConfig(TIM_TypeDef* TIMx, uint16_t TIM_OCFast)
1379:App/STM32F4-Discovery/Libraries/STM32F4xx_StdPeriph_Driver/src/stm32f4xx_tim.c **** {
 5176              		.loc 1 1379 0
 5177              		.cfi_startproc
 5178              		@ args = 0, pretend = 0, frame = 16
 5179              		@ frame_needed = 1, uses_anonymous_args = 0
 5180 0000 80B5     		push	{r7, lr}
 5181              	.LCFI102:
 5182              		.cfi_def_cfa_offset 8
 5183              		.cfi_offset 7, -8
 5184              		.cfi_offset 14, -4
 5185 0002 84B0     		sub	sp, sp, #16
 5186              	.LCFI103:
 5187              		.cfi_def_cfa_offset 24
 5188 0004 00AF     		add	r7, sp, #0
 5189              	.LCFI104:
 5190              		.cfi_def_cfa_register 7
 5191 0006 7860     		str	r0, [r7, #4]
 5192 0008 0B46     		mov	r3, r1
 5193 000a 7B80     		strh	r3, [r7, #2]	@ movhi
1380:App/STM32F4-Discovery/Libraries/STM32F4xx_StdPeriph_Driver/src/stm32f4xx_tim.c ****   uint16_t tmpccmr1 = 0;
 5194              		.loc 1 1380 0
 5195 000c 0023     		movs	r3, #0
 5196 000e FB81     		strh	r3, [r7, #14]	@ movhi
1381:App/STM32F4-Discovery/Libraries/STM32F4xx_StdPeriph_Driver/src/stm32f4xx_tim.c **** 
1382:App/STM32F4-Discovery/Libraries/STM32F4xx_StdPeriph_Driver/src/stm32f4xx_tim.c ****   /* Check the parameters */
1383:App/STM32F4-Discovery/Libraries/STM32F4xx_StdPeriph_Driver/src/stm32f4xx_tim.c ****   assert_param(IS_TIM_LIST2_PERIPH(TIMx));
 5197              		.loc 1 1383 0
 5198 0010 7A68     		ldr	r2, [r7, #4]
 5199 0012 214B     		ldr	r3, .L220
 5200 0014 9A42     		cmp	r2, r3
 5201 0016 20D0     		beq	.L218
 5202              		.loc 1 1383 0 is_stmt 0 discriminator 1
 5203 0018 7B68     		ldr	r3, [r7, #4]
 5204 001a B3F1804F 		cmp	r3, #1073741824
 5205 001e 1CD0     		beq	.L218
 5206 0020 7A68     		ldr	r2, [r7, #4]
 5207 0022 1E4B     		ldr	r3, .L220+4
 5208 0024 9A42     		cmp	r2, r3
 5209 0026 18D0     		beq	.L218
 5210 0028 7A68     		ldr	r2, [r7, #4]
 5211 002a 1D4B     		ldr	r3, .L220+8
 5212 002c 9A42     		cmp	r2, r3
 5213 002e 14D0     		beq	.L218
 5214 0030 7A68     		ldr	r2, [r7, #4]
 5215 0032 1C4B     		ldr	r3, .L220+12
 5216 0034 9A42     		cmp	r2, r3
 5217 0036 10D0     		beq	.L218
 5218 0038 7A68     		ldr	r2, [r7, #4]
 5219 003a 1B4B     		ldr	r3, .L220+16
 5220 003c 9A42     		cmp	r2, r3
 5221 003e 0CD0     		beq	.L218
 5222 0040 7A68     		ldr	r2, [r7, #4]
 5223 0042 1A4B     		ldr	r3, .L220+20
 5224 0044 9A42     		cmp	r2, r3
 5225 0046 08D0     		beq	.L218
 5226 0048 7A68     		ldr	r2, [r7, #4]
 5227 004a 194B     		ldr	r3, .L220+24
 5228 004c 9A42     		cmp	r2, r3
 5229 004e 04D0     		beq	.L218
 5230 0050 1848     		ldr	r0, .L220+28
 5231 0052 40F26751 		movw	r1, #1383
 5232 0056 FFF7FEFF 		bl	assert_failed
 5233              	.L218:
1384:App/STM32F4-Discovery/Libraries/STM32F4xx_StdPeriph_Driver/src/stm32f4xx_tim.c ****   assert_param(IS_TIM_OCFAST_STATE(TIM_OCFast));
 5234              		.loc 1 1384 0 is_stmt 1
 5235 005a 7B88     		ldrh	r3, [r7, #2]
 5236 005c 042B     		cmp	r3, #4
 5237 005e 07D0     		beq	.L219
 5238              		.loc 1 1384 0 is_stmt 0 discriminator 1
 5239 0060 7B88     		ldrh	r3, [r7, #2]
 5240 0062 002B     		cmp	r3, #0
 5241 0064 04D0     		beq	.L219
 5242 0066 1348     		ldr	r0, .L220+28
 5243 0068 4FF4AD61 		mov	r1, #1384
 5244 006c FFF7FEFF 		bl	assert_failed
 5245              	.L219:
1385:App/STM32F4-Discovery/Libraries/STM32F4xx_StdPeriph_Driver/src/stm32f4xx_tim.c **** 
1386:App/STM32F4-Discovery/Libraries/STM32F4xx_StdPeriph_Driver/src/stm32f4xx_tim.c ****   /* Get the TIMx CCMR1 register value */
1387:App/STM32F4-Discovery/Libraries/STM32F4xx_StdPeriph_Driver/src/stm32f4xx_tim.c ****   tmpccmr1 = TIMx->CCMR1;
 5246              		.loc 1 1387 0 is_stmt 1
 5247 0070 7B68     		ldr	r3, [r7, #4]
 5248 0072 1B8B     		ldrh	r3, [r3, #24]	@ movhi
 5249 0074 FB81     		strh	r3, [r7, #14]	@ movhi
1388:App/STM32F4-Discovery/Libraries/STM32F4xx_StdPeriph_Driver/src/stm32f4xx_tim.c **** 
1389:App/STM32F4-Discovery/Libraries/STM32F4xx_StdPeriph_Driver/src/stm32f4xx_tim.c ****   /* Reset the OC2FE Bit */
1390:App/STM32F4-Discovery/Libraries/STM32F4xx_StdPeriph_Driver/src/stm32f4xx_tim.c ****   tmpccmr1 &= (uint16_t)(~TIM_CCMR1_OC2FE);
 5250              		.loc 1 1390 0
 5251 0076 FB89     		ldrh	r3, [r7, #14]	@ movhi
 5252 0078 23F48063 		bic	r3, r3, #1024
 5253 007c FB81     		strh	r3, [r7, #14]	@ movhi
1391:App/STM32F4-Discovery/Libraries/STM32F4xx_StdPeriph_Driver/src/stm32f4xx_tim.c **** 
1392:App/STM32F4-Discovery/Libraries/STM32F4xx_StdPeriph_Driver/src/stm32f4xx_tim.c ****   /* Enable or Disable the Output Compare Fast Bit */
1393:App/STM32F4-Discovery/Libraries/STM32F4xx_StdPeriph_Driver/src/stm32f4xx_tim.c ****   tmpccmr1 |= (uint16_t)(TIM_OCFast << 8);
 5254              		.loc 1 1393 0
 5255 007e 7B88     		ldrh	r3, [r7, #2]	@ movhi
 5256 0080 1B02     		lsls	r3, r3, #8
 5257 0082 9AB2     		uxth	r2, r3
 5258 0084 FB89     		ldrh	r3, [r7, #14]	@ movhi
 5259 0086 1343     		orrs	r3, r3, r2
 5260 0088 FB81     		strh	r3, [r7, #14]	@ movhi
1394:App/STM32F4-Discovery/Libraries/STM32F4xx_StdPeriph_Driver/src/stm32f4xx_tim.c **** 
1395:App/STM32F4-Discovery/Libraries/STM32F4xx_StdPeriph_Driver/src/stm32f4xx_tim.c ****   /* Write to TIMx CCMR1 */
1396:App/STM32F4-Discovery/Libraries/STM32F4xx_StdPeriph_Driver/src/stm32f4xx_tim.c ****   TIMx->CCMR1 = tmpccmr1;
 5261              		.loc 1 1396 0
 5262 008a 7B68     		ldr	r3, [r7, #4]
 5263 008c FA89     		ldrh	r2, [r7, #14]	@ movhi
 5264 008e 1A83     		strh	r2, [r3, #24]	@ movhi
1397:App/STM32F4-Discovery/Libraries/STM32F4xx_StdPeriph_Driver/src/stm32f4xx_tim.c **** }
 5265              		.loc 1 1397 0
 5266 0090 1037     		adds	r7, r7, #16
 5267 0092 BD46     		mov	sp, r7
 5268              		@ sp needed
 5269 0094 80BD     		pop	{r7, pc}
 5270              	.L221:
 5271 0096 00BF     		.align	2
 5272              	.L220:
 5273 0098 00000140 		.word	1073807360
 5274 009c 00040040 		.word	1073742848
 5275 00a0 00080040 		.word	1073743872
 5276 00a4 000C0040 		.word	1073744896
 5277 00a8 00040140 		.word	1073808384
 5278 00ac 00400140 		.word	1073823744
 5279 00b0 00180040 		.word	1073747968
 5280 00b4 00000000 		.word	.LC0
 5281              		.cfi_endproc
 5282              	.LFE144:
 5284              		.section	.text.TIM_OC3FastConfig,"ax",%progbits
 5285              		.align	2
 5286              		.global	TIM_OC3FastConfig
 5287              		.thumb
 5288              		.thumb_func
 5290              	TIM_OC3FastConfig:
 5291              	.LFB145:
1398:App/STM32F4-Discovery/Libraries/STM32F4xx_StdPeriph_Driver/src/stm32f4xx_tim.c **** 
1399:App/STM32F4-Discovery/Libraries/STM32F4xx_StdPeriph_Driver/src/stm32f4xx_tim.c **** /**
1400:App/STM32F4-Discovery/Libraries/STM32F4xx_StdPeriph_Driver/src/stm32f4xx_tim.c ****   * @brief  Configures the TIMx Output Compare 3 Fast feature.
1401:App/STM32F4-Discovery/Libraries/STM32F4xx_StdPeriph_Driver/src/stm32f4xx_tim.c ****   * @param  TIMx: where x can be  1, 2, 3, 4, 5 or 8 to select the TIM peripheral.
1402:App/STM32F4-Discovery/Libraries/STM32F4xx_StdPeriph_Driver/src/stm32f4xx_tim.c ****   * @param  TIM_OCFast: new state of the Output Compare Fast Enable Bit.
1403:App/STM32F4-Discovery/Libraries/STM32F4xx_StdPeriph_Driver/src/stm32f4xx_tim.c ****   *          This parameter can be one of the following values:
1404:App/STM32F4-Discovery/Libraries/STM32F4xx_StdPeriph_Driver/src/stm32f4xx_tim.c ****   *            @arg TIM_OCFast_Enable: TIM output compare fast enable
1405:App/STM32F4-Discovery/Libraries/STM32F4xx_StdPeriph_Driver/src/stm32f4xx_tim.c ****   *            @arg TIM_OCFast_Disable: TIM output compare fast disable
1406:App/STM32F4-Discovery/Libraries/STM32F4xx_StdPeriph_Driver/src/stm32f4xx_tim.c ****   * @retval None
1407:App/STM32F4-Discovery/Libraries/STM32F4xx_StdPeriph_Driver/src/stm32f4xx_tim.c ****   */
1408:App/STM32F4-Discovery/Libraries/STM32F4xx_StdPeriph_Driver/src/stm32f4xx_tim.c **** void TIM_OC3FastConfig(TIM_TypeDef* TIMx, uint16_t TIM_OCFast)
1409:App/STM32F4-Discovery/Libraries/STM32F4xx_StdPeriph_Driver/src/stm32f4xx_tim.c **** {
 5292              		.loc 1 1409 0
 5293              		.cfi_startproc
 5294              		@ args = 0, pretend = 0, frame = 16
 5295              		@ frame_needed = 1, uses_anonymous_args = 0
 5296 0000 80B5     		push	{r7, lr}
 5297              	.LCFI105:
 5298              		.cfi_def_cfa_offset 8
 5299              		.cfi_offset 7, -8
 5300              		.cfi_offset 14, -4
 5301 0002 84B0     		sub	sp, sp, #16
 5302              	.LCFI106:
 5303              		.cfi_def_cfa_offset 24
 5304 0004 00AF     		add	r7, sp, #0
 5305              	.LCFI107:
 5306              		.cfi_def_cfa_register 7
 5307 0006 7860     		str	r0, [r7, #4]
 5308 0008 0B46     		mov	r3, r1
 5309 000a 7B80     		strh	r3, [r7, #2]	@ movhi
1410:App/STM32F4-Discovery/Libraries/STM32F4xx_StdPeriph_Driver/src/stm32f4xx_tim.c ****   uint16_t tmpccmr2 = 0;
 5310              		.loc 1 1410 0
 5311 000c 0023     		movs	r3, #0
 5312 000e FB81     		strh	r3, [r7, #14]	@ movhi
1411:App/STM32F4-Discovery/Libraries/STM32F4xx_StdPeriph_Driver/src/stm32f4xx_tim.c ****   
1412:App/STM32F4-Discovery/Libraries/STM32F4xx_StdPeriph_Driver/src/stm32f4xx_tim.c ****   /* Check the parameters */
1413:App/STM32F4-Discovery/Libraries/STM32F4xx_StdPeriph_Driver/src/stm32f4xx_tim.c ****   assert_param(IS_TIM_LIST3_PERIPH(TIMx));
 5313              		.loc 1 1413 0
 5314 0010 7A68     		ldr	r2, [r7, #4]
 5315 0012 1C4B     		ldr	r3, .L225
 5316 0014 9A42     		cmp	r2, r3
 5317 0016 18D0     		beq	.L223
 5318              		.loc 1 1413 0 is_stmt 0 discriminator 1
 5319 0018 7B68     		ldr	r3, [r7, #4]
 5320 001a B3F1804F 		cmp	r3, #1073741824
 5321 001e 14D0     		beq	.L223
 5322 0020 7A68     		ldr	r2, [r7, #4]
 5323 0022 194B     		ldr	r3, .L225+4
 5324 0024 9A42     		cmp	r2, r3
 5325 0026 10D0     		beq	.L223
 5326 0028 7A68     		ldr	r2, [r7, #4]
 5327 002a 184B     		ldr	r3, .L225+8
 5328 002c 9A42     		cmp	r2, r3
 5329 002e 0CD0     		beq	.L223
 5330 0030 7A68     		ldr	r2, [r7, #4]
 5331 0032 174B     		ldr	r3, .L225+12
 5332 0034 9A42     		cmp	r2, r3
 5333 0036 08D0     		beq	.L223
 5334 0038 7A68     		ldr	r2, [r7, #4]
 5335 003a 164B     		ldr	r3, .L225+16
 5336 003c 9A42     		cmp	r2, r3
 5337 003e 04D0     		beq	.L223
 5338 0040 1548     		ldr	r0, .L225+20
 5339 0042 40F28551 		movw	r1, #1413
 5340 0046 FFF7FEFF 		bl	assert_failed
 5341              	.L223:
1414:App/STM32F4-Discovery/Libraries/STM32F4xx_StdPeriph_Driver/src/stm32f4xx_tim.c ****   assert_param(IS_TIM_OCFAST_STATE(TIM_OCFast));
 5342              		.loc 1 1414 0 is_stmt 1
 5343 004a 7B88     		ldrh	r3, [r7, #2]
 5344 004c 042B     		cmp	r3, #4
 5345 004e 07D0     		beq	.L224
 5346              		.loc 1 1414 0 is_stmt 0 discriminator 1
 5347 0050 7B88     		ldrh	r3, [r7, #2]
 5348 0052 002B     		cmp	r3, #0
 5349 0054 04D0     		beq	.L224
 5350 0056 1048     		ldr	r0, .L225+20
 5351 0058 40F28651 		movw	r1, #1414
 5352 005c FFF7FEFF 		bl	assert_failed
 5353              	.L224:
1415:App/STM32F4-Discovery/Libraries/STM32F4xx_StdPeriph_Driver/src/stm32f4xx_tim.c **** 
1416:App/STM32F4-Discovery/Libraries/STM32F4xx_StdPeriph_Driver/src/stm32f4xx_tim.c ****   /* Get the TIMx CCMR2 register value */
1417:App/STM32F4-Discovery/Libraries/STM32F4xx_StdPeriph_Driver/src/stm32f4xx_tim.c ****   tmpccmr2 = TIMx->CCMR2;
 5354              		.loc 1 1417 0 is_stmt 1
 5355 0060 7B68     		ldr	r3, [r7, #4]
 5356 0062 9B8B     		ldrh	r3, [r3, #28]	@ movhi
 5357 0064 FB81     		strh	r3, [r7, #14]	@ movhi
1418:App/STM32F4-Discovery/Libraries/STM32F4xx_StdPeriph_Driver/src/stm32f4xx_tim.c **** 
1419:App/STM32F4-Discovery/Libraries/STM32F4xx_StdPeriph_Driver/src/stm32f4xx_tim.c ****   /* Reset the OC3FE Bit */
1420:App/STM32F4-Discovery/Libraries/STM32F4xx_StdPeriph_Driver/src/stm32f4xx_tim.c ****   tmpccmr2 &= (uint16_t)~TIM_CCMR2_OC3FE;
 5358              		.loc 1 1420 0
 5359 0066 FB89     		ldrh	r3, [r7, #14]	@ movhi
 5360 0068 23F00403 		bic	r3, r3, #4
 5361 006c FB81     		strh	r3, [r7, #14]	@ movhi
1421:App/STM32F4-Discovery/Libraries/STM32F4xx_StdPeriph_Driver/src/stm32f4xx_tim.c **** 
1422:App/STM32F4-Discovery/Libraries/STM32F4xx_StdPeriph_Driver/src/stm32f4xx_tim.c ****   /* Enable or Disable the Output Compare Fast Bit */
1423:App/STM32F4-Discovery/Libraries/STM32F4xx_StdPeriph_Driver/src/stm32f4xx_tim.c ****   tmpccmr2 |= TIM_OCFast;
 5362              		.loc 1 1423 0
 5363 006e FA89     		ldrh	r2, [r7, #14]	@ movhi
 5364 0070 7B88     		ldrh	r3, [r7, #2]	@ movhi
 5365 0072 1343     		orrs	r3, r3, r2
 5366 0074 FB81     		strh	r3, [r7, #14]	@ movhi
1424:App/STM32F4-Discovery/Libraries/STM32F4xx_StdPeriph_Driver/src/stm32f4xx_tim.c **** 
1425:App/STM32F4-Discovery/Libraries/STM32F4xx_StdPeriph_Driver/src/stm32f4xx_tim.c ****   /* Write to TIMx CCMR2 */
1426:App/STM32F4-Discovery/Libraries/STM32F4xx_StdPeriph_Driver/src/stm32f4xx_tim.c ****   TIMx->CCMR2 = tmpccmr2;
 5367              		.loc 1 1426 0
 5368 0076 7B68     		ldr	r3, [r7, #4]
 5369 0078 FA89     		ldrh	r2, [r7, #14]	@ movhi
 5370 007a 9A83     		strh	r2, [r3, #28]	@ movhi
1427:App/STM32F4-Discovery/Libraries/STM32F4xx_StdPeriph_Driver/src/stm32f4xx_tim.c **** }
 5371              		.loc 1 1427 0
 5372 007c 1037     		adds	r7, r7, #16
 5373 007e BD46     		mov	sp, r7
 5374              		@ sp needed
 5375 0080 80BD     		pop	{r7, pc}
 5376              	.L226:
 5377 0082 00BF     		.align	2
 5378              	.L225:
 5379 0084 00000140 		.word	1073807360
 5380 0088 00040040 		.word	1073742848
 5381 008c 00080040 		.word	1073743872
 5382 0090 000C0040 		.word	1073744896
 5383 0094 00040140 		.word	1073808384
 5384 0098 00000000 		.word	.LC0
 5385              		.cfi_endproc
 5386              	.LFE145:
 5388              		.section	.text.TIM_OC4FastConfig,"ax",%progbits
 5389              		.align	2
 5390              		.global	TIM_OC4FastConfig
 5391              		.thumb
 5392              		.thumb_func
 5394              	TIM_OC4FastConfig:
 5395              	.LFB146:
1428:App/STM32F4-Discovery/Libraries/STM32F4xx_StdPeriph_Driver/src/stm32f4xx_tim.c **** 
1429:App/STM32F4-Discovery/Libraries/STM32F4xx_StdPeriph_Driver/src/stm32f4xx_tim.c **** /**
1430:App/STM32F4-Discovery/Libraries/STM32F4xx_StdPeriph_Driver/src/stm32f4xx_tim.c ****   * @brief  Configures the TIMx Output Compare 4 Fast feature.
1431:App/STM32F4-Discovery/Libraries/STM32F4xx_StdPeriph_Driver/src/stm32f4xx_tim.c ****   * @param  TIMx: where x can be  1, 2, 3, 4, 5 or 8 to select the TIM peripheral.
1432:App/STM32F4-Discovery/Libraries/STM32F4xx_StdPeriph_Driver/src/stm32f4xx_tim.c ****   * @param  TIM_OCFast: new state of the Output Compare Fast Enable Bit.
1433:App/STM32F4-Discovery/Libraries/STM32F4xx_StdPeriph_Driver/src/stm32f4xx_tim.c ****   *          This parameter can be one of the following values:
1434:App/STM32F4-Discovery/Libraries/STM32F4xx_StdPeriph_Driver/src/stm32f4xx_tim.c ****   *            @arg TIM_OCFast_Enable: TIM output compare fast enable
1435:App/STM32F4-Discovery/Libraries/STM32F4xx_StdPeriph_Driver/src/stm32f4xx_tim.c ****   *            @arg TIM_OCFast_Disable: TIM output compare fast disable
1436:App/STM32F4-Discovery/Libraries/STM32F4xx_StdPeriph_Driver/src/stm32f4xx_tim.c ****   * @retval None
1437:App/STM32F4-Discovery/Libraries/STM32F4xx_StdPeriph_Driver/src/stm32f4xx_tim.c ****   */
1438:App/STM32F4-Discovery/Libraries/STM32F4xx_StdPeriph_Driver/src/stm32f4xx_tim.c **** void TIM_OC4FastConfig(TIM_TypeDef* TIMx, uint16_t TIM_OCFast)
1439:App/STM32F4-Discovery/Libraries/STM32F4xx_StdPeriph_Driver/src/stm32f4xx_tim.c **** {
 5396              		.loc 1 1439 0
 5397              		.cfi_startproc
 5398              		@ args = 0, pretend = 0, frame = 16
 5399              		@ frame_needed = 1, uses_anonymous_args = 0
 5400 0000 80B5     		push	{r7, lr}
 5401              	.LCFI108:
 5402              		.cfi_def_cfa_offset 8
 5403              		.cfi_offset 7, -8
 5404              		.cfi_offset 14, -4
 5405 0002 84B0     		sub	sp, sp, #16
 5406              	.LCFI109:
 5407              		.cfi_def_cfa_offset 24
 5408 0004 00AF     		add	r7, sp, #0
 5409              	.LCFI110:
 5410              		.cfi_def_cfa_register 7
 5411 0006 7860     		str	r0, [r7, #4]
 5412 0008 0B46     		mov	r3, r1
 5413 000a 7B80     		strh	r3, [r7, #2]	@ movhi
1440:App/STM32F4-Discovery/Libraries/STM32F4xx_StdPeriph_Driver/src/stm32f4xx_tim.c ****   uint16_t tmpccmr2 = 0;
 5414              		.loc 1 1440 0
 5415 000c 0023     		movs	r3, #0
 5416 000e FB81     		strh	r3, [r7, #14]	@ movhi
1441:App/STM32F4-Discovery/Libraries/STM32F4xx_StdPeriph_Driver/src/stm32f4xx_tim.c **** 
1442:App/STM32F4-Discovery/Libraries/STM32F4xx_StdPeriph_Driver/src/stm32f4xx_tim.c ****   /* Check the parameters */
1443:App/STM32F4-Discovery/Libraries/STM32F4xx_StdPeriph_Driver/src/stm32f4xx_tim.c ****   assert_param(IS_TIM_LIST3_PERIPH(TIMx));
 5417              		.loc 1 1443 0
 5418 0010 7A68     		ldr	r2, [r7, #4]
 5419 0012 1D4B     		ldr	r3, .L230
 5420 0014 9A42     		cmp	r2, r3
 5421 0016 18D0     		beq	.L228
 5422              		.loc 1 1443 0 is_stmt 0 discriminator 1
 5423 0018 7B68     		ldr	r3, [r7, #4]
 5424 001a B3F1804F 		cmp	r3, #1073741824
 5425 001e 14D0     		beq	.L228
 5426 0020 7A68     		ldr	r2, [r7, #4]
 5427 0022 1A4B     		ldr	r3, .L230+4
 5428 0024 9A42     		cmp	r2, r3
 5429 0026 10D0     		beq	.L228
 5430 0028 7A68     		ldr	r2, [r7, #4]
 5431 002a 194B     		ldr	r3, .L230+8
 5432 002c 9A42     		cmp	r2, r3
 5433 002e 0CD0     		beq	.L228
 5434 0030 7A68     		ldr	r2, [r7, #4]
 5435 0032 184B     		ldr	r3, .L230+12
 5436 0034 9A42     		cmp	r2, r3
 5437 0036 08D0     		beq	.L228
 5438 0038 7A68     		ldr	r2, [r7, #4]
 5439 003a 174B     		ldr	r3, .L230+16
 5440 003c 9A42     		cmp	r2, r3
 5441 003e 04D0     		beq	.L228
 5442 0040 1648     		ldr	r0, .L230+20
 5443 0042 40F2A351 		movw	r1, #1443
 5444 0046 FFF7FEFF 		bl	assert_failed
 5445              	.L228:
1444:App/STM32F4-Discovery/Libraries/STM32F4xx_StdPeriph_Driver/src/stm32f4xx_tim.c ****   assert_param(IS_TIM_OCFAST_STATE(TIM_OCFast));
 5446              		.loc 1 1444 0 is_stmt 1
 5447 004a 7B88     		ldrh	r3, [r7, #2]
 5448 004c 042B     		cmp	r3, #4
 5449 004e 07D0     		beq	.L229
 5450              		.loc 1 1444 0 is_stmt 0 discriminator 1
 5451 0050 7B88     		ldrh	r3, [r7, #2]
 5452 0052 002B     		cmp	r3, #0
 5453 0054 04D0     		beq	.L229
 5454 0056 1148     		ldr	r0, .L230+20
 5455 0058 40F2A451 		movw	r1, #1444
 5456 005c FFF7FEFF 		bl	assert_failed
 5457              	.L229:
1445:App/STM32F4-Discovery/Libraries/STM32F4xx_StdPeriph_Driver/src/stm32f4xx_tim.c **** 
1446:App/STM32F4-Discovery/Libraries/STM32F4xx_StdPeriph_Driver/src/stm32f4xx_tim.c ****   /* Get the TIMx CCMR2 register value */
1447:App/STM32F4-Discovery/Libraries/STM32F4xx_StdPeriph_Driver/src/stm32f4xx_tim.c ****   tmpccmr2 = TIMx->CCMR2;
 5458              		.loc 1 1447 0 is_stmt 1
 5459 0060 7B68     		ldr	r3, [r7, #4]
 5460 0062 9B8B     		ldrh	r3, [r3, #28]	@ movhi
 5461 0064 FB81     		strh	r3, [r7, #14]	@ movhi
1448:App/STM32F4-Discovery/Libraries/STM32F4xx_StdPeriph_Driver/src/stm32f4xx_tim.c **** 
1449:App/STM32F4-Discovery/Libraries/STM32F4xx_StdPeriph_Driver/src/stm32f4xx_tim.c ****   /* Reset the OC4FE Bit */
1450:App/STM32F4-Discovery/Libraries/STM32F4xx_StdPeriph_Driver/src/stm32f4xx_tim.c ****   tmpccmr2 &= (uint16_t)(~TIM_CCMR2_OC4FE);
 5462              		.loc 1 1450 0
 5463 0066 FB89     		ldrh	r3, [r7, #14]	@ movhi
 5464 0068 23F48063 		bic	r3, r3, #1024
 5465 006c FB81     		strh	r3, [r7, #14]	@ movhi
1451:App/STM32F4-Discovery/Libraries/STM32F4xx_StdPeriph_Driver/src/stm32f4xx_tim.c **** 
1452:App/STM32F4-Discovery/Libraries/STM32F4xx_StdPeriph_Driver/src/stm32f4xx_tim.c ****   /* Enable or Disable the Output Compare Fast Bit */
1453:App/STM32F4-Discovery/Libraries/STM32F4xx_StdPeriph_Driver/src/stm32f4xx_tim.c ****   tmpccmr2 |= (uint16_t)(TIM_OCFast << 8);
 5466              		.loc 1 1453 0
 5467 006e 7B88     		ldrh	r3, [r7, #2]	@ movhi
 5468 0070 1B02     		lsls	r3, r3, #8
 5469 0072 9AB2     		uxth	r2, r3
 5470 0074 FB89     		ldrh	r3, [r7, #14]	@ movhi
 5471 0076 1343     		orrs	r3, r3, r2
 5472 0078 FB81     		strh	r3, [r7, #14]	@ movhi
1454:App/STM32F4-Discovery/Libraries/STM32F4xx_StdPeriph_Driver/src/stm32f4xx_tim.c **** 
1455:App/STM32F4-Discovery/Libraries/STM32F4xx_StdPeriph_Driver/src/stm32f4xx_tim.c ****   /* Write to TIMx CCMR2 */
1456:App/STM32F4-Discovery/Libraries/STM32F4xx_StdPeriph_Driver/src/stm32f4xx_tim.c ****   TIMx->CCMR2 = tmpccmr2;
 5473              		.loc 1 1456 0
 5474 007a 7B68     		ldr	r3, [r7, #4]
 5475 007c FA89     		ldrh	r2, [r7, #14]	@ movhi
 5476 007e 9A83     		strh	r2, [r3, #28]	@ movhi
1457:App/STM32F4-Discovery/Libraries/STM32F4xx_StdPeriph_Driver/src/stm32f4xx_tim.c **** }
 5477              		.loc 1 1457 0
 5478 0080 1037     		adds	r7, r7, #16
 5479 0082 BD46     		mov	sp, r7
 5480              		@ sp needed
 5481 0084 80BD     		pop	{r7, pc}
 5482              	.L231:
 5483 0086 00BF     		.align	2
 5484              	.L230:
 5485 0088 00000140 		.word	1073807360
 5486 008c 00040040 		.word	1073742848
 5487 0090 00080040 		.word	1073743872
 5488 0094 000C0040 		.word	1073744896
 5489 0098 00040140 		.word	1073808384
 5490 009c 00000000 		.word	.LC0
 5491              		.cfi_endproc
 5492              	.LFE146:
 5494              		.section	.text.TIM_ClearOC1Ref,"ax",%progbits
 5495              		.align	2
 5496              		.global	TIM_ClearOC1Ref
 5497              		.thumb
 5498              		.thumb_func
 5500              	TIM_ClearOC1Ref:
 5501              	.LFB147:
1458:App/STM32F4-Discovery/Libraries/STM32F4xx_StdPeriph_Driver/src/stm32f4xx_tim.c **** 
1459:App/STM32F4-Discovery/Libraries/STM32F4xx_StdPeriph_Driver/src/stm32f4xx_tim.c **** /**
1460:App/STM32F4-Discovery/Libraries/STM32F4xx_StdPeriph_Driver/src/stm32f4xx_tim.c ****   * @brief  Clears or safeguards the OCREF1 signal on an external event
1461:App/STM32F4-Discovery/Libraries/STM32F4xx_StdPeriph_Driver/src/stm32f4xx_tim.c ****   * @param  TIMx: where x can be 1 to 14 except 6 and 7, to select the TIM peripheral.
1462:App/STM32F4-Discovery/Libraries/STM32F4xx_StdPeriph_Driver/src/stm32f4xx_tim.c ****   * @param  TIM_OCClear: new state of the Output Compare Clear Enable Bit.
1463:App/STM32F4-Discovery/Libraries/STM32F4xx_StdPeriph_Driver/src/stm32f4xx_tim.c ****   *          This parameter can be one of the following values:
1464:App/STM32F4-Discovery/Libraries/STM32F4xx_StdPeriph_Driver/src/stm32f4xx_tim.c ****   *            @arg TIM_OCClear_Enable: TIM Output clear enable
1465:App/STM32F4-Discovery/Libraries/STM32F4xx_StdPeriph_Driver/src/stm32f4xx_tim.c ****   *            @arg TIM_OCClear_Disable: TIM Output clear disable
1466:App/STM32F4-Discovery/Libraries/STM32F4xx_StdPeriph_Driver/src/stm32f4xx_tim.c ****   * @retval None
1467:App/STM32F4-Discovery/Libraries/STM32F4xx_StdPeriph_Driver/src/stm32f4xx_tim.c ****   */
1468:App/STM32F4-Discovery/Libraries/STM32F4xx_StdPeriph_Driver/src/stm32f4xx_tim.c **** void TIM_ClearOC1Ref(TIM_TypeDef* TIMx, uint16_t TIM_OCClear)
1469:App/STM32F4-Discovery/Libraries/STM32F4xx_StdPeriph_Driver/src/stm32f4xx_tim.c **** {
 5502              		.loc 1 1469 0
 5503              		.cfi_startproc
 5504              		@ args = 0, pretend = 0, frame = 16
 5505              		@ frame_needed = 1, uses_anonymous_args = 0
 5506 0000 80B5     		push	{r7, lr}
 5507              	.LCFI111:
 5508              		.cfi_def_cfa_offset 8
 5509              		.cfi_offset 7, -8
 5510              		.cfi_offset 14, -4
 5511 0002 84B0     		sub	sp, sp, #16
 5512              	.LCFI112:
 5513              		.cfi_def_cfa_offset 24
 5514 0004 00AF     		add	r7, sp, #0
 5515              	.LCFI113:
 5516              		.cfi_def_cfa_register 7
 5517 0006 7860     		str	r0, [r7, #4]
 5518 0008 0B46     		mov	r3, r1
 5519 000a 7B80     		strh	r3, [r7, #2]	@ movhi
1470:App/STM32F4-Discovery/Libraries/STM32F4xx_StdPeriph_Driver/src/stm32f4xx_tim.c ****   uint16_t tmpccmr1 = 0;
 5520              		.loc 1 1470 0
 5521 000c 0023     		movs	r3, #0
 5522 000e FB81     		strh	r3, [r7, #14]	@ movhi
1471:App/STM32F4-Discovery/Libraries/STM32F4xx_StdPeriph_Driver/src/stm32f4xx_tim.c **** 
1472:App/STM32F4-Discovery/Libraries/STM32F4xx_StdPeriph_Driver/src/stm32f4xx_tim.c ****   /* Check the parameters */
1473:App/STM32F4-Discovery/Libraries/STM32F4xx_StdPeriph_Driver/src/stm32f4xx_tim.c ****   assert_param(IS_TIM_LIST1_PERIPH(TIMx));
 5523              		.loc 1 1473 0
 5524 0010 7A68     		ldr	r2, [r7, #4]
 5525 0012 284B     		ldr	r3, .L235
 5526 0014 9A42     		cmp	r2, r3
 5527 0016 30D0     		beq	.L233
 5528              		.loc 1 1473 0 is_stmt 0 discriminator 1
 5529 0018 7B68     		ldr	r3, [r7, #4]
 5530 001a B3F1804F 		cmp	r3, #1073741824
 5531 001e 2CD0     		beq	.L233
 5532 0020 7A68     		ldr	r2, [r7, #4]
 5533 0022 254B     		ldr	r3, .L235+4
 5534 0024 9A42     		cmp	r2, r3
 5535 0026 28D0     		beq	.L233
 5536 0028 7A68     		ldr	r2, [r7, #4]
 5537 002a 244B     		ldr	r3, .L235+8
 5538 002c 9A42     		cmp	r2, r3
 5539 002e 24D0     		beq	.L233
 5540 0030 7A68     		ldr	r2, [r7, #4]
 5541 0032 234B     		ldr	r3, .L235+12
 5542 0034 9A42     		cmp	r2, r3
 5543 0036 20D0     		beq	.L233
 5544 0038 7A68     		ldr	r2, [r7, #4]
 5545 003a 224B     		ldr	r3, .L235+16
 5546 003c 9A42     		cmp	r2, r3
 5547 003e 1CD0     		beq	.L233
 5548 0040 7A68     		ldr	r2, [r7, #4]
 5549 0042 214B     		ldr	r3, .L235+20
 5550 0044 9A42     		cmp	r2, r3
 5551 0046 18D0     		beq	.L233
 5552 0048 7A68     		ldr	r2, [r7, #4]
 5553 004a 204B     		ldr	r3, .L235+24
 5554 004c 9A42     		cmp	r2, r3
 5555 004e 14D0     		beq	.L233
 5556 0050 7A68     		ldr	r2, [r7, #4]
 5557 0052 1F4B     		ldr	r3, .L235+28
 5558 0054 9A42     		cmp	r2, r3
 5559 0056 10D0     		beq	.L233
 5560 0058 7A68     		ldr	r2, [r7, #4]
 5561 005a 1E4B     		ldr	r3, .L235+32
 5562 005c 9A42     		cmp	r2, r3
 5563 005e 0CD0     		beq	.L233
 5564 0060 7A68     		ldr	r2, [r7, #4]
 5565 0062 1D4B     		ldr	r3, .L235+36
 5566 0064 9A42     		cmp	r2, r3
 5567 0066 08D0     		beq	.L233
 5568 0068 7A68     		ldr	r2, [r7, #4]
 5569 006a 1C4B     		ldr	r3, .L235+40
 5570 006c 9A42     		cmp	r2, r3
 5571 006e 04D0     		beq	.L233
 5572 0070 1B48     		ldr	r0, .L235+44
 5573 0072 40F2C151 		movw	r1, #1473
 5574 0076 FFF7FEFF 		bl	assert_failed
 5575              	.L233:
1474:App/STM32F4-Discovery/Libraries/STM32F4xx_StdPeriph_Driver/src/stm32f4xx_tim.c ****   assert_param(IS_TIM_OCCLEAR_STATE(TIM_OCClear));
 5576              		.loc 1 1474 0 is_stmt 1
 5577 007a 7B88     		ldrh	r3, [r7, #2]
 5578 007c 802B     		cmp	r3, #128
 5579 007e 07D0     		beq	.L234
 5580              		.loc 1 1474 0 is_stmt 0 discriminator 1
 5581 0080 7B88     		ldrh	r3, [r7, #2]
 5582 0082 002B     		cmp	r3, #0
 5583 0084 04D0     		beq	.L234
 5584 0086 1648     		ldr	r0, .L235+44
 5585 0088 40F2C251 		movw	r1, #1474
 5586 008c FFF7FEFF 		bl	assert_failed
 5587              	.L234:
1475:App/STM32F4-Discovery/Libraries/STM32F4xx_StdPeriph_Driver/src/stm32f4xx_tim.c **** 
1476:App/STM32F4-Discovery/Libraries/STM32F4xx_StdPeriph_Driver/src/stm32f4xx_tim.c ****   tmpccmr1 = TIMx->CCMR1;
 5588              		.loc 1 1476 0 is_stmt 1
 5589 0090 7B68     		ldr	r3, [r7, #4]
 5590 0092 1B8B     		ldrh	r3, [r3, #24]	@ movhi
 5591 0094 FB81     		strh	r3, [r7, #14]	@ movhi
1477:App/STM32F4-Discovery/Libraries/STM32F4xx_StdPeriph_Driver/src/stm32f4xx_tim.c **** 
1478:App/STM32F4-Discovery/Libraries/STM32F4xx_StdPeriph_Driver/src/stm32f4xx_tim.c ****   /* Reset the OC1CE Bit */
1479:App/STM32F4-Discovery/Libraries/STM32F4xx_StdPeriph_Driver/src/stm32f4xx_tim.c ****   tmpccmr1 &= (uint16_t)~TIM_CCMR1_OC1CE;
 5592              		.loc 1 1479 0
 5593 0096 FB89     		ldrh	r3, [r7, #14]	@ movhi
 5594 0098 23F08003 		bic	r3, r3, #128
 5595 009c FB81     		strh	r3, [r7, #14]	@ movhi
1480:App/STM32F4-Discovery/Libraries/STM32F4xx_StdPeriph_Driver/src/stm32f4xx_tim.c **** 
1481:App/STM32F4-Discovery/Libraries/STM32F4xx_StdPeriph_Driver/src/stm32f4xx_tim.c ****   /* Enable or Disable the Output Compare Clear Bit */
1482:App/STM32F4-Discovery/Libraries/STM32F4xx_StdPeriph_Driver/src/stm32f4xx_tim.c ****   tmpccmr1 |= TIM_OCClear;
 5596              		.loc 1 1482 0
 5597 009e FA89     		ldrh	r2, [r7, #14]	@ movhi
 5598 00a0 7B88     		ldrh	r3, [r7, #2]	@ movhi
 5599 00a2 1343     		orrs	r3, r3, r2
 5600 00a4 FB81     		strh	r3, [r7, #14]	@ movhi
1483:App/STM32F4-Discovery/Libraries/STM32F4xx_StdPeriph_Driver/src/stm32f4xx_tim.c **** 
1484:App/STM32F4-Discovery/Libraries/STM32F4xx_StdPeriph_Driver/src/stm32f4xx_tim.c ****   /* Write to TIMx CCMR1 register */
1485:App/STM32F4-Discovery/Libraries/STM32F4xx_StdPeriph_Driver/src/stm32f4xx_tim.c ****   TIMx->CCMR1 = tmpccmr1;
 5601              		.loc 1 1485 0
 5602 00a6 7B68     		ldr	r3, [r7, #4]
 5603 00a8 FA89     		ldrh	r2, [r7, #14]	@ movhi
 5604 00aa 1A83     		strh	r2, [r3, #24]	@ movhi
1486:App/STM32F4-Discovery/Libraries/STM32F4xx_StdPeriph_Driver/src/stm32f4xx_tim.c **** }
 5605              		.loc 1 1486 0
 5606 00ac 1037     		adds	r7, r7, #16
 5607 00ae BD46     		mov	sp, r7
 5608              		@ sp needed
 5609 00b0 80BD     		pop	{r7, pc}
 5610              	.L236:
 5611 00b2 00BF     		.align	2
 5612              	.L235:
 5613 00b4 00000140 		.word	1073807360
 5614 00b8 00040040 		.word	1073742848
 5615 00bc 00080040 		.word	1073743872
 5616 00c0 000C0040 		.word	1073744896
 5617 00c4 00040140 		.word	1073808384
 5618 00c8 00400140 		.word	1073823744
 5619 00cc 00440140 		.word	1073824768
 5620 00d0 00480140 		.word	1073825792
 5621 00d4 00180040 		.word	1073747968
 5622 00d8 001C0040 		.word	1073748992
 5623 00dc 00200040 		.word	1073750016
 5624 00e0 00000000 		.word	.LC0
 5625              		.cfi_endproc
 5626              	.LFE147:
 5628              		.section	.text.TIM_ClearOC2Ref,"ax",%progbits
 5629              		.align	2
 5630              		.global	TIM_ClearOC2Ref
 5631              		.thumb
 5632              		.thumb_func
 5634              	TIM_ClearOC2Ref:
 5635              	.LFB148:
1487:App/STM32F4-Discovery/Libraries/STM32F4xx_StdPeriph_Driver/src/stm32f4xx_tim.c **** 
1488:App/STM32F4-Discovery/Libraries/STM32F4xx_StdPeriph_Driver/src/stm32f4xx_tim.c **** /**
1489:App/STM32F4-Discovery/Libraries/STM32F4xx_StdPeriph_Driver/src/stm32f4xx_tim.c ****   * @brief  Clears or safeguards the OCREF2 signal on an external event
1490:App/STM32F4-Discovery/Libraries/STM32F4xx_StdPeriph_Driver/src/stm32f4xx_tim.c ****   * @param  TIMx: where x can be  1, 2, 3, 4, 5, 8, 9 or 12 to select the TIM 
1491:App/STM32F4-Discovery/Libraries/STM32F4xx_StdPeriph_Driver/src/stm32f4xx_tim.c ****   *         peripheral.
1492:App/STM32F4-Discovery/Libraries/STM32F4xx_StdPeriph_Driver/src/stm32f4xx_tim.c ****   * @param  TIM_OCClear: new state of the Output Compare Clear Enable Bit.
1493:App/STM32F4-Discovery/Libraries/STM32F4xx_StdPeriph_Driver/src/stm32f4xx_tim.c ****   *          This parameter can be one of the following values:
1494:App/STM32F4-Discovery/Libraries/STM32F4xx_StdPeriph_Driver/src/stm32f4xx_tim.c ****   *            @arg TIM_OCClear_Enable: TIM Output clear enable
1495:App/STM32F4-Discovery/Libraries/STM32F4xx_StdPeriph_Driver/src/stm32f4xx_tim.c ****   *            @arg TIM_OCClear_Disable: TIM Output clear disable
1496:App/STM32F4-Discovery/Libraries/STM32F4xx_StdPeriph_Driver/src/stm32f4xx_tim.c ****   * @retval None
1497:App/STM32F4-Discovery/Libraries/STM32F4xx_StdPeriph_Driver/src/stm32f4xx_tim.c ****   */
1498:App/STM32F4-Discovery/Libraries/STM32F4xx_StdPeriph_Driver/src/stm32f4xx_tim.c **** void TIM_ClearOC2Ref(TIM_TypeDef* TIMx, uint16_t TIM_OCClear)
1499:App/STM32F4-Discovery/Libraries/STM32F4xx_StdPeriph_Driver/src/stm32f4xx_tim.c **** {
 5636              		.loc 1 1499 0
 5637              		.cfi_startproc
 5638              		@ args = 0, pretend = 0, frame = 16
 5639              		@ frame_needed = 1, uses_anonymous_args = 0
 5640 0000 80B5     		push	{r7, lr}
 5641              	.LCFI114:
 5642              		.cfi_def_cfa_offset 8
 5643              		.cfi_offset 7, -8
 5644              		.cfi_offset 14, -4
 5645 0002 84B0     		sub	sp, sp, #16
 5646              	.LCFI115:
 5647              		.cfi_def_cfa_offset 24
 5648 0004 00AF     		add	r7, sp, #0
 5649              	.LCFI116:
 5650              		.cfi_def_cfa_register 7
 5651 0006 7860     		str	r0, [r7, #4]
 5652 0008 0B46     		mov	r3, r1
 5653 000a 7B80     		strh	r3, [r7, #2]	@ movhi
1500:App/STM32F4-Discovery/Libraries/STM32F4xx_StdPeriph_Driver/src/stm32f4xx_tim.c ****   uint16_t tmpccmr1 = 0;
 5654              		.loc 1 1500 0
 5655 000c 0023     		movs	r3, #0
 5656 000e FB81     		strh	r3, [r7, #14]	@ movhi
1501:App/STM32F4-Discovery/Libraries/STM32F4xx_StdPeriph_Driver/src/stm32f4xx_tim.c **** 
1502:App/STM32F4-Discovery/Libraries/STM32F4xx_StdPeriph_Driver/src/stm32f4xx_tim.c ****   /* Check the parameters */
1503:App/STM32F4-Discovery/Libraries/STM32F4xx_StdPeriph_Driver/src/stm32f4xx_tim.c ****   assert_param(IS_TIM_LIST2_PERIPH(TIMx));
 5657              		.loc 1 1503 0
 5658 0010 7A68     		ldr	r2, [r7, #4]
 5659 0012 214B     		ldr	r3, .L240
 5660 0014 9A42     		cmp	r2, r3
 5661 0016 20D0     		beq	.L238
 5662              		.loc 1 1503 0 is_stmt 0 discriminator 1
 5663 0018 7B68     		ldr	r3, [r7, #4]
 5664 001a B3F1804F 		cmp	r3, #1073741824
 5665 001e 1CD0     		beq	.L238
 5666 0020 7A68     		ldr	r2, [r7, #4]
 5667 0022 1E4B     		ldr	r3, .L240+4
 5668 0024 9A42     		cmp	r2, r3
 5669 0026 18D0     		beq	.L238
 5670 0028 7A68     		ldr	r2, [r7, #4]
 5671 002a 1D4B     		ldr	r3, .L240+8
 5672 002c 9A42     		cmp	r2, r3
 5673 002e 14D0     		beq	.L238
 5674 0030 7A68     		ldr	r2, [r7, #4]
 5675 0032 1C4B     		ldr	r3, .L240+12
 5676 0034 9A42     		cmp	r2, r3
 5677 0036 10D0     		beq	.L238
 5678 0038 7A68     		ldr	r2, [r7, #4]
 5679 003a 1B4B     		ldr	r3, .L240+16
 5680 003c 9A42     		cmp	r2, r3
 5681 003e 0CD0     		beq	.L238
 5682 0040 7A68     		ldr	r2, [r7, #4]
 5683 0042 1A4B     		ldr	r3, .L240+20
 5684 0044 9A42     		cmp	r2, r3
 5685 0046 08D0     		beq	.L238
 5686 0048 7A68     		ldr	r2, [r7, #4]
 5687 004a 194B     		ldr	r3, .L240+24
 5688 004c 9A42     		cmp	r2, r3
 5689 004e 04D0     		beq	.L238
 5690 0050 1848     		ldr	r0, .L240+28
 5691 0052 40F2DF51 		movw	r1, #1503
 5692 0056 FFF7FEFF 		bl	assert_failed
 5693              	.L238:
1504:App/STM32F4-Discovery/Libraries/STM32F4xx_StdPeriph_Driver/src/stm32f4xx_tim.c ****   assert_param(IS_TIM_OCCLEAR_STATE(TIM_OCClear));
 5694              		.loc 1 1504 0 is_stmt 1
 5695 005a 7B88     		ldrh	r3, [r7, #2]
 5696 005c 802B     		cmp	r3, #128
 5697 005e 07D0     		beq	.L239
 5698              		.loc 1 1504 0 is_stmt 0 discriminator 1
 5699 0060 7B88     		ldrh	r3, [r7, #2]
 5700 0062 002B     		cmp	r3, #0
 5701 0064 04D0     		beq	.L239
 5702 0066 1348     		ldr	r0, .L240+28
 5703 0068 4FF4BC61 		mov	r1, #1504
 5704 006c FFF7FEFF 		bl	assert_failed
 5705              	.L239:
1505:App/STM32F4-Discovery/Libraries/STM32F4xx_StdPeriph_Driver/src/stm32f4xx_tim.c **** 
1506:App/STM32F4-Discovery/Libraries/STM32F4xx_StdPeriph_Driver/src/stm32f4xx_tim.c ****   tmpccmr1 = TIMx->CCMR1;
 5706              		.loc 1 1506 0 is_stmt 1
 5707 0070 7B68     		ldr	r3, [r7, #4]
 5708 0072 1B8B     		ldrh	r3, [r3, #24]	@ movhi
 5709 0074 FB81     		strh	r3, [r7, #14]	@ movhi
1507:App/STM32F4-Discovery/Libraries/STM32F4xx_StdPeriph_Driver/src/stm32f4xx_tim.c **** 
1508:App/STM32F4-Discovery/Libraries/STM32F4xx_StdPeriph_Driver/src/stm32f4xx_tim.c ****   /* Reset the OC2CE Bit */
1509:App/STM32F4-Discovery/Libraries/STM32F4xx_StdPeriph_Driver/src/stm32f4xx_tim.c ****   tmpccmr1 &= (uint16_t)~TIM_CCMR1_OC2CE;
 5710              		.loc 1 1509 0
 5711 0076 FB89     		ldrh	r3, [r7, #14]	@ movhi
 5712 0078 C3F30E03 		ubfx	r3, r3, #0, #15
 5713 007c FB81     		strh	r3, [r7, #14]	@ movhi
1510:App/STM32F4-Discovery/Libraries/STM32F4xx_StdPeriph_Driver/src/stm32f4xx_tim.c **** 
1511:App/STM32F4-Discovery/Libraries/STM32F4xx_StdPeriph_Driver/src/stm32f4xx_tim.c ****   /* Enable or Disable the Output Compare Clear Bit */
1512:App/STM32F4-Discovery/Libraries/STM32F4xx_StdPeriph_Driver/src/stm32f4xx_tim.c ****   tmpccmr1 |= (uint16_t)(TIM_OCClear << 8);
 5714              		.loc 1 1512 0
 5715 007e 7B88     		ldrh	r3, [r7, #2]	@ movhi
 5716 0080 1B02     		lsls	r3, r3, #8
 5717 0082 9AB2     		uxth	r2, r3
 5718 0084 FB89     		ldrh	r3, [r7, #14]	@ movhi
 5719 0086 1343     		orrs	r3, r3, r2
 5720 0088 FB81     		strh	r3, [r7, #14]	@ movhi
1513:App/STM32F4-Discovery/Libraries/STM32F4xx_StdPeriph_Driver/src/stm32f4xx_tim.c **** 
1514:App/STM32F4-Discovery/Libraries/STM32F4xx_StdPeriph_Driver/src/stm32f4xx_tim.c ****   /* Write to TIMx CCMR1 register */
1515:App/STM32F4-Discovery/Libraries/STM32F4xx_StdPeriph_Driver/src/stm32f4xx_tim.c ****   TIMx->CCMR1 = tmpccmr1;
 5721              		.loc 1 1515 0
 5722 008a 7B68     		ldr	r3, [r7, #4]
 5723 008c FA89     		ldrh	r2, [r7, #14]	@ movhi
 5724 008e 1A83     		strh	r2, [r3, #24]	@ movhi
1516:App/STM32F4-Discovery/Libraries/STM32F4xx_StdPeriph_Driver/src/stm32f4xx_tim.c **** }
 5725              		.loc 1 1516 0
 5726 0090 1037     		adds	r7, r7, #16
 5727 0092 BD46     		mov	sp, r7
 5728              		@ sp needed
 5729 0094 80BD     		pop	{r7, pc}
 5730              	.L241:
 5731 0096 00BF     		.align	2
 5732              	.L240:
 5733 0098 00000140 		.word	1073807360
 5734 009c 00040040 		.word	1073742848
 5735 00a0 00080040 		.word	1073743872
 5736 00a4 000C0040 		.word	1073744896
 5737 00a8 00040140 		.word	1073808384
 5738 00ac 00400140 		.word	1073823744
 5739 00b0 00180040 		.word	1073747968
 5740 00b4 00000000 		.word	.LC0
 5741              		.cfi_endproc
 5742              	.LFE148:
 5744              		.section	.text.TIM_ClearOC3Ref,"ax",%progbits
 5745              		.align	2
 5746              		.global	TIM_ClearOC3Ref
 5747              		.thumb
 5748              		.thumb_func
 5750              	TIM_ClearOC3Ref:
 5751              	.LFB149:
1517:App/STM32F4-Discovery/Libraries/STM32F4xx_StdPeriph_Driver/src/stm32f4xx_tim.c **** 
1518:App/STM32F4-Discovery/Libraries/STM32F4xx_StdPeriph_Driver/src/stm32f4xx_tim.c **** /**
1519:App/STM32F4-Discovery/Libraries/STM32F4xx_StdPeriph_Driver/src/stm32f4xx_tim.c ****   * @brief  Clears or safeguards the OCREF3 signal on an external event
1520:App/STM32F4-Discovery/Libraries/STM32F4xx_StdPeriph_Driver/src/stm32f4xx_tim.c ****   * @param  TIMx: where x can be  1, 2, 3, 4, 5 or 8 to select the TIM peripheral.
1521:App/STM32F4-Discovery/Libraries/STM32F4xx_StdPeriph_Driver/src/stm32f4xx_tim.c ****   * @param  TIM_OCClear: new state of the Output Compare Clear Enable Bit.
1522:App/STM32F4-Discovery/Libraries/STM32F4xx_StdPeriph_Driver/src/stm32f4xx_tim.c ****   *          This parameter can be one of the following values:
1523:App/STM32F4-Discovery/Libraries/STM32F4xx_StdPeriph_Driver/src/stm32f4xx_tim.c ****   *            @arg TIM_OCClear_Enable: TIM Output clear enable
1524:App/STM32F4-Discovery/Libraries/STM32F4xx_StdPeriph_Driver/src/stm32f4xx_tim.c ****   *            @arg TIM_OCClear_Disable: TIM Output clear disable
1525:App/STM32F4-Discovery/Libraries/STM32F4xx_StdPeriph_Driver/src/stm32f4xx_tim.c ****   * @retval None
1526:App/STM32F4-Discovery/Libraries/STM32F4xx_StdPeriph_Driver/src/stm32f4xx_tim.c ****   */
1527:App/STM32F4-Discovery/Libraries/STM32F4xx_StdPeriph_Driver/src/stm32f4xx_tim.c **** void TIM_ClearOC3Ref(TIM_TypeDef* TIMx, uint16_t TIM_OCClear)
1528:App/STM32F4-Discovery/Libraries/STM32F4xx_StdPeriph_Driver/src/stm32f4xx_tim.c **** {
 5752              		.loc 1 1528 0
 5753              		.cfi_startproc
 5754              		@ args = 0, pretend = 0, frame = 16
 5755              		@ frame_needed = 1, uses_anonymous_args = 0
 5756 0000 80B5     		push	{r7, lr}
 5757              	.LCFI117:
 5758              		.cfi_def_cfa_offset 8
 5759              		.cfi_offset 7, -8
 5760              		.cfi_offset 14, -4
 5761 0002 84B0     		sub	sp, sp, #16
 5762              	.LCFI118:
 5763              		.cfi_def_cfa_offset 24
 5764 0004 00AF     		add	r7, sp, #0
 5765              	.LCFI119:
 5766              		.cfi_def_cfa_register 7
 5767 0006 7860     		str	r0, [r7, #4]
 5768 0008 0B46     		mov	r3, r1
 5769 000a 7B80     		strh	r3, [r7, #2]	@ movhi
1529:App/STM32F4-Discovery/Libraries/STM32F4xx_StdPeriph_Driver/src/stm32f4xx_tim.c ****   uint16_t tmpccmr2 = 0;
 5770              		.loc 1 1529 0
 5771 000c 0023     		movs	r3, #0
 5772 000e FB81     		strh	r3, [r7, #14]	@ movhi
1530:App/STM32F4-Discovery/Libraries/STM32F4xx_StdPeriph_Driver/src/stm32f4xx_tim.c **** 
1531:App/STM32F4-Discovery/Libraries/STM32F4xx_StdPeriph_Driver/src/stm32f4xx_tim.c ****   /* Check the parameters */
1532:App/STM32F4-Discovery/Libraries/STM32F4xx_StdPeriph_Driver/src/stm32f4xx_tim.c ****   assert_param(IS_TIM_LIST3_PERIPH(TIMx));
 5773              		.loc 1 1532 0
 5774 0010 7A68     		ldr	r2, [r7, #4]
 5775 0012 1C4B     		ldr	r3, .L245
 5776 0014 9A42     		cmp	r2, r3
 5777 0016 18D0     		beq	.L243
 5778              		.loc 1 1532 0 is_stmt 0 discriminator 1
 5779 0018 7B68     		ldr	r3, [r7, #4]
 5780 001a B3F1804F 		cmp	r3, #1073741824
 5781 001e 14D0     		beq	.L243
 5782 0020 7A68     		ldr	r2, [r7, #4]
 5783 0022 194B     		ldr	r3, .L245+4
 5784 0024 9A42     		cmp	r2, r3
 5785 0026 10D0     		beq	.L243
 5786 0028 7A68     		ldr	r2, [r7, #4]
 5787 002a 184B     		ldr	r3, .L245+8
 5788 002c 9A42     		cmp	r2, r3
 5789 002e 0CD0     		beq	.L243
 5790 0030 7A68     		ldr	r2, [r7, #4]
 5791 0032 174B     		ldr	r3, .L245+12
 5792 0034 9A42     		cmp	r2, r3
 5793 0036 08D0     		beq	.L243
 5794 0038 7A68     		ldr	r2, [r7, #4]
 5795 003a 164B     		ldr	r3, .L245+16
 5796 003c 9A42     		cmp	r2, r3
 5797 003e 04D0     		beq	.L243
 5798 0040 1548     		ldr	r0, .L245+20
 5799 0042 40F2FC51 		movw	r1, #1532
 5800 0046 FFF7FEFF 		bl	assert_failed
 5801              	.L243:
1533:App/STM32F4-Discovery/Libraries/STM32F4xx_StdPeriph_Driver/src/stm32f4xx_tim.c ****   assert_param(IS_TIM_OCCLEAR_STATE(TIM_OCClear));
 5802              		.loc 1 1533 0 is_stmt 1
 5803 004a 7B88     		ldrh	r3, [r7, #2]
 5804 004c 802B     		cmp	r3, #128
 5805 004e 07D0     		beq	.L244
 5806              		.loc 1 1533 0 is_stmt 0 discriminator 1
 5807 0050 7B88     		ldrh	r3, [r7, #2]
 5808 0052 002B     		cmp	r3, #0
 5809 0054 04D0     		beq	.L244
 5810 0056 1048     		ldr	r0, .L245+20
 5811 0058 40F2FD51 		movw	r1, #1533
 5812 005c FFF7FEFF 		bl	assert_failed
 5813              	.L244:
1534:App/STM32F4-Discovery/Libraries/STM32F4xx_StdPeriph_Driver/src/stm32f4xx_tim.c **** 
1535:App/STM32F4-Discovery/Libraries/STM32F4xx_StdPeriph_Driver/src/stm32f4xx_tim.c ****   tmpccmr2 = TIMx->CCMR2;
 5814              		.loc 1 1535 0 is_stmt 1
 5815 0060 7B68     		ldr	r3, [r7, #4]
 5816 0062 9B8B     		ldrh	r3, [r3, #28]	@ movhi
 5817 0064 FB81     		strh	r3, [r7, #14]	@ movhi
1536:App/STM32F4-Discovery/Libraries/STM32F4xx_StdPeriph_Driver/src/stm32f4xx_tim.c **** 
1537:App/STM32F4-Discovery/Libraries/STM32F4xx_StdPeriph_Driver/src/stm32f4xx_tim.c ****   /* Reset the OC3CE Bit */
1538:App/STM32F4-Discovery/Libraries/STM32F4xx_StdPeriph_Driver/src/stm32f4xx_tim.c ****   tmpccmr2 &= (uint16_t)~TIM_CCMR2_OC3CE;
 5818              		.loc 1 1538 0
 5819 0066 FB89     		ldrh	r3, [r7, #14]	@ movhi
 5820 0068 23F08003 		bic	r3, r3, #128
 5821 006c FB81     		strh	r3, [r7, #14]	@ movhi
1539:App/STM32F4-Discovery/Libraries/STM32F4xx_StdPeriph_Driver/src/stm32f4xx_tim.c **** 
1540:App/STM32F4-Discovery/Libraries/STM32F4xx_StdPeriph_Driver/src/stm32f4xx_tim.c ****   /* Enable or Disable the Output Compare Clear Bit */
1541:App/STM32F4-Discovery/Libraries/STM32F4xx_StdPeriph_Driver/src/stm32f4xx_tim.c ****   tmpccmr2 |= TIM_OCClear;
 5822              		.loc 1 1541 0
 5823 006e FA89     		ldrh	r2, [r7, #14]	@ movhi
 5824 0070 7B88     		ldrh	r3, [r7, #2]	@ movhi
 5825 0072 1343     		orrs	r3, r3, r2
 5826 0074 FB81     		strh	r3, [r7, #14]	@ movhi
1542:App/STM32F4-Discovery/Libraries/STM32F4xx_StdPeriph_Driver/src/stm32f4xx_tim.c **** 
1543:App/STM32F4-Discovery/Libraries/STM32F4xx_StdPeriph_Driver/src/stm32f4xx_tim.c ****   /* Write to TIMx CCMR2 register */
1544:App/STM32F4-Discovery/Libraries/STM32F4xx_StdPeriph_Driver/src/stm32f4xx_tim.c ****   TIMx->CCMR2 = tmpccmr2;
 5827              		.loc 1 1544 0
 5828 0076 7B68     		ldr	r3, [r7, #4]
 5829 0078 FA89     		ldrh	r2, [r7, #14]	@ movhi
 5830 007a 9A83     		strh	r2, [r3, #28]	@ movhi
1545:App/STM32F4-Discovery/Libraries/STM32F4xx_StdPeriph_Driver/src/stm32f4xx_tim.c **** }
 5831              		.loc 1 1545 0
 5832 007c 1037     		adds	r7, r7, #16
 5833 007e BD46     		mov	sp, r7
 5834              		@ sp needed
 5835 0080 80BD     		pop	{r7, pc}
 5836              	.L246:
 5837 0082 00BF     		.align	2
 5838              	.L245:
 5839 0084 00000140 		.word	1073807360
 5840 0088 00040040 		.word	1073742848
 5841 008c 00080040 		.word	1073743872
 5842 0090 000C0040 		.word	1073744896
 5843 0094 00040140 		.word	1073808384
 5844 0098 00000000 		.word	.LC0
 5845              		.cfi_endproc
 5846              	.LFE149:
 5848              		.section	.text.TIM_ClearOC4Ref,"ax",%progbits
 5849              		.align	2
 5850              		.global	TIM_ClearOC4Ref
 5851              		.thumb
 5852              		.thumb_func
 5854              	TIM_ClearOC4Ref:
 5855              	.LFB150:
1546:App/STM32F4-Discovery/Libraries/STM32F4xx_StdPeriph_Driver/src/stm32f4xx_tim.c **** 
1547:App/STM32F4-Discovery/Libraries/STM32F4xx_StdPeriph_Driver/src/stm32f4xx_tim.c **** /**
1548:App/STM32F4-Discovery/Libraries/STM32F4xx_StdPeriph_Driver/src/stm32f4xx_tim.c ****   * @brief  Clears or safeguards the OCREF4 signal on an external event
1549:App/STM32F4-Discovery/Libraries/STM32F4xx_StdPeriph_Driver/src/stm32f4xx_tim.c ****   * @param  TIMx: where x can be  1, 2, 3, 4, 5 or 8 to select the TIM peripheral.
1550:App/STM32F4-Discovery/Libraries/STM32F4xx_StdPeriph_Driver/src/stm32f4xx_tim.c ****   * @param  TIM_OCClear: new state of the Output Compare Clear Enable Bit.
1551:App/STM32F4-Discovery/Libraries/STM32F4xx_StdPeriph_Driver/src/stm32f4xx_tim.c ****   *          This parameter can be one of the following values:
1552:App/STM32F4-Discovery/Libraries/STM32F4xx_StdPeriph_Driver/src/stm32f4xx_tim.c ****   *            @arg TIM_OCClear_Enable: TIM Output clear enable
1553:App/STM32F4-Discovery/Libraries/STM32F4xx_StdPeriph_Driver/src/stm32f4xx_tim.c ****   *            @arg TIM_OCClear_Disable: TIM Output clear disable
1554:App/STM32F4-Discovery/Libraries/STM32F4xx_StdPeriph_Driver/src/stm32f4xx_tim.c ****   * @retval None
1555:App/STM32F4-Discovery/Libraries/STM32F4xx_StdPeriph_Driver/src/stm32f4xx_tim.c ****   */
1556:App/STM32F4-Discovery/Libraries/STM32F4xx_StdPeriph_Driver/src/stm32f4xx_tim.c **** void TIM_ClearOC4Ref(TIM_TypeDef* TIMx, uint16_t TIM_OCClear)
1557:App/STM32F4-Discovery/Libraries/STM32F4xx_StdPeriph_Driver/src/stm32f4xx_tim.c **** {
 5856              		.loc 1 1557 0
 5857              		.cfi_startproc
 5858              		@ args = 0, pretend = 0, frame = 16
 5859              		@ frame_needed = 1, uses_anonymous_args = 0
 5860 0000 80B5     		push	{r7, lr}
 5861              	.LCFI120:
 5862              		.cfi_def_cfa_offset 8
 5863              		.cfi_offset 7, -8
 5864              		.cfi_offset 14, -4
 5865 0002 84B0     		sub	sp, sp, #16
 5866              	.LCFI121:
 5867              		.cfi_def_cfa_offset 24
 5868 0004 00AF     		add	r7, sp, #0
 5869              	.LCFI122:
 5870              		.cfi_def_cfa_register 7
 5871 0006 7860     		str	r0, [r7, #4]
 5872 0008 0B46     		mov	r3, r1
 5873 000a 7B80     		strh	r3, [r7, #2]	@ movhi
1558:App/STM32F4-Discovery/Libraries/STM32F4xx_StdPeriph_Driver/src/stm32f4xx_tim.c ****   uint16_t tmpccmr2 = 0;
 5874              		.loc 1 1558 0
 5875 000c 0023     		movs	r3, #0
 5876 000e FB81     		strh	r3, [r7, #14]	@ movhi
1559:App/STM32F4-Discovery/Libraries/STM32F4xx_StdPeriph_Driver/src/stm32f4xx_tim.c **** 
1560:App/STM32F4-Discovery/Libraries/STM32F4xx_StdPeriph_Driver/src/stm32f4xx_tim.c ****   /* Check the parameters */
1561:App/STM32F4-Discovery/Libraries/STM32F4xx_StdPeriph_Driver/src/stm32f4xx_tim.c ****   assert_param(IS_TIM_LIST3_PERIPH(TIMx));
 5877              		.loc 1 1561 0
 5878 0010 7A68     		ldr	r2, [r7, #4]
 5879 0012 1D4B     		ldr	r3, .L250
 5880 0014 9A42     		cmp	r2, r3
 5881 0016 18D0     		beq	.L248
 5882              		.loc 1 1561 0 is_stmt 0 discriminator 1
 5883 0018 7B68     		ldr	r3, [r7, #4]
 5884 001a B3F1804F 		cmp	r3, #1073741824
 5885 001e 14D0     		beq	.L248
 5886 0020 7A68     		ldr	r2, [r7, #4]
 5887 0022 1A4B     		ldr	r3, .L250+4
 5888 0024 9A42     		cmp	r2, r3
 5889 0026 10D0     		beq	.L248
 5890 0028 7A68     		ldr	r2, [r7, #4]
 5891 002a 194B     		ldr	r3, .L250+8
 5892 002c 9A42     		cmp	r2, r3
 5893 002e 0CD0     		beq	.L248
 5894 0030 7A68     		ldr	r2, [r7, #4]
 5895 0032 184B     		ldr	r3, .L250+12
 5896 0034 9A42     		cmp	r2, r3
 5897 0036 08D0     		beq	.L248
 5898 0038 7A68     		ldr	r2, [r7, #4]
 5899 003a 174B     		ldr	r3, .L250+16
 5900 003c 9A42     		cmp	r2, r3
 5901 003e 04D0     		beq	.L248
 5902 0040 1648     		ldr	r0, .L250+20
 5903 0042 40F21961 		movw	r1, #1561
 5904 0046 FFF7FEFF 		bl	assert_failed
 5905              	.L248:
1562:App/STM32F4-Discovery/Libraries/STM32F4xx_StdPeriph_Driver/src/stm32f4xx_tim.c ****   assert_param(IS_TIM_OCCLEAR_STATE(TIM_OCClear));
 5906              		.loc 1 1562 0 is_stmt 1
 5907 004a 7B88     		ldrh	r3, [r7, #2]
 5908 004c 802B     		cmp	r3, #128
 5909 004e 07D0     		beq	.L249
 5910              		.loc 1 1562 0 is_stmt 0 discriminator 1
 5911 0050 7B88     		ldrh	r3, [r7, #2]
 5912 0052 002B     		cmp	r3, #0
 5913 0054 04D0     		beq	.L249
 5914 0056 1148     		ldr	r0, .L250+20
 5915 0058 40F21A61 		movw	r1, #1562
 5916 005c FFF7FEFF 		bl	assert_failed
 5917              	.L249:
1563:App/STM32F4-Discovery/Libraries/STM32F4xx_StdPeriph_Driver/src/stm32f4xx_tim.c **** 
1564:App/STM32F4-Discovery/Libraries/STM32F4xx_StdPeriph_Driver/src/stm32f4xx_tim.c ****   tmpccmr2 = TIMx->CCMR2;
 5918              		.loc 1 1564 0 is_stmt 1
 5919 0060 7B68     		ldr	r3, [r7, #4]
 5920 0062 9B8B     		ldrh	r3, [r3, #28]	@ movhi
 5921 0064 FB81     		strh	r3, [r7, #14]	@ movhi
1565:App/STM32F4-Discovery/Libraries/STM32F4xx_StdPeriph_Driver/src/stm32f4xx_tim.c **** 
1566:App/STM32F4-Discovery/Libraries/STM32F4xx_StdPeriph_Driver/src/stm32f4xx_tim.c ****   /* Reset the OC4CE Bit */
1567:App/STM32F4-Discovery/Libraries/STM32F4xx_StdPeriph_Driver/src/stm32f4xx_tim.c ****   tmpccmr2 &= (uint16_t)~TIM_CCMR2_OC4CE;
 5922              		.loc 1 1567 0
 5923 0066 FB89     		ldrh	r3, [r7, #14]	@ movhi
 5924 0068 C3F30E03 		ubfx	r3, r3, #0, #15
 5925 006c FB81     		strh	r3, [r7, #14]	@ movhi
1568:App/STM32F4-Discovery/Libraries/STM32F4xx_StdPeriph_Driver/src/stm32f4xx_tim.c **** 
1569:App/STM32F4-Discovery/Libraries/STM32F4xx_StdPeriph_Driver/src/stm32f4xx_tim.c ****   /* Enable or Disable the Output Compare Clear Bit */
1570:App/STM32F4-Discovery/Libraries/STM32F4xx_StdPeriph_Driver/src/stm32f4xx_tim.c ****   tmpccmr2 |= (uint16_t)(TIM_OCClear << 8);
 5926              		.loc 1 1570 0
 5927 006e 7B88     		ldrh	r3, [r7, #2]	@ movhi
 5928 0070 1B02     		lsls	r3, r3, #8
 5929 0072 9AB2     		uxth	r2, r3
 5930 0074 FB89     		ldrh	r3, [r7, #14]	@ movhi
 5931 0076 1343     		orrs	r3, r3, r2
 5932 0078 FB81     		strh	r3, [r7, #14]	@ movhi
1571:App/STM32F4-Discovery/Libraries/STM32F4xx_StdPeriph_Driver/src/stm32f4xx_tim.c **** 
1572:App/STM32F4-Discovery/Libraries/STM32F4xx_StdPeriph_Driver/src/stm32f4xx_tim.c ****   /* Write to TIMx CCMR2 register */
1573:App/STM32F4-Discovery/Libraries/STM32F4xx_StdPeriph_Driver/src/stm32f4xx_tim.c ****   TIMx->CCMR2 = tmpccmr2;
 5933              		.loc 1 1573 0
 5934 007a 7B68     		ldr	r3, [r7, #4]
 5935 007c FA89     		ldrh	r2, [r7, #14]	@ movhi
 5936 007e 9A83     		strh	r2, [r3, #28]	@ movhi
1574:App/STM32F4-Discovery/Libraries/STM32F4xx_StdPeriph_Driver/src/stm32f4xx_tim.c **** }
 5937              		.loc 1 1574 0
 5938 0080 1037     		adds	r7, r7, #16
 5939 0082 BD46     		mov	sp, r7
 5940              		@ sp needed
 5941 0084 80BD     		pop	{r7, pc}
 5942              	.L251:
 5943 0086 00BF     		.align	2
 5944              	.L250:
 5945 0088 00000140 		.word	1073807360
 5946 008c 00040040 		.word	1073742848
 5947 0090 00080040 		.word	1073743872
 5948 0094 000C0040 		.word	1073744896
 5949 0098 00040140 		.word	1073808384
 5950 009c 00000000 		.word	.LC0
 5951              		.cfi_endproc
 5952              	.LFE150:
 5954              		.section	.text.TIM_OC1PolarityConfig,"ax",%progbits
 5955              		.align	2
 5956              		.global	TIM_OC1PolarityConfig
 5957              		.thumb
 5958              		.thumb_func
 5960              	TIM_OC1PolarityConfig:
 5961              	.LFB151:
1575:App/STM32F4-Discovery/Libraries/STM32F4xx_StdPeriph_Driver/src/stm32f4xx_tim.c **** 
1576:App/STM32F4-Discovery/Libraries/STM32F4xx_StdPeriph_Driver/src/stm32f4xx_tim.c **** /**
1577:App/STM32F4-Discovery/Libraries/STM32F4xx_StdPeriph_Driver/src/stm32f4xx_tim.c ****   * @brief  Configures the TIMx channel 1 polarity.
1578:App/STM32F4-Discovery/Libraries/STM32F4xx_StdPeriph_Driver/src/stm32f4xx_tim.c ****   * @param  TIMx: where x can be 1 to 14 except 6 and 7, to select the TIM peripheral.
1579:App/STM32F4-Discovery/Libraries/STM32F4xx_StdPeriph_Driver/src/stm32f4xx_tim.c ****   * @param  TIM_OCPolarity: specifies the OC1 Polarity
1580:App/STM32F4-Discovery/Libraries/STM32F4xx_StdPeriph_Driver/src/stm32f4xx_tim.c ****   *          This parameter can be one of the following values:
1581:App/STM32F4-Discovery/Libraries/STM32F4xx_StdPeriph_Driver/src/stm32f4xx_tim.c ****   *            @arg TIM_OCPolarity_High: Output Compare active high
1582:App/STM32F4-Discovery/Libraries/STM32F4xx_StdPeriph_Driver/src/stm32f4xx_tim.c ****   *            @arg TIM_OCPolarity_Low: Output Compare active low
1583:App/STM32F4-Discovery/Libraries/STM32F4xx_StdPeriph_Driver/src/stm32f4xx_tim.c ****   * @retval None
1584:App/STM32F4-Discovery/Libraries/STM32F4xx_StdPeriph_Driver/src/stm32f4xx_tim.c ****   */
1585:App/STM32F4-Discovery/Libraries/STM32F4xx_StdPeriph_Driver/src/stm32f4xx_tim.c **** void TIM_OC1PolarityConfig(TIM_TypeDef* TIMx, uint16_t TIM_OCPolarity)
1586:App/STM32F4-Discovery/Libraries/STM32F4xx_StdPeriph_Driver/src/stm32f4xx_tim.c **** {
 5962              		.loc 1 1586 0
 5963              		.cfi_startproc
 5964              		@ args = 0, pretend = 0, frame = 16
 5965              		@ frame_needed = 1, uses_anonymous_args = 0
 5966 0000 80B5     		push	{r7, lr}
 5967              	.LCFI123:
 5968              		.cfi_def_cfa_offset 8
 5969              		.cfi_offset 7, -8
 5970              		.cfi_offset 14, -4
 5971 0002 84B0     		sub	sp, sp, #16
 5972              	.LCFI124:
 5973              		.cfi_def_cfa_offset 24
 5974 0004 00AF     		add	r7, sp, #0
 5975              	.LCFI125:
 5976              		.cfi_def_cfa_register 7
 5977 0006 7860     		str	r0, [r7, #4]
 5978 0008 0B46     		mov	r3, r1
 5979 000a 7B80     		strh	r3, [r7, #2]	@ movhi
1587:App/STM32F4-Discovery/Libraries/STM32F4xx_StdPeriph_Driver/src/stm32f4xx_tim.c ****   uint16_t tmpccer = 0;
 5980              		.loc 1 1587 0
 5981 000c 0023     		movs	r3, #0
 5982 000e FB81     		strh	r3, [r7, #14]	@ movhi
1588:App/STM32F4-Discovery/Libraries/STM32F4xx_StdPeriph_Driver/src/stm32f4xx_tim.c **** 
1589:App/STM32F4-Discovery/Libraries/STM32F4xx_StdPeriph_Driver/src/stm32f4xx_tim.c ****   /* Check the parameters */
1590:App/STM32F4-Discovery/Libraries/STM32F4xx_StdPeriph_Driver/src/stm32f4xx_tim.c ****   assert_param(IS_TIM_LIST1_PERIPH(TIMx));
 5983              		.loc 1 1590 0
 5984 0010 7A68     		ldr	r2, [r7, #4]
 5985 0012 284B     		ldr	r3, .L255
 5986 0014 9A42     		cmp	r2, r3
 5987 0016 30D0     		beq	.L253
 5988              		.loc 1 1590 0 is_stmt 0 discriminator 1
 5989 0018 7B68     		ldr	r3, [r7, #4]
 5990 001a B3F1804F 		cmp	r3, #1073741824
 5991 001e 2CD0     		beq	.L253
 5992 0020 7A68     		ldr	r2, [r7, #4]
 5993 0022 254B     		ldr	r3, .L255+4
 5994 0024 9A42     		cmp	r2, r3
 5995 0026 28D0     		beq	.L253
 5996 0028 7A68     		ldr	r2, [r7, #4]
 5997 002a 244B     		ldr	r3, .L255+8
 5998 002c 9A42     		cmp	r2, r3
 5999 002e 24D0     		beq	.L253
 6000 0030 7A68     		ldr	r2, [r7, #4]
 6001 0032 234B     		ldr	r3, .L255+12
 6002 0034 9A42     		cmp	r2, r3
 6003 0036 20D0     		beq	.L253
 6004 0038 7A68     		ldr	r2, [r7, #4]
 6005 003a 224B     		ldr	r3, .L255+16
 6006 003c 9A42     		cmp	r2, r3
 6007 003e 1CD0     		beq	.L253
 6008 0040 7A68     		ldr	r2, [r7, #4]
 6009 0042 214B     		ldr	r3, .L255+20
 6010 0044 9A42     		cmp	r2, r3
 6011 0046 18D0     		beq	.L253
 6012 0048 7A68     		ldr	r2, [r7, #4]
 6013 004a 204B     		ldr	r3, .L255+24
 6014 004c 9A42     		cmp	r2, r3
 6015 004e 14D0     		beq	.L253
 6016 0050 7A68     		ldr	r2, [r7, #4]
 6017 0052 1F4B     		ldr	r3, .L255+28
 6018 0054 9A42     		cmp	r2, r3
 6019 0056 10D0     		beq	.L253
 6020 0058 7A68     		ldr	r2, [r7, #4]
 6021 005a 1E4B     		ldr	r3, .L255+32
 6022 005c 9A42     		cmp	r2, r3
 6023 005e 0CD0     		beq	.L253
 6024 0060 7A68     		ldr	r2, [r7, #4]
 6025 0062 1D4B     		ldr	r3, .L255+36
 6026 0064 9A42     		cmp	r2, r3
 6027 0066 08D0     		beq	.L253
 6028 0068 7A68     		ldr	r2, [r7, #4]
 6029 006a 1C4B     		ldr	r3, .L255+40
 6030 006c 9A42     		cmp	r2, r3
 6031 006e 04D0     		beq	.L253
 6032 0070 1B48     		ldr	r0, .L255+44
 6033 0072 40F23661 		movw	r1, #1590
 6034 0076 FFF7FEFF 		bl	assert_failed
 6035              	.L253:
1591:App/STM32F4-Discovery/Libraries/STM32F4xx_StdPeriph_Driver/src/stm32f4xx_tim.c ****   assert_param(IS_TIM_OC_POLARITY(TIM_OCPolarity));
 6036              		.loc 1 1591 0 is_stmt 1
 6037 007a 7B88     		ldrh	r3, [r7, #2]
 6038 007c 002B     		cmp	r3, #0
 6039 007e 07D0     		beq	.L254
 6040              		.loc 1 1591 0 is_stmt 0 discriminator 1
 6041 0080 7B88     		ldrh	r3, [r7, #2]
 6042 0082 022B     		cmp	r3, #2
 6043 0084 04D0     		beq	.L254
 6044 0086 1648     		ldr	r0, .L255+44
 6045 0088 40F23761 		movw	r1, #1591
 6046 008c FFF7FEFF 		bl	assert_failed
 6047              	.L254:
1592:App/STM32F4-Discovery/Libraries/STM32F4xx_StdPeriph_Driver/src/stm32f4xx_tim.c **** 
1593:App/STM32F4-Discovery/Libraries/STM32F4xx_StdPeriph_Driver/src/stm32f4xx_tim.c ****   tmpccer = TIMx->CCER;
 6048              		.loc 1 1593 0 is_stmt 1
 6049 0090 7B68     		ldr	r3, [r7, #4]
 6050 0092 1B8C     		ldrh	r3, [r3, #32]	@ movhi
 6051 0094 FB81     		strh	r3, [r7, #14]	@ movhi
1594:App/STM32F4-Discovery/Libraries/STM32F4xx_StdPeriph_Driver/src/stm32f4xx_tim.c **** 
1595:App/STM32F4-Discovery/Libraries/STM32F4xx_StdPeriph_Driver/src/stm32f4xx_tim.c ****   /* Set or Reset the CC1P Bit */
1596:App/STM32F4-Discovery/Libraries/STM32F4xx_StdPeriph_Driver/src/stm32f4xx_tim.c ****   tmpccer &= (uint16_t)(~TIM_CCER_CC1P);
 6052              		.loc 1 1596 0
 6053 0096 FB89     		ldrh	r3, [r7, #14]	@ movhi
 6054 0098 23F00203 		bic	r3, r3, #2
 6055 009c FB81     		strh	r3, [r7, #14]	@ movhi
1597:App/STM32F4-Discovery/Libraries/STM32F4xx_StdPeriph_Driver/src/stm32f4xx_tim.c ****   tmpccer |= TIM_OCPolarity;
 6056              		.loc 1 1597 0
 6057 009e FA89     		ldrh	r2, [r7, #14]	@ movhi
 6058 00a0 7B88     		ldrh	r3, [r7, #2]	@ movhi
 6059 00a2 1343     		orrs	r3, r3, r2
 6060 00a4 FB81     		strh	r3, [r7, #14]	@ movhi
1598:App/STM32F4-Discovery/Libraries/STM32F4xx_StdPeriph_Driver/src/stm32f4xx_tim.c **** 
1599:App/STM32F4-Discovery/Libraries/STM32F4xx_StdPeriph_Driver/src/stm32f4xx_tim.c ****   /* Write to TIMx CCER register */
1600:App/STM32F4-Discovery/Libraries/STM32F4xx_StdPeriph_Driver/src/stm32f4xx_tim.c ****   TIMx->CCER = tmpccer;
 6061              		.loc 1 1600 0
 6062 00a6 7B68     		ldr	r3, [r7, #4]
 6063 00a8 FA89     		ldrh	r2, [r7, #14]	@ movhi
 6064 00aa 1A84     		strh	r2, [r3, #32]	@ movhi
1601:App/STM32F4-Discovery/Libraries/STM32F4xx_StdPeriph_Driver/src/stm32f4xx_tim.c **** }
 6065              		.loc 1 1601 0
 6066 00ac 1037     		adds	r7, r7, #16
 6067 00ae BD46     		mov	sp, r7
 6068              		@ sp needed
 6069 00b0 80BD     		pop	{r7, pc}
 6070              	.L256:
 6071 00b2 00BF     		.align	2
 6072              	.L255:
 6073 00b4 00000140 		.word	1073807360
 6074 00b8 00040040 		.word	1073742848
 6075 00bc 00080040 		.word	1073743872
 6076 00c0 000C0040 		.word	1073744896
 6077 00c4 00040140 		.word	1073808384
 6078 00c8 00400140 		.word	1073823744
 6079 00cc 00440140 		.word	1073824768
 6080 00d0 00480140 		.word	1073825792
 6081 00d4 00180040 		.word	1073747968
 6082 00d8 001C0040 		.word	1073748992
 6083 00dc 00200040 		.word	1073750016
 6084 00e0 00000000 		.word	.LC0
 6085              		.cfi_endproc
 6086              	.LFE151:
 6088              		.section	.text.TIM_OC1NPolarityConfig,"ax",%progbits
 6089              		.align	2
 6090              		.global	TIM_OC1NPolarityConfig
 6091              		.thumb
 6092              		.thumb_func
 6094              	TIM_OC1NPolarityConfig:
 6095              	.LFB152:
1602:App/STM32F4-Discovery/Libraries/STM32F4xx_StdPeriph_Driver/src/stm32f4xx_tim.c **** 
1603:App/STM32F4-Discovery/Libraries/STM32F4xx_StdPeriph_Driver/src/stm32f4xx_tim.c **** /**
1604:App/STM32F4-Discovery/Libraries/STM32F4xx_StdPeriph_Driver/src/stm32f4xx_tim.c ****   * @brief  Configures the TIMx Channel 1N polarity.
1605:App/STM32F4-Discovery/Libraries/STM32F4xx_StdPeriph_Driver/src/stm32f4xx_tim.c ****   * @param  TIMx: where x can be 1 or 8 to select the TIM peripheral.
1606:App/STM32F4-Discovery/Libraries/STM32F4xx_StdPeriph_Driver/src/stm32f4xx_tim.c ****   * @param  TIM_OCNPolarity: specifies the OC1N Polarity
1607:App/STM32F4-Discovery/Libraries/STM32F4xx_StdPeriph_Driver/src/stm32f4xx_tim.c ****   *          This parameter can be one of the following values:
1608:App/STM32F4-Discovery/Libraries/STM32F4xx_StdPeriph_Driver/src/stm32f4xx_tim.c ****   *            @arg TIM_OCNPolarity_High: Output Compare active high
1609:App/STM32F4-Discovery/Libraries/STM32F4xx_StdPeriph_Driver/src/stm32f4xx_tim.c ****   *            @arg TIM_OCNPolarity_Low: Output Compare active low
1610:App/STM32F4-Discovery/Libraries/STM32F4xx_StdPeriph_Driver/src/stm32f4xx_tim.c ****   * @retval None
1611:App/STM32F4-Discovery/Libraries/STM32F4xx_StdPeriph_Driver/src/stm32f4xx_tim.c ****   */
1612:App/STM32F4-Discovery/Libraries/STM32F4xx_StdPeriph_Driver/src/stm32f4xx_tim.c **** void TIM_OC1NPolarityConfig(TIM_TypeDef* TIMx, uint16_t TIM_OCNPolarity)
1613:App/STM32F4-Discovery/Libraries/STM32F4xx_StdPeriph_Driver/src/stm32f4xx_tim.c **** {
 6096              		.loc 1 1613 0
 6097              		.cfi_startproc
 6098              		@ args = 0, pretend = 0, frame = 16
 6099              		@ frame_needed = 1, uses_anonymous_args = 0
 6100 0000 80B5     		push	{r7, lr}
 6101              	.LCFI126:
 6102              		.cfi_def_cfa_offset 8
 6103              		.cfi_offset 7, -8
 6104              		.cfi_offset 14, -4
 6105 0002 84B0     		sub	sp, sp, #16
 6106              	.LCFI127:
 6107              		.cfi_def_cfa_offset 24
 6108 0004 00AF     		add	r7, sp, #0
 6109              	.LCFI128:
 6110              		.cfi_def_cfa_register 7
 6111 0006 7860     		str	r0, [r7, #4]
 6112 0008 0B46     		mov	r3, r1
 6113 000a 7B80     		strh	r3, [r7, #2]	@ movhi
1614:App/STM32F4-Discovery/Libraries/STM32F4xx_StdPeriph_Driver/src/stm32f4xx_tim.c ****   uint16_t tmpccer = 0;
 6114              		.loc 1 1614 0
 6115 000c 0023     		movs	r3, #0
 6116 000e FB81     		strh	r3, [r7, #14]	@ movhi
1615:App/STM32F4-Discovery/Libraries/STM32F4xx_StdPeriph_Driver/src/stm32f4xx_tim.c ****   /* Check the parameters */
1616:App/STM32F4-Discovery/Libraries/STM32F4xx_StdPeriph_Driver/src/stm32f4xx_tim.c ****   assert_param(IS_TIM_LIST4_PERIPH(TIMx));
 6117              		.loc 1 1616 0
 6118 0010 7A68     		ldr	r2, [r7, #4]
 6119 0012 144B     		ldr	r3, .L260
 6120 0014 9A42     		cmp	r2, r3
 6121 0016 08D0     		beq	.L258
 6122              		.loc 1 1616 0 is_stmt 0 discriminator 1
 6123 0018 7A68     		ldr	r2, [r7, #4]
 6124 001a 134B     		ldr	r3, .L260+4
 6125 001c 9A42     		cmp	r2, r3
 6126 001e 04D0     		beq	.L258
 6127 0020 1248     		ldr	r0, .L260+8
 6128 0022 4FF4CA61 		mov	r1, #1616
 6129 0026 FFF7FEFF 		bl	assert_failed
 6130              	.L258:
1617:App/STM32F4-Discovery/Libraries/STM32F4xx_StdPeriph_Driver/src/stm32f4xx_tim.c ****   assert_param(IS_TIM_OCN_POLARITY(TIM_OCNPolarity));
 6131              		.loc 1 1617 0 is_stmt 1
 6132 002a 7B88     		ldrh	r3, [r7, #2]
 6133 002c 002B     		cmp	r3, #0
 6134 002e 07D0     		beq	.L259
 6135              		.loc 1 1617 0 is_stmt 0 discriminator 1
 6136 0030 7B88     		ldrh	r3, [r7, #2]
 6137 0032 082B     		cmp	r3, #8
 6138 0034 04D0     		beq	.L259
 6139 0036 0D48     		ldr	r0, .L260+8
 6140 0038 40F25161 		movw	r1, #1617
 6141 003c FFF7FEFF 		bl	assert_failed
 6142              	.L259:
1618:App/STM32F4-Discovery/Libraries/STM32F4xx_StdPeriph_Driver/src/stm32f4xx_tim.c ****    
1619:App/STM32F4-Discovery/Libraries/STM32F4xx_StdPeriph_Driver/src/stm32f4xx_tim.c ****   tmpccer = TIMx->CCER;
 6143              		.loc 1 1619 0 is_stmt 1
 6144 0040 7B68     		ldr	r3, [r7, #4]
 6145 0042 1B8C     		ldrh	r3, [r3, #32]	@ movhi
 6146 0044 FB81     		strh	r3, [r7, #14]	@ movhi
1620:App/STM32F4-Discovery/Libraries/STM32F4xx_StdPeriph_Driver/src/stm32f4xx_tim.c **** 
1621:App/STM32F4-Discovery/Libraries/STM32F4xx_StdPeriph_Driver/src/stm32f4xx_tim.c ****   /* Set or Reset the CC1NP Bit */
1622:App/STM32F4-Discovery/Libraries/STM32F4xx_StdPeriph_Driver/src/stm32f4xx_tim.c ****   tmpccer &= (uint16_t)~TIM_CCER_CC1NP;
 6147              		.loc 1 1622 0
 6148 0046 FB89     		ldrh	r3, [r7, #14]	@ movhi
 6149 0048 23F00803 		bic	r3, r3, #8
 6150 004c FB81     		strh	r3, [r7, #14]	@ movhi
1623:App/STM32F4-Discovery/Libraries/STM32F4xx_StdPeriph_Driver/src/stm32f4xx_tim.c ****   tmpccer |= TIM_OCNPolarity;
 6151              		.loc 1 1623 0
 6152 004e FA89     		ldrh	r2, [r7, #14]	@ movhi
 6153 0050 7B88     		ldrh	r3, [r7, #2]	@ movhi
 6154 0052 1343     		orrs	r3, r3, r2
 6155 0054 FB81     		strh	r3, [r7, #14]	@ movhi
1624:App/STM32F4-Discovery/Libraries/STM32F4xx_StdPeriph_Driver/src/stm32f4xx_tim.c **** 
1625:App/STM32F4-Discovery/Libraries/STM32F4xx_StdPeriph_Driver/src/stm32f4xx_tim.c ****   /* Write to TIMx CCER register */
1626:App/STM32F4-Discovery/Libraries/STM32F4xx_StdPeriph_Driver/src/stm32f4xx_tim.c ****   TIMx->CCER = tmpccer;
 6156              		.loc 1 1626 0
 6157 0056 7B68     		ldr	r3, [r7, #4]
 6158 0058 FA89     		ldrh	r2, [r7, #14]	@ movhi
 6159 005a 1A84     		strh	r2, [r3, #32]	@ movhi
1627:App/STM32F4-Discovery/Libraries/STM32F4xx_StdPeriph_Driver/src/stm32f4xx_tim.c **** }
 6160              		.loc 1 1627 0
 6161 005c 1037     		adds	r7, r7, #16
 6162 005e BD46     		mov	sp, r7
 6163              		@ sp needed
 6164 0060 80BD     		pop	{r7, pc}
 6165              	.L261:
 6166 0062 00BF     		.align	2
 6167              	.L260:
 6168 0064 00000140 		.word	1073807360
 6169 0068 00040140 		.word	1073808384
 6170 006c 00000000 		.word	.LC0
 6171              		.cfi_endproc
 6172              	.LFE152:
 6174              		.section	.text.TIM_OC2PolarityConfig,"ax",%progbits
 6175              		.align	2
 6176              		.global	TIM_OC2PolarityConfig
 6177              		.thumb
 6178              		.thumb_func
 6180              	TIM_OC2PolarityConfig:
 6181              	.LFB153:
1628:App/STM32F4-Discovery/Libraries/STM32F4xx_StdPeriph_Driver/src/stm32f4xx_tim.c **** 
1629:App/STM32F4-Discovery/Libraries/STM32F4xx_StdPeriph_Driver/src/stm32f4xx_tim.c **** /**
1630:App/STM32F4-Discovery/Libraries/STM32F4xx_StdPeriph_Driver/src/stm32f4xx_tim.c ****   * @brief  Configures the TIMx channel 2 polarity.
1631:App/STM32F4-Discovery/Libraries/STM32F4xx_StdPeriph_Driver/src/stm32f4xx_tim.c ****   * @param  TIMx: where x can be 1, 2, 3, 4, 5, 8, 9 or 12 to select the TIM 
1632:App/STM32F4-Discovery/Libraries/STM32F4xx_StdPeriph_Driver/src/stm32f4xx_tim.c ****   *         peripheral.
1633:App/STM32F4-Discovery/Libraries/STM32F4xx_StdPeriph_Driver/src/stm32f4xx_tim.c ****   * @param  TIM_OCPolarity: specifies the OC2 Polarity
1634:App/STM32F4-Discovery/Libraries/STM32F4xx_StdPeriph_Driver/src/stm32f4xx_tim.c ****   *          This parameter can be one of the following values:
1635:App/STM32F4-Discovery/Libraries/STM32F4xx_StdPeriph_Driver/src/stm32f4xx_tim.c ****   *            @arg TIM_OCPolarity_High: Output Compare active high
1636:App/STM32F4-Discovery/Libraries/STM32F4xx_StdPeriph_Driver/src/stm32f4xx_tim.c ****   *            @arg TIM_OCPolarity_Low: Output Compare active low
1637:App/STM32F4-Discovery/Libraries/STM32F4xx_StdPeriph_Driver/src/stm32f4xx_tim.c ****   * @retval None
1638:App/STM32F4-Discovery/Libraries/STM32F4xx_StdPeriph_Driver/src/stm32f4xx_tim.c ****   */
1639:App/STM32F4-Discovery/Libraries/STM32F4xx_StdPeriph_Driver/src/stm32f4xx_tim.c **** void TIM_OC2PolarityConfig(TIM_TypeDef* TIMx, uint16_t TIM_OCPolarity)
1640:App/STM32F4-Discovery/Libraries/STM32F4xx_StdPeriph_Driver/src/stm32f4xx_tim.c **** {
 6182              		.loc 1 1640 0
 6183              		.cfi_startproc
 6184              		@ args = 0, pretend = 0, frame = 16
 6185              		@ frame_needed = 1, uses_anonymous_args = 0
 6186 0000 80B5     		push	{r7, lr}
 6187              	.LCFI129:
 6188              		.cfi_def_cfa_offset 8
 6189              		.cfi_offset 7, -8
 6190              		.cfi_offset 14, -4
 6191 0002 84B0     		sub	sp, sp, #16
 6192              	.LCFI130:
 6193              		.cfi_def_cfa_offset 24
 6194 0004 00AF     		add	r7, sp, #0
 6195              	.LCFI131:
 6196              		.cfi_def_cfa_register 7
 6197 0006 7860     		str	r0, [r7, #4]
 6198 0008 0B46     		mov	r3, r1
 6199 000a 7B80     		strh	r3, [r7, #2]	@ movhi
1641:App/STM32F4-Discovery/Libraries/STM32F4xx_StdPeriph_Driver/src/stm32f4xx_tim.c ****   uint16_t tmpccer = 0;
 6200              		.loc 1 1641 0
 6201 000c 0023     		movs	r3, #0
 6202 000e FB81     		strh	r3, [r7, #14]	@ movhi
1642:App/STM32F4-Discovery/Libraries/STM32F4xx_StdPeriph_Driver/src/stm32f4xx_tim.c **** 
1643:App/STM32F4-Discovery/Libraries/STM32F4xx_StdPeriph_Driver/src/stm32f4xx_tim.c ****   /* Check the parameters */
1644:App/STM32F4-Discovery/Libraries/STM32F4xx_StdPeriph_Driver/src/stm32f4xx_tim.c ****   assert_param(IS_TIM_LIST2_PERIPH(TIMx));
 6203              		.loc 1 1644 0
 6204 0010 7A68     		ldr	r2, [r7, #4]
 6205 0012 214B     		ldr	r3, .L265
 6206 0014 9A42     		cmp	r2, r3
 6207 0016 20D0     		beq	.L263
 6208              		.loc 1 1644 0 is_stmt 0 discriminator 1
 6209 0018 7B68     		ldr	r3, [r7, #4]
 6210 001a B3F1804F 		cmp	r3, #1073741824
 6211 001e 1CD0     		beq	.L263
 6212 0020 7A68     		ldr	r2, [r7, #4]
 6213 0022 1E4B     		ldr	r3, .L265+4
 6214 0024 9A42     		cmp	r2, r3
 6215 0026 18D0     		beq	.L263
 6216 0028 7A68     		ldr	r2, [r7, #4]
 6217 002a 1D4B     		ldr	r3, .L265+8
 6218 002c 9A42     		cmp	r2, r3
 6219 002e 14D0     		beq	.L263
 6220 0030 7A68     		ldr	r2, [r7, #4]
 6221 0032 1C4B     		ldr	r3, .L265+12
 6222 0034 9A42     		cmp	r2, r3
 6223 0036 10D0     		beq	.L263
 6224 0038 7A68     		ldr	r2, [r7, #4]
 6225 003a 1B4B     		ldr	r3, .L265+16
 6226 003c 9A42     		cmp	r2, r3
 6227 003e 0CD0     		beq	.L263
 6228 0040 7A68     		ldr	r2, [r7, #4]
 6229 0042 1A4B     		ldr	r3, .L265+20
 6230 0044 9A42     		cmp	r2, r3
 6231 0046 08D0     		beq	.L263
 6232 0048 7A68     		ldr	r2, [r7, #4]
 6233 004a 194B     		ldr	r3, .L265+24
 6234 004c 9A42     		cmp	r2, r3
 6235 004e 04D0     		beq	.L263
 6236 0050 1848     		ldr	r0, .L265+28
 6237 0052 40F26C61 		movw	r1, #1644
 6238 0056 FFF7FEFF 		bl	assert_failed
 6239              	.L263:
1645:App/STM32F4-Discovery/Libraries/STM32F4xx_StdPeriph_Driver/src/stm32f4xx_tim.c ****   assert_param(IS_TIM_OC_POLARITY(TIM_OCPolarity));
 6240              		.loc 1 1645 0 is_stmt 1
 6241 005a 7B88     		ldrh	r3, [r7, #2]
 6242 005c 002B     		cmp	r3, #0
 6243 005e 07D0     		beq	.L264
 6244              		.loc 1 1645 0 is_stmt 0 discriminator 1
 6245 0060 7B88     		ldrh	r3, [r7, #2]
 6246 0062 022B     		cmp	r3, #2
 6247 0064 04D0     		beq	.L264
 6248 0066 1348     		ldr	r0, .L265+28
 6249 0068 40F26D61 		movw	r1, #1645
 6250 006c FFF7FEFF 		bl	assert_failed
 6251              	.L264:
1646:App/STM32F4-Discovery/Libraries/STM32F4xx_StdPeriph_Driver/src/stm32f4xx_tim.c **** 
1647:App/STM32F4-Discovery/Libraries/STM32F4xx_StdPeriph_Driver/src/stm32f4xx_tim.c ****   tmpccer = TIMx->CCER;
 6252              		.loc 1 1647 0 is_stmt 1
 6253 0070 7B68     		ldr	r3, [r7, #4]
 6254 0072 1B8C     		ldrh	r3, [r3, #32]	@ movhi
 6255 0074 FB81     		strh	r3, [r7, #14]	@ movhi
1648:App/STM32F4-Discovery/Libraries/STM32F4xx_StdPeriph_Driver/src/stm32f4xx_tim.c **** 
1649:App/STM32F4-Discovery/Libraries/STM32F4xx_StdPeriph_Driver/src/stm32f4xx_tim.c ****   /* Set or Reset the CC2P Bit */
1650:App/STM32F4-Discovery/Libraries/STM32F4xx_StdPeriph_Driver/src/stm32f4xx_tim.c ****   tmpccer &= (uint16_t)(~TIM_CCER_CC2P);
 6256              		.loc 1 1650 0
 6257 0076 FB89     		ldrh	r3, [r7, #14]	@ movhi
 6258 0078 23F02003 		bic	r3, r3, #32
 6259 007c FB81     		strh	r3, [r7, #14]	@ movhi
1651:App/STM32F4-Discovery/Libraries/STM32F4xx_StdPeriph_Driver/src/stm32f4xx_tim.c ****   tmpccer |= (uint16_t)(TIM_OCPolarity << 4);
 6260              		.loc 1 1651 0
 6261 007e 7B88     		ldrh	r3, [r7, #2]	@ movhi
 6262 0080 1B01     		lsls	r3, r3, #4
 6263 0082 9AB2     		uxth	r2, r3
 6264 0084 FB89     		ldrh	r3, [r7, #14]	@ movhi
 6265 0086 1343     		orrs	r3, r3, r2
 6266 0088 FB81     		strh	r3, [r7, #14]	@ movhi
1652:App/STM32F4-Discovery/Libraries/STM32F4xx_StdPeriph_Driver/src/stm32f4xx_tim.c **** 
1653:App/STM32F4-Discovery/Libraries/STM32F4xx_StdPeriph_Driver/src/stm32f4xx_tim.c ****   /* Write to TIMx CCER register */
1654:App/STM32F4-Discovery/Libraries/STM32F4xx_StdPeriph_Driver/src/stm32f4xx_tim.c ****   TIMx->CCER = tmpccer;
 6267              		.loc 1 1654 0
 6268 008a 7B68     		ldr	r3, [r7, #4]
 6269 008c FA89     		ldrh	r2, [r7, #14]	@ movhi
 6270 008e 1A84     		strh	r2, [r3, #32]	@ movhi
1655:App/STM32F4-Discovery/Libraries/STM32F4xx_StdPeriph_Driver/src/stm32f4xx_tim.c **** }
 6271              		.loc 1 1655 0
 6272 0090 1037     		adds	r7, r7, #16
 6273 0092 BD46     		mov	sp, r7
 6274              		@ sp needed
 6275 0094 80BD     		pop	{r7, pc}
 6276              	.L266:
 6277 0096 00BF     		.align	2
 6278              	.L265:
 6279 0098 00000140 		.word	1073807360
 6280 009c 00040040 		.word	1073742848
 6281 00a0 00080040 		.word	1073743872
 6282 00a4 000C0040 		.word	1073744896
 6283 00a8 00040140 		.word	1073808384
 6284 00ac 00400140 		.word	1073823744
 6285 00b0 00180040 		.word	1073747968
 6286 00b4 00000000 		.word	.LC0
 6287              		.cfi_endproc
 6288              	.LFE153:
 6290              		.section	.text.TIM_OC2NPolarityConfig,"ax",%progbits
 6291              		.align	2
 6292              		.global	TIM_OC2NPolarityConfig
 6293              		.thumb
 6294              		.thumb_func
 6296              	TIM_OC2NPolarityConfig:
 6297              	.LFB154:
1656:App/STM32F4-Discovery/Libraries/STM32F4xx_StdPeriph_Driver/src/stm32f4xx_tim.c **** 
1657:App/STM32F4-Discovery/Libraries/STM32F4xx_StdPeriph_Driver/src/stm32f4xx_tim.c **** /**
1658:App/STM32F4-Discovery/Libraries/STM32F4xx_StdPeriph_Driver/src/stm32f4xx_tim.c ****   * @brief  Configures the TIMx Channel 2N polarity.
1659:App/STM32F4-Discovery/Libraries/STM32F4xx_StdPeriph_Driver/src/stm32f4xx_tim.c ****   * @param  TIMx: where x can be 1 or 8 to select the TIM peripheral.
1660:App/STM32F4-Discovery/Libraries/STM32F4xx_StdPeriph_Driver/src/stm32f4xx_tim.c ****   * @param  TIM_OCNPolarity: specifies the OC2N Polarity
1661:App/STM32F4-Discovery/Libraries/STM32F4xx_StdPeriph_Driver/src/stm32f4xx_tim.c ****   *          This parameter can be one of the following values:
1662:App/STM32F4-Discovery/Libraries/STM32F4xx_StdPeriph_Driver/src/stm32f4xx_tim.c ****   *            @arg TIM_OCNPolarity_High: Output Compare active high
1663:App/STM32F4-Discovery/Libraries/STM32F4xx_StdPeriph_Driver/src/stm32f4xx_tim.c ****   *            @arg TIM_OCNPolarity_Low: Output Compare active low
1664:App/STM32F4-Discovery/Libraries/STM32F4xx_StdPeriph_Driver/src/stm32f4xx_tim.c ****   * @retval None
1665:App/STM32F4-Discovery/Libraries/STM32F4xx_StdPeriph_Driver/src/stm32f4xx_tim.c ****   */
1666:App/STM32F4-Discovery/Libraries/STM32F4xx_StdPeriph_Driver/src/stm32f4xx_tim.c **** void TIM_OC2NPolarityConfig(TIM_TypeDef* TIMx, uint16_t TIM_OCNPolarity)
1667:App/STM32F4-Discovery/Libraries/STM32F4xx_StdPeriph_Driver/src/stm32f4xx_tim.c **** {
 6298              		.loc 1 1667 0
 6299              		.cfi_startproc
 6300              		@ args = 0, pretend = 0, frame = 16
 6301              		@ frame_needed = 1, uses_anonymous_args = 0
 6302 0000 80B5     		push	{r7, lr}
 6303              	.LCFI132:
 6304              		.cfi_def_cfa_offset 8
 6305              		.cfi_offset 7, -8
 6306              		.cfi_offset 14, -4
 6307 0002 84B0     		sub	sp, sp, #16
 6308              	.LCFI133:
 6309              		.cfi_def_cfa_offset 24
 6310 0004 00AF     		add	r7, sp, #0
 6311              	.LCFI134:
 6312              		.cfi_def_cfa_register 7
 6313 0006 7860     		str	r0, [r7, #4]
 6314 0008 0B46     		mov	r3, r1
 6315 000a 7B80     		strh	r3, [r7, #2]	@ movhi
1668:App/STM32F4-Discovery/Libraries/STM32F4xx_StdPeriph_Driver/src/stm32f4xx_tim.c ****   uint16_t tmpccer = 0;
 6316              		.loc 1 1668 0
 6317 000c 0023     		movs	r3, #0
 6318 000e FB81     		strh	r3, [r7, #14]	@ movhi
1669:App/STM32F4-Discovery/Libraries/STM32F4xx_StdPeriph_Driver/src/stm32f4xx_tim.c **** 
1670:App/STM32F4-Discovery/Libraries/STM32F4xx_StdPeriph_Driver/src/stm32f4xx_tim.c ****   /* Check the parameters */
1671:App/STM32F4-Discovery/Libraries/STM32F4xx_StdPeriph_Driver/src/stm32f4xx_tim.c ****   assert_param(IS_TIM_LIST4_PERIPH(TIMx));
 6319              		.loc 1 1671 0
 6320 0010 7A68     		ldr	r2, [r7, #4]
 6321 0012 154B     		ldr	r3, .L270
 6322 0014 9A42     		cmp	r2, r3
 6323 0016 08D0     		beq	.L268
 6324              		.loc 1 1671 0 is_stmt 0 discriminator 1
 6325 0018 7A68     		ldr	r2, [r7, #4]
 6326 001a 144B     		ldr	r3, .L270+4
 6327 001c 9A42     		cmp	r2, r3
 6328 001e 04D0     		beq	.L268
 6329 0020 1348     		ldr	r0, .L270+8
 6330 0022 40F28761 		movw	r1, #1671
 6331 0026 FFF7FEFF 		bl	assert_failed
 6332              	.L268:
1672:App/STM32F4-Discovery/Libraries/STM32F4xx_StdPeriph_Driver/src/stm32f4xx_tim.c ****   assert_param(IS_TIM_OCN_POLARITY(TIM_OCNPolarity));
 6333              		.loc 1 1672 0 is_stmt 1
 6334 002a 7B88     		ldrh	r3, [r7, #2]
 6335 002c 002B     		cmp	r3, #0
 6336 002e 07D0     		beq	.L269
 6337              		.loc 1 1672 0 is_stmt 0 discriminator 1
 6338 0030 7B88     		ldrh	r3, [r7, #2]
 6339 0032 082B     		cmp	r3, #8
 6340 0034 04D0     		beq	.L269
 6341 0036 0E48     		ldr	r0, .L270+8
 6342 0038 4FF4D161 		mov	r1, #1672
 6343 003c FFF7FEFF 		bl	assert_failed
 6344              	.L269:
1673:App/STM32F4-Discovery/Libraries/STM32F4xx_StdPeriph_Driver/src/stm32f4xx_tim.c ****   
1674:App/STM32F4-Discovery/Libraries/STM32F4xx_StdPeriph_Driver/src/stm32f4xx_tim.c ****   tmpccer = TIMx->CCER;
 6345              		.loc 1 1674 0 is_stmt 1
 6346 0040 7B68     		ldr	r3, [r7, #4]
 6347 0042 1B8C     		ldrh	r3, [r3, #32]	@ movhi
 6348 0044 FB81     		strh	r3, [r7, #14]	@ movhi
1675:App/STM32F4-Discovery/Libraries/STM32F4xx_StdPeriph_Driver/src/stm32f4xx_tim.c **** 
1676:App/STM32F4-Discovery/Libraries/STM32F4xx_StdPeriph_Driver/src/stm32f4xx_tim.c ****   /* Set or Reset the CC2NP Bit */
1677:App/STM32F4-Discovery/Libraries/STM32F4xx_StdPeriph_Driver/src/stm32f4xx_tim.c ****   tmpccer &= (uint16_t)~TIM_CCER_CC2NP;
 6349              		.loc 1 1677 0
 6350 0046 FB89     		ldrh	r3, [r7, #14]	@ movhi
 6351 0048 23F08003 		bic	r3, r3, #128
 6352 004c FB81     		strh	r3, [r7, #14]	@ movhi
1678:App/STM32F4-Discovery/Libraries/STM32F4xx_StdPeriph_Driver/src/stm32f4xx_tim.c ****   tmpccer |= (uint16_t)(TIM_OCNPolarity << 4);
 6353              		.loc 1 1678 0
 6354 004e 7B88     		ldrh	r3, [r7, #2]	@ movhi
 6355 0050 1B01     		lsls	r3, r3, #4
 6356 0052 9AB2     		uxth	r2, r3
 6357 0054 FB89     		ldrh	r3, [r7, #14]	@ movhi
 6358 0056 1343     		orrs	r3, r3, r2
 6359 0058 FB81     		strh	r3, [r7, #14]	@ movhi
1679:App/STM32F4-Discovery/Libraries/STM32F4xx_StdPeriph_Driver/src/stm32f4xx_tim.c **** 
1680:App/STM32F4-Discovery/Libraries/STM32F4xx_StdPeriph_Driver/src/stm32f4xx_tim.c ****   /* Write to TIMx CCER register */
1681:App/STM32F4-Discovery/Libraries/STM32F4xx_StdPeriph_Driver/src/stm32f4xx_tim.c ****   TIMx->CCER = tmpccer;
 6360              		.loc 1 1681 0
 6361 005a 7B68     		ldr	r3, [r7, #4]
 6362 005c FA89     		ldrh	r2, [r7, #14]	@ movhi
 6363 005e 1A84     		strh	r2, [r3, #32]	@ movhi
1682:App/STM32F4-Discovery/Libraries/STM32F4xx_StdPeriph_Driver/src/stm32f4xx_tim.c **** }
 6364              		.loc 1 1682 0
 6365 0060 1037     		adds	r7, r7, #16
 6366 0062 BD46     		mov	sp, r7
 6367              		@ sp needed
 6368 0064 80BD     		pop	{r7, pc}
 6369              	.L271:
 6370 0066 00BF     		.align	2
 6371              	.L270:
 6372 0068 00000140 		.word	1073807360
 6373 006c 00040140 		.word	1073808384
 6374 0070 00000000 		.word	.LC0
 6375              		.cfi_endproc
 6376              	.LFE154:
 6378              		.section	.text.TIM_OC3PolarityConfig,"ax",%progbits
 6379              		.align	2
 6380              		.global	TIM_OC3PolarityConfig
 6381              		.thumb
 6382              		.thumb_func
 6384              	TIM_OC3PolarityConfig:
 6385              	.LFB155:
1683:App/STM32F4-Discovery/Libraries/STM32F4xx_StdPeriph_Driver/src/stm32f4xx_tim.c **** 
1684:App/STM32F4-Discovery/Libraries/STM32F4xx_StdPeriph_Driver/src/stm32f4xx_tim.c **** /**
1685:App/STM32F4-Discovery/Libraries/STM32F4xx_StdPeriph_Driver/src/stm32f4xx_tim.c ****   * @brief  Configures the TIMx channel 3 polarity.
1686:App/STM32F4-Discovery/Libraries/STM32F4xx_StdPeriph_Driver/src/stm32f4xx_tim.c ****   * @param  TIMx: where x can be 1, 2, 3, 4, 5 or 8 to select the TIM peripheral.
1687:App/STM32F4-Discovery/Libraries/STM32F4xx_StdPeriph_Driver/src/stm32f4xx_tim.c ****   * @param  TIM_OCPolarity: specifies the OC3 Polarity
1688:App/STM32F4-Discovery/Libraries/STM32F4xx_StdPeriph_Driver/src/stm32f4xx_tim.c ****   *          This parameter can be one of the following values:
1689:App/STM32F4-Discovery/Libraries/STM32F4xx_StdPeriph_Driver/src/stm32f4xx_tim.c ****   *            @arg TIM_OCPolarity_High: Output Compare active high
1690:App/STM32F4-Discovery/Libraries/STM32F4xx_StdPeriph_Driver/src/stm32f4xx_tim.c ****   *            @arg TIM_OCPolarity_Low: Output Compare active low
1691:App/STM32F4-Discovery/Libraries/STM32F4xx_StdPeriph_Driver/src/stm32f4xx_tim.c ****   * @retval None
1692:App/STM32F4-Discovery/Libraries/STM32F4xx_StdPeriph_Driver/src/stm32f4xx_tim.c ****   */
1693:App/STM32F4-Discovery/Libraries/STM32F4xx_StdPeriph_Driver/src/stm32f4xx_tim.c **** void TIM_OC3PolarityConfig(TIM_TypeDef* TIMx, uint16_t TIM_OCPolarity)
1694:App/STM32F4-Discovery/Libraries/STM32F4xx_StdPeriph_Driver/src/stm32f4xx_tim.c **** {
 6386              		.loc 1 1694 0
 6387              		.cfi_startproc
 6388              		@ args = 0, pretend = 0, frame = 16
 6389              		@ frame_needed = 1, uses_anonymous_args = 0
 6390 0000 80B5     		push	{r7, lr}
 6391              	.LCFI135:
 6392              		.cfi_def_cfa_offset 8
 6393              		.cfi_offset 7, -8
 6394              		.cfi_offset 14, -4
 6395 0002 84B0     		sub	sp, sp, #16
 6396              	.LCFI136:
 6397              		.cfi_def_cfa_offset 24
 6398 0004 00AF     		add	r7, sp, #0
 6399              	.LCFI137:
 6400              		.cfi_def_cfa_register 7
 6401 0006 7860     		str	r0, [r7, #4]
 6402 0008 0B46     		mov	r3, r1
 6403 000a 7B80     		strh	r3, [r7, #2]	@ movhi
1695:App/STM32F4-Discovery/Libraries/STM32F4xx_StdPeriph_Driver/src/stm32f4xx_tim.c ****   uint16_t tmpccer = 0;
 6404              		.loc 1 1695 0
 6405 000c 0023     		movs	r3, #0
 6406 000e FB81     		strh	r3, [r7, #14]	@ movhi
1696:App/STM32F4-Discovery/Libraries/STM32F4xx_StdPeriph_Driver/src/stm32f4xx_tim.c **** 
1697:App/STM32F4-Discovery/Libraries/STM32F4xx_StdPeriph_Driver/src/stm32f4xx_tim.c ****   /* Check the parameters */
1698:App/STM32F4-Discovery/Libraries/STM32F4xx_StdPeriph_Driver/src/stm32f4xx_tim.c ****   assert_param(IS_TIM_LIST3_PERIPH(TIMx));
 6407              		.loc 1 1698 0
 6408 0010 7A68     		ldr	r2, [r7, #4]
 6409 0012 1D4B     		ldr	r3, .L275
 6410 0014 9A42     		cmp	r2, r3
 6411 0016 18D0     		beq	.L273
 6412              		.loc 1 1698 0 is_stmt 0 discriminator 1
 6413 0018 7B68     		ldr	r3, [r7, #4]
 6414 001a B3F1804F 		cmp	r3, #1073741824
 6415 001e 14D0     		beq	.L273
 6416 0020 7A68     		ldr	r2, [r7, #4]
 6417 0022 1A4B     		ldr	r3, .L275+4
 6418 0024 9A42     		cmp	r2, r3
 6419 0026 10D0     		beq	.L273
 6420 0028 7A68     		ldr	r2, [r7, #4]
 6421 002a 194B     		ldr	r3, .L275+8
 6422 002c 9A42     		cmp	r2, r3
 6423 002e 0CD0     		beq	.L273
 6424 0030 7A68     		ldr	r2, [r7, #4]
 6425 0032 184B     		ldr	r3, .L275+12
 6426 0034 9A42     		cmp	r2, r3
 6427 0036 08D0     		beq	.L273
 6428 0038 7A68     		ldr	r2, [r7, #4]
 6429 003a 174B     		ldr	r3, .L275+16
 6430 003c 9A42     		cmp	r2, r3
 6431 003e 04D0     		beq	.L273
 6432 0040 1648     		ldr	r0, .L275+20
 6433 0042 40F2A261 		movw	r1, #1698
 6434 0046 FFF7FEFF 		bl	assert_failed
 6435              	.L273:
1699:App/STM32F4-Discovery/Libraries/STM32F4xx_StdPeriph_Driver/src/stm32f4xx_tim.c ****   assert_param(IS_TIM_OC_POLARITY(TIM_OCPolarity));
 6436              		.loc 1 1699 0 is_stmt 1
 6437 004a 7B88     		ldrh	r3, [r7, #2]
 6438 004c 002B     		cmp	r3, #0
 6439 004e 07D0     		beq	.L274
 6440              		.loc 1 1699 0 is_stmt 0 discriminator 1
 6441 0050 7B88     		ldrh	r3, [r7, #2]
 6442 0052 022B     		cmp	r3, #2
 6443 0054 04D0     		beq	.L274
 6444 0056 1148     		ldr	r0, .L275+20
 6445 0058 40F2A361 		movw	r1, #1699
 6446 005c FFF7FEFF 		bl	assert_failed
 6447              	.L274:
1700:App/STM32F4-Discovery/Libraries/STM32F4xx_StdPeriph_Driver/src/stm32f4xx_tim.c **** 
1701:App/STM32F4-Discovery/Libraries/STM32F4xx_StdPeriph_Driver/src/stm32f4xx_tim.c ****   tmpccer = TIMx->CCER;
 6448              		.loc 1 1701 0 is_stmt 1
 6449 0060 7B68     		ldr	r3, [r7, #4]
 6450 0062 1B8C     		ldrh	r3, [r3, #32]	@ movhi
 6451 0064 FB81     		strh	r3, [r7, #14]	@ movhi
1702:App/STM32F4-Discovery/Libraries/STM32F4xx_StdPeriph_Driver/src/stm32f4xx_tim.c **** 
1703:App/STM32F4-Discovery/Libraries/STM32F4xx_StdPeriph_Driver/src/stm32f4xx_tim.c ****   /* Set or Reset the CC3P Bit */
1704:App/STM32F4-Discovery/Libraries/STM32F4xx_StdPeriph_Driver/src/stm32f4xx_tim.c ****   tmpccer &= (uint16_t)~TIM_CCER_CC3P;
 6452              		.loc 1 1704 0
 6453 0066 FB89     		ldrh	r3, [r7, #14]	@ movhi
 6454 0068 23F40073 		bic	r3, r3, #512
 6455 006c FB81     		strh	r3, [r7, #14]	@ movhi
1705:App/STM32F4-Discovery/Libraries/STM32F4xx_StdPeriph_Driver/src/stm32f4xx_tim.c ****   tmpccer |= (uint16_t)(TIM_OCPolarity << 8);
 6456              		.loc 1 1705 0
 6457 006e 7B88     		ldrh	r3, [r7, #2]	@ movhi
 6458 0070 1B02     		lsls	r3, r3, #8
 6459 0072 9AB2     		uxth	r2, r3
 6460 0074 FB89     		ldrh	r3, [r7, #14]	@ movhi
 6461 0076 1343     		orrs	r3, r3, r2
 6462 0078 FB81     		strh	r3, [r7, #14]	@ movhi
1706:App/STM32F4-Discovery/Libraries/STM32F4xx_StdPeriph_Driver/src/stm32f4xx_tim.c **** 
1707:App/STM32F4-Discovery/Libraries/STM32F4xx_StdPeriph_Driver/src/stm32f4xx_tim.c ****   /* Write to TIMx CCER register */
1708:App/STM32F4-Discovery/Libraries/STM32F4xx_StdPeriph_Driver/src/stm32f4xx_tim.c ****   TIMx->CCER = tmpccer;
 6463              		.loc 1 1708 0
 6464 007a 7B68     		ldr	r3, [r7, #4]
 6465 007c FA89     		ldrh	r2, [r7, #14]	@ movhi
 6466 007e 1A84     		strh	r2, [r3, #32]	@ movhi
1709:App/STM32F4-Discovery/Libraries/STM32F4xx_StdPeriph_Driver/src/stm32f4xx_tim.c **** }
 6467              		.loc 1 1709 0
 6468 0080 1037     		adds	r7, r7, #16
 6469 0082 BD46     		mov	sp, r7
 6470              		@ sp needed
 6471 0084 80BD     		pop	{r7, pc}
 6472              	.L276:
 6473 0086 00BF     		.align	2
 6474              	.L275:
 6475 0088 00000140 		.word	1073807360
 6476 008c 00040040 		.word	1073742848
 6477 0090 00080040 		.word	1073743872
 6478 0094 000C0040 		.word	1073744896
 6479 0098 00040140 		.word	1073808384
 6480 009c 00000000 		.word	.LC0
 6481              		.cfi_endproc
 6482              	.LFE155:
 6484              		.section	.text.TIM_OC3NPolarityConfig,"ax",%progbits
 6485              		.align	2
 6486              		.global	TIM_OC3NPolarityConfig
 6487              		.thumb
 6488              		.thumb_func
 6490              	TIM_OC3NPolarityConfig:
 6491              	.LFB156:
1710:App/STM32F4-Discovery/Libraries/STM32F4xx_StdPeriph_Driver/src/stm32f4xx_tim.c **** 
1711:App/STM32F4-Discovery/Libraries/STM32F4xx_StdPeriph_Driver/src/stm32f4xx_tim.c **** /**
1712:App/STM32F4-Discovery/Libraries/STM32F4xx_StdPeriph_Driver/src/stm32f4xx_tim.c ****   * @brief  Configures the TIMx Channel 3N polarity.
1713:App/STM32F4-Discovery/Libraries/STM32F4xx_StdPeriph_Driver/src/stm32f4xx_tim.c ****   * @param  TIMx: where x can be 1 or 8 to select the TIM peripheral.
1714:App/STM32F4-Discovery/Libraries/STM32F4xx_StdPeriph_Driver/src/stm32f4xx_tim.c ****   * @param  TIM_OCNPolarity: specifies the OC3N Polarity
1715:App/STM32F4-Discovery/Libraries/STM32F4xx_StdPeriph_Driver/src/stm32f4xx_tim.c ****   *          This parameter can be one of the following values:
1716:App/STM32F4-Discovery/Libraries/STM32F4xx_StdPeriph_Driver/src/stm32f4xx_tim.c ****   *            @arg TIM_OCNPolarity_High: Output Compare active high
1717:App/STM32F4-Discovery/Libraries/STM32F4xx_StdPeriph_Driver/src/stm32f4xx_tim.c ****   *            @arg TIM_OCNPolarity_Low: Output Compare active low
1718:App/STM32F4-Discovery/Libraries/STM32F4xx_StdPeriph_Driver/src/stm32f4xx_tim.c ****   * @retval None
1719:App/STM32F4-Discovery/Libraries/STM32F4xx_StdPeriph_Driver/src/stm32f4xx_tim.c ****   */
1720:App/STM32F4-Discovery/Libraries/STM32F4xx_StdPeriph_Driver/src/stm32f4xx_tim.c **** void TIM_OC3NPolarityConfig(TIM_TypeDef* TIMx, uint16_t TIM_OCNPolarity)
1721:App/STM32F4-Discovery/Libraries/STM32F4xx_StdPeriph_Driver/src/stm32f4xx_tim.c **** {
 6492              		.loc 1 1721 0
 6493              		.cfi_startproc
 6494              		@ args = 0, pretend = 0, frame = 16
 6495              		@ frame_needed = 1, uses_anonymous_args = 0
 6496 0000 80B5     		push	{r7, lr}
 6497              	.LCFI138:
 6498              		.cfi_def_cfa_offset 8
 6499              		.cfi_offset 7, -8
 6500              		.cfi_offset 14, -4
 6501 0002 84B0     		sub	sp, sp, #16
 6502              	.LCFI139:
 6503              		.cfi_def_cfa_offset 24
 6504 0004 00AF     		add	r7, sp, #0
 6505              	.LCFI140:
 6506              		.cfi_def_cfa_register 7
 6507 0006 7860     		str	r0, [r7, #4]
 6508 0008 0B46     		mov	r3, r1
 6509 000a 7B80     		strh	r3, [r7, #2]	@ movhi
1722:App/STM32F4-Discovery/Libraries/STM32F4xx_StdPeriph_Driver/src/stm32f4xx_tim.c ****   uint16_t tmpccer = 0;
 6510              		.loc 1 1722 0
 6511 000c 0023     		movs	r3, #0
 6512 000e FB81     		strh	r3, [r7, #14]	@ movhi
1723:App/STM32F4-Discovery/Libraries/STM32F4xx_StdPeriph_Driver/src/stm32f4xx_tim.c ****  
1724:App/STM32F4-Discovery/Libraries/STM32F4xx_StdPeriph_Driver/src/stm32f4xx_tim.c ****   /* Check the parameters */
1725:App/STM32F4-Discovery/Libraries/STM32F4xx_StdPeriph_Driver/src/stm32f4xx_tim.c ****   assert_param(IS_TIM_LIST4_PERIPH(TIMx));
 6513              		.loc 1 1725 0
 6514 0010 7A68     		ldr	r2, [r7, #4]
 6515 0012 154B     		ldr	r3, .L280
 6516 0014 9A42     		cmp	r2, r3
 6517 0016 08D0     		beq	.L278
 6518              		.loc 1 1725 0 is_stmt 0 discriminator 1
 6519 0018 7A68     		ldr	r2, [r7, #4]
 6520 001a 144B     		ldr	r3, .L280+4
 6521 001c 9A42     		cmp	r2, r3
 6522 001e 04D0     		beq	.L278
 6523 0020 1348     		ldr	r0, .L280+8
 6524 0022 40F2BD61 		movw	r1, #1725
 6525 0026 FFF7FEFF 		bl	assert_failed
 6526              	.L278:
1726:App/STM32F4-Discovery/Libraries/STM32F4xx_StdPeriph_Driver/src/stm32f4xx_tim.c ****   assert_param(IS_TIM_OCN_POLARITY(TIM_OCNPolarity));
 6527              		.loc 1 1726 0 is_stmt 1
 6528 002a 7B88     		ldrh	r3, [r7, #2]
 6529 002c 002B     		cmp	r3, #0
 6530 002e 07D0     		beq	.L279
 6531              		.loc 1 1726 0 is_stmt 0 discriminator 1
 6532 0030 7B88     		ldrh	r3, [r7, #2]
 6533 0032 082B     		cmp	r3, #8
 6534 0034 04D0     		beq	.L279
 6535 0036 0E48     		ldr	r0, .L280+8
 6536 0038 40F2BE61 		movw	r1, #1726
 6537 003c FFF7FEFF 		bl	assert_failed
 6538              	.L279:
1727:App/STM32F4-Discovery/Libraries/STM32F4xx_StdPeriph_Driver/src/stm32f4xx_tim.c ****     
1728:App/STM32F4-Discovery/Libraries/STM32F4xx_StdPeriph_Driver/src/stm32f4xx_tim.c ****   tmpccer = TIMx->CCER;
 6539              		.loc 1 1728 0 is_stmt 1
 6540 0040 7B68     		ldr	r3, [r7, #4]
 6541 0042 1B8C     		ldrh	r3, [r3, #32]	@ movhi
 6542 0044 FB81     		strh	r3, [r7, #14]	@ movhi
1729:App/STM32F4-Discovery/Libraries/STM32F4xx_StdPeriph_Driver/src/stm32f4xx_tim.c **** 
1730:App/STM32F4-Discovery/Libraries/STM32F4xx_StdPeriph_Driver/src/stm32f4xx_tim.c ****   /* Set or Reset the CC3NP Bit */
1731:App/STM32F4-Discovery/Libraries/STM32F4xx_StdPeriph_Driver/src/stm32f4xx_tim.c ****   tmpccer &= (uint16_t)~TIM_CCER_CC3NP;
 6543              		.loc 1 1731 0
 6544 0046 FB89     		ldrh	r3, [r7, #14]	@ movhi
 6545 0048 23F40063 		bic	r3, r3, #2048
 6546 004c FB81     		strh	r3, [r7, #14]	@ movhi
1732:App/STM32F4-Discovery/Libraries/STM32F4xx_StdPeriph_Driver/src/stm32f4xx_tim.c ****   tmpccer |= (uint16_t)(TIM_OCNPolarity << 8);
 6547              		.loc 1 1732 0
 6548 004e 7B88     		ldrh	r3, [r7, #2]	@ movhi
 6549 0050 1B02     		lsls	r3, r3, #8
 6550 0052 9AB2     		uxth	r2, r3
 6551 0054 FB89     		ldrh	r3, [r7, #14]	@ movhi
 6552 0056 1343     		orrs	r3, r3, r2
 6553 0058 FB81     		strh	r3, [r7, #14]	@ movhi
1733:App/STM32F4-Discovery/Libraries/STM32F4xx_StdPeriph_Driver/src/stm32f4xx_tim.c **** 
1734:App/STM32F4-Discovery/Libraries/STM32F4xx_StdPeriph_Driver/src/stm32f4xx_tim.c ****   /* Write to TIMx CCER register */
1735:App/STM32F4-Discovery/Libraries/STM32F4xx_StdPeriph_Driver/src/stm32f4xx_tim.c ****   TIMx->CCER = tmpccer;
 6554              		.loc 1 1735 0
 6555 005a 7B68     		ldr	r3, [r7, #4]
 6556 005c FA89     		ldrh	r2, [r7, #14]	@ movhi
 6557 005e 1A84     		strh	r2, [r3, #32]	@ movhi
1736:App/STM32F4-Discovery/Libraries/STM32F4xx_StdPeriph_Driver/src/stm32f4xx_tim.c **** }
 6558              		.loc 1 1736 0
 6559 0060 1037     		adds	r7, r7, #16
 6560 0062 BD46     		mov	sp, r7
 6561              		@ sp needed
 6562 0064 80BD     		pop	{r7, pc}
 6563              	.L281:
 6564 0066 00BF     		.align	2
 6565              	.L280:
 6566 0068 00000140 		.word	1073807360
 6567 006c 00040140 		.word	1073808384
 6568 0070 00000000 		.word	.LC0
 6569              		.cfi_endproc
 6570              	.LFE156:
 6572              		.section	.text.TIM_OC4PolarityConfig,"ax",%progbits
 6573              		.align	2
 6574              		.global	TIM_OC4PolarityConfig
 6575              		.thumb
 6576              		.thumb_func
 6578              	TIM_OC4PolarityConfig:
 6579              	.LFB157:
1737:App/STM32F4-Discovery/Libraries/STM32F4xx_StdPeriph_Driver/src/stm32f4xx_tim.c **** 
1738:App/STM32F4-Discovery/Libraries/STM32F4xx_StdPeriph_Driver/src/stm32f4xx_tim.c **** /**
1739:App/STM32F4-Discovery/Libraries/STM32F4xx_StdPeriph_Driver/src/stm32f4xx_tim.c ****   * @brief  Configures the TIMx channel 4 polarity.
1740:App/STM32F4-Discovery/Libraries/STM32F4xx_StdPeriph_Driver/src/stm32f4xx_tim.c ****   * @param  TIMx: where x can be 1, 2, 3, 4, 5 or 8 to select the TIM peripheral.
1741:App/STM32F4-Discovery/Libraries/STM32F4xx_StdPeriph_Driver/src/stm32f4xx_tim.c ****   * @param  TIM_OCPolarity: specifies the OC4 Polarity
1742:App/STM32F4-Discovery/Libraries/STM32F4xx_StdPeriph_Driver/src/stm32f4xx_tim.c ****   *          This parameter can be one of the following values:
1743:App/STM32F4-Discovery/Libraries/STM32F4xx_StdPeriph_Driver/src/stm32f4xx_tim.c ****   *            @arg TIM_OCPolarity_High: Output Compare active high
1744:App/STM32F4-Discovery/Libraries/STM32F4xx_StdPeriph_Driver/src/stm32f4xx_tim.c ****   *            @arg TIM_OCPolarity_Low: Output Compare active low
1745:App/STM32F4-Discovery/Libraries/STM32F4xx_StdPeriph_Driver/src/stm32f4xx_tim.c ****   * @retval None
1746:App/STM32F4-Discovery/Libraries/STM32F4xx_StdPeriph_Driver/src/stm32f4xx_tim.c ****   */
1747:App/STM32F4-Discovery/Libraries/STM32F4xx_StdPeriph_Driver/src/stm32f4xx_tim.c **** void TIM_OC4PolarityConfig(TIM_TypeDef* TIMx, uint16_t TIM_OCPolarity)
1748:App/STM32F4-Discovery/Libraries/STM32F4xx_StdPeriph_Driver/src/stm32f4xx_tim.c **** {
 6580              		.loc 1 1748 0
 6581              		.cfi_startproc
 6582              		@ args = 0, pretend = 0, frame = 16
 6583              		@ frame_needed = 1, uses_anonymous_args = 0
 6584 0000 80B5     		push	{r7, lr}
 6585              	.LCFI141:
 6586              		.cfi_def_cfa_offset 8
 6587              		.cfi_offset 7, -8
 6588              		.cfi_offset 14, -4
 6589 0002 84B0     		sub	sp, sp, #16
 6590              	.LCFI142:
 6591              		.cfi_def_cfa_offset 24
 6592 0004 00AF     		add	r7, sp, #0
 6593              	.LCFI143:
 6594              		.cfi_def_cfa_register 7
 6595 0006 7860     		str	r0, [r7, #4]
 6596 0008 0B46     		mov	r3, r1
 6597 000a 7B80     		strh	r3, [r7, #2]	@ movhi
1749:App/STM32F4-Discovery/Libraries/STM32F4xx_StdPeriph_Driver/src/stm32f4xx_tim.c ****   uint16_t tmpccer = 0;
 6598              		.loc 1 1749 0
 6599 000c 0023     		movs	r3, #0
 6600 000e FB81     		strh	r3, [r7, #14]	@ movhi
1750:App/STM32F4-Discovery/Libraries/STM32F4xx_StdPeriph_Driver/src/stm32f4xx_tim.c **** 
1751:App/STM32F4-Discovery/Libraries/STM32F4xx_StdPeriph_Driver/src/stm32f4xx_tim.c ****   /* Check the parameters */
1752:App/STM32F4-Discovery/Libraries/STM32F4xx_StdPeriph_Driver/src/stm32f4xx_tim.c ****   assert_param(IS_TIM_LIST3_PERIPH(TIMx));
 6601              		.loc 1 1752 0
 6602 0010 7A68     		ldr	r2, [r7, #4]
 6603 0012 1D4B     		ldr	r3, .L285
 6604 0014 9A42     		cmp	r2, r3
 6605 0016 18D0     		beq	.L283
 6606              		.loc 1 1752 0 is_stmt 0 discriminator 1
 6607 0018 7B68     		ldr	r3, [r7, #4]
 6608 001a B3F1804F 		cmp	r3, #1073741824
 6609 001e 14D0     		beq	.L283
 6610 0020 7A68     		ldr	r2, [r7, #4]
 6611 0022 1A4B     		ldr	r3, .L285+4
 6612 0024 9A42     		cmp	r2, r3
 6613 0026 10D0     		beq	.L283
 6614 0028 7A68     		ldr	r2, [r7, #4]
 6615 002a 194B     		ldr	r3, .L285+8
 6616 002c 9A42     		cmp	r2, r3
 6617 002e 0CD0     		beq	.L283
 6618 0030 7A68     		ldr	r2, [r7, #4]
 6619 0032 184B     		ldr	r3, .L285+12
 6620 0034 9A42     		cmp	r2, r3
 6621 0036 08D0     		beq	.L283
 6622 0038 7A68     		ldr	r2, [r7, #4]
 6623 003a 174B     		ldr	r3, .L285+16
 6624 003c 9A42     		cmp	r2, r3
 6625 003e 04D0     		beq	.L283
 6626 0040 1648     		ldr	r0, .L285+20
 6627 0042 4FF4DB61 		mov	r1, #1752
 6628 0046 FFF7FEFF 		bl	assert_failed
 6629              	.L283:
1753:App/STM32F4-Discovery/Libraries/STM32F4xx_StdPeriph_Driver/src/stm32f4xx_tim.c ****   assert_param(IS_TIM_OC_POLARITY(TIM_OCPolarity));
 6630              		.loc 1 1753 0 is_stmt 1
 6631 004a 7B88     		ldrh	r3, [r7, #2]
 6632 004c 002B     		cmp	r3, #0
 6633 004e 07D0     		beq	.L284
 6634              		.loc 1 1753 0 is_stmt 0 discriminator 1
 6635 0050 7B88     		ldrh	r3, [r7, #2]
 6636 0052 022B     		cmp	r3, #2
 6637 0054 04D0     		beq	.L284
 6638 0056 1148     		ldr	r0, .L285+20
 6639 0058 40F2D961 		movw	r1, #1753
 6640 005c FFF7FEFF 		bl	assert_failed
 6641              	.L284:
1754:App/STM32F4-Discovery/Libraries/STM32F4xx_StdPeriph_Driver/src/stm32f4xx_tim.c **** 
1755:App/STM32F4-Discovery/Libraries/STM32F4xx_StdPeriph_Driver/src/stm32f4xx_tim.c ****   tmpccer = TIMx->CCER;
 6642              		.loc 1 1755 0 is_stmt 1
 6643 0060 7B68     		ldr	r3, [r7, #4]
 6644 0062 1B8C     		ldrh	r3, [r3, #32]	@ movhi
 6645 0064 FB81     		strh	r3, [r7, #14]	@ movhi
1756:App/STM32F4-Discovery/Libraries/STM32F4xx_StdPeriph_Driver/src/stm32f4xx_tim.c **** 
1757:App/STM32F4-Discovery/Libraries/STM32F4xx_StdPeriph_Driver/src/stm32f4xx_tim.c ****   /* Set or Reset the CC4P Bit */
1758:App/STM32F4-Discovery/Libraries/STM32F4xx_StdPeriph_Driver/src/stm32f4xx_tim.c ****   tmpccer &= (uint16_t)~TIM_CCER_CC4P;
 6646              		.loc 1 1758 0
 6647 0066 FB89     		ldrh	r3, [r7, #14]	@ movhi
 6648 0068 23F40053 		bic	r3, r3, #8192
 6649 006c FB81     		strh	r3, [r7, #14]	@ movhi
1759:App/STM32F4-Discovery/Libraries/STM32F4xx_StdPeriph_Driver/src/stm32f4xx_tim.c ****   tmpccer |= (uint16_t)(TIM_OCPolarity << 12);
 6650              		.loc 1 1759 0
 6651 006e 7B88     		ldrh	r3, [r7, #2]	@ movhi
 6652 0070 1B03     		lsls	r3, r3, #12
 6653 0072 9AB2     		uxth	r2, r3
 6654 0074 FB89     		ldrh	r3, [r7, #14]	@ movhi
 6655 0076 1343     		orrs	r3, r3, r2
 6656 0078 FB81     		strh	r3, [r7, #14]	@ movhi
1760:App/STM32F4-Discovery/Libraries/STM32F4xx_StdPeriph_Driver/src/stm32f4xx_tim.c **** 
1761:App/STM32F4-Discovery/Libraries/STM32F4xx_StdPeriph_Driver/src/stm32f4xx_tim.c ****   /* Write to TIMx CCER register */
1762:App/STM32F4-Discovery/Libraries/STM32F4xx_StdPeriph_Driver/src/stm32f4xx_tim.c ****   TIMx->CCER = tmpccer;
 6657              		.loc 1 1762 0
 6658 007a 7B68     		ldr	r3, [r7, #4]
 6659 007c FA89     		ldrh	r2, [r7, #14]	@ movhi
 6660 007e 1A84     		strh	r2, [r3, #32]	@ movhi
1763:App/STM32F4-Discovery/Libraries/STM32F4xx_StdPeriph_Driver/src/stm32f4xx_tim.c **** }
 6661              		.loc 1 1763 0
 6662 0080 1037     		adds	r7, r7, #16
 6663 0082 BD46     		mov	sp, r7
 6664              		@ sp needed
 6665 0084 80BD     		pop	{r7, pc}
 6666              	.L286:
 6667 0086 00BF     		.align	2
 6668              	.L285:
 6669 0088 00000140 		.word	1073807360
 6670 008c 00040040 		.word	1073742848
 6671 0090 00080040 		.word	1073743872
 6672 0094 000C0040 		.word	1073744896
 6673 0098 00040140 		.word	1073808384
 6674 009c 00000000 		.word	.LC0
 6675              		.cfi_endproc
 6676              	.LFE157:
 6678              		.section	.text.TIM_CCxCmd,"ax",%progbits
 6679              		.align	2
 6680              		.global	TIM_CCxCmd
 6681              		.thumb
 6682              		.thumb_func
 6684              	TIM_CCxCmd:
 6685              	.LFB158:
1764:App/STM32F4-Discovery/Libraries/STM32F4xx_StdPeriph_Driver/src/stm32f4xx_tim.c **** 
1765:App/STM32F4-Discovery/Libraries/STM32F4xx_StdPeriph_Driver/src/stm32f4xx_tim.c **** /**
1766:App/STM32F4-Discovery/Libraries/STM32F4xx_StdPeriph_Driver/src/stm32f4xx_tim.c ****   * @brief  Enables or disables the TIM Capture Compare Channel x.
1767:App/STM32F4-Discovery/Libraries/STM32F4xx_StdPeriph_Driver/src/stm32f4xx_tim.c ****   * @param  TIMx: where x can be 1 to 14 except 6 and 7, to select the TIM peripheral.
1768:App/STM32F4-Discovery/Libraries/STM32F4xx_StdPeriph_Driver/src/stm32f4xx_tim.c ****   * @param  TIM_Channel: specifies the TIM Channel
1769:App/STM32F4-Discovery/Libraries/STM32F4xx_StdPeriph_Driver/src/stm32f4xx_tim.c ****   *          This parameter can be one of the following values:
1770:App/STM32F4-Discovery/Libraries/STM32F4xx_StdPeriph_Driver/src/stm32f4xx_tim.c ****   *            @arg TIM_Channel_1: TIM Channel 1
1771:App/STM32F4-Discovery/Libraries/STM32F4xx_StdPeriph_Driver/src/stm32f4xx_tim.c ****   *            @arg TIM_Channel_2: TIM Channel 2
1772:App/STM32F4-Discovery/Libraries/STM32F4xx_StdPeriph_Driver/src/stm32f4xx_tim.c ****   *            @arg TIM_Channel_3: TIM Channel 3
1773:App/STM32F4-Discovery/Libraries/STM32F4xx_StdPeriph_Driver/src/stm32f4xx_tim.c ****   *            @arg TIM_Channel_4: TIM Channel 4
1774:App/STM32F4-Discovery/Libraries/STM32F4xx_StdPeriph_Driver/src/stm32f4xx_tim.c ****   * @param  TIM_CCx: specifies the TIM Channel CCxE bit new state.
1775:App/STM32F4-Discovery/Libraries/STM32F4xx_StdPeriph_Driver/src/stm32f4xx_tim.c ****   *          This parameter can be: TIM_CCx_Enable or TIM_CCx_Disable. 
1776:App/STM32F4-Discovery/Libraries/STM32F4xx_StdPeriph_Driver/src/stm32f4xx_tim.c ****   * @retval None
1777:App/STM32F4-Discovery/Libraries/STM32F4xx_StdPeriph_Driver/src/stm32f4xx_tim.c ****   */
1778:App/STM32F4-Discovery/Libraries/STM32F4xx_StdPeriph_Driver/src/stm32f4xx_tim.c **** void TIM_CCxCmd(TIM_TypeDef* TIMx, uint16_t TIM_Channel, uint16_t TIM_CCx)
1779:App/STM32F4-Discovery/Libraries/STM32F4xx_StdPeriph_Driver/src/stm32f4xx_tim.c **** {
 6686              		.loc 1 1779 0
 6687              		.cfi_startproc
 6688              		@ args = 0, pretend = 0, frame = 16
 6689              		@ frame_needed = 1, uses_anonymous_args = 0
 6690 0000 80B5     		push	{r7, lr}
 6691              	.LCFI144:
 6692              		.cfi_def_cfa_offset 8
 6693              		.cfi_offset 7, -8
 6694              		.cfi_offset 14, -4
 6695 0002 84B0     		sub	sp, sp, #16
 6696              	.LCFI145:
 6697              		.cfi_def_cfa_offset 24
 6698 0004 00AF     		add	r7, sp, #0
 6699              	.LCFI146:
 6700              		.cfi_def_cfa_register 7
 6701 0006 7860     		str	r0, [r7, #4]
 6702 0008 1346     		mov	r3, r2
 6703 000a 0A46     		mov	r2, r1	@ movhi
 6704 000c 7A80     		strh	r2, [r7, #2]	@ movhi
 6705 000e 3B80     		strh	r3, [r7]	@ movhi
1780:App/STM32F4-Discovery/Libraries/STM32F4xx_StdPeriph_Driver/src/stm32f4xx_tim.c ****   uint16_t tmp = 0;
 6706              		.loc 1 1780 0
 6707 0010 0023     		movs	r3, #0
 6708 0012 FB81     		strh	r3, [r7, #14]	@ movhi
1781:App/STM32F4-Discovery/Libraries/STM32F4xx_StdPeriph_Driver/src/stm32f4xx_tim.c **** 
1782:App/STM32F4-Discovery/Libraries/STM32F4xx_StdPeriph_Driver/src/stm32f4xx_tim.c ****   /* Check the parameters */
1783:App/STM32F4-Discovery/Libraries/STM32F4xx_StdPeriph_Driver/src/stm32f4xx_tim.c ****   assert_param(IS_TIM_LIST1_PERIPH(TIMx)); 
 6709              		.loc 1 1783 0
 6710 0014 7A68     		ldr	r2, [r7, #4]
 6711 0016 374B     		ldr	r3, .L291
 6712 0018 9A42     		cmp	r2, r3
 6713 001a 30D0     		beq	.L288
 6714              		.loc 1 1783 0 is_stmt 0 discriminator 1
 6715 001c 7B68     		ldr	r3, [r7, #4]
 6716 001e B3F1804F 		cmp	r3, #1073741824
 6717 0022 2CD0     		beq	.L288
 6718 0024 7A68     		ldr	r2, [r7, #4]
 6719 0026 344B     		ldr	r3, .L291+4
 6720 0028 9A42     		cmp	r2, r3
 6721 002a 28D0     		beq	.L288
 6722 002c 7A68     		ldr	r2, [r7, #4]
 6723 002e 334B     		ldr	r3, .L291+8
 6724 0030 9A42     		cmp	r2, r3
 6725 0032 24D0     		beq	.L288
 6726 0034 7A68     		ldr	r2, [r7, #4]
 6727 0036 324B     		ldr	r3, .L291+12
 6728 0038 9A42     		cmp	r2, r3
 6729 003a 20D0     		beq	.L288
 6730 003c 7A68     		ldr	r2, [r7, #4]
 6731 003e 314B     		ldr	r3, .L291+16
 6732 0040 9A42     		cmp	r2, r3
 6733 0042 1CD0     		beq	.L288
 6734 0044 7A68     		ldr	r2, [r7, #4]
 6735 0046 304B     		ldr	r3, .L291+20
 6736 0048 9A42     		cmp	r2, r3
 6737 004a 18D0     		beq	.L288
 6738 004c 7A68     		ldr	r2, [r7, #4]
 6739 004e 2F4B     		ldr	r3, .L291+24
 6740 0050 9A42     		cmp	r2, r3
 6741 0052 14D0     		beq	.L288
 6742 0054 7A68     		ldr	r2, [r7, #4]
 6743 0056 2E4B     		ldr	r3, .L291+28
 6744 0058 9A42     		cmp	r2, r3
 6745 005a 10D0     		beq	.L288
 6746 005c 7A68     		ldr	r2, [r7, #4]
 6747 005e 2D4B     		ldr	r3, .L291+32
 6748 0060 9A42     		cmp	r2, r3
 6749 0062 0CD0     		beq	.L288
 6750 0064 7A68     		ldr	r2, [r7, #4]
 6751 0066 2C4B     		ldr	r3, .L291+36
 6752 0068 9A42     		cmp	r2, r3
 6753 006a 08D0     		beq	.L288
 6754 006c 7A68     		ldr	r2, [r7, #4]
 6755 006e 2B4B     		ldr	r3, .L291+40
 6756 0070 9A42     		cmp	r2, r3
 6757 0072 04D0     		beq	.L288
 6758 0074 2A48     		ldr	r0, .L291+44
 6759 0076 40F2F761 		movw	r1, #1783
 6760 007a FFF7FEFF 		bl	assert_failed
 6761              	.L288:
1784:App/STM32F4-Discovery/Libraries/STM32F4xx_StdPeriph_Driver/src/stm32f4xx_tim.c ****   assert_param(IS_TIM_CHANNEL(TIM_Channel));
 6762              		.loc 1 1784 0 is_stmt 1
 6763 007e 7B88     		ldrh	r3, [r7, #2]
 6764 0080 002B     		cmp	r3, #0
 6765 0082 0DD0     		beq	.L289
 6766              		.loc 1 1784 0 is_stmt 0 discriminator 1
 6767 0084 7B88     		ldrh	r3, [r7, #2]
 6768 0086 042B     		cmp	r3, #4
 6769 0088 0AD0     		beq	.L289
 6770 008a 7B88     		ldrh	r3, [r7, #2]
 6771 008c 082B     		cmp	r3, #8
 6772 008e 07D0     		beq	.L289
 6773 0090 7B88     		ldrh	r3, [r7, #2]
 6774 0092 0C2B     		cmp	r3, #12
 6775 0094 04D0     		beq	.L289
 6776 0096 2248     		ldr	r0, .L291+44
 6777 0098 4FF4DF61 		mov	r1, #1784
 6778 009c FFF7FEFF 		bl	assert_failed
 6779              	.L289:
1785:App/STM32F4-Discovery/Libraries/STM32F4xx_StdPeriph_Driver/src/stm32f4xx_tim.c ****   assert_param(IS_TIM_CCX(TIM_CCx));
 6780              		.loc 1 1785 0 is_stmt 1
 6781 00a0 3B88     		ldrh	r3, [r7]
 6782 00a2 012B     		cmp	r3, #1
 6783 00a4 07D0     		beq	.L290
 6784              		.loc 1 1785 0 is_stmt 0 discriminator 1
 6785 00a6 3B88     		ldrh	r3, [r7]
 6786 00a8 002B     		cmp	r3, #0
 6787 00aa 04D0     		beq	.L290
 6788 00ac 1C48     		ldr	r0, .L291+44
 6789 00ae 40F2F961 		movw	r1, #1785
 6790 00b2 FFF7FEFF 		bl	assert_failed
 6791              	.L290:
1786:App/STM32F4-Discovery/Libraries/STM32F4xx_StdPeriph_Driver/src/stm32f4xx_tim.c **** 
1787:App/STM32F4-Discovery/Libraries/STM32F4xx_StdPeriph_Driver/src/stm32f4xx_tim.c ****   tmp = CCER_CCE_SET << TIM_Channel;
 6792              		.loc 1 1787 0 is_stmt 1
 6793 00b6 7B88     		ldrh	r3, [r7, #2]
 6794 00b8 0122     		movs	r2, #1
 6795 00ba 02FA03F3 		lsl	r3, r2, r3
 6796 00be FB81     		strh	r3, [r7, #14]	@ movhi
1788:App/STM32F4-Discovery/Libraries/STM32F4xx_StdPeriph_Driver/src/stm32f4xx_tim.c **** 
1789:App/STM32F4-Discovery/Libraries/STM32F4xx_StdPeriph_Driver/src/stm32f4xx_tim.c ****   /* Reset the CCxE Bit */
1790:App/STM32F4-Discovery/Libraries/STM32F4xx_StdPeriph_Driver/src/stm32f4xx_tim.c ****   TIMx->CCER &= (uint16_t)~ tmp;
 6797              		.loc 1 1790 0
 6798 00c0 7B68     		ldr	r3, [r7, #4]
 6799 00c2 1B8C     		ldrh	r3, [r3, #32]	@ movhi
 6800 00c4 9AB2     		uxth	r2, r3
 6801 00c6 FB89     		ldrh	r3, [r7, #14]	@ movhi
 6802 00c8 DB43     		mvns	r3, r3
 6803 00ca 9BB2     		uxth	r3, r3
 6804 00cc 1340     		ands	r3, r3, r2
 6805 00ce 9AB2     		uxth	r2, r3
 6806 00d0 7B68     		ldr	r3, [r7, #4]
 6807 00d2 1A84     		strh	r2, [r3, #32]	@ movhi
1791:App/STM32F4-Discovery/Libraries/STM32F4xx_StdPeriph_Driver/src/stm32f4xx_tim.c **** 
1792:App/STM32F4-Discovery/Libraries/STM32F4xx_StdPeriph_Driver/src/stm32f4xx_tim.c ****   /* Set or reset the CCxE Bit */ 
1793:App/STM32F4-Discovery/Libraries/STM32F4xx_StdPeriph_Driver/src/stm32f4xx_tim.c ****   TIMx->CCER |=  (uint16_t)(TIM_CCx << TIM_Channel);
 6808              		.loc 1 1793 0
 6809 00d4 7B68     		ldr	r3, [r7, #4]
 6810 00d6 1B8C     		ldrh	r3, [r3, #32]	@ movhi
 6811 00d8 9AB2     		uxth	r2, r3
 6812 00da 3988     		ldrh	r1, [r7]
 6813 00dc 7B88     		ldrh	r3, [r7, #2]
 6814 00de 01FA03F3 		lsl	r3, r1, r3
 6815 00e2 9BB2     		uxth	r3, r3
 6816 00e4 1343     		orrs	r3, r3, r2
 6817 00e6 9AB2     		uxth	r2, r3
 6818 00e8 7B68     		ldr	r3, [r7, #4]
 6819 00ea 1A84     		strh	r2, [r3, #32]	@ movhi
1794:App/STM32F4-Discovery/Libraries/STM32F4xx_StdPeriph_Driver/src/stm32f4xx_tim.c **** }
 6820              		.loc 1 1794 0
 6821 00ec 1037     		adds	r7, r7, #16
 6822 00ee BD46     		mov	sp, r7
 6823              		@ sp needed
 6824 00f0 80BD     		pop	{r7, pc}
 6825              	.L292:
 6826 00f2 00BF     		.align	2
 6827              	.L291:
 6828 00f4 00000140 		.word	1073807360
 6829 00f8 00040040 		.word	1073742848
 6830 00fc 00080040 		.word	1073743872
 6831 0100 000C0040 		.word	1073744896
 6832 0104 00040140 		.word	1073808384
 6833 0108 00400140 		.word	1073823744
 6834 010c 00440140 		.word	1073824768
 6835 0110 00480140 		.word	1073825792
 6836 0114 00180040 		.word	1073747968
 6837 0118 001C0040 		.word	1073748992
 6838 011c 00200040 		.word	1073750016
 6839 0120 00000000 		.word	.LC0
 6840              		.cfi_endproc
 6841              	.LFE158:
 6843              		.section	.text.TIM_CCxNCmd,"ax",%progbits
 6844              		.align	2
 6845              		.global	TIM_CCxNCmd
 6846              		.thumb
 6847              		.thumb_func
 6849              	TIM_CCxNCmd:
 6850              	.LFB159:
1795:App/STM32F4-Discovery/Libraries/STM32F4xx_StdPeriph_Driver/src/stm32f4xx_tim.c **** 
1796:App/STM32F4-Discovery/Libraries/STM32F4xx_StdPeriph_Driver/src/stm32f4xx_tim.c **** /**
1797:App/STM32F4-Discovery/Libraries/STM32F4xx_StdPeriph_Driver/src/stm32f4xx_tim.c ****   * @brief  Enables or disables the TIM Capture Compare Channel xN.
1798:App/STM32F4-Discovery/Libraries/STM32F4xx_StdPeriph_Driver/src/stm32f4xx_tim.c ****   * @param  TIMx: where x can be 1 or 8 to select the TIM peripheral.
1799:App/STM32F4-Discovery/Libraries/STM32F4xx_StdPeriph_Driver/src/stm32f4xx_tim.c ****   * @param  TIM_Channel: specifies the TIM Channel
1800:App/STM32F4-Discovery/Libraries/STM32F4xx_StdPeriph_Driver/src/stm32f4xx_tim.c ****   *          This parameter can be one of the following values:
1801:App/STM32F4-Discovery/Libraries/STM32F4xx_StdPeriph_Driver/src/stm32f4xx_tim.c ****   *            @arg TIM_Channel_1: TIM Channel 1
1802:App/STM32F4-Discovery/Libraries/STM32F4xx_StdPeriph_Driver/src/stm32f4xx_tim.c ****   *            @arg TIM_Channel_2: TIM Channel 2
1803:App/STM32F4-Discovery/Libraries/STM32F4xx_StdPeriph_Driver/src/stm32f4xx_tim.c ****   *            @arg TIM_Channel_3: TIM Channel 3
1804:App/STM32F4-Discovery/Libraries/STM32F4xx_StdPeriph_Driver/src/stm32f4xx_tim.c ****   * @param  TIM_CCxN: specifies the TIM Channel CCxNE bit new state.
1805:App/STM32F4-Discovery/Libraries/STM32F4xx_StdPeriph_Driver/src/stm32f4xx_tim.c ****   *          This parameter can be: TIM_CCxN_Enable or TIM_CCxN_Disable. 
1806:App/STM32F4-Discovery/Libraries/STM32F4xx_StdPeriph_Driver/src/stm32f4xx_tim.c ****   * @retval None
1807:App/STM32F4-Discovery/Libraries/STM32F4xx_StdPeriph_Driver/src/stm32f4xx_tim.c ****   */
1808:App/STM32F4-Discovery/Libraries/STM32F4xx_StdPeriph_Driver/src/stm32f4xx_tim.c **** void TIM_CCxNCmd(TIM_TypeDef* TIMx, uint16_t TIM_Channel, uint16_t TIM_CCxN)
1809:App/STM32F4-Discovery/Libraries/STM32F4xx_StdPeriph_Driver/src/stm32f4xx_tim.c **** {
 6851              		.loc 1 1809 0
 6852              		.cfi_startproc
 6853              		@ args = 0, pretend = 0, frame = 16
 6854              		@ frame_needed = 1, uses_anonymous_args = 0
 6855 0000 80B5     		push	{r7, lr}
 6856              	.LCFI147:
 6857              		.cfi_def_cfa_offset 8
 6858              		.cfi_offset 7, -8
 6859              		.cfi_offset 14, -4
 6860 0002 84B0     		sub	sp, sp, #16
 6861              	.LCFI148:
 6862              		.cfi_def_cfa_offset 24
 6863 0004 00AF     		add	r7, sp, #0
 6864              	.LCFI149:
 6865              		.cfi_def_cfa_register 7
 6866 0006 7860     		str	r0, [r7, #4]
 6867 0008 1346     		mov	r3, r2
 6868 000a 0A46     		mov	r2, r1	@ movhi
 6869 000c 7A80     		strh	r2, [r7, #2]	@ movhi
 6870 000e 3B80     		strh	r3, [r7]	@ movhi
1810:App/STM32F4-Discovery/Libraries/STM32F4xx_StdPeriph_Driver/src/stm32f4xx_tim.c ****   uint16_t tmp = 0;
 6871              		.loc 1 1810 0
 6872 0010 0023     		movs	r3, #0
 6873 0012 FB81     		strh	r3, [r7, #14]	@ movhi
1811:App/STM32F4-Discovery/Libraries/STM32F4xx_StdPeriph_Driver/src/stm32f4xx_tim.c **** 
1812:App/STM32F4-Discovery/Libraries/STM32F4xx_StdPeriph_Driver/src/stm32f4xx_tim.c ****   /* Check the parameters */
1813:App/STM32F4-Discovery/Libraries/STM32F4xx_StdPeriph_Driver/src/stm32f4xx_tim.c ****   assert_param(IS_TIM_LIST4_PERIPH(TIMx));
 6874              		.loc 1 1813 0
 6875 0014 7A68     		ldr	r2, [r7, #4]
 6876 0016 214B     		ldr	r3, .L297
 6877 0018 9A42     		cmp	r2, r3
 6878 001a 08D0     		beq	.L294
 6879              		.loc 1 1813 0 is_stmt 0 discriminator 1
 6880 001c 7A68     		ldr	r2, [r7, #4]
 6881 001e 204B     		ldr	r3, .L297+4
 6882 0020 9A42     		cmp	r2, r3
 6883 0022 04D0     		beq	.L294
 6884 0024 1F48     		ldr	r0, .L297+8
 6885 0026 40F21571 		movw	r1, #1813
 6886 002a FFF7FEFF 		bl	assert_failed
 6887              	.L294:
1814:App/STM32F4-Discovery/Libraries/STM32F4xx_StdPeriph_Driver/src/stm32f4xx_tim.c ****   assert_param(IS_TIM_COMPLEMENTARY_CHANNEL(TIM_Channel));
 6888              		.loc 1 1814 0 is_stmt 1
 6889 002e 7B88     		ldrh	r3, [r7, #2]
 6890 0030 002B     		cmp	r3, #0
 6891 0032 0AD0     		beq	.L295
 6892              		.loc 1 1814 0 is_stmt 0 discriminator 1
 6893 0034 7B88     		ldrh	r3, [r7, #2]
 6894 0036 042B     		cmp	r3, #4
 6895 0038 07D0     		beq	.L295
 6896 003a 7B88     		ldrh	r3, [r7, #2]
 6897 003c 082B     		cmp	r3, #8
 6898 003e 04D0     		beq	.L295
 6899 0040 1848     		ldr	r0, .L297+8
 6900 0042 40F21671 		movw	r1, #1814
 6901 0046 FFF7FEFF 		bl	assert_failed
 6902              	.L295:
1815:App/STM32F4-Discovery/Libraries/STM32F4xx_StdPeriph_Driver/src/stm32f4xx_tim.c ****   assert_param(IS_TIM_CCXN(TIM_CCxN));
 6903              		.loc 1 1815 0 is_stmt 1
 6904 004a 3B88     		ldrh	r3, [r7]
 6905 004c 042B     		cmp	r3, #4
 6906 004e 07D0     		beq	.L296
 6907              		.loc 1 1815 0 is_stmt 0 discriminator 1
 6908 0050 3B88     		ldrh	r3, [r7]
 6909 0052 002B     		cmp	r3, #0
 6910 0054 04D0     		beq	.L296
 6911 0056 1348     		ldr	r0, .L297+8
 6912 0058 40F21771 		movw	r1, #1815
 6913 005c FFF7FEFF 		bl	assert_failed
 6914              	.L296:
1816:App/STM32F4-Discovery/Libraries/STM32F4xx_StdPeriph_Driver/src/stm32f4xx_tim.c **** 
1817:App/STM32F4-Discovery/Libraries/STM32F4xx_StdPeriph_Driver/src/stm32f4xx_tim.c ****   tmp = CCER_CCNE_SET << TIM_Channel;
 6915              		.loc 1 1817 0 is_stmt 1
 6916 0060 7B88     		ldrh	r3, [r7, #2]
 6917 0062 0422     		movs	r2, #4
 6918 0064 02FA03F3 		lsl	r3, r2, r3
 6919 0068 FB81     		strh	r3, [r7, #14]	@ movhi
1818:App/STM32F4-Discovery/Libraries/STM32F4xx_StdPeriph_Driver/src/stm32f4xx_tim.c **** 
1819:App/STM32F4-Discovery/Libraries/STM32F4xx_StdPeriph_Driver/src/stm32f4xx_tim.c ****   /* Reset the CCxNE Bit */
1820:App/STM32F4-Discovery/Libraries/STM32F4xx_StdPeriph_Driver/src/stm32f4xx_tim.c ****   TIMx->CCER &= (uint16_t) ~tmp;
 6920              		.loc 1 1820 0
 6921 006a 7B68     		ldr	r3, [r7, #4]
 6922 006c 1B8C     		ldrh	r3, [r3, #32]	@ movhi
 6923 006e 9AB2     		uxth	r2, r3
 6924 0070 FB89     		ldrh	r3, [r7, #14]	@ movhi
 6925 0072 DB43     		mvns	r3, r3
 6926 0074 9BB2     		uxth	r3, r3
 6927 0076 1340     		ands	r3, r3, r2
 6928 0078 9AB2     		uxth	r2, r3
 6929 007a 7B68     		ldr	r3, [r7, #4]
 6930 007c 1A84     		strh	r2, [r3, #32]	@ movhi
1821:App/STM32F4-Discovery/Libraries/STM32F4xx_StdPeriph_Driver/src/stm32f4xx_tim.c **** 
1822:App/STM32F4-Discovery/Libraries/STM32F4xx_StdPeriph_Driver/src/stm32f4xx_tim.c ****   /* Set or reset the CCxNE Bit */ 
1823:App/STM32F4-Discovery/Libraries/STM32F4xx_StdPeriph_Driver/src/stm32f4xx_tim.c ****   TIMx->CCER |=  (uint16_t)(TIM_CCxN << TIM_Channel);
 6931              		.loc 1 1823 0
 6932 007e 7B68     		ldr	r3, [r7, #4]
 6933 0080 1B8C     		ldrh	r3, [r3, #32]	@ movhi
 6934 0082 9AB2     		uxth	r2, r3
 6935 0084 3988     		ldrh	r1, [r7]
 6936 0086 7B88     		ldrh	r3, [r7, #2]
 6937 0088 01FA03F3 		lsl	r3, r1, r3
 6938 008c 9BB2     		uxth	r3, r3
 6939 008e 1343     		orrs	r3, r3, r2
 6940 0090 9AB2     		uxth	r2, r3
 6941 0092 7B68     		ldr	r3, [r7, #4]
 6942 0094 1A84     		strh	r2, [r3, #32]	@ movhi
1824:App/STM32F4-Discovery/Libraries/STM32F4xx_StdPeriph_Driver/src/stm32f4xx_tim.c **** }
 6943              		.loc 1 1824 0
 6944 0096 1037     		adds	r7, r7, #16
 6945 0098 BD46     		mov	sp, r7
 6946              		@ sp needed
 6947 009a 80BD     		pop	{r7, pc}
 6948              	.L298:
 6949              		.align	2
 6950              	.L297:
 6951 009c 00000140 		.word	1073807360
 6952 00a0 00040140 		.word	1073808384
 6953 00a4 00000000 		.word	.LC0
 6954              		.cfi_endproc
 6955              	.LFE159:
 6957              		.section	.text.TIM_ICInit,"ax",%progbits
 6958              		.align	2
 6959              		.global	TIM_ICInit
 6960              		.thumb
 6961              		.thumb_func
 6963              	TIM_ICInit:
 6964              	.LFB160:
1825:App/STM32F4-Discovery/Libraries/STM32F4xx_StdPeriph_Driver/src/stm32f4xx_tim.c **** /**
1826:App/STM32F4-Discovery/Libraries/STM32F4xx_StdPeriph_Driver/src/stm32f4xx_tim.c ****   * @}
1827:App/STM32F4-Discovery/Libraries/STM32F4xx_StdPeriph_Driver/src/stm32f4xx_tim.c ****   */
1828:App/STM32F4-Discovery/Libraries/STM32F4xx_StdPeriph_Driver/src/stm32f4xx_tim.c **** 
1829:App/STM32F4-Discovery/Libraries/STM32F4xx_StdPeriph_Driver/src/stm32f4xx_tim.c **** /** @defgroup TIM_Group3 Input Capture management functions
1830:App/STM32F4-Discovery/Libraries/STM32F4xx_StdPeriph_Driver/src/stm32f4xx_tim.c ****  *  @brief    Input Capture management functions 
1831:App/STM32F4-Discovery/Libraries/STM32F4xx_StdPeriph_Driver/src/stm32f4xx_tim.c ****  *
1832:App/STM32F4-Discovery/Libraries/STM32F4xx_StdPeriph_Driver/src/stm32f4xx_tim.c **** @verbatim   
1833:App/STM32F4-Discovery/Libraries/STM32F4xx_StdPeriph_Driver/src/stm32f4xx_tim.c ****  ===============================================================================
1834:App/STM32F4-Discovery/Libraries/STM32F4xx_StdPeriph_Driver/src/stm32f4xx_tim.c ****                       Input Capture management functions
1835:App/STM32F4-Discovery/Libraries/STM32F4xx_StdPeriph_Driver/src/stm32f4xx_tim.c ****  ===============================================================================  
1836:App/STM32F4-Discovery/Libraries/STM32F4xx_StdPeriph_Driver/src/stm32f4xx_tim.c ****    
1837:App/STM32F4-Discovery/Libraries/STM32F4xx_StdPeriph_Driver/src/stm32f4xx_tim.c ****        ===================================================================      
1838:App/STM32F4-Discovery/Libraries/STM32F4xx_StdPeriph_Driver/src/stm32f4xx_tim.c ****               TIM Driver: how to use it in Input Capture Mode
1839:App/STM32F4-Discovery/Libraries/STM32F4xx_StdPeriph_Driver/src/stm32f4xx_tim.c ****        =================================================================== 
1840:App/STM32F4-Discovery/Libraries/STM32F4xx_StdPeriph_Driver/src/stm32f4xx_tim.c ****        To use the Timer in Input Capture mode, the following steps are mandatory:
1841:App/STM32F4-Discovery/Libraries/STM32F4xx_StdPeriph_Driver/src/stm32f4xx_tim.c ****        
1842:App/STM32F4-Discovery/Libraries/STM32F4xx_StdPeriph_Driver/src/stm32f4xx_tim.c ****        1. Enable TIM clock using RCC_APBxPeriphClockCmd(RCC_APBxPeriph_TIMx, ENABLE) function
1843:App/STM32F4-Discovery/Libraries/STM32F4xx_StdPeriph_Driver/src/stm32f4xx_tim.c ****        
1844:App/STM32F4-Discovery/Libraries/STM32F4xx_StdPeriph_Driver/src/stm32f4xx_tim.c ****        2. Configure the TIM pins by configuring the corresponding GPIO pins
1845:App/STM32F4-Discovery/Libraries/STM32F4xx_StdPeriph_Driver/src/stm32f4xx_tim.c ****        
1846:App/STM32F4-Discovery/Libraries/STM32F4xx_StdPeriph_Driver/src/stm32f4xx_tim.c ****        2. Configure the Time base unit as described in the first part of this driver,
1847:App/STM32F4-Discovery/Libraries/STM32F4xx_StdPeriph_Driver/src/stm32f4xx_tim.c ****           if needed, else the Timer will run with the default configuration:
1848:App/STM32F4-Discovery/Libraries/STM32F4xx_StdPeriph_Driver/src/stm32f4xx_tim.c ****           - Autoreload value = 0xFFFF
1849:App/STM32F4-Discovery/Libraries/STM32F4xx_StdPeriph_Driver/src/stm32f4xx_tim.c ****           - Prescaler value = 0x0000
1850:App/STM32F4-Discovery/Libraries/STM32F4xx_StdPeriph_Driver/src/stm32f4xx_tim.c ****           - Counter mode = Up counting
1851:App/STM32F4-Discovery/Libraries/STM32F4xx_StdPeriph_Driver/src/stm32f4xx_tim.c ****           - Clock Division = TIM_CKD_DIV1
1852:App/STM32F4-Discovery/Libraries/STM32F4xx_StdPeriph_Driver/src/stm32f4xx_tim.c ****           
1853:App/STM32F4-Discovery/Libraries/STM32F4xx_StdPeriph_Driver/src/stm32f4xx_tim.c ****        3. Fill the TIM_ICInitStruct with the desired parameters including:
1854:App/STM32F4-Discovery/Libraries/STM32F4xx_StdPeriph_Driver/src/stm32f4xx_tim.c ****           - TIM Channel: TIM_Channel
1855:App/STM32F4-Discovery/Libraries/STM32F4xx_StdPeriph_Driver/src/stm32f4xx_tim.c ****           - TIM Input Capture polarity: TIM_ICPolarity
1856:App/STM32F4-Discovery/Libraries/STM32F4xx_StdPeriph_Driver/src/stm32f4xx_tim.c ****           - TIM Input Capture selection: TIM_ICSelection
1857:App/STM32F4-Discovery/Libraries/STM32F4xx_StdPeriph_Driver/src/stm32f4xx_tim.c ****           - TIM Input Capture Prescaler: TIM_ICPrescaler
1858:App/STM32F4-Discovery/Libraries/STM32F4xx_StdPeriph_Driver/src/stm32f4xx_tim.c ****           - TIM Input CApture filter value: TIM_ICFilter
1859:App/STM32F4-Discovery/Libraries/STM32F4xx_StdPeriph_Driver/src/stm32f4xx_tim.c ****        
1860:App/STM32F4-Discovery/Libraries/STM32F4xx_StdPeriph_Driver/src/stm32f4xx_tim.c ****        4. Call TIM_ICInit(TIMx, &TIM_ICInitStruct) to configure the desired channel with the 
1861:App/STM32F4-Discovery/Libraries/STM32F4xx_StdPeriph_Driver/src/stm32f4xx_tim.c ****           corresponding configuration and to measure only frequency or duty cycle of the input sign
1862:App/STM32F4-Discovery/Libraries/STM32F4xx_StdPeriph_Driver/src/stm32f4xx_tim.c ****           or,
1863:App/STM32F4-Discovery/Libraries/STM32F4xx_StdPeriph_Driver/src/stm32f4xx_tim.c ****           Call TIM_PWMIConfig(TIMx, &TIM_ICInitStruct) to configure the desired channels with the 
1864:App/STM32F4-Discovery/Libraries/STM32F4xx_StdPeriph_Driver/src/stm32f4xx_tim.c ****           corresponding configuration and to measure the frequency and the duty cycle of the input 
1865:App/STM32F4-Discovery/Libraries/STM32F4xx_StdPeriph_Driver/src/stm32f4xx_tim.c ****           
1866:App/STM32F4-Discovery/Libraries/STM32F4xx_StdPeriph_Driver/src/stm32f4xx_tim.c ****        5. Enable the NVIC or the DMA to read the measured frequency. 
1867:App/STM32F4-Discovery/Libraries/STM32F4xx_StdPeriph_Driver/src/stm32f4xx_tim.c ****           
1868:App/STM32F4-Discovery/Libraries/STM32F4xx_StdPeriph_Driver/src/stm32f4xx_tim.c ****        6. Enable the corresponding interrupt (or DMA request) to read the Captured value,
1869:App/STM32F4-Discovery/Libraries/STM32F4xx_StdPeriph_Driver/src/stm32f4xx_tim.c ****           using the function TIM_ITConfig(TIMx, TIM_IT_CCx) (or TIM_DMA_Cmd(TIMx, TIM_DMA_CCx)) 
1870:App/STM32F4-Discovery/Libraries/STM32F4xx_StdPeriph_Driver/src/stm32f4xx_tim.c ****        
1871:App/STM32F4-Discovery/Libraries/STM32F4xx_StdPeriph_Driver/src/stm32f4xx_tim.c ****        7. Call the TIM_Cmd(ENABLE) function to enable the TIM counter.
1872:App/STM32F4-Discovery/Libraries/STM32F4xx_StdPeriph_Driver/src/stm32f4xx_tim.c ****        
1873:App/STM32F4-Discovery/Libraries/STM32F4xx_StdPeriph_Driver/src/stm32f4xx_tim.c ****        8. Use TIM_GetCapturex(TIMx); to read the captured value.
1874:App/STM32F4-Discovery/Libraries/STM32F4xx_StdPeriph_Driver/src/stm32f4xx_tim.c ****        
1875:App/STM32F4-Discovery/Libraries/STM32F4xx_StdPeriph_Driver/src/stm32f4xx_tim.c ****        Note1: All other functions can be used separately to modify, if needed,
1876:App/STM32F4-Discovery/Libraries/STM32F4xx_StdPeriph_Driver/src/stm32f4xx_tim.c ****               a specific feature of the Timer. 
1877:App/STM32F4-Discovery/Libraries/STM32F4xx_StdPeriph_Driver/src/stm32f4xx_tim.c **** 
1878:App/STM32F4-Discovery/Libraries/STM32F4xx_StdPeriph_Driver/src/stm32f4xx_tim.c **** @endverbatim
1879:App/STM32F4-Discovery/Libraries/STM32F4xx_StdPeriph_Driver/src/stm32f4xx_tim.c ****   * @{
1880:App/STM32F4-Discovery/Libraries/STM32F4xx_StdPeriph_Driver/src/stm32f4xx_tim.c ****   */
1881:App/STM32F4-Discovery/Libraries/STM32F4xx_StdPeriph_Driver/src/stm32f4xx_tim.c **** 
1882:App/STM32F4-Discovery/Libraries/STM32F4xx_StdPeriph_Driver/src/stm32f4xx_tim.c **** /**
1883:App/STM32F4-Discovery/Libraries/STM32F4xx_StdPeriph_Driver/src/stm32f4xx_tim.c ****   * @brief  Initializes the TIM peripheral according to the specified parameters
1884:App/STM32F4-Discovery/Libraries/STM32F4xx_StdPeriph_Driver/src/stm32f4xx_tim.c ****   *         in the TIM_ICInitStruct.
1885:App/STM32F4-Discovery/Libraries/STM32F4xx_StdPeriph_Driver/src/stm32f4xx_tim.c ****   * @param  TIMx: where x can be 1 to 14 except 6 and 7, to select the TIM peripheral.
1886:App/STM32F4-Discovery/Libraries/STM32F4xx_StdPeriph_Driver/src/stm32f4xx_tim.c ****   * @param  TIM_ICInitStruct: pointer to a TIM_ICInitTypeDef structure that contains
1887:App/STM32F4-Discovery/Libraries/STM32F4xx_StdPeriph_Driver/src/stm32f4xx_tim.c ****   *         the configuration information for the specified TIM peripheral.
1888:App/STM32F4-Discovery/Libraries/STM32F4xx_StdPeriph_Driver/src/stm32f4xx_tim.c ****   * @retval None
1889:App/STM32F4-Discovery/Libraries/STM32F4xx_StdPeriph_Driver/src/stm32f4xx_tim.c ****   */
1890:App/STM32F4-Discovery/Libraries/STM32F4xx_StdPeriph_Driver/src/stm32f4xx_tim.c **** void TIM_ICInit(TIM_TypeDef* TIMx, TIM_ICInitTypeDef* TIM_ICInitStruct)
1891:App/STM32F4-Discovery/Libraries/STM32F4xx_StdPeriph_Driver/src/stm32f4xx_tim.c **** {
 6965              		.loc 1 1891 0
 6966              		.cfi_startproc
 6967              		@ args = 0, pretend = 0, frame = 8
 6968              		@ frame_needed = 1, uses_anonymous_args = 0
 6969 0000 80B5     		push	{r7, lr}
 6970              	.LCFI150:
 6971              		.cfi_def_cfa_offset 8
 6972              		.cfi_offset 7, -8
 6973              		.cfi_offset 14, -4
 6974 0002 82B0     		sub	sp, sp, #8
 6975              	.LCFI151:
 6976              		.cfi_def_cfa_offset 16
 6977 0004 00AF     		add	r7, sp, #0
 6978              	.LCFI152:
 6979              		.cfi_def_cfa_register 7
 6980 0006 7860     		str	r0, [r7, #4]
 6981 0008 3960     		str	r1, [r7]
1892:App/STM32F4-Discovery/Libraries/STM32F4xx_StdPeriph_Driver/src/stm32f4xx_tim.c ****   /* Check the parameters */
1893:App/STM32F4-Discovery/Libraries/STM32F4xx_StdPeriph_Driver/src/stm32f4xx_tim.c ****   assert_param(IS_TIM_LIST1_PERIPH(TIMx));
 6982              		.loc 1 1893 0
 6983 000a 7A68     		ldr	r2, [r7, #4]
 6984 000c 904B     		ldr	r3, .L312
 6985 000e 9A42     		cmp	r2, r3
 6986 0010 30D0     		beq	.L300
 6987              		.loc 1 1893 0 is_stmt 0 discriminator 1
 6988 0012 7B68     		ldr	r3, [r7, #4]
 6989 0014 B3F1804F 		cmp	r3, #1073741824
 6990 0018 2CD0     		beq	.L300
 6991 001a 7A68     		ldr	r2, [r7, #4]
 6992 001c 8D4B     		ldr	r3, .L312+4
 6993 001e 9A42     		cmp	r2, r3
 6994 0020 28D0     		beq	.L300
 6995 0022 7A68     		ldr	r2, [r7, #4]
 6996 0024 8C4B     		ldr	r3, .L312+8
 6997 0026 9A42     		cmp	r2, r3
 6998 0028 24D0     		beq	.L300
 6999 002a 7A68     		ldr	r2, [r7, #4]
 7000 002c 8B4B     		ldr	r3, .L312+12
 7001 002e 9A42     		cmp	r2, r3
 7002 0030 20D0     		beq	.L300
 7003 0032 7A68     		ldr	r2, [r7, #4]
 7004 0034 8A4B     		ldr	r3, .L312+16
 7005 0036 9A42     		cmp	r2, r3
 7006 0038 1CD0     		beq	.L300
 7007 003a 7A68     		ldr	r2, [r7, #4]
 7008 003c 894B     		ldr	r3, .L312+20
 7009 003e 9A42     		cmp	r2, r3
 7010 0040 18D0     		beq	.L300
 7011 0042 7A68     		ldr	r2, [r7, #4]
 7012 0044 884B     		ldr	r3, .L312+24
 7013 0046 9A42     		cmp	r2, r3
 7014 0048 14D0     		beq	.L300
 7015 004a 7A68     		ldr	r2, [r7, #4]
 7016 004c 874B     		ldr	r3, .L312+28
 7017 004e 9A42     		cmp	r2, r3
 7018 0050 10D0     		beq	.L300
 7019 0052 7A68     		ldr	r2, [r7, #4]
 7020 0054 864B     		ldr	r3, .L312+32
 7021 0056 9A42     		cmp	r2, r3
 7022 0058 0CD0     		beq	.L300
 7023 005a 7A68     		ldr	r2, [r7, #4]
 7024 005c 854B     		ldr	r3, .L312+36
 7025 005e 9A42     		cmp	r2, r3
 7026 0060 08D0     		beq	.L300
 7027 0062 7A68     		ldr	r2, [r7, #4]
 7028 0064 844B     		ldr	r3, .L312+40
 7029 0066 9A42     		cmp	r2, r3
 7030 0068 04D0     		beq	.L300
 7031 006a 8448     		ldr	r0, .L312+44
 7032 006c 40F26571 		movw	r1, #1893
 7033 0070 FFF7FEFF 		bl	assert_failed
 7034              	.L300:
1894:App/STM32F4-Discovery/Libraries/STM32F4xx_StdPeriph_Driver/src/stm32f4xx_tim.c ****   assert_param(IS_TIM_IC_POLARITY(TIM_ICInitStruct->TIM_ICPolarity));
 7035              		.loc 1 1894 0 is_stmt 1
 7036 0074 3B68     		ldr	r3, [r7]
 7037 0076 5B88     		ldrh	r3, [r3, #2]
 7038 0078 002B     		cmp	r3, #0
 7039 007a 0CD0     		beq	.L301
 7040              		.loc 1 1894 0 is_stmt 0 discriminator 1
 7041 007c 3B68     		ldr	r3, [r7]
 7042 007e 5B88     		ldrh	r3, [r3, #2]
 7043 0080 022B     		cmp	r3, #2
 7044 0082 08D0     		beq	.L301
 7045 0084 3B68     		ldr	r3, [r7]
 7046 0086 5B88     		ldrh	r3, [r3, #2]
 7047 0088 0A2B     		cmp	r3, #10
 7048 008a 04D0     		beq	.L301
 7049 008c 7B48     		ldr	r0, .L312+44
 7050 008e 40F26671 		movw	r1, #1894
 7051 0092 FFF7FEFF 		bl	assert_failed
 7052              	.L301:
1895:App/STM32F4-Discovery/Libraries/STM32F4xx_StdPeriph_Driver/src/stm32f4xx_tim.c ****   assert_param(IS_TIM_IC_SELECTION(TIM_ICInitStruct->TIM_ICSelection));
 7053              		.loc 1 1895 0 is_stmt 1
 7054 0096 3B68     		ldr	r3, [r7]
 7055 0098 9B88     		ldrh	r3, [r3, #4]
 7056 009a 012B     		cmp	r3, #1
 7057 009c 0CD0     		beq	.L302
 7058              		.loc 1 1895 0 is_stmt 0 discriminator 1
 7059 009e 3B68     		ldr	r3, [r7]
 7060 00a0 9B88     		ldrh	r3, [r3, #4]
 7061 00a2 022B     		cmp	r3, #2
 7062 00a4 08D0     		beq	.L302
 7063 00a6 3B68     		ldr	r3, [r7]
 7064 00a8 9B88     		ldrh	r3, [r3, #4]
 7065 00aa 032B     		cmp	r3, #3
 7066 00ac 04D0     		beq	.L302
 7067 00ae 7348     		ldr	r0, .L312+44
 7068 00b0 40F26771 		movw	r1, #1895
 7069 00b4 FFF7FEFF 		bl	assert_failed
 7070              	.L302:
1896:App/STM32F4-Discovery/Libraries/STM32F4xx_StdPeriph_Driver/src/stm32f4xx_tim.c ****   assert_param(IS_TIM_IC_PRESCALER(TIM_ICInitStruct->TIM_ICPrescaler));
 7071              		.loc 1 1896 0 is_stmt 1
 7072 00b8 3B68     		ldr	r3, [r7]
 7073 00ba DB88     		ldrh	r3, [r3, #6]
 7074 00bc 002B     		cmp	r3, #0
 7075 00be 10D0     		beq	.L303
 7076              		.loc 1 1896 0 is_stmt 0 discriminator 1
 7077 00c0 3B68     		ldr	r3, [r7]
 7078 00c2 DB88     		ldrh	r3, [r3, #6]
 7079 00c4 042B     		cmp	r3, #4
 7080 00c6 0CD0     		beq	.L303
 7081 00c8 3B68     		ldr	r3, [r7]
 7082 00ca DB88     		ldrh	r3, [r3, #6]
 7083 00cc 082B     		cmp	r3, #8
 7084 00ce 08D0     		beq	.L303
 7085 00d0 3B68     		ldr	r3, [r7]
 7086 00d2 DB88     		ldrh	r3, [r3, #6]
 7087 00d4 0C2B     		cmp	r3, #12
 7088 00d6 04D0     		beq	.L303
 7089 00d8 6848     		ldr	r0, .L312+44
 7090 00da 4FF4ED61 		mov	r1, #1896
 7091 00de FFF7FEFF 		bl	assert_failed
 7092              	.L303:
1897:App/STM32F4-Discovery/Libraries/STM32F4xx_StdPeriph_Driver/src/stm32f4xx_tim.c ****   assert_param(IS_TIM_IC_FILTER(TIM_ICInitStruct->TIM_ICFilter));
 7093              		.loc 1 1897 0 is_stmt 1
 7094 00e2 3B68     		ldr	r3, [r7]
 7095 00e4 1B89     		ldrh	r3, [r3, #8]
 7096 00e6 0F2B     		cmp	r3, #15
 7097 00e8 04D9     		bls	.L304
 7098              		.loc 1 1897 0 is_stmt 0 discriminator 1
 7099 00ea 6448     		ldr	r0, .L312+44
 7100 00ec 40F26971 		movw	r1, #1897
 7101 00f0 FFF7FEFF 		bl	assert_failed
 7102              	.L304:
1898:App/STM32F4-Discovery/Libraries/STM32F4xx_StdPeriph_Driver/src/stm32f4xx_tim.c ****   
1899:App/STM32F4-Discovery/Libraries/STM32F4xx_StdPeriph_Driver/src/stm32f4xx_tim.c ****   if (TIM_ICInitStruct->TIM_Channel == TIM_Channel_1)
 7103              		.loc 1 1899 0 is_stmt 1
 7104 00f4 3B68     		ldr	r3, [r7]
 7105 00f6 1B88     		ldrh	r3, [r3]
 7106 00f8 002B     		cmp	r3, #0
 7107 00fa 0FD1     		bne	.L305
1900:App/STM32F4-Discovery/Libraries/STM32F4xx_StdPeriph_Driver/src/stm32f4xx_tim.c ****   {
1901:App/STM32F4-Discovery/Libraries/STM32F4xx_StdPeriph_Driver/src/stm32f4xx_tim.c ****     /* TI1 Configuration */
1902:App/STM32F4-Discovery/Libraries/STM32F4xx_StdPeriph_Driver/src/stm32f4xx_tim.c ****     TI1_Config(TIMx, TIM_ICInitStruct->TIM_ICPolarity,
 7108              		.loc 1 1902 0
 7109 00fc 3B68     		ldr	r3, [r7]
 7110 00fe 5988     		ldrh	r1, [r3, #2]
 7111 0100 3B68     		ldr	r3, [r7]
 7112 0102 9A88     		ldrh	r2, [r3, #4]
 7113 0104 3B68     		ldr	r3, [r7]
 7114 0106 1B89     		ldrh	r3, [r3, #8]
 7115 0108 7868     		ldr	r0, [r7, #4]
 7116 010a FFF7FEFF 		bl	TI1_Config
1903:App/STM32F4-Discovery/Libraries/STM32F4xx_StdPeriph_Driver/src/stm32f4xx_tim.c ****                TIM_ICInitStruct->TIM_ICSelection,
1904:App/STM32F4-Discovery/Libraries/STM32F4xx_StdPeriph_Driver/src/stm32f4xx_tim.c ****                TIM_ICInitStruct->TIM_ICFilter);
1905:App/STM32F4-Discovery/Libraries/STM32F4xx_StdPeriph_Driver/src/stm32f4xx_tim.c ****     /* Set the Input Capture Prescaler value */
1906:App/STM32F4-Discovery/Libraries/STM32F4xx_StdPeriph_Driver/src/stm32f4xx_tim.c ****     TIM_SetIC1Prescaler(TIMx, TIM_ICInitStruct->TIM_ICPrescaler);
 7117              		.loc 1 1906 0
 7118 010e 3B68     		ldr	r3, [r7]
 7119 0110 DB88     		ldrh	r3, [r3, #6]
 7120 0112 7868     		ldr	r0, [r7, #4]
 7121 0114 1946     		mov	r1, r3
 7122 0116 FFF7FEFF 		bl	TIM_SetIC1Prescaler
 7123 011a 95E0     		b	.L299
 7124              	.L305:
1907:App/STM32F4-Discovery/Libraries/STM32F4xx_StdPeriph_Driver/src/stm32f4xx_tim.c ****   }
1908:App/STM32F4-Discovery/Libraries/STM32F4xx_StdPeriph_Driver/src/stm32f4xx_tim.c ****   else if (TIM_ICInitStruct->TIM_Channel == TIM_Channel_2)
 7125              		.loc 1 1908 0
 7126 011c 3B68     		ldr	r3, [r7]
 7127 011e 1B88     		ldrh	r3, [r3]
 7128 0120 042B     		cmp	r3, #4
 7129 0122 34D1     		bne	.L307
1909:App/STM32F4-Discovery/Libraries/STM32F4xx_StdPeriph_Driver/src/stm32f4xx_tim.c ****   {
1910:App/STM32F4-Discovery/Libraries/STM32F4xx_StdPeriph_Driver/src/stm32f4xx_tim.c ****     /* TI2 Configuration */
1911:App/STM32F4-Discovery/Libraries/STM32F4xx_StdPeriph_Driver/src/stm32f4xx_tim.c ****     assert_param(IS_TIM_LIST2_PERIPH(TIMx));
 7130              		.loc 1 1911 0
 7131 0124 7A68     		ldr	r2, [r7, #4]
 7132 0126 4A4B     		ldr	r3, .L312
 7133 0128 9A42     		cmp	r2, r3
 7134 012a 20D0     		beq	.L308
 7135              		.loc 1 1911 0 is_stmt 0 discriminator 1
 7136 012c 7B68     		ldr	r3, [r7, #4]
 7137 012e B3F1804F 		cmp	r3, #1073741824
 7138 0132 1CD0     		beq	.L308
 7139 0134 7A68     		ldr	r2, [r7, #4]
 7140 0136 474B     		ldr	r3, .L312+4
 7141 0138 9A42     		cmp	r2, r3
 7142 013a 18D0     		beq	.L308
 7143 013c 7A68     		ldr	r2, [r7, #4]
 7144 013e 464B     		ldr	r3, .L312+8
 7145 0140 9A42     		cmp	r2, r3
 7146 0142 14D0     		beq	.L308
 7147 0144 7A68     		ldr	r2, [r7, #4]
 7148 0146 454B     		ldr	r3, .L312+12
 7149 0148 9A42     		cmp	r2, r3
 7150 014a 10D0     		beq	.L308
 7151 014c 7A68     		ldr	r2, [r7, #4]
 7152 014e 444B     		ldr	r3, .L312+16
 7153 0150 9A42     		cmp	r2, r3
 7154 0152 0CD0     		beq	.L308
 7155 0154 7A68     		ldr	r2, [r7, #4]
 7156 0156 434B     		ldr	r3, .L312+20
 7157 0158 9A42     		cmp	r2, r3
 7158 015a 08D0     		beq	.L308
 7159 015c 7A68     		ldr	r2, [r7, #4]
 7160 015e 444B     		ldr	r3, .L312+32
 7161 0160 9A42     		cmp	r2, r3
 7162 0162 04D0     		beq	.L308
 7163 0164 4548     		ldr	r0, .L312+44
 7164 0166 40F27771 		movw	r1, #1911
 7165 016a FFF7FEFF 		bl	assert_failed
 7166              	.L308:
1912:App/STM32F4-Discovery/Libraries/STM32F4xx_StdPeriph_Driver/src/stm32f4xx_tim.c ****     TI2_Config(TIMx, TIM_ICInitStruct->TIM_ICPolarity,
 7167              		.loc 1 1912 0 is_stmt 1 discriminator 1
 7168 016e 3B68     		ldr	r3, [r7]
 7169 0170 5988     		ldrh	r1, [r3, #2]
 7170 0172 3B68     		ldr	r3, [r7]
 7171 0174 9A88     		ldrh	r2, [r3, #4]
 7172 0176 3B68     		ldr	r3, [r7]
 7173 0178 1B89     		ldrh	r3, [r3, #8]
 7174 017a 7868     		ldr	r0, [r7, #4]
 7175 017c FFF7FEFF 		bl	TI2_Config
1913:App/STM32F4-Discovery/Libraries/STM32F4xx_StdPeriph_Driver/src/stm32f4xx_tim.c ****                TIM_ICInitStruct->TIM_ICSelection,
1914:App/STM32F4-Discovery/Libraries/STM32F4xx_StdPeriph_Driver/src/stm32f4xx_tim.c ****                TIM_ICInitStruct->TIM_ICFilter);
1915:App/STM32F4-Discovery/Libraries/STM32F4xx_StdPeriph_Driver/src/stm32f4xx_tim.c ****     /* Set the Input Capture Prescaler value */
1916:App/STM32F4-Discovery/Libraries/STM32F4xx_StdPeriph_Driver/src/stm32f4xx_tim.c ****     TIM_SetIC2Prescaler(TIMx, TIM_ICInitStruct->TIM_ICPrescaler);
 7176              		.loc 1 1916 0 discriminator 1
 7177 0180 3B68     		ldr	r3, [r7]
 7178 0182 DB88     		ldrh	r3, [r3, #6]
 7179 0184 7868     		ldr	r0, [r7, #4]
 7180 0186 1946     		mov	r1, r3
 7181 0188 FFF7FEFF 		bl	TIM_SetIC2Prescaler
 7182 018c 5CE0     		b	.L299
 7183              	.L307:
1917:App/STM32F4-Discovery/Libraries/STM32F4xx_StdPeriph_Driver/src/stm32f4xx_tim.c ****   }
1918:App/STM32F4-Discovery/Libraries/STM32F4xx_StdPeriph_Driver/src/stm32f4xx_tim.c ****   else if (TIM_ICInitStruct->TIM_Channel == TIM_Channel_3)
 7184              		.loc 1 1918 0
 7185 018e 3B68     		ldr	r3, [r7]
 7186 0190 1B88     		ldrh	r3, [r3]
 7187 0192 082B     		cmp	r3, #8
 7188 0194 2CD1     		bne	.L309
1919:App/STM32F4-Discovery/Libraries/STM32F4xx_StdPeriph_Driver/src/stm32f4xx_tim.c ****   {
1920:App/STM32F4-Discovery/Libraries/STM32F4xx_StdPeriph_Driver/src/stm32f4xx_tim.c ****     /* TI3 Configuration */
1921:App/STM32F4-Discovery/Libraries/STM32F4xx_StdPeriph_Driver/src/stm32f4xx_tim.c ****     assert_param(IS_TIM_LIST3_PERIPH(TIMx));
 7189              		.loc 1 1921 0
 7190 0196 7A68     		ldr	r2, [r7, #4]
 7191 0198 2D4B     		ldr	r3, .L312
 7192 019a 9A42     		cmp	r2, r3
 7193 019c 18D0     		beq	.L310
 7194              		.loc 1 1921 0 is_stmt 0 discriminator 1
 7195 019e 7B68     		ldr	r3, [r7, #4]
 7196 01a0 B3F1804F 		cmp	r3, #1073741824
 7197 01a4 14D0     		beq	.L310
 7198 01a6 7A68     		ldr	r2, [r7, #4]
 7199 01a8 2A4B     		ldr	r3, .L312+4
 7200 01aa 9A42     		cmp	r2, r3
 7201 01ac 10D0     		beq	.L310
 7202 01ae 7A68     		ldr	r2, [r7, #4]
 7203 01b0 294B     		ldr	r3, .L312+8
 7204 01b2 9A42     		cmp	r2, r3
 7205 01b4 0CD0     		beq	.L310
 7206 01b6 7A68     		ldr	r2, [r7, #4]
 7207 01b8 284B     		ldr	r3, .L312+12
 7208 01ba 9A42     		cmp	r2, r3
 7209 01bc 08D0     		beq	.L310
 7210 01be 7A68     		ldr	r2, [r7, #4]
 7211 01c0 274B     		ldr	r3, .L312+16
 7212 01c2 9A42     		cmp	r2, r3
 7213 01c4 04D0     		beq	.L310
 7214 01c6 2D48     		ldr	r0, .L312+44
 7215 01c8 40F28171 		movw	r1, #1921
 7216 01cc FFF7FEFF 		bl	assert_failed
 7217              	.L310:
1922:App/STM32F4-Discovery/Libraries/STM32F4xx_StdPeriph_Driver/src/stm32f4xx_tim.c ****     TI3_Config(TIMx,  TIM_ICInitStruct->TIM_ICPolarity,
 7218              		.loc 1 1922 0 is_stmt 1 discriminator 2
 7219 01d0 3B68     		ldr	r3, [r7]
 7220 01d2 5988     		ldrh	r1, [r3, #2]
 7221 01d4 3B68     		ldr	r3, [r7]
 7222 01d6 9A88     		ldrh	r2, [r3, #4]
 7223 01d8 3B68     		ldr	r3, [r7]
 7224 01da 1B89     		ldrh	r3, [r3, #8]
 7225 01dc 7868     		ldr	r0, [r7, #4]
 7226 01de FFF7FEFF 		bl	TI3_Config
1923:App/STM32F4-Discovery/Libraries/STM32F4xx_StdPeriph_Driver/src/stm32f4xx_tim.c ****                TIM_ICInitStruct->TIM_ICSelection,
1924:App/STM32F4-Discovery/Libraries/STM32F4xx_StdPeriph_Driver/src/stm32f4xx_tim.c ****                TIM_ICInitStruct->TIM_ICFilter);
1925:App/STM32F4-Discovery/Libraries/STM32F4xx_StdPeriph_Driver/src/stm32f4xx_tim.c ****     /* Set the Input Capture Prescaler value */
1926:App/STM32F4-Discovery/Libraries/STM32F4xx_StdPeriph_Driver/src/stm32f4xx_tim.c ****     TIM_SetIC3Prescaler(TIMx, TIM_ICInitStruct->TIM_ICPrescaler);
 7227              		.loc 1 1926 0 discriminator 2
 7228 01e2 3B68     		ldr	r3, [r7]
 7229 01e4 DB88     		ldrh	r3, [r3, #6]
 7230 01e6 7868     		ldr	r0, [r7, #4]
 7231 01e8 1946     		mov	r1, r3
 7232 01ea FFF7FEFF 		bl	TIM_SetIC3Prescaler
 7233 01ee 2BE0     		b	.L299
 7234              	.L309:
1927:App/STM32F4-Discovery/Libraries/STM32F4xx_StdPeriph_Driver/src/stm32f4xx_tim.c ****   }
1928:App/STM32F4-Discovery/Libraries/STM32F4xx_StdPeriph_Driver/src/stm32f4xx_tim.c ****   else
1929:App/STM32F4-Discovery/Libraries/STM32F4xx_StdPeriph_Driver/src/stm32f4xx_tim.c ****   {
1930:App/STM32F4-Discovery/Libraries/STM32F4xx_StdPeriph_Driver/src/stm32f4xx_tim.c ****     /* TI4 Configuration */
1931:App/STM32F4-Discovery/Libraries/STM32F4xx_StdPeriph_Driver/src/stm32f4xx_tim.c ****     assert_param(IS_TIM_LIST3_PERIPH(TIMx));
 7235              		.loc 1 1931 0
 7236 01f0 7A68     		ldr	r2, [r7, #4]
 7237 01f2 174B     		ldr	r3, .L312
 7238 01f4 9A42     		cmp	r2, r3
 7239 01f6 18D0     		beq	.L311
 7240              		.loc 1 1931 0 is_stmt 0 discriminator 1
 7241 01f8 7B68     		ldr	r3, [r7, #4]
 7242 01fa B3F1804F 		cmp	r3, #1073741824
 7243 01fe 14D0     		beq	.L311
 7244 0200 7A68     		ldr	r2, [r7, #4]
 7245 0202 144B     		ldr	r3, .L312+4
 7246 0204 9A42     		cmp	r2, r3
 7247 0206 10D0     		beq	.L311
 7248 0208 7A68     		ldr	r2, [r7, #4]
 7249 020a 134B     		ldr	r3, .L312+8
 7250 020c 9A42     		cmp	r2, r3
 7251 020e 0CD0     		beq	.L311
 7252 0210 7A68     		ldr	r2, [r7, #4]
 7253 0212 124B     		ldr	r3, .L312+12
 7254 0214 9A42     		cmp	r2, r3
 7255 0216 08D0     		beq	.L311
 7256 0218 7A68     		ldr	r2, [r7, #4]
 7257 021a 114B     		ldr	r3, .L312+16
 7258 021c 9A42     		cmp	r2, r3
 7259 021e 04D0     		beq	.L311
 7260 0220 1648     		ldr	r0, .L312+44
 7261 0222 40F28B71 		movw	r1, #1931
 7262 0226 FFF7FEFF 		bl	assert_failed
 7263              	.L311:
1932:App/STM32F4-Discovery/Libraries/STM32F4xx_StdPeriph_Driver/src/stm32f4xx_tim.c ****     TI4_Config(TIMx, TIM_ICInitStruct->TIM_ICPolarity,
 7264              		.loc 1 1932 0 is_stmt 1
 7265 022a 3B68     		ldr	r3, [r7]
 7266 022c 5988     		ldrh	r1, [r3, #2]
 7267 022e 3B68     		ldr	r3, [r7]
 7268 0230 9A88     		ldrh	r2, [r3, #4]
 7269 0232 3B68     		ldr	r3, [r7]
 7270 0234 1B89     		ldrh	r3, [r3, #8]
 7271 0236 7868     		ldr	r0, [r7, #4]
 7272 0238 FFF7FEFF 		bl	TI4_Config
1933:App/STM32F4-Discovery/Libraries/STM32F4xx_StdPeriph_Driver/src/stm32f4xx_tim.c ****                TIM_ICInitStruct->TIM_ICSelection,
1934:App/STM32F4-Discovery/Libraries/STM32F4xx_StdPeriph_Driver/src/stm32f4xx_tim.c ****                TIM_ICInitStruct->TIM_ICFilter);
1935:App/STM32F4-Discovery/Libraries/STM32F4xx_StdPeriph_Driver/src/stm32f4xx_tim.c ****     /* Set the Input Capture Prescaler value */
1936:App/STM32F4-Discovery/Libraries/STM32F4xx_StdPeriph_Driver/src/stm32f4xx_tim.c ****     TIM_SetIC4Prescaler(TIMx, TIM_ICInitStruct->TIM_ICPrescaler);
 7273              		.loc 1 1936 0
 7274 023c 3B68     		ldr	r3, [r7]
 7275 023e DB88     		ldrh	r3, [r3, #6]
 7276 0240 7868     		ldr	r0, [r7, #4]
 7277 0242 1946     		mov	r1, r3
 7278 0244 FFF7FEFF 		bl	TIM_SetIC4Prescaler
 7279              	.L299:
1937:App/STM32F4-Discovery/Libraries/STM32F4xx_StdPeriph_Driver/src/stm32f4xx_tim.c ****   }
1938:App/STM32F4-Discovery/Libraries/STM32F4xx_StdPeriph_Driver/src/stm32f4xx_tim.c **** }
 7280              		.loc 1 1938 0
 7281 0248 0837     		adds	r7, r7, #8
 7282 024a BD46     		mov	sp, r7
 7283              		@ sp needed
 7284 024c 80BD     		pop	{r7, pc}
 7285              	.L313:
 7286 024e 00BF     		.align	2
 7287              	.L312:
 7288 0250 00000140 		.word	1073807360
 7289 0254 00040040 		.word	1073742848
 7290 0258 00080040 		.word	1073743872
 7291 025c 000C0040 		.word	1073744896
 7292 0260 00040140 		.word	1073808384
 7293 0264 00400140 		.word	1073823744
 7294 0268 00440140 		.word	1073824768
 7295 026c 00480140 		.word	1073825792
 7296 0270 00180040 		.word	1073747968
 7297 0274 001C0040 		.word	1073748992
 7298 0278 00200040 		.word	1073750016
 7299 027c 00000000 		.word	.LC0
 7300              		.cfi_endproc
 7301              	.LFE160:
 7303              		.section	.text.TIM_ICStructInit,"ax",%progbits
 7304              		.align	2
 7305              		.global	TIM_ICStructInit
 7306              		.thumb
 7307              		.thumb_func
 7309              	TIM_ICStructInit:
 7310              	.LFB161:
1939:App/STM32F4-Discovery/Libraries/STM32F4xx_StdPeriph_Driver/src/stm32f4xx_tim.c **** 
1940:App/STM32F4-Discovery/Libraries/STM32F4xx_StdPeriph_Driver/src/stm32f4xx_tim.c **** /**
1941:App/STM32F4-Discovery/Libraries/STM32F4xx_StdPeriph_Driver/src/stm32f4xx_tim.c ****   * @brief  Fills each TIM_ICInitStruct member with its default value.
1942:App/STM32F4-Discovery/Libraries/STM32F4xx_StdPeriph_Driver/src/stm32f4xx_tim.c ****   * @param  TIM_ICInitStruct: pointer to a TIM_ICInitTypeDef structure which will
1943:App/STM32F4-Discovery/Libraries/STM32F4xx_StdPeriph_Driver/src/stm32f4xx_tim.c ****   *         be initialized.
1944:App/STM32F4-Discovery/Libraries/STM32F4xx_StdPeriph_Driver/src/stm32f4xx_tim.c ****   * @retval None
1945:App/STM32F4-Discovery/Libraries/STM32F4xx_StdPeriph_Driver/src/stm32f4xx_tim.c ****   */
1946:App/STM32F4-Discovery/Libraries/STM32F4xx_StdPeriph_Driver/src/stm32f4xx_tim.c **** void TIM_ICStructInit(TIM_ICInitTypeDef* TIM_ICInitStruct)
1947:App/STM32F4-Discovery/Libraries/STM32F4xx_StdPeriph_Driver/src/stm32f4xx_tim.c **** {
 7311              		.loc 1 1947 0
 7312              		.cfi_startproc
 7313              		@ args = 0, pretend = 0, frame = 8
 7314              		@ frame_needed = 1, uses_anonymous_args = 0
 7315              		@ link register save eliminated.
 7316 0000 80B4     		push	{r7}
 7317              	.LCFI153:
 7318              		.cfi_def_cfa_offset 4
 7319              		.cfi_offset 7, -4
 7320 0002 83B0     		sub	sp, sp, #12
 7321              	.LCFI154:
 7322              		.cfi_def_cfa_offset 16
 7323 0004 00AF     		add	r7, sp, #0
 7324              	.LCFI155:
 7325              		.cfi_def_cfa_register 7
 7326 0006 7860     		str	r0, [r7, #4]
1948:App/STM32F4-Discovery/Libraries/STM32F4xx_StdPeriph_Driver/src/stm32f4xx_tim.c ****   /* Set the default configuration */
1949:App/STM32F4-Discovery/Libraries/STM32F4xx_StdPeriph_Driver/src/stm32f4xx_tim.c ****   TIM_ICInitStruct->TIM_Channel = TIM_Channel_1;
 7327              		.loc 1 1949 0
 7328 0008 7B68     		ldr	r3, [r7, #4]
 7329 000a 0022     		movs	r2, #0
 7330 000c 1A80     		strh	r2, [r3]	@ movhi
1950:App/STM32F4-Discovery/Libraries/STM32F4xx_StdPeriph_Driver/src/stm32f4xx_tim.c ****   TIM_ICInitStruct->TIM_ICPolarity = TIM_ICPolarity_Rising;
 7331              		.loc 1 1950 0
 7332 000e 7B68     		ldr	r3, [r7, #4]
 7333 0010 0022     		movs	r2, #0
 7334 0012 5A80     		strh	r2, [r3, #2]	@ movhi
1951:App/STM32F4-Discovery/Libraries/STM32F4xx_StdPeriph_Driver/src/stm32f4xx_tim.c ****   TIM_ICInitStruct->TIM_ICSelection = TIM_ICSelection_DirectTI;
 7335              		.loc 1 1951 0
 7336 0014 7B68     		ldr	r3, [r7, #4]
 7337 0016 0122     		movs	r2, #1
 7338 0018 9A80     		strh	r2, [r3, #4]	@ movhi
1952:App/STM32F4-Discovery/Libraries/STM32F4xx_StdPeriph_Driver/src/stm32f4xx_tim.c ****   TIM_ICInitStruct->TIM_ICPrescaler = TIM_ICPSC_DIV1;
 7339              		.loc 1 1952 0
 7340 001a 7B68     		ldr	r3, [r7, #4]
 7341 001c 0022     		movs	r2, #0
 7342 001e DA80     		strh	r2, [r3, #6]	@ movhi
1953:App/STM32F4-Discovery/Libraries/STM32F4xx_StdPeriph_Driver/src/stm32f4xx_tim.c ****   TIM_ICInitStruct->TIM_ICFilter = 0x00;
 7343              		.loc 1 1953 0
 7344 0020 7B68     		ldr	r3, [r7, #4]
 7345 0022 0022     		movs	r2, #0
 7346 0024 1A81     		strh	r2, [r3, #8]	@ movhi
1954:App/STM32F4-Discovery/Libraries/STM32F4xx_StdPeriph_Driver/src/stm32f4xx_tim.c **** }
 7347              		.loc 1 1954 0
 7348 0026 0C37     		adds	r7, r7, #12
 7349 0028 BD46     		mov	sp, r7
 7350              		@ sp needed
 7351 002a 5DF8047B 		ldr	r7, [sp], #4
 7352 002e 7047     		bx	lr
 7353              		.cfi_endproc
 7354              	.LFE161:
 7356              		.section	.text.TIM_PWMIConfig,"ax",%progbits
 7357              		.align	2
 7358              		.global	TIM_PWMIConfig
 7359              		.thumb
 7360              		.thumb_func
 7362              	TIM_PWMIConfig:
 7363              	.LFB162:
1955:App/STM32F4-Discovery/Libraries/STM32F4xx_StdPeriph_Driver/src/stm32f4xx_tim.c **** 
1956:App/STM32F4-Discovery/Libraries/STM32F4xx_StdPeriph_Driver/src/stm32f4xx_tim.c **** /**
1957:App/STM32F4-Discovery/Libraries/STM32F4xx_StdPeriph_Driver/src/stm32f4xx_tim.c ****   * @brief  Configures the TIM peripheral according to the specified parameters
1958:App/STM32F4-Discovery/Libraries/STM32F4xx_StdPeriph_Driver/src/stm32f4xx_tim.c ****   *         in the TIM_ICInitStruct to measure an external PWM signal.
1959:App/STM32F4-Discovery/Libraries/STM32F4xx_StdPeriph_Driver/src/stm32f4xx_tim.c ****   * @param  TIMx: where x can be  1, 2, 3, 4, 5,8, 9 or 12 to select the TIM 
1960:App/STM32F4-Discovery/Libraries/STM32F4xx_StdPeriph_Driver/src/stm32f4xx_tim.c ****   *         peripheral.
1961:App/STM32F4-Discovery/Libraries/STM32F4xx_StdPeriph_Driver/src/stm32f4xx_tim.c ****   * @param  TIM_ICInitStruct: pointer to a TIM_ICInitTypeDef structure that contains
1962:App/STM32F4-Discovery/Libraries/STM32F4xx_StdPeriph_Driver/src/stm32f4xx_tim.c ****   *         the configuration information for the specified TIM peripheral.
1963:App/STM32F4-Discovery/Libraries/STM32F4xx_StdPeriph_Driver/src/stm32f4xx_tim.c ****   * @retval None
1964:App/STM32F4-Discovery/Libraries/STM32F4xx_StdPeriph_Driver/src/stm32f4xx_tim.c ****   */
1965:App/STM32F4-Discovery/Libraries/STM32F4xx_StdPeriph_Driver/src/stm32f4xx_tim.c **** void TIM_PWMIConfig(TIM_TypeDef* TIMx, TIM_ICInitTypeDef* TIM_ICInitStruct)
1966:App/STM32F4-Discovery/Libraries/STM32F4xx_StdPeriph_Driver/src/stm32f4xx_tim.c **** {
 7364              		.loc 1 1966 0
 7365              		.cfi_startproc
 7366              		@ args = 0, pretend = 0, frame = 16
 7367              		@ frame_needed = 1, uses_anonymous_args = 0
 7368 0000 80B5     		push	{r7, lr}
 7369              	.LCFI156:
 7370              		.cfi_def_cfa_offset 8
 7371              		.cfi_offset 7, -8
 7372              		.cfi_offset 14, -4
 7373 0002 84B0     		sub	sp, sp, #16
 7374              	.LCFI157:
 7375              		.cfi_def_cfa_offset 24
 7376 0004 00AF     		add	r7, sp, #0
 7377              	.LCFI158:
 7378              		.cfi_def_cfa_register 7
 7379 0006 7860     		str	r0, [r7, #4]
 7380 0008 3960     		str	r1, [r7]
1967:App/STM32F4-Discovery/Libraries/STM32F4xx_StdPeriph_Driver/src/stm32f4xx_tim.c ****   uint16_t icoppositepolarity = TIM_ICPolarity_Rising;
 7381              		.loc 1 1967 0
 7382 000a 0023     		movs	r3, #0
 7383 000c FB81     		strh	r3, [r7, #14]	@ movhi
1968:App/STM32F4-Discovery/Libraries/STM32F4xx_StdPeriph_Driver/src/stm32f4xx_tim.c ****   uint16_t icoppositeselection = TIM_ICSelection_DirectTI;
 7384              		.loc 1 1968 0
 7385 000e 0123     		movs	r3, #1
 7386 0010 BB81     		strh	r3, [r7, #12]	@ movhi
1969:App/STM32F4-Discovery/Libraries/STM32F4xx_StdPeriph_Driver/src/stm32f4xx_tim.c **** 
1970:App/STM32F4-Discovery/Libraries/STM32F4xx_StdPeriph_Driver/src/stm32f4xx_tim.c ****   /* Check the parameters */
1971:App/STM32F4-Discovery/Libraries/STM32F4xx_StdPeriph_Driver/src/stm32f4xx_tim.c ****   assert_param(IS_TIM_LIST2_PERIPH(TIMx));
 7387              		.loc 1 1971 0
 7388 0012 7A68     		ldr	r2, [r7, #4]
 7389 0014 3A4B     		ldr	r3, .L323
 7390 0016 9A42     		cmp	r2, r3
 7391 0018 20D0     		beq	.L316
 7392              		.loc 1 1971 0 is_stmt 0 discriminator 1
 7393 001a 7B68     		ldr	r3, [r7, #4]
 7394 001c B3F1804F 		cmp	r3, #1073741824
 7395 0020 1CD0     		beq	.L316
 7396 0022 7A68     		ldr	r2, [r7, #4]
 7397 0024 374B     		ldr	r3, .L323+4
 7398 0026 9A42     		cmp	r2, r3
 7399 0028 18D0     		beq	.L316
 7400 002a 7A68     		ldr	r2, [r7, #4]
 7401 002c 364B     		ldr	r3, .L323+8
 7402 002e 9A42     		cmp	r2, r3
 7403 0030 14D0     		beq	.L316
 7404 0032 7A68     		ldr	r2, [r7, #4]
 7405 0034 354B     		ldr	r3, .L323+12
 7406 0036 9A42     		cmp	r2, r3
 7407 0038 10D0     		beq	.L316
 7408 003a 7A68     		ldr	r2, [r7, #4]
 7409 003c 344B     		ldr	r3, .L323+16
 7410 003e 9A42     		cmp	r2, r3
 7411 0040 0CD0     		beq	.L316
 7412 0042 7A68     		ldr	r2, [r7, #4]
 7413 0044 334B     		ldr	r3, .L323+20
 7414 0046 9A42     		cmp	r2, r3
 7415 0048 08D0     		beq	.L316
 7416 004a 7A68     		ldr	r2, [r7, #4]
 7417 004c 324B     		ldr	r3, .L323+24
 7418 004e 9A42     		cmp	r2, r3
 7419 0050 04D0     		beq	.L316
 7420 0052 3248     		ldr	r0, .L323+28
 7421 0054 40F2B371 		movw	r1, #1971
 7422 0058 FFF7FEFF 		bl	assert_failed
 7423              	.L316:
1972:App/STM32F4-Discovery/Libraries/STM32F4xx_StdPeriph_Driver/src/stm32f4xx_tim.c **** 
1973:App/STM32F4-Discovery/Libraries/STM32F4xx_StdPeriph_Driver/src/stm32f4xx_tim.c ****   /* Select the Opposite Input Polarity */
1974:App/STM32F4-Discovery/Libraries/STM32F4xx_StdPeriph_Driver/src/stm32f4xx_tim.c ****   if (TIM_ICInitStruct->TIM_ICPolarity == TIM_ICPolarity_Rising)
 7424              		.loc 1 1974 0 is_stmt 1
 7425 005c 3B68     		ldr	r3, [r7]
 7426 005e 5B88     		ldrh	r3, [r3, #2]
 7427 0060 002B     		cmp	r3, #0
 7428 0062 02D1     		bne	.L317
1975:App/STM32F4-Discovery/Libraries/STM32F4xx_StdPeriph_Driver/src/stm32f4xx_tim.c ****   {
1976:App/STM32F4-Discovery/Libraries/STM32F4xx_StdPeriph_Driver/src/stm32f4xx_tim.c ****     icoppositepolarity = TIM_ICPolarity_Falling;
 7429              		.loc 1 1976 0
 7430 0064 0223     		movs	r3, #2
 7431 0066 FB81     		strh	r3, [r7, #14]	@ movhi
 7432 0068 01E0     		b	.L318
 7433              	.L317:
1977:App/STM32F4-Discovery/Libraries/STM32F4xx_StdPeriph_Driver/src/stm32f4xx_tim.c ****   }
1978:App/STM32F4-Discovery/Libraries/STM32F4xx_StdPeriph_Driver/src/stm32f4xx_tim.c ****   else
1979:App/STM32F4-Discovery/Libraries/STM32F4xx_StdPeriph_Driver/src/stm32f4xx_tim.c ****   {
1980:App/STM32F4-Discovery/Libraries/STM32F4xx_StdPeriph_Driver/src/stm32f4xx_tim.c ****     icoppositepolarity = TIM_ICPolarity_Rising;
 7434              		.loc 1 1980 0
 7435 006a 0023     		movs	r3, #0
 7436 006c FB81     		strh	r3, [r7, #14]	@ movhi
 7437              	.L318:
1981:App/STM32F4-Discovery/Libraries/STM32F4xx_StdPeriph_Driver/src/stm32f4xx_tim.c ****   }
1982:App/STM32F4-Discovery/Libraries/STM32F4xx_StdPeriph_Driver/src/stm32f4xx_tim.c ****   /* Select the Opposite Input */
1983:App/STM32F4-Discovery/Libraries/STM32F4xx_StdPeriph_Driver/src/stm32f4xx_tim.c ****   if (TIM_ICInitStruct->TIM_ICSelection == TIM_ICSelection_DirectTI)
 7438              		.loc 1 1983 0
 7439 006e 3B68     		ldr	r3, [r7]
 7440 0070 9B88     		ldrh	r3, [r3, #4]
 7441 0072 012B     		cmp	r3, #1
 7442 0074 02D1     		bne	.L319
1984:App/STM32F4-Discovery/Libraries/STM32F4xx_StdPeriph_Driver/src/stm32f4xx_tim.c ****   {
1985:App/STM32F4-Discovery/Libraries/STM32F4xx_StdPeriph_Driver/src/stm32f4xx_tim.c ****     icoppositeselection = TIM_ICSelection_IndirectTI;
 7443              		.loc 1 1985 0
 7444 0076 0223     		movs	r3, #2
 7445 0078 BB81     		strh	r3, [r7, #12]	@ movhi
 7446 007a 01E0     		b	.L320
 7447              	.L319:
1986:App/STM32F4-Discovery/Libraries/STM32F4xx_StdPeriph_Driver/src/stm32f4xx_tim.c ****   }
1987:App/STM32F4-Discovery/Libraries/STM32F4xx_StdPeriph_Driver/src/stm32f4xx_tim.c ****   else
1988:App/STM32F4-Discovery/Libraries/STM32F4xx_StdPeriph_Driver/src/stm32f4xx_tim.c ****   {
1989:App/STM32F4-Discovery/Libraries/STM32F4xx_StdPeriph_Driver/src/stm32f4xx_tim.c ****     icoppositeselection = TIM_ICSelection_DirectTI;
 7448              		.loc 1 1989 0
 7449 007c 0123     		movs	r3, #1
 7450 007e BB81     		strh	r3, [r7, #12]	@ movhi
 7451              	.L320:
1990:App/STM32F4-Discovery/Libraries/STM32F4xx_StdPeriph_Driver/src/stm32f4xx_tim.c ****   }
1991:App/STM32F4-Discovery/Libraries/STM32F4xx_StdPeriph_Driver/src/stm32f4xx_tim.c ****   if (TIM_ICInitStruct->TIM_Channel == TIM_Channel_1)
 7452              		.loc 1 1991 0
 7453 0080 3B68     		ldr	r3, [r7]
 7454 0082 1B88     		ldrh	r3, [r3]
 7455 0084 002B     		cmp	r3, #0
 7456 0086 1CD1     		bne	.L321
1992:App/STM32F4-Discovery/Libraries/STM32F4xx_StdPeriph_Driver/src/stm32f4xx_tim.c ****   {
1993:App/STM32F4-Discovery/Libraries/STM32F4xx_StdPeriph_Driver/src/stm32f4xx_tim.c ****     /* TI1 Configuration */
1994:App/STM32F4-Discovery/Libraries/STM32F4xx_StdPeriph_Driver/src/stm32f4xx_tim.c ****     TI1_Config(TIMx, TIM_ICInitStruct->TIM_ICPolarity, TIM_ICInitStruct->TIM_ICSelection,
 7457              		.loc 1 1994 0
 7458 0088 3B68     		ldr	r3, [r7]
 7459 008a 5988     		ldrh	r1, [r3, #2]
 7460 008c 3B68     		ldr	r3, [r7]
 7461 008e 9A88     		ldrh	r2, [r3, #4]
 7462 0090 3B68     		ldr	r3, [r7]
 7463 0092 1B89     		ldrh	r3, [r3, #8]
 7464 0094 7868     		ldr	r0, [r7, #4]
 7465 0096 FFF7FEFF 		bl	TI1_Config
1995:App/STM32F4-Discovery/Libraries/STM32F4xx_StdPeriph_Driver/src/stm32f4xx_tim.c ****                TIM_ICInitStruct->TIM_ICFilter);
1996:App/STM32F4-Discovery/Libraries/STM32F4xx_StdPeriph_Driver/src/stm32f4xx_tim.c ****     /* Set the Input Capture Prescaler value */
1997:App/STM32F4-Discovery/Libraries/STM32F4xx_StdPeriph_Driver/src/stm32f4xx_tim.c ****     TIM_SetIC1Prescaler(TIMx, TIM_ICInitStruct->TIM_ICPrescaler);
 7466              		.loc 1 1997 0
 7467 009a 3B68     		ldr	r3, [r7]
 7468 009c DB88     		ldrh	r3, [r3, #6]
 7469 009e 7868     		ldr	r0, [r7, #4]
 7470 00a0 1946     		mov	r1, r3
 7471 00a2 FFF7FEFF 		bl	TIM_SetIC1Prescaler
1998:App/STM32F4-Discovery/Libraries/STM32F4xx_StdPeriph_Driver/src/stm32f4xx_tim.c ****     /* TI2 Configuration */
1999:App/STM32F4-Discovery/Libraries/STM32F4xx_StdPeriph_Driver/src/stm32f4xx_tim.c ****     TI2_Config(TIMx, icoppositepolarity, icoppositeselection, TIM_ICInitStruct->TIM_ICFilter);
 7472              		.loc 1 1999 0
 7473 00a6 3B68     		ldr	r3, [r7]
 7474 00a8 1B89     		ldrh	r3, [r3, #8]
 7475 00aa F989     		ldrh	r1, [r7, #14]
 7476 00ac BA89     		ldrh	r2, [r7, #12]
 7477 00ae 7868     		ldr	r0, [r7, #4]
 7478 00b0 FFF7FEFF 		bl	TI2_Config
2000:App/STM32F4-Discovery/Libraries/STM32F4xx_StdPeriph_Driver/src/stm32f4xx_tim.c ****     /* Set the Input Capture Prescaler value */
2001:App/STM32F4-Discovery/Libraries/STM32F4xx_StdPeriph_Driver/src/stm32f4xx_tim.c ****     TIM_SetIC2Prescaler(TIMx, TIM_ICInitStruct->TIM_ICPrescaler);
 7479              		.loc 1 2001 0
 7480 00b4 3B68     		ldr	r3, [r7]
 7481 00b6 DB88     		ldrh	r3, [r3, #6]
 7482 00b8 7868     		ldr	r0, [r7, #4]
 7483 00ba 1946     		mov	r1, r3
 7484 00bc FFF7FEFF 		bl	TIM_SetIC2Prescaler
 7485 00c0 1BE0     		b	.L315
 7486              	.L321:
2002:App/STM32F4-Discovery/Libraries/STM32F4xx_StdPeriph_Driver/src/stm32f4xx_tim.c ****   }
2003:App/STM32F4-Discovery/Libraries/STM32F4xx_StdPeriph_Driver/src/stm32f4xx_tim.c ****   else
2004:App/STM32F4-Discovery/Libraries/STM32F4xx_StdPeriph_Driver/src/stm32f4xx_tim.c ****   { 
2005:App/STM32F4-Discovery/Libraries/STM32F4xx_StdPeriph_Driver/src/stm32f4xx_tim.c ****     /* TI2 Configuration */
2006:App/STM32F4-Discovery/Libraries/STM32F4xx_StdPeriph_Driver/src/stm32f4xx_tim.c ****     TI2_Config(TIMx, TIM_ICInitStruct->TIM_ICPolarity, TIM_ICInitStruct->TIM_ICSelection,
 7487              		.loc 1 2006 0
 7488 00c2 3B68     		ldr	r3, [r7]
 7489 00c4 5988     		ldrh	r1, [r3, #2]
 7490 00c6 3B68     		ldr	r3, [r7]
 7491 00c8 9A88     		ldrh	r2, [r3, #4]
 7492 00ca 3B68     		ldr	r3, [r7]
 7493 00cc 1B89     		ldrh	r3, [r3, #8]
 7494 00ce 7868     		ldr	r0, [r7, #4]
 7495 00d0 FFF7FEFF 		bl	TI2_Config
2007:App/STM32F4-Discovery/Libraries/STM32F4xx_StdPeriph_Driver/src/stm32f4xx_tim.c ****                TIM_ICInitStruct->TIM_ICFilter);
2008:App/STM32F4-Discovery/Libraries/STM32F4xx_StdPeriph_Driver/src/stm32f4xx_tim.c ****     /* Set the Input Capture Prescaler value */
2009:App/STM32F4-Discovery/Libraries/STM32F4xx_StdPeriph_Driver/src/stm32f4xx_tim.c ****     TIM_SetIC2Prescaler(TIMx, TIM_ICInitStruct->TIM_ICPrescaler);
 7496              		.loc 1 2009 0
 7497 00d4 3B68     		ldr	r3, [r7]
 7498 00d6 DB88     		ldrh	r3, [r3, #6]
 7499 00d8 7868     		ldr	r0, [r7, #4]
 7500 00da 1946     		mov	r1, r3
 7501 00dc FFF7FEFF 		bl	TIM_SetIC2Prescaler
2010:App/STM32F4-Discovery/Libraries/STM32F4xx_StdPeriph_Driver/src/stm32f4xx_tim.c ****     /* TI1 Configuration */
2011:App/STM32F4-Discovery/Libraries/STM32F4xx_StdPeriph_Driver/src/stm32f4xx_tim.c ****     TI1_Config(TIMx, icoppositepolarity, icoppositeselection, TIM_ICInitStruct->TIM_ICFilter);
 7502              		.loc 1 2011 0
 7503 00e0 3B68     		ldr	r3, [r7]
 7504 00e2 1B89     		ldrh	r3, [r3, #8]
 7505 00e4 F989     		ldrh	r1, [r7, #14]
 7506 00e6 BA89     		ldrh	r2, [r7, #12]
 7507 00e8 7868     		ldr	r0, [r7, #4]
 7508 00ea FFF7FEFF 		bl	TI1_Config
2012:App/STM32F4-Discovery/Libraries/STM32F4xx_StdPeriph_Driver/src/stm32f4xx_tim.c ****     /* Set the Input Capture Prescaler value */
2013:App/STM32F4-Discovery/Libraries/STM32F4xx_StdPeriph_Driver/src/stm32f4xx_tim.c ****     TIM_SetIC1Prescaler(TIMx, TIM_ICInitStruct->TIM_ICPrescaler);
 7509              		.loc 1 2013 0
 7510 00ee 3B68     		ldr	r3, [r7]
 7511 00f0 DB88     		ldrh	r3, [r3, #6]
 7512 00f2 7868     		ldr	r0, [r7, #4]
 7513 00f4 1946     		mov	r1, r3
 7514 00f6 FFF7FEFF 		bl	TIM_SetIC1Prescaler
 7515              	.L315:
2014:App/STM32F4-Discovery/Libraries/STM32F4xx_StdPeriph_Driver/src/stm32f4xx_tim.c ****   }
2015:App/STM32F4-Discovery/Libraries/STM32F4xx_StdPeriph_Driver/src/stm32f4xx_tim.c **** }
 7516              		.loc 1 2015 0
 7517 00fa 1037     		adds	r7, r7, #16
 7518 00fc BD46     		mov	sp, r7
 7519              		@ sp needed
 7520 00fe 80BD     		pop	{r7, pc}
 7521              	.L324:
 7522              		.align	2
 7523              	.L323:
 7524 0100 00000140 		.word	1073807360
 7525 0104 00040040 		.word	1073742848
 7526 0108 00080040 		.word	1073743872
 7527 010c 000C0040 		.word	1073744896
 7528 0110 00040140 		.word	1073808384
 7529 0114 00400140 		.word	1073823744
 7530 0118 00180040 		.word	1073747968
 7531 011c 00000000 		.word	.LC0
 7532              		.cfi_endproc
 7533              	.LFE162:
 7535              		.section	.text.TIM_GetCapture1,"ax",%progbits
 7536              		.align	2
 7537              		.global	TIM_GetCapture1
 7538              		.thumb
 7539              		.thumb_func
 7541              	TIM_GetCapture1:
 7542              	.LFB163:
2016:App/STM32F4-Discovery/Libraries/STM32F4xx_StdPeriph_Driver/src/stm32f4xx_tim.c **** 
2017:App/STM32F4-Discovery/Libraries/STM32F4xx_StdPeriph_Driver/src/stm32f4xx_tim.c **** /**
2018:App/STM32F4-Discovery/Libraries/STM32F4xx_StdPeriph_Driver/src/stm32f4xx_tim.c ****   * @brief  Gets the TIMx Input Capture 1 value.
2019:App/STM32F4-Discovery/Libraries/STM32F4xx_StdPeriph_Driver/src/stm32f4xx_tim.c ****   * @param  TIMx: where x can be 1 to 14 except 6 and 7, to select the TIM peripheral.
2020:App/STM32F4-Discovery/Libraries/STM32F4xx_StdPeriph_Driver/src/stm32f4xx_tim.c ****   * @retval Capture Compare 1 Register value.
2021:App/STM32F4-Discovery/Libraries/STM32F4xx_StdPeriph_Driver/src/stm32f4xx_tim.c ****   */
2022:App/STM32F4-Discovery/Libraries/STM32F4xx_StdPeriph_Driver/src/stm32f4xx_tim.c **** uint32_t TIM_GetCapture1(TIM_TypeDef* TIMx)
2023:App/STM32F4-Discovery/Libraries/STM32F4xx_StdPeriph_Driver/src/stm32f4xx_tim.c **** {
 7543              		.loc 1 2023 0
 7544              		.cfi_startproc
 7545              		@ args = 0, pretend = 0, frame = 8
 7546              		@ frame_needed = 1, uses_anonymous_args = 0
 7547 0000 80B5     		push	{r7, lr}
 7548              	.LCFI159:
 7549              		.cfi_def_cfa_offset 8
 7550              		.cfi_offset 7, -8
 7551              		.cfi_offset 14, -4
 7552 0002 82B0     		sub	sp, sp, #8
 7553              	.LCFI160:
 7554              		.cfi_def_cfa_offset 16
 7555 0004 00AF     		add	r7, sp, #0
 7556              	.LCFI161:
 7557              		.cfi_def_cfa_register 7
 7558 0006 7860     		str	r0, [r7, #4]
2024:App/STM32F4-Discovery/Libraries/STM32F4xx_StdPeriph_Driver/src/stm32f4xx_tim.c ****   /* Check the parameters */
2025:App/STM32F4-Discovery/Libraries/STM32F4xx_StdPeriph_Driver/src/stm32f4xx_tim.c ****   assert_param(IS_TIM_LIST1_PERIPH(TIMx));
 7559              		.loc 1 2025 0
 7560 0008 7A68     		ldr	r2, [r7, #4]
 7561 000a 1D4B     		ldr	r3, .L328
 7562 000c 9A42     		cmp	r2, r3
 7563 000e 30D0     		beq	.L326
 7564              		.loc 1 2025 0 is_stmt 0 discriminator 1
 7565 0010 7B68     		ldr	r3, [r7, #4]
 7566 0012 B3F1804F 		cmp	r3, #1073741824
 7567 0016 2CD0     		beq	.L326
 7568 0018 7A68     		ldr	r2, [r7, #4]
 7569 001a 1A4B     		ldr	r3, .L328+4
 7570 001c 9A42     		cmp	r2, r3
 7571 001e 28D0     		beq	.L326
 7572 0020 7A68     		ldr	r2, [r7, #4]
 7573 0022 194B     		ldr	r3, .L328+8
 7574 0024 9A42     		cmp	r2, r3
 7575 0026 24D0     		beq	.L326
 7576 0028 7A68     		ldr	r2, [r7, #4]
 7577 002a 184B     		ldr	r3, .L328+12
 7578 002c 9A42     		cmp	r2, r3
 7579 002e 20D0     		beq	.L326
 7580 0030 7A68     		ldr	r2, [r7, #4]
 7581 0032 174B     		ldr	r3, .L328+16
 7582 0034 9A42     		cmp	r2, r3
 7583 0036 1CD0     		beq	.L326
 7584 0038 7A68     		ldr	r2, [r7, #4]
 7585 003a 164B     		ldr	r3, .L328+20
 7586 003c 9A42     		cmp	r2, r3
 7587 003e 18D0     		beq	.L326
 7588 0040 7A68     		ldr	r2, [r7, #4]
 7589 0042 154B     		ldr	r3, .L328+24
 7590 0044 9A42     		cmp	r2, r3
 7591 0046 14D0     		beq	.L326
 7592 0048 7A68     		ldr	r2, [r7, #4]
 7593 004a 144B     		ldr	r3, .L328+28
 7594 004c 9A42     		cmp	r2, r3
 7595 004e 10D0     		beq	.L326
 7596 0050 7A68     		ldr	r2, [r7, #4]
 7597 0052 134B     		ldr	r3, .L328+32
 7598 0054 9A42     		cmp	r2, r3
 7599 0056 0CD0     		beq	.L326
 7600 0058 7A68     		ldr	r2, [r7, #4]
 7601 005a 124B     		ldr	r3, .L328+36
 7602 005c 9A42     		cmp	r2, r3
 7603 005e 08D0     		beq	.L326
 7604 0060 7A68     		ldr	r2, [r7, #4]
 7605 0062 114B     		ldr	r3, .L328+40
 7606 0064 9A42     		cmp	r2, r3
 7607 0066 04D0     		beq	.L326
 7608 0068 1048     		ldr	r0, .L328+44
 7609 006a 40F2E971 		movw	r1, #2025
 7610 006e FFF7FEFF 		bl	assert_failed
 7611              	.L326:
2026:App/STM32F4-Discovery/Libraries/STM32F4xx_StdPeriph_Driver/src/stm32f4xx_tim.c **** 
2027:App/STM32F4-Discovery/Libraries/STM32F4xx_StdPeriph_Driver/src/stm32f4xx_tim.c ****   /* Get the Capture 1 Register value */
2028:App/STM32F4-Discovery/Libraries/STM32F4xx_StdPeriph_Driver/src/stm32f4xx_tim.c ****   return TIMx->CCR1;
 7612              		.loc 1 2028 0 is_stmt 1
 7613 0072 7B68     		ldr	r3, [r7, #4]
 7614 0074 5B6B     		ldr	r3, [r3, #52]
2029:App/STM32F4-Discovery/Libraries/STM32F4xx_StdPeriph_Driver/src/stm32f4xx_tim.c **** }
 7615              		.loc 1 2029 0
 7616 0076 1846     		mov	r0, r3
 7617 0078 0837     		adds	r7, r7, #8
 7618 007a BD46     		mov	sp, r7
 7619              		@ sp needed
 7620 007c 80BD     		pop	{r7, pc}
 7621              	.L329:
 7622 007e 00BF     		.align	2
 7623              	.L328:
 7624 0080 00000140 		.word	1073807360
 7625 0084 00040040 		.word	1073742848
 7626 0088 00080040 		.word	1073743872
 7627 008c 000C0040 		.word	1073744896
 7628 0090 00040140 		.word	1073808384
 7629 0094 00400140 		.word	1073823744
 7630 0098 00440140 		.word	1073824768
 7631 009c 00480140 		.word	1073825792
 7632 00a0 00180040 		.word	1073747968
 7633 00a4 001C0040 		.word	1073748992
 7634 00a8 00200040 		.word	1073750016
 7635 00ac 00000000 		.word	.LC0
 7636              		.cfi_endproc
 7637              	.LFE163:
 7639              		.section	.text.TIM_GetCapture2,"ax",%progbits
 7640              		.align	2
 7641              		.global	TIM_GetCapture2
 7642              		.thumb
 7643              		.thumb_func
 7645              	TIM_GetCapture2:
 7646              	.LFB164:
2030:App/STM32F4-Discovery/Libraries/STM32F4xx_StdPeriph_Driver/src/stm32f4xx_tim.c **** 
2031:App/STM32F4-Discovery/Libraries/STM32F4xx_StdPeriph_Driver/src/stm32f4xx_tim.c **** /**
2032:App/STM32F4-Discovery/Libraries/STM32F4xx_StdPeriph_Driver/src/stm32f4xx_tim.c ****   * @brief  Gets the TIMx Input Capture 2 value.
2033:App/STM32F4-Discovery/Libraries/STM32F4xx_StdPeriph_Driver/src/stm32f4xx_tim.c ****   * @param  TIMx: where x can be 1, 2, 3, 4, 5, 8, 9 or 12 to select the TIM 
2034:App/STM32F4-Discovery/Libraries/STM32F4xx_StdPeriph_Driver/src/stm32f4xx_tim.c ****   *         peripheral.
2035:App/STM32F4-Discovery/Libraries/STM32F4xx_StdPeriph_Driver/src/stm32f4xx_tim.c ****   * @retval Capture Compare 2 Register value.
2036:App/STM32F4-Discovery/Libraries/STM32F4xx_StdPeriph_Driver/src/stm32f4xx_tim.c ****   */
2037:App/STM32F4-Discovery/Libraries/STM32F4xx_StdPeriph_Driver/src/stm32f4xx_tim.c **** uint32_t TIM_GetCapture2(TIM_TypeDef* TIMx)
2038:App/STM32F4-Discovery/Libraries/STM32F4xx_StdPeriph_Driver/src/stm32f4xx_tim.c **** {
 7647              		.loc 1 2038 0
 7648              		.cfi_startproc
 7649              		@ args = 0, pretend = 0, frame = 8
 7650              		@ frame_needed = 1, uses_anonymous_args = 0
 7651 0000 80B5     		push	{r7, lr}
 7652              	.LCFI162:
 7653              		.cfi_def_cfa_offset 8
 7654              		.cfi_offset 7, -8
 7655              		.cfi_offset 14, -4
 7656 0002 82B0     		sub	sp, sp, #8
 7657              	.LCFI163:
 7658              		.cfi_def_cfa_offset 16
 7659 0004 00AF     		add	r7, sp, #0
 7660              	.LCFI164:
 7661              		.cfi_def_cfa_register 7
 7662 0006 7860     		str	r0, [r7, #4]
2039:App/STM32F4-Discovery/Libraries/STM32F4xx_StdPeriph_Driver/src/stm32f4xx_tim.c ****   /* Check the parameters */
2040:App/STM32F4-Discovery/Libraries/STM32F4xx_StdPeriph_Driver/src/stm32f4xx_tim.c ****   assert_param(IS_TIM_LIST2_PERIPH(TIMx));
 7663              		.loc 1 2040 0
 7664 0008 7A68     		ldr	r2, [r7, #4]
 7665 000a 154B     		ldr	r3, .L333
 7666 000c 9A42     		cmp	r2, r3
 7667 000e 20D0     		beq	.L331
 7668              		.loc 1 2040 0 is_stmt 0 discriminator 1
 7669 0010 7B68     		ldr	r3, [r7, #4]
 7670 0012 B3F1804F 		cmp	r3, #1073741824
 7671 0016 1CD0     		beq	.L331
 7672 0018 7A68     		ldr	r2, [r7, #4]
 7673 001a 124B     		ldr	r3, .L333+4
 7674 001c 9A42     		cmp	r2, r3
 7675 001e 18D0     		beq	.L331
 7676 0020 7A68     		ldr	r2, [r7, #4]
 7677 0022 114B     		ldr	r3, .L333+8
 7678 0024 9A42     		cmp	r2, r3
 7679 0026 14D0     		beq	.L331
 7680 0028 7A68     		ldr	r2, [r7, #4]
 7681 002a 104B     		ldr	r3, .L333+12
 7682 002c 9A42     		cmp	r2, r3
 7683 002e 10D0     		beq	.L331
 7684 0030 7A68     		ldr	r2, [r7, #4]
 7685 0032 0F4B     		ldr	r3, .L333+16
 7686 0034 9A42     		cmp	r2, r3
 7687 0036 0CD0     		beq	.L331
 7688 0038 7A68     		ldr	r2, [r7, #4]
 7689 003a 0E4B     		ldr	r3, .L333+20
 7690 003c 9A42     		cmp	r2, r3
 7691 003e 08D0     		beq	.L331
 7692 0040 7A68     		ldr	r2, [r7, #4]
 7693 0042 0D4B     		ldr	r3, .L333+24
 7694 0044 9A42     		cmp	r2, r3
 7695 0046 04D0     		beq	.L331
 7696 0048 0C48     		ldr	r0, .L333+28
 7697 004a 4FF4FF61 		mov	r1, #2040
 7698 004e FFF7FEFF 		bl	assert_failed
 7699              	.L331:
2041:App/STM32F4-Discovery/Libraries/STM32F4xx_StdPeriph_Driver/src/stm32f4xx_tim.c **** 
2042:App/STM32F4-Discovery/Libraries/STM32F4xx_StdPeriph_Driver/src/stm32f4xx_tim.c ****   /* Get the Capture 2 Register value */
2043:App/STM32F4-Discovery/Libraries/STM32F4xx_StdPeriph_Driver/src/stm32f4xx_tim.c ****   return TIMx->CCR2;
 7700              		.loc 1 2043 0 is_stmt 1
 7701 0052 7B68     		ldr	r3, [r7, #4]
 7702 0054 9B6B     		ldr	r3, [r3, #56]
2044:App/STM32F4-Discovery/Libraries/STM32F4xx_StdPeriph_Driver/src/stm32f4xx_tim.c **** }
 7703              		.loc 1 2044 0
 7704 0056 1846     		mov	r0, r3
 7705 0058 0837     		adds	r7, r7, #8
 7706 005a BD46     		mov	sp, r7
 7707              		@ sp needed
 7708 005c 80BD     		pop	{r7, pc}
 7709              	.L334:
 7710 005e 00BF     		.align	2
 7711              	.L333:
 7712 0060 00000140 		.word	1073807360
 7713 0064 00040040 		.word	1073742848
 7714 0068 00080040 		.word	1073743872
 7715 006c 000C0040 		.word	1073744896
 7716 0070 00040140 		.word	1073808384
 7717 0074 00400140 		.word	1073823744
 7718 0078 00180040 		.word	1073747968
 7719 007c 00000000 		.word	.LC0
 7720              		.cfi_endproc
 7721              	.LFE164:
 7723              		.section	.text.TIM_GetCapture3,"ax",%progbits
 7724              		.align	2
 7725              		.global	TIM_GetCapture3
 7726              		.thumb
 7727              		.thumb_func
 7729              	TIM_GetCapture3:
 7730              	.LFB165:
2045:App/STM32F4-Discovery/Libraries/STM32F4xx_StdPeriph_Driver/src/stm32f4xx_tim.c **** 
2046:App/STM32F4-Discovery/Libraries/STM32F4xx_StdPeriph_Driver/src/stm32f4xx_tim.c **** /**
2047:App/STM32F4-Discovery/Libraries/STM32F4xx_StdPeriph_Driver/src/stm32f4xx_tim.c ****   * @brief  Gets the TIMx Input Capture 3 value.
2048:App/STM32F4-Discovery/Libraries/STM32F4xx_StdPeriph_Driver/src/stm32f4xx_tim.c ****   * @param  TIMx: where x can be 1, 2, 3, 4, 5 or 8 to select the TIM peripheral.
2049:App/STM32F4-Discovery/Libraries/STM32F4xx_StdPeriph_Driver/src/stm32f4xx_tim.c ****   * @retval Capture Compare 3 Register value.
2050:App/STM32F4-Discovery/Libraries/STM32F4xx_StdPeriph_Driver/src/stm32f4xx_tim.c ****   */
2051:App/STM32F4-Discovery/Libraries/STM32F4xx_StdPeriph_Driver/src/stm32f4xx_tim.c **** uint32_t TIM_GetCapture3(TIM_TypeDef* TIMx)
2052:App/STM32F4-Discovery/Libraries/STM32F4xx_StdPeriph_Driver/src/stm32f4xx_tim.c **** {
 7731              		.loc 1 2052 0
 7732              		.cfi_startproc
 7733              		@ args = 0, pretend = 0, frame = 8
 7734              		@ frame_needed = 1, uses_anonymous_args = 0
 7735 0000 80B5     		push	{r7, lr}
 7736              	.LCFI165:
 7737              		.cfi_def_cfa_offset 8
 7738              		.cfi_offset 7, -8
 7739              		.cfi_offset 14, -4
 7740 0002 82B0     		sub	sp, sp, #8
 7741              	.LCFI166:
 7742              		.cfi_def_cfa_offset 16
 7743 0004 00AF     		add	r7, sp, #0
 7744              	.LCFI167:
 7745              		.cfi_def_cfa_register 7
 7746 0006 7860     		str	r0, [r7, #4]
2053:App/STM32F4-Discovery/Libraries/STM32F4xx_StdPeriph_Driver/src/stm32f4xx_tim.c ****   /* Check the parameters */
2054:App/STM32F4-Discovery/Libraries/STM32F4xx_StdPeriph_Driver/src/stm32f4xx_tim.c ****   assert_param(IS_TIM_LIST3_PERIPH(TIMx)); 
 7747              		.loc 1 2054 0
 7748 0008 7A68     		ldr	r2, [r7, #4]
 7749 000a 114B     		ldr	r3, .L338
 7750 000c 9A42     		cmp	r2, r3
 7751 000e 18D0     		beq	.L336
 7752              		.loc 1 2054 0 is_stmt 0 discriminator 1
 7753 0010 7B68     		ldr	r3, [r7, #4]
 7754 0012 B3F1804F 		cmp	r3, #1073741824
 7755 0016 14D0     		beq	.L336
 7756 0018 7A68     		ldr	r2, [r7, #4]
 7757 001a 0E4B     		ldr	r3, .L338+4
 7758 001c 9A42     		cmp	r2, r3
 7759 001e 10D0     		beq	.L336
 7760 0020 7A68     		ldr	r2, [r7, #4]
 7761 0022 0D4B     		ldr	r3, .L338+8
 7762 0024 9A42     		cmp	r2, r3
 7763 0026 0CD0     		beq	.L336
 7764 0028 7A68     		ldr	r2, [r7, #4]
 7765 002a 0C4B     		ldr	r3, .L338+12
 7766 002c 9A42     		cmp	r2, r3
 7767 002e 08D0     		beq	.L336
 7768 0030 7A68     		ldr	r2, [r7, #4]
 7769 0032 0B4B     		ldr	r3, .L338+16
 7770 0034 9A42     		cmp	r2, r3
 7771 0036 04D0     		beq	.L336
 7772 0038 0A48     		ldr	r0, .L338+20
 7773 003a 40F60601 		movw	r1, #2054
 7774 003e FFF7FEFF 		bl	assert_failed
 7775              	.L336:
2055:App/STM32F4-Discovery/Libraries/STM32F4xx_StdPeriph_Driver/src/stm32f4xx_tim.c **** 
2056:App/STM32F4-Discovery/Libraries/STM32F4xx_StdPeriph_Driver/src/stm32f4xx_tim.c ****   /* Get the Capture 3 Register value */
2057:App/STM32F4-Discovery/Libraries/STM32F4xx_StdPeriph_Driver/src/stm32f4xx_tim.c ****   return TIMx->CCR3;
 7776              		.loc 1 2057 0 is_stmt 1
 7777 0042 7B68     		ldr	r3, [r7, #4]
 7778 0044 DB6B     		ldr	r3, [r3, #60]
2058:App/STM32F4-Discovery/Libraries/STM32F4xx_StdPeriph_Driver/src/stm32f4xx_tim.c **** }
 7779              		.loc 1 2058 0
 7780 0046 1846     		mov	r0, r3
 7781 0048 0837     		adds	r7, r7, #8
 7782 004a BD46     		mov	sp, r7
 7783              		@ sp needed
 7784 004c 80BD     		pop	{r7, pc}
 7785              	.L339:
 7786 004e 00BF     		.align	2
 7787              	.L338:
 7788 0050 00000140 		.word	1073807360
 7789 0054 00040040 		.word	1073742848
 7790 0058 00080040 		.word	1073743872
 7791 005c 000C0040 		.word	1073744896
 7792 0060 00040140 		.word	1073808384
 7793 0064 00000000 		.word	.LC0
 7794              		.cfi_endproc
 7795              	.LFE165:
 7797              		.section	.text.TIM_GetCapture4,"ax",%progbits
 7798              		.align	2
 7799              		.global	TIM_GetCapture4
 7800              		.thumb
 7801              		.thumb_func
 7803              	TIM_GetCapture4:
 7804              	.LFB166:
2059:App/STM32F4-Discovery/Libraries/STM32F4xx_StdPeriph_Driver/src/stm32f4xx_tim.c **** 
2060:App/STM32F4-Discovery/Libraries/STM32F4xx_StdPeriph_Driver/src/stm32f4xx_tim.c **** /**
2061:App/STM32F4-Discovery/Libraries/STM32F4xx_StdPeriph_Driver/src/stm32f4xx_tim.c ****   * @brief  Gets the TIMx Input Capture 4 value.
2062:App/STM32F4-Discovery/Libraries/STM32F4xx_StdPeriph_Driver/src/stm32f4xx_tim.c ****   * @param  TIMx: where x can be 1, 2, 3, 4, 5 or 8 to select the TIM peripheral.
2063:App/STM32F4-Discovery/Libraries/STM32F4xx_StdPeriph_Driver/src/stm32f4xx_tim.c ****   * @retval Capture Compare 4 Register value.
2064:App/STM32F4-Discovery/Libraries/STM32F4xx_StdPeriph_Driver/src/stm32f4xx_tim.c ****   */
2065:App/STM32F4-Discovery/Libraries/STM32F4xx_StdPeriph_Driver/src/stm32f4xx_tim.c **** uint32_t TIM_GetCapture4(TIM_TypeDef* TIMx)
2066:App/STM32F4-Discovery/Libraries/STM32F4xx_StdPeriph_Driver/src/stm32f4xx_tim.c **** {
 7805              		.loc 1 2066 0
 7806              		.cfi_startproc
 7807              		@ args = 0, pretend = 0, frame = 8
 7808              		@ frame_needed = 1, uses_anonymous_args = 0
 7809 0000 80B5     		push	{r7, lr}
 7810              	.LCFI168:
 7811              		.cfi_def_cfa_offset 8
 7812              		.cfi_offset 7, -8
 7813              		.cfi_offset 14, -4
 7814 0002 82B0     		sub	sp, sp, #8
 7815              	.LCFI169:
 7816              		.cfi_def_cfa_offset 16
 7817 0004 00AF     		add	r7, sp, #0
 7818              	.LCFI170:
 7819              		.cfi_def_cfa_register 7
 7820 0006 7860     		str	r0, [r7, #4]
2067:App/STM32F4-Discovery/Libraries/STM32F4xx_StdPeriph_Driver/src/stm32f4xx_tim.c ****   /* Check the parameters */
2068:App/STM32F4-Discovery/Libraries/STM32F4xx_StdPeriph_Driver/src/stm32f4xx_tim.c ****   assert_param(IS_TIM_LIST3_PERIPH(TIMx));
 7821              		.loc 1 2068 0
 7822 0008 7A68     		ldr	r2, [r7, #4]
 7823 000a 114B     		ldr	r3, .L343
 7824 000c 9A42     		cmp	r2, r3
 7825 000e 18D0     		beq	.L341
 7826              		.loc 1 2068 0 is_stmt 0 discriminator 1
 7827 0010 7B68     		ldr	r3, [r7, #4]
 7828 0012 B3F1804F 		cmp	r3, #1073741824
 7829 0016 14D0     		beq	.L341
 7830 0018 7A68     		ldr	r2, [r7, #4]
 7831 001a 0E4B     		ldr	r3, .L343+4
 7832 001c 9A42     		cmp	r2, r3
 7833 001e 10D0     		beq	.L341
 7834 0020 7A68     		ldr	r2, [r7, #4]
 7835 0022 0D4B     		ldr	r3, .L343+8
 7836 0024 9A42     		cmp	r2, r3
 7837 0026 0CD0     		beq	.L341
 7838 0028 7A68     		ldr	r2, [r7, #4]
 7839 002a 0C4B     		ldr	r3, .L343+12
 7840 002c 9A42     		cmp	r2, r3
 7841 002e 08D0     		beq	.L341
 7842 0030 7A68     		ldr	r2, [r7, #4]
 7843 0032 0B4B     		ldr	r3, .L343+16
 7844 0034 9A42     		cmp	r2, r3
 7845 0036 04D0     		beq	.L341
 7846 0038 0A48     		ldr	r0, .L343+20
 7847 003a 40F61401 		movw	r1, #2068
 7848 003e FFF7FEFF 		bl	assert_failed
 7849              	.L341:
2069:App/STM32F4-Discovery/Libraries/STM32F4xx_StdPeriph_Driver/src/stm32f4xx_tim.c **** 
2070:App/STM32F4-Discovery/Libraries/STM32F4xx_StdPeriph_Driver/src/stm32f4xx_tim.c ****   /* Get the Capture 4 Register value */
2071:App/STM32F4-Discovery/Libraries/STM32F4xx_StdPeriph_Driver/src/stm32f4xx_tim.c ****   return TIMx->CCR4;
 7850              		.loc 1 2071 0 is_stmt 1
 7851 0042 7B68     		ldr	r3, [r7, #4]
 7852 0044 1B6C     		ldr	r3, [r3, #64]
2072:App/STM32F4-Discovery/Libraries/STM32F4xx_StdPeriph_Driver/src/stm32f4xx_tim.c **** }
 7853              		.loc 1 2072 0
 7854 0046 1846     		mov	r0, r3
 7855 0048 0837     		adds	r7, r7, #8
 7856 004a BD46     		mov	sp, r7
 7857              		@ sp needed
 7858 004c 80BD     		pop	{r7, pc}
 7859              	.L344:
 7860 004e 00BF     		.align	2
 7861              	.L343:
 7862 0050 00000140 		.word	1073807360
 7863 0054 00040040 		.word	1073742848
 7864 0058 00080040 		.word	1073743872
 7865 005c 000C0040 		.word	1073744896
 7866 0060 00040140 		.word	1073808384
 7867 0064 00000000 		.word	.LC0
 7868              		.cfi_endproc
 7869              	.LFE166:
 7871              		.section	.text.TIM_SetIC1Prescaler,"ax",%progbits
 7872              		.align	2
 7873              		.global	TIM_SetIC1Prescaler
 7874              		.thumb
 7875              		.thumb_func
 7877              	TIM_SetIC1Prescaler:
 7878              	.LFB167:
2073:App/STM32F4-Discovery/Libraries/STM32F4xx_StdPeriph_Driver/src/stm32f4xx_tim.c **** 
2074:App/STM32F4-Discovery/Libraries/STM32F4xx_StdPeriph_Driver/src/stm32f4xx_tim.c **** /**
2075:App/STM32F4-Discovery/Libraries/STM32F4xx_StdPeriph_Driver/src/stm32f4xx_tim.c ****   * @brief  Sets the TIMx Input Capture 1 prescaler.
2076:App/STM32F4-Discovery/Libraries/STM32F4xx_StdPeriph_Driver/src/stm32f4xx_tim.c ****   * @param  TIMx: where x can be 1 to 14 except 6 and 7, to select the TIM peripheral.
2077:App/STM32F4-Discovery/Libraries/STM32F4xx_StdPeriph_Driver/src/stm32f4xx_tim.c ****   * @param  TIM_ICPSC: specifies the Input Capture1 prescaler new value.
2078:App/STM32F4-Discovery/Libraries/STM32F4xx_StdPeriph_Driver/src/stm32f4xx_tim.c ****   *          This parameter can be one of the following values:
2079:App/STM32F4-Discovery/Libraries/STM32F4xx_StdPeriph_Driver/src/stm32f4xx_tim.c ****   *            @arg TIM_ICPSC_DIV1: no prescaler
2080:App/STM32F4-Discovery/Libraries/STM32F4xx_StdPeriph_Driver/src/stm32f4xx_tim.c ****   *            @arg TIM_ICPSC_DIV2: capture is done once every 2 events
2081:App/STM32F4-Discovery/Libraries/STM32F4xx_StdPeriph_Driver/src/stm32f4xx_tim.c ****   *            @arg TIM_ICPSC_DIV4: capture is done once every 4 events
2082:App/STM32F4-Discovery/Libraries/STM32F4xx_StdPeriph_Driver/src/stm32f4xx_tim.c ****   *            @arg TIM_ICPSC_DIV8: capture is done once every 8 events
2083:App/STM32F4-Discovery/Libraries/STM32F4xx_StdPeriph_Driver/src/stm32f4xx_tim.c ****   * @retval None
2084:App/STM32F4-Discovery/Libraries/STM32F4xx_StdPeriph_Driver/src/stm32f4xx_tim.c ****   */
2085:App/STM32F4-Discovery/Libraries/STM32F4xx_StdPeriph_Driver/src/stm32f4xx_tim.c **** void TIM_SetIC1Prescaler(TIM_TypeDef* TIMx, uint16_t TIM_ICPSC)
2086:App/STM32F4-Discovery/Libraries/STM32F4xx_StdPeriph_Driver/src/stm32f4xx_tim.c **** {
 7879              		.loc 1 2086 0
 7880              		.cfi_startproc
 7881              		@ args = 0, pretend = 0, frame = 8
 7882              		@ frame_needed = 1, uses_anonymous_args = 0
 7883 0000 80B5     		push	{r7, lr}
 7884              	.LCFI171:
 7885              		.cfi_def_cfa_offset 8
 7886              		.cfi_offset 7, -8
 7887              		.cfi_offset 14, -4
 7888 0002 82B0     		sub	sp, sp, #8
 7889              	.LCFI172:
 7890              		.cfi_def_cfa_offset 16
 7891 0004 00AF     		add	r7, sp, #0
 7892              	.LCFI173:
 7893              		.cfi_def_cfa_register 7
 7894 0006 7860     		str	r0, [r7, #4]
 7895 0008 0B46     		mov	r3, r1
 7896 000a 7B80     		strh	r3, [r7, #2]	@ movhi
2087:App/STM32F4-Discovery/Libraries/STM32F4xx_StdPeriph_Driver/src/stm32f4xx_tim.c ****   /* Check the parameters */
2088:App/STM32F4-Discovery/Libraries/STM32F4xx_StdPeriph_Driver/src/stm32f4xx_tim.c ****   assert_param(IS_TIM_LIST1_PERIPH(TIMx));
 7897              		.loc 1 2088 0
 7898 000c 7A68     		ldr	r2, [r7, #4]
 7899 000e 2C4B     		ldr	r3, .L348
 7900 0010 9A42     		cmp	r2, r3
 7901 0012 30D0     		beq	.L346
 7902              		.loc 1 2088 0 is_stmt 0 discriminator 1
 7903 0014 7B68     		ldr	r3, [r7, #4]
 7904 0016 B3F1804F 		cmp	r3, #1073741824
 7905 001a 2CD0     		beq	.L346
 7906 001c 7A68     		ldr	r2, [r7, #4]
 7907 001e 294B     		ldr	r3, .L348+4
 7908 0020 9A42     		cmp	r2, r3
 7909 0022 28D0     		beq	.L346
 7910 0024 7A68     		ldr	r2, [r7, #4]
 7911 0026 284B     		ldr	r3, .L348+8
 7912 0028 9A42     		cmp	r2, r3
 7913 002a 24D0     		beq	.L346
 7914 002c 7A68     		ldr	r2, [r7, #4]
 7915 002e 274B     		ldr	r3, .L348+12
 7916 0030 9A42     		cmp	r2, r3
 7917 0032 20D0     		beq	.L346
 7918 0034 7A68     		ldr	r2, [r7, #4]
 7919 0036 264B     		ldr	r3, .L348+16
 7920 0038 9A42     		cmp	r2, r3
 7921 003a 1CD0     		beq	.L346
 7922 003c 7A68     		ldr	r2, [r7, #4]
 7923 003e 254B     		ldr	r3, .L348+20
 7924 0040 9A42     		cmp	r2, r3
 7925 0042 18D0     		beq	.L346
 7926 0044 7A68     		ldr	r2, [r7, #4]
 7927 0046 244B     		ldr	r3, .L348+24
 7928 0048 9A42     		cmp	r2, r3
 7929 004a 14D0     		beq	.L346
 7930 004c 7A68     		ldr	r2, [r7, #4]
 7931 004e 234B     		ldr	r3, .L348+28
 7932 0050 9A42     		cmp	r2, r3
 7933 0052 10D0     		beq	.L346
 7934 0054 7A68     		ldr	r2, [r7, #4]
 7935 0056 224B     		ldr	r3, .L348+32
 7936 0058 9A42     		cmp	r2, r3
 7937 005a 0CD0     		beq	.L346
 7938 005c 7A68     		ldr	r2, [r7, #4]
 7939 005e 214B     		ldr	r3, .L348+36
 7940 0060 9A42     		cmp	r2, r3
 7941 0062 08D0     		beq	.L346
 7942 0064 7A68     		ldr	r2, [r7, #4]
 7943 0066 204B     		ldr	r3, .L348+40
 7944 0068 9A42     		cmp	r2, r3
 7945 006a 04D0     		beq	.L346
 7946 006c 1F48     		ldr	r0, .L348+44
 7947 006e 40F62801 		movw	r1, #2088
 7948 0072 FFF7FEFF 		bl	assert_failed
 7949              	.L346:
2089:App/STM32F4-Discovery/Libraries/STM32F4xx_StdPeriph_Driver/src/stm32f4xx_tim.c ****   assert_param(IS_TIM_IC_PRESCALER(TIM_ICPSC));
 7950              		.loc 1 2089 0 is_stmt 1
 7951 0076 7B88     		ldrh	r3, [r7, #2]
 7952 0078 002B     		cmp	r3, #0
 7953 007a 0DD0     		beq	.L347
 7954              		.loc 1 2089 0 is_stmt 0 discriminator 1
 7955 007c 7B88     		ldrh	r3, [r7, #2]
 7956 007e 042B     		cmp	r3, #4
 7957 0080 0AD0     		beq	.L347
 7958 0082 7B88     		ldrh	r3, [r7, #2]
 7959 0084 082B     		cmp	r3, #8
 7960 0086 07D0     		beq	.L347
 7961 0088 7B88     		ldrh	r3, [r7, #2]
 7962 008a 0C2B     		cmp	r3, #12
 7963 008c 04D0     		beq	.L347
 7964 008e 1748     		ldr	r0, .L348+44
 7965 0090 40F62901 		movw	r1, #2089
 7966 0094 FFF7FEFF 		bl	assert_failed
 7967              	.L347:
2090:App/STM32F4-Discovery/Libraries/STM32F4xx_StdPeriph_Driver/src/stm32f4xx_tim.c **** 
2091:App/STM32F4-Discovery/Libraries/STM32F4xx_StdPeriph_Driver/src/stm32f4xx_tim.c ****   /* Reset the IC1PSC Bits */
2092:App/STM32F4-Discovery/Libraries/STM32F4xx_StdPeriph_Driver/src/stm32f4xx_tim.c ****   TIMx->CCMR1 &= (uint16_t)~TIM_CCMR1_IC1PSC;
 7968              		.loc 1 2092 0 is_stmt 1
 7969 0098 7B68     		ldr	r3, [r7, #4]
 7970 009a 1B8B     		ldrh	r3, [r3, #24]	@ movhi
 7971 009c 9BB2     		uxth	r3, r3
 7972 009e 23F00C03 		bic	r3, r3, #12
 7973 00a2 9AB2     		uxth	r2, r3
 7974 00a4 7B68     		ldr	r3, [r7, #4]
 7975 00a6 1A83     		strh	r2, [r3, #24]	@ movhi
2093:App/STM32F4-Discovery/Libraries/STM32F4xx_StdPeriph_Driver/src/stm32f4xx_tim.c **** 
2094:App/STM32F4-Discovery/Libraries/STM32F4xx_StdPeriph_Driver/src/stm32f4xx_tim.c ****   /* Set the IC1PSC value */
2095:App/STM32F4-Discovery/Libraries/STM32F4xx_StdPeriph_Driver/src/stm32f4xx_tim.c ****   TIMx->CCMR1 |= TIM_ICPSC;
 7976              		.loc 1 2095 0
 7977 00a8 7B68     		ldr	r3, [r7, #4]
 7978 00aa 1B8B     		ldrh	r3, [r3, #24]	@ movhi
 7979 00ac 9AB2     		uxth	r2, r3
 7980 00ae 7B88     		ldrh	r3, [r7, #2]	@ movhi
 7981 00b0 1343     		orrs	r3, r3, r2
 7982 00b2 9AB2     		uxth	r2, r3
 7983 00b4 7B68     		ldr	r3, [r7, #4]
 7984 00b6 1A83     		strh	r2, [r3, #24]	@ movhi
2096:App/STM32F4-Discovery/Libraries/STM32F4xx_StdPeriph_Driver/src/stm32f4xx_tim.c **** }
 7985              		.loc 1 2096 0
 7986 00b8 0837     		adds	r7, r7, #8
 7987 00ba BD46     		mov	sp, r7
 7988              		@ sp needed
 7989 00bc 80BD     		pop	{r7, pc}
 7990              	.L349:
 7991 00be 00BF     		.align	2
 7992              	.L348:
 7993 00c0 00000140 		.word	1073807360
 7994 00c4 00040040 		.word	1073742848
 7995 00c8 00080040 		.word	1073743872
 7996 00cc 000C0040 		.word	1073744896
 7997 00d0 00040140 		.word	1073808384
 7998 00d4 00400140 		.word	1073823744
 7999 00d8 00440140 		.word	1073824768
 8000 00dc 00480140 		.word	1073825792
 8001 00e0 00180040 		.word	1073747968
 8002 00e4 001C0040 		.word	1073748992
 8003 00e8 00200040 		.word	1073750016
 8004 00ec 00000000 		.word	.LC0
 8005              		.cfi_endproc
 8006              	.LFE167:
 8008              		.section	.text.TIM_SetIC2Prescaler,"ax",%progbits
 8009              		.align	2
 8010              		.global	TIM_SetIC2Prescaler
 8011              		.thumb
 8012              		.thumb_func
 8014              	TIM_SetIC2Prescaler:
 8015              	.LFB168:
2097:App/STM32F4-Discovery/Libraries/STM32F4xx_StdPeriph_Driver/src/stm32f4xx_tim.c **** 
2098:App/STM32F4-Discovery/Libraries/STM32F4xx_StdPeriph_Driver/src/stm32f4xx_tim.c **** /**
2099:App/STM32F4-Discovery/Libraries/STM32F4xx_StdPeriph_Driver/src/stm32f4xx_tim.c ****   * @brief  Sets the TIMx Input Capture 2 prescaler.
2100:App/STM32F4-Discovery/Libraries/STM32F4xx_StdPeriph_Driver/src/stm32f4xx_tim.c ****   * @param  TIMx: where x can be 1, 2, 3, 4, 5, 8, 9 or 12 to select the TIM 
2101:App/STM32F4-Discovery/Libraries/STM32F4xx_StdPeriph_Driver/src/stm32f4xx_tim.c ****   *         peripheral.
2102:App/STM32F4-Discovery/Libraries/STM32F4xx_StdPeriph_Driver/src/stm32f4xx_tim.c ****   * @param  TIM_ICPSC: specifies the Input Capture2 prescaler new value.
2103:App/STM32F4-Discovery/Libraries/STM32F4xx_StdPeriph_Driver/src/stm32f4xx_tim.c ****   *          This parameter can be one of the following values:
2104:App/STM32F4-Discovery/Libraries/STM32F4xx_StdPeriph_Driver/src/stm32f4xx_tim.c ****   *            @arg TIM_ICPSC_DIV1: no prescaler
2105:App/STM32F4-Discovery/Libraries/STM32F4xx_StdPeriph_Driver/src/stm32f4xx_tim.c ****   *            @arg TIM_ICPSC_DIV2: capture is done once every 2 events
2106:App/STM32F4-Discovery/Libraries/STM32F4xx_StdPeriph_Driver/src/stm32f4xx_tim.c ****   *            @arg TIM_ICPSC_DIV4: capture is done once every 4 events
2107:App/STM32F4-Discovery/Libraries/STM32F4xx_StdPeriph_Driver/src/stm32f4xx_tim.c ****   *            @arg TIM_ICPSC_DIV8: capture is done once every 8 events
2108:App/STM32F4-Discovery/Libraries/STM32F4xx_StdPeriph_Driver/src/stm32f4xx_tim.c ****   * @retval None
2109:App/STM32F4-Discovery/Libraries/STM32F4xx_StdPeriph_Driver/src/stm32f4xx_tim.c ****   */
2110:App/STM32F4-Discovery/Libraries/STM32F4xx_StdPeriph_Driver/src/stm32f4xx_tim.c **** void TIM_SetIC2Prescaler(TIM_TypeDef* TIMx, uint16_t TIM_ICPSC)
2111:App/STM32F4-Discovery/Libraries/STM32F4xx_StdPeriph_Driver/src/stm32f4xx_tim.c **** {
 8016              		.loc 1 2111 0
 8017              		.cfi_startproc
 8018              		@ args = 0, pretend = 0, frame = 8
 8019              		@ frame_needed = 1, uses_anonymous_args = 0
 8020 0000 80B5     		push	{r7, lr}
 8021              	.LCFI174:
 8022              		.cfi_def_cfa_offset 8
 8023              		.cfi_offset 7, -8
 8024              		.cfi_offset 14, -4
 8025 0002 82B0     		sub	sp, sp, #8
 8026              	.LCFI175:
 8027              		.cfi_def_cfa_offset 16
 8028 0004 00AF     		add	r7, sp, #0
 8029              	.LCFI176:
 8030              		.cfi_def_cfa_register 7
 8031 0006 7860     		str	r0, [r7, #4]
 8032 0008 0B46     		mov	r3, r1
 8033 000a 7B80     		strh	r3, [r7, #2]	@ movhi
2112:App/STM32F4-Discovery/Libraries/STM32F4xx_StdPeriph_Driver/src/stm32f4xx_tim.c ****   /* Check the parameters */
2113:App/STM32F4-Discovery/Libraries/STM32F4xx_StdPeriph_Driver/src/stm32f4xx_tim.c ****   assert_param(IS_TIM_LIST2_PERIPH(TIMx));
 8034              		.loc 1 2113 0
 8035 000c 7A68     		ldr	r2, [r7, #4]
 8036 000e 254B     		ldr	r3, .L353
 8037 0010 9A42     		cmp	r2, r3
 8038 0012 20D0     		beq	.L351
 8039              		.loc 1 2113 0 is_stmt 0 discriminator 1
 8040 0014 7B68     		ldr	r3, [r7, #4]
 8041 0016 B3F1804F 		cmp	r3, #1073741824
 8042 001a 1CD0     		beq	.L351
 8043 001c 7A68     		ldr	r2, [r7, #4]
 8044 001e 224B     		ldr	r3, .L353+4
 8045 0020 9A42     		cmp	r2, r3
 8046 0022 18D0     		beq	.L351
 8047 0024 7A68     		ldr	r2, [r7, #4]
 8048 0026 214B     		ldr	r3, .L353+8
 8049 0028 9A42     		cmp	r2, r3
 8050 002a 14D0     		beq	.L351
 8051 002c 7A68     		ldr	r2, [r7, #4]
 8052 002e 204B     		ldr	r3, .L353+12
 8053 0030 9A42     		cmp	r2, r3
 8054 0032 10D0     		beq	.L351
 8055 0034 7A68     		ldr	r2, [r7, #4]
 8056 0036 1F4B     		ldr	r3, .L353+16
 8057 0038 9A42     		cmp	r2, r3
 8058 003a 0CD0     		beq	.L351
 8059 003c 7A68     		ldr	r2, [r7, #4]
 8060 003e 1E4B     		ldr	r3, .L353+20
 8061 0040 9A42     		cmp	r2, r3
 8062 0042 08D0     		beq	.L351
 8063 0044 7A68     		ldr	r2, [r7, #4]
 8064 0046 1D4B     		ldr	r3, .L353+24
 8065 0048 9A42     		cmp	r2, r3
 8066 004a 04D0     		beq	.L351
 8067 004c 1C48     		ldr	r0, .L353+28
 8068 004e 40F64101 		movw	r1, #2113
 8069 0052 FFF7FEFF 		bl	assert_failed
 8070              	.L351:
2114:App/STM32F4-Discovery/Libraries/STM32F4xx_StdPeriph_Driver/src/stm32f4xx_tim.c ****   assert_param(IS_TIM_IC_PRESCALER(TIM_ICPSC));
 8071              		.loc 1 2114 0 is_stmt 1
 8072 0056 7B88     		ldrh	r3, [r7, #2]
 8073 0058 002B     		cmp	r3, #0
 8074 005a 0DD0     		beq	.L352
 8075              		.loc 1 2114 0 is_stmt 0 discriminator 1
 8076 005c 7B88     		ldrh	r3, [r7, #2]
 8077 005e 042B     		cmp	r3, #4
 8078 0060 0AD0     		beq	.L352
 8079 0062 7B88     		ldrh	r3, [r7, #2]
 8080 0064 082B     		cmp	r3, #8
 8081 0066 07D0     		beq	.L352
 8082 0068 7B88     		ldrh	r3, [r7, #2]
 8083 006a 0C2B     		cmp	r3, #12
 8084 006c 04D0     		beq	.L352
 8085 006e 1448     		ldr	r0, .L353+28
 8086 0070 40F64201 		movw	r1, #2114
 8087 0074 FFF7FEFF 		bl	assert_failed
 8088              	.L352:
2115:App/STM32F4-Discovery/Libraries/STM32F4xx_StdPeriph_Driver/src/stm32f4xx_tim.c **** 
2116:App/STM32F4-Discovery/Libraries/STM32F4xx_StdPeriph_Driver/src/stm32f4xx_tim.c ****   /* Reset the IC2PSC Bits */
2117:App/STM32F4-Discovery/Libraries/STM32F4xx_StdPeriph_Driver/src/stm32f4xx_tim.c ****   TIMx->CCMR1 &= (uint16_t)~TIM_CCMR1_IC2PSC;
 8089              		.loc 1 2117 0 is_stmt 1
 8090 0078 7B68     		ldr	r3, [r7, #4]
 8091 007a 1B8B     		ldrh	r3, [r3, #24]	@ movhi
 8092 007c 9BB2     		uxth	r3, r3
 8093 007e 23F44063 		bic	r3, r3, #3072
 8094 0082 9AB2     		uxth	r2, r3
 8095 0084 7B68     		ldr	r3, [r7, #4]
 8096 0086 1A83     		strh	r2, [r3, #24]	@ movhi
2118:App/STM32F4-Discovery/Libraries/STM32F4xx_StdPeriph_Driver/src/stm32f4xx_tim.c **** 
2119:App/STM32F4-Discovery/Libraries/STM32F4xx_StdPeriph_Driver/src/stm32f4xx_tim.c ****   /* Set the IC2PSC value */
2120:App/STM32F4-Discovery/Libraries/STM32F4xx_StdPeriph_Driver/src/stm32f4xx_tim.c ****   TIMx->CCMR1 |= (uint16_t)(TIM_ICPSC << 8);
 8097              		.loc 1 2120 0
 8098 0088 7B68     		ldr	r3, [r7, #4]
 8099 008a 1B8B     		ldrh	r3, [r3, #24]	@ movhi
 8100 008c 9AB2     		uxth	r2, r3
 8101 008e 7B88     		ldrh	r3, [r7, #2]	@ movhi
 8102 0090 1B02     		lsls	r3, r3, #8
 8103 0092 9BB2     		uxth	r3, r3
 8104 0094 1343     		orrs	r3, r3, r2
 8105 0096 9AB2     		uxth	r2, r3
 8106 0098 7B68     		ldr	r3, [r7, #4]
 8107 009a 1A83     		strh	r2, [r3, #24]	@ movhi
2121:App/STM32F4-Discovery/Libraries/STM32F4xx_StdPeriph_Driver/src/stm32f4xx_tim.c **** }
 8108              		.loc 1 2121 0
 8109 009c 0837     		adds	r7, r7, #8
 8110 009e BD46     		mov	sp, r7
 8111              		@ sp needed
 8112 00a0 80BD     		pop	{r7, pc}
 8113              	.L354:
 8114 00a2 00BF     		.align	2
 8115              	.L353:
 8116 00a4 00000140 		.word	1073807360
 8117 00a8 00040040 		.word	1073742848
 8118 00ac 00080040 		.word	1073743872
 8119 00b0 000C0040 		.word	1073744896
 8120 00b4 00040140 		.word	1073808384
 8121 00b8 00400140 		.word	1073823744
 8122 00bc 00180040 		.word	1073747968
 8123 00c0 00000000 		.word	.LC0
 8124              		.cfi_endproc
 8125              	.LFE168:
 8127              		.section	.text.TIM_SetIC3Prescaler,"ax",%progbits
 8128              		.align	2
 8129              		.global	TIM_SetIC3Prescaler
 8130              		.thumb
 8131              		.thumb_func
 8133              	TIM_SetIC3Prescaler:
 8134              	.LFB169:
2122:App/STM32F4-Discovery/Libraries/STM32F4xx_StdPeriph_Driver/src/stm32f4xx_tim.c **** 
2123:App/STM32F4-Discovery/Libraries/STM32F4xx_StdPeriph_Driver/src/stm32f4xx_tim.c **** /**
2124:App/STM32F4-Discovery/Libraries/STM32F4xx_StdPeriph_Driver/src/stm32f4xx_tim.c ****   * @brief  Sets the TIMx Input Capture 3 prescaler.
2125:App/STM32F4-Discovery/Libraries/STM32F4xx_StdPeriph_Driver/src/stm32f4xx_tim.c ****   * @param  TIMx: where x can be 1, 2, 3, 4, 5 or 8 to select the TIM peripheral.
2126:App/STM32F4-Discovery/Libraries/STM32F4xx_StdPeriph_Driver/src/stm32f4xx_tim.c ****   * @param  TIM_ICPSC: specifies the Input Capture3 prescaler new value.
2127:App/STM32F4-Discovery/Libraries/STM32F4xx_StdPeriph_Driver/src/stm32f4xx_tim.c ****   *          This parameter can be one of the following values:
2128:App/STM32F4-Discovery/Libraries/STM32F4xx_StdPeriph_Driver/src/stm32f4xx_tim.c ****   *            @arg TIM_ICPSC_DIV1: no prescaler
2129:App/STM32F4-Discovery/Libraries/STM32F4xx_StdPeriph_Driver/src/stm32f4xx_tim.c ****   *            @arg TIM_ICPSC_DIV2: capture is done once every 2 events
2130:App/STM32F4-Discovery/Libraries/STM32F4xx_StdPeriph_Driver/src/stm32f4xx_tim.c ****   *            @arg TIM_ICPSC_DIV4: capture is done once every 4 events
2131:App/STM32F4-Discovery/Libraries/STM32F4xx_StdPeriph_Driver/src/stm32f4xx_tim.c ****   *            @arg TIM_ICPSC_DIV8: capture is done once every 8 events
2132:App/STM32F4-Discovery/Libraries/STM32F4xx_StdPeriph_Driver/src/stm32f4xx_tim.c ****   * @retval None
2133:App/STM32F4-Discovery/Libraries/STM32F4xx_StdPeriph_Driver/src/stm32f4xx_tim.c ****   */
2134:App/STM32F4-Discovery/Libraries/STM32F4xx_StdPeriph_Driver/src/stm32f4xx_tim.c **** void TIM_SetIC3Prescaler(TIM_TypeDef* TIMx, uint16_t TIM_ICPSC)
2135:App/STM32F4-Discovery/Libraries/STM32F4xx_StdPeriph_Driver/src/stm32f4xx_tim.c **** {
 8135              		.loc 1 2135 0
 8136              		.cfi_startproc
 8137              		@ args = 0, pretend = 0, frame = 8
 8138              		@ frame_needed = 1, uses_anonymous_args = 0
 8139 0000 80B5     		push	{r7, lr}
 8140              	.LCFI177:
 8141              		.cfi_def_cfa_offset 8
 8142              		.cfi_offset 7, -8
 8143              		.cfi_offset 14, -4
 8144 0002 82B0     		sub	sp, sp, #8
 8145              	.LCFI178:
 8146              		.cfi_def_cfa_offset 16
 8147 0004 00AF     		add	r7, sp, #0
 8148              	.LCFI179:
 8149              		.cfi_def_cfa_register 7
 8150 0006 7860     		str	r0, [r7, #4]
 8151 0008 0B46     		mov	r3, r1
 8152 000a 7B80     		strh	r3, [r7, #2]	@ movhi
2136:App/STM32F4-Discovery/Libraries/STM32F4xx_StdPeriph_Driver/src/stm32f4xx_tim.c ****   /* Check the parameters */
2137:App/STM32F4-Discovery/Libraries/STM32F4xx_StdPeriph_Driver/src/stm32f4xx_tim.c ****   assert_param(IS_TIM_LIST3_PERIPH(TIMx));
 8153              		.loc 1 2137 0
 8154 000c 7A68     		ldr	r2, [r7, #4]
 8155 000e 204B     		ldr	r3, .L358
 8156 0010 9A42     		cmp	r2, r3
 8157 0012 18D0     		beq	.L356
 8158              		.loc 1 2137 0 is_stmt 0 discriminator 1
 8159 0014 7B68     		ldr	r3, [r7, #4]
 8160 0016 B3F1804F 		cmp	r3, #1073741824
 8161 001a 14D0     		beq	.L356
 8162 001c 7A68     		ldr	r2, [r7, #4]
 8163 001e 1D4B     		ldr	r3, .L358+4
 8164 0020 9A42     		cmp	r2, r3
 8165 0022 10D0     		beq	.L356
 8166 0024 7A68     		ldr	r2, [r7, #4]
 8167 0026 1C4B     		ldr	r3, .L358+8
 8168 0028 9A42     		cmp	r2, r3
 8169 002a 0CD0     		beq	.L356
 8170 002c 7A68     		ldr	r2, [r7, #4]
 8171 002e 1B4B     		ldr	r3, .L358+12
 8172 0030 9A42     		cmp	r2, r3
 8173 0032 08D0     		beq	.L356
 8174 0034 7A68     		ldr	r2, [r7, #4]
 8175 0036 1A4B     		ldr	r3, .L358+16
 8176 0038 9A42     		cmp	r2, r3
 8177 003a 04D0     		beq	.L356
 8178 003c 1948     		ldr	r0, .L358+20
 8179 003e 40F65901 		movw	r1, #2137
 8180 0042 FFF7FEFF 		bl	assert_failed
 8181              	.L356:
2138:App/STM32F4-Discovery/Libraries/STM32F4xx_StdPeriph_Driver/src/stm32f4xx_tim.c ****   assert_param(IS_TIM_IC_PRESCALER(TIM_ICPSC));
 8182              		.loc 1 2138 0 is_stmt 1
 8183 0046 7B88     		ldrh	r3, [r7, #2]
 8184 0048 002B     		cmp	r3, #0
 8185 004a 0DD0     		beq	.L357
 8186              		.loc 1 2138 0 is_stmt 0 discriminator 1
 8187 004c 7B88     		ldrh	r3, [r7, #2]
 8188 004e 042B     		cmp	r3, #4
 8189 0050 0AD0     		beq	.L357
 8190 0052 7B88     		ldrh	r3, [r7, #2]
 8191 0054 082B     		cmp	r3, #8
 8192 0056 07D0     		beq	.L357
 8193 0058 7B88     		ldrh	r3, [r7, #2]
 8194 005a 0C2B     		cmp	r3, #12
 8195 005c 04D0     		beq	.L357
 8196 005e 1148     		ldr	r0, .L358+20
 8197 0060 40F65A01 		movw	r1, #2138
 8198 0064 FFF7FEFF 		bl	assert_failed
 8199              	.L357:
2139:App/STM32F4-Discovery/Libraries/STM32F4xx_StdPeriph_Driver/src/stm32f4xx_tim.c **** 
2140:App/STM32F4-Discovery/Libraries/STM32F4xx_StdPeriph_Driver/src/stm32f4xx_tim.c ****   /* Reset the IC3PSC Bits */
2141:App/STM32F4-Discovery/Libraries/STM32F4xx_StdPeriph_Driver/src/stm32f4xx_tim.c ****   TIMx->CCMR2 &= (uint16_t)~TIM_CCMR2_IC3PSC;
 8200              		.loc 1 2141 0 is_stmt 1
 8201 0068 7B68     		ldr	r3, [r7, #4]
 8202 006a 9B8B     		ldrh	r3, [r3, #28]	@ movhi
 8203 006c 9BB2     		uxth	r3, r3
 8204 006e 23F00C03 		bic	r3, r3, #12
 8205 0072 9AB2     		uxth	r2, r3
 8206 0074 7B68     		ldr	r3, [r7, #4]
 8207 0076 9A83     		strh	r2, [r3, #28]	@ movhi
2142:App/STM32F4-Discovery/Libraries/STM32F4xx_StdPeriph_Driver/src/stm32f4xx_tim.c **** 
2143:App/STM32F4-Discovery/Libraries/STM32F4xx_StdPeriph_Driver/src/stm32f4xx_tim.c ****   /* Set the IC3PSC value */
2144:App/STM32F4-Discovery/Libraries/STM32F4xx_StdPeriph_Driver/src/stm32f4xx_tim.c ****   TIMx->CCMR2 |= TIM_ICPSC;
 8208              		.loc 1 2144 0
 8209 0078 7B68     		ldr	r3, [r7, #4]
 8210 007a 9B8B     		ldrh	r3, [r3, #28]	@ movhi
 8211 007c 9AB2     		uxth	r2, r3
 8212 007e 7B88     		ldrh	r3, [r7, #2]	@ movhi
 8213 0080 1343     		orrs	r3, r3, r2
 8214 0082 9AB2     		uxth	r2, r3
 8215 0084 7B68     		ldr	r3, [r7, #4]
 8216 0086 9A83     		strh	r2, [r3, #28]	@ movhi
2145:App/STM32F4-Discovery/Libraries/STM32F4xx_StdPeriph_Driver/src/stm32f4xx_tim.c **** }
 8217              		.loc 1 2145 0
 8218 0088 0837     		adds	r7, r7, #8
 8219 008a BD46     		mov	sp, r7
 8220              		@ sp needed
 8221 008c 80BD     		pop	{r7, pc}
 8222              	.L359:
 8223 008e 00BF     		.align	2
 8224              	.L358:
 8225 0090 00000140 		.word	1073807360
 8226 0094 00040040 		.word	1073742848
 8227 0098 00080040 		.word	1073743872
 8228 009c 000C0040 		.word	1073744896
 8229 00a0 00040140 		.word	1073808384
 8230 00a4 00000000 		.word	.LC0
 8231              		.cfi_endproc
 8232              	.LFE169:
 8234              		.section	.text.TIM_SetIC4Prescaler,"ax",%progbits
 8235              		.align	2
 8236              		.global	TIM_SetIC4Prescaler
 8237              		.thumb
 8238              		.thumb_func
 8240              	TIM_SetIC4Prescaler:
 8241              	.LFB170:
2146:App/STM32F4-Discovery/Libraries/STM32F4xx_StdPeriph_Driver/src/stm32f4xx_tim.c **** 
2147:App/STM32F4-Discovery/Libraries/STM32F4xx_StdPeriph_Driver/src/stm32f4xx_tim.c **** /**
2148:App/STM32F4-Discovery/Libraries/STM32F4xx_StdPeriph_Driver/src/stm32f4xx_tim.c ****   * @brief  Sets the TIMx Input Capture 4 prescaler.
2149:App/STM32F4-Discovery/Libraries/STM32F4xx_StdPeriph_Driver/src/stm32f4xx_tim.c ****   * @param  TIMx: where x can be 1, 2, 3, 4, 5 or 8 to select the TIM peripheral.
2150:App/STM32F4-Discovery/Libraries/STM32F4xx_StdPeriph_Driver/src/stm32f4xx_tim.c ****   * @param  TIM_ICPSC: specifies the Input Capture4 prescaler new value.
2151:App/STM32F4-Discovery/Libraries/STM32F4xx_StdPeriph_Driver/src/stm32f4xx_tim.c ****   *          This parameter can be one of the following values:
2152:App/STM32F4-Discovery/Libraries/STM32F4xx_StdPeriph_Driver/src/stm32f4xx_tim.c ****   *            @arg TIM_ICPSC_DIV1: no prescaler
2153:App/STM32F4-Discovery/Libraries/STM32F4xx_StdPeriph_Driver/src/stm32f4xx_tim.c ****   *            @arg TIM_ICPSC_DIV2: capture is done once every 2 events
2154:App/STM32F4-Discovery/Libraries/STM32F4xx_StdPeriph_Driver/src/stm32f4xx_tim.c ****   *            @arg TIM_ICPSC_DIV4: capture is done once every 4 events
2155:App/STM32F4-Discovery/Libraries/STM32F4xx_StdPeriph_Driver/src/stm32f4xx_tim.c ****   *            @arg TIM_ICPSC_DIV8: capture is done once every 8 events
2156:App/STM32F4-Discovery/Libraries/STM32F4xx_StdPeriph_Driver/src/stm32f4xx_tim.c ****   * @retval None
2157:App/STM32F4-Discovery/Libraries/STM32F4xx_StdPeriph_Driver/src/stm32f4xx_tim.c ****   */
2158:App/STM32F4-Discovery/Libraries/STM32F4xx_StdPeriph_Driver/src/stm32f4xx_tim.c **** void TIM_SetIC4Prescaler(TIM_TypeDef* TIMx, uint16_t TIM_ICPSC)
2159:App/STM32F4-Discovery/Libraries/STM32F4xx_StdPeriph_Driver/src/stm32f4xx_tim.c **** {  
 8242              		.loc 1 2159 0
 8243              		.cfi_startproc
 8244              		@ args = 0, pretend = 0, frame = 8
 8245              		@ frame_needed = 1, uses_anonymous_args = 0
 8246 0000 80B5     		push	{r7, lr}
 8247              	.LCFI180:
 8248              		.cfi_def_cfa_offset 8
 8249              		.cfi_offset 7, -8
 8250              		.cfi_offset 14, -4
 8251 0002 82B0     		sub	sp, sp, #8
 8252              	.LCFI181:
 8253              		.cfi_def_cfa_offset 16
 8254 0004 00AF     		add	r7, sp, #0
 8255              	.LCFI182:
 8256              		.cfi_def_cfa_register 7
 8257 0006 7860     		str	r0, [r7, #4]
 8258 0008 0B46     		mov	r3, r1
 8259 000a 7B80     		strh	r3, [r7, #2]	@ movhi
2160:App/STM32F4-Discovery/Libraries/STM32F4xx_StdPeriph_Driver/src/stm32f4xx_tim.c ****   /* Check the parameters */
2161:App/STM32F4-Discovery/Libraries/STM32F4xx_StdPeriph_Driver/src/stm32f4xx_tim.c ****   assert_param(IS_TIM_LIST3_PERIPH(TIMx));
 8260              		.loc 1 2161 0
 8261 000c 7A68     		ldr	r2, [r7, #4]
 8262 000e 214B     		ldr	r3, .L363
 8263 0010 9A42     		cmp	r2, r3
 8264 0012 18D0     		beq	.L361
 8265              		.loc 1 2161 0 is_stmt 0 discriminator 1
 8266 0014 7B68     		ldr	r3, [r7, #4]
 8267 0016 B3F1804F 		cmp	r3, #1073741824
 8268 001a 14D0     		beq	.L361
 8269 001c 7A68     		ldr	r2, [r7, #4]
 8270 001e 1E4B     		ldr	r3, .L363+4
 8271 0020 9A42     		cmp	r2, r3
 8272 0022 10D0     		beq	.L361
 8273 0024 7A68     		ldr	r2, [r7, #4]
 8274 0026 1D4B     		ldr	r3, .L363+8
 8275 0028 9A42     		cmp	r2, r3
 8276 002a 0CD0     		beq	.L361
 8277 002c 7A68     		ldr	r2, [r7, #4]
 8278 002e 1C4B     		ldr	r3, .L363+12
 8279 0030 9A42     		cmp	r2, r3
 8280 0032 08D0     		beq	.L361
 8281 0034 7A68     		ldr	r2, [r7, #4]
 8282 0036 1B4B     		ldr	r3, .L363+16
 8283 0038 9A42     		cmp	r2, r3
 8284 003a 04D0     		beq	.L361
 8285 003c 1A48     		ldr	r0, .L363+20
 8286 003e 40F67101 		movw	r1, #2161
 8287 0042 FFF7FEFF 		bl	assert_failed
 8288              	.L361:
2162:App/STM32F4-Discovery/Libraries/STM32F4xx_StdPeriph_Driver/src/stm32f4xx_tim.c ****   assert_param(IS_TIM_IC_PRESCALER(TIM_ICPSC));
 8289              		.loc 1 2162 0 is_stmt 1
 8290 0046 7B88     		ldrh	r3, [r7, #2]
 8291 0048 002B     		cmp	r3, #0
 8292 004a 0DD0     		beq	.L362
 8293              		.loc 1 2162 0 is_stmt 0 discriminator 1
 8294 004c 7B88     		ldrh	r3, [r7, #2]
 8295 004e 042B     		cmp	r3, #4
 8296 0050 0AD0     		beq	.L362
 8297 0052 7B88     		ldrh	r3, [r7, #2]
 8298 0054 082B     		cmp	r3, #8
 8299 0056 07D0     		beq	.L362
 8300 0058 7B88     		ldrh	r3, [r7, #2]
 8301 005a 0C2B     		cmp	r3, #12
 8302 005c 04D0     		beq	.L362
 8303 005e 1248     		ldr	r0, .L363+20
 8304 0060 40F67201 		movw	r1, #2162
 8305 0064 FFF7FEFF 		bl	assert_failed
 8306              	.L362:
2163:App/STM32F4-Discovery/Libraries/STM32F4xx_StdPeriph_Driver/src/stm32f4xx_tim.c **** 
2164:App/STM32F4-Discovery/Libraries/STM32F4xx_StdPeriph_Driver/src/stm32f4xx_tim.c ****   /* Reset the IC4PSC Bits */
2165:App/STM32F4-Discovery/Libraries/STM32F4xx_StdPeriph_Driver/src/stm32f4xx_tim.c ****   TIMx->CCMR2 &= (uint16_t)~TIM_CCMR2_IC4PSC;
 8307              		.loc 1 2165 0 is_stmt 1
 8308 0068 7B68     		ldr	r3, [r7, #4]
 8309 006a 9B8B     		ldrh	r3, [r3, #28]	@ movhi
 8310 006c 9BB2     		uxth	r3, r3
 8311 006e 23F44063 		bic	r3, r3, #3072
 8312 0072 9AB2     		uxth	r2, r3
 8313 0074 7B68     		ldr	r3, [r7, #4]
 8314 0076 9A83     		strh	r2, [r3, #28]	@ movhi
2166:App/STM32F4-Discovery/Libraries/STM32F4xx_StdPeriph_Driver/src/stm32f4xx_tim.c **** 
2167:App/STM32F4-Discovery/Libraries/STM32F4xx_StdPeriph_Driver/src/stm32f4xx_tim.c ****   /* Set the IC4PSC value */
2168:App/STM32F4-Discovery/Libraries/STM32F4xx_StdPeriph_Driver/src/stm32f4xx_tim.c ****   TIMx->CCMR2 |= (uint16_t)(TIM_ICPSC << 8);
 8315              		.loc 1 2168 0
 8316 0078 7B68     		ldr	r3, [r7, #4]
 8317 007a 9B8B     		ldrh	r3, [r3, #28]	@ movhi
 8318 007c 9AB2     		uxth	r2, r3
 8319 007e 7B88     		ldrh	r3, [r7, #2]	@ movhi
 8320 0080 1B02     		lsls	r3, r3, #8
 8321 0082 9BB2     		uxth	r3, r3
 8322 0084 1343     		orrs	r3, r3, r2
 8323 0086 9AB2     		uxth	r2, r3
 8324 0088 7B68     		ldr	r3, [r7, #4]
 8325 008a 9A83     		strh	r2, [r3, #28]	@ movhi
2169:App/STM32F4-Discovery/Libraries/STM32F4xx_StdPeriph_Driver/src/stm32f4xx_tim.c **** }
 8326              		.loc 1 2169 0
 8327 008c 0837     		adds	r7, r7, #8
 8328 008e BD46     		mov	sp, r7
 8329              		@ sp needed
 8330 0090 80BD     		pop	{r7, pc}
 8331              	.L364:
 8332 0092 00BF     		.align	2
 8333              	.L363:
 8334 0094 00000140 		.word	1073807360
 8335 0098 00040040 		.word	1073742848
 8336 009c 00080040 		.word	1073743872
 8337 00a0 000C0040 		.word	1073744896
 8338 00a4 00040140 		.word	1073808384
 8339 00a8 00000000 		.word	.LC0
 8340              		.cfi_endproc
 8341              	.LFE170:
 8343              		.section	.text.TIM_BDTRConfig,"ax",%progbits
 8344              		.align	2
 8345              		.global	TIM_BDTRConfig
 8346              		.thumb
 8347              		.thumb_func
 8349              	TIM_BDTRConfig:
 8350              	.LFB171:
2170:App/STM32F4-Discovery/Libraries/STM32F4xx_StdPeriph_Driver/src/stm32f4xx_tim.c **** /**
2171:App/STM32F4-Discovery/Libraries/STM32F4xx_StdPeriph_Driver/src/stm32f4xx_tim.c ****   * @}
2172:App/STM32F4-Discovery/Libraries/STM32F4xx_StdPeriph_Driver/src/stm32f4xx_tim.c ****   */
2173:App/STM32F4-Discovery/Libraries/STM32F4xx_StdPeriph_Driver/src/stm32f4xx_tim.c **** 
2174:App/STM32F4-Discovery/Libraries/STM32F4xx_StdPeriph_Driver/src/stm32f4xx_tim.c **** /** @defgroup TIM_Group4 Advanced-control timers (TIM1 and TIM8) specific features
2175:App/STM32F4-Discovery/Libraries/STM32F4xx_StdPeriph_Driver/src/stm32f4xx_tim.c ****  *  @brief   Advanced-control timers (TIM1 and TIM8) specific features
2176:App/STM32F4-Discovery/Libraries/STM32F4xx_StdPeriph_Driver/src/stm32f4xx_tim.c ****  *
2177:App/STM32F4-Discovery/Libraries/STM32F4xx_StdPeriph_Driver/src/stm32f4xx_tim.c **** @verbatim   
2178:App/STM32F4-Discovery/Libraries/STM32F4xx_StdPeriph_Driver/src/stm32f4xx_tim.c ****  ===============================================================================
2179:App/STM32F4-Discovery/Libraries/STM32F4xx_StdPeriph_Driver/src/stm32f4xx_tim.c ****           Advanced-control timers (TIM1 and TIM8) specific features
2180:App/STM32F4-Discovery/Libraries/STM32F4xx_StdPeriph_Driver/src/stm32f4xx_tim.c ****  ===============================================================================  
2181:App/STM32F4-Discovery/Libraries/STM32F4xx_StdPeriph_Driver/src/stm32f4xx_tim.c ****   
2182:App/STM32F4-Discovery/Libraries/STM32F4xx_StdPeriph_Driver/src/stm32f4xx_tim.c ****        ===================================================================      
2183:App/STM32F4-Discovery/Libraries/STM32F4xx_StdPeriph_Driver/src/stm32f4xx_tim.c ****               TIM Driver: how to use the Break feature
2184:App/STM32F4-Discovery/Libraries/STM32F4xx_StdPeriph_Driver/src/stm32f4xx_tim.c ****        =================================================================== 
2185:App/STM32F4-Discovery/Libraries/STM32F4xx_StdPeriph_Driver/src/stm32f4xx_tim.c ****        After configuring the Timer channel(s) in the appropriate Output Compare mode: 
2186:App/STM32F4-Discovery/Libraries/STM32F4xx_StdPeriph_Driver/src/stm32f4xx_tim.c ****                          
2187:App/STM32F4-Discovery/Libraries/STM32F4xx_StdPeriph_Driver/src/stm32f4xx_tim.c ****        1. Fill the TIM_BDTRInitStruct with the desired parameters for the Timer
2188:App/STM32F4-Discovery/Libraries/STM32F4xx_StdPeriph_Driver/src/stm32f4xx_tim.c ****           Break Polarity, dead time, Lock level, the OSSI/OSSR State and the 
2189:App/STM32F4-Discovery/Libraries/STM32F4xx_StdPeriph_Driver/src/stm32f4xx_tim.c ****           AOE(automatic output enable).
2190:App/STM32F4-Discovery/Libraries/STM32F4xx_StdPeriph_Driver/src/stm32f4xx_tim.c ****                
2191:App/STM32F4-Discovery/Libraries/STM32F4xx_StdPeriph_Driver/src/stm32f4xx_tim.c ****        2. Call TIM_BDTRConfig(TIMx, &TIM_BDTRInitStruct) to configure the Timer
2192:App/STM32F4-Discovery/Libraries/STM32F4xx_StdPeriph_Driver/src/stm32f4xx_tim.c ****           
2193:App/STM32F4-Discovery/Libraries/STM32F4xx_StdPeriph_Driver/src/stm32f4xx_tim.c ****        3. Enable the Main Output using TIM_CtrlPWMOutputs(TIM1, ENABLE) 
2194:App/STM32F4-Discovery/Libraries/STM32F4xx_StdPeriph_Driver/src/stm32f4xx_tim.c ****           
2195:App/STM32F4-Discovery/Libraries/STM32F4xx_StdPeriph_Driver/src/stm32f4xx_tim.c ****        4. Once the break even occurs, the Timer's output signals are put in reset
2196:App/STM32F4-Discovery/Libraries/STM32F4xx_StdPeriph_Driver/src/stm32f4xx_tim.c ****           state or in a known state (according to the configuration made in
2197:App/STM32F4-Discovery/Libraries/STM32F4xx_StdPeriph_Driver/src/stm32f4xx_tim.c ****           TIM_BDTRConfig() function).
2198:App/STM32F4-Discovery/Libraries/STM32F4xx_StdPeriph_Driver/src/stm32f4xx_tim.c **** 
2199:App/STM32F4-Discovery/Libraries/STM32F4xx_StdPeriph_Driver/src/stm32f4xx_tim.c **** @endverbatim
2200:App/STM32F4-Discovery/Libraries/STM32F4xx_StdPeriph_Driver/src/stm32f4xx_tim.c ****   * @{
2201:App/STM32F4-Discovery/Libraries/STM32F4xx_StdPeriph_Driver/src/stm32f4xx_tim.c ****   */
2202:App/STM32F4-Discovery/Libraries/STM32F4xx_StdPeriph_Driver/src/stm32f4xx_tim.c **** 
2203:App/STM32F4-Discovery/Libraries/STM32F4xx_StdPeriph_Driver/src/stm32f4xx_tim.c **** /**
2204:App/STM32F4-Discovery/Libraries/STM32F4xx_StdPeriph_Driver/src/stm32f4xx_tim.c ****   * @brief  Configures the Break feature, dead time, Lock level, OSSI/OSSR State
2205:App/STM32F4-Discovery/Libraries/STM32F4xx_StdPeriph_Driver/src/stm32f4xx_tim.c ****   *         and the AOE(automatic output enable).
2206:App/STM32F4-Discovery/Libraries/STM32F4xx_StdPeriph_Driver/src/stm32f4xx_tim.c ****   * @param  TIMx: where x can be  1 or 8 to select the TIM 
2207:App/STM32F4-Discovery/Libraries/STM32F4xx_StdPeriph_Driver/src/stm32f4xx_tim.c ****   * @param  TIM_BDTRInitStruct: pointer to a TIM_BDTRInitTypeDef structure that
2208:App/STM32F4-Discovery/Libraries/STM32F4xx_StdPeriph_Driver/src/stm32f4xx_tim.c ****   *         contains the BDTR Register configuration  information for the TIM peripheral.
2209:App/STM32F4-Discovery/Libraries/STM32F4xx_StdPeriph_Driver/src/stm32f4xx_tim.c ****   * @retval None
2210:App/STM32F4-Discovery/Libraries/STM32F4xx_StdPeriph_Driver/src/stm32f4xx_tim.c ****   */
2211:App/STM32F4-Discovery/Libraries/STM32F4xx_StdPeriph_Driver/src/stm32f4xx_tim.c **** void TIM_BDTRConfig(TIM_TypeDef* TIMx, TIM_BDTRInitTypeDef *TIM_BDTRInitStruct)
2212:App/STM32F4-Discovery/Libraries/STM32F4xx_StdPeriph_Driver/src/stm32f4xx_tim.c **** {
 8351              		.loc 1 2212 0
 8352              		.cfi_startproc
 8353              		@ args = 0, pretend = 0, frame = 8
 8354              		@ frame_needed = 1, uses_anonymous_args = 0
 8355 0000 80B5     		push	{r7, lr}
 8356              	.LCFI183:
 8357              		.cfi_def_cfa_offset 8
 8358              		.cfi_offset 7, -8
 8359              		.cfi_offset 14, -4
 8360 0002 82B0     		sub	sp, sp, #8
 8361              	.LCFI184:
 8362              		.cfi_def_cfa_offset 16
 8363 0004 00AF     		add	r7, sp, #0
 8364              	.LCFI185:
 8365              		.cfi_def_cfa_register 7
 8366 0006 7860     		str	r0, [r7, #4]
 8367 0008 3960     		str	r1, [r7]
2213:App/STM32F4-Discovery/Libraries/STM32F4xx_StdPeriph_Driver/src/stm32f4xx_tim.c ****   /* Check the parameters */
2214:App/STM32F4-Discovery/Libraries/STM32F4xx_StdPeriph_Driver/src/stm32f4xx_tim.c ****   assert_param(IS_TIM_LIST4_PERIPH(TIMx));
 8368              		.loc 1 2214 0
 8369 000a 7A68     		ldr	r2, [r7, #4]
 8370 000c 444B     		ldr	r3, .L373
 8371 000e 9A42     		cmp	r2, r3
 8372 0010 08D0     		beq	.L366
 8373              		.loc 1 2214 0 is_stmt 0 discriminator 1
 8374 0012 7A68     		ldr	r2, [r7, #4]
 8375 0014 434B     		ldr	r3, .L373+4
 8376 0016 9A42     		cmp	r2, r3
 8377 0018 04D0     		beq	.L366
 8378 001a 4348     		ldr	r0, .L373+8
 8379 001c 40F6A601 		movw	r1, #2214
 8380 0020 FFF7FEFF 		bl	assert_failed
 8381              	.L366:
2215:App/STM32F4-Discovery/Libraries/STM32F4xx_StdPeriph_Driver/src/stm32f4xx_tim.c ****   assert_param(IS_TIM_OSSR_STATE(TIM_BDTRInitStruct->TIM_OSSRState));
 8382              		.loc 1 2215 0 is_stmt 1
 8383 0024 3B68     		ldr	r3, [r7]
 8384 0026 1B88     		ldrh	r3, [r3]
 8385 0028 B3F5006F 		cmp	r3, #2048
 8386 002c 08D0     		beq	.L367
 8387              		.loc 1 2215 0 is_stmt 0 discriminator 1
 8388 002e 3B68     		ldr	r3, [r7]
 8389 0030 1B88     		ldrh	r3, [r3]
 8390 0032 002B     		cmp	r3, #0
 8391 0034 04D0     		beq	.L367
 8392 0036 3C48     		ldr	r0, .L373+8
 8393 0038 40F6A701 		movw	r1, #2215
 8394 003c FFF7FEFF 		bl	assert_failed
 8395              	.L367:
2216:App/STM32F4-Discovery/Libraries/STM32F4xx_StdPeriph_Driver/src/stm32f4xx_tim.c ****   assert_param(IS_TIM_OSSI_STATE(TIM_BDTRInitStruct->TIM_OSSIState));
 8396              		.loc 1 2216 0 is_stmt 1
 8397 0040 3B68     		ldr	r3, [r7]
 8398 0042 5B88     		ldrh	r3, [r3, #2]
 8399 0044 B3F5806F 		cmp	r3, #1024
 8400 0048 08D0     		beq	.L368
 8401              		.loc 1 2216 0 is_stmt 0 discriminator 1
 8402 004a 3B68     		ldr	r3, [r7]
 8403 004c 5B88     		ldrh	r3, [r3, #2]
 8404 004e 002B     		cmp	r3, #0
 8405 0050 04D0     		beq	.L368
 8406 0052 3548     		ldr	r0, .L373+8
 8407 0054 40F6A801 		movw	r1, #2216
 8408 0058 FFF7FEFF 		bl	assert_failed
 8409              	.L368:
2217:App/STM32F4-Discovery/Libraries/STM32F4xx_StdPeriph_Driver/src/stm32f4xx_tim.c ****   assert_param(IS_TIM_LOCK_LEVEL(TIM_BDTRInitStruct->TIM_LOCKLevel));
 8410              		.loc 1 2217 0 is_stmt 1
 8411 005c 3B68     		ldr	r3, [r7]
 8412 005e 9B88     		ldrh	r3, [r3, #4]
 8413 0060 002B     		cmp	r3, #0
 8414 0062 13D0     		beq	.L369
 8415              		.loc 1 2217 0 is_stmt 0 discriminator 1
 8416 0064 3B68     		ldr	r3, [r7]
 8417 0066 9B88     		ldrh	r3, [r3, #4]
 8418 0068 B3F5807F 		cmp	r3, #256
 8419 006c 0ED0     		beq	.L369
 8420 006e 3B68     		ldr	r3, [r7]
 8421 0070 9B88     		ldrh	r3, [r3, #4]
 8422 0072 B3F5007F 		cmp	r3, #512
 8423 0076 09D0     		beq	.L369
 8424 0078 3B68     		ldr	r3, [r7]
 8425 007a 9B88     		ldrh	r3, [r3, #4]
 8426 007c B3F5407F 		cmp	r3, #768
 8427 0080 04D0     		beq	.L369
 8428 0082 2948     		ldr	r0, .L373+8
 8429 0084 40F6A901 		movw	r1, #2217
 8430 0088 FFF7FEFF 		bl	assert_failed
 8431              	.L369:
2218:App/STM32F4-Discovery/Libraries/STM32F4xx_StdPeriph_Driver/src/stm32f4xx_tim.c ****   assert_param(IS_TIM_BREAK_STATE(TIM_BDTRInitStruct->TIM_Break));
 8432              		.loc 1 2218 0 is_stmt 1
 8433 008c 3B68     		ldr	r3, [r7]
 8434 008e 1B89     		ldrh	r3, [r3, #8]
 8435 0090 B3F5805F 		cmp	r3, #4096
 8436 0094 08D0     		beq	.L370
 8437              		.loc 1 2218 0 is_stmt 0 discriminator 1
 8438 0096 3B68     		ldr	r3, [r7]
 8439 0098 1B89     		ldrh	r3, [r3, #8]
 8440 009a 002B     		cmp	r3, #0
 8441 009c 04D0     		beq	.L370
 8442 009e 2248     		ldr	r0, .L373+8
 8443 00a0 40F6AA01 		movw	r1, #2218
 8444 00a4 FFF7FEFF 		bl	assert_failed
 8445              	.L370:
2219:App/STM32F4-Discovery/Libraries/STM32F4xx_StdPeriph_Driver/src/stm32f4xx_tim.c ****   assert_param(IS_TIM_BREAK_POLARITY(TIM_BDTRInitStruct->TIM_BreakPolarity));
 8446              		.loc 1 2219 0 is_stmt 1
 8447 00a8 3B68     		ldr	r3, [r7]
 8448 00aa 5B89     		ldrh	r3, [r3, #10]
 8449 00ac 002B     		cmp	r3, #0
 8450 00ae 09D0     		beq	.L371
 8451              		.loc 1 2219 0 is_stmt 0 discriminator 1
 8452 00b0 3B68     		ldr	r3, [r7]
 8453 00b2 5B89     		ldrh	r3, [r3, #10]
 8454 00b4 B3F5005F 		cmp	r3, #8192
 8455 00b8 04D0     		beq	.L371
 8456 00ba 1B48     		ldr	r0, .L373+8
 8457 00bc 40F6AB01 		movw	r1, #2219
 8458 00c0 FFF7FEFF 		bl	assert_failed
 8459              	.L371:
2220:App/STM32F4-Discovery/Libraries/STM32F4xx_StdPeriph_Driver/src/stm32f4xx_tim.c ****   assert_param(IS_TIM_AUTOMATIC_OUTPUT_STATE(TIM_BDTRInitStruct->TIM_AutomaticOutput));
 8460              		.loc 1 2220 0 is_stmt 1
 8461 00c4 3B68     		ldr	r3, [r7]
 8462 00c6 9B89     		ldrh	r3, [r3, #12]
 8463 00c8 B3F5804F 		cmp	r3, #16384
 8464 00cc 08D0     		beq	.L372
 8465              		.loc 1 2220 0 is_stmt 0 discriminator 1
 8466 00ce 3B68     		ldr	r3, [r7]
 8467 00d0 9B89     		ldrh	r3, [r3, #12]
 8468 00d2 002B     		cmp	r3, #0
 8469 00d4 04D0     		beq	.L372
 8470 00d6 1448     		ldr	r0, .L373+8
 8471 00d8 40F6AC01 		movw	r1, #2220
 8472 00dc FFF7FEFF 		bl	assert_failed
 8473              	.L372:
2221:App/STM32F4-Discovery/Libraries/STM32F4xx_StdPeriph_Driver/src/stm32f4xx_tim.c **** 
2222:App/STM32F4-Discovery/Libraries/STM32F4xx_StdPeriph_Driver/src/stm32f4xx_tim.c ****   /* Set the Lock level, the Break enable Bit and the Polarity, the OSSR State,
2223:App/STM32F4-Discovery/Libraries/STM32F4xx_StdPeriph_Driver/src/stm32f4xx_tim.c ****      the OSSI State, the dead time value and the Automatic Output Enable Bit */
2224:App/STM32F4-Discovery/Libraries/STM32F4xx_StdPeriph_Driver/src/stm32f4xx_tim.c ****   TIMx->BDTR = (uint32_t)TIM_BDTRInitStruct->TIM_OSSRState | TIM_BDTRInitStruct->TIM_OSSIState |
 8474              		.loc 1 2224 0 is_stmt 1
 8475 00e0 3B68     		ldr	r3, [r7]
 8476 00e2 1A88     		ldrh	r2, [r3]
 8477 00e4 3B68     		ldr	r3, [r7]
 8478 00e6 5B88     		ldrh	r3, [r3, #2]
 8479 00e8 1343     		orrs	r3, r3, r2
 8480 00ea 9AB2     		uxth	r2, r3
2225:App/STM32F4-Discovery/Libraries/STM32F4xx_StdPeriph_Driver/src/stm32f4xx_tim.c ****              TIM_BDTRInitStruct->TIM_LOCKLevel | TIM_BDTRInitStruct->TIM_DeadTime |
 8481              		.loc 1 2225 0
 8482 00ec 3B68     		ldr	r3, [r7]
 8483 00ee 9B88     		ldrh	r3, [r3, #4]
2224:App/STM32F4-Discovery/Libraries/STM32F4xx_StdPeriph_Driver/src/stm32f4xx_tim.c ****   TIMx->BDTR = (uint32_t)TIM_BDTRInitStruct->TIM_OSSRState | TIM_BDTRInitStruct->TIM_OSSIState |
 8484              		.loc 1 2224 0
 8485 00f0 1343     		orrs	r3, r3, r2
 8486 00f2 9AB2     		uxth	r2, r3
 8487              		.loc 1 2225 0
 8488 00f4 3B68     		ldr	r3, [r7]
 8489 00f6 DB88     		ldrh	r3, [r3, #6]
2224:App/STM32F4-Discovery/Libraries/STM32F4xx_StdPeriph_Driver/src/stm32f4xx_tim.c ****   TIMx->BDTR = (uint32_t)TIM_BDTRInitStruct->TIM_OSSRState | TIM_BDTRInitStruct->TIM_OSSIState |
 8490              		.loc 1 2224 0
 8491 00f8 1343     		orrs	r3, r3, r2
 8492 00fa 9AB2     		uxth	r2, r3
2226:App/STM32F4-Discovery/Libraries/STM32F4xx_StdPeriph_Driver/src/stm32f4xx_tim.c ****              TIM_BDTRInitStruct->TIM_Break | TIM_BDTRInitStruct->TIM_BreakPolarity |
 8493              		.loc 1 2226 0
 8494 00fc 3B68     		ldr	r3, [r7]
 8495 00fe 1B89     		ldrh	r3, [r3, #8]
2224:App/STM32F4-Discovery/Libraries/STM32F4xx_StdPeriph_Driver/src/stm32f4xx_tim.c ****   TIMx->BDTR = (uint32_t)TIM_BDTRInitStruct->TIM_OSSRState | TIM_BDTRInitStruct->TIM_OSSIState |
 8496              		.loc 1 2224 0
 8497 0100 1343     		orrs	r3, r3, r2
 8498 0102 9AB2     		uxth	r2, r3
 8499              		.loc 1 2226 0
 8500 0104 3B68     		ldr	r3, [r7]
 8501 0106 5B89     		ldrh	r3, [r3, #10]
2224:App/STM32F4-Discovery/Libraries/STM32F4xx_StdPeriph_Driver/src/stm32f4xx_tim.c ****   TIMx->BDTR = (uint32_t)TIM_BDTRInitStruct->TIM_OSSRState | TIM_BDTRInitStruct->TIM_OSSIState |
 8502              		.loc 1 2224 0
 8503 0108 1343     		orrs	r3, r3, r2
 8504 010a 9AB2     		uxth	r2, r3
2227:App/STM32F4-Discovery/Libraries/STM32F4xx_StdPeriph_Driver/src/stm32f4xx_tim.c ****              TIM_BDTRInitStruct->TIM_AutomaticOutput;
 8505              		.loc 1 2227 0
 8506 010c 3B68     		ldr	r3, [r7]
 8507 010e 9B89     		ldrh	r3, [r3, #12]
2224:App/STM32F4-Discovery/Libraries/STM32F4xx_StdPeriph_Driver/src/stm32f4xx_tim.c ****   TIMx->BDTR = (uint32_t)TIM_BDTRInitStruct->TIM_OSSRState | TIM_BDTRInitStruct->TIM_OSSIState |
 8508              		.loc 1 2224 0
 8509 0110 1343     		orrs	r3, r3, r2
 8510 0112 9AB2     		uxth	r2, r3
 8511 0114 7B68     		ldr	r3, [r7, #4]
 8512 0116 A3F84420 		strh	r2, [r3, #68]	@ movhi
2228:App/STM32F4-Discovery/Libraries/STM32F4xx_StdPeriph_Driver/src/stm32f4xx_tim.c **** }
 8513              		.loc 1 2228 0
 8514 011a 0837     		adds	r7, r7, #8
 8515 011c BD46     		mov	sp, r7
 8516              		@ sp needed
 8517 011e 80BD     		pop	{r7, pc}
 8518              	.L374:
 8519              		.align	2
 8520              	.L373:
 8521 0120 00000140 		.word	1073807360
 8522 0124 00040140 		.word	1073808384
 8523 0128 00000000 		.word	.LC0
 8524              		.cfi_endproc
 8525              	.LFE171:
 8527              		.section	.text.TIM_BDTRStructInit,"ax",%progbits
 8528              		.align	2
 8529              		.global	TIM_BDTRStructInit
 8530              		.thumb
 8531              		.thumb_func
 8533              	TIM_BDTRStructInit:
 8534              	.LFB172:
2229:App/STM32F4-Discovery/Libraries/STM32F4xx_StdPeriph_Driver/src/stm32f4xx_tim.c **** 
2230:App/STM32F4-Discovery/Libraries/STM32F4xx_StdPeriph_Driver/src/stm32f4xx_tim.c **** /**
2231:App/STM32F4-Discovery/Libraries/STM32F4xx_StdPeriph_Driver/src/stm32f4xx_tim.c ****   * @brief  Fills each TIM_BDTRInitStruct member with its default value.
2232:App/STM32F4-Discovery/Libraries/STM32F4xx_StdPeriph_Driver/src/stm32f4xx_tim.c ****   * @param  TIM_BDTRInitStruct: pointer to a TIM_BDTRInitTypeDef structure which
2233:App/STM32F4-Discovery/Libraries/STM32F4xx_StdPeriph_Driver/src/stm32f4xx_tim.c ****   *         will be initialized.
2234:App/STM32F4-Discovery/Libraries/STM32F4xx_StdPeriph_Driver/src/stm32f4xx_tim.c ****   * @retval None
2235:App/STM32F4-Discovery/Libraries/STM32F4xx_StdPeriph_Driver/src/stm32f4xx_tim.c ****   */
2236:App/STM32F4-Discovery/Libraries/STM32F4xx_StdPeriph_Driver/src/stm32f4xx_tim.c **** void TIM_BDTRStructInit(TIM_BDTRInitTypeDef* TIM_BDTRInitStruct)
2237:App/STM32F4-Discovery/Libraries/STM32F4xx_StdPeriph_Driver/src/stm32f4xx_tim.c **** {
 8535              		.loc 1 2237 0
 8536              		.cfi_startproc
 8537              		@ args = 0, pretend = 0, frame = 8
 8538              		@ frame_needed = 1, uses_anonymous_args = 0
 8539              		@ link register save eliminated.
 8540 0000 80B4     		push	{r7}
 8541              	.LCFI186:
 8542              		.cfi_def_cfa_offset 4
 8543              		.cfi_offset 7, -4
 8544 0002 83B0     		sub	sp, sp, #12
 8545              	.LCFI187:
 8546              		.cfi_def_cfa_offset 16
 8547 0004 00AF     		add	r7, sp, #0
 8548              	.LCFI188:
 8549              		.cfi_def_cfa_register 7
 8550 0006 7860     		str	r0, [r7, #4]
2238:App/STM32F4-Discovery/Libraries/STM32F4xx_StdPeriph_Driver/src/stm32f4xx_tim.c ****   /* Set the default configuration */
2239:App/STM32F4-Discovery/Libraries/STM32F4xx_StdPeriph_Driver/src/stm32f4xx_tim.c ****   TIM_BDTRInitStruct->TIM_OSSRState = TIM_OSSRState_Disable;
 8551              		.loc 1 2239 0
 8552 0008 7B68     		ldr	r3, [r7, #4]
 8553 000a 0022     		movs	r2, #0
 8554 000c 1A80     		strh	r2, [r3]	@ movhi
2240:App/STM32F4-Discovery/Libraries/STM32F4xx_StdPeriph_Driver/src/stm32f4xx_tim.c ****   TIM_BDTRInitStruct->TIM_OSSIState = TIM_OSSIState_Disable;
 8555              		.loc 1 2240 0
 8556 000e 7B68     		ldr	r3, [r7, #4]
 8557 0010 0022     		movs	r2, #0
 8558 0012 5A80     		strh	r2, [r3, #2]	@ movhi
2241:App/STM32F4-Discovery/Libraries/STM32F4xx_StdPeriph_Driver/src/stm32f4xx_tim.c ****   TIM_BDTRInitStruct->TIM_LOCKLevel = TIM_LOCKLevel_OFF;
 8559              		.loc 1 2241 0
 8560 0014 7B68     		ldr	r3, [r7, #4]
 8561 0016 0022     		movs	r2, #0
 8562 0018 9A80     		strh	r2, [r3, #4]	@ movhi
2242:App/STM32F4-Discovery/Libraries/STM32F4xx_StdPeriph_Driver/src/stm32f4xx_tim.c ****   TIM_BDTRInitStruct->TIM_DeadTime = 0x00;
 8563              		.loc 1 2242 0
 8564 001a 7B68     		ldr	r3, [r7, #4]
 8565 001c 0022     		movs	r2, #0
 8566 001e DA80     		strh	r2, [r3, #6]	@ movhi
2243:App/STM32F4-Discovery/Libraries/STM32F4xx_StdPeriph_Driver/src/stm32f4xx_tim.c ****   TIM_BDTRInitStruct->TIM_Break = TIM_Break_Disable;
 8567              		.loc 1 2243 0
 8568 0020 7B68     		ldr	r3, [r7, #4]
 8569 0022 0022     		movs	r2, #0
 8570 0024 1A81     		strh	r2, [r3, #8]	@ movhi
2244:App/STM32F4-Discovery/Libraries/STM32F4xx_StdPeriph_Driver/src/stm32f4xx_tim.c ****   TIM_BDTRInitStruct->TIM_BreakPolarity = TIM_BreakPolarity_Low;
 8571              		.loc 1 2244 0
 8572 0026 7B68     		ldr	r3, [r7, #4]
 8573 0028 0022     		movs	r2, #0
 8574 002a 5A81     		strh	r2, [r3, #10]	@ movhi
2245:App/STM32F4-Discovery/Libraries/STM32F4xx_StdPeriph_Driver/src/stm32f4xx_tim.c ****   TIM_BDTRInitStruct->TIM_AutomaticOutput = TIM_AutomaticOutput_Disable;
 8575              		.loc 1 2245 0
 8576 002c 7B68     		ldr	r3, [r7, #4]
 8577 002e 0022     		movs	r2, #0
 8578 0030 9A81     		strh	r2, [r3, #12]	@ movhi
2246:App/STM32F4-Discovery/Libraries/STM32F4xx_StdPeriph_Driver/src/stm32f4xx_tim.c **** }
 8579              		.loc 1 2246 0
 8580 0032 0C37     		adds	r7, r7, #12
 8581 0034 BD46     		mov	sp, r7
 8582              		@ sp needed
 8583 0036 5DF8047B 		ldr	r7, [sp], #4
 8584 003a 7047     		bx	lr
 8585              		.cfi_endproc
 8586              	.LFE172:
 8588              		.section	.text.TIM_CtrlPWMOutputs,"ax",%progbits
 8589              		.align	2
 8590              		.global	TIM_CtrlPWMOutputs
 8591              		.thumb
 8592              		.thumb_func
 8594              	TIM_CtrlPWMOutputs:
 8595              	.LFB173:
2247:App/STM32F4-Discovery/Libraries/STM32F4xx_StdPeriph_Driver/src/stm32f4xx_tim.c **** 
2248:App/STM32F4-Discovery/Libraries/STM32F4xx_StdPeriph_Driver/src/stm32f4xx_tim.c **** /**
2249:App/STM32F4-Discovery/Libraries/STM32F4xx_StdPeriph_Driver/src/stm32f4xx_tim.c ****   * @brief  Enables or disables the TIM peripheral Main Outputs.
2250:App/STM32F4-Discovery/Libraries/STM32F4xx_StdPeriph_Driver/src/stm32f4xx_tim.c ****   * @param  TIMx: where x can be 1 or 8 to select the TIMx peripheral.
2251:App/STM32F4-Discovery/Libraries/STM32F4xx_StdPeriph_Driver/src/stm32f4xx_tim.c ****   * @param  NewState: new state of the TIM peripheral Main Outputs.
2252:App/STM32F4-Discovery/Libraries/STM32F4xx_StdPeriph_Driver/src/stm32f4xx_tim.c ****   *          This parameter can be: ENABLE or DISABLE.
2253:App/STM32F4-Discovery/Libraries/STM32F4xx_StdPeriph_Driver/src/stm32f4xx_tim.c ****   * @retval None
2254:App/STM32F4-Discovery/Libraries/STM32F4xx_StdPeriph_Driver/src/stm32f4xx_tim.c ****   */
2255:App/STM32F4-Discovery/Libraries/STM32F4xx_StdPeriph_Driver/src/stm32f4xx_tim.c **** void TIM_CtrlPWMOutputs(TIM_TypeDef* TIMx, FunctionalState NewState)
2256:App/STM32F4-Discovery/Libraries/STM32F4xx_StdPeriph_Driver/src/stm32f4xx_tim.c **** {
 8596              		.loc 1 2256 0
 8597              		.cfi_startproc
 8598              		@ args = 0, pretend = 0, frame = 8
 8599              		@ frame_needed = 1, uses_anonymous_args = 0
 8600 0000 80B5     		push	{r7, lr}
 8601              	.LCFI189:
 8602              		.cfi_def_cfa_offset 8
 8603              		.cfi_offset 7, -8
 8604              		.cfi_offset 14, -4
 8605 0002 82B0     		sub	sp, sp, #8
 8606              	.LCFI190:
 8607              		.cfi_def_cfa_offset 16
 8608 0004 00AF     		add	r7, sp, #0
 8609              	.LCFI191:
 8610              		.cfi_def_cfa_register 7
 8611 0006 7860     		str	r0, [r7, #4]
 8612 0008 0B46     		mov	r3, r1
 8613 000a FB70     		strb	r3, [r7, #3]
2257:App/STM32F4-Discovery/Libraries/STM32F4xx_StdPeriph_Driver/src/stm32f4xx_tim.c ****   /* Check the parameters */
2258:App/STM32F4-Discovery/Libraries/STM32F4xx_StdPeriph_Driver/src/stm32f4xx_tim.c ****   assert_param(IS_TIM_LIST4_PERIPH(TIMx));
 8614              		.loc 1 2258 0
 8615 000c 7A68     		ldr	r2, [r7, #4]
 8616 000e 1A4B     		ldr	r3, .L381
 8617 0010 9A42     		cmp	r2, r3
 8618 0012 08D0     		beq	.L377
 8619              		.loc 1 2258 0 is_stmt 0 discriminator 1
 8620 0014 7A68     		ldr	r2, [r7, #4]
 8621 0016 194B     		ldr	r3, .L381+4
 8622 0018 9A42     		cmp	r2, r3
 8623 001a 04D0     		beq	.L377
 8624 001c 1848     		ldr	r0, .L381+8
 8625 001e 40F6D201 		movw	r1, #2258
 8626 0022 FFF7FEFF 		bl	assert_failed
 8627              	.L377:
2259:App/STM32F4-Discovery/Libraries/STM32F4xx_StdPeriph_Driver/src/stm32f4xx_tim.c ****   assert_param(IS_FUNCTIONAL_STATE(NewState));
 8628              		.loc 1 2259 0 is_stmt 1
 8629 0026 FB78     		ldrb	r3, [r7, #3]	@ zero_extendqisi2
 8630 0028 002B     		cmp	r3, #0
 8631 002a 07D0     		beq	.L378
 8632              		.loc 1 2259 0 is_stmt 0 discriminator 1
 8633 002c FB78     		ldrb	r3, [r7, #3]	@ zero_extendqisi2
 8634 002e 012B     		cmp	r3, #1
 8635 0030 04D0     		beq	.L378
 8636 0032 1348     		ldr	r0, .L381+8
 8637 0034 40F6D301 		movw	r1, #2259
 8638 0038 FFF7FEFF 		bl	assert_failed
 8639              	.L378:
2260:App/STM32F4-Discovery/Libraries/STM32F4xx_StdPeriph_Driver/src/stm32f4xx_tim.c **** 
2261:App/STM32F4-Discovery/Libraries/STM32F4xx_StdPeriph_Driver/src/stm32f4xx_tim.c ****   if (NewState != DISABLE)
 8640              		.loc 1 2261 0 is_stmt 1
 8641 003c FB78     		ldrb	r3, [r7, #3]	@ zero_extendqisi2
 8642 003e 002B     		cmp	r3, #0
 8643 0040 0CD0     		beq	.L379
2262:App/STM32F4-Discovery/Libraries/STM32F4xx_StdPeriph_Driver/src/stm32f4xx_tim.c ****   {
2263:App/STM32F4-Discovery/Libraries/STM32F4xx_StdPeriph_Driver/src/stm32f4xx_tim.c ****     /* Enable the TIM Main Output */
2264:App/STM32F4-Discovery/Libraries/STM32F4xx_StdPeriph_Driver/src/stm32f4xx_tim.c ****     TIMx->BDTR |= TIM_BDTR_MOE;
 8644              		.loc 1 2264 0
 8645 0042 7B68     		ldr	r3, [r7, #4]
 8646 0044 B3F84430 		ldrh	r3, [r3, #68]	@ movhi
 8647 0048 9BB2     		uxth	r3, r3
 8648 004a 6FEA4343 		mvn	r3, r3, lsl #17
 8649 004e 6FEA5343 		mvn	r3, r3, lsr #17
 8650 0052 9AB2     		uxth	r2, r3
 8651 0054 7B68     		ldr	r3, [r7, #4]
 8652 0056 A3F84420 		strh	r2, [r3, #68]	@ movhi
 8653 005a 09E0     		b	.L376
 8654              	.L379:
2265:App/STM32F4-Discovery/Libraries/STM32F4xx_StdPeriph_Driver/src/stm32f4xx_tim.c ****   }
2266:App/STM32F4-Discovery/Libraries/STM32F4xx_StdPeriph_Driver/src/stm32f4xx_tim.c ****   else
2267:App/STM32F4-Discovery/Libraries/STM32F4xx_StdPeriph_Driver/src/stm32f4xx_tim.c ****   {
2268:App/STM32F4-Discovery/Libraries/STM32F4xx_StdPeriph_Driver/src/stm32f4xx_tim.c ****     /* Disable the TIM Main Output */
2269:App/STM32F4-Discovery/Libraries/STM32F4xx_StdPeriph_Driver/src/stm32f4xx_tim.c ****     TIMx->BDTR &= (uint16_t)~TIM_BDTR_MOE;
 8655              		.loc 1 2269 0
 8656 005c 7B68     		ldr	r3, [r7, #4]
 8657 005e B3F84430 		ldrh	r3, [r3, #68]	@ movhi
 8658 0062 9BB2     		uxth	r3, r3
 8659 0064 C3F30E03 		ubfx	r3, r3, #0, #15
 8660 0068 9AB2     		uxth	r2, r3
 8661 006a 7B68     		ldr	r3, [r7, #4]
 8662 006c A3F84420 		strh	r2, [r3, #68]	@ movhi
 8663              	.L376:
2270:App/STM32F4-Discovery/Libraries/STM32F4xx_StdPeriph_Driver/src/stm32f4xx_tim.c ****   }  
2271:App/STM32F4-Discovery/Libraries/STM32F4xx_StdPeriph_Driver/src/stm32f4xx_tim.c **** }
 8664              		.loc 1 2271 0
 8665 0070 0837     		adds	r7, r7, #8
 8666 0072 BD46     		mov	sp, r7
 8667              		@ sp needed
 8668 0074 80BD     		pop	{r7, pc}
 8669              	.L382:
 8670 0076 00BF     		.align	2
 8671              	.L381:
 8672 0078 00000140 		.word	1073807360
 8673 007c 00040140 		.word	1073808384
 8674 0080 00000000 		.word	.LC0
 8675              		.cfi_endproc
 8676              	.LFE173:
 8678              		.section	.text.TIM_SelectCOM,"ax",%progbits
 8679              		.align	2
 8680              		.global	TIM_SelectCOM
 8681              		.thumb
 8682              		.thumb_func
 8684              	TIM_SelectCOM:
 8685              	.LFB174:
2272:App/STM32F4-Discovery/Libraries/STM32F4xx_StdPeriph_Driver/src/stm32f4xx_tim.c **** 
2273:App/STM32F4-Discovery/Libraries/STM32F4xx_StdPeriph_Driver/src/stm32f4xx_tim.c **** /**
2274:App/STM32F4-Discovery/Libraries/STM32F4xx_StdPeriph_Driver/src/stm32f4xx_tim.c ****   * @brief  Selects the TIM peripheral Commutation event.
2275:App/STM32F4-Discovery/Libraries/STM32F4xx_StdPeriph_Driver/src/stm32f4xx_tim.c ****   * @param  TIMx: where x can be  1 or 8 to select the TIMx peripheral
2276:App/STM32F4-Discovery/Libraries/STM32F4xx_StdPeriph_Driver/src/stm32f4xx_tim.c ****   * @param  NewState: new state of the Commutation event.
2277:App/STM32F4-Discovery/Libraries/STM32F4xx_StdPeriph_Driver/src/stm32f4xx_tim.c ****   *          This parameter can be: ENABLE or DISABLE.
2278:App/STM32F4-Discovery/Libraries/STM32F4xx_StdPeriph_Driver/src/stm32f4xx_tim.c ****   * @retval None
2279:App/STM32F4-Discovery/Libraries/STM32F4xx_StdPeriph_Driver/src/stm32f4xx_tim.c ****   */
2280:App/STM32F4-Discovery/Libraries/STM32F4xx_StdPeriph_Driver/src/stm32f4xx_tim.c **** void TIM_SelectCOM(TIM_TypeDef* TIMx, FunctionalState NewState)
2281:App/STM32F4-Discovery/Libraries/STM32F4xx_StdPeriph_Driver/src/stm32f4xx_tim.c **** {
 8686              		.loc 1 2281 0
 8687              		.cfi_startproc
 8688              		@ args = 0, pretend = 0, frame = 8
 8689              		@ frame_needed = 1, uses_anonymous_args = 0
 8690 0000 80B5     		push	{r7, lr}
 8691              	.LCFI192:
 8692              		.cfi_def_cfa_offset 8
 8693              		.cfi_offset 7, -8
 8694              		.cfi_offset 14, -4
 8695 0002 82B0     		sub	sp, sp, #8
 8696              	.LCFI193:
 8697              		.cfi_def_cfa_offset 16
 8698 0004 00AF     		add	r7, sp, #0
 8699              	.LCFI194:
 8700              		.cfi_def_cfa_register 7
 8701 0006 7860     		str	r0, [r7, #4]
 8702 0008 0B46     		mov	r3, r1
 8703 000a FB70     		strb	r3, [r7, #3]
2282:App/STM32F4-Discovery/Libraries/STM32F4xx_StdPeriph_Driver/src/stm32f4xx_tim.c ****   /* Check the parameters */
2283:App/STM32F4-Discovery/Libraries/STM32F4xx_StdPeriph_Driver/src/stm32f4xx_tim.c ****   assert_param(IS_TIM_LIST4_PERIPH(TIMx));
 8704              		.loc 1 2283 0
 8705 000c 7A68     		ldr	r2, [r7, #4]
 8706 000e 174B     		ldr	r3, .L388
 8707 0010 9A42     		cmp	r2, r3
 8708 0012 08D0     		beq	.L384
 8709              		.loc 1 2283 0 is_stmt 0 discriminator 1
 8710 0014 7A68     		ldr	r2, [r7, #4]
 8711 0016 164B     		ldr	r3, .L388+4
 8712 0018 9A42     		cmp	r2, r3
 8713 001a 04D0     		beq	.L384
 8714 001c 1548     		ldr	r0, .L388+8
 8715 001e 40F6EB01 		movw	r1, #2283
 8716 0022 FFF7FEFF 		bl	assert_failed
 8717              	.L384:
2284:App/STM32F4-Discovery/Libraries/STM32F4xx_StdPeriph_Driver/src/stm32f4xx_tim.c ****   assert_param(IS_FUNCTIONAL_STATE(NewState));
 8718              		.loc 1 2284 0 is_stmt 1
 8719 0026 FB78     		ldrb	r3, [r7, #3]	@ zero_extendqisi2
 8720 0028 002B     		cmp	r3, #0
 8721 002a 07D0     		beq	.L385
 8722              		.loc 1 2284 0 is_stmt 0 discriminator 1
 8723 002c FB78     		ldrb	r3, [r7, #3]	@ zero_extendqisi2
 8724 002e 012B     		cmp	r3, #1
 8725 0030 04D0     		beq	.L385
 8726 0032 1048     		ldr	r0, .L388+8
 8727 0034 40F6EC01 		movw	r1, #2284
 8728 0038 FFF7FEFF 		bl	assert_failed
 8729              	.L385:
2285:App/STM32F4-Discovery/Libraries/STM32F4xx_StdPeriph_Driver/src/stm32f4xx_tim.c **** 
2286:App/STM32F4-Discovery/Libraries/STM32F4xx_StdPeriph_Driver/src/stm32f4xx_tim.c ****   if (NewState != DISABLE)
 8730              		.loc 1 2286 0 is_stmt 1
 8731 003c FB78     		ldrb	r3, [r7, #3]	@ zero_extendqisi2
 8732 003e 002B     		cmp	r3, #0
 8733 0040 08D0     		beq	.L386
2287:App/STM32F4-Discovery/Libraries/STM32F4xx_StdPeriph_Driver/src/stm32f4xx_tim.c ****   {
2288:App/STM32F4-Discovery/Libraries/STM32F4xx_StdPeriph_Driver/src/stm32f4xx_tim.c ****     /* Set the COM Bit */
2289:App/STM32F4-Discovery/Libraries/STM32F4xx_StdPeriph_Driver/src/stm32f4xx_tim.c ****     TIMx->CR2 |= TIM_CR2_CCUS;
 8734              		.loc 1 2289 0
 8735 0042 7B68     		ldr	r3, [r7, #4]
 8736 0044 9B88     		ldrh	r3, [r3, #4]	@ movhi
 8737 0046 9BB2     		uxth	r3, r3
 8738 0048 43F00403 		orr	r3, r3, #4
 8739 004c 9AB2     		uxth	r2, r3
 8740 004e 7B68     		ldr	r3, [r7, #4]
 8741 0050 9A80     		strh	r2, [r3, #4]	@ movhi
 8742 0052 07E0     		b	.L383
 8743              	.L386:
2290:App/STM32F4-Discovery/Libraries/STM32F4xx_StdPeriph_Driver/src/stm32f4xx_tim.c ****   }
2291:App/STM32F4-Discovery/Libraries/STM32F4xx_StdPeriph_Driver/src/stm32f4xx_tim.c ****   else
2292:App/STM32F4-Discovery/Libraries/STM32F4xx_StdPeriph_Driver/src/stm32f4xx_tim.c ****   {
2293:App/STM32F4-Discovery/Libraries/STM32F4xx_StdPeriph_Driver/src/stm32f4xx_tim.c ****     /* Reset the COM Bit */
2294:App/STM32F4-Discovery/Libraries/STM32F4xx_StdPeriph_Driver/src/stm32f4xx_tim.c ****     TIMx->CR2 &= (uint16_t)~TIM_CR2_CCUS;
 8744              		.loc 1 2294 0
 8745 0054 7B68     		ldr	r3, [r7, #4]
 8746 0056 9B88     		ldrh	r3, [r3, #4]	@ movhi
 8747 0058 9BB2     		uxth	r3, r3
 8748 005a 23F00403 		bic	r3, r3, #4
 8749 005e 9AB2     		uxth	r2, r3
 8750 0060 7B68     		ldr	r3, [r7, #4]
 8751 0062 9A80     		strh	r2, [r3, #4]	@ movhi
 8752              	.L383:
2295:App/STM32F4-Discovery/Libraries/STM32F4xx_StdPeriph_Driver/src/stm32f4xx_tim.c ****   }
2296:App/STM32F4-Discovery/Libraries/STM32F4xx_StdPeriph_Driver/src/stm32f4xx_tim.c **** }
 8753              		.loc 1 2296 0
 8754 0064 0837     		adds	r7, r7, #8
 8755 0066 BD46     		mov	sp, r7
 8756              		@ sp needed
 8757 0068 80BD     		pop	{r7, pc}
 8758              	.L389:
 8759 006a 00BF     		.align	2
 8760              	.L388:
 8761 006c 00000140 		.word	1073807360
 8762 0070 00040140 		.word	1073808384
 8763 0074 00000000 		.word	.LC0
 8764              		.cfi_endproc
 8765              	.LFE174:
 8767              		.section	.text.TIM_CCPreloadControl,"ax",%progbits
 8768              		.align	2
 8769              		.global	TIM_CCPreloadControl
 8770              		.thumb
 8771              		.thumb_func
 8773              	TIM_CCPreloadControl:
 8774              	.LFB175:
2297:App/STM32F4-Discovery/Libraries/STM32F4xx_StdPeriph_Driver/src/stm32f4xx_tim.c **** 
2298:App/STM32F4-Discovery/Libraries/STM32F4xx_StdPeriph_Driver/src/stm32f4xx_tim.c **** /**
2299:App/STM32F4-Discovery/Libraries/STM32F4xx_StdPeriph_Driver/src/stm32f4xx_tim.c ****   * @brief  Sets or Resets the TIM peripheral Capture Compare Preload Control bit.
2300:App/STM32F4-Discovery/Libraries/STM32F4xx_StdPeriph_Driver/src/stm32f4xx_tim.c ****   * @param  TIMx: where x can be  1 or 8 to select the TIMx peripheral
2301:App/STM32F4-Discovery/Libraries/STM32F4xx_StdPeriph_Driver/src/stm32f4xx_tim.c ****   * @param  NewState: new state of the Capture Compare Preload Control bit
2302:App/STM32F4-Discovery/Libraries/STM32F4xx_StdPeriph_Driver/src/stm32f4xx_tim.c ****   *          This parameter can be: ENABLE or DISABLE.
2303:App/STM32F4-Discovery/Libraries/STM32F4xx_StdPeriph_Driver/src/stm32f4xx_tim.c ****   * @retval None
2304:App/STM32F4-Discovery/Libraries/STM32F4xx_StdPeriph_Driver/src/stm32f4xx_tim.c ****   */
2305:App/STM32F4-Discovery/Libraries/STM32F4xx_StdPeriph_Driver/src/stm32f4xx_tim.c **** void TIM_CCPreloadControl(TIM_TypeDef* TIMx, FunctionalState NewState)
2306:App/STM32F4-Discovery/Libraries/STM32F4xx_StdPeriph_Driver/src/stm32f4xx_tim.c **** { 
 8775              		.loc 1 2306 0
 8776              		.cfi_startproc
 8777              		@ args = 0, pretend = 0, frame = 8
 8778              		@ frame_needed = 1, uses_anonymous_args = 0
 8779 0000 80B5     		push	{r7, lr}
 8780              	.LCFI195:
 8781              		.cfi_def_cfa_offset 8
 8782              		.cfi_offset 7, -8
 8783              		.cfi_offset 14, -4
 8784 0002 82B0     		sub	sp, sp, #8
 8785              	.LCFI196:
 8786              		.cfi_def_cfa_offset 16
 8787 0004 00AF     		add	r7, sp, #0
 8788              	.LCFI197:
 8789              		.cfi_def_cfa_register 7
 8790 0006 7860     		str	r0, [r7, #4]
 8791 0008 0B46     		mov	r3, r1
 8792 000a FB70     		strb	r3, [r7, #3]
2307:App/STM32F4-Discovery/Libraries/STM32F4xx_StdPeriph_Driver/src/stm32f4xx_tim.c ****   /* Check the parameters */
2308:App/STM32F4-Discovery/Libraries/STM32F4xx_StdPeriph_Driver/src/stm32f4xx_tim.c ****   assert_param(IS_TIM_LIST4_PERIPH(TIMx));
 8793              		.loc 1 2308 0
 8794 000c 7A68     		ldr	r2, [r7, #4]
 8795 000e 174B     		ldr	r3, .L395
 8796 0010 9A42     		cmp	r2, r3
 8797 0012 08D0     		beq	.L391
 8798              		.loc 1 2308 0 is_stmt 0 discriminator 1
 8799 0014 7A68     		ldr	r2, [r7, #4]
 8800 0016 164B     		ldr	r3, .L395+4
 8801 0018 9A42     		cmp	r2, r3
 8802 001a 04D0     		beq	.L391
 8803 001c 1548     		ldr	r0, .L395+8
 8804 001e 40F60411 		movw	r1, #2308
 8805 0022 FFF7FEFF 		bl	assert_failed
 8806              	.L391:
2309:App/STM32F4-Discovery/Libraries/STM32F4xx_StdPeriph_Driver/src/stm32f4xx_tim.c ****   assert_param(IS_FUNCTIONAL_STATE(NewState));
 8807              		.loc 1 2309 0 is_stmt 1
 8808 0026 FB78     		ldrb	r3, [r7, #3]	@ zero_extendqisi2
 8809 0028 002B     		cmp	r3, #0
 8810 002a 07D0     		beq	.L392
 8811              		.loc 1 2309 0 is_stmt 0 discriminator 1
 8812 002c FB78     		ldrb	r3, [r7, #3]	@ zero_extendqisi2
 8813 002e 012B     		cmp	r3, #1
 8814 0030 04D0     		beq	.L392
 8815 0032 1048     		ldr	r0, .L395+8
 8816 0034 40F60511 		movw	r1, #2309
 8817 0038 FFF7FEFF 		bl	assert_failed
 8818              	.L392:
2310:App/STM32F4-Discovery/Libraries/STM32F4xx_StdPeriph_Driver/src/stm32f4xx_tim.c ****   if (NewState != DISABLE)
 8819              		.loc 1 2310 0 is_stmt 1
 8820 003c FB78     		ldrb	r3, [r7, #3]	@ zero_extendqisi2
 8821 003e 002B     		cmp	r3, #0
 8822 0040 08D0     		beq	.L393
2311:App/STM32F4-Discovery/Libraries/STM32F4xx_StdPeriph_Driver/src/stm32f4xx_tim.c ****   {
2312:App/STM32F4-Discovery/Libraries/STM32F4xx_StdPeriph_Driver/src/stm32f4xx_tim.c ****     /* Set the CCPC Bit */
2313:App/STM32F4-Discovery/Libraries/STM32F4xx_StdPeriph_Driver/src/stm32f4xx_tim.c ****     TIMx->CR2 |= TIM_CR2_CCPC;
 8823              		.loc 1 2313 0
 8824 0042 7B68     		ldr	r3, [r7, #4]
 8825 0044 9B88     		ldrh	r3, [r3, #4]	@ movhi
 8826 0046 9BB2     		uxth	r3, r3
 8827 0048 43F00103 		orr	r3, r3, #1
 8828 004c 9AB2     		uxth	r2, r3
 8829 004e 7B68     		ldr	r3, [r7, #4]
 8830 0050 9A80     		strh	r2, [r3, #4]	@ movhi
 8831 0052 07E0     		b	.L390
 8832              	.L393:
2314:App/STM32F4-Discovery/Libraries/STM32F4xx_StdPeriph_Driver/src/stm32f4xx_tim.c ****   }
2315:App/STM32F4-Discovery/Libraries/STM32F4xx_StdPeriph_Driver/src/stm32f4xx_tim.c ****   else
2316:App/STM32F4-Discovery/Libraries/STM32F4xx_StdPeriph_Driver/src/stm32f4xx_tim.c ****   {
2317:App/STM32F4-Discovery/Libraries/STM32F4xx_StdPeriph_Driver/src/stm32f4xx_tim.c ****     /* Reset the CCPC Bit */
2318:App/STM32F4-Discovery/Libraries/STM32F4xx_StdPeriph_Driver/src/stm32f4xx_tim.c ****     TIMx->CR2 &= (uint16_t)~TIM_CR2_CCPC;
 8833              		.loc 1 2318 0
 8834 0054 7B68     		ldr	r3, [r7, #4]
 8835 0056 9B88     		ldrh	r3, [r3, #4]	@ movhi
 8836 0058 9BB2     		uxth	r3, r3
 8837 005a 23F00103 		bic	r3, r3, #1
 8838 005e 9AB2     		uxth	r2, r3
 8839 0060 7B68     		ldr	r3, [r7, #4]
 8840 0062 9A80     		strh	r2, [r3, #4]	@ movhi
 8841              	.L390:
2319:App/STM32F4-Discovery/Libraries/STM32F4xx_StdPeriph_Driver/src/stm32f4xx_tim.c ****   }
2320:App/STM32F4-Discovery/Libraries/STM32F4xx_StdPeriph_Driver/src/stm32f4xx_tim.c **** }
 8842              		.loc 1 2320 0
 8843 0064 0837     		adds	r7, r7, #8
 8844 0066 BD46     		mov	sp, r7
 8845              		@ sp needed
 8846 0068 80BD     		pop	{r7, pc}
 8847              	.L396:
 8848 006a 00BF     		.align	2
 8849              	.L395:
 8850 006c 00000140 		.word	1073807360
 8851 0070 00040140 		.word	1073808384
 8852 0074 00000000 		.word	.LC0
 8853              		.cfi_endproc
 8854              	.LFE175:
 8856              		.section	.text.TIM_ITConfig,"ax",%progbits
 8857              		.align	2
 8858              		.global	TIM_ITConfig
 8859              		.thumb
 8860              		.thumb_func
 8862              	TIM_ITConfig:
 8863              	.LFB176:
2321:App/STM32F4-Discovery/Libraries/STM32F4xx_StdPeriph_Driver/src/stm32f4xx_tim.c **** /**
2322:App/STM32F4-Discovery/Libraries/STM32F4xx_StdPeriph_Driver/src/stm32f4xx_tim.c ****   * @}
2323:App/STM32F4-Discovery/Libraries/STM32F4xx_StdPeriph_Driver/src/stm32f4xx_tim.c ****   */
2324:App/STM32F4-Discovery/Libraries/STM32F4xx_StdPeriph_Driver/src/stm32f4xx_tim.c **** 
2325:App/STM32F4-Discovery/Libraries/STM32F4xx_StdPeriph_Driver/src/stm32f4xx_tim.c **** /** @defgroup TIM_Group5 Interrupts DMA and flags management functions
2326:App/STM32F4-Discovery/Libraries/STM32F4xx_StdPeriph_Driver/src/stm32f4xx_tim.c ****  *  @brief    Interrupts, DMA and flags management functions 
2327:App/STM32F4-Discovery/Libraries/STM32F4xx_StdPeriph_Driver/src/stm32f4xx_tim.c ****  *
2328:App/STM32F4-Discovery/Libraries/STM32F4xx_StdPeriph_Driver/src/stm32f4xx_tim.c **** @verbatim   
2329:App/STM32F4-Discovery/Libraries/STM32F4xx_StdPeriph_Driver/src/stm32f4xx_tim.c ****  ===============================================================================
2330:App/STM32F4-Discovery/Libraries/STM32F4xx_StdPeriph_Driver/src/stm32f4xx_tim.c ****                  Interrupts, DMA and flags management functions
2331:App/STM32F4-Discovery/Libraries/STM32F4xx_StdPeriph_Driver/src/stm32f4xx_tim.c ****  ===============================================================================  
2332:App/STM32F4-Discovery/Libraries/STM32F4xx_StdPeriph_Driver/src/stm32f4xx_tim.c **** 
2333:App/STM32F4-Discovery/Libraries/STM32F4xx_StdPeriph_Driver/src/stm32f4xx_tim.c **** @endverbatim
2334:App/STM32F4-Discovery/Libraries/STM32F4xx_StdPeriph_Driver/src/stm32f4xx_tim.c ****   * @{
2335:App/STM32F4-Discovery/Libraries/STM32F4xx_StdPeriph_Driver/src/stm32f4xx_tim.c ****   */
2336:App/STM32F4-Discovery/Libraries/STM32F4xx_StdPeriph_Driver/src/stm32f4xx_tim.c **** 
2337:App/STM32F4-Discovery/Libraries/STM32F4xx_StdPeriph_Driver/src/stm32f4xx_tim.c **** /**
2338:App/STM32F4-Discovery/Libraries/STM32F4xx_StdPeriph_Driver/src/stm32f4xx_tim.c ****   * @brief  Enables or disables the specified TIM interrupts.
2339:App/STM32F4-Discovery/Libraries/STM32F4xx_StdPeriph_Driver/src/stm32f4xx_tim.c ****   * @param  TIMx: where x can be 1 to 14 to select the TIMx peripheral.
2340:App/STM32F4-Discovery/Libraries/STM32F4xx_StdPeriph_Driver/src/stm32f4xx_tim.c ****   * @param  TIM_IT: specifies the TIM interrupts sources to be enabled or disabled.
2341:App/STM32F4-Discovery/Libraries/STM32F4xx_StdPeriph_Driver/src/stm32f4xx_tim.c ****   *          This parameter can be any combination of the following values:
2342:App/STM32F4-Discovery/Libraries/STM32F4xx_StdPeriph_Driver/src/stm32f4xx_tim.c ****   *            @arg TIM_IT_Update: TIM update Interrupt source
2343:App/STM32F4-Discovery/Libraries/STM32F4xx_StdPeriph_Driver/src/stm32f4xx_tim.c ****   *            @arg TIM_IT_CC1: TIM Capture Compare 1 Interrupt source
2344:App/STM32F4-Discovery/Libraries/STM32F4xx_StdPeriph_Driver/src/stm32f4xx_tim.c ****   *            @arg TIM_IT_CC2: TIM Capture Compare 2 Interrupt source
2345:App/STM32F4-Discovery/Libraries/STM32F4xx_StdPeriph_Driver/src/stm32f4xx_tim.c ****   *            @arg TIM_IT_CC3: TIM Capture Compare 3 Interrupt source
2346:App/STM32F4-Discovery/Libraries/STM32F4xx_StdPeriph_Driver/src/stm32f4xx_tim.c ****   *            @arg TIM_IT_CC4: TIM Capture Compare 4 Interrupt source
2347:App/STM32F4-Discovery/Libraries/STM32F4xx_StdPeriph_Driver/src/stm32f4xx_tim.c ****   *            @arg TIM_IT_COM: TIM Commutation Interrupt source
2348:App/STM32F4-Discovery/Libraries/STM32F4xx_StdPeriph_Driver/src/stm32f4xx_tim.c ****   *            @arg TIM_IT_Trigger: TIM Trigger Interrupt source
2349:App/STM32F4-Discovery/Libraries/STM32F4xx_StdPeriph_Driver/src/stm32f4xx_tim.c ****   *            @arg TIM_IT_Break: TIM Break Interrupt source
2350:App/STM32F4-Discovery/Libraries/STM32F4xx_StdPeriph_Driver/src/stm32f4xx_tim.c ****   *  
2351:App/STM32F4-Discovery/Libraries/STM32F4xx_StdPeriph_Driver/src/stm32f4xx_tim.c ****   * @note   For TIM6 and TIM7 only the parameter TIM_IT_Update can be used
2352:App/STM32F4-Discovery/Libraries/STM32F4xx_StdPeriph_Driver/src/stm32f4xx_tim.c ****   * @note   For TIM9 and TIM12 only one of the following parameters can be used: TIM_IT_Update,
2353:App/STM32F4-Discovery/Libraries/STM32F4xx_StdPeriph_Driver/src/stm32f4xx_tim.c ****   *          TIM_IT_CC1, TIM_IT_CC2 or TIM_IT_Trigger. 
2354:App/STM32F4-Discovery/Libraries/STM32F4xx_StdPeriph_Driver/src/stm32f4xx_tim.c ****   * @note   For TIM10, TIM11, TIM13 and TIM14 only one of the following parameters can
2355:App/STM32F4-Discovery/Libraries/STM32F4xx_StdPeriph_Driver/src/stm32f4xx_tim.c ****   *          be used: TIM_IT_Update or TIM_IT_CC1   
2356:App/STM32F4-Discovery/Libraries/STM32F4xx_StdPeriph_Driver/src/stm32f4xx_tim.c ****   * @note   TIM_IT_COM and TIM_IT_Break can be used only with TIM1 and TIM8 
2357:App/STM32F4-Discovery/Libraries/STM32F4xx_StdPeriph_Driver/src/stm32f4xx_tim.c ****   *        
2358:App/STM32F4-Discovery/Libraries/STM32F4xx_StdPeriph_Driver/src/stm32f4xx_tim.c ****   * @param  NewState: new state of the TIM interrupts.
2359:App/STM32F4-Discovery/Libraries/STM32F4xx_StdPeriph_Driver/src/stm32f4xx_tim.c ****   *          This parameter can be: ENABLE or DISABLE.
2360:App/STM32F4-Discovery/Libraries/STM32F4xx_StdPeriph_Driver/src/stm32f4xx_tim.c ****   * @retval None
2361:App/STM32F4-Discovery/Libraries/STM32F4xx_StdPeriph_Driver/src/stm32f4xx_tim.c ****   */
2362:App/STM32F4-Discovery/Libraries/STM32F4xx_StdPeriph_Driver/src/stm32f4xx_tim.c **** void TIM_ITConfig(TIM_TypeDef* TIMx, uint16_t TIM_IT, FunctionalState NewState)
2363:App/STM32F4-Discovery/Libraries/STM32F4xx_StdPeriph_Driver/src/stm32f4xx_tim.c **** {  
 8864              		.loc 1 2363 0
 8865              		.cfi_startproc
 8866              		@ args = 0, pretend = 0, frame = 8
 8867              		@ frame_needed = 1, uses_anonymous_args = 0
 8868 0000 80B5     		push	{r7, lr}
 8869              	.LCFI198:
 8870              		.cfi_def_cfa_offset 8
 8871              		.cfi_offset 7, -8
 8872              		.cfi_offset 14, -4
 8873 0002 82B0     		sub	sp, sp, #8
 8874              	.LCFI199:
 8875              		.cfi_def_cfa_offset 16
 8876 0004 00AF     		add	r7, sp, #0
 8877              	.LCFI200:
 8878              		.cfi_def_cfa_register 7
 8879 0006 7860     		str	r0, [r7, #4]
 8880 0008 1346     		mov	r3, r2
 8881 000a 0A46     		mov	r2, r1	@ movhi
 8882 000c 7A80     		strh	r2, [r7, #2]	@ movhi
 8883 000e 7B70     		strb	r3, [r7, #1]
2364:App/STM32F4-Discovery/Libraries/STM32F4xx_StdPeriph_Driver/src/stm32f4xx_tim.c ****   /* Check the parameters */
2365:App/STM32F4-Discovery/Libraries/STM32F4xx_StdPeriph_Driver/src/stm32f4xx_tim.c ****   assert_param(IS_TIM_ALL_PERIPH(TIMx));
 8884              		.loc 1 2365 0
 8885 0010 7A68     		ldr	r2, [r7, #4]
 8886 0012 364B     		ldr	r3, .L404
 8887 0014 9A42     		cmp	r2, r3
 8888 0016 38D0     		beq	.L398
 8889              		.loc 1 2365 0 is_stmt 0 discriminator 1
 8890 0018 7B68     		ldr	r3, [r7, #4]
 8891 001a B3F1804F 		cmp	r3, #1073741824
 8892 001e 34D0     		beq	.L398
 8893 0020 7A68     		ldr	r2, [r7, #4]
 8894 0022 334B     		ldr	r3, .L404+4
 8895 0024 9A42     		cmp	r2, r3
 8896 0026 30D0     		beq	.L398
 8897 0028 7A68     		ldr	r2, [r7, #4]
 8898 002a 324B     		ldr	r3, .L404+8
 8899 002c 9A42     		cmp	r2, r3
 8900 002e 2CD0     		beq	.L398
 8901 0030 7A68     		ldr	r2, [r7, #4]
 8902 0032 314B     		ldr	r3, .L404+12
 8903 0034 9A42     		cmp	r2, r3
 8904 0036 28D0     		beq	.L398
 8905 0038 7A68     		ldr	r2, [r7, #4]
 8906 003a 304B     		ldr	r3, .L404+16
 8907 003c 9A42     		cmp	r2, r3
 8908 003e 24D0     		beq	.L398
 8909 0040 7A68     		ldr	r2, [r7, #4]
 8910 0042 2F4B     		ldr	r3, .L404+20
 8911 0044 9A42     		cmp	r2, r3
 8912 0046 20D0     		beq	.L398
 8913 0048 7A68     		ldr	r2, [r7, #4]
 8914 004a 2E4B     		ldr	r3, .L404+24
 8915 004c 9A42     		cmp	r2, r3
 8916 004e 1CD0     		beq	.L398
 8917 0050 7A68     		ldr	r2, [r7, #4]
 8918 0052 2D4B     		ldr	r3, .L404+28
 8919 0054 9A42     		cmp	r2, r3
 8920 0056 18D0     		beq	.L398
 8921 0058 7A68     		ldr	r2, [r7, #4]
 8922 005a 2C4B     		ldr	r3, .L404+32
 8923 005c 9A42     		cmp	r2, r3
 8924 005e 14D0     		beq	.L398
 8925 0060 7A68     		ldr	r2, [r7, #4]
 8926 0062 2B4B     		ldr	r3, .L404+36
 8927 0064 9A42     		cmp	r2, r3
 8928 0066 10D0     		beq	.L398
 8929 0068 7A68     		ldr	r2, [r7, #4]
 8930 006a 2A4B     		ldr	r3, .L404+40
 8931 006c 9A42     		cmp	r2, r3
 8932 006e 0CD0     		beq	.L398
 8933 0070 7A68     		ldr	r2, [r7, #4]
 8934 0072 294B     		ldr	r3, .L404+44
 8935 0074 9A42     		cmp	r2, r3
 8936 0076 08D0     		beq	.L398
 8937 0078 7A68     		ldr	r2, [r7, #4]
 8938 007a 284B     		ldr	r3, .L404+48
 8939 007c 9A42     		cmp	r2, r3
 8940 007e 04D0     		beq	.L398
 8941 0080 2748     		ldr	r0, .L404+52
 8942 0082 40F63D11 		movw	r1, #2365
 8943 0086 FFF7FEFF 		bl	assert_failed
 8944              	.L398:
2366:App/STM32F4-Discovery/Libraries/STM32F4xx_StdPeriph_Driver/src/stm32f4xx_tim.c ****   assert_param(IS_TIM_IT(TIM_IT));
 8945              		.loc 1 2366 0 is_stmt 1
 8946 008a 7B88     		ldrh	r3, [r7, #2]
 8947 008c 03F47F43 		and	r3, r3, #65280
 8948 0090 002B     		cmp	r3, #0
 8949 0092 02D1     		bne	.L399
 8950              		.loc 1 2366 0 is_stmt 0 discriminator 2
 8951 0094 7B88     		ldrh	r3, [r7, #2]
 8952 0096 002B     		cmp	r3, #0
 8953 0098 04D1     		bne	.L400
 8954              	.L399:
 8955              		.loc 1 2366 0 discriminator 1
 8956 009a 2148     		ldr	r0, .L404+52
 8957 009c 40F63E11 		movw	r1, #2366
 8958 00a0 FFF7FEFF 		bl	assert_failed
 8959              	.L400:
2367:App/STM32F4-Discovery/Libraries/STM32F4xx_StdPeriph_Driver/src/stm32f4xx_tim.c ****   assert_param(IS_FUNCTIONAL_STATE(NewState));
 8960              		.loc 1 2367 0 is_stmt 1
 8961 00a4 7B78     		ldrb	r3, [r7, #1]	@ zero_extendqisi2
 8962 00a6 002B     		cmp	r3, #0
 8963 00a8 07D0     		beq	.L401
 8964              		.loc 1 2367 0 is_stmt 0 discriminator 1
 8965 00aa 7B78     		ldrb	r3, [r7, #1]	@ zero_extendqisi2
 8966 00ac 012B     		cmp	r3, #1
 8967 00ae 04D0     		beq	.L401
 8968 00b0 1B48     		ldr	r0, .L404+52
 8969 00b2 40F63F11 		movw	r1, #2367
 8970 00b6 FFF7FEFF 		bl	assert_failed
 8971              	.L401:
2368:App/STM32F4-Discovery/Libraries/STM32F4xx_StdPeriph_Driver/src/stm32f4xx_tim.c ****   
2369:App/STM32F4-Discovery/Libraries/STM32F4xx_StdPeriph_Driver/src/stm32f4xx_tim.c ****   if (NewState != DISABLE)
 8972              		.loc 1 2369 0 is_stmt 1
 8973 00ba 7B78     		ldrb	r3, [r7, #1]	@ zero_extendqisi2
 8974 00bc 002B     		cmp	r3, #0
 8975 00be 08D0     		beq	.L402
2370:App/STM32F4-Discovery/Libraries/STM32F4xx_StdPeriph_Driver/src/stm32f4xx_tim.c ****   {
2371:App/STM32F4-Discovery/Libraries/STM32F4xx_StdPeriph_Driver/src/stm32f4xx_tim.c ****     /* Enable the Interrupt sources */
2372:App/STM32F4-Discovery/Libraries/STM32F4xx_StdPeriph_Driver/src/stm32f4xx_tim.c ****     TIMx->DIER |= TIM_IT;
 8976              		.loc 1 2372 0
 8977 00c0 7B68     		ldr	r3, [r7, #4]
 8978 00c2 9B89     		ldrh	r3, [r3, #12]	@ movhi
 8979 00c4 9AB2     		uxth	r2, r3
 8980 00c6 7B88     		ldrh	r3, [r7, #2]	@ movhi
 8981 00c8 1343     		orrs	r3, r3, r2
 8982 00ca 9AB2     		uxth	r2, r3
 8983 00cc 7B68     		ldr	r3, [r7, #4]
 8984 00ce 9A81     		strh	r2, [r3, #12]	@ movhi
 8985 00d0 09E0     		b	.L397
 8986              	.L402:
2373:App/STM32F4-Discovery/Libraries/STM32F4xx_StdPeriph_Driver/src/stm32f4xx_tim.c ****   }
2374:App/STM32F4-Discovery/Libraries/STM32F4xx_StdPeriph_Driver/src/stm32f4xx_tim.c ****   else
2375:App/STM32F4-Discovery/Libraries/STM32F4xx_StdPeriph_Driver/src/stm32f4xx_tim.c ****   {
2376:App/STM32F4-Discovery/Libraries/STM32F4xx_StdPeriph_Driver/src/stm32f4xx_tim.c ****     /* Disable the Interrupt sources */
2377:App/STM32F4-Discovery/Libraries/STM32F4xx_StdPeriph_Driver/src/stm32f4xx_tim.c ****     TIMx->DIER &= (uint16_t)~TIM_IT;
 8987              		.loc 1 2377 0
 8988 00d2 7B68     		ldr	r3, [r7, #4]
 8989 00d4 9B89     		ldrh	r3, [r3, #12]	@ movhi
 8990 00d6 9AB2     		uxth	r2, r3
 8991 00d8 7B88     		ldrh	r3, [r7, #2]	@ movhi
 8992 00da DB43     		mvns	r3, r3
 8993 00dc 9BB2     		uxth	r3, r3
 8994 00de 1340     		ands	r3, r3, r2
 8995 00e0 9AB2     		uxth	r2, r3
 8996 00e2 7B68     		ldr	r3, [r7, #4]
 8997 00e4 9A81     		strh	r2, [r3, #12]	@ movhi
 8998              	.L397:
2378:App/STM32F4-Discovery/Libraries/STM32F4xx_StdPeriph_Driver/src/stm32f4xx_tim.c ****   }
2379:App/STM32F4-Discovery/Libraries/STM32F4xx_StdPeriph_Driver/src/stm32f4xx_tim.c **** }
 8999              		.loc 1 2379 0
 9000 00e6 0837     		adds	r7, r7, #8
 9001 00e8 BD46     		mov	sp, r7
 9002              		@ sp needed
 9003 00ea 80BD     		pop	{r7, pc}
 9004              	.L405:
 9005              		.align	2
 9006              	.L404:
 9007 00ec 00000140 		.word	1073807360
 9008 00f0 00040040 		.word	1073742848
 9009 00f4 00080040 		.word	1073743872
 9010 00f8 000C0040 		.word	1073744896
 9011 00fc 00100040 		.word	1073745920
 9012 0100 00140040 		.word	1073746944
 9013 0104 00040140 		.word	1073808384
 9014 0108 00400140 		.word	1073823744
 9015 010c 00440140 		.word	1073824768
 9016 0110 00480140 		.word	1073825792
 9017 0114 00180040 		.word	1073747968
 9018 0118 001C0040 		.word	1073748992
 9019 011c 00200040 		.word	1073750016
 9020 0120 00000000 		.word	.LC0
 9021              		.cfi_endproc
 9022              	.LFE176:
 9024              		.section	.text.TIM_GenerateEvent,"ax",%progbits
 9025              		.align	2
 9026              		.global	TIM_GenerateEvent
 9027              		.thumb
 9028              		.thumb_func
 9030              	TIM_GenerateEvent:
 9031              	.LFB177:
2380:App/STM32F4-Discovery/Libraries/STM32F4xx_StdPeriph_Driver/src/stm32f4xx_tim.c **** 
2381:App/STM32F4-Discovery/Libraries/STM32F4xx_StdPeriph_Driver/src/stm32f4xx_tim.c **** /**
2382:App/STM32F4-Discovery/Libraries/STM32F4xx_StdPeriph_Driver/src/stm32f4xx_tim.c ****   * @brief  Configures the TIMx event to be generate by software.
2383:App/STM32F4-Discovery/Libraries/STM32F4xx_StdPeriph_Driver/src/stm32f4xx_tim.c ****   * @param  TIMx: where x can be 1 to 14 to select the TIM peripheral.
2384:App/STM32F4-Discovery/Libraries/STM32F4xx_StdPeriph_Driver/src/stm32f4xx_tim.c ****   * @param  TIM_EventSource: specifies the event source.
2385:App/STM32F4-Discovery/Libraries/STM32F4xx_StdPeriph_Driver/src/stm32f4xx_tim.c ****   *          This parameter can be one or more of the following values:	   
2386:App/STM32F4-Discovery/Libraries/STM32F4xx_StdPeriph_Driver/src/stm32f4xx_tim.c ****   *            @arg TIM_EventSource_Update: Timer update Event source
2387:App/STM32F4-Discovery/Libraries/STM32F4xx_StdPeriph_Driver/src/stm32f4xx_tim.c ****   *            @arg TIM_EventSource_CC1: Timer Capture Compare 1 Event source
2388:App/STM32F4-Discovery/Libraries/STM32F4xx_StdPeriph_Driver/src/stm32f4xx_tim.c ****   *            @arg TIM_EventSource_CC2: Timer Capture Compare 2 Event source
2389:App/STM32F4-Discovery/Libraries/STM32F4xx_StdPeriph_Driver/src/stm32f4xx_tim.c ****   *            @arg TIM_EventSource_CC3: Timer Capture Compare 3 Event source
2390:App/STM32F4-Discovery/Libraries/STM32F4xx_StdPeriph_Driver/src/stm32f4xx_tim.c ****   *            @arg TIM_EventSource_CC4: Timer Capture Compare 4 Event source
2391:App/STM32F4-Discovery/Libraries/STM32F4xx_StdPeriph_Driver/src/stm32f4xx_tim.c ****   *            @arg TIM_EventSource_COM: Timer COM event source  
2392:App/STM32F4-Discovery/Libraries/STM32F4xx_StdPeriph_Driver/src/stm32f4xx_tim.c ****   *            @arg TIM_EventSource_Trigger: Timer Trigger Event source
2393:App/STM32F4-Discovery/Libraries/STM32F4xx_StdPeriph_Driver/src/stm32f4xx_tim.c ****   *            @arg TIM_EventSource_Break: Timer Break event source
2394:App/STM32F4-Discovery/Libraries/STM32F4xx_StdPeriph_Driver/src/stm32f4xx_tim.c ****   * 
2395:App/STM32F4-Discovery/Libraries/STM32F4xx_StdPeriph_Driver/src/stm32f4xx_tim.c ****   * @note   TIM6 and TIM7 can only generate an update event. 
2396:App/STM32F4-Discovery/Libraries/STM32F4xx_StdPeriph_Driver/src/stm32f4xx_tim.c ****   * @note   TIM_EventSource_COM and TIM_EventSource_Break are used only with TIM1 and TIM8.
2397:App/STM32F4-Discovery/Libraries/STM32F4xx_StdPeriph_Driver/src/stm32f4xx_tim.c ****   *        
2398:App/STM32F4-Discovery/Libraries/STM32F4xx_StdPeriph_Driver/src/stm32f4xx_tim.c ****   * @retval None
2399:App/STM32F4-Discovery/Libraries/STM32F4xx_StdPeriph_Driver/src/stm32f4xx_tim.c ****   */
2400:App/STM32F4-Discovery/Libraries/STM32F4xx_StdPeriph_Driver/src/stm32f4xx_tim.c **** void TIM_GenerateEvent(TIM_TypeDef* TIMx, uint16_t TIM_EventSource)
2401:App/STM32F4-Discovery/Libraries/STM32F4xx_StdPeriph_Driver/src/stm32f4xx_tim.c **** { 
 9032              		.loc 1 2401 0
 9033              		.cfi_startproc
 9034              		@ args = 0, pretend = 0, frame = 8
 9035              		@ frame_needed = 1, uses_anonymous_args = 0
 9036 0000 80B5     		push	{r7, lr}
 9037              	.LCFI201:
 9038              		.cfi_def_cfa_offset 8
 9039              		.cfi_offset 7, -8
 9040              		.cfi_offset 14, -4
 9041 0002 82B0     		sub	sp, sp, #8
 9042              	.LCFI202:
 9043              		.cfi_def_cfa_offset 16
 9044 0004 00AF     		add	r7, sp, #0
 9045              	.LCFI203:
 9046              		.cfi_def_cfa_register 7
 9047 0006 7860     		str	r0, [r7, #4]
 9048 0008 0B46     		mov	r3, r1
 9049 000a 7B80     		strh	r3, [r7, #2]	@ movhi
2402:App/STM32F4-Discovery/Libraries/STM32F4xx_StdPeriph_Driver/src/stm32f4xx_tim.c ****   /* Check the parameters */
2403:App/STM32F4-Discovery/Libraries/STM32F4xx_StdPeriph_Driver/src/stm32f4xx_tim.c ****   assert_param(IS_TIM_ALL_PERIPH(TIMx));
 9050              		.loc 1 2403 0
 9051 000c 7A68     		ldr	r2, [r7, #4]
 9052 000e 274B     		ldr	r3, .L410
 9053 0010 9A42     		cmp	r2, r3
 9054 0012 38D0     		beq	.L407
 9055              		.loc 1 2403 0 is_stmt 0 discriminator 1
 9056 0014 7B68     		ldr	r3, [r7, #4]
 9057 0016 B3F1804F 		cmp	r3, #1073741824
 9058 001a 34D0     		beq	.L407
 9059 001c 7A68     		ldr	r2, [r7, #4]
 9060 001e 244B     		ldr	r3, .L410+4
 9061 0020 9A42     		cmp	r2, r3
 9062 0022 30D0     		beq	.L407
 9063 0024 7A68     		ldr	r2, [r7, #4]
 9064 0026 234B     		ldr	r3, .L410+8
 9065 0028 9A42     		cmp	r2, r3
 9066 002a 2CD0     		beq	.L407
 9067 002c 7A68     		ldr	r2, [r7, #4]
 9068 002e 224B     		ldr	r3, .L410+12
 9069 0030 9A42     		cmp	r2, r3
 9070 0032 28D0     		beq	.L407
 9071 0034 7A68     		ldr	r2, [r7, #4]
 9072 0036 214B     		ldr	r3, .L410+16
 9073 0038 9A42     		cmp	r2, r3
 9074 003a 24D0     		beq	.L407
 9075 003c 7A68     		ldr	r2, [r7, #4]
 9076 003e 204B     		ldr	r3, .L410+20
 9077 0040 9A42     		cmp	r2, r3
 9078 0042 20D0     		beq	.L407
 9079 0044 7A68     		ldr	r2, [r7, #4]
 9080 0046 1F4B     		ldr	r3, .L410+24
 9081 0048 9A42     		cmp	r2, r3
 9082 004a 1CD0     		beq	.L407
 9083 004c 7A68     		ldr	r2, [r7, #4]
 9084 004e 1E4B     		ldr	r3, .L410+28
 9085 0050 9A42     		cmp	r2, r3
 9086 0052 18D0     		beq	.L407
 9087 0054 7A68     		ldr	r2, [r7, #4]
 9088 0056 1D4B     		ldr	r3, .L410+32
 9089 0058 9A42     		cmp	r2, r3
 9090 005a 14D0     		beq	.L407
 9091 005c 7A68     		ldr	r2, [r7, #4]
 9092 005e 1C4B     		ldr	r3, .L410+36
 9093 0060 9A42     		cmp	r2, r3
 9094 0062 10D0     		beq	.L407
 9095 0064 7A68     		ldr	r2, [r7, #4]
 9096 0066 1B4B     		ldr	r3, .L410+40
 9097 0068 9A42     		cmp	r2, r3
 9098 006a 0CD0     		beq	.L407
 9099 006c 7A68     		ldr	r2, [r7, #4]
 9100 006e 1A4B     		ldr	r3, .L410+44
 9101 0070 9A42     		cmp	r2, r3
 9102 0072 08D0     		beq	.L407
 9103 0074 7A68     		ldr	r2, [r7, #4]
 9104 0076 194B     		ldr	r3, .L410+48
 9105 0078 9A42     		cmp	r2, r3
 9106 007a 04D0     		beq	.L407
 9107 007c 1848     		ldr	r0, .L410+52
 9108 007e 40F66311 		movw	r1, #2403
 9109 0082 FFF7FEFF 		bl	assert_failed
 9110              	.L407:
2404:App/STM32F4-Discovery/Libraries/STM32F4xx_StdPeriph_Driver/src/stm32f4xx_tim.c ****   assert_param(IS_TIM_EVENT_SOURCE(TIM_EventSource));
 9111              		.loc 1 2404 0 is_stmt 1
 9112 0086 7B88     		ldrh	r3, [r7, #2]
 9113 0088 03F47F43 		and	r3, r3, #65280
 9114 008c 002B     		cmp	r3, #0
 9115 008e 02D1     		bne	.L408
 9116              		.loc 1 2404 0 is_stmt 0 discriminator 2
 9117 0090 7B88     		ldrh	r3, [r7, #2]
 9118 0092 002B     		cmp	r3, #0
 9119 0094 04D1     		bne	.L409
 9120              	.L408:
 9121              		.loc 1 2404 0 discriminator 1
 9122 0096 1248     		ldr	r0, .L410+52
 9123 0098 40F66411 		movw	r1, #2404
 9124 009c FFF7FEFF 		bl	assert_failed
 9125              	.L409:
2405:App/STM32F4-Discovery/Libraries/STM32F4xx_StdPeriph_Driver/src/stm32f4xx_tim.c ****  
2406:App/STM32F4-Discovery/Libraries/STM32F4xx_StdPeriph_Driver/src/stm32f4xx_tim.c ****   /* Set the event sources */
2407:App/STM32F4-Discovery/Libraries/STM32F4xx_StdPeriph_Driver/src/stm32f4xx_tim.c ****   TIMx->EGR = TIM_EventSource;
 9126              		.loc 1 2407 0 is_stmt 1
 9127 00a0 7B68     		ldr	r3, [r7, #4]
 9128 00a2 7A88     		ldrh	r2, [r7, #2]	@ movhi
 9129 00a4 9A82     		strh	r2, [r3, #20]	@ movhi
2408:App/STM32F4-Discovery/Libraries/STM32F4xx_StdPeriph_Driver/src/stm32f4xx_tim.c **** }
 9130              		.loc 1 2408 0
 9131 00a6 0837     		adds	r7, r7, #8
 9132 00a8 BD46     		mov	sp, r7
 9133              		@ sp needed
 9134 00aa 80BD     		pop	{r7, pc}
 9135              	.L411:
 9136              		.align	2
 9137              	.L410:
 9138 00ac 00000140 		.word	1073807360
 9139 00b0 00040040 		.word	1073742848
 9140 00b4 00080040 		.word	1073743872
 9141 00b8 000C0040 		.word	1073744896
 9142 00bc 00100040 		.word	1073745920
 9143 00c0 00140040 		.word	1073746944
 9144 00c4 00040140 		.word	1073808384
 9145 00c8 00400140 		.word	1073823744
 9146 00cc 00440140 		.word	1073824768
 9147 00d0 00480140 		.word	1073825792
 9148 00d4 00180040 		.word	1073747968
 9149 00d8 001C0040 		.word	1073748992
 9150 00dc 00200040 		.word	1073750016
 9151 00e0 00000000 		.word	.LC0
 9152              		.cfi_endproc
 9153              	.LFE177:
 9155              		.section	.text.TIM_GetFlagStatus,"ax",%progbits
 9156              		.align	2
 9157              		.global	TIM_GetFlagStatus
 9158              		.thumb
 9159              		.thumb_func
 9161              	TIM_GetFlagStatus:
 9162              	.LFB178:
2409:App/STM32F4-Discovery/Libraries/STM32F4xx_StdPeriph_Driver/src/stm32f4xx_tim.c **** 
2410:App/STM32F4-Discovery/Libraries/STM32F4xx_StdPeriph_Driver/src/stm32f4xx_tim.c **** /**
2411:App/STM32F4-Discovery/Libraries/STM32F4xx_StdPeriph_Driver/src/stm32f4xx_tim.c ****   * @brief  Checks whether the specified TIM flag is set or not.
2412:App/STM32F4-Discovery/Libraries/STM32F4xx_StdPeriph_Driver/src/stm32f4xx_tim.c ****   * @param  TIMx: where x can be 1 to 14 to select the TIM peripheral.
2413:App/STM32F4-Discovery/Libraries/STM32F4xx_StdPeriph_Driver/src/stm32f4xx_tim.c ****   * @param  TIM_FLAG: specifies the flag to check.
2414:App/STM32F4-Discovery/Libraries/STM32F4xx_StdPeriph_Driver/src/stm32f4xx_tim.c ****   *          This parameter can be one of the following values:
2415:App/STM32F4-Discovery/Libraries/STM32F4xx_StdPeriph_Driver/src/stm32f4xx_tim.c ****   *            @arg TIM_FLAG_Update: TIM update Flag
2416:App/STM32F4-Discovery/Libraries/STM32F4xx_StdPeriph_Driver/src/stm32f4xx_tim.c ****   *            @arg TIM_FLAG_CC1: TIM Capture Compare 1 Flag
2417:App/STM32F4-Discovery/Libraries/STM32F4xx_StdPeriph_Driver/src/stm32f4xx_tim.c ****   *            @arg TIM_FLAG_CC2: TIM Capture Compare 2 Flag
2418:App/STM32F4-Discovery/Libraries/STM32F4xx_StdPeriph_Driver/src/stm32f4xx_tim.c ****   *            @arg TIM_FLAG_CC3: TIM Capture Compare 3 Flag
2419:App/STM32F4-Discovery/Libraries/STM32F4xx_StdPeriph_Driver/src/stm32f4xx_tim.c ****   *            @arg TIM_FLAG_CC4: TIM Capture Compare 4 Flag
2420:App/STM32F4-Discovery/Libraries/STM32F4xx_StdPeriph_Driver/src/stm32f4xx_tim.c ****   *            @arg TIM_FLAG_COM: TIM Commutation Flag
2421:App/STM32F4-Discovery/Libraries/STM32F4xx_StdPeriph_Driver/src/stm32f4xx_tim.c ****   *            @arg TIM_FLAG_Trigger: TIM Trigger Flag
2422:App/STM32F4-Discovery/Libraries/STM32F4xx_StdPeriph_Driver/src/stm32f4xx_tim.c ****   *            @arg TIM_FLAG_Break: TIM Break Flag
2423:App/STM32F4-Discovery/Libraries/STM32F4xx_StdPeriph_Driver/src/stm32f4xx_tim.c ****   *            @arg TIM_FLAG_CC1OF: TIM Capture Compare 1 over capture Flag
2424:App/STM32F4-Discovery/Libraries/STM32F4xx_StdPeriph_Driver/src/stm32f4xx_tim.c ****   *            @arg TIM_FLAG_CC2OF: TIM Capture Compare 2 over capture Flag
2425:App/STM32F4-Discovery/Libraries/STM32F4xx_StdPeriph_Driver/src/stm32f4xx_tim.c ****   *            @arg TIM_FLAG_CC3OF: TIM Capture Compare 3 over capture Flag
2426:App/STM32F4-Discovery/Libraries/STM32F4xx_StdPeriph_Driver/src/stm32f4xx_tim.c ****   *            @arg TIM_FLAG_CC4OF: TIM Capture Compare 4 over capture Flag
2427:App/STM32F4-Discovery/Libraries/STM32F4xx_StdPeriph_Driver/src/stm32f4xx_tim.c ****   *
2428:App/STM32F4-Discovery/Libraries/STM32F4xx_StdPeriph_Driver/src/stm32f4xx_tim.c ****   * @note   TIM6 and TIM7 can have only one update flag. 
2429:App/STM32F4-Discovery/Libraries/STM32F4xx_StdPeriph_Driver/src/stm32f4xx_tim.c ****   * @note   TIM_FLAG_COM and TIM_FLAG_Break are used only with TIM1 and TIM8.    
2430:App/STM32F4-Discovery/Libraries/STM32F4xx_StdPeriph_Driver/src/stm32f4xx_tim.c ****   *
2431:App/STM32F4-Discovery/Libraries/STM32F4xx_StdPeriph_Driver/src/stm32f4xx_tim.c ****   * @retval The new state of TIM_FLAG (SET or RESET).
2432:App/STM32F4-Discovery/Libraries/STM32F4xx_StdPeriph_Driver/src/stm32f4xx_tim.c ****   */
2433:App/STM32F4-Discovery/Libraries/STM32F4xx_StdPeriph_Driver/src/stm32f4xx_tim.c **** FlagStatus TIM_GetFlagStatus(TIM_TypeDef* TIMx, uint16_t TIM_FLAG)
2434:App/STM32F4-Discovery/Libraries/STM32F4xx_StdPeriph_Driver/src/stm32f4xx_tim.c **** { 
 9163              		.loc 1 2434 0
 9164              		.cfi_startproc
 9165              		@ args = 0, pretend = 0, frame = 16
 9166              		@ frame_needed = 1, uses_anonymous_args = 0
 9167 0000 80B5     		push	{r7, lr}
 9168              	.LCFI204:
 9169              		.cfi_def_cfa_offset 8
 9170              		.cfi_offset 7, -8
 9171              		.cfi_offset 14, -4
 9172 0002 84B0     		sub	sp, sp, #16
 9173              	.LCFI205:
 9174              		.cfi_def_cfa_offset 24
 9175 0004 00AF     		add	r7, sp, #0
 9176              	.LCFI206:
 9177              		.cfi_def_cfa_register 7
 9178 0006 7860     		str	r0, [r7, #4]
 9179 0008 0B46     		mov	r3, r1
 9180 000a 7B80     		strh	r3, [r7, #2]	@ movhi
2435:App/STM32F4-Discovery/Libraries/STM32F4xx_StdPeriph_Driver/src/stm32f4xx_tim.c ****   ITStatus bitstatus = RESET;  
 9181              		.loc 1 2435 0
 9182 000c 0023     		movs	r3, #0
 9183 000e FB73     		strb	r3, [r7, #15]
2436:App/STM32F4-Discovery/Libraries/STM32F4xx_StdPeriph_Driver/src/stm32f4xx_tim.c ****   /* Check the parameters */
2437:App/STM32F4-Discovery/Libraries/STM32F4xx_StdPeriph_Driver/src/stm32f4xx_tim.c ****   assert_param(IS_TIM_ALL_PERIPH(TIMx));
 9184              		.loc 1 2437 0
 9185 0010 7A68     		ldr	r2, [r7, #4]
 9186 0012 3D4B     		ldr	r3, .L418
 9187 0014 9A42     		cmp	r2, r3
 9188 0016 38D0     		beq	.L413
 9189              		.loc 1 2437 0 is_stmt 0 discriminator 1
 9190 0018 7B68     		ldr	r3, [r7, #4]
 9191 001a B3F1804F 		cmp	r3, #1073741824
 9192 001e 34D0     		beq	.L413
 9193 0020 7A68     		ldr	r2, [r7, #4]
 9194 0022 3A4B     		ldr	r3, .L418+4
 9195 0024 9A42     		cmp	r2, r3
 9196 0026 30D0     		beq	.L413
 9197 0028 7A68     		ldr	r2, [r7, #4]
 9198 002a 394B     		ldr	r3, .L418+8
 9199 002c 9A42     		cmp	r2, r3
 9200 002e 2CD0     		beq	.L413
 9201 0030 7A68     		ldr	r2, [r7, #4]
 9202 0032 384B     		ldr	r3, .L418+12
 9203 0034 9A42     		cmp	r2, r3
 9204 0036 28D0     		beq	.L413
 9205 0038 7A68     		ldr	r2, [r7, #4]
 9206 003a 374B     		ldr	r3, .L418+16
 9207 003c 9A42     		cmp	r2, r3
 9208 003e 24D0     		beq	.L413
 9209 0040 7A68     		ldr	r2, [r7, #4]
 9210 0042 364B     		ldr	r3, .L418+20
 9211 0044 9A42     		cmp	r2, r3
 9212 0046 20D0     		beq	.L413
 9213 0048 7A68     		ldr	r2, [r7, #4]
 9214 004a 354B     		ldr	r3, .L418+24
 9215 004c 9A42     		cmp	r2, r3
 9216 004e 1CD0     		beq	.L413
 9217 0050 7A68     		ldr	r2, [r7, #4]
 9218 0052 344B     		ldr	r3, .L418+28
 9219 0054 9A42     		cmp	r2, r3
 9220 0056 18D0     		beq	.L413
 9221 0058 7A68     		ldr	r2, [r7, #4]
 9222 005a 334B     		ldr	r3, .L418+32
 9223 005c 9A42     		cmp	r2, r3
 9224 005e 14D0     		beq	.L413
 9225 0060 7A68     		ldr	r2, [r7, #4]
 9226 0062 324B     		ldr	r3, .L418+36
 9227 0064 9A42     		cmp	r2, r3
 9228 0066 10D0     		beq	.L413
 9229 0068 7A68     		ldr	r2, [r7, #4]
 9230 006a 314B     		ldr	r3, .L418+40
 9231 006c 9A42     		cmp	r2, r3
 9232 006e 0CD0     		beq	.L413
 9233 0070 7A68     		ldr	r2, [r7, #4]
 9234 0072 304B     		ldr	r3, .L418+44
 9235 0074 9A42     		cmp	r2, r3
 9236 0076 08D0     		beq	.L413
 9237 0078 7A68     		ldr	r2, [r7, #4]
 9238 007a 2F4B     		ldr	r3, .L418+48
 9239 007c 9A42     		cmp	r2, r3
 9240 007e 04D0     		beq	.L413
 9241 0080 2E48     		ldr	r0, .L418+52
 9242 0082 40F68511 		movw	r1, #2437
 9243 0086 FFF7FEFF 		bl	assert_failed
 9244              	.L413:
2438:App/STM32F4-Discovery/Libraries/STM32F4xx_StdPeriph_Driver/src/stm32f4xx_tim.c ****   assert_param(IS_TIM_GET_FLAG(TIM_FLAG));
 9245              		.loc 1 2438 0 is_stmt 1
 9246 008a 7B88     		ldrh	r3, [r7, #2]
 9247 008c 012B     		cmp	r3, #1
 9248 008e 29D0     		beq	.L414
 9249              		.loc 1 2438 0 is_stmt 0 discriminator 1
 9250 0090 7B88     		ldrh	r3, [r7, #2]
 9251 0092 022B     		cmp	r3, #2
 9252 0094 26D0     		beq	.L414
 9253 0096 7B88     		ldrh	r3, [r7, #2]
 9254 0098 042B     		cmp	r3, #4
 9255 009a 23D0     		beq	.L414
 9256 009c 7B88     		ldrh	r3, [r7, #2]
 9257 009e 082B     		cmp	r3, #8
 9258 00a0 20D0     		beq	.L414
 9259 00a2 7B88     		ldrh	r3, [r7, #2]
 9260 00a4 102B     		cmp	r3, #16
 9261 00a6 1DD0     		beq	.L414
 9262 00a8 7B88     		ldrh	r3, [r7, #2]
 9263 00aa 202B     		cmp	r3, #32
 9264 00ac 1AD0     		beq	.L414
 9265 00ae 7B88     		ldrh	r3, [r7, #2]
 9266 00b0 402B     		cmp	r3, #64
 9267 00b2 17D0     		beq	.L414
 9268 00b4 7B88     		ldrh	r3, [r7, #2]
 9269 00b6 802B     		cmp	r3, #128
 9270 00b8 14D0     		beq	.L414
 9271 00ba 7B88     		ldrh	r3, [r7, #2]
 9272 00bc B3F5007F 		cmp	r3, #512
 9273 00c0 10D0     		beq	.L414
 9274 00c2 7B88     		ldrh	r3, [r7, #2]
 9275 00c4 B3F5806F 		cmp	r3, #1024
 9276 00c8 0CD0     		beq	.L414
 9277 00ca 7B88     		ldrh	r3, [r7, #2]
 9278 00cc B3F5006F 		cmp	r3, #2048
 9279 00d0 08D0     		beq	.L414
 9280 00d2 7B88     		ldrh	r3, [r7, #2]
 9281 00d4 B3F5805F 		cmp	r3, #4096
 9282 00d8 04D0     		beq	.L414
 9283 00da 1848     		ldr	r0, .L418+52
 9284 00dc 40F68611 		movw	r1, #2438
 9285 00e0 FFF7FEFF 		bl	assert_failed
 9286              	.L414:
2439:App/STM32F4-Discovery/Libraries/STM32F4xx_StdPeriph_Driver/src/stm32f4xx_tim.c **** 
2440:App/STM32F4-Discovery/Libraries/STM32F4xx_StdPeriph_Driver/src/stm32f4xx_tim.c ****   
2441:App/STM32F4-Discovery/Libraries/STM32F4xx_StdPeriph_Driver/src/stm32f4xx_tim.c ****   if ((TIMx->SR & TIM_FLAG) != (uint16_t)RESET)
 9287              		.loc 1 2441 0 is_stmt 1
 9288 00e4 7B68     		ldr	r3, [r7, #4]
 9289 00e6 1B8A     		ldrh	r3, [r3, #16]	@ movhi
 9290 00e8 9AB2     		uxth	r2, r3
 9291 00ea 7B88     		ldrh	r3, [r7, #2]	@ movhi
 9292 00ec 1340     		ands	r3, r3, r2
 9293 00ee 9BB2     		uxth	r3, r3
 9294 00f0 002B     		cmp	r3, #0
 9295 00f2 02D0     		beq	.L415
2442:App/STM32F4-Discovery/Libraries/STM32F4xx_StdPeriph_Driver/src/stm32f4xx_tim.c ****   {
2443:App/STM32F4-Discovery/Libraries/STM32F4xx_StdPeriph_Driver/src/stm32f4xx_tim.c ****     bitstatus = SET;
 9296              		.loc 1 2443 0
 9297 00f4 0123     		movs	r3, #1
 9298 00f6 FB73     		strb	r3, [r7, #15]
 9299 00f8 01E0     		b	.L416
 9300              	.L415:
2444:App/STM32F4-Discovery/Libraries/STM32F4xx_StdPeriph_Driver/src/stm32f4xx_tim.c ****   }
2445:App/STM32F4-Discovery/Libraries/STM32F4xx_StdPeriph_Driver/src/stm32f4xx_tim.c ****   else
2446:App/STM32F4-Discovery/Libraries/STM32F4xx_StdPeriph_Driver/src/stm32f4xx_tim.c ****   {
2447:App/STM32F4-Discovery/Libraries/STM32F4xx_StdPeriph_Driver/src/stm32f4xx_tim.c ****     bitstatus = RESET;
 9301              		.loc 1 2447 0
 9302 00fa 0023     		movs	r3, #0
 9303 00fc FB73     		strb	r3, [r7, #15]
 9304              	.L416:
2448:App/STM32F4-Discovery/Libraries/STM32F4xx_StdPeriph_Driver/src/stm32f4xx_tim.c ****   }
2449:App/STM32F4-Discovery/Libraries/STM32F4xx_StdPeriph_Driver/src/stm32f4xx_tim.c ****   return bitstatus;
 9305              		.loc 1 2449 0
 9306 00fe FB7B     		ldrb	r3, [r7, #15]	@ zero_extendqisi2
2450:App/STM32F4-Discovery/Libraries/STM32F4xx_StdPeriph_Driver/src/stm32f4xx_tim.c **** }
 9307              		.loc 1 2450 0
 9308 0100 1846     		mov	r0, r3
 9309 0102 1037     		adds	r7, r7, #16
 9310 0104 BD46     		mov	sp, r7
 9311              		@ sp needed
 9312 0106 80BD     		pop	{r7, pc}
 9313              	.L419:
 9314              		.align	2
 9315              	.L418:
 9316 0108 00000140 		.word	1073807360
 9317 010c 00040040 		.word	1073742848
 9318 0110 00080040 		.word	1073743872
 9319 0114 000C0040 		.word	1073744896
 9320 0118 00100040 		.word	1073745920
 9321 011c 00140040 		.word	1073746944
 9322 0120 00040140 		.word	1073808384
 9323 0124 00400140 		.word	1073823744
 9324 0128 00440140 		.word	1073824768
 9325 012c 00480140 		.word	1073825792
 9326 0130 00180040 		.word	1073747968
 9327 0134 001C0040 		.word	1073748992
 9328 0138 00200040 		.word	1073750016
 9329 013c 00000000 		.word	.LC0
 9330              		.cfi_endproc
 9331              	.LFE178:
 9333              		.section	.text.TIM_ClearFlag,"ax",%progbits
 9334              		.align	2
 9335              		.global	TIM_ClearFlag
 9336              		.thumb
 9337              		.thumb_func
 9339              	TIM_ClearFlag:
 9340              	.LFB179:
2451:App/STM32F4-Discovery/Libraries/STM32F4xx_StdPeriph_Driver/src/stm32f4xx_tim.c **** 
2452:App/STM32F4-Discovery/Libraries/STM32F4xx_StdPeriph_Driver/src/stm32f4xx_tim.c **** /**
2453:App/STM32F4-Discovery/Libraries/STM32F4xx_StdPeriph_Driver/src/stm32f4xx_tim.c ****   * @brief  Clears the TIMx's pending flags.
2454:App/STM32F4-Discovery/Libraries/STM32F4xx_StdPeriph_Driver/src/stm32f4xx_tim.c ****   * @param  TIMx: where x can be 1 to 14 to select the TIM peripheral.
2455:App/STM32F4-Discovery/Libraries/STM32F4xx_StdPeriph_Driver/src/stm32f4xx_tim.c ****   * @param  TIM_FLAG: specifies the flag bit to clear.
2456:App/STM32F4-Discovery/Libraries/STM32F4xx_StdPeriph_Driver/src/stm32f4xx_tim.c ****   *          This parameter can be any combination of the following values:
2457:App/STM32F4-Discovery/Libraries/STM32F4xx_StdPeriph_Driver/src/stm32f4xx_tim.c ****   *            @arg TIM_FLAG_Update: TIM update Flag
2458:App/STM32F4-Discovery/Libraries/STM32F4xx_StdPeriph_Driver/src/stm32f4xx_tim.c ****   *            @arg TIM_FLAG_CC1: TIM Capture Compare 1 Flag
2459:App/STM32F4-Discovery/Libraries/STM32F4xx_StdPeriph_Driver/src/stm32f4xx_tim.c ****   *            @arg TIM_FLAG_CC2: TIM Capture Compare 2 Flag
2460:App/STM32F4-Discovery/Libraries/STM32F4xx_StdPeriph_Driver/src/stm32f4xx_tim.c ****   *            @arg TIM_FLAG_CC3: TIM Capture Compare 3 Flag
2461:App/STM32F4-Discovery/Libraries/STM32F4xx_StdPeriph_Driver/src/stm32f4xx_tim.c ****   *            @arg TIM_FLAG_CC4: TIM Capture Compare 4 Flag
2462:App/STM32F4-Discovery/Libraries/STM32F4xx_StdPeriph_Driver/src/stm32f4xx_tim.c ****   *            @arg TIM_FLAG_COM: TIM Commutation Flag
2463:App/STM32F4-Discovery/Libraries/STM32F4xx_StdPeriph_Driver/src/stm32f4xx_tim.c ****   *            @arg TIM_FLAG_Trigger: TIM Trigger Flag
2464:App/STM32F4-Discovery/Libraries/STM32F4xx_StdPeriph_Driver/src/stm32f4xx_tim.c ****   *            @arg TIM_FLAG_Break: TIM Break Flag
2465:App/STM32F4-Discovery/Libraries/STM32F4xx_StdPeriph_Driver/src/stm32f4xx_tim.c ****   *            @arg TIM_FLAG_CC1OF: TIM Capture Compare 1 over capture Flag
2466:App/STM32F4-Discovery/Libraries/STM32F4xx_StdPeriph_Driver/src/stm32f4xx_tim.c ****   *            @arg TIM_FLAG_CC2OF: TIM Capture Compare 2 over capture Flag
2467:App/STM32F4-Discovery/Libraries/STM32F4xx_StdPeriph_Driver/src/stm32f4xx_tim.c ****   *            @arg TIM_FLAG_CC3OF: TIM Capture Compare 3 over capture Flag
2468:App/STM32F4-Discovery/Libraries/STM32F4xx_StdPeriph_Driver/src/stm32f4xx_tim.c ****   *            @arg TIM_FLAG_CC4OF: TIM Capture Compare 4 over capture Flag
2469:App/STM32F4-Discovery/Libraries/STM32F4xx_StdPeriph_Driver/src/stm32f4xx_tim.c ****   *
2470:App/STM32F4-Discovery/Libraries/STM32F4xx_StdPeriph_Driver/src/stm32f4xx_tim.c ****   * @note   TIM6 and TIM7 can have only one update flag. 
2471:App/STM32F4-Discovery/Libraries/STM32F4xx_StdPeriph_Driver/src/stm32f4xx_tim.c ****   * @note   TIM_FLAG_COM and TIM_FLAG_Break are used only with TIM1 and TIM8.
2472:App/STM32F4-Discovery/Libraries/STM32F4xx_StdPeriph_Driver/src/stm32f4xx_tim.c ****   *    
2473:App/STM32F4-Discovery/Libraries/STM32F4xx_StdPeriph_Driver/src/stm32f4xx_tim.c ****   * @retval None
2474:App/STM32F4-Discovery/Libraries/STM32F4xx_StdPeriph_Driver/src/stm32f4xx_tim.c ****   */
2475:App/STM32F4-Discovery/Libraries/STM32F4xx_StdPeriph_Driver/src/stm32f4xx_tim.c **** void TIM_ClearFlag(TIM_TypeDef* TIMx, uint16_t TIM_FLAG)
2476:App/STM32F4-Discovery/Libraries/STM32F4xx_StdPeriph_Driver/src/stm32f4xx_tim.c **** {  
 9341              		.loc 1 2476 0
 9342              		.cfi_startproc
 9343              		@ args = 0, pretend = 0, frame = 8
 9344              		@ frame_needed = 1, uses_anonymous_args = 0
 9345 0000 80B5     		push	{r7, lr}
 9346              	.LCFI207:
 9347              		.cfi_def_cfa_offset 8
 9348              		.cfi_offset 7, -8
 9349              		.cfi_offset 14, -4
 9350 0002 82B0     		sub	sp, sp, #8
 9351              	.LCFI208:
 9352              		.cfi_def_cfa_offset 16
 9353 0004 00AF     		add	r7, sp, #0
 9354              	.LCFI209:
 9355              		.cfi_def_cfa_register 7
 9356 0006 7860     		str	r0, [r7, #4]
 9357 0008 0B46     		mov	r3, r1
 9358 000a 7B80     		strh	r3, [r7, #2]	@ movhi
2477:App/STM32F4-Discovery/Libraries/STM32F4xx_StdPeriph_Driver/src/stm32f4xx_tim.c ****   /* Check the parameters */
2478:App/STM32F4-Discovery/Libraries/STM32F4xx_StdPeriph_Driver/src/stm32f4xx_tim.c ****   assert_param(IS_TIM_ALL_PERIPH(TIMx));
 9359              		.loc 1 2478 0
 9360 000c 7A68     		ldr	r2, [r7, #4]
 9361 000e 224B     		ldr	r3, .L422
 9362 0010 9A42     		cmp	r2, r3
 9363 0012 38D0     		beq	.L421
 9364              		.loc 1 2478 0 is_stmt 0 discriminator 1
 9365 0014 7B68     		ldr	r3, [r7, #4]
 9366 0016 B3F1804F 		cmp	r3, #1073741824
 9367 001a 34D0     		beq	.L421
 9368 001c 7A68     		ldr	r2, [r7, #4]
 9369 001e 1F4B     		ldr	r3, .L422+4
 9370 0020 9A42     		cmp	r2, r3
 9371 0022 30D0     		beq	.L421
 9372 0024 7A68     		ldr	r2, [r7, #4]
 9373 0026 1E4B     		ldr	r3, .L422+8
 9374 0028 9A42     		cmp	r2, r3
 9375 002a 2CD0     		beq	.L421
 9376 002c 7A68     		ldr	r2, [r7, #4]
 9377 002e 1D4B     		ldr	r3, .L422+12
 9378 0030 9A42     		cmp	r2, r3
 9379 0032 28D0     		beq	.L421
 9380 0034 7A68     		ldr	r2, [r7, #4]
 9381 0036 1C4B     		ldr	r3, .L422+16
 9382 0038 9A42     		cmp	r2, r3
 9383 003a 24D0     		beq	.L421
 9384 003c 7A68     		ldr	r2, [r7, #4]
 9385 003e 1B4B     		ldr	r3, .L422+20
 9386 0040 9A42     		cmp	r2, r3
 9387 0042 20D0     		beq	.L421
 9388 0044 7A68     		ldr	r2, [r7, #4]
 9389 0046 1A4B     		ldr	r3, .L422+24
 9390 0048 9A42     		cmp	r2, r3
 9391 004a 1CD0     		beq	.L421
 9392 004c 7A68     		ldr	r2, [r7, #4]
 9393 004e 194B     		ldr	r3, .L422+28
 9394 0050 9A42     		cmp	r2, r3
 9395 0052 18D0     		beq	.L421
 9396 0054 7A68     		ldr	r2, [r7, #4]
 9397 0056 184B     		ldr	r3, .L422+32
 9398 0058 9A42     		cmp	r2, r3
 9399 005a 14D0     		beq	.L421
 9400 005c 7A68     		ldr	r2, [r7, #4]
 9401 005e 174B     		ldr	r3, .L422+36
 9402 0060 9A42     		cmp	r2, r3
 9403 0062 10D0     		beq	.L421
 9404 0064 7A68     		ldr	r2, [r7, #4]
 9405 0066 164B     		ldr	r3, .L422+40
 9406 0068 9A42     		cmp	r2, r3
 9407 006a 0CD0     		beq	.L421
 9408 006c 7A68     		ldr	r2, [r7, #4]
 9409 006e 154B     		ldr	r3, .L422+44
 9410 0070 9A42     		cmp	r2, r3
 9411 0072 08D0     		beq	.L421
 9412 0074 7A68     		ldr	r2, [r7, #4]
 9413 0076 144B     		ldr	r3, .L422+48
 9414 0078 9A42     		cmp	r2, r3
 9415 007a 04D0     		beq	.L421
 9416 007c 1348     		ldr	r0, .L422+52
 9417 007e 40F6AE11 		movw	r1, #2478
 9418 0082 FFF7FEFF 		bl	assert_failed
 9419              	.L421:
2479:App/STM32F4-Discovery/Libraries/STM32F4xx_StdPeriph_Driver/src/stm32f4xx_tim.c ****    
2480:App/STM32F4-Discovery/Libraries/STM32F4xx_StdPeriph_Driver/src/stm32f4xx_tim.c ****   /* Clear the flags */
2481:App/STM32F4-Discovery/Libraries/STM32F4xx_StdPeriph_Driver/src/stm32f4xx_tim.c ****   TIMx->SR = (uint16_t)~TIM_FLAG;
 9420              		.loc 1 2481 0 is_stmt 1
 9421 0086 7B88     		ldrh	r3, [r7, #2]	@ movhi
 9422 0088 DB43     		mvns	r3, r3
 9423 008a 9AB2     		uxth	r2, r3
 9424 008c 7B68     		ldr	r3, [r7, #4]
 9425 008e 1A82     		strh	r2, [r3, #16]	@ movhi
2482:App/STM32F4-Discovery/Libraries/STM32F4xx_StdPeriph_Driver/src/stm32f4xx_tim.c **** }
 9426              		.loc 1 2482 0
 9427 0090 0837     		adds	r7, r7, #8
 9428 0092 BD46     		mov	sp, r7
 9429              		@ sp needed
 9430 0094 80BD     		pop	{r7, pc}
 9431              	.L423:
 9432 0096 00BF     		.align	2
 9433              	.L422:
 9434 0098 00000140 		.word	1073807360
 9435 009c 00040040 		.word	1073742848
 9436 00a0 00080040 		.word	1073743872
 9437 00a4 000C0040 		.word	1073744896
 9438 00a8 00100040 		.word	1073745920
 9439 00ac 00140040 		.word	1073746944
 9440 00b0 00040140 		.word	1073808384
 9441 00b4 00400140 		.word	1073823744
 9442 00b8 00440140 		.word	1073824768
 9443 00bc 00480140 		.word	1073825792
 9444 00c0 00180040 		.word	1073747968
 9445 00c4 001C0040 		.word	1073748992
 9446 00c8 00200040 		.word	1073750016
 9447 00cc 00000000 		.word	.LC0
 9448              		.cfi_endproc
 9449              	.LFE179:
 9451              		.section	.text.TIM_GetITStatus,"ax",%progbits
 9452              		.align	2
 9453              		.global	TIM_GetITStatus
 9454              		.thumb
 9455              		.thumb_func
 9457              	TIM_GetITStatus:
 9458              	.LFB180:
2483:App/STM32F4-Discovery/Libraries/STM32F4xx_StdPeriph_Driver/src/stm32f4xx_tim.c **** 
2484:App/STM32F4-Discovery/Libraries/STM32F4xx_StdPeriph_Driver/src/stm32f4xx_tim.c **** /**
2485:App/STM32F4-Discovery/Libraries/STM32F4xx_StdPeriph_Driver/src/stm32f4xx_tim.c ****   * @brief  Checks whether the TIM interrupt has occurred or not.
2486:App/STM32F4-Discovery/Libraries/STM32F4xx_StdPeriph_Driver/src/stm32f4xx_tim.c ****   * @param  TIMx: where x can be 1 to 14 to select the TIM peripheral.
2487:App/STM32F4-Discovery/Libraries/STM32F4xx_StdPeriph_Driver/src/stm32f4xx_tim.c ****   * @param  TIM_IT: specifies the TIM interrupt source to check.
2488:App/STM32F4-Discovery/Libraries/STM32F4xx_StdPeriph_Driver/src/stm32f4xx_tim.c ****   *          This parameter can be one of the following values:
2489:App/STM32F4-Discovery/Libraries/STM32F4xx_StdPeriph_Driver/src/stm32f4xx_tim.c ****   *            @arg TIM_IT_Update: TIM update Interrupt source
2490:App/STM32F4-Discovery/Libraries/STM32F4xx_StdPeriph_Driver/src/stm32f4xx_tim.c ****   *            @arg TIM_IT_CC1: TIM Capture Compare 1 Interrupt source
2491:App/STM32F4-Discovery/Libraries/STM32F4xx_StdPeriph_Driver/src/stm32f4xx_tim.c ****   *            @arg TIM_IT_CC2: TIM Capture Compare 2 Interrupt source
2492:App/STM32F4-Discovery/Libraries/STM32F4xx_StdPeriph_Driver/src/stm32f4xx_tim.c ****   *            @arg TIM_IT_CC3: TIM Capture Compare 3 Interrupt source
2493:App/STM32F4-Discovery/Libraries/STM32F4xx_StdPeriph_Driver/src/stm32f4xx_tim.c ****   *            @arg TIM_IT_CC4: TIM Capture Compare 4 Interrupt source
2494:App/STM32F4-Discovery/Libraries/STM32F4xx_StdPeriph_Driver/src/stm32f4xx_tim.c ****   *            @arg TIM_IT_COM: TIM Commutation Interrupt source
2495:App/STM32F4-Discovery/Libraries/STM32F4xx_StdPeriph_Driver/src/stm32f4xx_tim.c ****   *            @arg TIM_IT_Trigger: TIM Trigger Interrupt source
2496:App/STM32F4-Discovery/Libraries/STM32F4xx_StdPeriph_Driver/src/stm32f4xx_tim.c ****   *            @arg TIM_IT_Break: TIM Break Interrupt source
2497:App/STM32F4-Discovery/Libraries/STM32F4xx_StdPeriph_Driver/src/stm32f4xx_tim.c ****   *
2498:App/STM32F4-Discovery/Libraries/STM32F4xx_StdPeriph_Driver/src/stm32f4xx_tim.c ****   * @note   TIM6 and TIM7 can generate only an update interrupt.
2499:App/STM32F4-Discovery/Libraries/STM32F4xx_StdPeriph_Driver/src/stm32f4xx_tim.c ****   * @note   TIM_IT_COM and TIM_IT_Break are used only with TIM1 and TIM8.
2500:App/STM32F4-Discovery/Libraries/STM32F4xx_StdPeriph_Driver/src/stm32f4xx_tim.c ****   *     
2501:App/STM32F4-Discovery/Libraries/STM32F4xx_StdPeriph_Driver/src/stm32f4xx_tim.c ****   * @retval The new state of the TIM_IT(SET or RESET).
2502:App/STM32F4-Discovery/Libraries/STM32F4xx_StdPeriph_Driver/src/stm32f4xx_tim.c ****   */
2503:App/STM32F4-Discovery/Libraries/STM32F4xx_StdPeriph_Driver/src/stm32f4xx_tim.c **** ITStatus TIM_GetITStatus(TIM_TypeDef* TIMx, uint16_t TIM_IT)
2504:App/STM32F4-Discovery/Libraries/STM32F4xx_StdPeriph_Driver/src/stm32f4xx_tim.c **** {
 9459              		.loc 1 2504 0
 9460              		.cfi_startproc
 9461              		@ args = 0, pretend = 0, frame = 16
 9462              		@ frame_needed = 1, uses_anonymous_args = 0
 9463 0000 80B5     		push	{r7, lr}
 9464              	.LCFI210:
 9465              		.cfi_def_cfa_offset 8
 9466              		.cfi_offset 7, -8
 9467              		.cfi_offset 14, -4
 9468 0002 84B0     		sub	sp, sp, #16
 9469              	.LCFI211:
 9470              		.cfi_def_cfa_offset 24
 9471 0004 00AF     		add	r7, sp, #0
 9472              	.LCFI212:
 9473              		.cfi_def_cfa_register 7
 9474 0006 7860     		str	r0, [r7, #4]
 9475 0008 0B46     		mov	r3, r1
 9476 000a 7B80     		strh	r3, [r7, #2]	@ movhi
2505:App/STM32F4-Discovery/Libraries/STM32F4xx_StdPeriph_Driver/src/stm32f4xx_tim.c ****   ITStatus bitstatus = RESET;  
 9477              		.loc 1 2505 0
 9478 000c 0023     		movs	r3, #0
 9479 000e FB73     		strb	r3, [r7, #15]
2506:App/STM32F4-Discovery/Libraries/STM32F4xx_StdPeriph_Driver/src/stm32f4xx_tim.c ****   uint16_t itstatus = 0x0, itenable = 0x0;
 9480              		.loc 1 2506 0
 9481 0010 0023     		movs	r3, #0
 9482 0012 BB81     		strh	r3, [r7, #12]	@ movhi
 9483 0014 0023     		movs	r3, #0
 9484 0016 7B81     		strh	r3, [r7, #10]	@ movhi
2507:App/STM32F4-Discovery/Libraries/STM32F4xx_StdPeriph_Driver/src/stm32f4xx_tim.c ****   /* Check the parameters */
2508:App/STM32F4-Discovery/Libraries/STM32F4xx_StdPeriph_Driver/src/stm32f4xx_tim.c ****   assert_param(IS_TIM_ALL_PERIPH(TIMx));
 9485              		.loc 1 2508 0
 9486 0018 7A68     		ldr	r2, [r7, #4]
 9487 001a 3A4B     		ldr	r3, .L430
 9488 001c 9A42     		cmp	r2, r3
 9489 001e 38D0     		beq	.L425
 9490              		.loc 1 2508 0 is_stmt 0 discriminator 1
 9491 0020 7B68     		ldr	r3, [r7, #4]
 9492 0022 B3F1804F 		cmp	r3, #1073741824
 9493 0026 34D0     		beq	.L425
 9494 0028 7A68     		ldr	r2, [r7, #4]
 9495 002a 374B     		ldr	r3, .L430+4
 9496 002c 9A42     		cmp	r2, r3
 9497 002e 30D0     		beq	.L425
 9498 0030 7A68     		ldr	r2, [r7, #4]
 9499 0032 364B     		ldr	r3, .L430+8
 9500 0034 9A42     		cmp	r2, r3
 9501 0036 2CD0     		beq	.L425
 9502 0038 7A68     		ldr	r2, [r7, #4]
 9503 003a 354B     		ldr	r3, .L430+12
 9504 003c 9A42     		cmp	r2, r3
 9505 003e 28D0     		beq	.L425
 9506 0040 7A68     		ldr	r2, [r7, #4]
 9507 0042 344B     		ldr	r3, .L430+16
 9508 0044 9A42     		cmp	r2, r3
 9509 0046 24D0     		beq	.L425
 9510 0048 7A68     		ldr	r2, [r7, #4]
 9511 004a 334B     		ldr	r3, .L430+20
 9512 004c 9A42     		cmp	r2, r3
 9513 004e 20D0     		beq	.L425
 9514 0050 7A68     		ldr	r2, [r7, #4]
 9515 0052 324B     		ldr	r3, .L430+24
 9516 0054 9A42     		cmp	r2, r3
 9517 0056 1CD0     		beq	.L425
 9518 0058 7A68     		ldr	r2, [r7, #4]
 9519 005a 314B     		ldr	r3, .L430+28
 9520 005c 9A42     		cmp	r2, r3
 9521 005e 18D0     		beq	.L425
 9522 0060 7A68     		ldr	r2, [r7, #4]
 9523 0062 304B     		ldr	r3, .L430+32
 9524 0064 9A42     		cmp	r2, r3
 9525 0066 14D0     		beq	.L425
 9526 0068 7A68     		ldr	r2, [r7, #4]
 9527 006a 2F4B     		ldr	r3, .L430+36
 9528 006c 9A42     		cmp	r2, r3
 9529 006e 10D0     		beq	.L425
 9530 0070 7A68     		ldr	r2, [r7, #4]
 9531 0072 2E4B     		ldr	r3, .L430+40
 9532 0074 9A42     		cmp	r2, r3
 9533 0076 0CD0     		beq	.L425
 9534 0078 7A68     		ldr	r2, [r7, #4]
 9535 007a 2D4B     		ldr	r3, .L430+44
 9536 007c 9A42     		cmp	r2, r3
 9537 007e 08D0     		beq	.L425
 9538 0080 7A68     		ldr	r2, [r7, #4]
 9539 0082 2C4B     		ldr	r3, .L430+48
 9540 0084 9A42     		cmp	r2, r3
 9541 0086 04D0     		beq	.L425
 9542 0088 2B48     		ldr	r0, .L430+52
 9543 008a 40F6CC11 		movw	r1, #2508
 9544 008e FFF7FEFF 		bl	assert_failed
 9545              	.L425:
2509:App/STM32F4-Discovery/Libraries/STM32F4xx_StdPeriph_Driver/src/stm32f4xx_tim.c ****   assert_param(IS_TIM_GET_IT(TIM_IT));
 9546              		.loc 1 2509 0 is_stmt 1
 9547 0092 7B88     		ldrh	r3, [r7, #2]
 9548 0094 012B     		cmp	r3, #1
 9549 0096 19D0     		beq	.L426
 9550              		.loc 1 2509 0 is_stmt 0 discriminator 1
 9551 0098 7B88     		ldrh	r3, [r7, #2]
 9552 009a 022B     		cmp	r3, #2
 9553 009c 16D0     		beq	.L426
 9554 009e 7B88     		ldrh	r3, [r7, #2]
 9555 00a0 042B     		cmp	r3, #4
 9556 00a2 13D0     		beq	.L426
 9557 00a4 7B88     		ldrh	r3, [r7, #2]
 9558 00a6 082B     		cmp	r3, #8
 9559 00a8 10D0     		beq	.L426
 9560 00aa 7B88     		ldrh	r3, [r7, #2]
 9561 00ac 102B     		cmp	r3, #16
 9562 00ae 0DD0     		beq	.L426
 9563 00b0 7B88     		ldrh	r3, [r7, #2]
 9564 00b2 202B     		cmp	r3, #32
 9565 00b4 0AD0     		beq	.L426
 9566 00b6 7B88     		ldrh	r3, [r7, #2]
 9567 00b8 402B     		cmp	r3, #64
 9568 00ba 07D0     		beq	.L426
 9569 00bc 7B88     		ldrh	r3, [r7, #2]
 9570 00be 802B     		cmp	r3, #128
 9571 00c0 04D0     		beq	.L426
 9572 00c2 1D48     		ldr	r0, .L430+52
 9573 00c4 40F6CD11 		movw	r1, #2509
 9574 00c8 FFF7FEFF 		bl	assert_failed
 9575              	.L426:
2510:App/STM32F4-Discovery/Libraries/STM32F4xx_StdPeriph_Driver/src/stm32f4xx_tim.c ****    
2511:App/STM32F4-Discovery/Libraries/STM32F4xx_StdPeriph_Driver/src/stm32f4xx_tim.c ****   itstatus = TIMx->SR & TIM_IT;
 9576              		.loc 1 2511 0 is_stmt 1
 9577 00cc 7B68     		ldr	r3, [r7, #4]
 9578 00ce 1B8A     		ldrh	r3, [r3, #16]	@ movhi
 9579 00d0 9AB2     		uxth	r2, r3
 9580 00d2 7B88     		ldrh	r3, [r7, #2]	@ movhi
 9581 00d4 1340     		ands	r3, r3, r2
 9582 00d6 BB81     		strh	r3, [r7, #12]	@ movhi
2512:App/STM32F4-Discovery/Libraries/STM32F4xx_StdPeriph_Driver/src/stm32f4xx_tim.c ****   
2513:App/STM32F4-Discovery/Libraries/STM32F4xx_StdPeriph_Driver/src/stm32f4xx_tim.c ****   itenable = TIMx->DIER & TIM_IT;
 9583              		.loc 1 2513 0
 9584 00d8 7B68     		ldr	r3, [r7, #4]
 9585 00da 9B89     		ldrh	r3, [r3, #12]	@ movhi
 9586 00dc 9AB2     		uxth	r2, r3
 9587 00de 7B88     		ldrh	r3, [r7, #2]	@ movhi
 9588 00e0 1340     		ands	r3, r3, r2
 9589 00e2 7B81     		strh	r3, [r7, #10]	@ movhi
2514:App/STM32F4-Discovery/Libraries/STM32F4xx_StdPeriph_Driver/src/stm32f4xx_tim.c ****   if ((itstatus != (uint16_t)RESET) && (itenable != (uint16_t)RESET))
 9590              		.loc 1 2514 0
 9591 00e4 BB89     		ldrh	r3, [r7, #12]
 9592 00e6 002B     		cmp	r3, #0
 9593 00e8 05D0     		beq	.L427
 9594              		.loc 1 2514 0 is_stmt 0 discriminator 1
 9595 00ea 7B89     		ldrh	r3, [r7, #10]
 9596 00ec 002B     		cmp	r3, #0
 9597 00ee 02D0     		beq	.L427
2515:App/STM32F4-Discovery/Libraries/STM32F4xx_StdPeriph_Driver/src/stm32f4xx_tim.c ****   {
2516:App/STM32F4-Discovery/Libraries/STM32F4xx_StdPeriph_Driver/src/stm32f4xx_tim.c ****     bitstatus = SET;
 9598              		.loc 1 2516 0 is_stmt 1
 9599 00f0 0123     		movs	r3, #1
 9600 00f2 FB73     		strb	r3, [r7, #15]
 9601 00f4 01E0     		b	.L428
 9602              	.L427:
2517:App/STM32F4-Discovery/Libraries/STM32F4xx_StdPeriph_Driver/src/stm32f4xx_tim.c ****   }
2518:App/STM32F4-Discovery/Libraries/STM32F4xx_StdPeriph_Driver/src/stm32f4xx_tim.c ****   else
2519:App/STM32F4-Discovery/Libraries/STM32F4xx_StdPeriph_Driver/src/stm32f4xx_tim.c ****   {
2520:App/STM32F4-Discovery/Libraries/STM32F4xx_StdPeriph_Driver/src/stm32f4xx_tim.c ****     bitstatus = RESET;
 9603              		.loc 1 2520 0
 9604 00f6 0023     		movs	r3, #0
 9605 00f8 FB73     		strb	r3, [r7, #15]
 9606              	.L428:
2521:App/STM32F4-Discovery/Libraries/STM32F4xx_StdPeriph_Driver/src/stm32f4xx_tim.c ****   }
2522:App/STM32F4-Discovery/Libraries/STM32F4xx_StdPeriph_Driver/src/stm32f4xx_tim.c ****   return bitstatus;
 9607              		.loc 1 2522 0
 9608 00fa FB7B     		ldrb	r3, [r7, #15]	@ zero_extendqisi2
2523:App/STM32F4-Discovery/Libraries/STM32F4xx_StdPeriph_Driver/src/stm32f4xx_tim.c **** }
 9609              		.loc 1 2523 0
 9610 00fc 1846     		mov	r0, r3
 9611 00fe 1037     		adds	r7, r7, #16
 9612 0100 BD46     		mov	sp, r7
 9613              		@ sp needed
 9614 0102 80BD     		pop	{r7, pc}
 9615              	.L431:
 9616              		.align	2
 9617              	.L430:
 9618 0104 00000140 		.word	1073807360
 9619 0108 00040040 		.word	1073742848
 9620 010c 00080040 		.word	1073743872
 9621 0110 000C0040 		.word	1073744896
 9622 0114 00100040 		.word	1073745920
 9623 0118 00140040 		.word	1073746944
 9624 011c 00040140 		.word	1073808384
 9625 0120 00400140 		.word	1073823744
 9626 0124 00440140 		.word	1073824768
 9627 0128 00480140 		.word	1073825792
 9628 012c 00180040 		.word	1073747968
 9629 0130 001C0040 		.word	1073748992
 9630 0134 00200040 		.word	1073750016
 9631 0138 00000000 		.word	.LC0
 9632              		.cfi_endproc
 9633              	.LFE180:
 9635              		.section	.text.TIM_ClearITPendingBit,"ax",%progbits
 9636              		.align	2
 9637              		.global	TIM_ClearITPendingBit
 9638              		.thumb
 9639              		.thumb_func
 9641              	TIM_ClearITPendingBit:
 9642              	.LFB181:
2524:App/STM32F4-Discovery/Libraries/STM32F4xx_StdPeriph_Driver/src/stm32f4xx_tim.c **** 
2525:App/STM32F4-Discovery/Libraries/STM32F4xx_StdPeriph_Driver/src/stm32f4xx_tim.c **** /**
2526:App/STM32F4-Discovery/Libraries/STM32F4xx_StdPeriph_Driver/src/stm32f4xx_tim.c ****   * @brief  Clears the TIMx's interrupt pending bits.
2527:App/STM32F4-Discovery/Libraries/STM32F4xx_StdPeriph_Driver/src/stm32f4xx_tim.c ****   * @param  TIMx: where x can be 1 to 14 to select the TIM peripheral.
2528:App/STM32F4-Discovery/Libraries/STM32F4xx_StdPeriph_Driver/src/stm32f4xx_tim.c ****   * @param  TIM_IT: specifies the pending bit to clear.
2529:App/STM32F4-Discovery/Libraries/STM32F4xx_StdPeriph_Driver/src/stm32f4xx_tim.c ****   *          This parameter can be any combination of the following values:
2530:App/STM32F4-Discovery/Libraries/STM32F4xx_StdPeriph_Driver/src/stm32f4xx_tim.c ****   *            @arg TIM_IT_Update: TIM1 update Interrupt source
2531:App/STM32F4-Discovery/Libraries/STM32F4xx_StdPeriph_Driver/src/stm32f4xx_tim.c ****   *            @arg TIM_IT_CC1: TIM Capture Compare 1 Interrupt source
2532:App/STM32F4-Discovery/Libraries/STM32F4xx_StdPeriph_Driver/src/stm32f4xx_tim.c ****   *            @arg TIM_IT_CC2: TIM Capture Compare 2 Interrupt source
2533:App/STM32F4-Discovery/Libraries/STM32F4xx_StdPeriph_Driver/src/stm32f4xx_tim.c ****   *            @arg TIM_IT_CC3: TIM Capture Compare 3 Interrupt source
2534:App/STM32F4-Discovery/Libraries/STM32F4xx_StdPeriph_Driver/src/stm32f4xx_tim.c ****   *            @arg TIM_IT_CC4: TIM Capture Compare 4 Interrupt source
2535:App/STM32F4-Discovery/Libraries/STM32F4xx_StdPeriph_Driver/src/stm32f4xx_tim.c ****   *            @arg TIM_IT_COM: TIM Commutation Interrupt source
2536:App/STM32F4-Discovery/Libraries/STM32F4xx_StdPeriph_Driver/src/stm32f4xx_tim.c ****   *            @arg TIM_IT_Trigger: TIM Trigger Interrupt source
2537:App/STM32F4-Discovery/Libraries/STM32F4xx_StdPeriph_Driver/src/stm32f4xx_tim.c ****   *            @arg TIM_IT_Break: TIM Break Interrupt source
2538:App/STM32F4-Discovery/Libraries/STM32F4xx_StdPeriph_Driver/src/stm32f4xx_tim.c ****   *
2539:App/STM32F4-Discovery/Libraries/STM32F4xx_StdPeriph_Driver/src/stm32f4xx_tim.c ****   * @note   TIM6 and TIM7 can generate only an update interrupt.
2540:App/STM32F4-Discovery/Libraries/STM32F4xx_StdPeriph_Driver/src/stm32f4xx_tim.c ****   * @note   TIM_IT_COM and TIM_IT_Break are used only with TIM1 and TIM8.
2541:App/STM32F4-Discovery/Libraries/STM32F4xx_StdPeriph_Driver/src/stm32f4xx_tim.c ****   *      
2542:App/STM32F4-Discovery/Libraries/STM32F4xx_StdPeriph_Driver/src/stm32f4xx_tim.c ****   * @retval None
2543:App/STM32F4-Discovery/Libraries/STM32F4xx_StdPeriph_Driver/src/stm32f4xx_tim.c ****   */
2544:App/STM32F4-Discovery/Libraries/STM32F4xx_StdPeriph_Driver/src/stm32f4xx_tim.c **** void TIM_ClearITPendingBit(TIM_TypeDef* TIMx, uint16_t TIM_IT)
2545:App/STM32F4-Discovery/Libraries/STM32F4xx_StdPeriph_Driver/src/stm32f4xx_tim.c **** {
 9643              		.loc 1 2545 0
 9644              		.cfi_startproc
 9645              		@ args = 0, pretend = 0, frame = 8
 9646              		@ frame_needed = 1, uses_anonymous_args = 0
 9647 0000 80B5     		push	{r7, lr}
 9648              	.LCFI213:
 9649              		.cfi_def_cfa_offset 8
 9650              		.cfi_offset 7, -8
 9651              		.cfi_offset 14, -4
 9652 0002 82B0     		sub	sp, sp, #8
 9653              	.LCFI214:
 9654              		.cfi_def_cfa_offset 16
 9655 0004 00AF     		add	r7, sp, #0
 9656              	.LCFI215:
 9657              		.cfi_def_cfa_register 7
 9658 0006 7860     		str	r0, [r7, #4]
 9659 0008 0B46     		mov	r3, r1
 9660 000a 7B80     		strh	r3, [r7, #2]	@ movhi
2546:App/STM32F4-Discovery/Libraries/STM32F4xx_StdPeriph_Driver/src/stm32f4xx_tim.c ****   /* Check the parameters */
2547:App/STM32F4-Discovery/Libraries/STM32F4xx_StdPeriph_Driver/src/stm32f4xx_tim.c ****   assert_param(IS_TIM_ALL_PERIPH(TIMx));
 9661              		.loc 1 2547 0
 9662 000c 7A68     		ldr	r2, [r7, #4]
 9663 000e 224B     		ldr	r3, .L434
 9664 0010 9A42     		cmp	r2, r3
 9665 0012 38D0     		beq	.L433
 9666              		.loc 1 2547 0 is_stmt 0 discriminator 1
 9667 0014 7B68     		ldr	r3, [r7, #4]
 9668 0016 B3F1804F 		cmp	r3, #1073741824
 9669 001a 34D0     		beq	.L433
 9670 001c 7A68     		ldr	r2, [r7, #4]
 9671 001e 1F4B     		ldr	r3, .L434+4
 9672 0020 9A42     		cmp	r2, r3
 9673 0022 30D0     		beq	.L433
 9674 0024 7A68     		ldr	r2, [r7, #4]
 9675 0026 1E4B     		ldr	r3, .L434+8
 9676 0028 9A42     		cmp	r2, r3
 9677 002a 2CD0     		beq	.L433
 9678 002c 7A68     		ldr	r2, [r7, #4]
 9679 002e 1D4B     		ldr	r3, .L434+12
 9680 0030 9A42     		cmp	r2, r3
 9681 0032 28D0     		beq	.L433
 9682 0034 7A68     		ldr	r2, [r7, #4]
 9683 0036 1C4B     		ldr	r3, .L434+16
 9684 0038 9A42     		cmp	r2, r3
 9685 003a 24D0     		beq	.L433
 9686 003c 7A68     		ldr	r2, [r7, #4]
 9687 003e 1B4B     		ldr	r3, .L434+20
 9688 0040 9A42     		cmp	r2, r3
 9689 0042 20D0     		beq	.L433
 9690 0044 7A68     		ldr	r2, [r7, #4]
 9691 0046 1A4B     		ldr	r3, .L434+24
 9692 0048 9A42     		cmp	r2, r3
 9693 004a 1CD0     		beq	.L433
 9694 004c 7A68     		ldr	r2, [r7, #4]
 9695 004e 194B     		ldr	r3, .L434+28
 9696 0050 9A42     		cmp	r2, r3
 9697 0052 18D0     		beq	.L433
 9698 0054 7A68     		ldr	r2, [r7, #4]
 9699 0056 184B     		ldr	r3, .L434+32
 9700 0058 9A42     		cmp	r2, r3
 9701 005a 14D0     		beq	.L433
 9702 005c 7A68     		ldr	r2, [r7, #4]
 9703 005e 174B     		ldr	r3, .L434+36
 9704 0060 9A42     		cmp	r2, r3
 9705 0062 10D0     		beq	.L433
 9706 0064 7A68     		ldr	r2, [r7, #4]
 9707 0066 164B     		ldr	r3, .L434+40
 9708 0068 9A42     		cmp	r2, r3
 9709 006a 0CD0     		beq	.L433
 9710 006c 7A68     		ldr	r2, [r7, #4]
 9711 006e 154B     		ldr	r3, .L434+44
 9712 0070 9A42     		cmp	r2, r3
 9713 0072 08D0     		beq	.L433
 9714 0074 7A68     		ldr	r2, [r7, #4]
 9715 0076 144B     		ldr	r3, .L434+48
 9716 0078 9A42     		cmp	r2, r3
 9717 007a 04D0     		beq	.L433
 9718 007c 1348     		ldr	r0, .L434+52
 9719 007e 40F6F311 		movw	r1, #2547
 9720 0082 FFF7FEFF 		bl	assert_failed
 9721              	.L433:
2548:App/STM32F4-Discovery/Libraries/STM32F4xx_StdPeriph_Driver/src/stm32f4xx_tim.c **** 
2549:App/STM32F4-Discovery/Libraries/STM32F4xx_StdPeriph_Driver/src/stm32f4xx_tim.c ****   /* Clear the IT pending Bit */
2550:App/STM32F4-Discovery/Libraries/STM32F4xx_StdPeriph_Driver/src/stm32f4xx_tim.c ****   TIMx->SR = (uint16_t)~TIM_IT;
 9722              		.loc 1 2550 0 is_stmt 1
 9723 0086 7B88     		ldrh	r3, [r7, #2]	@ movhi
 9724 0088 DB43     		mvns	r3, r3
 9725 008a 9AB2     		uxth	r2, r3
 9726 008c 7B68     		ldr	r3, [r7, #4]
 9727 008e 1A82     		strh	r2, [r3, #16]	@ movhi
2551:App/STM32F4-Discovery/Libraries/STM32F4xx_StdPeriph_Driver/src/stm32f4xx_tim.c **** }
 9728              		.loc 1 2551 0
 9729 0090 0837     		adds	r7, r7, #8
 9730 0092 BD46     		mov	sp, r7
 9731              		@ sp needed
 9732 0094 80BD     		pop	{r7, pc}
 9733              	.L435:
 9734 0096 00BF     		.align	2
 9735              	.L434:
 9736 0098 00000140 		.word	1073807360
 9737 009c 00040040 		.word	1073742848
 9738 00a0 00080040 		.word	1073743872
 9739 00a4 000C0040 		.word	1073744896
 9740 00a8 00100040 		.word	1073745920
 9741 00ac 00140040 		.word	1073746944
 9742 00b0 00040140 		.word	1073808384
 9743 00b4 00400140 		.word	1073823744
 9744 00b8 00440140 		.word	1073824768
 9745 00bc 00480140 		.word	1073825792
 9746 00c0 00180040 		.word	1073747968
 9747 00c4 001C0040 		.word	1073748992
 9748 00c8 00200040 		.word	1073750016
 9749 00cc 00000000 		.word	.LC0
 9750              		.cfi_endproc
 9751              	.LFE181:
 9753              		.section	.text.TIM_DMAConfig,"ax",%progbits
 9754              		.align	2
 9755              		.global	TIM_DMAConfig
 9756              		.thumb
 9757              		.thumb_func
 9759              	TIM_DMAConfig:
 9760              	.LFB182:
2552:App/STM32F4-Discovery/Libraries/STM32F4xx_StdPeriph_Driver/src/stm32f4xx_tim.c **** 
2553:App/STM32F4-Discovery/Libraries/STM32F4xx_StdPeriph_Driver/src/stm32f4xx_tim.c **** /**
2554:App/STM32F4-Discovery/Libraries/STM32F4xx_StdPeriph_Driver/src/stm32f4xx_tim.c ****   * @brief  Configures the TIMx's DMA interface.
2555:App/STM32F4-Discovery/Libraries/STM32F4xx_StdPeriph_Driver/src/stm32f4xx_tim.c ****   * @param  TIMx: where x can be 1, 2, 3, 4, 5 or 8 to select the TIM peripheral.
2556:App/STM32F4-Discovery/Libraries/STM32F4xx_StdPeriph_Driver/src/stm32f4xx_tim.c ****   * @param  TIM_DMABase: DMA Base address.
2557:App/STM32F4-Discovery/Libraries/STM32F4xx_StdPeriph_Driver/src/stm32f4xx_tim.c ****   *          This parameter can be one of the following values:
2558:App/STM32F4-Discovery/Libraries/STM32F4xx_StdPeriph_Driver/src/stm32f4xx_tim.c ****   *            @arg TIM_DMABase_CR1  
2559:App/STM32F4-Discovery/Libraries/STM32F4xx_StdPeriph_Driver/src/stm32f4xx_tim.c ****   *            @arg TIM_DMABase_CR2
2560:App/STM32F4-Discovery/Libraries/STM32F4xx_StdPeriph_Driver/src/stm32f4xx_tim.c ****   *            @arg TIM_DMABase_SMCR
2561:App/STM32F4-Discovery/Libraries/STM32F4xx_StdPeriph_Driver/src/stm32f4xx_tim.c ****   *            @arg TIM_DMABase_DIER
2562:App/STM32F4-Discovery/Libraries/STM32F4xx_StdPeriph_Driver/src/stm32f4xx_tim.c ****   *            @arg TIM1_DMABase_SR
2563:App/STM32F4-Discovery/Libraries/STM32F4xx_StdPeriph_Driver/src/stm32f4xx_tim.c ****   *            @arg TIM_DMABase_EGR
2564:App/STM32F4-Discovery/Libraries/STM32F4xx_StdPeriph_Driver/src/stm32f4xx_tim.c ****   *            @arg TIM_DMABase_CCMR1
2565:App/STM32F4-Discovery/Libraries/STM32F4xx_StdPeriph_Driver/src/stm32f4xx_tim.c ****   *            @arg TIM_DMABase_CCMR2
2566:App/STM32F4-Discovery/Libraries/STM32F4xx_StdPeriph_Driver/src/stm32f4xx_tim.c ****   *            @arg TIM_DMABase_CCER
2567:App/STM32F4-Discovery/Libraries/STM32F4xx_StdPeriph_Driver/src/stm32f4xx_tim.c ****   *            @arg TIM_DMABase_CNT   
2568:App/STM32F4-Discovery/Libraries/STM32F4xx_StdPeriph_Driver/src/stm32f4xx_tim.c ****   *            @arg TIM_DMABase_PSC   
2569:App/STM32F4-Discovery/Libraries/STM32F4xx_StdPeriph_Driver/src/stm32f4xx_tim.c ****   *            @arg TIM_DMABase_ARR
2570:App/STM32F4-Discovery/Libraries/STM32F4xx_StdPeriph_Driver/src/stm32f4xx_tim.c ****   *            @arg TIM_DMABase_RCR
2571:App/STM32F4-Discovery/Libraries/STM32F4xx_StdPeriph_Driver/src/stm32f4xx_tim.c ****   *            @arg TIM_DMABase_CCR1
2572:App/STM32F4-Discovery/Libraries/STM32F4xx_StdPeriph_Driver/src/stm32f4xx_tim.c ****   *            @arg TIM_DMABase_CCR2
2573:App/STM32F4-Discovery/Libraries/STM32F4xx_StdPeriph_Driver/src/stm32f4xx_tim.c ****   *            @arg TIM_DMABase_CCR3  
2574:App/STM32F4-Discovery/Libraries/STM32F4xx_StdPeriph_Driver/src/stm32f4xx_tim.c ****   *            @arg TIM_DMABase_CCR4
2575:App/STM32F4-Discovery/Libraries/STM32F4xx_StdPeriph_Driver/src/stm32f4xx_tim.c ****   *            @arg TIM_DMABase_BDTR
2576:App/STM32F4-Discovery/Libraries/STM32F4xx_StdPeriph_Driver/src/stm32f4xx_tim.c ****   *            @arg TIM_DMABase_DCR
2577:App/STM32F4-Discovery/Libraries/STM32F4xx_StdPeriph_Driver/src/stm32f4xx_tim.c ****   * @param  TIM_DMABurstLength: DMA Burst length. This parameter can be one value
2578:App/STM32F4-Discovery/Libraries/STM32F4xx_StdPeriph_Driver/src/stm32f4xx_tim.c ****   *         between: TIM_DMABurstLength_1Transfer and TIM_DMABurstLength_18Transfers.
2579:App/STM32F4-Discovery/Libraries/STM32F4xx_StdPeriph_Driver/src/stm32f4xx_tim.c ****   * @retval None
2580:App/STM32F4-Discovery/Libraries/STM32F4xx_StdPeriph_Driver/src/stm32f4xx_tim.c ****   */
2581:App/STM32F4-Discovery/Libraries/STM32F4xx_StdPeriph_Driver/src/stm32f4xx_tim.c **** void TIM_DMAConfig(TIM_TypeDef* TIMx, uint16_t TIM_DMABase, uint16_t TIM_DMABurstLength)
2582:App/STM32F4-Discovery/Libraries/STM32F4xx_StdPeriph_Driver/src/stm32f4xx_tim.c **** {
 9761              		.loc 1 2582 0
 9762              		.cfi_startproc
 9763              		@ args = 0, pretend = 0, frame = 8
 9764              		@ frame_needed = 1, uses_anonymous_args = 0
 9765 0000 80B5     		push	{r7, lr}
 9766              	.LCFI216:
 9767              		.cfi_def_cfa_offset 8
 9768              		.cfi_offset 7, -8
 9769              		.cfi_offset 14, -4
 9770 0002 82B0     		sub	sp, sp, #8
 9771              	.LCFI217:
 9772              		.cfi_def_cfa_offset 16
 9773 0004 00AF     		add	r7, sp, #0
 9774              	.LCFI218:
 9775              		.cfi_def_cfa_register 7
 9776 0006 7860     		str	r0, [r7, #4]
 9777 0008 1346     		mov	r3, r2
 9778 000a 0A46     		mov	r2, r1	@ movhi
 9779 000c 7A80     		strh	r2, [r7, #2]	@ movhi
 9780 000e 3B80     		strh	r3, [r7]	@ movhi
2583:App/STM32F4-Discovery/Libraries/STM32F4xx_StdPeriph_Driver/src/stm32f4xx_tim.c ****   /* Check the parameters */
2584:App/STM32F4-Discovery/Libraries/STM32F4xx_StdPeriph_Driver/src/stm32f4xx_tim.c ****   assert_param(IS_TIM_LIST3_PERIPH(TIMx));
 9781              		.loc 1 2584 0
 9782 0010 7A68     		ldr	r2, [r7, #4]
 9783 0012 594B     		ldr	r3, .L440
 9784 0014 9A42     		cmp	r2, r3
 9785 0016 18D0     		beq	.L437
 9786              		.loc 1 2584 0 is_stmt 0 discriminator 1
 9787 0018 7B68     		ldr	r3, [r7, #4]
 9788 001a B3F1804F 		cmp	r3, #1073741824
 9789 001e 14D0     		beq	.L437
 9790 0020 7A68     		ldr	r2, [r7, #4]
 9791 0022 564B     		ldr	r3, .L440+4
 9792 0024 9A42     		cmp	r2, r3
 9793 0026 10D0     		beq	.L437
 9794 0028 7A68     		ldr	r2, [r7, #4]
 9795 002a 554B     		ldr	r3, .L440+8
 9796 002c 9A42     		cmp	r2, r3
 9797 002e 0CD0     		beq	.L437
 9798 0030 7A68     		ldr	r2, [r7, #4]
 9799 0032 544B     		ldr	r3, .L440+12
 9800 0034 9A42     		cmp	r2, r3
 9801 0036 08D0     		beq	.L437
 9802 0038 7A68     		ldr	r2, [r7, #4]
 9803 003a 534B     		ldr	r3, .L440+16
 9804 003c 9A42     		cmp	r2, r3
 9805 003e 04D0     		beq	.L437
 9806 0040 5248     		ldr	r0, .L440+20
 9807 0042 40F61821 		movw	r1, #2584
 9808 0046 FFF7FEFF 		bl	assert_failed
 9809              	.L437:
2585:App/STM32F4-Discovery/Libraries/STM32F4xx_StdPeriph_Driver/src/stm32f4xx_tim.c ****   assert_param(IS_TIM_DMA_BASE(TIM_DMABase)); 
 9810              		.loc 1 2585 0 is_stmt 1
 9811 004a 7B88     		ldrh	r3, [r7, #2]
 9812 004c 002B     		cmp	r3, #0
 9813 004e 3DD0     		beq	.L438
 9814              		.loc 1 2585 0 is_stmt 0 discriminator 1
 9815 0050 7B88     		ldrh	r3, [r7, #2]
 9816 0052 012B     		cmp	r3, #1
 9817 0054 3AD0     		beq	.L438
 9818 0056 7B88     		ldrh	r3, [r7, #2]
 9819 0058 022B     		cmp	r3, #2
 9820 005a 37D0     		beq	.L438
 9821 005c 7B88     		ldrh	r3, [r7, #2]
 9822 005e 032B     		cmp	r3, #3
 9823 0060 34D0     		beq	.L438
 9824 0062 7B88     		ldrh	r3, [r7, #2]
 9825 0064 042B     		cmp	r3, #4
 9826 0066 31D0     		beq	.L438
 9827 0068 7B88     		ldrh	r3, [r7, #2]
 9828 006a 052B     		cmp	r3, #5
 9829 006c 2ED0     		beq	.L438
 9830 006e 7B88     		ldrh	r3, [r7, #2]
 9831 0070 062B     		cmp	r3, #6
 9832 0072 2BD0     		beq	.L438
 9833 0074 7B88     		ldrh	r3, [r7, #2]
 9834 0076 072B     		cmp	r3, #7
 9835 0078 28D0     		beq	.L438
 9836 007a 7B88     		ldrh	r3, [r7, #2]
 9837 007c 082B     		cmp	r3, #8
 9838 007e 25D0     		beq	.L438
 9839 0080 7B88     		ldrh	r3, [r7, #2]
 9840 0082 092B     		cmp	r3, #9
 9841 0084 22D0     		beq	.L438
 9842 0086 7B88     		ldrh	r3, [r7, #2]
 9843 0088 0A2B     		cmp	r3, #10
 9844 008a 1FD0     		beq	.L438
 9845 008c 7B88     		ldrh	r3, [r7, #2]
 9846 008e 0B2B     		cmp	r3, #11
 9847 0090 1CD0     		beq	.L438
 9848 0092 7B88     		ldrh	r3, [r7, #2]
 9849 0094 0C2B     		cmp	r3, #12
 9850 0096 19D0     		beq	.L438
 9851 0098 7B88     		ldrh	r3, [r7, #2]
 9852 009a 0D2B     		cmp	r3, #13
 9853 009c 16D0     		beq	.L438
 9854 009e 7B88     		ldrh	r3, [r7, #2]
 9855 00a0 0E2B     		cmp	r3, #14
 9856 00a2 13D0     		beq	.L438
 9857 00a4 7B88     		ldrh	r3, [r7, #2]
 9858 00a6 0F2B     		cmp	r3, #15
 9859 00a8 10D0     		beq	.L438
 9860 00aa 7B88     		ldrh	r3, [r7, #2]
 9861 00ac 102B     		cmp	r3, #16
 9862 00ae 0DD0     		beq	.L438
 9863 00b0 7B88     		ldrh	r3, [r7, #2]
 9864 00b2 112B     		cmp	r3, #17
 9865 00b4 0AD0     		beq	.L438
 9866 00b6 7B88     		ldrh	r3, [r7, #2]
 9867 00b8 122B     		cmp	r3, #18
 9868 00ba 07D0     		beq	.L438
 9869 00bc 7B88     		ldrh	r3, [r7, #2]
 9870 00be 132B     		cmp	r3, #19
 9871 00c0 04D0     		beq	.L438
 9872 00c2 3248     		ldr	r0, .L440+20
 9873 00c4 40F61921 		movw	r1, #2585
 9874 00c8 FFF7FEFF 		bl	assert_failed
 9875              	.L438:
2586:App/STM32F4-Discovery/Libraries/STM32F4xx_StdPeriph_Driver/src/stm32f4xx_tim.c ****   assert_param(IS_TIM_DMA_LENGTH(TIM_DMABurstLength));
 9876              		.loc 1 2586 0 is_stmt 1
 9877 00cc 3B88     		ldrh	r3, [r7]
 9878 00ce 002B     		cmp	r3, #0
 9879 00d0 48D0     		beq	.L439
 9880              		.loc 1 2586 0 is_stmt 0 discriminator 1
 9881 00d2 3B88     		ldrh	r3, [r7]
 9882 00d4 B3F5807F 		cmp	r3, #256
 9883 00d8 44D0     		beq	.L439
 9884 00da 3B88     		ldrh	r3, [r7]
 9885 00dc B3F5007F 		cmp	r3, #512
 9886 00e0 40D0     		beq	.L439
 9887 00e2 3B88     		ldrh	r3, [r7]
 9888 00e4 B3F5407F 		cmp	r3, #768
 9889 00e8 3CD0     		beq	.L439
 9890 00ea 3B88     		ldrh	r3, [r7]
 9891 00ec B3F5806F 		cmp	r3, #1024
 9892 00f0 38D0     		beq	.L439
 9893 00f2 3B88     		ldrh	r3, [r7]
 9894 00f4 B3F5A06F 		cmp	r3, #1280
 9895 00f8 34D0     		beq	.L439
 9896 00fa 3B88     		ldrh	r3, [r7]
 9897 00fc B3F5C06F 		cmp	r3, #1536
 9898 0100 30D0     		beq	.L439
 9899 0102 3B88     		ldrh	r3, [r7]
 9900 0104 B3F5E06F 		cmp	r3, #1792
 9901 0108 2CD0     		beq	.L439
 9902 010a 3B88     		ldrh	r3, [r7]
 9903 010c B3F5006F 		cmp	r3, #2048
 9904 0110 28D0     		beq	.L439
 9905 0112 3B88     		ldrh	r3, [r7]
 9906 0114 B3F5106F 		cmp	r3, #2304
 9907 0118 24D0     		beq	.L439
 9908 011a 3B88     		ldrh	r3, [r7]
 9909 011c B3F5206F 		cmp	r3, #2560
 9910 0120 20D0     		beq	.L439
 9911 0122 3B88     		ldrh	r3, [r7]
 9912 0124 B3F5306F 		cmp	r3, #2816
 9913 0128 1CD0     		beq	.L439
 9914 012a 3B88     		ldrh	r3, [r7]
 9915 012c B3F5406F 		cmp	r3, #3072
 9916 0130 18D0     		beq	.L439
 9917 0132 3B88     		ldrh	r3, [r7]
 9918 0134 B3F5506F 		cmp	r3, #3328
 9919 0138 14D0     		beq	.L439
 9920 013a 3B88     		ldrh	r3, [r7]
 9921 013c B3F5606F 		cmp	r3, #3584
 9922 0140 10D0     		beq	.L439
 9923 0142 3B88     		ldrh	r3, [r7]
 9924 0144 B3F5706F 		cmp	r3, #3840
 9925 0148 0CD0     		beq	.L439
 9926 014a 3B88     		ldrh	r3, [r7]
 9927 014c B3F5805F 		cmp	r3, #4096
 9928 0150 08D0     		beq	.L439
 9929 0152 3B88     		ldrh	r3, [r7]
 9930 0154 B3F5885F 		cmp	r3, #4352
 9931 0158 04D0     		beq	.L439
 9932 015a 0C48     		ldr	r0, .L440+20
 9933 015c 40F61A21 		movw	r1, #2586
 9934 0160 FFF7FEFF 		bl	assert_failed
 9935              	.L439:
2587:App/STM32F4-Discovery/Libraries/STM32F4xx_StdPeriph_Driver/src/stm32f4xx_tim.c **** 
2588:App/STM32F4-Discovery/Libraries/STM32F4xx_StdPeriph_Driver/src/stm32f4xx_tim.c ****   /* Set the DMA Base and the DMA Burst Length */
2589:App/STM32F4-Discovery/Libraries/STM32F4xx_StdPeriph_Driver/src/stm32f4xx_tim.c ****   TIMx->DCR = TIM_DMABase | TIM_DMABurstLength;
 9936              		.loc 1 2589 0 is_stmt 1
 9937 0164 7A88     		ldrh	r2, [r7, #2]	@ movhi
 9938 0166 3B88     		ldrh	r3, [r7]	@ movhi
 9939 0168 1343     		orrs	r3, r3, r2
 9940 016a 9AB2     		uxth	r2, r3
 9941 016c 7B68     		ldr	r3, [r7, #4]
 9942 016e A3F84820 		strh	r2, [r3, #72]	@ movhi
2590:App/STM32F4-Discovery/Libraries/STM32F4xx_StdPeriph_Driver/src/stm32f4xx_tim.c **** }
 9943              		.loc 1 2590 0
 9944 0172 0837     		adds	r7, r7, #8
 9945 0174 BD46     		mov	sp, r7
 9946              		@ sp needed
 9947 0176 80BD     		pop	{r7, pc}
 9948              	.L441:
 9949              		.align	2
 9950              	.L440:
 9951 0178 00000140 		.word	1073807360
 9952 017c 00040040 		.word	1073742848
 9953 0180 00080040 		.word	1073743872
 9954 0184 000C0040 		.word	1073744896
 9955 0188 00040140 		.word	1073808384
 9956 018c 00000000 		.word	.LC0
 9957              		.cfi_endproc
 9958              	.LFE182:
 9960              		.section	.text.TIM_DMACmd,"ax",%progbits
 9961              		.align	2
 9962              		.global	TIM_DMACmd
 9963              		.thumb
 9964              		.thumb_func
 9966              	TIM_DMACmd:
 9967              	.LFB183:
2591:App/STM32F4-Discovery/Libraries/STM32F4xx_StdPeriph_Driver/src/stm32f4xx_tim.c **** 
2592:App/STM32F4-Discovery/Libraries/STM32F4xx_StdPeriph_Driver/src/stm32f4xx_tim.c **** /**
2593:App/STM32F4-Discovery/Libraries/STM32F4xx_StdPeriph_Driver/src/stm32f4xx_tim.c ****   * @brief  Enables or disables the TIMx's DMA Requests.
2594:App/STM32F4-Discovery/Libraries/STM32F4xx_StdPeriph_Driver/src/stm32f4xx_tim.c ****   * @param  TIMx: where x can be 1, 2, 3, 4, 5, 6, 7 or 8 to select the TIM peripheral.
2595:App/STM32F4-Discovery/Libraries/STM32F4xx_StdPeriph_Driver/src/stm32f4xx_tim.c ****   * @param  TIM_DMASource: specifies the DMA Request sources.
2596:App/STM32F4-Discovery/Libraries/STM32F4xx_StdPeriph_Driver/src/stm32f4xx_tim.c ****   *          This parameter can be any combination of the following values:
2597:App/STM32F4-Discovery/Libraries/STM32F4xx_StdPeriph_Driver/src/stm32f4xx_tim.c ****   *            @arg TIM_DMA_Update: TIM update Interrupt source
2598:App/STM32F4-Discovery/Libraries/STM32F4xx_StdPeriph_Driver/src/stm32f4xx_tim.c ****   *            @arg TIM_DMA_CC1: TIM Capture Compare 1 DMA source
2599:App/STM32F4-Discovery/Libraries/STM32F4xx_StdPeriph_Driver/src/stm32f4xx_tim.c ****   *            @arg TIM_DMA_CC2: TIM Capture Compare 2 DMA source
2600:App/STM32F4-Discovery/Libraries/STM32F4xx_StdPeriph_Driver/src/stm32f4xx_tim.c ****   *            @arg TIM_DMA_CC3: TIM Capture Compare 3 DMA source
2601:App/STM32F4-Discovery/Libraries/STM32F4xx_StdPeriph_Driver/src/stm32f4xx_tim.c ****   *            @arg TIM_DMA_CC4: TIM Capture Compare 4 DMA source
2602:App/STM32F4-Discovery/Libraries/STM32F4xx_StdPeriph_Driver/src/stm32f4xx_tim.c ****   *            @arg TIM_DMA_COM: TIM Commutation DMA source
2603:App/STM32F4-Discovery/Libraries/STM32F4xx_StdPeriph_Driver/src/stm32f4xx_tim.c ****   *            @arg TIM_DMA_Trigger: TIM Trigger DMA source
2604:App/STM32F4-Discovery/Libraries/STM32F4xx_StdPeriph_Driver/src/stm32f4xx_tim.c ****   * @param  NewState: new state of the DMA Request sources.
2605:App/STM32F4-Discovery/Libraries/STM32F4xx_StdPeriph_Driver/src/stm32f4xx_tim.c ****   *          This parameter can be: ENABLE or DISABLE.
2606:App/STM32F4-Discovery/Libraries/STM32F4xx_StdPeriph_Driver/src/stm32f4xx_tim.c ****   * @retval None
2607:App/STM32F4-Discovery/Libraries/STM32F4xx_StdPeriph_Driver/src/stm32f4xx_tim.c ****   */
2608:App/STM32F4-Discovery/Libraries/STM32F4xx_StdPeriph_Driver/src/stm32f4xx_tim.c **** void TIM_DMACmd(TIM_TypeDef* TIMx, uint16_t TIM_DMASource, FunctionalState NewState)
2609:App/STM32F4-Discovery/Libraries/STM32F4xx_StdPeriph_Driver/src/stm32f4xx_tim.c **** { 
 9968              		.loc 1 2609 0
 9969              		.cfi_startproc
 9970              		@ args = 0, pretend = 0, frame = 8
 9971              		@ frame_needed = 1, uses_anonymous_args = 0
 9972 0000 80B5     		push	{r7, lr}
 9973              	.LCFI219:
 9974              		.cfi_def_cfa_offset 8
 9975              		.cfi_offset 7, -8
 9976              		.cfi_offset 14, -4
 9977 0002 82B0     		sub	sp, sp, #8
 9978              	.LCFI220:
 9979              		.cfi_def_cfa_offset 16
 9980 0004 00AF     		add	r7, sp, #0
 9981              	.LCFI221:
 9982              		.cfi_def_cfa_register 7
 9983 0006 7860     		str	r0, [r7, #4]
 9984 0008 1346     		mov	r3, r2
 9985 000a 0A46     		mov	r2, r1	@ movhi
 9986 000c 7A80     		strh	r2, [r7, #2]	@ movhi
 9987 000e 7B70     		strb	r3, [r7, #1]
2610:App/STM32F4-Discovery/Libraries/STM32F4xx_StdPeriph_Driver/src/stm32f4xx_tim.c ****   /* Check the parameters */
2611:App/STM32F4-Discovery/Libraries/STM32F4xx_StdPeriph_Driver/src/stm32f4xx_tim.c ****   assert_param(IS_TIM_LIST5_PERIPH(TIMx)); 
 9988              		.loc 1 2611 0
 9989 0010 7A68     		ldr	r2, [r7, #4]
 9990 0012 2B4B     		ldr	r3, .L449
 9991 0014 9A42     		cmp	r2, r3
 9992 0016 20D0     		beq	.L443
 9993              		.loc 1 2611 0 is_stmt 0 discriminator 1
 9994 0018 7B68     		ldr	r3, [r7, #4]
 9995 001a B3F1804F 		cmp	r3, #1073741824
 9996 001e 1CD0     		beq	.L443
 9997 0020 7A68     		ldr	r2, [r7, #4]
 9998 0022 284B     		ldr	r3, .L449+4
 9999 0024 9A42     		cmp	r2, r3
 10000 0026 18D0     		beq	.L443
 10001 0028 7A68     		ldr	r2, [r7, #4]
 10002 002a 274B     		ldr	r3, .L449+8
 10003 002c 9A42     		cmp	r2, r3
 10004 002e 14D0     		beq	.L443
 10005 0030 7A68     		ldr	r2, [r7, #4]
 10006 0032 264B     		ldr	r3, .L449+12
 10007 0034 9A42     		cmp	r2, r3
 10008 0036 10D0     		beq	.L443
 10009 0038 7A68     		ldr	r2, [r7, #4]
 10010 003a 254B     		ldr	r3, .L449+16
 10011 003c 9A42     		cmp	r2, r3
 10012 003e 0CD0     		beq	.L443
 10013 0040 7A68     		ldr	r2, [r7, #4]
 10014 0042 244B     		ldr	r3, .L449+20
 10015 0044 9A42     		cmp	r2, r3
 10016 0046 08D0     		beq	.L443
 10017 0048 7A68     		ldr	r2, [r7, #4]
 10018 004a 234B     		ldr	r3, .L449+24
 10019 004c 9A42     		cmp	r2, r3
 10020 004e 04D0     		beq	.L443
 10021 0050 2248     		ldr	r0, .L449+28
 10022 0052 40F63321 		movw	r1, #2611
 10023 0056 FFF7FEFF 		bl	assert_failed
 10024              	.L443:
2612:App/STM32F4-Discovery/Libraries/STM32F4xx_StdPeriph_Driver/src/stm32f4xx_tim.c ****   assert_param(IS_TIM_DMA_SOURCE(TIM_DMASource));
 10025              		.loc 1 2612 0 is_stmt 1
 10026 005a 7A88     		ldrh	r2, [r7, #2]
 10027 005c 48F2FF03 		movw	r3, #33023
 10028 0060 1340     		ands	r3, r3, r2
 10029 0062 002B     		cmp	r3, #0
 10030 0064 02D1     		bne	.L444
 10031              		.loc 1 2612 0 is_stmt 0 discriminator 2
 10032 0066 7B88     		ldrh	r3, [r7, #2]
 10033 0068 002B     		cmp	r3, #0
 10034 006a 04D1     		bne	.L445
 10035              	.L444:
 10036              		.loc 1 2612 0 discriminator 1
 10037 006c 1B48     		ldr	r0, .L449+28
 10038 006e 40F63421 		movw	r1, #2612
 10039 0072 FFF7FEFF 		bl	assert_failed
 10040              	.L445:
2613:App/STM32F4-Discovery/Libraries/STM32F4xx_StdPeriph_Driver/src/stm32f4xx_tim.c ****   assert_param(IS_FUNCTIONAL_STATE(NewState));
 10041              		.loc 1 2613 0 is_stmt 1
 10042 0076 7B78     		ldrb	r3, [r7, #1]	@ zero_extendqisi2
 10043 0078 002B     		cmp	r3, #0
 10044 007a 07D0     		beq	.L446
 10045              		.loc 1 2613 0 is_stmt 0 discriminator 1
 10046 007c 7B78     		ldrb	r3, [r7, #1]	@ zero_extendqisi2
 10047 007e 012B     		cmp	r3, #1
 10048 0080 04D0     		beq	.L446
 10049 0082 1648     		ldr	r0, .L449+28
 10050 0084 40F63521 		movw	r1, #2613
 10051 0088 FFF7FEFF 		bl	assert_failed
 10052              	.L446:
2614:App/STM32F4-Discovery/Libraries/STM32F4xx_StdPeriph_Driver/src/stm32f4xx_tim.c ****   
2615:App/STM32F4-Discovery/Libraries/STM32F4xx_StdPeriph_Driver/src/stm32f4xx_tim.c ****   if (NewState != DISABLE)
 10053              		.loc 1 2615 0 is_stmt 1
 10054 008c 7B78     		ldrb	r3, [r7, #1]	@ zero_extendqisi2
 10055 008e 002B     		cmp	r3, #0
 10056 0090 08D0     		beq	.L447
2616:App/STM32F4-Discovery/Libraries/STM32F4xx_StdPeriph_Driver/src/stm32f4xx_tim.c ****   {
2617:App/STM32F4-Discovery/Libraries/STM32F4xx_StdPeriph_Driver/src/stm32f4xx_tim.c ****     /* Enable the DMA sources */
2618:App/STM32F4-Discovery/Libraries/STM32F4xx_StdPeriph_Driver/src/stm32f4xx_tim.c ****     TIMx->DIER |= TIM_DMASource; 
 10057              		.loc 1 2618 0
 10058 0092 7B68     		ldr	r3, [r7, #4]
 10059 0094 9B89     		ldrh	r3, [r3, #12]	@ movhi
 10060 0096 9AB2     		uxth	r2, r3
 10061 0098 7B88     		ldrh	r3, [r7, #2]	@ movhi
 10062 009a 1343     		orrs	r3, r3, r2
 10063 009c 9AB2     		uxth	r2, r3
 10064 009e 7B68     		ldr	r3, [r7, #4]
 10065 00a0 9A81     		strh	r2, [r3, #12]	@ movhi
 10066 00a2 09E0     		b	.L442
 10067              	.L447:
2619:App/STM32F4-Discovery/Libraries/STM32F4xx_StdPeriph_Driver/src/stm32f4xx_tim.c ****   }
2620:App/STM32F4-Discovery/Libraries/STM32F4xx_StdPeriph_Driver/src/stm32f4xx_tim.c ****   else
2621:App/STM32F4-Discovery/Libraries/STM32F4xx_StdPeriph_Driver/src/stm32f4xx_tim.c ****   {
2622:App/STM32F4-Discovery/Libraries/STM32F4xx_StdPeriph_Driver/src/stm32f4xx_tim.c ****     /* Disable the DMA sources */
2623:App/STM32F4-Discovery/Libraries/STM32F4xx_StdPeriph_Driver/src/stm32f4xx_tim.c ****     TIMx->DIER &= (uint16_t)~TIM_DMASource;
 10068              		.loc 1 2623 0
 10069 00a4 7B68     		ldr	r3, [r7, #4]
 10070 00a6 9B89     		ldrh	r3, [r3, #12]	@ movhi
 10071 00a8 9AB2     		uxth	r2, r3
 10072 00aa 7B88     		ldrh	r3, [r7, #2]	@ movhi
 10073 00ac DB43     		mvns	r3, r3
 10074 00ae 9BB2     		uxth	r3, r3
 10075 00b0 1340     		ands	r3, r3, r2
 10076 00b2 9AB2     		uxth	r2, r3
 10077 00b4 7B68     		ldr	r3, [r7, #4]
 10078 00b6 9A81     		strh	r2, [r3, #12]	@ movhi
 10079              	.L442:
2624:App/STM32F4-Discovery/Libraries/STM32F4xx_StdPeriph_Driver/src/stm32f4xx_tim.c ****   }
2625:App/STM32F4-Discovery/Libraries/STM32F4xx_StdPeriph_Driver/src/stm32f4xx_tim.c **** }
 10080              		.loc 1 2625 0
 10081 00b8 0837     		adds	r7, r7, #8
 10082 00ba BD46     		mov	sp, r7
 10083              		@ sp needed
 10084 00bc 80BD     		pop	{r7, pc}
 10085              	.L450:
 10086 00be 00BF     		.align	2
 10087              	.L449:
 10088 00c0 00000140 		.word	1073807360
 10089 00c4 00040040 		.word	1073742848
 10090 00c8 00080040 		.word	1073743872
 10091 00cc 000C0040 		.word	1073744896
 10092 00d0 00100040 		.word	1073745920
 10093 00d4 00140040 		.word	1073746944
 10094 00d8 00040140 		.word	1073808384
 10095 00dc 00000000 		.word	.LC0
 10096              		.cfi_endproc
 10097              	.LFE183:
 10099              		.section	.text.TIM_SelectCCDMA,"ax",%progbits
 10100              		.align	2
 10101              		.global	TIM_SelectCCDMA
 10102              		.thumb
 10103              		.thumb_func
 10105              	TIM_SelectCCDMA:
 10106              	.LFB184:
2626:App/STM32F4-Discovery/Libraries/STM32F4xx_StdPeriph_Driver/src/stm32f4xx_tim.c **** 
2627:App/STM32F4-Discovery/Libraries/STM32F4xx_StdPeriph_Driver/src/stm32f4xx_tim.c **** /**
2628:App/STM32F4-Discovery/Libraries/STM32F4xx_StdPeriph_Driver/src/stm32f4xx_tim.c ****   * @brief  Selects the TIMx peripheral Capture Compare DMA source.
2629:App/STM32F4-Discovery/Libraries/STM32F4xx_StdPeriph_Driver/src/stm32f4xx_tim.c ****   * @param  TIMx: where x can be  1, 2, 3, 4, 5 or 8 to select the TIM peripheral.
2630:App/STM32F4-Discovery/Libraries/STM32F4xx_StdPeriph_Driver/src/stm32f4xx_tim.c ****   * @param  NewState: new state of the Capture Compare DMA source
2631:App/STM32F4-Discovery/Libraries/STM32F4xx_StdPeriph_Driver/src/stm32f4xx_tim.c ****   *          This parameter can be: ENABLE or DISABLE.
2632:App/STM32F4-Discovery/Libraries/STM32F4xx_StdPeriph_Driver/src/stm32f4xx_tim.c ****   * @retval None
2633:App/STM32F4-Discovery/Libraries/STM32F4xx_StdPeriph_Driver/src/stm32f4xx_tim.c ****   */
2634:App/STM32F4-Discovery/Libraries/STM32F4xx_StdPeriph_Driver/src/stm32f4xx_tim.c **** void TIM_SelectCCDMA(TIM_TypeDef* TIMx, FunctionalState NewState)
2635:App/STM32F4-Discovery/Libraries/STM32F4xx_StdPeriph_Driver/src/stm32f4xx_tim.c **** {
 10107              		.loc 1 2635 0
 10108              		.cfi_startproc
 10109              		@ args = 0, pretend = 0, frame = 8
 10110              		@ frame_needed = 1, uses_anonymous_args = 0
 10111 0000 80B5     		push	{r7, lr}
 10112              	.LCFI222:
 10113              		.cfi_def_cfa_offset 8
 10114              		.cfi_offset 7, -8
 10115              		.cfi_offset 14, -4
 10116 0002 82B0     		sub	sp, sp, #8
 10117              	.LCFI223:
 10118              		.cfi_def_cfa_offset 16
 10119 0004 00AF     		add	r7, sp, #0
 10120              	.LCFI224:
 10121              		.cfi_def_cfa_register 7
 10122 0006 7860     		str	r0, [r7, #4]
 10123 0008 0B46     		mov	r3, r1
 10124 000a FB70     		strb	r3, [r7, #3]
2636:App/STM32F4-Discovery/Libraries/STM32F4xx_StdPeriph_Driver/src/stm32f4xx_tim.c ****   /* Check the parameters */
2637:App/STM32F4-Discovery/Libraries/STM32F4xx_StdPeriph_Driver/src/stm32f4xx_tim.c ****   assert_param(IS_TIM_LIST3_PERIPH(TIMx));
 10125              		.loc 1 2637 0
 10126 000c 7A68     		ldr	r2, [r7, #4]
 10127 000e 1F4B     		ldr	r3, .L456
 10128 0010 9A42     		cmp	r2, r3
 10129 0012 18D0     		beq	.L452
 10130              		.loc 1 2637 0 is_stmt 0 discriminator 1
 10131 0014 7B68     		ldr	r3, [r7, #4]
 10132 0016 B3F1804F 		cmp	r3, #1073741824
 10133 001a 14D0     		beq	.L452
 10134 001c 7A68     		ldr	r2, [r7, #4]
 10135 001e 1C4B     		ldr	r3, .L456+4
 10136 0020 9A42     		cmp	r2, r3
 10137 0022 10D0     		beq	.L452
 10138 0024 7A68     		ldr	r2, [r7, #4]
 10139 0026 1B4B     		ldr	r3, .L456+8
 10140 0028 9A42     		cmp	r2, r3
 10141 002a 0CD0     		beq	.L452
 10142 002c 7A68     		ldr	r2, [r7, #4]
 10143 002e 1A4B     		ldr	r3, .L456+12
 10144 0030 9A42     		cmp	r2, r3
 10145 0032 08D0     		beq	.L452
 10146 0034 7A68     		ldr	r2, [r7, #4]
 10147 0036 194B     		ldr	r3, .L456+16
 10148 0038 9A42     		cmp	r2, r3
 10149 003a 04D0     		beq	.L452
 10150 003c 1848     		ldr	r0, .L456+20
 10151 003e 40F64D21 		movw	r1, #2637
 10152 0042 FFF7FEFF 		bl	assert_failed
 10153              	.L452:
2638:App/STM32F4-Discovery/Libraries/STM32F4xx_StdPeriph_Driver/src/stm32f4xx_tim.c ****   assert_param(IS_FUNCTIONAL_STATE(NewState));
 10154              		.loc 1 2638 0 is_stmt 1
 10155 0046 FB78     		ldrb	r3, [r7, #3]	@ zero_extendqisi2
 10156 0048 002B     		cmp	r3, #0
 10157 004a 07D0     		beq	.L453
 10158              		.loc 1 2638 0 is_stmt 0 discriminator 1
 10159 004c FB78     		ldrb	r3, [r7, #3]	@ zero_extendqisi2
 10160 004e 012B     		cmp	r3, #1
 10161 0050 04D0     		beq	.L453
 10162 0052 1348     		ldr	r0, .L456+20
 10163 0054 40F64E21 		movw	r1, #2638
 10164 0058 FFF7FEFF 		bl	assert_failed
 10165              	.L453:
2639:App/STM32F4-Discovery/Libraries/STM32F4xx_StdPeriph_Driver/src/stm32f4xx_tim.c **** 
2640:App/STM32F4-Discovery/Libraries/STM32F4xx_StdPeriph_Driver/src/stm32f4xx_tim.c ****   if (NewState != DISABLE)
 10166              		.loc 1 2640 0 is_stmt 1
 10167 005c FB78     		ldrb	r3, [r7, #3]	@ zero_extendqisi2
 10168 005e 002B     		cmp	r3, #0
 10169 0060 08D0     		beq	.L454
2641:App/STM32F4-Discovery/Libraries/STM32F4xx_StdPeriph_Driver/src/stm32f4xx_tim.c ****   {
2642:App/STM32F4-Discovery/Libraries/STM32F4xx_StdPeriph_Driver/src/stm32f4xx_tim.c ****     /* Set the CCDS Bit */
2643:App/STM32F4-Discovery/Libraries/STM32F4xx_StdPeriph_Driver/src/stm32f4xx_tim.c ****     TIMx->CR2 |= TIM_CR2_CCDS;
 10170              		.loc 1 2643 0
 10171 0062 7B68     		ldr	r3, [r7, #4]
 10172 0064 9B88     		ldrh	r3, [r3, #4]	@ movhi
 10173 0066 9BB2     		uxth	r3, r3
 10174 0068 43F00803 		orr	r3, r3, #8
 10175 006c 9AB2     		uxth	r2, r3
 10176 006e 7B68     		ldr	r3, [r7, #4]
 10177 0070 9A80     		strh	r2, [r3, #4]	@ movhi
 10178 0072 07E0     		b	.L451
 10179              	.L454:
2644:App/STM32F4-Discovery/Libraries/STM32F4xx_StdPeriph_Driver/src/stm32f4xx_tim.c ****   }
2645:App/STM32F4-Discovery/Libraries/STM32F4xx_StdPeriph_Driver/src/stm32f4xx_tim.c ****   else
2646:App/STM32F4-Discovery/Libraries/STM32F4xx_StdPeriph_Driver/src/stm32f4xx_tim.c ****   {
2647:App/STM32F4-Discovery/Libraries/STM32F4xx_StdPeriph_Driver/src/stm32f4xx_tim.c ****     /* Reset the CCDS Bit */
2648:App/STM32F4-Discovery/Libraries/STM32F4xx_StdPeriph_Driver/src/stm32f4xx_tim.c ****     TIMx->CR2 &= (uint16_t)~TIM_CR2_CCDS;
 10180              		.loc 1 2648 0
 10181 0074 7B68     		ldr	r3, [r7, #4]
 10182 0076 9B88     		ldrh	r3, [r3, #4]	@ movhi
 10183 0078 9BB2     		uxth	r3, r3
 10184 007a 23F00803 		bic	r3, r3, #8
 10185 007e 9AB2     		uxth	r2, r3
 10186 0080 7B68     		ldr	r3, [r7, #4]
 10187 0082 9A80     		strh	r2, [r3, #4]	@ movhi
 10188              	.L451:
2649:App/STM32F4-Discovery/Libraries/STM32F4xx_StdPeriph_Driver/src/stm32f4xx_tim.c ****   }
2650:App/STM32F4-Discovery/Libraries/STM32F4xx_StdPeriph_Driver/src/stm32f4xx_tim.c **** }
 10189              		.loc 1 2650 0
 10190 0084 0837     		adds	r7, r7, #8
 10191 0086 BD46     		mov	sp, r7
 10192              		@ sp needed
 10193 0088 80BD     		pop	{r7, pc}
 10194              	.L457:
 10195 008a 00BF     		.align	2
 10196              	.L456:
 10197 008c 00000140 		.word	1073807360
 10198 0090 00040040 		.word	1073742848
 10199 0094 00080040 		.word	1073743872
 10200 0098 000C0040 		.word	1073744896
 10201 009c 00040140 		.word	1073808384
 10202 00a0 00000000 		.word	.LC0
 10203              		.cfi_endproc
 10204              	.LFE184:
 10206              		.section	.text.TIM_InternalClockConfig,"ax",%progbits
 10207              		.align	2
 10208              		.global	TIM_InternalClockConfig
 10209              		.thumb
 10210              		.thumb_func
 10212              	TIM_InternalClockConfig:
 10213              	.LFB185:
2651:App/STM32F4-Discovery/Libraries/STM32F4xx_StdPeriph_Driver/src/stm32f4xx_tim.c **** /**
2652:App/STM32F4-Discovery/Libraries/STM32F4xx_StdPeriph_Driver/src/stm32f4xx_tim.c ****   * @}
2653:App/STM32F4-Discovery/Libraries/STM32F4xx_StdPeriph_Driver/src/stm32f4xx_tim.c ****   */
2654:App/STM32F4-Discovery/Libraries/STM32F4xx_StdPeriph_Driver/src/stm32f4xx_tim.c **** 
2655:App/STM32F4-Discovery/Libraries/STM32F4xx_StdPeriph_Driver/src/stm32f4xx_tim.c **** /** @defgroup TIM_Group6 Clocks management functions
2656:App/STM32F4-Discovery/Libraries/STM32F4xx_StdPeriph_Driver/src/stm32f4xx_tim.c ****  *  @brief    Clocks management functions
2657:App/STM32F4-Discovery/Libraries/STM32F4xx_StdPeriph_Driver/src/stm32f4xx_tim.c ****  *
2658:App/STM32F4-Discovery/Libraries/STM32F4xx_StdPeriph_Driver/src/stm32f4xx_tim.c **** @verbatim   
2659:App/STM32F4-Discovery/Libraries/STM32F4xx_StdPeriph_Driver/src/stm32f4xx_tim.c ****  ===============================================================================
2660:App/STM32F4-Discovery/Libraries/STM32F4xx_StdPeriph_Driver/src/stm32f4xx_tim.c ****                          Clocks management functions
2661:App/STM32F4-Discovery/Libraries/STM32F4xx_StdPeriph_Driver/src/stm32f4xx_tim.c ****  ===============================================================================  
2662:App/STM32F4-Discovery/Libraries/STM32F4xx_StdPeriph_Driver/src/stm32f4xx_tim.c **** 
2663:App/STM32F4-Discovery/Libraries/STM32F4xx_StdPeriph_Driver/src/stm32f4xx_tim.c **** @endverbatim
2664:App/STM32F4-Discovery/Libraries/STM32F4xx_StdPeriph_Driver/src/stm32f4xx_tim.c ****   * @{
2665:App/STM32F4-Discovery/Libraries/STM32F4xx_StdPeriph_Driver/src/stm32f4xx_tim.c ****   */
2666:App/STM32F4-Discovery/Libraries/STM32F4xx_StdPeriph_Driver/src/stm32f4xx_tim.c **** 
2667:App/STM32F4-Discovery/Libraries/STM32F4xx_StdPeriph_Driver/src/stm32f4xx_tim.c **** /**
2668:App/STM32F4-Discovery/Libraries/STM32F4xx_StdPeriph_Driver/src/stm32f4xx_tim.c ****   * @brief  Configures the TIMx internal Clock
2669:App/STM32F4-Discovery/Libraries/STM32F4xx_StdPeriph_Driver/src/stm32f4xx_tim.c ****   * @param  TIMx: where x can be 1, 2, 3, 4, 5, 8, 9 or 12 to select the TIM 
2670:App/STM32F4-Discovery/Libraries/STM32F4xx_StdPeriph_Driver/src/stm32f4xx_tim.c ****   *         peripheral.
2671:App/STM32F4-Discovery/Libraries/STM32F4xx_StdPeriph_Driver/src/stm32f4xx_tim.c ****   * @retval None
2672:App/STM32F4-Discovery/Libraries/STM32F4xx_StdPeriph_Driver/src/stm32f4xx_tim.c ****   */
2673:App/STM32F4-Discovery/Libraries/STM32F4xx_StdPeriph_Driver/src/stm32f4xx_tim.c **** void TIM_InternalClockConfig(TIM_TypeDef* TIMx)
2674:App/STM32F4-Discovery/Libraries/STM32F4xx_StdPeriph_Driver/src/stm32f4xx_tim.c **** {
 10214              		.loc 1 2674 0
 10215              		.cfi_startproc
 10216              		@ args = 0, pretend = 0, frame = 8
 10217              		@ frame_needed = 1, uses_anonymous_args = 0
 10218 0000 80B5     		push	{r7, lr}
 10219              	.LCFI225:
 10220              		.cfi_def_cfa_offset 8
 10221              		.cfi_offset 7, -8
 10222              		.cfi_offset 14, -4
 10223 0002 82B0     		sub	sp, sp, #8
 10224              	.LCFI226:
 10225              		.cfi_def_cfa_offset 16
 10226 0004 00AF     		add	r7, sp, #0
 10227              	.LCFI227:
 10228              		.cfi_def_cfa_register 7
 10229 0006 7860     		str	r0, [r7, #4]
2675:App/STM32F4-Discovery/Libraries/STM32F4xx_StdPeriph_Driver/src/stm32f4xx_tim.c ****   /* Check the parameters */
2676:App/STM32F4-Discovery/Libraries/STM32F4xx_StdPeriph_Driver/src/stm32f4xx_tim.c ****   assert_param(IS_TIM_LIST2_PERIPH(TIMx));
 10230              		.loc 1 2676 0
 10231 0008 7A68     		ldr	r2, [r7, #4]
 10232 000a 174B     		ldr	r3, .L460
 10233 000c 9A42     		cmp	r2, r3
 10234 000e 20D0     		beq	.L459
 10235              		.loc 1 2676 0 is_stmt 0 discriminator 1
 10236 0010 7B68     		ldr	r3, [r7, #4]
 10237 0012 B3F1804F 		cmp	r3, #1073741824
 10238 0016 1CD0     		beq	.L459
 10239 0018 7A68     		ldr	r2, [r7, #4]
 10240 001a 144B     		ldr	r3, .L460+4
 10241 001c 9A42     		cmp	r2, r3
 10242 001e 18D0     		beq	.L459
 10243 0020 7A68     		ldr	r2, [r7, #4]
 10244 0022 134B     		ldr	r3, .L460+8
 10245 0024 9A42     		cmp	r2, r3
 10246 0026 14D0     		beq	.L459
 10247 0028 7A68     		ldr	r2, [r7, #4]
 10248 002a 124B     		ldr	r3, .L460+12
 10249 002c 9A42     		cmp	r2, r3
 10250 002e 10D0     		beq	.L459
 10251 0030 7A68     		ldr	r2, [r7, #4]
 10252 0032 114B     		ldr	r3, .L460+16
 10253 0034 9A42     		cmp	r2, r3
 10254 0036 0CD0     		beq	.L459
 10255 0038 7A68     		ldr	r2, [r7, #4]
 10256 003a 104B     		ldr	r3, .L460+20
 10257 003c 9A42     		cmp	r2, r3
 10258 003e 08D0     		beq	.L459
 10259 0040 7A68     		ldr	r2, [r7, #4]
 10260 0042 0F4B     		ldr	r3, .L460+24
 10261 0044 9A42     		cmp	r2, r3
 10262 0046 04D0     		beq	.L459
 10263 0048 0E48     		ldr	r0, .L460+28
 10264 004a 40F67421 		movw	r1, #2676
 10265 004e FFF7FEFF 		bl	assert_failed
 10266              	.L459:
2677:App/STM32F4-Discovery/Libraries/STM32F4xx_StdPeriph_Driver/src/stm32f4xx_tim.c **** 
2678:App/STM32F4-Discovery/Libraries/STM32F4xx_StdPeriph_Driver/src/stm32f4xx_tim.c ****   /* Disable slave mode to clock the prescaler directly with the internal clock */
2679:App/STM32F4-Discovery/Libraries/STM32F4xx_StdPeriph_Driver/src/stm32f4xx_tim.c ****   TIMx->SMCR &=  (uint16_t)~TIM_SMCR_SMS;
 10267              		.loc 1 2679 0 is_stmt 1
 10268 0052 7B68     		ldr	r3, [r7, #4]
 10269 0054 1B89     		ldrh	r3, [r3, #8]	@ movhi
 10270 0056 9BB2     		uxth	r3, r3
 10271 0058 23F00703 		bic	r3, r3, #7
 10272 005c 9AB2     		uxth	r2, r3
 10273 005e 7B68     		ldr	r3, [r7, #4]
 10274 0060 1A81     		strh	r2, [r3, #8]	@ movhi
2680:App/STM32F4-Discovery/Libraries/STM32F4xx_StdPeriph_Driver/src/stm32f4xx_tim.c **** }
 10275              		.loc 1 2680 0
 10276 0062 0837     		adds	r7, r7, #8
 10277 0064 BD46     		mov	sp, r7
 10278              		@ sp needed
 10279 0066 80BD     		pop	{r7, pc}
 10280              	.L461:
 10281              		.align	2
 10282              	.L460:
 10283 0068 00000140 		.word	1073807360
 10284 006c 00040040 		.word	1073742848
 10285 0070 00080040 		.word	1073743872
 10286 0074 000C0040 		.word	1073744896
 10287 0078 00040140 		.word	1073808384
 10288 007c 00400140 		.word	1073823744
 10289 0080 00180040 		.word	1073747968
 10290 0084 00000000 		.word	.LC0
 10291              		.cfi_endproc
 10292              	.LFE185:
 10294              		.section	.text.TIM_ITRxExternalClockConfig,"ax",%progbits
 10295              		.align	2
 10296              		.global	TIM_ITRxExternalClockConfig
 10297              		.thumb
 10298              		.thumb_func
 10300              	TIM_ITRxExternalClockConfig:
 10301              	.LFB186:
2681:App/STM32F4-Discovery/Libraries/STM32F4xx_StdPeriph_Driver/src/stm32f4xx_tim.c **** 
2682:App/STM32F4-Discovery/Libraries/STM32F4xx_StdPeriph_Driver/src/stm32f4xx_tim.c **** /**
2683:App/STM32F4-Discovery/Libraries/STM32F4xx_StdPeriph_Driver/src/stm32f4xx_tim.c ****   * @brief  Configures the TIMx Internal Trigger as External Clock
2684:App/STM32F4-Discovery/Libraries/STM32F4xx_StdPeriph_Driver/src/stm32f4xx_tim.c ****   * @param  TIMx: where x can be 1, 2, 3, 4, 5, 8, 9 or 12 to select the TIM 
2685:App/STM32F4-Discovery/Libraries/STM32F4xx_StdPeriph_Driver/src/stm32f4xx_tim.c ****   *         peripheral.
2686:App/STM32F4-Discovery/Libraries/STM32F4xx_StdPeriph_Driver/src/stm32f4xx_tim.c ****   * @param  TIM_InputTriggerSource: Trigger source.
2687:App/STM32F4-Discovery/Libraries/STM32F4xx_StdPeriph_Driver/src/stm32f4xx_tim.c ****   *          This parameter can be one of the following values:
2688:App/STM32F4-Discovery/Libraries/STM32F4xx_StdPeriph_Driver/src/stm32f4xx_tim.c ****   *            @arg TIM_TS_ITR0: Internal Trigger 0
2689:App/STM32F4-Discovery/Libraries/STM32F4xx_StdPeriph_Driver/src/stm32f4xx_tim.c ****   *            @arg TIM_TS_ITR1: Internal Trigger 1
2690:App/STM32F4-Discovery/Libraries/STM32F4xx_StdPeriph_Driver/src/stm32f4xx_tim.c ****   *            @arg TIM_TS_ITR2: Internal Trigger 2
2691:App/STM32F4-Discovery/Libraries/STM32F4xx_StdPeriph_Driver/src/stm32f4xx_tim.c ****   *            @arg TIM_TS_ITR3: Internal Trigger 3
2692:App/STM32F4-Discovery/Libraries/STM32F4xx_StdPeriph_Driver/src/stm32f4xx_tim.c ****   * @retval None
2693:App/STM32F4-Discovery/Libraries/STM32F4xx_StdPeriph_Driver/src/stm32f4xx_tim.c ****   */
2694:App/STM32F4-Discovery/Libraries/STM32F4xx_StdPeriph_Driver/src/stm32f4xx_tim.c **** void TIM_ITRxExternalClockConfig(TIM_TypeDef* TIMx, uint16_t TIM_InputTriggerSource)
2695:App/STM32F4-Discovery/Libraries/STM32F4xx_StdPeriph_Driver/src/stm32f4xx_tim.c **** {
 10302              		.loc 1 2695 0
 10303              		.cfi_startproc
 10304              		@ args = 0, pretend = 0, frame = 8
 10305              		@ frame_needed = 1, uses_anonymous_args = 0
 10306 0000 80B5     		push	{r7, lr}
 10307              	.LCFI228:
 10308              		.cfi_def_cfa_offset 8
 10309              		.cfi_offset 7, -8
 10310              		.cfi_offset 14, -4
 10311 0002 82B0     		sub	sp, sp, #8
 10312              	.LCFI229:
 10313              		.cfi_def_cfa_offset 16
 10314 0004 00AF     		add	r7, sp, #0
 10315              	.LCFI230:
 10316              		.cfi_def_cfa_register 7
 10317 0006 7860     		str	r0, [r7, #4]
 10318 0008 0B46     		mov	r3, r1
 10319 000a 7B80     		strh	r3, [r7, #2]	@ movhi
2696:App/STM32F4-Discovery/Libraries/STM32F4xx_StdPeriph_Driver/src/stm32f4xx_tim.c ****   /* Check the parameters */
2697:App/STM32F4-Discovery/Libraries/STM32F4xx_StdPeriph_Driver/src/stm32f4xx_tim.c ****   assert_param(IS_TIM_LIST2_PERIPH(TIMx));
 10320              		.loc 1 2697 0
 10321 000c 7A68     		ldr	r2, [r7, #4]
 10322 000e 224B     		ldr	r3, .L465
 10323 0010 9A42     		cmp	r2, r3
 10324 0012 20D0     		beq	.L463
 10325              		.loc 1 2697 0 is_stmt 0 discriminator 1
 10326 0014 7B68     		ldr	r3, [r7, #4]
 10327 0016 B3F1804F 		cmp	r3, #1073741824
 10328 001a 1CD0     		beq	.L463
 10329 001c 7A68     		ldr	r2, [r7, #4]
 10330 001e 1F4B     		ldr	r3, .L465+4
 10331 0020 9A42     		cmp	r2, r3
 10332 0022 18D0     		beq	.L463
 10333 0024 7A68     		ldr	r2, [r7, #4]
 10334 0026 1E4B     		ldr	r3, .L465+8
 10335 0028 9A42     		cmp	r2, r3
 10336 002a 14D0     		beq	.L463
 10337 002c 7A68     		ldr	r2, [r7, #4]
 10338 002e 1D4B     		ldr	r3, .L465+12
 10339 0030 9A42     		cmp	r2, r3
 10340 0032 10D0     		beq	.L463
 10341 0034 7A68     		ldr	r2, [r7, #4]
 10342 0036 1C4B     		ldr	r3, .L465+16
 10343 0038 9A42     		cmp	r2, r3
 10344 003a 0CD0     		beq	.L463
 10345 003c 7A68     		ldr	r2, [r7, #4]
 10346 003e 1B4B     		ldr	r3, .L465+20
 10347 0040 9A42     		cmp	r2, r3
 10348 0042 08D0     		beq	.L463
 10349 0044 7A68     		ldr	r2, [r7, #4]
 10350 0046 1A4B     		ldr	r3, .L465+24
 10351 0048 9A42     		cmp	r2, r3
 10352 004a 04D0     		beq	.L463
 10353 004c 1948     		ldr	r0, .L465+28
 10354 004e 40F68921 		movw	r1, #2697
 10355 0052 FFF7FEFF 		bl	assert_failed
 10356              	.L463:
2698:App/STM32F4-Discovery/Libraries/STM32F4xx_StdPeriph_Driver/src/stm32f4xx_tim.c ****   assert_param(IS_TIM_INTERNAL_TRIGGER_SELECTION(TIM_InputTriggerSource));
 10357              		.loc 1 2698 0 is_stmt 1
 10358 0056 7B88     		ldrh	r3, [r7, #2]
 10359 0058 002B     		cmp	r3, #0
 10360 005a 0DD0     		beq	.L464
 10361              		.loc 1 2698 0 is_stmt 0 discriminator 1
 10362 005c 7B88     		ldrh	r3, [r7, #2]
 10363 005e 102B     		cmp	r3, #16
 10364 0060 0AD0     		beq	.L464
 10365 0062 7B88     		ldrh	r3, [r7, #2]
 10366 0064 202B     		cmp	r3, #32
 10367 0066 07D0     		beq	.L464
 10368 0068 7B88     		ldrh	r3, [r7, #2]
 10369 006a 302B     		cmp	r3, #48
 10370 006c 04D0     		beq	.L464
 10371 006e 1148     		ldr	r0, .L465+28
 10372 0070 40F68A21 		movw	r1, #2698
 10373 0074 FFF7FEFF 		bl	assert_failed
 10374              	.L464:
2699:App/STM32F4-Discovery/Libraries/STM32F4xx_StdPeriph_Driver/src/stm32f4xx_tim.c **** 
2700:App/STM32F4-Discovery/Libraries/STM32F4xx_StdPeriph_Driver/src/stm32f4xx_tim.c ****   /* Select the Internal Trigger */
2701:App/STM32F4-Discovery/Libraries/STM32F4xx_StdPeriph_Driver/src/stm32f4xx_tim.c ****   TIM_SelectInputTrigger(TIMx, TIM_InputTriggerSource);
 10375              		.loc 1 2701 0 is_stmt 1
 10376 0078 7B88     		ldrh	r3, [r7, #2]
 10377 007a 7868     		ldr	r0, [r7, #4]
 10378 007c 1946     		mov	r1, r3
 10379 007e FFF7FEFF 		bl	TIM_SelectInputTrigger
2702:App/STM32F4-Discovery/Libraries/STM32F4xx_StdPeriph_Driver/src/stm32f4xx_tim.c **** 
2703:App/STM32F4-Discovery/Libraries/STM32F4xx_StdPeriph_Driver/src/stm32f4xx_tim.c ****   /* Select the External clock mode1 */
2704:App/STM32F4-Discovery/Libraries/STM32F4xx_StdPeriph_Driver/src/stm32f4xx_tim.c ****   TIMx->SMCR |= TIM_SlaveMode_External1;
 10380              		.loc 1 2704 0
 10381 0082 7B68     		ldr	r3, [r7, #4]
 10382 0084 1B89     		ldrh	r3, [r3, #8]	@ movhi
 10383 0086 9BB2     		uxth	r3, r3
 10384 0088 43F00703 		orr	r3, r3, #7
 10385 008c 9AB2     		uxth	r2, r3
 10386 008e 7B68     		ldr	r3, [r7, #4]
 10387 0090 1A81     		strh	r2, [r3, #8]	@ movhi
2705:App/STM32F4-Discovery/Libraries/STM32F4xx_StdPeriph_Driver/src/stm32f4xx_tim.c **** }
 10388              		.loc 1 2705 0
 10389 0092 0837     		adds	r7, r7, #8
 10390 0094 BD46     		mov	sp, r7
 10391              		@ sp needed
 10392 0096 80BD     		pop	{r7, pc}
 10393              	.L466:
 10394              		.align	2
 10395              	.L465:
 10396 0098 00000140 		.word	1073807360
 10397 009c 00040040 		.word	1073742848
 10398 00a0 00080040 		.word	1073743872
 10399 00a4 000C0040 		.word	1073744896
 10400 00a8 00040140 		.word	1073808384
 10401 00ac 00400140 		.word	1073823744
 10402 00b0 00180040 		.word	1073747968
 10403 00b4 00000000 		.word	.LC0
 10404              		.cfi_endproc
 10405              	.LFE186:
 10407              		.section	.text.TIM_TIxExternalClockConfig,"ax",%progbits
 10408              		.align	2
 10409              		.global	TIM_TIxExternalClockConfig
 10410              		.thumb
 10411              		.thumb_func
 10413              	TIM_TIxExternalClockConfig:
 10414              	.LFB187:
2706:App/STM32F4-Discovery/Libraries/STM32F4xx_StdPeriph_Driver/src/stm32f4xx_tim.c **** 
2707:App/STM32F4-Discovery/Libraries/STM32F4xx_StdPeriph_Driver/src/stm32f4xx_tim.c **** /**
2708:App/STM32F4-Discovery/Libraries/STM32F4xx_StdPeriph_Driver/src/stm32f4xx_tim.c ****   * @brief  Configures the TIMx Trigger as External Clock
2709:App/STM32F4-Discovery/Libraries/STM32F4xx_StdPeriph_Driver/src/stm32f4xx_tim.c ****   * @param  TIMx: where x can be 1, 2, 3, 4, 5, 8, 9, 10, 11, 12, 13 or 14  
2710:App/STM32F4-Discovery/Libraries/STM32F4xx_StdPeriph_Driver/src/stm32f4xx_tim.c ****   *         to select the TIM peripheral.
2711:App/STM32F4-Discovery/Libraries/STM32F4xx_StdPeriph_Driver/src/stm32f4xx_tim.c ****   * @param  TIM_TIxExternalCLKSource: Trigger source.
2712:App/STM32F4-Discovery/Libraries/STM32F4xx_StdPeriph_Driver/src/stm32f4xx_tim.c ****   *          This parameter can be one of the following values:
2713:App/STM32F4-Discovery/Libraries/STM32F4xx_StdPeriph_Driver/src/stm32f4xx_tim.c ****   *            @arg TIM_TIxExternalCLK1Source_TI1ED: TI1 Edge Detector
2714:App/STM32F4-Discovery/Libraries/STM32F4xx_StdPeriph_Driver/src/stm32f4xx_tim.c ****   *            @arg TIM_TIxExternalCLK1Source_TI1: Filtered Timer Input 1
2715:App/STM32F4-Discovery/Libraries/STM32F4xx_StdPeriph_Driver/src/stm32f4xx_tim.c ****   *            @arg TIM_TIxExternalCLK1Source_TI2: Filtered Timer Input 2
2716:App/STM32F4-Discovery/Libraries/STM32F4xx_StdPeriph_Driver/src/stm32f4xx_tim.c ****   * @param  TIM_ICPolarity: specifies the TIx Polarity.
2717:App/STM32F4-Discovery/Libraries/STM32F4xx_StdPeriph_Driver/src/stm32f4xx_tim.c ****   *          This parameter can be one of the following values:
2718:App/STM32F4-Discovery/Libraries/STM32F4xx_StdPeriph_Driver/src/stm32f4xx_tim.c ****   *            @arg TIM_ICPolarity_Rising
2719:App/STM32F4-Discovery/Libraries/STM32F4xx_StdPeriph_Driver/src/stm32f4xx_tim.c ****   *            @arg TIM_ICPolarity_Falling
2720:App/STM32F4-Discovery/Libraries/STM32F4xx_StdPeriph_Driver/src/stm32f4xx_tim.c ****   * @param  ICFilter: specifies the filter value.
2721:App/STM32F4-Discovery/Libraries/STM32F4xx_StdPeriph_Driver/src/stm32f4xx_tim.c ****   *          This parameter must be a value between 0x0 and 0xF.
2722:App/STM32F4-Discovery/Libraries/STM32F4xx_StdPeriph_Driver/src/stm32f4xx_tim.c ****   * @retval None
2723:App/STM32F4-Discovery/Libraries/STM32F4xx_StdPeriph_Driver/src/stm32f4xx_tim.c ****   */
2724:App/STM32F4-Discovery/Libraries/STM32F4xx_StdPeriph_Driver/src/stm32f4xx_tim.c **** void TIM_TIxExternalClockConfig(TIM_TypeDef* TIMx, uint16_t TIM_TIxExternalCLKSource,
2725:App/STM32F4-Discovery/Libraries/STM32F4xx_StdPeriph_Driver/src/stm32f4xx_tim.c ****                                 uint16_t TIM_ICPolarity, uint16_t ICFilter)
2726:App/STM32F4-Discovery/Libraries/STM32F4xx_StdPeriph_Driver/src/stm32f4xx_tim.c **** {
 10415              		.loc 1 2726 0
 10416              		.cfi_startproc
 10417              		@ args = 0, pretend = 0, frame = 16
 10418              		@ frame_needed = 1, uses_anonymous_args = 0
 10419 0000 80B5     		push	{r7, lr}
 10420              	.LCFI231:
 10421              		.cfi_def_cfa_offset 8
 10422              		.cfi_offset 7, -8
 10423              		.cfi_offset 14, -4
 10424 0002 84B0     		sub	sp, sp, #16
 10425              	.LCFI232:
 10426              		.cfi_def_cfa_offset 24
 10427 0004 00AF     		add	r7, sp, #0
 10428              	.LCFI233:
 10429              		.cfi_def_cfa_register 7
 10430 0006 F860     		str	r0, [r7, #12]
 10431 0008 7981     		strh	r1, [r7, #10]	@ movhi
 10432 000a 3A81     		strh	r2, [r7, #8]	@ movhi
 10433 000c FB80     		strh	r3, [r7, #6]	@ movhi
2727:App/STM32F4-Discovery/Libraries/STM32F4xx_StdPeriph_Driver/src/stm32f4xx_tim.c ****   /* Check the parameters */
2728:App/STM32F4-Discovery/Libraries/STM32F4xx_StdPeriph_Driver/src/stm32f4xx_tim.c ****   assert_param(IS_TIM_LIST1_PERIPH(TIMx));
 10434              		.loc 1 2728 0
 10435 000e FA68     		ldr	r2, [r7, #12]
 10436 0010 354B     		ldr	r3, .L473
 10437 0012 9A42     		cmp	r2, r3
 10438 0014 30D0     		beq	.L468
 10439              		.loc 1 2728 0 is_stmt 0 discriminator 1
 10440 0016 FB68     		ldr	r3, [r7, #12]
 10441 0018 B3F1804F 		cmp	r3, #1073741824
 10442 001c 2CD0     		beq	.L468
 10443 001e FA68     		ldr	r2, [r7, #12]
 10444 0020 324B     		ldr	r3, .L473+4
 10445 0022 9A42     		cmp	r2, r3
 10446 0024 28D0     		beq	.L468
 10447 0026 FA68     		ldr	r2, [r7, #12]
 10448 0028 314B     		ldr	r3, .L473+8
 10449 002a 9A42     		cmp	r2, r3
 10450 002c 24D0     		beq	.L468
 10451 002e FA68     		ldr	r2, [r7, #12]
 10452 0030 304B     		ldr	r3, .L473+12
 10453 0032 9A42     		cmp	r2, r3
 10454 0034 20D0     		beq	.L468
 10455 0036 FA68     		ldr	r2, [r7, #12]
 10456 0038 2F4B     		ldr	r3, .L473+16
 10457 003a 9A42     		cmp	r2, r3
 10458 003c 1CD0     		beq	.L468
 10459 003e FA68     		ldr	r2, [r7, #12]
 10460 0040 2E4B     		ldr	r3, .L473+20
 10461 0042 9A42     		cmp	r2, r3
 10462 0044 18D0     		beq	.L468
 10463 0046 FA68     		ldr	r2, [r7, #12]
 10464 0048 2D4B     		ldr	r3, .L473+24
 10465 004a 9A42     		cmp	r2, r3
 10466 004c 14D0     		beq	.L468
 10467 004e FA68     		ldr	r2, [r7, #12]
 10468 0050 2C4B     		ldr	r3, .L473+28
 10469 0052 9A42     		cmp	r2, r3
 10470 0054 10D0     		beq	.L468
 10471 0056 FA68     		ldr	r2, [r7, #12]
 10472 0058 2B4B     		ldr	r3, .L473+32
 10473 005a 9A42     		cmp	r2, r3
 10474 005c 0CD0     		beq	.L468
 10475 005e FA68     		ldr	r2, [r7, #12]
 10476 0060 2A4B     		ldr	r3, .L473+36
 10477 0062 9A42     		cmp	r2, r3
 10478 0064 08D0     		beq	.L468
 10479 0066 FA68     		ldr	r2, [r7, #12]
 10480 0068 294B     		ldr	r3, .L473+40
 10481 006a 9A42     		cmp	r2, r3
 10482 006c 04D0     		beq	.L468
 10483 006e 2948     		ldr	r0, .L473+44
 10484 0070 40F6A821 		movw	r1, #2728
 10485 0074 FFF7FEFF 		bl	assert_failed
 10486              	.L468:
2729:App/STM32F4-Discovery/Libraries/STM32F4xx_StdPeriph_Driver/src/stm32f4xx_tim.c ****   assert_param(IS_TIM_IC_POLARITY(TIM_ICPolarity));
 10487              		.loc 1 2729 0 is_stmt 1
 10488 0078 3B89     		ldrh	r3, [r7, #8]
 10489 007a 002B     		cmp	r3, #0
 10490 007c 0AD0     		beq	.L469
 10491              		.loc 1 2729 0 is_stmt 0 discriminator 1
 10492 007e 3B89     		ldrh	r3, [r7, #8]
 10493 0080 022B     		cmp	r3, #2
 10494 0082 07D0     		beq	.L469
 10495 0084 3B89     		ldrh	r3, [r7, #8]
 10496 0086 0A2B     		cmp	r3, #10
 10497 0088 04D0     		beq	.L469
 10498 008a 2248     		ldr	r0, .L473+44
 10499 008c 40F6A921 		movw	r1, #2729
 10500 0090 FFF7FEFF 		bl	assert_failed
 10501              	.L469:
2730:App/STM32F4-Discovery/Libraries/STM32F4xx_StdPeriph_Driver/src/stm32f4xx_tim.c ****   assert_param(IS_TIM_IC_FILTER(ICFilter));
 10502              		.loc 1 2730 0 is_stmt 1
 10503 0094 FB88     		ldrh	r3, [r7, #6]
 10504 0096 0F2B     		cmp	r3, #15
 10505 0098 04D9     		bls	.L470
 10506              		.loc 1 2730 0 is_stmt 0 discriminator 1
 10507 009a 1E48     		ldr	r0, .L473+44
 10508 009c 40F6AA21 		movw	r1, #2730
 10509 00a0 FFF7FEFF 		bl	assert_failed
 10510              	.L470:
2731:App/STM32F4-Discovery/Libraries/STM32F4xx_StdPeriph_Driver/src/stm32f4xx_tim.c **** 
2732:App/STM32F4-Discovery/Libraries/STM32F4xx_StdPeriph_Driver/src/stm32f4xx_tim.c ****   /* Configure the Timer Input Clock Source */
2733:App/STM32F4-Discovery/Libraries/STM32F4xx_StdPeriph_Driver/src/stm32f4xx_tim.c ****   if (TIM_TIxExternalCLKSource == TIM_TIxExternalCLK1Source_TI2)
 10511              		.loc 1 2733 0 is_stmt 1
 10512 00a4 7B89     		ldrh	r3, [r7, #10]
 10513 00a6 602B     		cmp	r3, #96
 10514 00a8 07D1     		bne	.L471
2734:App/STM32F4-Discovery/Libraries/STM32F4xx_StdPeriph_Driver/src/stm32f4xx_tim.c ****   {
2735:App/STM32F4-Discovery/Libraries/STM32F4xx_StdPeriph_Driver/src/stm32f4xx_tim.c ****     TI2_Config(TIMx, TIM_ICPolarity, TIM_ICSelection_DirectTI, ICFilter);
 10515              		.loc 1 2735 0
 10516 00aa 3A89     		ldrh	r2, [r7, #8]
 10517 00ac FB88     		ldrh	r3, [r7, #6]
 10518 00ae F868     		ldr	r0, [r7, #12]
 10519 00b0 1146     		mov	r1, r2
 10520 00b2 0122     		movs	r2, #1
 10521 00b4 FFF7FEFF 		bl	TI2_Config
 10522 00b8 06E0     		b	.L472
 10523              	.L471:
2736:App/STM32F4-Discovery/Libraries/STM32F4xx_StdPeriph_Driver/src/stm32f4xx_tim.c ****   }
2737:App/STM32F4-Discovery/Libraries/STM32F4xx_StdPeriph_Driver/src/stm32f4xx_tim.c ****   else
2738:App/STM32F4-Discovery/Libraries/STM32F4xx_StdPeriph_Driver/src/stm32f4xx_tim.c ****   {
2739:App/STM32F4-Discovery/Libraries/STM32F4xx_StdPeriph_Driver/src/stm32f4xx_tim.c ****     TI1_Config(TIMx, TIM_ICPolarity, TIM_ICSelection_DirectTI, ICFilter);
 10524              		.loc 1 2739 0
 10525 00ba 3A89     		ldrh	r2, [r7, #8]
 10526 00bc FB88     		ldrh	r3, [r7, #6]
 10527 00be F868     		ldr	r0, [r7, #12]
 10528 00c0 1146     		mov	r1, r2
 10529 00c2 0122     		movs	r2, #1
 10530 00c4 FFF7FEFF 		bl	TI1_Config
 10531              	.L472:
2740:App/STM32F4-Discovery/Libraries/STM32F4xx_StdPeriph_Driver/src/stm32f4xx_tim.c ****   }
2741:App/STM32F4-Discovery/Libraries/STM32F4xx_StdPeriph_Driver/src/stm32f4xx_tim.c ****   /* Select the Trigger source */
2742:App/STM32F4-Discovery/Libraries/STM32F4xx_StdPeriph_Driver/src/stm32f4xx_tim.c ****   TIM_SelectInputTrigger(TIMx, TIM_TIxExternalCLKSource);
 10532              		.loc 1 2742 0
 10533 00c8 7B89     		ldrh	r3, [r7, #10]
 10534 00ca F868     		ldr	r0, [r7, #12]
 10535 00cc 1946     		mov	r1, r3
 10536 00ce FFF7FEFF 		bl	TIM_SelectInputTrigger
2743:App/STM32F4-Discovery/Libraries/STM32F4xx_StdPeriph_Driver/src/stm32f4xx_tim.c ****   /* Select the External clock mode1 */
2744:App/STM32F4-Discovery/Libraries/STM32F4xx_StdPeriph_Driver/src/stm32f4xx_tim.c ****   TIMx->SMCR |= TIM_SlaveMode_External1;
 10537              		.loc 1 2744 0
 10538 00d2 FB68     		ldr	r3, [r7, #12]
 10539 00d4 1B89     		ldrh	r3, [r3, #8]	@ movhi
 10540 00d6 9BB2     		uxth	r3, r3
 10541 00d8 43F00703 		orr	r3, r3, #7
 10542 00dc 9AB2     		uxth	r2, r3
 10543 00de FB68     		ldr	r3, [r7, #12]
 10544 00e0 1A81     		strh	r2, [r3, #8]	@ movhi
2745:App/STM32F4-Discovery/Libraries/STM32F4xx_StdPeriph_Driver/src/stm32f4xx_tim.c **** }
 10545              		.loc 1 2745 0
 10546 00e2 1037     		adds	r7, r7, #16
 10547 00e4 BD46     		mov	sp, r7
 10548              		@ sp needed
 10549 00e6 80BD     		pop	{r7, pc}
 10550              	.L474:
 10551              		.align	2
 10552              	.L473:
 10553 00e8 00000140 		.word	1073807360
 10554 00ec 00040040 		.word	1073742848
 10555 00f0 00080040 		.word	1073743872
 10556 00f4 000C0040 		.word	1073744896
 10557 00f8 00040140 		.word	1073808384
 10558 00fc 00400140 		.word	1073823744
 10559 0100 00440140 		.word	1073824768
 10560 0104 00480140 		.word	1073825792
 10561 0108 00180040 		.word	1073747968
 10562 010c 001C0040 		.word	1073748992
 10563 0110 00200040 		.word	1073750016
 10564 0114 00000000 		.word	.LC0
 10565              		.cfi_endproc
 10566              	.LFE187:
 10568              		.section	.text.TIM_ETRClockMode1Config,"ax",%progbits
 10569              		.align	2
 10570              		.global	TIM_ETRClockMode1Config
 10571              		.thumb
 10572              		.thumb_func
 10574              	TIM_ETRClockMode1Config:
 10575              	.LFB188:
2746:App/STM32F4-Discovery/Libraries/STM32F4xx_StdPeriph_Driver/src/stm32f4xx_tim.c **** 
2747:App/STM32F4-Discovery/Libraries/STM32F4xx_StdPeriph_Driver/src/stm32f4xx_tim.c **** /**
2748:App/STM32F4-Discovery/Libraries/STM32F4xx_StdPeriph_Driver/src/stm32f4xx_tim.c ****   * @brief  Configures the External clock Mode1
2749:App/STM32F4-Discovery/Libraries/STM32F4xx_StdPeriph_Driver/src/stm32f4xx_tim.c ****   * @param  TIMx: where x can be  1, 2, 3, 4, 5 or 8 to select the TIM peripheral.
2750:App/STM32F4-Discovery/Libraries/STM32F4xx_StdPeriph_Driver/src/stm32f4xx_tim.c ****   * @param  TIM_ExtTRGPrescaler: The external Trigger Prescaler.
2751:App/STM32F4-Discovery/Libraries/STM32F4xx_StdPeriph_Driver/src/stm32f4xx_tim.c ****   *          This parameter can be one of the following values:
2752:App/STM32F4-Discovery/Libraries/STM32F4xx_StdPeriph_Driver/src/stm32f4xx_tim.c ****   *            @arg TIM_ExtTRGPSC_OFF: ETRP Prescaler OFF.
2753:App/STM32F4-Discovery/Libraries/STM32F4xx_StdPeriph_Driver/src/stm32f4xx_tim.c ****   *            @arg TIM_ExtTRGPSC_DIV2: ETRP frequency divided by 2.
2754:App/STM32F4-Discovery/Libraries/STM32F4xx_StdPeriph_Driver/src/stm32f4xx_tim.c ****   *            @arg TIM_ExtTRGPSC_DIV4: ETRP frequency divided by 4.
2755:App/STM32F4-Discovery/Libraries/STM32F4xx_StdPeriph_Driver/src/stm32f4xx_tim.c ****   *            @arg TIM_ExtTRGPSC_DIV8: ETRP frequency divided by 8.
2756:App/STM32F4-Discovery/Libraries/STM32F4xx_StdPeriph_Driver/src/stm32f4xx_tim.c ****   * @param  TIM_ExtTRGPolarity: The external Trigger Polarity.
2757:App/STM32F4-Discovery/Libraries/STM32F4xx_StdPeriph_Driver/src/stm32f4xx_tim.c ****   *          This parameter can be one of the following values:
2758:App/STM32F4-Discovery/Libraries/STM32F4xx_StdPeriph_Driver/src/stm32f4xx_tim.c ****   *            @arg TIM_ExtTRGPolarity_Inverted: active low or falling edge active.
2759:App/STM32F4-Discovery/Libraries/STM32F4xx_StdPeriph_Driver/src/stm32f4xx_tim.c ****   *            @arg TIM_ExtTRGPolarity_NonInverted: active high or rising edge active.
2760:App/STM32F4-Discovery/Libraries/STM32F4xx_StdPeriph_Driver/src/stm32f4xx_tim.c ****   * @param  ExtTRGFilter: External Trigger Filter.
2761:App/STM32F4-Discovery/Libraries/STM32F4xx_StdPeriph_Driver/src/stm32f4xx_tim.c ****   *          This parameter must be a value between 0x00 and 0x0F
2762:App/STM32F4-Discovery/Libraries/STM32F4xx_StdPeriph_Driver/src/stm32f4xx_tim.c ****   * @retval None
2763:App/STM32F4-Discovery/Libraries/STM32F4xx_StdPeriph_Driver/src/stm32f4xx_tim.c ****   */
2764:App/STM32F4-Discovery/Libraries/STM32F4xx_StdPeriph_Driver/src/stm32f4xx_tim.c **** void TIM_ETRClockMode1Config(TIM_TypeDef* TIMx, uint16_t TIM_ExtTRGPrescaler,
2765:App/STM32F4-Discovery/Libraries/STM32F4xx_StdPeriph_Driver/src/stm32f4xx_tim.c ****                             uint16_t TIM_ExtTRGPolarity, uint16_t ExtTRGFilter)
2766:App/STM32F4-Discovery/Libraries/STM32F4xx_StdPeriph_Driver/src/stm32f4xx_tim.c **** {
 10576              		.loc 1 2766 0
 10577              		.cfi_startproc
 10578              		@ args = 0, pretend = 0, frame = 24
 10579              		@ frame_needed = 1, uses_anonymous_args = 0
 10580 0000 80B5     		push	{r7, lr}
 10581              	.LCFI234:
 10582              		.cfi_def_cfa_offset 8
 10583              		.cfi_offset 7, -8
 10584              		.cfi_offset 14, -4
 10585 0002 86B0     		sub	sp, sp, #24
 10586              	.LCFI235:
 10587              		.cfi_def_cfa_offset 32
 10588 0004 00AF     		add	r7, sp, #0
 10589              	.LCFI236:
 10590              		.cfi_def_cfa_register 7
 10591 0006 F860     		str	r0, [r7, #12]
 10592 0008 7981     		strh	r1, [r7, #10]	@ movhi
 10593 000a 3A81     		strh	r2, [r7, #8]	@ movhi
 10594 000c FB80     		strh	r3, [r7, #6]	@ movhi
2767:App/STM32F4-Discovery/Libraries/STM32F4xx_StdPeriph_Driver/src/stm32f4xx_tim.c ****   uint16_t tmpsmcr = 0;
 10595              		.loc 1 2767 0
 10596 000e 0023     		movs	r3, #0
 10597 0010 FB82     		strh	r3, [r7, #22]	@ movhi
2768:App/STM32F4-Discovery/Libraries/STM32F4xx_StdPeriph_Driver/src/stm32f4xx_tim.c **** 
2769:App/STM32F4-Discovery/Libraries/STM32F4xx_StdPeriph_Driver/src/stm32f4xx_tim.c ****   /* Check the parameters */
2770:App/STM32F4-Discovery/Libraries/STM32F4xx_StdPeriph_Driver/src/stm32f4xx_tim.c ****   assert_param(IS_TIM_LIST3_PERIPH(TIMx));
 10598              		.loc 1 2770 0
 10599 0012 FA68     		ldr	r2, [r7, #12]
 10600 0014 314B     		ldr	r3, .L480
 10601 0016 9A42     		cmp	r2, r3
 10602 0018 18D0     		beq	.L476
 10603              		.loc 1 2770 0 is_stmt 0 discriminator 1
 10604 001a FB68     		ldr	r3, [r7, #12]
 10605 001c B3F1804F 		cmp	r3, #1073741824
 10606 0020 14D0     		beq	.L476
 10607 0022 FA68     		ldr	r2, [r7, #12]
 10608 0024 2E4B     		ldr	r3, .L480+4
 10609 0026 9A42     		cmp	r2, r3
 10610 0028 10D0     		beq	.L476
 10611 002a FA68     		ldr	r2, [r7, #12]
 10612 002c 2D4B     		ldr	r3, .L480+8
 10613 002e 9A42     		cmp	r2, r3
 10614 0030 0CD0     		beq	.L476
 10615 0032 FA68     		ldr	r2, [r7, #12]
 10616 0034 2C4B     		ldr	r3, .L480+12
 10617 0036 9A42     		cmp	r2, r3
 10618 0038 08D0     		beq	.L476
 10619 003a FA68     		ldr	r2, [r7, #12]
 10620 003c 2B4B     		ldr	r3, .L480+16
 10621 003e 9A42     		cmp	r2, r3
 10622 0040 04D0     		beq	.L476
 10623 0042 2B48     		ldr	r0, .L480+20
 10624 0044 40F6D221 		movw	r1, #2770
 10625 0048 FFF7FEFF 		bl	assert_failed
 10626              	.L476:
2771:App/STM32F4-Discovery/Libraries/STM32F4xx_StdPeriph_Driver/src/stm32f4xx_tim.c ****   assert_param(IS_TIM_EXT_PRESCALER(TIM_ExtTRGPrescaler));
 10627              		.loc 1 2771 0 is_stmt 1
 10628 004c 7B89     		ldrh	r3, [r7, #10]
 10629 004e 002B     		cmp	r3, #0
 10630 0050 10D0     		beq	.L477
 10631              		.loc 1 2771 0 is_stmt 0 discriminator 1
 10632 0052 7B89     		ldrh	r3, [r7, #10]
 10633 0054 B3F5805F 		cmp	r3, #4096
 10634 0058 0CD0     		beq	.L477
 10635 005a 7B89     		ldrh	r3, [r7, #10]
 10636 005c B3F5005F 		cmp	r3, #8192
 10637 0060 08D0     		beq	.L477
 10638 0062 7B89     		ldrh	r3, [r7, #10]
 10639 0064 B3F5405F 		cmp	r3, #12288
 10640 0068 04D0     		beq	.L477
 10641 006a 2148     		ldr	r0, .L480+20
 10642 006c 40F6D321 		movw	r1, #2771
 10643 0070 FFF7FEFF 		bl	assert_failed
 10644              	.L477:
2772:App/STM32F4-Discovery/Libraries/STM32F4xx_StdPeriph_Driver/src/stm32f4xx_tim.c ****   assert_param(IS_TIM_EXT_POLARITY(TIM_ExtTRGPolarity));
 10645              		.loc 1 2772 0 is_stmt 1
 10646 0074 3B89     		ldrh	r3, [r7, #8]
 10647 0076 B3F5004F 		cmp	r3, #32768
 10648 007a 07D0     		beq	.L478
 10649              		.loc 1 2772 0 is_stmt 0 discriminator 1
 10650 007c 3B89     		ldrh	r3, [r7, #8]
 10651 007e 002B     		cmp	r3, #0
 10652 0080 04D0     		beq	.L478
 10653 0082 1B48     		ldr	r0, .L480+20
 10654 0084 40F6D421 		movw	r1, #2772
 10655 0088 FFF7FEFF 		bl	assert_failed
 10656              	.L478:
2773:App/STM32F4-Discovery/Libraries/STM32F4xx_StdPeriph_Driver/src/stm32f4xx_tim.c ****   assert_param(IS_TIM_EXT_FILTER(ExtTRGFilter));
 10657              		.loc 1 2773 0 is_stmt 1
 10658 008c FB88     		ldrh	r3, [r7, #6]
 10659 008e 0F2B     		cmp	r3, #15
 10660 0090 04D9     		bls	.L479
 10661              		.loc 1 2773 0 is_stmt 0 discriminator 1
 10662 0092 1748     		ldr	r0, .L480+20
 10663 0094 40F6D521 		movw	r1, #2773
 10664 0098 FFF7FEFF 		bl	assert_failed
 10665              	.L479:
2774:App/STM32F4-Discovery/Libraries/STM32F4xx_StdPeriph_Driver/src/stm32f4xx_tim.c ****   /* Configure the ETR Clock source */
2775:App/STM32F4-Discovery/Libraries/STM32F4xx_StdPeriph_Driver/src/stm32f4xx_tim.c ****   TIM_ETRConfig(TIMx, TIM_ExtTRGPrescaler, TIM_ExtTRGPolarity, ExtTRGFilter);
 10666              		.loc 1 2775 0 is_stmt 1
 10667 009c 7989     		ldrh	r1, [r7, #10]
 10668 009e 3A89     		ldrh	r2, [r7, #8]
 10669 00a0 FB88     		ldrh	r3, [r7, #6]
 10670 00a2 F868     		ldr	r0, [r7, #12]
 10671 00a4 FFF7FEFF 		bl	TIM_ETRConfig
2776:App/STM32F4-Discovery/Libraries/STM32F4xx_StdPeriph_Driver/src/stm32f4xx_tim.c ****   
2777:App/STM32F4-Discovery/Libraries/STM32F4xx_StdPeriph_Driver/src/stm32f4xx_tim.c ****   /* Get the TIMx SMCR register value */
2778:App/STM32F4-Discovery/Libraries/STM32F4xx_StdPeriph_Driver/src/stm32f4xx_tim.c ****   tmpsmcr = TIMx->SMCR;
 10672              		.loc 1 2778 0
 10673 00a8 FB68     		ldr	r3, [r7, #12]
 10674 00aa 1B89     		ldrh	r3, [r3, #8]	@ movhi
 10675 00ac FB82     		strh	r3, [r7, #22]	@ movhi
2779:App/STM32F4-Discovery/Libraries/STM32F4xx_StdPeriph_Driver/src/stm32f4xx_tim.c **** 
2780:App/STM32F4-Discovery/Libraries/STM32F4xx_StdPeriph_Driver/src/stm32f4xx_tim.c ****   /* Reset the SMS Bits */
2781:App/STM32F4-Discovery/Libraries/STM32F4xx_StdPeriph_Driver/src/stm32f4xx_tim.c ****   tmpsmcr &= (uint16_t)~TIM_SMCR_SMS;
 10676              		.loc 1 2781 0
 10677 00ae FB8A     		ldrh	r3, [r7, #22]	@ movhi
 10678 00b0 23F00703 		bic	r3, r3, #7
 10679 00b4 FB82     		strh	r3, [r7, #22]	@ movhi
2782:App/STM32F4-Discovery/Libraries/STM32F4xx_StdPeriph_Driver/src/stm32f4xx_tim.c **** 
2783:App/STM32F4-Discovery/Libraries/STM32F4xx_StdPeriph_Driver/src/stm32f4xx_tim.c ****   /* Select the External clock mode1 */
2784:App/STM32F4-Discovery/Libraries/STM32F4xx_StdPeriph_Driver/src/stm32f4xx_tim.c ****   tmpsmcr |= TIM_SlaveMode_External1;
 10680              		.loc 1 2784 0
 10681 00b6 FB8A     		ldrh	r3, [r7, #22]	@ movhi
 10682 00b8 43F00703 		orr	r3, r3, #7
 10683 00bc FB82     		strh	r3, [r7, #22]	@ movhi
2785:App/STM32F4-Discovery/Libraries/STM32F4xx_StdPeriph_Driver/src/stm32f4xx_tim.c **** 
2786:App/STM32F4-Discovery/Libraries/STM32F4xx_StdPeriph_Driver/src/stm32f4xx_tim.c ****   /* Select the Trigger selection : ETRF */
2787:App/STM32F4-Discovery/Libraries/STM32F4xx_StdPeriph_Driver/src/stm32f4xx_tim.c ****   tmpsmcr &= (uint16_t)~TIM_SMCR_TS;
 10684              		.loc 1 2787 0
 10685 00be FB8A     		ldrh	r3, [r7, #22]	@ movhi
 10686 00c0 23F07003 		bic	r3, r3, #112
 10687 00c4 FB82     		strh	r3, [r7, #22]	@ movhi
2788:App/STM32F4-Discovery/Libraries/STM32F4xx_StdPeriph_Driver/src/stm32f4xx_tim.c ****   tmpsmcr |= TIM_TS_ETRF;
 10688              		.loc 1 2788 0
 10689 00c6 FB8A     		ldrh	r3, [r7, #22]	@ movhi
 10690 00c8 43F07003 		orr	r3, r3, #112
 10691 00cc FB82     		strh	r3, [r7, #22]	@ movhi
2789:App/STM32F4-Discovery/Libraries/STM32F4xx_StdPeriph_Driver/src/stm32f4xx_tim.c **** 
2790:App/STM32F4-Discovery/Libraries/STM32F4xx_StdPeriph_Driver/src/stm32f4xx_tim.c ****   /* Write to TIMx SMCR */
2791:App/STM32F4-Discovery/Libraries/STM32F4xx_StdPeriph_Driver/src/stm32f4xx_tim.c ****   TIMx->SMCR = tmpsmcr;
 10692              		.loc 1 2791 0
 10693 00ce FB68     		ldr	r3, [r7, #12]
 10694 00d0 FA8A     		ldrh	r2, [r7, #22]	@ movhi
 10695 00d2 1A81     		strh	r2, [r3, #8]	@ movhi
2792:App/STM32F4-Discovery/Libraries/STM32F4xx_StdPeriph_Driver/src/stm32f4xx_tim.c **** }
 10696              		.loc 1 2792 0
 10697 00d4 1837     		adds	r7, r7, #24
 10698 00d6 BD46     		mov	sp, r7
 10699              		@ sp needed
 10700 00d8 80BD     		pop	{r7, pc}
 10701              	.L481:
 10702 00da 00BF     		.align	2
 10703              	.L480:
 10704 00dc 00000140 		.word	1073807360
 10705 00e0 00040040 		.word	1073742848
 10706 00e4 00080040 		.word	1073743872
 10707 00e8 000C0040 		.word	1073744896
 10708 00ec 00040140 		.word	1073808384
 10709 00f0 00000000 		.word	.LC0
 10710              		.cfi_endproc
 10711              	.LFE188:
 10713              		.section	.text.TIM_ETRClockMode2Config,"ax",%progbits
 10714              		.align	2
 10715              		.global	TIM_ETRClockMode2Config
 10716              		.thumb
 10717              		.thumb_func
 10719              	TIM_ETRClockMode2Config:
 10720              	.LFB189:
2793:App/STM32F4-Discovery/Libraries/STM32F4xx_StdPeriph_Driver/src/stm32f4xx_tim.c **** 
2794:App/STM32F4-Discovery/Libraries/STM32F4xx_StdPeriph_Driver/src/stm32f4xx_tim.c **** /**
2795:App/STM32F4-Discovery/Libraries/STM32F4xx_StdPeriph_Driver/src/stm32f4xx_tim.c ****   * @brief  Configures the External clock Mode2
2796:App/STM32F4-Discovery/Libraries/STM32F4xx_StdPeriph_Driver/src/stm32f4xx_tim.c ****   * @param  TIMx: where x can be  1, 2, 3, 4, 5 or 8 to select the TIM peripheral.
2797:App/STM32F4-Discovery/Libraries/STM32F4xx_StdPeriph_Driver/src/stm32f4xx_tim.c ****   * @param  TIM_ExtTRGPrescaler: The external Trigger Prescaler.
2798:App/STM32F4-Discovery/Libraries/STM32F4xx_StdPeriph_Driver/src/stm32f4xx_tim.c ****   *          This parameter can be one of the following values:
2799:App/STM32F4-Discovery/Libraries/STM32F4xx_StdPeriph_Driver/src/stm32f4xx_tim.c ****   *            @arg TIM_ExtTRGPSC_OFF: ETRP Prescaler OFF.
2800:App/STM32F4-Discovery/Libraries/STM32F4xx_StdPeriph_Driver/src/stm32f4xx_tim.c ****   *            @arg TIM_ExtTRGPSC_DIV2: ETRP frequency divided by 2.
2801:App/STM32F4-Discovery/Libraries/STM32F4xx_StdPeriph_Driver/src/stm32f4xx_tim.c ****   *            @arg TIM_ExtTRGPSC_DIV4: ETRP frequency divided by 4.
2802:App/STM32F4-Discovery/Libraries/STM32F4xx_StdPeriph_Driver/src/stm32f4xx_tim.c ****   *            @arg TIM_ExtTRGPSC_DIV8: ETRP frequency divided by 8.
2803:App/STM32F4-Discovery/Libraries/STM32F4xx_StdPeriph_Driver/src/stm32f4xx_tim.c ****   * @param  TIM_ExtTRGPolarity: The external Trigger Polarity.
2804:App/STM32F4-Discovery/Libraries/STM32F4xx_StdPeriph_Driver/src/stm32f4xx_tim.c ****   *          This parameter can be one of the following values:
2805:App/STM32F4-Discovery/Libraries/STM32F4xx_StdPeriph_Driver/src/stm32f4xx_tim.c ****   *            @arg TIM_ExtTRGPolarity_Inverted: active low or falling edge active.
2806:App/STM32F4-Discovery/Libraries/STM32F4xx_StdPeriph_Driver/src/stm32f4xx_tim.c ****   *            @arg TIM_ExtTRGPolarity_NonInverted: active high or rising edge active.
2807:App/STM32F4-Discovery/Libraries/STM32F4xx_StdPeriph_Driver/src/stm32f4xx_tim.c ****   * @param  ExtTRGFilter: External Trigger Filter.
2808:App/STM32F4-Discovery/Libraries/STM32F4xx_StdPeriph_Driver/src/stm32f4xx_tim.c ****   *          This parameter must be a value between 0x00 and 0x0F
2809:App/STM32F4-Discovery/Libraries/STM32F4xx_StdPeriph_Driver/src/stm32f4xx_tim.c ****   * @retval None
2810:App/STM32F4-Discovery/Libraries/STM32F4xx_StdPeriph_Driver/src/stm32f4xx_tim.c ****   */
2811:App/STM32F4-Discovery/Libraries/STM32F4xx_StdPeriph_Driver/src/stm32f4xx_tim.c **** void TIM_ETRClockMode2Config(TIM_TypeDef* TIMx, uint16_t TIM_ExtTRGPrescaler, 
2812:App/STM32F4-Discovery/Libraries/STM32F4xx_StdPeriph_Driver/src/stm32f4xx_tim.c ****                              uint16_t TIM_ExtTRGPolarity, uint16_t ExtTRGFilter)
2813:App/STM32F4-Discovery/Libraries/STM32F4xx_StdPeriph_Driver/src/stm32f4xx_tim.c **** {
 10721              		.loc 1 2813 0
 10722              		.cfi_startproc
 10723              		@ args = 0, pretend = 0, frame = 16
 10724              		@ frame_needed = 1, uses_anonymous_args = 0
 10725 0000 80B5     		push	{r7, lr}
 10726              	.LCFI237:
 10727              		.cfi_def_cfa_offset 8
 10728              		.cfi_offset 7, -8
 10729              		.cfi_offset 14, -4
 10730 0002 84B0     		sub	sp, sp, #16
 10731              	.LCFI238:
 10732              		.cfi_def_cfa_offset 24
 10733 0004 00AF     		add	r7, sp, #0
 10734              	.LCFI239:
 10735              		.cfi_def_cfa_register 7
 10736 0006 F860     		str	r0, [r7, #12]
 10737 0008 7981     		strh	r1, [r7, #10]	@ movhi
 10738 000a 3A81     		strh	r2, [r7, #8]	@ movhi
 10739 000c FB80     		strh	r3, [r7, #6]	@ movhi
2814:App/STM32F4-Discovery/Libraries/STM32F4xx_StdPeriph_Driver/src/stm32f4xx_tim.c ****   /* Check the parameters */
2815:App/STM32F4-Discovery/Libraries/STM32F4xx_StdPeriph_Driver/src/stm32f4xx_tim.c ****   assert_param(IS_TIM_LIST3_PERIPH(TIMx));
 10740              		.loc 1 2815 0
 10741 000e FA68     		ldr	r2, [r7, #12]
 10742 0010 2A4B     		ldr	r3, .L487
 10743 0012 9A42     		cmp	r2, r3
 10744 0014 18D0     		beq	.L483
 10745              		.loc 1 2815 0 is_stmt 0 discriminator 1
 10746 0016 FB68     		ldr	r3, [r7, #12]
 10747 0018 B3F1804F 		cmp	r3, #1073741824
 10748 001c 14D0     		beq	.L483
 10749 001e FA68     		ldr	r2, [r7, #12]
 10750 0020 274B     		ldr	r3, .L487+4
 10751 0022 9A42     		cmp	r2, r3
 10752 0024 10D0     		beq	.L483
 10753 0026 FA68     		ldr	r2, [r7, #12]
 10754 0028 264B     		ldr	r3, .L487+8
 10755 002a 9A42     		cmp	r2, r3
 10756 002c 0CD0     		beq	.L483
 10757 002e FA68     		ldr	r2, [r7, #12]
 10758 0030 254B     		ldr	r3, .L487+12
 10759 0032 9A42     		cmp	r2, r3
 10760 0034 08D0     		beq	.L483
 10761 0036 FA68     		ldr	r2, [r7, #12]
 10762 0038 244B     		ldr	r3, .L487+16
 10763 003a 9A42     		cmp	r2, r3
 10764 003c 04D0     		beq	.L483
 10765 003e 2448     		ldr	r0, .L487+20
 10766 0040 40F6FF21 		movw	r1, #2815
 10767 0044 FFF7FEFF 		bl	assert_failed
 10768              	.L483:
2816:App/STM32F4-Discovery/Libraries/STM32F4xx_StdPeriph_Driver/src/stm32f4xx_tim.c ****   assert_param(IS_TIM_EXT_PRESCALER(TIM_ExtTRGPrescaler));
 10769              		.loc 1 2816 0 is_stmt 1
 10770 0048 7B89     		ldrh	r3, [r7, #10]
 10771 004a 002B     		cmp	r3, #0
 10772 004c 10D0     		beq	.L484
 10773              		.loc 1 2816 0 is_stmt 0 discriminator 1
 10774 004e 7B89     		ldrh	r3, [r7, #10]
 10775 0050 B3F5805F 		cmp	r3, #4096
 10776 0054 0CD0     		beq	.L484
 10777 0056 7B89     		ldrh	r3, [r7, #10]
 10778 0058 B3F5005F 		cmp	r3, #8192
 10779 005c 08D0     		beq	.L484
 10780 005e 7B89     		ldrh	r3, [r7, #10]
 10781 0060 B3F5405F 		cmp	r3, #12288
 10782 0064 04D0     		beq	.L484
 10783 0066 1A48     		ldr	r0, .L487+20
 10784 0068 4FF43061 		mov	r1, #2816
 10785 006c FFF7FEFF 		bl	assert_failed
 10786              	.L484:
2817:App/STM32F4-Discovery/Libraries/STM32F4xx_StdPeriph_Driver/src/stm32f4xx_tim.c ****   assert_param(IS_TIM_EXT_POLARITY(TIM_ExtTRGPolarity));
 10787              		.loc 1 2817 0 is_stmt 1
 10788 0070 3B89     		ldrh	r3, [r7, #8]
 10789 0072 B3F5004F 		cmp	r3, #32768
 10790 0076 07D0     		beq	.L485
 10791              		.loc 1 2817 0 is_stmt 0 discriminator 1
 10792 0078 3B89     		ldrh	r3, [r7, #8]
 10793 007a 002B     		cmp	r3, #0
 10794 007c 04D0     		beq	.L485
 10795 007e 1448     		ldr	r0, .L487+20
 10796 0080 40F60131 		movw	r1, #2817
 10797 0084 FFF7FEFF 		bl	assert_failed
 10798              	.L485:
2818:App/STM32F4-Discovery/Libraries/STM32F4xx_StdPeriph_Driver/src/stm32f4xx_tim.c ****   assert_param(IS_TIM_EXT_FILTER(ExtTRGFilter));
 10799              		.loc 1 2818 0 is_stmt 1
 10800 0088 FB88     		ldrh	r3, [r7, #6]
 10801 008a 0F2B     		cmp	r3, #15
 10802 008c 04D9     		bls	.L486
 10803              		.loc 1 2818 0 is_stmt 0 discriminator 1
 10804 008e 1048     		ldr	r0, .L487+20
 10805 0090 40F60231 		movw	r1, #2818
 10806 0094 FFF7FEFF 		bl	assert_failed
 10807              	.L486:
2819:App/STM32F4-Discovery/Libraries/STM32F4xx_StdPeriph_Driver/src/stm32f4xx_tim.c **** 
2820:App/STM32F4-Discovery/Libraries/STM32F4xx_StdPeriph_Driver/src/stm32f4xx_tim.c ****   /* Configure the ETR Clock source */
2821:App/STM32F4-Discovery/Libraries/STM32F4xx_StdPeriph_Driver/src/stm32f4xx_tim.c ****   TIM_ETRConfig(TIMx, TIM_ExtTRGPrescaler, TIM_ExtTRGPolarity, ExtTRGFilter);
 10808              		.loc 1 2821 0 is_stmt 1
 10809 0098 7989     		ldrh	r1, [r7, #10]
 10810 009a 3A89     		ldrh	r2, [r7, #8]
 10811 009c FB88     		ldrh	r3, [r7, #6]
 10812 009e F868     		ldr	r0, [r7, #12]
 10813 00a0 FFF7FEFF 		bl	TIM_ETRConfig
2822:App/STM32F4-Discovery/Libraries/STM32F4xx_StdPeriph_Driver/src/stm32f4xx_tim.c **** 
2823:App/STM32F4-Discovery/Libraries/STM32F4xx_StdPeriph_Driver/src/stm32f4xx_tim.c ****   /* Enable the External clock mode2 */
2824:App/STM32F4-Discovery/Libraries/STM32F4xx_StdPeriph_Driver/src/stm32f4xx_tim.c ****   TIMx->SMCR |= TIM_SMCR_ECE;
 10814              		.loc 1 2824 0
 10815 00a4 FB68     		ldr	r3, [r7, #12]
 10816 00a6 1B89     		ldrh	r3, [r3, #8]	@ movhi
 10817 00a8 9BB2     		uxth	r3, r3
 10818 00aa 43F48043 		orr	r3, r3, #16384
 10819 00ae 9AB2     		uxth	r2, r3
 10820 00b0 FB68     		ldr	r3, [r7, #12]
 10821 00b2 1A81     		strh	r2, [r3, #8]	@ movhi
2825:App/STM32F4-Discovery/Libraries/STM32F4xx_StdPeriph_Driver/src/stm32f4xx_tim.c **** }
 10822              		.loc 1 2825 0
 10823 00b4 1037     		adds	r7, r7, #16
 10824 00b6 BD46     		mov	sp, r7
 10825              		@ sp needed
 10826 00b8 80BD     		pop	{r7, pc}
 10827              	.L488:
 10828 00ba 00BF     		.align	2
 10829              	.L487:
 10830 00bc 00000140 		.word	1073807360
 10831 00c0 00040040 		.word	1073742848
 10832 00c4 00080040 		.word	1073743872
 10833 00c8 000C0040 		.word	1073744896
 10834 00cc 00040140 		.word	1073808384
 10835 00d0 00000000 		.word	.LC0
 10836              		.cfi_endproc
 10837              	.LFE189:
 10839              		.section	.text.TIM_SelectInputTrigger,"ax",%progbits
 10840              		.align	2
 10841              		.global	TIM_SelectInputTrigger
 10842              		.thumb
 10843              		.thumb_func
 10845              	TIM_SelectInputTrigger:
 10846              	.LFB190:
2826:App/STM32F4-Discovery/Libraries/STM32F4xx_StdPeriph_Driver/src/stm32f4xx_tim.c **** /**
2827:App/STM32F4-Discovery/Libraries/STM32F4xx_StdPeriph_Driver/src/stm32f4xx_tim.c ****   * @}
2828:App/STM32F4-Discovery/Libraries/STM32F4xx_StdPeriph_Driver/src/stm32f4xx_tim.c ****   */
2829:App/STM32F4-Discovery/Libraries/STM32F4xx_StdPeriph_Driver/src/stm32f4xx_tim.c **** 
2830:App/STM32F4-Discovery/Libraries/STM32F4xx_StdPeriph_Driver/src/stm32f4xx_tim.c **** /** @defgroup TIM_Group7 Synchronization management functions
2831:App/STM32F4-Discovery/Libraries/STM32F4xx_StdPeriph_Driver/src/stm32f4xx_tim.c ****  *  @brief    Synchronization management functions 
2832:App/STM32F4-Discovery/Libraries/STM32F4xx_StdPeriph_Driver/src/stm32f4xx_tim.c ****  *
2833:App/STM32F4-Discovery/Libraries/STM32F4xx_StdPeriph_Driver/src/stm32f4xx_tim.c **** @verbatim   
2834:App/STM32F4-Discovery/Libraries/STM32F4xx_StdPeriph_Driver/src/stm32f4xx_tim.c ****  ===============================================================================
2835:App/STM32F4-Discovery/Libraries/STM32F4xx_StdPeriph_Driver/src/stm32f4xx_tim.c ****                        Synchronization management functions
2836:App/STM32F4-Discovery/Libraries/STM32F4xx_StdPeriph_Driver/src/stm32f4xx_tim.c ****  ===============================================================================  
2837:App/STM32F4-Discovery/Libraries/STM32F4xx_StdPeriph_Driver/src/stm32f4xx_tim.c ****                    
2838:App/STM32F4-Discovery/Libraries/STM32F4xx_StdPeriph_Driver/src/stm32f4xx_tim.c ****        ===================================================================      
2839:App/STM32F4-Discovery/Libraries/STM32F4xx_StdPeriph_Driver/src/stm32f4xx_tim.c ****               TIM Driver: how to use it in synchronization Mode
2840:App/STM32F4-Discovery/Libraries/STM32F4xx_StdPeriph_Driver/src/stm32f4xx_tim.c ****        =================================================================== 
2841:App/STM32F4-Discovery/Libraries/STM32F4xx_StdPeriph_Driver/src/stm32f4xx_tim.c ****        Case of two/several Timers
2842:App/STM32F4-Discovery/Libraries/STM32F4xx_StdPeriph_Driver/src/stm32f4xx_tim.c ****        **************************
2843:App/STM32F4-Discovery/Libraries/STM32F4xx_StdPeriph_Driver/src/stm32f4xx_tim.c ****        1. Configure the Master Timers using the following functions:
2844:App/STM32F4-Discovery/Libraries/STM32F4xx_StdPeriph_Driver/src/stm32f4xx_tim.c ****           - void TIM_SelectOutputTrigger(TIM_TypeDef* TIMx, uint16_t TIM_TRGOSource); 
2845:App/STM32F4-Discovery/Libraries/STM32F4xx_StdPeriph_Driver/src/stm32f4xx_tim.c ****           - void TIM_SelectMasterSlaveMode(TIM_TypeDef* TIMx, uint16_t TIM_MasterSlaveMode);  
2846:App/STM32F4-Discovery/Libraries/STM32F4xx_StdPeriph_Driver/src/stm32f4xx_tim.c ****        2. Configure the Slave Timers using the following functions: 
2847:App/STM32F4-Discovery/Libraries/STM32F4xx_StdPeriph_Driver/src/stm32f4xx_tim.c ****           - void TIM_SelectInputTrigger(TIM_TypeDef* TIMx, uint16_t TIM_InputTriggerSource);  
2848:App/STM32F4-Discovery/Libraries/STM32F4xx_StdPeriph_Driver/src/stm32f4xx_tim.c ****           - void TIM_SelectSlaveMode(TIM_TypeDef* TIMx, uint16_t TIM_SlaveMode); 
2849:App/STM32F4-Discovery/Libraries/STM32F4xx_StdPeriph_Driver/src/stm32f4xx_tim.c ****           
2850:App/STM32F4-Discovery/Libraries/STM32F4xx_StdPeriph_Driver/src/stm32f4xx_tim.c ****        Case of Timers and external trigger(ETR pin)
2851:App/STM32F4-Discovery/Libraries/STM32F4xx_StdPeriph_Driver/src/stm32f4xx_tim.c ****        ********************************************       
2852:App/STM32F4-Discovery/Libraries/STM32F4xx_StdPeriph_Driver/src/stm32f4xx_tim.c ****        1. Configure the External trigger using this function:
2853:App/STM32F4-Discovery/Libraries/STM32F4xx_StdPeriph_Driver/src/stm32f4xx_tim.c ****           - void TIM_ETRConfig(TIM_TypeDef* TIMx, uint16_t TIM_ExtTRGPrescaler, uint16_t TIM_ExtTRG
2854:App/STM32F4-Discovery/Libraries/STM32F4xx_StdPeriph_Driver/src/stm32f4xx_tim.c ****                                uint16_t ExtTRGFilter);
2855:App/STM32F4-Discovery/Libraries/STM32F4xx_StdPeriph_Driver/src/stm32f4xx_tim.c ****        2. Configure the Slave Timers using the following functions: 
2856:App/STM32F4-Discovery/Libraries/STM32F4xx_StdPeriph_Driver/src/stm32f4xx_tim.c ****           - void TIM_SelectInputTrigger(TIM_TypeDef* TIMx, uint16_t TIM_InputTriggerSource);  
2857:App/STM32F4-Discovery/Libraries/STM32F4xx_StdPeriph_Driver/src/stm32f4xx_tim.c ****           - void TIM_SelectSlaveMode(TIM_TypeDef* TIMx, uint16_t TIM_SlaveMode); 
2858:App/STM32F4-Discovery/Libraries/STM32F4xx_StdPeriph_Driver/src/stm32f4xx_tim.c **** 
2859:App/STM32F4-Discovery/Libraries/STM32F4xx_StdPeriph_Driver/src/stm32f4xx_tim.c **** @endverbatim
2860:App/STM32F4-Discovery/Libraries/STM32F4xx_StdPeriph_Driver/src/stm32f4xx_tim.c ****   * @{
2861:App/STM32F4-Discovery/Libraries/STM32F4xx_StdPeriph_Driver/src/stm32f4xx_tim.c ****   */
2862:App/STM32F4-Discovery/Libraries/STM32F4xx_StdPeriph_Driver/src/stm32f4xx_tim.c **** 
2863:App/STM32F4-Discovery/Libraries/STM32F4xx_StdPeriph_Driver/src/stm32f4xx_tim.c **** /**
2864:App/STM32F4-Discovery/Libraries/STM32F4xx_StdPeriph_Driver/src/stm32f4xx_tim.c ****   * @brief  Selects the Input Trigger source
2865:App/STM32F4-Discovery/Libraries/STM32F4xx_StdPeriph_Driver/src/stm32f4xx_tim.c ****   * @param  TIMx: where x can be  1, 2, 3, 4, 5, 8, 9, 10, 11, 12, 13 or 14  
2866:App/STM32F4-Discovery/Libraries/STM32F4xx_StdPeriph_Driver/src/stm32f4xx_tim.c ****   *         to select the TIM peripheral.
2867:App/STM32F4-Discovery/Libraries/STM32F4xx_StdPeriph_Driver/src/stm32f4xx_tim.c ****   * @param  TIM_InputTriggerSource: The Input Trigger source.
2868:App/STM32F4-Discovery/Libraries/STM32F4xx_StdPeriph_Driver/src/stm32f4xx_tim.c ****   *          This parameter can be one of the following values:
2869:App/STM32F4-Discovery/Libraries/STM32F4xx_StdPeriph_Driver/src/stm32f4xx_tim.c ****   *            @arg TIM_TS_ITR0: Internal Trigger 0
2870:App/STM32F4-Discovery/Libraries/STM32F4xx_StdPeriph_Driver/src/stm32f4xx_tim.c ****   *            @arg TIM_TS_ITR1: Internal Trigger 1
2871:App/STM32F4-Discovery/Libraries/STM32F4xx_StdPeriph_Driver/src/stm32f4xx_tim.c ****   *            @arg TIM_TS_ITR2: Internal Trigger 2
2872:App/STM32F4-Discovery/Libraries/STM32F4xx_StdPeriph_Driver/src/stm32f4xx_tim.c ****   *            @arg TIM_TS_ITR3: Internal Trigger 3
2873:App/STM32F4-Discovery/Libraries/STM32F4xx_StdPeriph_Driver/src/stm32f4xx_tim.c ****   *            @arg TIM_TS_TI1F_ED: TI1 Edge Detector
2874:App/STM32F4-Discovery/Libraries/STM32F4xx_StdPeriph_Driver/src/stm32f4xx_tim.c ****   *            @arg TIM_TS_TI1FP1: Filtered Timer Input 1
2875:App/STM32F4-Discovery/Libraries/STM32F4xx_StdPeriph_Driver/src/stm32f4xx_tim.c ****   *            @arg TIM_TS_TI2FP2: Filtered Timer Input 2
2876:App/STM32F4-Discovery/Libraries/STM32F4xx_StdPeriph_Driver/src/stm32f4xx_tim.c ****   *            @arg TIM_TS_ETRF: External Trigger input
2877:App/STM32F4-Discovery/Libraries/STM32F4xx_StdPeriph_Driver/src/stm32f4xx_tim.c ****   * @retval None
2878:App/STM32F4-Discovery/Libraries/STM32F4xx_StdPeriph_Driver/src/stm32f4xx_tim.c ****   */
2879:App/STM32F4-Discovery/Libraries/STM32F4xx_StdPeriph_Driver/src/stm32f4xx_tim.c **** void TIM_SelectInputTrigger(TIM_TypeDef* TIMx, uint16_t TIM_InputTriggerSource)
2880:App/STM32F4-Discovery/Libraries/STM32F4xx_StdPeriph_Driver/src/stm32f4xx_tim.c **** {
 10847              		.loc 1 2880 0
 10848              		.cfi_startproc
 10849              		@ args = 0, pretend = 0, frame = 16
 10850              		@ frame_needed = 1, uses_anonymous_args = 0
 10851 0000 80B5     		push	{r7, lr}
 10852              	.LCFI240:
 10853              		.cfi_def_cfa_offset 8
 10854              		.cfi_offset 7, -8
 10855              		.cfi_offset 14, -4
 10856 0002 84B0     		sub	sp, sp, #16
 10857              	.LCFI241:
 10858              		.cfi_def_cfa_offset 24
 10859 0004 00AF     		add	r7, sp, #0
 10860              	.LCFI242:
 10861              		.cfi_def_cfa_register 7
 10862 0006 7860     		str	r0, [r7, #4]
 10863 0008 0B46     		mov	r3, r1
 10864 000a 7B80     		strh	r3, [r7, #2]	@ movhi
2881:App/STM32F4-Discovery/Libraries/STM32F4xx_StdPeriph_Driver/src/stm32f4xx_tim.c ****   uint16_t tmpsmcr = 0;
 10865              		.loc 1 2881 0
 10866 000c 0023     		movs	r3, #0
 10867 000e FB81     		strh	r3, [r7, #14]	@ movhi
2882:App/STM32F4-Discovery/Libraries/STM32F4xx_StdPeriph_Driver/src/stm32f4xx_tim.c **** 
2883:App/STM32F4-Discovery/Libraries/STM32F4xx_StdPeriph_Driver/src/stm32f4xx_tim.c ****   /* Check the parameters */
2884:App/STM32F4-Discovery/Libraries/STM32F4xx_StdPeriph_Driver/src/stm32f4xx_tim.c ****   assert_param(IS_TIM_LIST1_PERIPH(TIMx)); 
 10868              		.loc 1 2884 0
 10869 0010 7A68     		ldr	r2, [r7, #4]
 10870 0012 314B     		ldr	r3, .L492
 10871 0014 9A42     		cmp	r2, r3
 10872 0016 30D0     		beq	.L490
 10873              		.loc 1 2884 0 is_stmt 0 discriminator 1
 10874 0018 7B68     		ldr	r3, [r7, #4]
 10875 001a B3F1804F 		cmp	r3, #1073741824
 10876 001e 2CD0     		beq	.L490
 10877 0020 7A68     		ldr	r2, [r7, #4]
 10878 0022 2E4B     		ldr	r3, .L492+4
 10879 0024 9A42     		cmp	r2, r3
 10880 0026 28D0     		beq	.L490
 10881 0028 7A68     		ldr	r2, [r7, #4]
 10882 002a 2D4B     		ldr	r3, .L492+8
 10883 002c 9A42     		cmp	r2, r3
 10884 002e 24D0     		beq	.L490
 10885 0030 7A68     		ldr	r2, [r7, #4]
 10886 0032 2C4B     		ldr	r3, .L492+12
 10887 0034 9A42     		cmp	r2, r3
 10888 0036 20D0     		beq	.L490
 10889 0038 7A68     		ldr	r2, [r7, #4]
 10890 003a 2B4B     		ldr	r3, .L492+16
 10891 003c 9A42     		cmp	r2, r3
 10892 003e 1CD0     		beq	.L490
 10893 0040 7A68     		ldr	r2, [r7, #4]
 10894 0042 2A4B     		ldr	r3, .L492+20
 10895 0044 9A42     		cmp	r2, r3
 10896 0046 18D0     		beq	.L490
 10897 0048 7A68     		ldr	r2, [r7, #4]
 10898 004a 294B     		ldr	r3, .L492+24
 10899 004c 9A42     		cmp	r2, r3
 10900 004e 14D0     		beq	.L490
 10901 0050 7A68     		ldr	r2, [r7, #4]
 10902 0052 284B     		ldr	r3, .L492+28
 10903 0054 9A42     		cmp	r2, r3
 10904 0056 10D0     		beq	.L490
 10905 0058 7A68     		ldr	r2, [r7, #4]
 10906 005a 274B     		ldr	r3, .L492+32
 10907 005c 9A42     		cmp	r2, r3
 10908 005e 0CD0     		beq	.L490
 10909 0060 7A68     		ldr	r2, [r7, #4]
 10910 0062 264B     		ldr	r3, .L492+36
 10911 0064 9A42     		cmp	r2, r3
 10912 0066 08D0     		beq	.L490
 10913 0068 7A68     		ldr	r2, [r7, #4]
 10914 006a 254B     		ldr	r3, .L492+40
 10915 006c 9A42     		cmp	r2, r3
 10916 006e 04D0     		beq	.L490
 10917 0070 2448     		ldr	r0, .L492+44
 10918 0072 40F64431 		movw	r1, #2884
 10919 0076 FFF7FEFF 		bl	assert_failed
 10920              	.L490:
2885:App/STM32F4-Discovery/Libraries/STM32F4xx_StdPeriph_Driver/src/stm32f4xx_tim.c ****   assert_param(IS_TIM_TRIGGER_SELECTION(TIM_InputTriggerSource));
 10921              		.loc 1 2885 0 is_stmt 1
 10922 007a 7B88     		ldrh	r3, [r7, #2]
 10923 007c 002B     		cmp	r3, #0
 10924 007e 19D0     		beq	.L491
 10925              		.loc 1 2885 0 is_stmt 0 discriminator 1
 10926 0080 7B88     		ldrh	r3, [r7, #2]
 10927 0082 102B     		cmp	r3, #16
 10928 0084 16D0     		beq	.L491
 10929 0086 7B88     		ldrh	r3, [r7, #2]
 10930 0088 202B     		cmp	r3, #32
 10931 008a 13D0     		beq	.L491
 10932 008c 7B88     		ldrh	r3, [r7, #2]
 10933 008e 302B     		cmp	r3, #48
 10934 0090 10D0     		beq	.L491
 10935 0092 7B88     		ldrh	r3, [r7, #2]
 10936 0094 402B     		cmp	r3, #64
 10937 0096 0DD0     		beq	.L491
 10938 0098 7B88     		ldrh	r3, [r7, #2]
 10939 009a 502B     		cmp	r3, #80
 10940 009c 0AD0     		beq	.L491
 10941 009e 7B88     		ldrh	r3, [r7, #2]
 10942 00a0 602B     		cmp	r3, #96
 10943 00a2 07D0     		beq	.L491
 10944 00a4 7B88     		ldrh	r3, [r7, #2]
 10945 00a6 702B     		cmp	r3, #112
 10946 00a8 04D0     		beq	.L491
 10947 00aa 1648     		ldr	r0, .L492+44
 10948 00ac 40F64531 		movw	r1, #2885
 10949 00b0 FFF7FEFF 		bl	assert_failed
 10950              	.L491:
2886:App/STM32F4-Discovery/Libraries/STM32F4xx_StdPeriph_Driver/src/stm32f4xx_tim.c **** 
2887:App/STM32F4-Discovery/Libraries/STM32F4xx_StdPeriph_Driver/src/stm32f4xx_tim.c ****   /* Get the TIMx SMCR register value */
2888:App/STM32F4-Discovery/Libraries/STM32F4xx_StdPeriph_Driver/src/stm32f4xx_tim.c ****   tmpsmcr = TIMx->SMCR;
 10951              		.loc 1 2888 0 is_stmt 1
 10952 00b4 7B68     		ldr	r3, [r7, #4]
 10953 00b6 1B89     		ldrh	r3, [r3, #8]	@ movhi
 10954 00b8 FB81     		strh	r3, [r7, #14]	@ movhi
2889:App/STM32F4-Discovery/Libraries/STM32F4xx_StdPeriph_Driver/src/stm32f4xx_tim.c **** 
2890:App/STM32F4-Discovery/Libraries/STM32F4xx_StdPeriph_Driver/src/stm32f4xx_tim.c ****   /* Reset the TS Bits */
2891:App/STM32F4-Discovery/Libraries/STM32F4xx_StdPeriph_Driver/src/stm32f4xx_tim.c ****   tmpsmcr &= (uint16_t)~TIM_SMCR_TS;
 10955              		.loc 1 2891 0
 10956 00ba FB89     		ldrh	r3, [r7, #14]	@ movhi
 10957 00bc 23F07003 		bic	r3, r3, #112
 10958 00c0 FB81     		strh	r3, [r7, #14]	@ movhi
2892:App/STM32F4-Discovery/Libraries/STM32F4xx_StdPeriph_Driver/src/stm32f4xx_tim.c **** 
2893:App/STM32F4-Discovery/Libraries/STM32F4xx_StdPeriph_Driver/src/stm32f4xx_tim.c ****   /* Set the Input Trigger source */
2894:App/STM32F4-Discovery/Libraries/STM32F4xx_StdPeriph_Driver/src/stm32f4xx_tim.c ****   tmpsmcr |= TIM_InputTriggerSource;
 10959              		.loc 1 2894 0
 10960 00c2 FA89     		ldrh	r2, [r7, #14]	@ movhi
 10961 00c4 7B88     		ldrh	r3, [r7, #2]	@ movhi
 10962 00c6 1343     		orrs	r3, r3, r2
 10963 00c8 FB81     		strh	r3, [r7, #14]	@ movhi
2895:App/STM32F4-Discovery/Libraries/STM32F4xx_StdPeriph_Driver/src/stm32f4xx_tim.c **** 
2896:App/STM32F4-Discovery/Libraries/STM32F4xx_StdPeriph_Driver/src/stm32f4xx_tim.c ****   /* Write to TIMx SMCR */
2897:App/STM32F4-Discovery/Libraries/STM32F4xx_StdPeriph_Driver/src/stm32f4xx_tim.c ****   TIMx->SMCR = tmpsmcr;
 10964              		.loc 1 2897 0
 10965 00ca 7B68     		ldr	r3, [r7, #4]
 10966 00cc FA89     		ldrh	r2, [r7, #14]	@ movhi
 10967 00ce 1A81     		strh	r2, [r3, #8]	@ movhi
2898:App/STM32F4-Discovery/Libraries/STM32F4xx_StdPeriph_Driver/src/stm32f4xx_tim.c **** }
 10968              		.loc 1 2898 0
 10969 00d0 1037     		adds	r7, r7, #16
 10970 00d2 BD46     		mov	sp, r7
 10971              		@ sp needed
 10972 00d4 80BD     		pop	{r7, pc}
 10973              	.L493:
 10974 00d6 00BF     		.align	2
 10975              	.L492:
 10976 00d8 00000140 		.word	1073807360
 10977 00dc 00040040 		.word	1073742848
 10978 00e0 00080040 		.word	1073743872
 10979 00e4 000C0040 		.word	1073744896
 10980 00e8 00040140 		.word	1073808384
 10981 00ec 00400140 		.word	1073823744
 10982 00f0 00440140 		.word	1073824768
 10983 00f4 00480140 		.word	1073825792
 10984 00f8 00180040 		.word	1073747968
 10985 00fc 001C0040 		.word	1073748992
 10986 0100 00200040 		.word	1073750016
 10987 0104 00000000 		.word	.LC0
 10988              		.cfi_endproc
 10989              	.LFE190:
 10991              		.section	.text.TIM_SelectOutputTrigger,"ax",%progbits
 10992              		.align	2
 10993              		.global	TIM_SelectOutputTrigger
 10994              		.thumb
 10995              		.thumb_func
 10997              	TIM_SelectOutputTrigger:
 10998              	.LFB191:
2899:App/STM32F4-Discovery/Libraries/STM32F4xx_StdPeriph_Driver/src/stm32f4xx_tim.c **** 
2900:App/STM32F4-Discovery/Libraries/STM32F4xx_StdPeriph_Driver/src/stm32f4xx_tim.c **** /**
2901:App/STM32F4-Discovery/Libraries/STM32F4xx_StdPeriph_Driver/src/stm32f4xx_tim.c ****   * @brief  Selects the TIMx Trigger Output Mode.
2902:App/STM32F4-Discovery/Libraries/STM32F4xx_StdPeriph_Driver/src/stm32f4xx_tim.c ****   * @param  TIMx: where x can be 1, 2, 3, 4, 5, 6, 7 or 8 to select the TIM peripheral.
2903:App/STM32F4-Discovery/Libraries/STM32F4xx_StdPeriph_Driver/src/stm32f4xx_tim.c ****   *     
2904:App/STM32F4-Discovery/Libraries/STM32F4xx_StdPeriph_Driver/src/stm32f4xx_tim.c ****   * @param  TIM_TRGOSource: specifies the Trigger Output source.
2905:App/STM32F4-Discovery/Libraries/STM32F4xx_StdPeriph_Driver/src/stm32f4xx_tim.c ****   *   This parameter can be one of the following values:
2906:App/STM32F4-Discovery/Libraries/STM32F4xx_StdPeriph_Driver/src/stm32f4xx_tim.c ****   *
2907:App/STM32F4-Discovery/Libraries/STM32F4xx_StdPeriph_Driver/src/stm32f4xx_tim.c ****   *  - For all TIMx
2908:App/STM32F4-Discovery/Libraries/STM32F4xx_StdPeriph_Driver/src/stm32f4xx_tim.c ****   *            @arg TIM_TRGOSource_Reset:  The UG bit in the TIM_EGR register is used as the trigge
2909:App/STM32F4-Discovery/Libraries/STM32F4xx_StdPeriph_Driver/src/stm32f4xx_tim.c ****   *            @arg TIM_TRGOSource_Enable: The Counter Enable CEN is used as the trigger output(TRG
2910:App/STM32F4-Discovery/Libraries/STM32F4xx_StdPeriph_Driver/src/stm32f4xx_tim.c ****   *            @arg TIM_TRGOSource_Update: The update event is selected as the trigger output(TRGO)
2911:App/STM32F4-Discovery/Libraries/STM32F4xx_StdPeriph_Driver/src/stm32f4xx_tim.c ****   *
2912:App/STM32F4-Discovery/Libraries/STM32F4xx_StdPeriph_Driver/src/stm32f4xx_tim.c ****   *  - For all TIMx except TIM6 and TIM7
2913:App/STM32F4-Discovery/Libraries/STM32F4xx_StdPeriph_Driver/src/stm32f4xx_tim.c ****   *            @arg TIM_TRGOSource_OC1: The trigger output sends a positive pulse when the CC1IF fl
2914:App/STM32F4-Discovery/Libraries/STM32F4xx_StdPeriph_Driver/src/stm32f4xx_tim.c ****   *                                     is to be set, as soon as a capture or compare match occurs(
2915:App/STM32F4-Discovery/Libraries/STM32F4xx_StdPeriph_Driver/src/stm32f4xx_tim.c ****   *            @arg TIM_TRGOSource_OC1Ref: OC1REF signal is used as the trigger output(TRGO)
2916:App/STM32F4-Discovery/Libraries/STM32F4xx_StdPeriph_Driver/src/stm32f4xx_tim.c ****   *            @arg TIM_TRGOSource_OC2Ref: OC2REF signal is used as the trigger output(TRGO)
2917:App/STM32F4-Discovery/Libraries/STM32F4xx_StdPeriph_Driver/src/stm32f4xx_tim.c ****   *            @arg TIM_TRGOSource_OC3Ref: OC3REF signal is used as the trigger output(TRGO)
2918:App/STM32F4-Discovery/Libraries/STM32F4xx_StdPeriph_Driver/src/stm32f4xx_tim.c ****   *            @arg TIM_TRGOSource_OC4Ref: OC4REF signal is used as the trigger output(TRGO)
2919:App/STM32F4-Discovery/Libraries/STM32F4xx_StdPeriph_Driver/src/stm32f4xx_tim.c ****   *
2920:App/STM32F4-Discovery/Libraries/STM32F4xx_StdPeriph_Driver/src/stm32f4xx_tim.c ****   * @retval None
2921:App/STM32F4-Discovery/Libraries/STM32F4xx_StdPeriph_Driver/src/stm32f4xx_tim.c ****   */
2922:App/STM32F4-Discovery/Libraries/STM32F4xx_StdPeriph_Driver/src/stm32f4xx_tim.c **** void TIM_SelectOutputTrigger(TIM_TypeDef* TIMx, uint16_t TIM_TRGOSource)
2923:App/STM32F4-Discovery/Libraries/STM32F4xx_StdPeriph_Driver/src/stm32f4xx_tim.c **** {
 10999              		.loc 1 2923 0
 11000              		.cfi_startproc
 11001              		@ args = 0, pretend = 0, frame = 8
 11002              		@ frame_needed = 1, uses_anonymous_args = 0
 11003 0000 80B5     		push	{r7, lr}
 11004              	.LCFI243:
 11005              		.cfi_def_cfa_offset 8
 11006              		.cfi_offset 7, -8
 11007              		.cfi_offset 14, -4
 11008 0002 82B0     		sub	sp, sp, #8
 11009              	.LCFI244:
 11010              		.cfi_def_cfa_offset 16
 11011 0004 00AF     		add	r7, sp, #0
 11012              	.LCFI245:
 11013              		.cfi_def_cfa_register 7
 11014 0006 7860     		str	r0, [r7, #4]
 11015 0008 0B46     		mov	r3, r1
 11016 000a 7B80     		strh	r3, [r7, #2]	@ movhi
2924:App/STM32F4-Discovery/Libraries/STM32F4xx_StdPeriph_Driver/src/stm32f4xx_tim.c ****   /* Check the parameters */
2925:App/STM32F4-Discovery/Libraries/STM32F4xx_StdPeriph_Driver/src/stm32f4xx_tim.c ****   assert_param(IS_TIM_LIST5_PERIPH(TIMx));
 11017              		.loc 1 2925 0
 11018 000c 7A68     		ldr	r2, [r7, #4]
 11019 000e 2A4B     		ldr	r3, .L497
 11020 0010 9A42     		cmp	r2, r3
 11021 0012 20D0     		beq	.L495
 11022              		.loc 1 2925 0 is_stmt 0 discriminator 1
 11023 0014 7B68     		ldr	r3, [r7, #4]
 11024 0016 B3F1804F 		cmp	r3, #1073741824
 11025 001a 1CD0     		beq	.L495
 11026 001c 7A68     		ldr	r2, [r7, #4]
 11027 001e 274B     		ldr	r3, .L497+4
 11028 0020 9A42     		cmp	r2, r3
 11029 0022 18D0     		beq	.L495
 11030 0024 7A68     		ldr	r2, [r7, #4]
 11031 0026 264B     		ldr	r3, .L497+8
 11032 0028 9A42     		cmp	r2, r3
 11033 002a 14D0     		beq	.L495
 11034 002c 7A68     		ldr	r2, [r7, #4]
 11035 002e 254B     		ldr	r3, .L497+12
 11036 0030 9A42     		cmp	r2, r3
 11037 0032 10D0     		beq	.L495
 11038 0034 7A68     		ldr	r2, [r7, #4]
 11039 0036 244B     		ldr	r3, .L497+16
 11040 0038 9A42     		cmp	r2, r3
 11041 003a 0CD0     		beq	.L495
 11042 003c 7A68     		ldr	r2, [r7, #4]
 11043 003e 234B     		ldr	r3, .L497+20
 11044 0040 9A42     		cmp	r2, r3
 11045 0042 08D0     		beq	.L495
 11046 0044 7A68     		ldr	r2, [r7, #4]
 11047 0046 224B     		ldr	r3, .L497+24
 11048 0048 9A42     		cmp	r2, r3
 11049 004a 04D0     		beq	.L495
 11050 004c 2148     		ldr	r0, .L497+28
 11051 004e 40F66D31 		movw	r1, #2925
 11052 0052 FFF7FEFF 		bl	assert_failed
 11053              	.L495:
2926:App/STM32F4-Discovery/Libraries/STM32F4xx_StdPeriph_Driver/src/stm32f4xx_tim.c ****   assert_param(IS_TIM_TRGO_SOURCE(TIM_TRGOSource));
 11054              		.loc 1 2926 0 is_stmt 1
 11055 0056 7B88     		ldrh	r3, [r7, #2]
 11056 0058 002B     		cmp	r3, #0
 11057 005a 19D0     		beq	.L496
 11058              		.loc 1 2926 0 is_stmt 0 discriminator 1
 11059 005c 7B88     		ldrh	r3, [r7, #2]
 11060 005e 102B     		cmp	r3, #16
 11061 0060 16D0     		beq	.L496
 11062 0062 7B88     		ldrh	r3, [r7, #2]
 11063 0064 202B     		cmp	r3, #32
 11064 0066 13D0     		beq	.L496
 11065 0068 7B88     		ldrh	r3, [r7, #2]
 11066 006a 302B     		cmp	r3, #48
 11067 006c 10D0     		beq	.L496
 11068 006e 7B88     		ldrh	r3, [r7, #2]
 11069 0070 402B     		cmp	r3, #64
 11070 0072 0DD0     		beq	.L496
 11071 0074 7B88     		ldrh	r3, [r7, #2]
 11072 0076 502B     		cmp	r3, #80
 11073 0078 0AD0     		beq	.L496
 11074 007a 7B88     		ldrh	r3, [r7, #2]
 11075 007c 602B     		cmp	r3, #96
 11076 007e 07D0     		beq	.L496
 11077 0080 7B88     		ldrh	r3, [r7, #2]
 11078 0082 702B     		cmp	r3, #112
 11079 0084 04D0     		beq	.L496
 11080 0086 1348     		ldr	r0, .L497+28
 11081 0088 40F66E31 		movw	r1, #2926
 11082 008c FFF7FEFF 		bl	assert_failed
 11083              	.L496:
2927:App/STM32F4-Discovery/Libraries/STM32F4xx_StdPeriph_Driver/src/stm32f4xx_tim.c **** 
2928:App/STM32F4-Discovery/Libraries/STM32F4xx_StdPeriph_Driver/src/stm32f4xx_tim.c ****   /* Reset the MMS Bits */
2929:App/STM32F4-Discovery/Libraries/STM32F4xx_StdPeriph_Driver/src/stm32f4xx_tim.c ****   TIMx->CR2 &= (uint16_t)~TIM_CR2_MMS;
 11084              		.loc 1 2929 0 is_stmt 1
 11085 0090 7B68     		ldr	r3, [r7, #4]
 11086 0092 9B88     		ldrh	r3, [r3, #4]	@ movhi
 11087 0094 9BB2     		uxth	r3, r3
 11088 0096 23F07003 		bic	r3, r3, #112
 11089 009a 9AB2     		uxth	r2, r3
 11090 009c 7B68     		ldr	r3, [r7, #4]
 11091 009e 9A80     		strh	r2, [r3, #4]	@ movhi
2930:App/STM32F4-Discovery/Libraries/STM32F4xx_StdPeriph_Driver/src/stm32f4xx_tim.c ****   /* Select the TRGO source */
2931:App/STM32F4-Discovery/Libraries/STM32F4xx_StdPeriph_Driver/src/stm32f4xx_tim.c ****   TIMx->CR2 |=  TIM_TRGOSource;
 11092              		.loc 1 2931 0
 11093 00a0 7B68     		ldr	r3, [r7, #4]
 11094 00a2 9B88     		ldrh	r3, [r3, #4]	@ movhi
 11095 00a4 9AB2     		uxth	r2, r3
 11096 00a6 7B88     		ldrh	r3, [r7, #2]	@ movhi
 11097 00a8 1343     		orrs	r3, r3, r2
 11098 00aa 9AB2     		uxth	r2, r3
 11099 00ac 7B68     		ldr	r3, [r7, #4]
 11100 00ae 9A80     		strh	r2, [r3, #4]	@ movhi
2932:App/STM32F4-Discovery/Libraries/STM32F4xx_StdPeriph_Driver/src/stm32f4xx_tim.c **** }
 11101              		.loc 1 2932 0
 11102 00b0 0837     		adds	r7, r7, #8
 11103 00b2 BD46     		mov	sp, r7
 11104              		@ sp needed
 11105 00b4 80BD     		pop	{r7, pc}
 11106              	.L498:
 11107 00b6 00BF     		.align	2
 11108              	.L497:
 11109 00b8 00000140 		.word	1073807360
 11110 00bc 00040040 		.word	1073742848
 11111 00c0 00080040 		.word	1073743872
 11112 00c4 000C0040 		.word	1073744896
 11113 00c8 00100040 		.word	1073745920
 11114 00cc 00140040 		.word	1073746944
 11115 00d0 00040140 		.word	1073808384
 11116 00d4 00000000 		.word	.LC0
 11117              		.cfi_endproc
 11118              	.LFE191:
 11120              		.section	.text.TIM_SelectSlaveMode,"ax",%progbits
 11121              		.align	2
 11122              		.global	TIM_SelectSlaveMode
 11123              		.thumb
 11124              		.thumb_func
 11126              	TIM_SelectSlaveMode:
 11127              	.LFB192:
2933:App/STM32F4-Discovery/Libraries/STM32F4xx_StdPeriph_Driver/src/stm32f4xx_tim.c **** 
2934:App/STM32F4-Discovery/Libraries/STM32F4xx_StdPeriph_Driver/src/stm32f4xx_tim.c **** /**
2935:App/STM32F4-Discovery/Libraries/STM32F4xx_StdPeriph_Driver/src/stm32f4xx_tim.c ****   * @brief  Selects the TIMx Slave Mode.
2936:App/STM32F4-Discovery/Libraries/STM32F4xx_StdPeriph_Driver/src/stm32f4xx_tim.c ****   * @param  TIMx: where x can be 1, 2, 3, 4, 5, 8, 9 or 12 to select the TIM peripheral.
2937:App/STM32F4-Discovery/Libraries/STM32F4xx_StdPeriph_Driver/src/stm32f4xx_tim.c ****   * @param  TIM_SlaveMode: specifies the Timer Slave Mode.
2938:App/STM32F4-Discovery/Libraries/STM32F4xx_StdPeriph_Driver/src/stm32f4xx_tim.c ****   *          This parameter can be one of the following values:
2939:App/STM32F4-Discovery/Libraries/STM32F4xx_StdPeriph_Driver/src/stm32f4xx_tim.c ****   *            @arg TIM_SlaveMode_Reset: Rising edge of the selected trigger signal(TRGI) reinitial
2940:App/STM32F4-Discovery/Libraries/STM32F4xx_StdPeriph_Driver/src/stm32f4xx_tim.c ****   *                                      the counter and triggers an update of the registers
2941:App/STM32F4-Discovery/Libraries/STM32F4xx_StdPeriph_Driver/src/stm32f4xx_tim.c ****   *            @arg TIM_SlaveMode_Gated:     The counter clock is enabled when the trigger signal (
2942:App/STM32F4-Discovery/Libraries/STM32F4xx_StdPeriph_Driver/src/stm32f4xx_tim.c ****   *            @arg TIM_SlaveMode_Trigger:   The counter starts at a rising edge of the trigger TRG
2943:App/STM32F4-Discovery/Libraries/STM32F4xx_StdPeriph_Driver/src/stm32f4xx_tim.c ****   *            @arg TIM_SlaveMode_External1: Rising edges of the selected trigger (TRGI) clock the 
2944:App/STM32F4-Discovery/Libraries/STM32F4xx_StdPeriph_Driver/src/stm32f4xx_tim.c ****   * @retval None
2945:App/STM32F4-Discovery/Libraries/STM32F4xx_StdPeriph_Driver/src/stm32f4xx_tim.c ****   */
2946:App/STM32F4-Discovery/Libraries/STM32F4xx_StdPeriph_Driver/src/stm32f4xx_tim.c **** void TIM_SelectSlaveMode(TIM_TypeDef* TIMx, uint16_t TIM_SlaveMode)
2947:App/STM32F4-Discovery/Libraries/STM32F4xx_StdPeriph_Driver/src/stm32f4xx_tim.c **** {
 11128              		.loc 1 2947 0
 11129              		.cfi_startproc
 11130              		@ args = 0, pretend = 0, frame = 8
 11131              		@ frame_needed = 1, uses_anonymous_args = 0
 11132 0000 80B5     		push	{r7, lr}
 11133              	.LCFI246:
 11134              		.cfi_def_cfa_offset 8
 11135              		.cfi_offset 7, -8
 11136              		.cfi_offset 14, -4
 11137 0002 82B0     		sub	sp, sp, #8
 11138              	.LCFI247:
 11139              		.cfi_def_cfa_offset 16
 11140 0004 00AF     		add	r7, sp, #0
 11141              	.LCFI248:
 11142              		.cfi_def_cfa_register 7
 11143 0006 7860     		str	r0, [r7, #4]
 11144 0008 0B46     		mov	r3, r1
 11145 000a 7B80     		strh	r3, [r7, #2]	@ movhi
2948:App/STM32F4-Discovery/Libraries/STM32F4xx_StdPeriph_Driver/src/stm32f4xx_tim.c ****   /* Check the parameters */
2949:App/STM32F4-Discovery/Libraries/STM32F4xx_StdPeriph_Driver/src/stm32f4xx_tim.c ****   assert_param(IS_TIM_LIST2_PERIPH(TIMx));
 11146              		.loc 1 2949 0
 11147 000c 7A68     		ldr	r2, [r7, #4]
 11148 000e 244B     		ldr	r3, .L502
 11149 0010 9A42     		cmp	r2, r3
 11150 0012 20D0     		beq	.L500
 11151              		.loc 1 2949 0 is_stmt 0 discriminator 1
 11152 0014 7B68     		ldr	r3, [r7, #4]
 11153 0016 B3F1804F 		cmp	r3, #1073741824
 11154 001a 1CD0     		beq	.L500
 11155 001c 7A68     		ldr	r2, [r7, #4]
 11156 001e 214B     		ldr	r3, .L502+4
 11157 0020 9A42     		cmp	r2, r3
 11158 0022 18D0     		beq	.L500
 11159 0024 7A68     		ldr	r2, [r7, #4]
 11160 0026 204B     		ldr	r3, .L502+8
 11161 0028 9A42     		cmp	r2, r3
 11162 002a 14D0     		beq	.L500
 11163 002c 7A68     		ldr	r2, [r7, #4]
 11164 002e 1F4B     		ldr	r3, .L502+12
 11165 0030 9A42     		cmp	r2, r3
 11166 0032 10D0     		beq	.L500
 11167 0034 7A68     		ldr	r2, [r7, #4]
 11168 0036 1E4B     		ldr	r3, .L502+16
 11169 0038 9A42     		cmp	r2, r3
 11170 003a 0CD0     		beq	.L500
 11171 003c 7A68     		ldr	r2, [r7, #4]
 11172 003e 1D4B     		ldr	r3, .L502+20
 11173 0040 9A42     		cmp	r2, r3
 11174 0042 08D0     		beq	.L500
 11175 0044 7A68     		ldr	r2, [r7, #4]
 11176 0046 1C4B     		ldr	r3, .L502+24
 11177 0048 9A42     		cmp	r2, r3
 11178 004a 04D0     		beq	.L500
 11179 004c 1B48     		ldr	r0, .L502+28
 11180 004e 40F68531 		movw	r1, #2949
 11181 0052 FFF7FEFF 		bl	assert_failed
 11182              	.L500:
2950:App/STM32F4-Discovery/Libraries/STM32F4xx_StdPeriph_Driver/src/stm32f4xx_tim.c ****   assert_param(IS_TIM_SLAVE_MODE(TIM_SlaveMode));
 11183              		.loc 1 2950 0 is_stmt 1
 11184 0056 7B88     		ldrh	r3, [r7, #2]
 11185 0058 042B     		cmp	r3, #4
 11186 005a 0DD0     		beq	.L501
 11187              		.loc 1 2950 0 is_stmt 0 discriminator 1
 11188 005c 7B88     		ldrh	r3, [r7, #2]
 11189 005e 052B     		cmp	r3, #5
 11190 0060 0AD0     		beq	.L501
 11191 0062 7B88     		ldrh	r3, [r7, #2]
 11192 0064 062B     		cmp	r3, #6
 11193 0066 07D0     		beq	.L501
 11194 0068 7B88     		ldrh	r3, [r7, #2]
 11195 006a 072B     		cmp	r3, #7
 11196 006c 04D0     		beq	.L501
 11197 006e 1348     		ldr	r0, .L502+28
 11198 0070 40F68631 		movw	r1, #2950
 11199 0074 FFF7FEFF 		bl	assert_failed
 11200              	.L501:
2951:App/STM32F4-Discovery/Libraries/STM32F4xx_StdPeriph_Driver/src/stm32f4xx_tim.c **** 
2952:App/STM32F4-Discovery/Libraries/STM32F4xx_StdPeriph_Driver/src/stm32f4xx_tim.c ****   /* Reset the SMS Bits */
2953:App/STM32F4-Discovery/Libraries/STM32F4xx_StdPeriph_Driver/src/stm32f4xx_tim.c ****   TIMx->SMCR &= (uint16_t)~TIM_SMCR_SMS;
 11201              		.loc 1 2953 0 is_stmt 1
 11202 0078 7B68     		ldr	r3, [r7, #4]
 11203 007a 1B89     		ldrh	r3, [r3, #8]	@ movhi
 11204 007c 9BB2     		uxth	r3, r3
 11205 007e 23F00703 		bic	r3, r3, #7
 11206 0082 9AB2     		uxth	r2, r3
 11207 0084 7B68     		ldr	r3, [r7, #4]
 11208 0086 1A81     		strh	r2, [r3, #8]	@ movhi
2954:App/STM32F4-Discovery/Libraries/STM32F4xx_StdPeriph_Driver/src/stm32f4xx_tim.c **** 
2955:App/STM32F4-Discovery/Libraries/STM32F4xx_StdPeriph_Driver/src/stm32f4xx_tim.c ****   /* Select the Slave Mode */
2956:App/STM32F4-Discovery/Libraries/STM32F4xx_StdPeriph_Driver/src/stm32f4xx_tim.c ****   TIMx->SMCR |= TIM_SlaveMode;
 11209              		.loc 1 2956 0
 11210 0088 7B68     		ldr	r3, [r7, #4]
 11211 008a 1B89     		ldrh	r3, [r3, #8]	@ movhi
 11212 008c 9AB2     		uxth	r2, r3
 11213 008e 7B88     		ldrh	r3, [r7, #2]	@ movhi
 11214 0090 1343     		orrs	r3, r3, r2
 11215 0092 9AB2     		uxth	r2, r3
 11216 0094 7B68     		ldr	r3, [r7, #4]
 11217 0096 1A81     		strh	r2, [r3, #8]	@ movhi
2957:App/STM32F4-Discovery/Libraries/STM32F4xx_StdPeriph_Driver/src/stm32f4xx_tim.c **** }
 11218              		.loc 1 2957 0
 11219 0098 0837     		adds	r7, r7, #8
 11220 009a BD46     		mov	sp, r7
 11221              		@ sp needed
 11222 009c 80BD     		pop	{r7, pc}
 11223              	.L503:
 11224 009e 00BF     		.align	2
 11225              	.L502:
 11226 00a0 00000140 		.word	1073807360
 11227 00a4 00040040 		.word	1073742848
 11228 00a8 00080040 		.word	1073743872
 11229 00ac 000C0040 		.word	1073744896
 11230 00b0 00040140 		.word	1073808384
 11231 00b4 00400140 		.word	1073823744
 11232 00b8 00180040 		.word	1073747968
 11233 00bc 00000000 		.word	.LC0
 11234              		.cfi_endproc
 11235              	.LFE192:
 11237              		.section	.text.TIM_SelectMasterSlaveMode,"ax",%progbits
 11238              		.align	2
 11239              		.global	TIM_SelectMasterSlaveMode
 11240              		.thumb
 11241              		.thumb_func
 11243              	TIM_SelectMasterSlaveMode:
 11244              	.LFB193:
2958:App/STM32F4-Discovery/Libraries/STM32F4xx_StdPeriph_Driver/src/stm32f4xx_tim.c **** 
2959:App/STM32F4-Discovery/Libraries/STM32F4xx_StdPeriph_Driver/src/stm32f4xx_tim.c **** /**
2960:App/STM32F4-Discovery/Libraries/STM32F4xx_StdPeriph_Driver/src/stm32f4xx_tim.c ****   * @brief  Sets or Resets the TIMx Master/Slave Mode.
2961:App/STM32F4-Discovery/Libraries/STM32F4xx_StdPeriph_Driver/src/stm32f4xx_tim.c ****   * @param  TIMx: where x can be 1, 2, 3, 4, 5, 8, 9 or 12 to select the TIM peripheral.
2962:App/STM32F4-Discovery/Libraries/STM32F4xx_StdPeriph_Driver/src/stm32f4xx_tim.c ****   * @param  TIM_MasterSlaveMode: specifies the Timer Master Slave Mode.
2963:App/STM32F4-Discovery/Libraries/STM32F4xx_StdPeriph_Driver/src/stm32f4xx_tim.c ****   *          This parameter can be one of the following values:
2964:App/STM32F4-Discovery/Libraries/STM32F4xx_StdPeriph_Driver/src/stm32f4xx_tim.c ****   *            @arg TIM_MasterSlaveMode_Enable: synchronization between the current timer
2965:App/STM32F4-Discovery/Libraries/STM32F4xx_StdPeriph_Driver/src/stm32f4xx_tim.c ****   *                                             and its slaves (through TRGO)
2966:App/STM32F4-Discovery/Libraries/STM32F4xx_StdPeriph_Driver/src/stm32f4xx_tim.c ****   *            @arg TIM_MasterSlaveMode_Disable: No action
2967:App/STM32F4-Discovery/Libraries/STM32F4xx_StdPeriph_Driver/src/stm32f4xx_tim.c ****   * @retval None
2968:App/STM32F4-Discovery/Libraries/STM32F4xx_StdPeriph_Driver/src/stm32f4xx_tim.c ****   */
2969:App/STM32F4-Discovery/Libraries/STM32F4xx_StdPeriph_Driver/src/stm32f4xx_tim.c **** void TIM_SelectMasterSlaveMode(TIM_TypeDef* TIMx, uint16_t TIM_MasterSlaveMode)
2970:App/STM32F4-Discovery/Libraries/STM32F4xx_StdPeriph_Driver/src/stm32f4xx_tim.c **** {
 11245              		.loc 1 2970 0
 11246              		.cfi_startproc
 11247              		@ args = 0, pretend = 0, frame = 8
 11248              		@ frame_needed = 1, uses_anonymous_args = 0
 11249 0000 80B5     		push	{r7, lr}
 11250              	.LCFI249:
 11251              		.cfi_def_cfa_offset 8
 11252              		.cfi_offset 7, -8
 11253              		.cfi_offset 14, -4
 11254 0002 82B0     		sub	sp, sp, #8
 11255              	.LCFI250:
 11256              		.cfi_def_cfa_offset 16
 11257 0004 00AF     		add	r7, sp, #0
 11258              	.LCFI251:
 11259              		.cfi_def_cfa_register 7
 11260 0006 7860     		str	r0, [r7, #4]
 11261 0008 0B46     		mov	r3, r1
 11262 000a 7B80     		strh	r3, [r7, #2]	@ movhi
2971:App/STM32F4-Discovery/Libraries/STM32F4xx_StdPeriph_Driver/src/stm32f4xx_tim.c ****   /* Check the parameters */
2972:App/STM32F4-Discovery/Libraries/STM32F4xx_StdPeriph_Driver/src/stm32f4xx_tim.c ****   assert_param(IS_TIM_LIST2_PERIPH(TIMx));
 11263              		.loc 1 2972 0
 11264 000c 7A68     		ldr	r2, [r7, #4]
 11265 000e 214B     		ldr	r3, .L507
 11266 0010 9A42     		cmp	r2, r3
 11267 0012 20D0     		beq	.L505
 11268              		.loc 1 2972 0 is_stmt 0 discriminator 1
 11269 0014 7B68     		ldr	r3, [r7, #4]
 11270 0016 B3F1804F 		cmp	r3, #1073741824
 11271 001a 1CD0     		beq	.L505
 11272 001c 7A68     		ldr	r2, [r7, #4]
 11273 001e 1E4B     		ldr	r3, .L507+4
 11274 0020 9A42     		cmp	r2, r3
 11275 0022 18D0     		beq	.L505
 11276 0024 7A68     		ldr	r2, [r7, #4]
 11277 0026 1D4B     		ldr	r3, .L507+8
 11278 0028 9A42     		cmp	r2, r3
 11279 002a 14D0     		beq	.L505
 11280 002c 7A68     		ldr	r2, [r7, #4]
 11281 002e 1C4B     		ldr	r3, .L507+12
 11282 0030 9A42     		cmp	r2, r3
 11283 0032 10D0     		beq	.L505
 11284 0034 7A68     		ldr	r2, [r7, #4]
 11285 0036 1B4B     		ldr	r3, .L507+16
 11286 0038 9A42     		cmp	r2, r3
 11287 003a 0CD0     		beq	.L505
 11288 003c 7A68     		ldr	r2, [r7, #4]
 11289 003e 1A4B     		ldr	r3, .L507+20
 11290 0040 9A42     		cmp	r2, r3
 11291 0042 08D0     		beq	.L505
 11292 0044 7A68     		ldr	r2, [r7, #4]
 11293 0046 194B     		ldr	r3, .L507+24
 11294 0048 9A42     		cmp	r2, r3
 11295 004a 04D0     		beq	.L505
 11296 004c 1848     		ldr	r0, .L507+28
 11297 004e 40F69C31 		movw	r1, #2972
 11298 0052 FFF7FEFF 		bl	assert_failed
 11299              	.L505:
2973:App/STM32F4-Discovery/Libraries/STM32F4xx_StdPeriph_Driver/src/stm32f4xx_tim.c ****   assert_param(IS_TIM_MSM_STATE(TIM_MasterSlaveMode));
 11300              		.loc 1 2973 0 is_stmt 1
 11301 0056 7B88     		ldrh	r3, [r7, #2]
 11302 0058 802B     		cmp	r3, #128
 11303 005a 07D0     		beq	.L506
 11304              		.loc 1 2973 0 is_stmt 0 discriminator 1
 11305 005c 7B88     		ldrh	r3, [r7, #2]
 11306 005e 002B     		cmp	r3, #0
 11307 0060 04D0     		beq	.L506
 11308 0062 1348     		ldr	r0, .L507+28
 11309 0064 40F69D31 		movw	r1, #2973
 11310 0068 FFF7FEFF 		bl	assert_failed
 11311              	.L506:
2974:App/STM32F4-Discovery/Libraries/STM32F4xx_StdPeriph_Driver/src/stm32f4xx_tim.c **** 
2975:App/STM32F4-Discovery/Libraries/STM32F4xx_StdPeriph_Driver/src/stm32f4xx_tim.c ****   /* Reset the MSM Bit */
2976:App/STM32F4-Discovery/Libraries/STM32F4xx_StdPeriph_Driver/src/stm32f4xx_tim.c ****   TIMx->SMCR &= (uint16_t)~TIM_SMCR_MSM;
 11312              		.loc 1 2976 0 is_stmt 1
 11313 006c 7B68     		ldr	r3, [r7, #4]
 11314 006e 1B89     		ldrh	r3, [r3, #8]	@ movhi
 11315 0070 9BB2     		uxth	r3, r3
 11316 0072 23F08003 		bic	r3, r3, #128
 11317 0076 9AB2     		uxth	r2, r3
 11318 0078 7B68     		ldr	r3, [r7, #4]
 11319 007a 1A81     		strh	r2, [r3, #8]	@ movhi
2977:App/STM32F4-Discovery/Libraries/STM32F4xx_StdPeriph_Driver/src/stm32f4xx_tim.c ****   
2978:App/STM32F4-Discovery/Libraries/STM32F4xx_StdPeriph_Driver/src/stm32f4xx_tim.c ****   /* Set or Reset the MSM Bit */
2979:App/STM32F4-Discovery/Libraries/STM32F4xx_StdPeriph_Driver/src/stm32f4xx_tim.c ****   TIMx->SMCR |= TIM_MasterSlaveMode;
 11320              		.loc 1 2979 0
 11321 007c 7B68     		ldr	r3, [r7, #4]
 11322 007e 1B89     		ldrh	r3, [r3, #8]	@ movhi
 11323 0080 9AB2     		uxth	r2, r3
 11324 0082 7B88     		ldrh	r3, [r7, #2]	@ movhi
 11325 0084 1343     		orrs	r3, r3, r2
 11326 0086 9AB2     		uxth	r2, r3
 11327 0088 7B68     		ldr	r3, [r7, #4]
 11328 008a 1A81     		strh	r2, [r3, #8]	@ movhi
2980:App/STM32F4-Discovery/Libraries/STM32F4xx_StdPeriph_Driver/src/stm32f4xx_tim.c **** }
 11329              		.loc 1 2980 0
 11330 008c 0837     		adds	r7, r7, #8
 11331 008e BD46     		mov	sp, r7
 11332              		@ sp needed
 11333 0090 80BD     		pop	{r7, pc}
 11334              	.L508:
 11335 0092 00BF     		.align	2
 11336              	.L507:
 11337 0094 00000140 		.word	1073807360
 11338 0098 00040040 		.word	1073742848
 11339 009c 00080040 		.word	1073743872
 11340 00a0 000C0040 		.word	1073744896
 11341 00a4 00040140 		.word	1073808384
 11342 00a8 00400140 		.word	1073823744
 11343 00ac 00180040 		.word	1073747968
 11344 00b0 00000000 		.word	.LC0
 11345              		.cfi_endproc
 11346              	.LFE193:
 11348              		.section	.text.TIM_ETRConfig,"ax",%progbits
 11349              		.align	2
 11350              		.global	TIM_ETRConfig
 11351              		.thumb
 11352              		.thumb_func
 11354              	TIM_ETRConfig:
 11355              	.LFB194:
2981:App/STM32F4-Discovery/Libraries/STM32F4xx_StdPeriph_Driver/src/stm32f4xx_tim.c **** 
2982:App/STM32F4-Discovery/Libraries/STM32F4xx_StdPeriph_Driver/src/stm32f4xx_tim.c **** /**
2983:App/STM32F4-Discovery/Libraries/STM32F4xx_StdPeriph_Driver/src/stm32f4xx_tim.c ****   * @brief  Configures the TIMx External Trigger (ETR).
2984:App/STM32F4-Discovery/Libraries/STM32F4xx_StdPeriph_Driver/src/stm32f4xx_tim.c ****   * @param  TIMx: where x can be  1, 2, 3, 4, 5 or 8 to select the TIM peripheral.
2985:App/STM32F4-Discovery/Libraries/STM32F4xx_StdPeriph_Driver/src/stm32f4xx_tim.c ****   * @param  TIM_ExtTRGPrescaler: The external Trigger Prescaler.
2986:App/STM32F4-Discovery/Libraries/STM32F4xx_StdPeriph_Driver/src/stm32f4xx_tim.c ****   *          This parameter can be one of the following values:
2987:App/STM32F4-Discovery/Libraries/STM32F4xx_StdPeriph_Driver/src/stm32f4xx_tim.c ****   *            @arg TIM_ExtTRGPSC_OFF: ETRP Prescaler OFF.
2988:App/STM32F4-Discovery/Libraries/STM32F4xx_StdPeriph_Driver/src/stm32f4xx_tim.c ****   *            @arg TIM_ExtTRGPSC_DIV2: ETRP frequency divided by 2.
2989:App/STM32F4-Discovery/Libraries/STM32F4xx_StdPeriph_Driver/src/stm32f4xx_tim.c ****   *            @arg TIM_ExtTRGPSC_DIV4: ETRP frequency divided by 4.
2990:App/STM32F4-Discovery/Libraries/STM32F4xx_StdPeriph_Driver/src/stm32f4xx_tim.c ****   *            @arg TIM_ExtTRGPSC_DIV8: ETRP frequency divided by 8.
2991:App/STM32F4-Discovery/Libraries/STM32F4xx_StdPeriph_Driver/src/stm32f4xx_tim.c ****   * @param  TIM_ExtTRGPolarity: The external Trigger Polarity.
2992:App/STM32F4-Discovery/Libraries/STM32F4xx_StdPeriph_Driver/src/stm32f4xx_tim.c ****   *          This parameter can be one of the following values:
2993:App/STM32F4-Discovery/Libraries/STM32F4xx_StdPeriph_Driver/src/stm32f4xx_tim.c ****   *            @arg TIM_ExtTRGPolarity_Inverted: active low or falling edge active.
2994:App/STM32F4-Discovery/Libraries/STM32F4xx_StdPeriph_Driver/src/stm32f4xx_tim.c ****   *            @arg TIM_ExtTRGPolarity_NonInverted: active high or rising edge active.
2995:App/STM32F4-Discovery/Libraries/STM32F4xx_StdPeriph_Driver/src/stm32f4xx_tim.c ****   * @param  ExtTRGFilter: External Trigger Filter.
2996:App/STM32F4-Discovery/Libraries/STM32F4xx_StdPeriph_Driver/src/stm32f4xx_tim.c ****   *          This parameter must be a value between 0x00 and 0x0F
2997:App/STM32F4-Discovery/Libraries/STM32F4xx_StdPeriph_Driver/src/stm32f4xx_tim.c ****   * @retval None
2998:App/STM32F4-Discovery/Libraries/STM32F4xx_StdPeriph_Driver/src/stm32f4xx_tim.c ****   */
2999:App/STM32F4-Discovery/Libraries/STM32F4xx_StdPeriph_Driver/src/stm32f4xx_tim.c **** void TIM_ETRConfig(TIM_TypeDef* TIMx, uint16_t TIM_ExtTRGPrescaler,
3000:App/STM32F4-Discovery/Libraries/STM32F4xx_StdPeriph_Driver/src/stm32f4xx_tim.c ****                    uint16_t TIM_ExtTRGPolarity, uint16_t ExtTRGFilter)
3001:App/STM32F4-Discovery/Libraries/STM32F4xx_StdPeriph_Driver/src/stm32f4xx_tim.c **** {
 11356              		.loc 1 3001 0
 11357              		.cfi_startproc
 11358              		@ args = 0, pretend = 0, frame = 24
 11359              		@ frame_needed = 1, uses_anonymous_args = 0
 11360 0000 80B5     		push	{r7, lr}
 11361              	.LCFI252:
 11362              		.cfi_def_cfa_offset 8
 11363              		.cfi_offset 7, -8
 11364              		.cfi_offset 14, -4
 11365 0002 86B0     		sub	sp, sp, #24
 11366              	.LCFI253:
 11367              		.cfi_def_cfa_offset 32
 11368 0004 00AF     		add	r7, sp, #0
 11369              	.LCFI254:
 11370              		.cfi_def_cfa_register 7
 11371 0006 F860     		str	r0, [r7, #12]
 11372 0008 7981     		strh	r1, [r7, #10]	@ movhi
 11373 000a 3A81     		strh	r2, [r7, #8]	@ movhi
 11374 000c FB80     		strh	r3, [r7, #6]	@ movhi
3002:App/STM32F4-Discovery/Libraries/STM32F4xx_StdPeriph_Driver/src/stm32f4xx_tim.c ****   uint16_t tmpsmcr = 0;
 11375              		.loc 1 3002 0
 11376 000e 0023     		movs	r3, #0
 11377 0010 FB82     		strh	r3, [r7, #22]	@ movhi
3003:App/STM32F4-Discovery/Libraries/STM32F4xx_StdPeriph_Driver/src/stm32f4xx_tim.c **** 
3004:App/STM32F4-Discovery/Libraries/STM32F4xx_StdPeriph_Driver/src/stm32f4xx_tim.c ****   /* Check the parameters */
3005:App/STM32F4-Discovery/Libraries/STM32F4xx_StdPeriph_Driver/src/stm32f4xx_tim.c ****   assert_param(IS_TIM_LIST3_PERIPH(TIMx));
 11378              		.loc 1 3005 0
 11379 0012 FA68     		ldr	r2, [r7, #12]
 11380 0014 2D4B     		ldr	r3, .L514
 11381 0016 9A42     		cmp	r2, r3
 11382 0018 18D0     		beq	.L510
 11383              		.loc 1 3005 0 is_stmt 0 discriminator 1
 11384 001a FB68     		ldr	r3, [r7, #12]
 11385 001c B3F1804F 		cmp	r3, #1073741824
 11386 0020 14D0     		beq	.L510
 11387 0022 FA68     		ldr	r2, [r7, #12]
 11388 0024 2A4B     		ldr	r3, .L514+4
 11389 0026 9A42     		cmp	r2, r3
 11390 0028 10D0     		beq	.L510
 11391 002a FA68     		ldr	r2, [r7, #12]
 11392 002c 294B     		ldr	r3, .L514+8
 11393 002e 9A42     		cmp	r2, r3
 11394 0030 0CD0     		beq	.L510
 11395 0032 FA68     		ldr	r2, [r7, #12]
 11396 0034 284B     		ldr	r3, .L514+12
 11397 0036 9A42     		cmp	r2, r3
 11398 0038 08D0     		beq	.L510
 11399 003a FA68     		ldr	r2, [r7, #12]
 11400 003c 274B     		ldr	r3, .L514+16
 11401 003e 9A42     		cmp	r2, r3
 11402 0040 04D0     		beq	.L510
 11403 0042 2748     		ldr	r0, .L514+20
 11404 0044 40F6BD31 		movw	r1, #3005
 11405 0048 FFF7FEFF 		bl	assert_failed
 11406              	.L510:
3006:App/STM32F4-Discovery/Libraries/STM32F4xx_StdPeriph_Driver/src/stm32f4xx_tim.c ****   assert_param(IS_TIM_EXT_PRESCALER(TIM_ExtTRGPrescaler));
 11407              		.loc 1 3006 0 is_stmt 1
 11408 004c 7B89     		ldrh	r3, [r7, #10]
 11409 004e 002B     		cmp	r3, #0
 11410 0050 10D0     		beq	.L511
 11411              		.loc 1 3006 0 is_stmt 0 discriminator 1
 11412 0052 7B89     		ldrh	r3, [r7, #10]
 11413 0054 B3F5805F 		cmp	r3, #4096
 11414 0058 0CD0     		beq	.L511
 11415 005a 7B89     		ldrh	r3, [r7, #10]
 11416 005c B3F5005F 		cmp	r3, #8192
 11417 0060 08D0     		beq	.L511
 11418 0062 7B89     		ldrh	r3, [r7, #10]
 11419 0064 B3F5405F 		cmp	r3, #12288
 11420 0068 04D0     		beq	.L511
 11421 006a 1D48     		ldr	r0, .L514+20
 11422 006c 40F6BE31 		movw	r1, #3006
 11423 0070 FFF7FEFF 		bl	assert_failed
 11424              	.L511:
3007:App/STM32F4-Discovery/Libraries/STM32F4xx_StdPeriph_Driver/src/stm32f4xx_tim.c ****   assert_param(IS_TIM_EXT_POLARITY(TIM_ExtTRGPolarity));
 11425              		.loc 1 3007 0 is_stmt 1
 11426 0074 3B89     		ldrh	r3, [r7, #8]
 11427 0076 B3F5004F 		cmp	r3, #32768
 11428 007a 07D0     		beq	.L512
 11429              		.loc 1 3007 0 is_stmt 0 discriminator 1
 11430 007c 3B89     		ldrh	r3, [r7, #8]
 11431 007e 002B     		cmp	r3, #0
 11432 0080 04D0     		beq	.L512
 11433 0082 1748     		ldr	r0, .L514+20
 11434 0084 40F6BF31 		movw	r1, #3007
 11435 0088 FFF7FEFF 		bl	assert_failed
 11436              	.L512:
3008:App/STM32F4-Discovery/Libraries/STM32F4xx_StdPeriph_Driver/src/stm32f4xx_tim.c ****   assert_param(IS_TIM_EXT_FILTER(ExtTRGFilter));
 11437              		.loc 1 3008 0 is_stmt 1
 11438 008c FB88     		ldrh	r3, [r7, #6]
 11439 008e 0F2B     		cmp	r3, #15
 11440 0090 04D9     		bls	.L513
 11441              		.loc 1 3008 0 is_stmt 0 discriminator 1
 11442 0092 1348     		ldr	r0, .L514+20
 11443 0094 4FF43C61 		mov	r1, #3008
 11444 0098 FFF7FEFF 		bl	assert_failed
 11445              	.L513:
3009:App/STM32F4-Discovery/Libraries/STM32F4xx_StdPeriph_Driver/src/stm32f4xx_tim.c **** 
3010:App/STM32F4-Discovery/Libraries/STM32F4xx_StdPeriph_Driver/src/stm32f4xx_tim.c ****   tmpsmcr = TIMx->SMCR;
 11446              		.loc 1 3010 0 is_stmt 1
 11447 009c FB68     		ldr	r3, [r7, #12]
 11448 009e 1B89     		ldrh	r3, [r3, #8]	@ movhi
 11449 00a0 FB82     		strh	r3, [r7, #22]	@ movhi
3011:App/STM32F4-Discovery/Libraries/STM32F4xx_StdPeriph_Driver/src/stm32f4xx_tim.c **** 
3012:App/STM32F4-Discovery/Libraries/STM32F4xx_StdPeriph_Driver/src/stm32f4xx_tim.c ****   /* Reset the ETR Bits */
3013:App/STM32F4-Discovery/Libraries/STM32F4xx_StdPeriph_Driver/src/stm32f4xx_tim.c ****   tmpsmcr &= SMCR_ETR_MASK;
 11450              		.loc 1 3013 0
 11451 00a2 FB8A     		ldrh	r3, [r7, #22]	@ movhi
 11452 00a4 DBB2     		uxtb	r3, r3
 11453 00a6 FB82     		strh	r3, [r7, #22]	@ movhi
3014:App/STM32F4-Discovery/Libraries/STM32F4xx_StdPeriph_Driver/src/stm32f4xx_tim.c **** 
3015:App/STM32F4-Discovery/Libraries/STM32F4xx_StdPeriph_Driver/src/stm32f4xx_tim.c ****   /* Set the Prescaler, the Filter value and the Polarity */
3016:App/STM32F4-Discovery/Libraries/STM32F4xx_StdPeriph_Driver/src/stm32f4xx_tim.c ****   tmpsmcr |= (uint16_t)(TIM_ExtTRGPrescaler | (uint16_t)(TIM_ExtTRGPolarity | (uint16_t)(ExtTRGFilt
 11454              		.loc 1 3016 0
 11455 00a8 FB88     		ldrh	r3, [r7, #6]	@ movhi
 11456 00aa 1B02     		lsls	r3, r3, #8
 11457 00ac 9AB2     		uxth	r2, r3
 11458 00ae 3B89     		ldrh	r3, [r7, #8]	@ movhi
 11459 00b0 1343     		orrs	r3, r3, r2
 11460 00b2 9AB2     		uxth	r2, r3
 11461 00b4 7B89     		ldrh	r3, [r7, #10]	@ movhi
 11462 00b6 1343     		orrs	r3, r3, r2
 11463 00b8 9AB2     		uxth	r2, r3
 11464 00ba FB8A     		ldrh	r3, [r7, #22]	@ movhi
 11465 00bc 1343     		orrs	r3, r3, r2
 11466 00be FB82     		strh	r3, [r7, #22]	@ movhi
3017:App/STM32F4-Discovery/Libraries/STM32F4xx_StdPeriph_Driver/src/stm32f4xx_tim.c **** 
3018:App/STM32F4-Discovery/Libraries/STM32F4xx_StdPeriph_Driver/src/stm32f4xx_tim.c ****   /* Write to TIMx SMCR */
3019:App/STM32F4-Discovery/Libraries/STM32F4xx_StdPeriph_Driver/src/stm32f4xx_tim.c ****   TIMx->SMCR = tmpsmcr;
 11467              		.loc 1 3019 0
 11468 00c0 FB68     		ldr	r3, [r7, #12]
 11469 00c2 FA8A     		ldrh	r2, [r7, #22]	@ movhi
 11470 00c4 1A81     		strh	r2, [r3, #8]	@ movhi
3020:App/STM32F4-Discovery/Libraries/STM32F4xx_StdPeriph_Driver/src/stm32f4xx_tim.c **** }
 11471              		.loc 1 3020 0
 11472 00c6 1837     		adds	r7, r7, #24
 11473 00c8 BD46     		mov	sp, r7
 11474              		@ sp needed
 11475 00ca 80BD     		pop	{r7, pc}
 11476              	.L515:
 11477              		.align	2
 11478              	.L514:
 11479 00cc 00000140 		.word	1073807360
 11480 00d0 00040040 		.word	1073742848
 11481 00d4 00080040 		.word	1073743872
 11482 00d8 000C0040 		.word	1073744896
 11483 00dc 00040140 		.word	1073808384
 11484 00e0 00000000 		.word	.LC0
 11485              		.cfi_endproc
 11486              	.LFE194:
 11488              		.section	.text.TIM_EncoderInterfaceConfig,"ax",%progbits
 11489              		.align	2
 11490              		.global	TIM_EncoderInterfaceConfig
 11491              		.thumb
 11492              		.thumb_func
 11494              	TIM_EncoderInterfaceConfig:
 11495              	.LFB195:
3021:App/STM32F4-Discovery/Libraries/STM32F4xx_StdPeriph_Driver/src/stm32f4xx_tim.c **** /**
3022:App/STM32F4-Discovery/Libraries/STM32F4xx_StdPeriph_Driver/src/stm32f4xx_tim.c ****   * @}
3023:App/STM32F4-Discovery/Libraries/STM32F4xx_StdPeriph_Driver/src/stm32f4xx_tim.c ****   */
3024:App/STM32F4-Discovery/Libraries/STM32F4xx_StdPeriph_Driver/src/stm32f4xx_tim.c **** 
3025:App/STM32F4-Discovery/Libraries/STM32F4xx_StdPeriph_Driver/src/stm32f4xx_tim.c **** /** @defgroup TIM_Group8 Specific interface management functions
3026:App/STM32F4-Discovery/Libraries/STM32F4xx_StdPeriph_Driver/src/stm32f4xx_tim.c ****  *  @brief    Specific interface management functions 
3027:App/STM32F4-Discovery/Libraries/STM32F4xx_StdPeriph_Driver/src/stm32f4xx_tim.c ****  *
3028:App/STM32F4-Discovery/Libraries/STM32F4xx_StdPeriph_Driver/src/stm32f4xx_tim.c **** @verbatim   
3029:App/STM32F4-Discovery/Libraries/STM32F4xx_StdPeriph_Driver/src/stm32f4xx_tim.c ****  ===============================================================================
3030:App/STM32F4-Discovery/Libraries/STM32F4xx_StdPeriph_Driver/src/stm32f4xx_tim.c ****                     Specific interface management functions
3031:App/STM32F4-Discovery/Libraries/STM32F4xx_StdPeriph_Driver/src/stm32f4xx_tim.c ****  ===============================================================================  
3032:App/STM32F4-Discovery/Libraries/STM32F4xx_StdPeriph_Driver/src/stm32f4xx_tim.c **** 
3033:App/STM32F4-Discovery/Libraries/STM32F4xx_StdPeriph_Driver/src/stm32f4xx_tim.c **** @endverbatim
3034:App/STM32F4-Discovery/Libraries/STM32F4xx_StdPeriph_Driver/src/stm32f4xx_tim.c ****   * @{
3035:App/STM32F4-Discovery/Libraries/STM32F4xx_StdPeriph_Driver/src/stm32f4xx_tim.c ****   */
3036:App/STM32F4-Discovery/Libraries/STM32F4xx_StdPeriph_Driver/src/stm32f4xx_tim.c **** 
3037:App/STM32F4-Discovery/Libraries/STM32F4xx_StdPeriph_Driver/src/stm32f4xx_tim.c **** /**
3038:App/STM32F4-Discovery/Libraries/STM32F4xx_StdPeriph_Driver/src/stm32f4xx_tim.c ****   * @brief  Configures the TIMx Encoder Interface.
3039:App/STM32F4-Discovery/Libraries/STM32F4xx_StdPeriph_Driver/src/stm32f4xx_tim.c ****   * @param  TIMx: where x can be 1, 2, 3, 4, 5, 8, 9 or 12 to select the TIM 
3040:App/STM32F4-Discovery/Libraries/STM32F4xx_StdPeriph_Driver/src/stm32f4xx_tim.c ****   *         peripheral.
3041:App/STM32F4-Discovery/Libraries/STM32F4xx_StdPeriph_Driver/src/stm32f4xx_tim.c ****   * @param  TIM_EncoderMode: specifies the TIMx Encoder Mode.
3042:App/STM32F4-Discovery/Libraries/STM32F4xx_StdPeriph_Driver/src/stm32f4xx_tim.c ****   *          This parameter can be one of the following values:
3043:App/STM32F4-Discovery/Libraries/STM32F4xx_StdPeriph_Driver/src/stm32f4xx_tim.c ****   *            @arg TIM_EncoderMode_TI1: Counter counts on TI1FP1 edge depending on TI2FP2 level.
3044:App/STM32F4-Discovery/Libraries/STM32F4xx_StdPeriph_Driver/src/stm32f4xx_tim.c ****   *            @arg TIM_EncoderMode_TI2: Counter counts on TI2FP2 edge depending on TI1FP1 level.
3045:App/STM32F4-Discovery/Libraries/STM32F4xx_StdPeriph_Driver/src/stm32f4xx_tim.c ****   *            @arg TIM_EncoderMode_TI12: Counter counts on both TI1FP1 and TI2FP2 edges depending
3046:App/STM32F4-Discovery/Libraries/STM32F4xx_StdPeriph_Driver/src/stm32f4xx_tim.c ****   *                                       on the level of the other input.
3047:App/STM32F4-Discovery/Libraries/STM32F4xx_StdPeriph_Driver/src/stm32f4xx_tim.c ****   * @param  TIM_IC1Polarity: specifies the IC1 Polarity
3048:App/STM32F4-Discovery/Libraries/STM32F4xx_StdPeriph_Driver/src/stm32f4xx_tim.c ****   *          This parameter can be one of the following values:
3049:App/STM32F4-Discovery/Libraries/STM32F4xx_StdPeriph_Driver/src/stm32f4xx_tim.c ****   *            @arg TIM_ICPolarity_Falling: IC Falling edge.
3050:App/STM32F4-Discovery/Libraries/STM32F4xx_StdPeriph_Driver/src/stm32f4xx_tim.c ****   *            @arg TIM_ICPolarity_Rising: IC Rising edge.
3051:App/STM32F4-Discovery/Libraries/STM32F4xx_StdPeriph_Driver/src/stm32f4xx_tim.c ****   * @param  TIM_IC2Polarity: specifies the IC2 Polarity
3052:App/STM32F4-Discovery/Libraries/STM32F4xx_StdPeriph_Driver/src/stm32f4xx_tim.c ****   *          This parameter can be one of the following values:
3053:App/STM32F4-Discovery/Libraries/STM32F4xx_StdPeriph_Driver/src/stm32f4xx_tim.c ****   *            @arg TIM_ICPolarity_Falling: IC Falling edge.
3054:App/STM32F4-Discovery/Libraries/STM32F4xx_StdPeriph_Driver/src/stm32f4xx_tim.c ****   *            @arg TIM_ICPolarity_Rising: IC Rising edge.
3055:App/STM32F4-Discovery/Libraries/STM32F4xx_StdPeriph_Driver/src/stm32f4xx_tim.c ****   * @retval None
3056:App/STM32F4-Discovery/Libraries/STM32F4xx_StdPeriph_Driver/src/stm32f4xx_tim.c ****   */
3057:App/STM32F4-Discovery/Libraries/STM32F4xx_StdPeriph_Driver/src/stm32f4xx_tim.c **** void TIM_EncoderInterfaceConfig(TIM_TypeDef* TIMx, uint16_t TIM_EncoderMode,
3058:App/STM32F4-Discovery/Libraries/STM32F4xx_StdPeriph_Driver/src/stm32f4xx_tim.c ****                                 uint16_t TIM_IC1Polarity, uint16_t TIM_IC2Polarity)
3059:App/STM32F4-Discovery/Libraries/STM32F4xx_StdPeriph_Driver/src/stm32f4xx_tim.c **** {
 11496              		.loc 1 3059 0
 11497              		.cfi_startproc
 11498              		@ args = 0, pretend = 0, frame = 24
 11499              		@ frame_needed = 1, uses_anonymous_args = 0
 11500 0000 80B5     		push	{r7, lr}
 11501              	.LCFI255:
 11502              		.cfi_def_cfa_offset 8
 11503              		.cfi_offset 7, -8
 11504              		.cfi_offset 14, -4
 11505 0002 86B0     		sub	sp, sp, #24
 11506              	.LCFI256:
 11507              		.cfi_def_cfa_offset 32
 11508 0004 00AF     		add	r7, sp, #0
 11509              	.LCFI257:
 11510              		.cfi_def_cfa_register 7
 11511 0006 F860     		str	r0, [r7, #12]
 11512 0008 7981     		strh	r1, [r7, #10]	@ movhi
 11513 000a 3A81     		strh	r2, [r7, #8]	@ movhi
 11514 000c FB80     		strh	r3, [r7, #6]	@ movhi
3060:App/STM32F4-Discovery/Libraries/STM32F4xx_StdPeriph_Driver/src/stm32f4xx_tim.c ****   uint16_t tmpsmcr = 0;
 11515              		.loc 1 3060 0
 11516 000e 0023     		movs	r3, #0
 11517 0010 FB82     		strh	r3, [r7, #22]	@ movhi
3061:App/STM32F4-Discovery/Libraries/STM32F4xx_StdPeriph_Driver/src/stm32f4xx_tim.c ****   uint16_t tmpccmr1 = 0;
 11518              		.loc 1 3061 0
 11519 0012 0023     		movs	r3, #0
 11520 0014 BB82     		strh	r3, [r7, #20]	@ movhi
3062:App/STM32F4-Discovery/Libraries/STM32F4xx_StdPeriph_Driver/src/stm32f4xx_tim.c ****   uint16_t tmpccer = 0;
 11521              		.loc 1 3062 0
 11522 0016 0023     		movs	r3, #0
 11523 0018 7B82     		strh	r3, [r7, #18]	@ movhi
3063:App/STM32F4-Discovery/Libraries/STM32F4xx_StdPeriph_Driver/src/stm32f4xx_tim.c ****     
3064:App/STM32F4-Discovery/Libraries/STM32F4xx_StdPeriph_Driver/src/stm32f4xx_tim.c ****   /* Check the parameters */
3065:App/STM32F4-Discovery/Libraries/STM32F4xx_StdPeriph_Driver/src/stm32f4xx_tim.c ****   assert_param(IS_TIM_LIST2_PERIPH(TIMx));
 11524              		.loc 1 3065 0
 11525 001a FA68     		ldr	r2, [r7, #12]
 11526 001c 414B     		ldr	r3, .L521
 11527 001e 9A42     		cmp	r2, r3
 11528 0020 20D0     		beq	.L517
 11529              		.loc 1 3065 0 is_stmt 0 discriminator 1
 11530 0022 FB68     		ldr	r3, [r7, #12]
 11531 0024 B3F1804F 		cmp	r3, #1073741824
 11532 0028 1CD0     		beq	.L517
 11533 002a FA68     		ldr	r2, [r7, #12]
 11534 002c 3E4B     		ldr	r3, .L521+4
 11535 002e 9A42     		cmp	r2, r3
 11536 0030 18D0     		beq	.L517
 11537 0032 FA68     		ldr	r2, [r7, #12]
 11538 0034 3D4B     		ldr	r3, .L521+8
 11539 0036 9A42     		cmp	r2, r3
 11540 0038 14D0     		beq	.L517
 11541 003a FA68     		ldr	r2, [r7, #12]
 11542 003c 3C4B     		ldr	r3, .L521+12
 11543 003e 9A42     		cmp	r2, r3
 11544 0040 10D0     		beq	.L517
 11545 0042 FA68     		ldr	r2, [r7, #12]
 11546 0044 3B4B     		ldr	r3, .L521+16
 11547 0046 9A42     		cmp	r2, r3
 11548 0048 0CD0     		beq	.L517
 11549 004a FA68     		ldr	r2, [r7, #12]
 11550 004c 3A4B     		ldr	r3, .L521+20
 11551 004e 9A42     		cmp	r2, r3
 11552 0050 08D0     		beq	.L517
 11553 0052 FA68     		ldr	r2, [r7, #12]
 11554 0054 394B     		ldr	r3, .L521+24
 11555 0056 9A42     		cmp	r2, r3
 11556 0058 04D0     		beq	.L517
 11557 005a 3948     		ldr	r0, .L521+28
 11558 005c 40F6F931 		movw	r1, #3065
 11559 0060 FFF7FEFF 		bl	assert_failed
 11560              	.L517:
3066:App/STM32F4-Discovery/Libraries/STM32F4xx_StdPeriph_Driver/src/stm32f4xx_tim.c ****   assert_param(IS_TIM_ENCODER_MODE(TIM_EncoderMode));
 11561              		.loc 1 3066 0 is_stmt 1
 11562 0064 7B89     		ldrh	r3, [r7, #10]
 11563 0066 012B     		cmp	r3, #1
 11564 0068 0AD0     		beq	.L518
 11565              		.loc 1 3066 0 is_stmt 0 discriminator 1
 11566 006a 7B89     		ldrh	r3, [r7, #10]
 11567 006c 022B     		cmp	r3, #2
 11568 006e 07D0     		beq	.L518
 11569 0070 7B89     		ldrh	r3, [r7, #10]
 11570 0072 032B     		cmp	r3, #3
 11571 0074 04D0     		beq	.L518
 11572 0076 3248     		ldr	r0, .L521+28
 11573 0078 40F6FA31 		movw	r1, #3066
 11574 007c FFF7FEFF 		bl	assert_failed
 11575              	.L518:
3067:App/STM32F4-Discovery/Libraries/STM32F4xx_StdPeriph_Driver/src/stm32f4xx_tim.c ****   assert_param(IS_TIM_IC_POLARITY(TIM_IC1Polarity));
 11576              		.loc 1 3067 0 is_stmt 1
 11577 0080 3B89     		ldrh	r3, [r7, #8]
 11578 0082 002B     		cmp	r3, #0
 11579 0084 0AD0     		beq	.L519
 11580              		.loc 1 3067 0 is_stmt 0 discriminator 1
 11581 0086 3B89     		ldrh	r3, [r7, #8]
 11582 0088 022B     		cmp	r3, #2
 11583 008a 07D0     		beq	.L519
 11584 008c 3B89     		ldrh	r3, [r7, #8]
 11585 008e 0A2B     		cmp	r3, #10
 11586 0090 04D0     		beq	.L519
 11587 0092 2B48     		ldr	r0, .L521+28
 11588 0094 40F6FB31 		movw	r1, #3067
 11589 0098 FFF7FEFF 		bl	assert_failed
 11590              	.L519:
3068:App/STM32F4-Discovery/Libraries/STM32F4xx_StdPeriph_Driver/src/stm32f4xx_tim.c ****   assert_param(IS_TIM_IC_POLARITY(TIM_IC2Polarity));
 11591              		.loc 1 3068 0 is_stmt 1
 11592 009c FB88     		ldrh	r3, [r7, #6]
 11593 009e 002B     		cmp	r3, #0
 11594 00a0 0AD0     		beq	.L520
 11595              		.loc 1 3068 0 is_stmt 0 discriminator 1
 11596 00a2 FB88     		ldrh	r3, [r7, #6]
 11597 00a4 022B     		cmp	r3, #2
 11598 00a6 07D0     		beq	.L520
 11599 00a8 FB88     		ldrh	r3, [r7, #6]
 11600 00aa 0A2B     		cmp	r3, #10
 11601 00ac 04D0     		beq	.L520
 11602 00ae 2448     		ldr	r0, .L521+28
 11603 00b0 40F6FC31 		movw	r1, #3068
 11604 00b4 FFF7FEFF 		bl	assert_failed
 11605              	.L520:
3069:App/STM32F4-Discovery/Libraries/STM32F4xx_StdPeriph_Driver/src/stm32f4xx_tim.c **** 
3070:App/STM32F4-Discovery/Libraries/STM32F4xx_StdPeriph_Driver/src/stm32f4xx_tim.c ****   /* Get the TIMx SMCR register value */
3071:App/STM32F4-Discovery/Libraries/STM32F4xx_StdPeriph_Driver/src/stm32f4xx_tim.c ****   tmpsmcr = TIMx->SMCR;
 11606              		.loc 1 3071 0 is_stmt 1
 11607 00b8 FB68     		ldr	r3, [r7, #12]
 11608 00ba 1B89     		ldrh	r3, [r3, #8]	@ movhi
 11609 00bc FB82     		strh	r3, [r7, #22]	@ movhi
3072:App/STM32F4-Discovery/Libraries/STM32F4xx_StdPeriph_Driver/src/stm32f4xx_tim.c **** 
3073:App/STM32F4-Discovery/Libraries/STM32F4xx_StdPeriph_Driver/src/stm32f4xx_tim.c ****   /* Get the TIMx CCMR1 register value */
3074:App/STM32F4-Discovery/Libraries/STM32F4xx_StdPeriph_Driver/src/stm32f4xx_tim.c ****   tmpccmr1 = TIMx->CCMR1;
 11610              		.loc 1 3074 0
 11611 00be FB68     		ldr	r3, [r7, #12]
 11612 00c0 1B8B     		ldrh	r3, [r3, #24]	@ movhi
 11613 00c2 BB82     		strh	r3, [r7, #20]	@ movhi
3075:App/STM32F4-Discovery/Libraries/STM32F4xx_StdPeriph_Driver/src/stm32f4xx_tim.c **** 
3076:App/STM32F4-Discovery/Libraries/STM32F4xx_StdPeriph_Driver/src/stm32f4xx_tim.c ****   /* Get the TIMx CCER register value */
3077:App/STM32F4-Discovery/Libraries/STM32F4xx_StdPeriph_Driver/src/stm32f4xx_tim.c ****   tmpccer = TIMx->CCER;
 11614              		.loc 1 3077 0
 11615 00c4 FB68     		ldr	r3, [r7, #12]
 11616 00c6 1B8C     		ldrh	r3, [r3, #32]	@ movhi
 11617 00c8 7B82     		strh	r3, [r7, #18]	@ movhi
3078:App/STM32F4-Discovery/Libraries/STM32F4xx_StdPeriph_Driver/src/stm32f4xx_tim.c **** 
3079:App/STM32F4-Discovery/Libraries/STM32F4xx_StdPeriph_Driver/src/stm32f4xx_tim.c ****   /* Set the encoder Mode */
3080:App/STM32F4-Discovery/Libraries/STM32F4xx_StdPeriph_Driver/src/stm32f4xx_tim.c ****   tmpsmcr &= (uint16_t)~TIM_SMCR_SMS;
 11618              		.loc 1 3080 0
 11619 00ca FB8A     		ldrh	r3, [r7, #22]	@ movhi
 11620 00cc 23F00703 		bic	r3, r3, #7
 11621 00d0 FB82     		strh	r3, [r7, #22]	@ movhi
3081:App/STM32F4-Discovery/Libraries/STM32F4xx_StdPeriph_Driver/src/stm32f4xx_tim.c ****   tmpsmcr |= TIM_EncoderMode;
 11622              		.loc 1 3081 0
 11623 00d2 FA8A     		ldrh	r2, [r7, #22]	@ movhi
 11624 00d4 7B89     		ldrh	r3, [r7, #10]	@ movhi
 11625 00d6 1343     		orrs	r3, r3, r2
 11626 00d8 FB82     		strh	r3, [r7, #22]	@ movhi
3082:App/STM32F4-Discovery/Libraries/STM32F4xx_StdPeriph_Driver/src/stm32f4xx_tim.c **** 
3083:App/STM32F4-Discovery/Libraries/STM32F4xx_StdPeriph_Driver/src/stm32f4xx_tim.c ****   /* Select the Capture Compare 1 and the Capture Compare 2 as input */
3084:App/STM32F4-Discovery/Libraries/STM32F4xx_StdPeriph_Driver/src/stm32f4xx_tim.c ****   tmpccmr1 &= ((uint16_t)~TIM_CCMR1_CC1S) & ((uint16_t)~TIM_CCMR1_CC2S);
 11627              		.loc 1 3084 0
 11628 00da BB8A     		ldrh	r3, [r7, #20]	@ movhi
 11629 00dc 23F44073 		bic	r3, r3, #768
 11630 00e0 23F00303 		bic	r3, r3, #3
 11631 00e4 BB82     		strh	r3, [r7, #20]	@ movhi
3085:App/STM32F4-Discovery/Libraries/STM32F4xx_StdPeriph_Driver/src/stm32f4xx_tim.c ****   tmpccmr1 |= TIM_CCMR1_CC1S_0 | TIM_CCMR1_CC2S_0;
 11632              		.loc 1 3085 0
 11633 00e6 BB8A     		ldrh	r3, [r7, #20]	@ movhi
 11634 00e8 43F48073 		orr	r3, r3, #256
 11635 00ec 43F00103 		orr	r3, r3, #1
 11636 00f0 BB82     		strh	r3, [r7, #20]	@ movhi
3086:App/STM32F4-Discovery/Libraries/STM32F4xx_StdPeriph_Driver/src/stm32f4xx_tim.c **** 
3087:App/STM32F4-Discovery/Libraries/STM32F4xx_StdPeriph_Driver/src/stm32f4xx_tim.c ****   /* Set the TI1 and the TI2 Polarities */
3088:App/STM32F4-Discovery/Libraries/STM32F4xx_StdPeriph_Driver/src/stm32f4xx_tim.c ****   tmpccer &= ((uint16_t)~TIM_CCER_CC1P) & ((uint16_t)~TIM_CCER_CC2P);
 11637              		.loc 1 3088 0
 11638 00f2 7B8A     		ldrh	r3, [r7, #18]	@ movhi
 11639 00f4 23F02203 		bic	r3, r3, #34
 11640 00f8 7B82     		strh	r3, [r7, #18]	@ movhi
3089:App/STM32F4-Discovery/Libraries/STM32F4xx_StdPeriph_Driver/src/stm32f4xx_tim.c ****   tmpccer |= (uint16_t)(TIM_IC1Polarity | (uint16_t)(TIM_IC2Polarity << (uint16_t)4));
 11641              		.loc 1 3089 0
 11642 00fa FB88     		ldrh	r3, [r7, #6]	@ movhi
 11643 00fc 1B01     		lsls	r3, r3, #4
 11644 00fe 9AB2     		uxth	r2, r3
 11645 0100 3B89     		ldrh	r3, [r7, #8]	@ movhi
 11646 0102 1343     		orrs	r3, r3, r2
 11647 0104 9AB2     		uxth	r2, r3
 11648 0106 7B8A     		ldrh	r3, [r7, #18]	@ movhi
 11649 0108 1343     		orrs	r3, r3, r2
 11650 010a 7B82     		strh	r3, [r7, #18]	@ movhi
3090:App/STM32F4-Discovery/Libraries/STM32F4xx_StdPeriph_Driver/src/stm32f4xx_tim.c **** 
3091:App/STM32F4-Discovery/Libraries/STM32F4xx_StdPeriph_Driver/src/stm32f4xx_tim.c ****   /* Write to TIMx SMCR */
3092:App/STM32F4-Discovery/Libraries/STM32F4xx_StdPeriph_Driver/src/stm32f4xx_tim.c ****   TIMx->SMCR = tmpsmcr;
 11651              		.loc 1 3092 0
 11652 010c FB68     		ldr	r3, [r7, #12]
 11653 010e FA8A     		ldrh	r2, [r7, #22]	@ movhi
 11654 0110 1A81     		strh	r2, [r3, #8]	@ movhi
3093:App/STM32F4-Discovery/Libraries/STM32F4xx_StdPeriph_Driver/src/stm32f4xx_tim.c **** 
3094:App/STM32F4-Discovery/Libraries/STM32F4xx_StdPeriph_Driver/src/stm32f4xx_tim.c ****   /* Write to TIMx CCMR1 */
3095:App/STM32F4-Discovery/Libraries/STM32F4xx_StdPeriph_Driver/src/stm32f4xx_tim.c ****   TIMx->CCMR1 = tmpccmr1;
 11655              		.loc 1 3095 0
 11656 0112 FB68     		ldr	r3, [r7, #12]
 11657 0114 BA8A     		ldrh	r2, [r7, #20]	@ movhi
 11658 0116 1A83     		strh	r2, [r3, #24]	@ movhi
3096:App/STM32F4-Discovery/Libraries/STM32F4xx_StdPeriph_Driver/src/stm32f4xx_tim.c **** 
3097:App/STM32F4-Discovery/Libraries/STM32F4xx_StdPeriph_Driver/src/stm32f4xx_tim.c ****   /* Write to TIMx CCER */
3098:App/STM32F4-Discovery/Libraries/STM32F4xx_StdPeriph_Driver/src/stm32f4xx_tim.c ****   TIMx->CCER = tmpccer;
 11659              		.loc 1 3098 0
 11660 0118 FB68     		ldr	r3, [r7, #12]
 11661 011a 7A8A     		ldrh	r2, [r7, #18]	@ movhi
 11662 011c 1A84     		strh	r2, [r3, #32]	@ movhi
3099:App/STM32F4-Discovery/Libraries/STM32F4xx_StdPeriph_Driver/src/stm32f4xx_tim.c **** }
 11663              		.loc 1 3099 0
 11664 011e 1837     		adds	r7, r7, #24
 11665 0120 BD46     		mov	sp, r7
 11666              		@ sp needed
 11667 0122 80BD     		pop	{r7, pc}
 11668              	.L522:
 11669              		.align	2
 11670              	.L521:
 11671 0124 00000140 		.word	1073807360
 11672 0128 00040040 		.word	1073742848
 11673 012c 00080040 		.word	1073743872
 11674 0130 000C0040 		.word	1073744896
 11675 0134 00040140 		.word	1073808384
 11676 0138 00400140 		.word	1073823744
 11677 013c 00180040 		.word	1073747968
 11678 0140 00000000 		.word	.LC0
 11679              		.cfi_endproc
 11680              	.LFE195:
 11682              		.section	.text.TIM_SelectHallSensor,"ax",%progbits
 11683              		.align	2
 11684              		.global	TIM_SelectHallSensor
 11685              		.thumb
 11686              		.thumb_func
 11688              	TIM_SelectHallSensor:
 11689              	.LFB196:
3100:App/STM32F4-Discovery/Libraries/STM32F4xx_StdPeriph_Driver/src/stm32f4xx_tim.c **** 
3101:App/STM32F4-Discovery/Libraries/STM32F4xx_StdPeriph_Driver/src/stm32f4xx_tim.c **** /**
3102:App/STM32F4-Discovery/Libraries/STM32F4xx_StdPeriph_Driver/src/stm32f4xx_tim.c ****   * @brief  Enables or disables the TIMx's Hall sensor interface.
3103:App/STM32F4-Discovery/Libraries/STM32F4xx_StdPeriph_Driver/src/stm32f4xx_tim.c ****   * @param  TIMx: where x can be 1, 2, 3, 4, 5, 8, 9 or 12 to select the TIM 
3104:App/STM32F4-Discovery/Libraries/STM32F4xx_StdPeriph_Driver/src/stm32f4xx_tim.c ****   *         peripheral.
3105:App/STM32F4-Discovery/Libraries/STM32F4xx_StdPeriph_Driver/src/stm32f4xx_tim.c ****   * @param  NewState: new state of the TIMx Hall sensor interface.
3106:App/STM32F4-Discovery/Libraries/STM32F4xx_StdPeriph_Driver/src/stm32f4xx_tim.c ****   *          This parameter can be: ENABLE or DISABLE.
3107:App/STM32F4-Discovery/Libraries/STM32F4xx_StdPeriph_Driver/src/stm32f4xx_tim.c ****   * @retval None
3108:App/STM32F4-Discovery/Libraries/STM32F4xx_StdPeriph_Driver/src/stm32f4xx_tim.c ****   */
3109:App/STM32F4-Discovery/Libraries/STM32F4xx_StdPeriph_Driver/src/stm32f4xx_tim.c **** void TIM_SelectHallSensor(TIM_TypeDef* TIMx, FunctionalState NewState)
3110:App/STM32F4-Discovery/Libraries/STM32F4xx_StdPeriph_Driver/src/stm32f4xx_tim.c **** {
 11690              		.loc 1 3110 0
 11691              		.cfi_startproc
 11692              		@ args = 0, pretend = 0, frame = 8
 11693              		@ frame_needed = 1, uses_anonymous_args = 0
 11694 0000 80B5     		push	{r7, lr}
 11695              	.LCFI258:
 11696              		.cfi_def_cfa_offset 8
 11697              		.cfi_offset 7, -8
 11698              		.cfi_offset 14, -4
 11699 0002 82B0     		sub	sp, sp, #8
 11700              	.LCFI259:
 11701              		.cfi_def_cfa_offset 16
 11702 0004 00AF     		add	r7, sp, #0
 11703              	.LCFI260:
 11704              		.cfi_def_cfa_register 7
 11705 0006 7860     		str	r0, [r7, #4]
 11706 0008 0B46     		mov	r3, r1
 11707 000a FB70     		strb	r3, [r7, #3]
3111:App/STM32F4-Discovery/Libraries/STM32F4xx_StdPeriph_Driver/src/stm32f4xx_tim.c ****   /* Check the parameters */
3112:App/STM32F4-Discovery/Libraries/STM32F4xx_StdPeriph_Driver/src/stm32f4xx_tim.c ****   assert_param(IS_TIM_LIST2_PERIPH(TIMx));
 11708              		.loc 1 3112 0
 11709 000c 7A68     		ldr	r2, [r7, #4]
 11710 000e 234B     		ldr	r3, .L528
 11711 0010 9A42     		cmp	r2, r3
 11712 0012 20D0     		beq	.L524
 11713              		.loc 1 3112 0 is_stmt 0 discriminator 1
 11714 0014 7B68     		ldr	r3, [r7, #4]
 11715 0016 B3F1804F 		cmp	r3, #1073741824
 11716 001a 1CD0     		beq	.L524
 11717 001c 7A68     		ldr	r2, [r7, #4]
 11718 001e 204B     		ldr	r3, .L528+4
 11719 0020 9A42     		cmp	r2, r3
 11720 0022 18D0     		beq	.L524
 11721 0024 7A68     		ldr	r2, [r7, #4]
 11722 0026 1F4B     		ldr	r3, .L528+8
 11723 0028 9A42     		cmp	r2, r3
 11724 002a 14D0     		beq	.L524
 11725 002c 7A68     		ldr	r2, [r7, #4]
 11726 002e 1E4B     		ldr	r3, .L528+12
 11727 0030 9A42     		cmp	r2, r3
 11728 0032 10D0     		beq	.L524
 11729 0034 7A68     		ldr	r2, [r7, #4]
 11730 0036 1D4B     		ldr	r3, .L528+16
 11731 0038 9A42     		cmp	r2, r3
 11732 003a 0CD0     		beq	.L524
 11733 003c 7A68     		ldr	r2, [r7, #4]
 11734 003e 1C4B     		ldr	r3, .L528+20
 11735 0040 9A42     		cmp	r2, r3
 11736 0042 08D0     		beq	.L524
 11737 0044 7A68     		ldr	r2, [r7, #4]
 11738 0046 1B4B     		ldr	r3, .L528+24
 11739 0048 9A42     		cmp	r2, r3
 11740 004a 04D0     		beq	.L524
 11741 004c 1A48     		ldr	r0, .L528+28
 11742 004e 40F62841 		movw	r1, #3112
 11743 0052 FFF7FEFF 		bl	assert_failed
 11744              	.L524:
3113:App/STM32F4-Discovery/Libraries/STM32F4xx_StdPeriph_Driver/src/stm32f4xx_tim.c ****   assert_param(IS_FUNCTIONAL_STATE(NewState));
 11745              		.loc 1 3113 0 is_stmt 1
 11746 0056 FB78     		ldrb	r3, [r7, #3]	@ zero_extendqisi2
 11747 0058 002B     		cmp	r3, #0
 11748 005a 07D0     		beq	.L525
 11749              		.loc 1 3113 0 is_stmt 0 discriminator 1
 11750 005c FB78     		ldrb	r3, [r7, #3]	@ zero_extendqisi2
 11751 005e 012B     		cmp	r3, #1
 11752 0060 04D0     		beq	.L525
 11753 0062 1548     		ldr	r0, .L528+28
 11754 0064 40F62941 		movw	r1, #3113
 11755 0068 FFF7FEFF 		bl	assert_failed
 11756              	.L525:
3114:App/STM32F4-Discovery/Libraries/STM32F4xx_StdPeriph_Driver/src/stm32f4xx_tim.c **** 
3115:App/STM32F4-Discovery/Libraries/STM32F4xx_StdPeriph_Driver/src/stm32f4xx_tim.c ****   if (NewState != DISABLE)
 11757              		.loc 1 3115 0 is_stmt 1
 11758 006c FB78     		ldrb	r3, [r7, #3]	@ zero_extendqisi2
 11759 006e 002B     		cmp	r3, #0
 11760 0070 08D0     		beq	.L526
3116:App/STM32F4-Discovery/Libraries/STM32F4xx_StdPeriph_Driver/src/stm32f4xx_tim.c ****   {
3117:App/STM32F4-Discovery/Libraries/STM32F4xx_StdPeriph_Driver/src/stm32f4xx_tim.c ****     /* Set the TI1S Bit */
3118:App/STM32F4-Discovery/Libraries/STM32F4xx_StdPeriph_Driver/src/stm32f4xx_tim.c ****     TIMx->CR2 |= TIM_CR2_TI1S;
 11761              		.loc 1 3118 0
 11762 0072 7B68     		ldr	r3, [r7, #4]
 11763 0074 9B88     		ldrh	r3, [r3, #4]	@ movhi
 11764 0076 9BB2     		uxth	r3, r3
 11765 0078 43F08003 		orr	r3, r3, #128
 11766 007c 9AB2     		uxth	r2, r3
 11767 007e 7B68     		ldr	r3, [r7, #4]
 11768 0080 9A80     		strh	r2, [r3, #4]	@ movhi
 11769 0082 07E0     		b	.L523
 11770              	.L526:
3119:App/STM32F4-Discovery/Libraries/STM32F4xx_StdPeriph_Driver/src/stm32f4xx_tim.c ****   }
3120:App/STM32F4-Discovery/Libraries/STM32F4xx_StdPeriph_Driver/src/stm32f4xx_tim.c ****   else
3121:App/STM32F4-Discovery/Libraries/STM32F4xx_StdPeriph_Driver/src/stm32f4xx_tim.c ****   {
3122:App/STM32F4-Discovery/Libraries/STM32F4xx_StdPeriph_Driver/src/stm32f4xx_tim.c ****     /* Reset the TI1S Bit */
3123:App/STM32F4-Discovery/Libraries/STM32F4xx_StdPeriph_Driver/src/stm32f4xx_tim.c ****     TIMx->CR2 &= (uint16_t)~TIM_CR2_TI1S;
 11771              		.loc 1 3123 0
 11772 0084 7B68     		ldr	r3, [r7, #4]
 11773 0086 9B88     		ldrh	r3, [r3, #4]	@ movhi
 11774 0088 9BB2     		uxth	r3, r3
 11775 008a 23F08003 		bic	r3, r3, #128
 11776 008e 9AB2     		uxth	r2, r3
 11777 0090 7B68     		ldr	r3, [r7, #4]
 11778 0092 9A80     		strh	r2, [r3, #4]	@ movhi
 11779              	.L523:
3124:App/STM32F4-Discovery/Libraries/STM32F4xx_StdPeriph_Driver/src/stm32f4xx_tim.c ****   }
3125:App/STM32F4-Discovery/Libraries/STM32F4xx_StdPeriph_Driver/src/stm32f4xx_tim.c **** }
 11780              		.loc 1 3125 0
 11781 0094 0837     		adds	r7, r7, #8
 11782 0096 BD46     		mov	sp, r7
 11783              		@ sp needed
 11784 0098 80BD     		pop	{r7, pc}
 11785              	.L529:
 11786 009a 00BF     		.align	2
 11787              	.L528:
 11788 009c 00000140 		.word	1073807360
 11789 00a0 00040040 		.word	1073742848
 11790 00a4 00080040 		.word	1073743872
 11791 00a8 000C0040 		.word	1073744896
 11792 00ac 00040140 		.word	1073808384
 11793 00b0 00400140 		.word	1073823744
 11794 00b4 00180040 		.word	1073747968
 11795 00b8 00000000 		.word	.LC0
 11796              		.cfi_endproc
 11797              	.LFE196:
 11799              		.section	.text.TIM_RemapConfig,"ax",%progbits
 11800              		.align	2
 11801              		.global	TIM_RemapConfig
 11802              		.thumb
 11803              		.thumb_func
 11805              	TIM_RemapConfig:
 11806              	.LFB197:
3126:App/STM32F4-Discovery/Libraries/STM32F4xx_StdPeriph_Driver/src/stm32f4xx_tim.c **** /**
3127:App/STM32F4-Discovery/Libraries/STM32F4xx_StdPeriph_Driver/src/stm32f4xx_tim.c ****   * @}
3128:App/STM32F4-Discovery/Libraries/STM32F4xx_StdPeriph_Driver/src/stm32f4xx_tim.c ****   */
3129:App/STM32F4-Discovery/Libraries/STM32F4xx_StdPeriph_Driver/src/stm32f4xx_tim.c **** 
3130:App/STM32F4-Discovery/Libraries/STM32F4xx_StdPeriph_Driver/src/stm32f4xx_tim.c **** /** @defgroup TIM_Group9 Specific remapping management function
3131:App/STM32F4-Discovery/Libraries/STM32F4xx_StdPeriph_Driver/src/stm32f4xx_tim.c ****  *  @brief   Specific remapping management function
3132:App/STM32F4-Discovery/Libraries/STM32F4xx_StdPeriph_Driver/src/stm32f4xx_tim.c ****  *
3133:App/STM32F4-Discovery/Libraries/STM32F4xx_StdPeriph_Driver/src/stm32f4xx_tim.c **** @verbatim   
3134:App/STM32F4-Discovery/Libraries/STM32F4xx_StdPeriph_Driver/src/stm32f4xx_tim.c ****  ===============================================================================
3135:App/STM32F4-Discovery/Libraries/STM32F4xx_StdPeriph_Driver/src/stm32f4xx_tim.c ****                      Specific remapping management function
3136:App/STM32F4-Discovery/Libraries/STM32F4xx_StdPeriph_Driver/src/stm32f4xx_tim.c ****  ===============================================================================  
3137:App/STM32F4-Discovery/Libraries/STM32F4xx_StdPeriph_Driver/src/stm32f4xx_tim.c **** 
3138:App/STM32F4-Discovery/Libraries/STM32F4xx_StdPeriph_Driver/src/stm32f4xx_tim.c **** @endverbatim
3139:App/STM32F4-Discovery/Libraries/STM32F4xx_StdPeriph_Driver/src/stm32f4xx_tim.c ****   * @{
3140:App/STM32F4-Discovery/Libraries/STM32F4xx_StdPeriph_Driver/src/stm32f4xx_tim.c ****   */
3141:App/STM32F4-Discovery/Libraries/STM32F4xx_StdPeriph_Driver/src/stm32f4xx_tim.c **** 
3142:App/STM32F4-Discovery/Libraries/STM32F4xx_StdPeriph_Driver/src/stm32f4xx_tim.c **** /**
3143:App/STM32F4-Discovery/Libraries/STM32F4xx_StdPeriph_Driver/src/stm32f4xx_tim.c ****   * @brief  Configures the TIM2, TIM5 and TIM11 Remapping input capabilities.
3144:App/STM32F4-Discovery/Libraries/STM32F4xx_StdPeriph_Driver/src/stm32f4xx_tim.c ****   * @param  TIMx: where x can be 2, 5 or 11 to select the TIM peripheral.
3145:App/STM32F4-Discovery/Libraries/STM32F4xx_StdPeriph_Driver/src/stm32f4xx_tim.c ****   * @param  TIM_Remap: specifies the TIM input remapping source.
3146:App/STM32F4-Discovery/Libraries/STM32F4xx_StdPeriph_Driver/src/stm32f4xx_tim.c ****   *          This parameter can be one of the following values:
3147:App/STM32F4-Discovery/Libraries/STM32F4xx_StdPeriph_Driver/src/stm32f4xx_tim.c ****   *            @arg TIM2_TIM8_TRGO: TIM2 ITR1 input is connected to TIM8 Trigger output(default)
3148:App/STM32F4-Discovery/Libraries/STM32F4xx_StdPeriph_Driver/src/stm32f4xx_tim.c ****   *            @arg TIM2_ETH_PTP:   TIM2 ITR1 input is connected to ETH PTP trogger output.
3149:App/STM32F4-Discovery/Libraries/STM32F4xx_StdPeriph_Driver/src/stm32f4xx_tim.c ****   *            @arg TIM2_USBFS_SOF: TIM2 ITR1 input is connected to USB FS SOF. 
3150:App/STM32F4-Discovery/Libraries/STM32F4xx_StdPeriph_Driver/src/stm32f4xx_tim.c ****   *            @arg TIM2_USBHS_SOF: TIM2 ITR1 input is connected to USB HS SOF. 
3151:App/STM32F4-Discovery/Libraries/STM32F4xx_StdPeriph_Driver/src/stm32f4xx_tim.c ****   *            @arg TIM5_GPIO:      TIM5 CH4 input is connected to dedicated Timer pin(default)
3152:App/STM32F4-Discovery/Libraries/STM32F4xx_StdPeriph_Driver/src/stm32f4xx_tim.c ****   *            @arg TIM5_LSI:       TIM5 CH4 input is connected to LSI clock.
3153:App/STM32F4-Discovery/Libraries/STM32F4xx_StdPeriph_Driver/src/stm32f4xx_tim.c ****   *            @arg TIM5_LSE:       TIM5 CH4 input is connected to LSE clock.
3154:App/STM32F4-Discovery/Libraries/STM32F4xx_StdPeriph_Driver/src/stm32f4xx_tim.c ****   *            @arg TIM5_RTC:       TIM5 CH4 input is connected to RTC Output event.
3155:App/STM32F4-Discovery/Libraries/STM32F4xx_StdPeriph_Driver/src/stm32f4xx_tim.c ****   *            @arg TIM11_GPIO:     TIM11 CH4 input is connected to dedicated Timer pin(default) 
3156:App/STM32F4-Discovery/Libraries/STM32F4xx_StdPeriph_Driver/src/stm32f4xx_tim.c ****   *            @arg TIM11_HSE:      TIM11 CH4 input is connected to HSE_RTC clock
3157:App/STM32F4-Discovery/Libraries/STM32F4xx_StdPeriph_Driver/src/stm32f4xx_tim.c ****   *                                 (HSE divided by a programmable prescaler)  
3158:App/STM32F4-Discovery/Libraries/STM32F4xx_StdPeriph_Driver/src/stm32f4xx_tim.c ****   * @retval None
3159:App/STM32F4-Discovery/Libraries/STM32F4xx_StdPeriph_Driver/src/stm32f4xx_tim.c ****   */
3160:App/STM32F4-Discovery/Libraries/STM32F4xx_StdPeriph_Driver/src/stm32f4xx_tim.c **** void TIM_RemapConfig(TIM_TypeDef* TIMx, uint16_t TIM_Remap)
3161:App/STM32F4-Discovery/Libraries/STM32F4xx_StdPeriph_Driver/src/stm32f4xx_tim.c **** {
 11807              		.loc 1 3161 0
 11808              		.cfi_startproc
 11809              		@ args = 0, pretend = 0, frame = 8
 11810              		@ frame_needed = 1, uses_anonymous_args = 0
 11811 0000 80B5     		push	{r7, lr}
 11812              	.LCFI261:
 11813              		.cfi_def_cfa_offset 8
 11814              		.cfi_offset 7, -8
 11815              		.cfi_offset 14, -4
 11816 0002 82B0     		sub	sp, sp, #8
 11817              	.LCFI262:
 11818              		.cfi_def_cfa_offset 16
 11819 0004 00AF     		add	r7, sp, #0
 11820              	.LCFI263:
 11821              		.cfi_def_cfa_register 7
 11822 0006 7860     		str	r0, [r7, #4]
 11823 0008 0B46     		mov	r3, r1
 11824 000a 7B80     		strh	r3, [r7, #2]	@ movhi
3162:App/STM32F4-Discovery/Libraries/STM32F4xx_StdPeriph_Driver/src/stm32f4xx_tim.c ****  /* Check the parameters */
3163:App/STM32F4-Discovery/Libraries/STM32F4xx_StdPeriph_Driver/src/stm32f4xx_tim.c ****   assert_param(IS_TIM_LIST6_PERIPH(TIMx));
 11825              		.loc 1 3163 0
 11826 000c 7B68     		ldr	r3, [r7, #4]
 11827 000e B3F1804F 		cmp	r3, #1073741824
 11828 0012 0CD0     		beq	.L531
 11829              		.loc 1 3163 0 is_stmt 0 discriminator 1
 11830 0014 7A68     		ldr	r2, [r7, #4]
 11831 0016 1C4B     		ldr	r3, .L533
 11832 0018 9A42     		cmp	r2, r3
 11833 001a 08D0     		beq	.L531
 11834 001c 7A68     		ldr	r2, [r7, #4]
 11835 001e 1B4B     		ldr	r3, .L533+4
 11836 0020 9A42     		cmp	r2, r3
 11837 0022 04D0     		beq	.L531
 11838 0024 1A48     		ldr	r0, .L533+8
 11839 0026 40F65B41 		movw	r1, #3163
 11840 002a FFF7FEFF 		bl	assert_failed
 11841              	.L531:
3164:App/STM32F4-Discovery/Libraries/STM32F4xx_StdPeriph_Driver/src/stm32f4xx_tim.c ****   assert_param(IS_TIM_REMAP(TIM_Remap));
 11842              		.loc 1 3164 0 is_stmt 1
 11843 002e 7B88     		ldrh	r3, [r7, #2]
 11844 0030 002B     		cmp	r3, #0
 11845 0032 22D0     		beq	.L532
 11846              		.loc 1 3164 0 is_stmt 0 discriminator 1
 11847 0034 7B88     		ldrh	r3, [r7, #2]
 11848 0036 B3F5806F 		cmp	r3, #1024
 11849 003a 1ED0     		beq	.L532
 11850 003c 7B88     		ldrh	r3, [r7, #2]
 11851 003e B3F5006F 		cmp	r3, #2048
 11852 0042 1AD0     		beq	.L532
 11853 0044 7B88     		ldrh	r3, [r7, #2]
 11854 0046 B3F5406F 		cmp	r3, #3072
 11855 004a 16D0     		beq	.L532
 11856 004c 7B88     		ldrh	r3, [r7, #2]
 11857 004e 002B     		cmp	r3, #0
 11858 0050 13D0     		beq	.L532
 11859 0052 7B88     		ldrh	r3, [r7, #2]
 11860 0054 402B     		cmp	r3, #64
 11861 0056 10D0     		beq	.L532
 11862 0058 7B88     		ldrh	r3, [r7, #2]
 11863 005a 802B     		cmp	r3, #128
 11864 005c 0DD0     		beq	.L532
 11865 005e 7B88     		ldrh	r3, [r7, #2]
 11866 0060 C02B     		cmp	r3, #192
 11867 0062 0AD0     		beq	.L532
 11868 0064 7B88     		ldrh	r3, [r7, #2]
 11869 0066 002B     		cmp	r3, #0
 11870 0068 07D0     		beq	.L532
 11871 006a 7B88     		ldrh	r3, [r7, #2]
 11872 006c 022B     		cmp	r3, #2
 11873 006e 04D0     		beq	.L532
 11874 0070 0748     		ldr	r0, .L533+8
 11875 0072 40F65C41 		movw	r1, #3164
 11876 0076 FFF7FEFF 		bl	assert_failed
 11877              	.L532:
3165:App/STM32F4-Discovery/Libraries/STM32F4xx_StdPeriph_Driver/src/stm32f4xx_tim.c **** 
3166:App/STM32F4-Discovery/Libraries/STM32F4xx_StdPeriph_Driver/src/stm32f4xx_tim.c ****   /* Set the Timer remapping configuration */
3167:App/STM32F4-Discovery/Libraries/STM32F4xx_StdPeriph_Driver/src/stm32f4xx_tim.c ****   TIMx->OR =  TIM_Remap;
 11878              		.loc 1 3167 0 is_stmt 1
 11879 007a 7B68     		ldr	r3, [r7, #4]
 11880 007c 7A88     		ldrh	r2, [r7, #2]	@ movhi
 11881 007e A3F85020 		strh	r2, [r3, #80]	@ movhi
3168:App/STM32F4-Discovery/Libraries/STM32F4xx_StdPeriph_Driver/src/stm32f4xx_tim.c **** }
 11882              		.loc 1 3168 0
 11883 0082 0837     		adds	r7, r7, #8
 11884 0084 BD46     		mov	sp, r7
 11885              		@ sp needed
 11886 0086 80BD     		pop	{r7, pc}
 11887              	.L534:
 11888              		.align	2
 11889              	.L533:
 11890 0088 000C0040 		.word	1073744896
 11891 008c 00480140 		.word	1073825792
 11892 0090 00000000 		.word	.LC0
 11893              		.cfi_endproc
 11894              	.LFE197:
 11896              		.section	.text.TI1_Config,"ax",%progbits
 11897              		.align	2
 11898              		.thumb
 11899              		.thumb_func
 11901              	TI1_Config:
 11902              	.LFB198:
3169:App/STM32F4-Discovery/Libraries/STM32F4xx_StdPeriph_Driver/src/stm32f4xx_tim.c **** /**
3170:App/STM32F4-Discovery/Libraries/STM32F4xx_StdPeriph_Driver/src/stm32f4xx_tim.c ****   * @}
3171:App/STM32F4-Discovery/Libraries/STM32F4xx_StdPeriph_Driver/src/stm32f4xx_tim.c ****   */
3172:App/STM32F4-Discovery/Libraries/STM32F4xx_StdPeriph_Driver/src/stm32f4xx_tim.c **** 
3173:App/STM32F4-Discovery/Libraries/STM32F4xx_StdPeriph_Driver/src/stm32f4xx_tim.c **** /**
3174:App/STM32F4-Discovery/Libraries/STM32F4xx_StdPeriph_Driver/src/stm32f4xx_tim.c ****   * @brief  Configure the TI1 as Input.
3175:App/STM32F4-Discovery/Libraries/STM32F4xx_StdPeriph_Driver/src/stm32f4xx_tim.c ****   * @param  TIMx: where x can be 1, 2, 3, 4, 5, 8, 9, 10, 11, 12, 13 or 14 
3176:App/STM32F4-Discovery/Libraries/STM32F4xx_StdPeriph_Driver/src/stm32f4xx_tim.c ****   *         to select the TIM peripheral.
3177:App/STM32F4-Discovery/Libraries/STM32F4xx_StdPeriph_Driver/src/stm32f4xx_tim.c ****   * @param  TIM_ICPolarity : The Input Polarity.
3178:App/STM32F4-Discovery/Libraries/STM32F4xx_StdPeriph_Driver/src/stm32f4xx_tim.c ****   *          This parameter can be one of the following values:
3179:App/STM32F4-Discovery/Libraries/STM32F4xx_StdPeriph_Driver/src/stm32f4xx_tim.c ****   *            @arg TIM_ICPolarity_Rising
3180:App/STM32F4-Discovery/Libraries/STM32F4xx_StdPeriph_Driver/src/stm32f4xx_tim.c ****   *            @arg TIM_ICPolarity_Falling
3181:App/STM32F4-Discovery/Libraries/STM32F4xx_StdPeriph_Driver/src/stm32f4xx_tim.c ****   *            @arg TIM_ICPolarity_BothEdge  
3182:App/STM32F4-Discovery/Libraries/STM32F4xx_StdPeriph_Driver/src/stm32f4xx_tim.c ****   * @param  TIM_ICSelection: specifies the input to be used.
3183:App/STM32F4-Discovery/Libraries/STM32F4xx_StdPeriph_Driver/src/stm32f4xx_tim.c ****   *          This parameter can be one of the following values:
3184:App/STM32F4-Discovery/Libraries/STM32F4xx_StdPeriph_Driver/src/stm32f4xx_tim.c ****   *            @arg TIM_ICSelection_DirectTI: TIM Input 1 is selected to be connected to IC1.
3185:App/STM32F4-Discovery/Libraries/STM32F4xx_StdPeriph_Driver/src/stm32f4xx_tim.c ****   *            @arg TIM_ICSelection_IndirectTI: TIM Input 1 is selected to be connected to IC2.
3186:App/STM32F4-Discovery/Libraries/STM32F4xx_StdPeriph_Driver/src/stm32f4xx_tim.c ****   *            @arg TIM_ICSelection_TRC: TIM Input 1 is selected to be connected to TRC.
3187:App/STM32F4-Discovery/Libraries/STM32F4xx_StdPeriph_Driver/src/stm32f4xx_tim.c ****   * @param  TIM_ICFilter: Specifies the Input Capture Filter.
3188:App/STM32F4-Discovery/Libraries/STM32F4xx_StdPeriph_Driver/src/stm32f4xx_tim.c ****   *          This parameter must be a value between 0x00 and 0x0F.
3189:App/STM32F4-Discovery/Libraries/STM32F4xx_StdPeriph_Driver/src/stm32f4xx_tim.c ****   * @retval None
3190:App/STM32F4-Discovery/Libraries/STM32F4xx_StdPeriph_Driver/src/stm32f4xx_tim.c ****   */
3191:App/STM32F4-Discovery/Libraries/STM32F4xx_StdPeriph_Driver/src/stm32f4xx_tim.c **** static void TI1_Config(TIM_TypeDef* TIMx, uint16_t TIM_ICPolarity, uint16_t TIM_ICSelection,
3192:App/STM32F4-Discovery/Libraries/STM32F4xx_StdPeriph_Driver/src/stm32f4xx_tim.c ****                        uint16_t TIM_ICFilter)
3193:App/STM32F4-Discovery/Libraries/STM32F4xx_StdPeriph_Driver/src/stm32f4xx_tim.c **** {
 11903              		.loc 1 3193 0
 11904              		.cfi_startproc
 11905              		@ args = 0, pretend = 0, frame = 24
 11906              		@ frame_needed = 1, uses_anonymous_args = 0
 11907              		@ link register save eliminated.
 11908 0000 80B4     		push	{r7}
 11909              	.LCFI264:
 11910              		.cfi_def_cfa_offset 4
 11911              		.cfi_offset 7, -4
 11912 0002 87B0     		sub	sp, sp, #28
 11913              	.LCFI265:
 11914              		.cfi_def_cfa_offset 32
 11915 0004 00AF     		add	r7, sp, #0
 11916              	.LCFI266:
 11917              		.cfi_def_cfa_register 7
 11918 0006 F860     		str	r0, [r7, #12]
 11919 0008 7981     		strh	r1, [r7, #10]	@ movhi
 11920 000a 3A81     		strh	r2, [r7, #8]	@ movhi
 11921 000c FB80     		strh	r3, [r7, #6]	@ movhi
3194:App/STM32F4-Discovery/Libraries/STM32F4xx_StdPeriph_Driver/src/stm32f4xx_tim.c ****   uint16_t tmpccmr1 = 0, tmpccer = 0;
 11922              		.loc 1 3194 0
 11923 000e 0023     		movs	r3, #0
 11924 0010 FB82     		strh	r3, [r7, #22]	@ movhi
 11925 0012 0023     		movs	r3, #0
 11926 0014 BB82     		strh	r3, [r7, #20]	@ movhi
3195:App/STM32F4-Discovery/Libraries/STM32F4xx_StdPeriph_Driver/src/stm32f4xx_tim.c **** 
3196:App/STM32F4-Discovery/Libraries/STM32F4xx_StdPeriph_Driver/src/stm32f4xx_tim.c ****   /* Disable the Channel 1: Reset the CC1E Bit */
3197:App/STM32F4-Discovery/Libraries/STM32F4xx_StdPeriph_Driver/src/stm32f4xx_tim.c ****   TIMx->CCER &= (uint16_t)~TIM_CCER_CC1E;
 11927              		.loc 1 3197 0
 11928 0016 FB68     		ldr	r3, [r7, #12]
 11929 0018 1B8C     		ldrh	r3, [r3, #32]	@ movhi
 11930 001a 9BB2     		uxth	r3, r3
 11931 001c 23F00103 		bic	r3, r3, #1
 11932 0020 9AB2     		uxth	r2, r3
 11933 0022 FB68     		ldr	r3, [r7, #12]
 11934 0024 1A84     		strh	r2, [r3, #32]	@ movhi
3198:App/STM32F4-Discovery/Libraries/STM32F4xx_StdPeriph_Driver/src/stm32f4xx_tim.c ****   tmpccmr1 = TIMx->CCMR1;
 11935              		.loc 1 3198 0
 11936 0026 FB68     		ldr	r3, [r7, #12]
 11937 0028 1B8B     		ldrh	r3, [r3, #24]	@ movhi
 11938 002a FB82     		strh	r3, [r7, #22]	@ movhi
3199:App/STM32F4-Discovery/Libraries/STM32F4xx_StdPeriph_Driver/src/stm32f4xx_tim.c ****   tmpccer = TIMx->CCER;
 11939              		.loc 1 3199 0
 11940 002c FB68     		ldr	r3, [r7, #12]
 11941 002e 1B8C     		ldrh	r3, [r3, #32]	@ movhi
 11942 0030 BB82     		strh	r3, [r7, #20]	@ movhi
3200:App/STM32F4-Discovery/Libraries/STM32F4xx_StdPeriph_Driver/src/stm32f4xx_tim.c **** 
3201:App/STM32F4-Discovery/Libraries/STM32F4xx_StdPeriph_Driver/src/stm32f4xx_tim.c ****   /* Select the Input and set the filter */
3202:App/STM32F4-Discovery/Libraries/STM32F4xx_StdPeriph_Driver/src/stm32f4xx_tim.c ****   tmpccmr1 &= ((uint16_t)~TIM_CCMR1_CC1S) & ((uint16_t)~TIM_CCMR1_IC1F);
 11943              		.loc 1 3202 0
 11944 0032 FB8A     		ldrh	r3, [r7, #22]	@ movhi
 11945 0034 23F0F303 		bic	r3, r3, #243
 11946 0038 FB82     		strh	r3, [r7, #22]	@ movhi
3203:App/STM32F4-Discovery/Libraries/STM32F4xx_StdPeriph_Driver/src/stm32f4xx_tim.c ****   tmpccmr1 |= (uint16_t)(TIM_ICSelection | (uint16_t)(TIM_ICFilter << (uint16_t)4));
 11947              		.loc 1 3203 0
 11948 003a FB88     		ldrh	r3, [r7, #6]	@ movhi
 11949 003c 1B01     		lsls	r3, r3, #4
 11950 003e 9AB2     		uxth	r2, r3
 11951 0040 3B89     		ldrh	r3, [r7, #8]	@ movhi
 11952 0042 1343     		orrs	r3, r3, r2
 11953 0044 9AB2     		uxth	r2, r3
 11954 0046 FB8A     		ldrh	r3, [r7, #22]	@ movhi
 11955 0048 1343     		orrs	r3, r3, r2
 11956 004a FB82     		strh	r3, [r7, #22]	@ movhi
3204:App/STM32F4-Discovery/Libraries/STM32F4xx_StdPeriph_Driver/src/stm32f4xx_tim.c **** 
3205:App/STM32F4-Discovery/Libraries/STM32F4xx_StdPeriph_Driver/src/stm32f4xx_tim.c ****   /* Select the Polarity and set the CC1E Bit */
3206:App/STM32F4-Discovery/Libraries/STM32F4xx_StdPeriph_Driver/src/stm32f4xx_tim.c ****   tmpccer &= (uint16_t)~(TIM_CCER_CC1P | TIM_CCER_CC1NP);
 11957              		.loc 1 3206 0
 11958 004c BB8A     		ldrh	r3, [r7, #20]	@ movhi
 11959 004e 23F00A03 		bic	r3, r3, #10
 11960 0052 BB82     		strh	r3, [r7, #20]	@ movhi
3207:App/STM32F4-Discovery/Libraries/STM32F4xx_StdPeriph_Driver/src/stm32f4xx_tim.c ****   tmpccer |= (uint16_t)(TIM_ICPolarity | (uint16_t)TIM_CCER_CC1E);
 11961              		.loc 1 3207 0
 11962 0054 7A89     		ldrh	r2, [r7, #10]	@ movhi
 11963 0056 BB8A     		ldrh	r3, [r7, #20]	@ movhi
 11964 0058 1343     		orrs	r3, r3, r2
 11965 005a 9BB2     		uxth	r3, r3
 11966 005c 43F00103 		orr	r3, r3, #1
 11967 0060 BB82     		strh	r3, [r7, #20]	@ movhi
3208:App/STM32F4-Discovery/Libraries/STM32F4xx_StdPeriph_Driver/src/stm32f4xx_tim.c **** 
3209:App/STM32F4-Discovery/Libraries/STM32F4xx_StdPeriph_Driver/src/stm32f4xx_tim.c ****   /* Write to TIMx CCMR1 and CCER registers */
3210:App/STM32F4-Discovery/Libraries/STM32F4xx_StdPeriph_Driver/src/stm32f4xx_tim.c ****   TIMx->CCMR1 = tmpccmr1;
 11968              		.loc 1 3210 0
 11969 0062 FB68     		ldr	r3, [r7, #12]
 11970 0064 FA8A     		ldrh	r2, [r7, #22]	@ movhi
 11971 0066 1A83     		strh	r2, [r3, #24]	@ movhi
3211:App/STM32F4-Discovery/Libraries/STM32F4xx_StdPeriph_Driver/src/stm32f4xx_tim.c ****   TIMx->CCER = tmpccer;
 11972              		.loc 1 3211 0
 11973 0068 FB68     		ldr	r3, [r7, #12]
 11974 006a BA8A     		ldrh	r2, [r7, #20]	@ movhi
 11975 006c 1A84     		strh	r2, [r3, #32]	@ movhi
3212:App/STM32F4-Discovery/Libraries/STM32F4xx_StdPeriph_Driver/src/stm32f4xx_tim.c **** }
 11976              		.loc 1 3212 0
 11977 006e 1C37     		adds	r7, r7, #28
 11978 0070 BD46     		mov	sp, r7
 11979              		@ sp needed
 11980 0072 5DF8047B 		ldr	r7, [sp], #4
 11981 0076 7047     		bx	lr
 11982              		.cfi_endproc
 11983              	.LFE198:
 11985              		.section	.text.TI2_Config,"ax",%progbits
 11986              		.align	2
 11987              		.thumb
 11988              		.thumb_func
 11990              	TI2_Config:
 11991              	.LFB199:
3213:App/STM32F4-Discovery/Libraries/STM32F4xx_StdPeriph_Driver/src/stm32f4xx_tim.c **** 
3214:App/STM32F4-Discovery/Libraries/STM32F4xx_StdPeriph_Driver/src/stm32f4xx_tim.c **** /**
3215:App/STM32F4-Discovery/Libraries/STM32F4xx_StdPeriph_Driver/src/stm32f4xx_tim.c ****   * @brief  Configure the TI2 as Input.
3216:App/STM32F4-Discovery/Libraries/STM32F4xx_StdPeriph_Driver/src/stm32f4xx_tim.c ****   * @param  TIMx: where x can be 1, 2, 3, 4, 5, 8, 9 or 12 to select the TIM 
3217:App/STM32F4-Discovery/Libraries/STM32F4xx_StdPeriph_Driver/src/stm32f4xx_tim.c ****   *         peripheral.
3218:App/STM32F4-Discovery/Libraries/STM32F4xx_StdPeriph_Driver/src/stm32f4xx_tim.c ****   * @param  TIM_ICPolarity : The Input Polarity.
3219:App/STM32F4-Discovery/Libraries/STM32F4xx_StdPeriph_Driver/src/stm32f4xx_tim.c ****   *          This parameter can be one of the following values:
3220:App/STM32F4-Discovery/Libraries/STM32F4xx_StdPeriph_Driver/src/stm32f4xx_tim.c ****   *            @arg TIM_ICPolarity_Rising
3221:App/STM32F4-Discovery/Libraries/STM32F4xx_StdPeriph_Driver/src/stm32f4xx_tim.c ****   *            @arg TIM_ICPolarity_Falling
3222:App/STM32F4-Discovery/Libraries/STM32F4xx_StdPeriph_Driver/src/stm32f4xx_tim.c ****   *            @arg TIM_ICPolarity_BothEdge   
3223:App/STM32F4-Discovery/Libraries/STM32F4xx_StdPeriph_Driver/src/stm32f4xx_tim.c ****   * @param  TIM_ICSelection: specifies the input to be used.
3224:App/STM32F4-Discovery/Libraries/STM32F4xx_StdPeriph_Driver/src/stm32f4xx_tim.c ****   *          This parameter can be one of the following values:
3225:App/STM32F4-Discovery/Libraries/STM32F4xx_StdPeriph_Driver/src/stm32f4xx_tim.c ****   *            @arg TIM_ICSelection_DirectTI: TIM Input 2 is selected to be connected to IC2.
3226:App/STM32F4-Discovery/Libraries/STM32F4xx_StdPeriph_Driver/src/stm32f4xx_tim.c ****   *            @arg TIM_ICSelection_IndirectTI: TIM Input 2 is selected to be connected to IC1.
3227:App/STM32F4-Discovery/Libraries/STM32F4xx_StdPeriph_Driver/src/stm32f4xx_tim.c ****   *            @arg TIM_ICSelection_TRC: TIM Input 2 is selected to be connected to TRC.
3228:App/STM32F4-Discovery/Libraries/STM32F4xx_StdPeriph_Driver/src/stm32f4xx_tim.c ****   * @param  TIM_ICFilter: Specifies the Input Capture Filter.
3229:App/STM32F4-Discovery/Libraries/STM32F4xx_StdPeriph_Driver/src/stm32f4xx_tim.c ****   *          This parameter must be a value between 0x00 and 0x0F.
3230:App/STM32F4-Discovery/Libraries/STM32F4xx_StdPeriph_Driver/src/stm32f4xx_tim.c ****   * @retval None
3231:App/STM32F4-Discovery/Libraries/STM32F4xx_StdPeriph_Driver/src/stm32f4xx_tim.c ****   */
3232:App/STM32F4-Discovery/Libraries/STM32F4xx_StdPeriph_Driver/src/stm32f4xx_tim.c **** static void TI2_Config(TIM_TypeDef* TIMx, uint16_t TIM_ICPolarity, uint16_t TIM_ICSelection,
3233:App/STM32F4-Discovery/Libraries/STM32F4xx_StdPeriph_Driver/src/stm32f4xx_tim.c ****                        uint16_t TIM_ICFilter)
3234:App/STM32F4-Discovery/Libraries/STM32F4xx_StdPeriph_Driver/src/stm32f4xx_tim.c **** {
 11992              		.loc 1 3234 0
 11993              		.cfi_startproc
 11994              		@ args = 0, pretend = 0, frame = 24
 11995              		@ frame_needed = 1, uses_anonymous_args = 0
 11996              		@ link register save eliminated.
 11997 0000 80B4     		push	{r7}
 11998              	.LCFI267:
 11999              		.cfi_def_cfa_offset 4
 12000              		.cfi_offset 7, -4
 12001 0002 87B0     		sub	sp, sp, #28
 12002              	.LCFI268:
 12003              		.cfi_def_cfa_offset 32
 12004 0004 00AF     		add	r7, sp, #0
 12005              	.LCFI269:
 12006              		.cfi_def_cfa_register 7
 12007 0006 F860     		str	r0, [r7, #12]
 12008 0008 7981     		strh	r1, [r7, #10]	@ movhi
 12009 000a 3A81     		strh	r2, [r7, #8]	@ movhi
 12010 000c FB80     		strh	r3, [r7, #6]	@ movhi
3235:App/STM32F4-Discovery/Libraries/STM32F4xx_StdPeriph_Driver/src/stm32f4xx_tim.c ****   uint16_t tmpccmr1 = 0, tmpccer = 0, tmp = 0;
 12011              		.loc 1 3235 0
 12012 000e 0023     		movs	r3, #0
 12013 0010 FB82     		strh	r3, [r7, #22]	@ movhi
 12014 0012 0023     		movs	r3, #0
 12015 0014 BB82     		strh	r3, [r7, #20]	@ movhi
 12016 0016 0023     		movs	r3, #0
 12017 0018 7B82     		strh	r3, [r7, #18]	@ movhi
3236:App/STM32F4-Discovery/Libraries/STM32F4xx_StdPeriph_Driver/src/stm32f4xx_tim.c **** 
3237:App/STM32F4-Discovery/Libraries/STM32F4xx_StdPeriph_Driver/src/stm32f4xx_tim.c ****   /* Disable the Channel 2: Reset the CC2E Bit */
3238:App/STM32F4-Discovery/Libraries/STM32F4xx_StdPeriph_Driver/src/stm32f4xx_tim.c ****   TIMx->CCER &= (uint16_t)~TIM_CCER_CC2E;
 12018              		.loc 1 3238 0
 12019 001a FB68     		ldr	r3, [r7, #12]
 12020 001c 1B8C     		ldrh	r3, [r3, #32]	@ movhi
 12021 001e 9BB2     		uxth	r3, r3
 12022 0020 23F01003 		bic	r3, r3, #16
 12023 0024 9AB2     		uxth	r2, r3
 12024 0026 FB68     		ldr	r3, [r7, #12]
 12025 0028 1A84     		strh	r2, [r3, #32]	@ movhi
3239:App/STM32F4-Discovery/Libraries/STM32F4xx_StdPeriph_Driver/src/stm32f4xx_tim.c ****   tmpccmr1 = TIMx->CCMR1;
 12026              		.loc 1 3239 0
 12027 002a FB68     		ldr	r3, [r7, #12]
 12028 002c 1B8B     		ldrh	r3, [r3, #24]	@ movhi
 12029 002e FB82     		strh	r3, [r7, #22]	@ movhi
3240:App/STM32F4-Discovery/Libraries/STM32F4xx_StdPeriph_Driver/src/stm32f4xx_tim.c ****   tmpccer = TIMx->CCER;
 12030              		.loc 1 3240 0
 12031 0030 FB68     		ldr	r3, [r7, #12]
 12032 0032 1B8C     		ldrh	r3, [r3, #32]	@ movhi
 12033 0034 BB82     		strh	r3, [r7, #20]	@ movhi
3241:App/STM32F4-Discovery/Libraries/STM32F4xx_StdPeriph_Driver/src/stm32f4xx_tim.c ****   tmp = (uint16_t)(TIM_ICPolarity << 4);
 12034              		.loc 1 3241 0
 12035 0036 7B89     		ldrh	r3, [r7, #10]	@ movhi
 12036 0038 1B01     		lsls	r3, r3, #4
 12037 003a 7B82     		strh	r3, [r7, #18]	@ movhi
3242:App/STM32F4-Discovery/Libraries/STM32F4xx_StdPeriph_Driver/src/stm32f4xx_tim.c **** 
3243:App/STM32F4-Discovery/Libraries/STM32F4xx_StdPeriph_Driver/src/stm32f4xx_tim.c ****   /* Select the Input and set the filter */
3244:App/STM32F4-Discovery/Libraries/STM32F4xx_StdPeriph_Driver/src/stm32f4xx_tim.c ****   tmpccmr1 &= ((uint16_t)~TIM_CCMR1_CC2S) & ((uint16_t)~TIM_CCMR1_IC2F);
 12038              		.loc 1 3244 0
 12039 003c FB8A     		ldrh	r3, [r7, #22]	@ movhi
 12040 003e 23F44073 		bic	r3, r3, #768
 12041 0042 1B05     		lsls	r3, r3, #20
 12042 0044 1B0D     		lsrs	r3, r3, #20
 12043 0046 FB82     		strh	r3, [r7, #22]	@ movhi
3245:App/STM32F4-Discovery/Libraries/STM32F4xx_StdPeriph_Driver/src/stm32f4xx_tim.c ****   tmpccmr1 |= (uint16_t)(TIM_ICFilter << 12);
 12044              		.loc 1 3245 0
 12045 0048 FB88     		ldrh	r3, [r7, #6]	@ movhi
 12046 004a 1B03     		lsls	r3, r3, #12
 12047 004c 9AB2     		uxth	r2, r3
 12048 004e FB8A     		ldrh	r3, [r7, #22]	@ movhi
 12049 0050 1343     		orrs	r3, r3, r2
 12050 0052 FB82     		strh	r3, [r7, #22]	@ movhi
3246:App/STM32F4-Discovery/Libraries/STM32F4xx_StdPeriph_Driver/src/stm32f4xx_tim.c ****   tmpccmr1 |= (uint16_t)(TIM_ICSelection << 8);
 12051              		.loc 1 3246 0
 12052 0054 3B89     		ldrh	r3, [r7, #8]	@ movhi
 12053 0056 1B02     		lsls	r3, r3, #8
 12054 0058 9AB2     		uxth	r2, r3
 12055 005a FB8A     		ldrh	r3, [r7, #22]	@ movhi
 12056 005c 1343     		orrs	r3, r3, r2
 12057 005e FB82     		strh	r3, [r7, #22]	@ movhi
3247:App/STM32F4-Discovery/Libraries/STM32F4xx_StdPeriph_Driver/src/stm32f4xx_tim.c **** 
3248:App/STM32F4-Discovery/Libraries/STM32F4xx_StdPeriph_Driver/src/stm32f4xx_tim.c ****   /* Select the Polarity and set the CC2E Bit */
3249:App/STM32F4-Discovery/Libraries/STM32F4xx_StdPeriph_Driver/src/stm32f4xx_tim.c ****   tmpccer &= (uint16_t)~(TIM_CCER_CC2P | TIM_CCER_CC2NP);
 12058              		.loc 1 3249 0
 12059 0060 BB8A     		ldrh	r3, [r7, #20]	@ movhi
 12060 0062 23F0A003 		bic	r3, r3, #160
 12061 0066 BB82     		strh	r3, [r7, #20]	@ movhi
3250:App/STM32F4-Discovery/Libraries/STM32F4xx_StdPeriph_Driver/src/stm32f4xx_tim.c ****   tmpccer |=  (uint16_t)(tmp | (uint16_t)TIM_CCER_CC2E);
 12062              		.loc 1 3250 0
 12063 0068 7A8A     		ldrh	r2, [r7, #18]	@ movhi
 12064 006a BB8A     		ldrh	r3, [r7, #20]	@ movhi
 12065 006c 1343     		orrs	r3, r3, r2
 12066 006e 9BB2     		uxth	r3, r3
 12067 0070 43F01003 		orr	r3, r3, #16
 12068 0074 BB82     		strh	r3, [r7, #20]	@ movhi
3251:App/STM32F4-Discovery/Libraries/STM32F4xx_StdPeriph_Driver/src/stm32f4xx_tim.c **** 
3252:App/STM32F4-Discovery/Libraries/STM32F4xx_StdPeriph_Driver/src/stm32f4xx_tim.c ****   /* Write to TIMx CCMR1 and CCER registers */
3253:App/STM32F4-Discovery/Libraries/STM32F4xx_StdPeriph_Driver/src/stm32f4xx_tim.c ****   TIMx->CCMR1 = tmpccmr1 ;
 12069              		.loc 1 3253 0
 12070 0076 FB68     		ldr	r3, [r7, #12]
 12071 0078 FA8A     		ldrh	r2, [r7, #22]	@ movhi
 12072 007a 1A83     		strh	r2, [r3, #24]	@ movhi
3254:App/STM32F4-Discovery/Libraries/STM32F4xx_StdPeriph_Driver/src/stm32f4xx_tim.c ****   TIMx->CCER = tmpccer;
 12073              		.loc 1 3254 0
 12074 007c FB68     		ldr	r3, [r7, #12]
 12075 007e BA8A     		ldrh	r2, [r7, #20]	@ movhi
 12076 0080 1A84     		strh	r2, [r3, #32]	@ movhi
3255:App/STM32F4-Discovery/Libraries/STM32F4xx_StdPeriph_Driver/src/stm32f4xx_tim.c **** }
 12077              		.loc 1 3255 0
 12078 0082 1C37     		adds	r7, r7, #28
 12079 0084 BD46     		mov	sp, r7
 12080              		@ sp needed
 12081 0086 5DF8047B 		ldr	r7, [sp], #4
 12082 008a 7047     		bx	lr
 12083              		.cfi_endproc
 12084              	.LFE199:
 12086              		.section	.text.TI3_Config,"ax",%progbits
 12087              		.align	2
 12088              		.thumb
 12089              		.thumb_func
 12091              	TI3_Config:
 12092              	.LFB200:
3256:App/STM32F4-Discovery/Libraries/STM32F4xx_StdPeriph_Driver/src/stm32f4xx_tim.c **** 
3257:App/STM32F4-Discovery/Libraries/STM32F4xx_StdPeriph_Driver/src/stm32f4xx_tim.c **** /**
3258:App/STM32F4-Discovery/Libraries/STM32F4xx_StdPeriph_Driver/src/stm32f4xx_tim.c ****   * @brief  Configure the TI3 as Input.
3259:App/STM32F4-Discovery/Libraries/STM32F4xx_StdPeriph_Driver/src/stm32f4xx_tim.c ****   * @param  TIMx: where x can be 1, 2, 3, 4, 5 or 8 to select the TIM peripheral.
3260:App/STM32F4-Discovery/Libraries/STM32F4xx_StdPeriph_Driver/src/stm32f4xx_tim.c ****   * @param  TIM_ICPolarity : The Input Polarity.
3261:App/STM32F4-Discovery/Libraries/STM32F4xx_StdPeriph_Driver/src/stm32f4xx_tim.c ****   *          This parameter can be one of the following values:
3262:App/STM32F4-Discovery/Libraries/STM32F4xx_StdPeriph_Driver/src/stm32f4xx_tim.c ****   *            @arg TIM_ICPolarity_Rising
3263:App/STM32F4-Discovery/Libraries/STM32F4xx_StdPeriph_Driver/src/stm32f4xx_tim.c ****   *            @arg TIM_ICPolarity_Falling
3264:App/STM32F4-Discovery/Libraries/STM32F4xx_StdPeriph_Driver/src/stm32f4xx_tim.c ****   *            @arg TIM_ICPolarity_BothEdge         
3265:App/STM32F4-Discovery/Libraries/STM32F4xx_StdPeriph_Driver/src/stm32f4xx_tim.c ****   * @param  TIM_ICSelection: specifies the input to be used.
3266:App/STM32F4-Discovery/Libraries/STM32F4xx_StdPeriph_Driver/src/stm32f4xx_tim.c ****   *          This parameter can be one of the following values:
3267:App/STM32F4-Discovery/Libraries/STM32F4xx_StdPeriph_Driver/src/stm32f4xx_tim.c ****   *            @arg TIM_ICSelection_DirectTI: TIM Input 3 is selected to be connected to IC3.
3268:App/STM32F4-Discovery/Libraries/STM32F4xx_StdPeriph_Driver/src/stm32f4xx_tim.c ****   *            @arg TIM_ICSelection_IndirectTI: TIM Input 3 is selected to be connected to IC4.
3269:App/STM32F4-Discovery/Libraries/STM32F4xx_StdPeriph_Driver/src/stm32f4xx_tim.c ****   *            @arg TIM_ICSelection_TRC: TIM Input 3 is selected to be connected to TRC.
3270:App/STM32F4-Discovery/Libraries/STM32F4xx_StdPeriph_Driver/src/stm32f4xx_tim.c ****   * @param  TIM_ICFilter: Specifies the Input Capture Filter.
3271:App/STM32F4-Discovery/Libraries/STM32F4xx_StdPeriph_Driver/src/stm32f4xx_tim.c ****   *          This parameter must be a value between 0x00 and 0x0F.
3272:App/STM32F4-Discovery/Libraries/STM32F4xx_StdPeriph_Driver/src/stm32f4xx_tim.c ****   * @retval None
3273:App/STM32F4-Discovery/Libraries/STM32F4xx_StdPeriph_Driver/src/stm32f4xx_tim.c ****   */
3274:App/STM32F4-Discovery/Libraries/STM32F4xx_StdPeriph_Driver/src/stm32f4xx_tim.c **** static void TI3_Config(TIM_TypeDef* TIMx, uint16_t TIM_ICPolarity, uint16_t TIM_ICSelection,
3275:App/STM32F4-Discovery/Libraries/STM32F4xx_StdPeriph_Driver/src/stm32f4xx_tim.c ****                        uint16_t TIM_ICFilter)
3276:App/STM32F4-Discovery/Libraries/STM32F4xx_StdPeriph_Driver/src/stm32f4xx_tim.c **** {
 12093              		.loc 1 3276 0
 12094              		.cfi_startproc
 12095              		@ args = 0, pretend = 0, frame = 24
 12096              		@ frame_needed = 1, uses_anonymous_args = 0
 12097              		@ link register save eliminated.
 12098 0000 80B4     		push	{r7}
 12099              	.LCFI270:
 12100              		.cfi_def_cfa_offset 4
 12101              		.cfi_offset 7, -4
 12102 0002 87B0     		sub	sp, sp, #28
 12103              	.LCFI271:
 12104              		.cfi_def_cfa_offset 32
 12105 0004 00AF     		add	r7, sp, #0
 12106              	.LCFI272:
 12107              		.cfi_def_cfa_register 7
 12108 0006 F860     		str	r0, [r7, #12]
 12109 0008 7981     		strh	r1, [r7, #10]	@ movhi
 12110 000a 3A81     		strh	r2, [r7, #8]	@ movhi
 12111 000c FB80     		strh	r3, [r7, #6]	@ movhi
3277:App/STM32F4-Discovery/Libraries/STM32F4xx_StdPeriph_Driver/src/stm32f4xx_tim.c ****   uint16_t tmpccmr2 = 0, tmpccer = 0, tmp = 0;
 12112              		.loc 1 3277 0
 12113 000e 0023     		movs	r3, #0
 12114 0010 FB82     		strh	r3, [r7, #22]	@ movhi
 12115 0012 0023     		movs	r3, #0
 12116 0014 BB82     		strh	r3, [r7, #20]	@ movhi
 12117 0016 0023     		movs	r3, #0
 12118 0018 7B82     		strh	r3, [r7, #18]	@ movhi
3278:App/STM32F4-Discovery/Libraries/STM32F4xx_StdPeriph_Driver/src/stm32f4xx_tim.c **** 
3279:App/STM32F4-Discovery/Libraries/STM32F4xx_StdPeriph_Driver/src/stm32f4xx_tim.c ****   /* Disable the Channel 3: Reset the CC3E Bit */
3280:App/STM32F4-Discovery/Libraries/STM32F4xx_StdPeriph_Driver/src/stm32f4xx_tim.c ****   TIMx->CCER &= (uint16_t)~TIM_CCER_CC3E;
 12119              		.loc 1 3280 0
 12120 001a FB68     		ldr	r3, [r7, #12]
 12121 001c 1B8C     		ldrh	r3, [r3, #32]	@ movhi
 12122 001e 9BB2     		uxth	r3, r3
 12123 0020 23F48073 		bic	r3, r3, #256
 12124 0024 9AB2     		uxth	r2, r3
 12125 0026 FB68     		ldr	r3, [r7, #12]
 12126 0028 1A84     		strh	r2, [r3, #32]	@ movhi
3281:App/STM32F4-Discovery/Libraries/STM32F4xx_StdPeriph_Driver/src/stm32f4xx_tim.c ****   tmpccmr2 = TIMx->CCMR2;
 12127              		.loc 1 3281 0
 12128 002a FB68     		ldr	r3, [r7, #12]
 12129 002c 9B8B     		ldrh	r3, [r3, #28]	@ movhi
 12130 002e FB82     		strh	r3, [r7, #22]	@ movhi
3282:App/STM32F4-Discovery/Libraries/STM32F4xx_StdPeriph_Driver/src/stm32f4xx_tim.c ****   tmpccer = TIMx->CCER;
 12131              		.loc 1 3282 0
 12132 0030 FB68     		ldr	r3, [r7, #12]
 12133 0032 1B8C     		ldrh	r3, [r3, #32]	@ movhi
 12134 0034 BB82     		strh	r3, [r7, #20]	@ movhi
3283:App/STM32F4-Discovery/Libraries/STM32F4xx_StdPeriph_Driver/src/stm32f4xx_tim.c ****   tmp = (uint16_t)(TIM_ICPolarity << 8);
 12135              		.loc 1 3283 0
 12136 0036 7B89     		ldrh	r3, [r7, #10]	@ movhi
 12137 0038 1B02     		lsls	r3, r3, #8
 12138 003a 7B82     		strh	r3, [r7, #18]	@ movhi
3284:App/STM32F4-Discovery/Libraries/STM32F4xx_StdPeriph_Driver/src/stm32f4xx_tim.c **** 
3285:App/STM32F4-Discovery/Libraries/STM32F4xx_StdPeriph_Driver/src/stm32f4xx_tim.c ****   /* Select the Input and set the filter */
3286:App/STM32F4-Discovery/Libraries/STM32F4xx_StdPeriph_Driver/src/stm32f4xx_tim.c ****   tmpccmr2 &= ((uint16_t)~TIM_CCMR1_CC1S) & ((uint16_t)~TIM_CCMR2_IC3F);
 12139              		.loc 1 3286 0
 12140 003c FB8A     		ldrh	r3, [r7, #22]	@ movhi
 12141 003e 23F0F303 		bic	r3, r3, #243
 12142 0042 FB82     		strh	r3, [r7, #22]	@ movhi
3287:App/STM32F4-Discovery/Libraries/STM32F4xx_StdPeriph_Driver/src/stm32f4xx_tim.c ****   tmpccmr2 |= (uint16_t)(TIM_ICSelection | (uint16_t)(TIM_ICFilter << (uint16_t)4));
 12143              		.loc 1 3287 0
 12144 0044 FB88     		ldrh	r3, [r7, #6]	@ movhi
 12145 0046 1B01     		lsls	r3, r3, #4
 12146 0048 9AB2     		uxth	r2, r3
 12147 004a 3B89     		ldrh	r3, [r7, #8]	@ movhi
 12148 004c 1343     		orrs	r3, r3, r2
 12149 004e 9AB2     		uxth	r2, r3
 12150 0050 FB8A     		ldrh	r3, [r7, #22]	@ movhi
 12151 0052 1343     		orrs	r3, r3, r2
 12152 0054 FB82     		strh	r3, [r7, #22]	@ movhi
3288:App/STM32F4-Discovery/Libraries/STM32F4xx_StdPeriph_Driver/src/stm32f4xx_tim.c **** 
3289:App/STM32F4-Discovery/Libraries/STM32F4xx_StdPeriph_Driver/src/stm32f4xx_tim.c ****   /* Select the Polarity and set the CC3E Bit */
3290:App/STM32F4-Discovery/Libraries/STM32F4xx_StdPeriph_Driver/src/stm32f4xx_tim.c ****   tmpccer &= (uint16_t)~(TIM_CCER_CC3P | TIM_CCER_CC3NP);
 12153              		.loc 1 3290 0
 12154 0056 BB8A     		ldrh	r3, [r7, #20]	@ movhi
 12155 0058 23F42063 		bic	r3, r3, #2560
 12156 005c BB82     		strh	r3, [r7, #20]	@ movhi
3291:App/STM32F4-Discovery/Libraries/STM32F4xx_StdPeriph_Driver/src/stm32f4xx_tim.c ****   tmpccer |= (uint16_t)(tmp | (uint16_t)TIM_CCER_CC3E);
 12157              		.loc 1 3291 0
 12158 005e 7A8A     		ldrh	r2, [r7, #18]	@ movhi
 12159 0060 BB8A     		ldrh	r3, [r7, #20]	@ movhi
 12160 0062 1343     		orrs	r3, r3, r2
 12161 0064 9BB2     		uxth	r3, r3
 12162 0066 43F48073 		orr	r3, r3, #256
 12163 006a BB82     		strh	r3, [r7, #20]	@ movhi
3292:App/STM32F4-Discovery/Libraries/STM32F4xx_StdPeriph_Driver/src/stm32f4xx_tim.c **** 
3293:App/STM32F4-Discovery/Libraries/STM32F4xx_StdPeriph_Driver/src/stm32f4xx_tim.c ****   /* Write to TIMx CCMR2 and CCER registers */
3294:App/STM32F4-Discovery/Libraries/STM32F4xx_StdPeriph_Driver/src/stm32f4xx_tim.c ****   TIMx->CCMR2 = tmpccmr2;
 12164              		.loc 1 3294 0
 12165 006c FB68     		ldr	r3, [r7, #12]
 12166 006e FA8A     		ldrh	r2, [r7, #22]	@ movhi
 12167 0070 9A83     		strh	r2, [r3, #28]	@ movhi
3295:App/STM32F4-Discovery/Libraries/STM32F4xx_StdPeriph_Driver/src/stm32f4xx_tim.c ****   TIMx->CCER = tmpccer;
 12168              		.loc 1 3295 0
 12169 0072 FB68     		ldr	r3, [r7, #12]
 12170 0074 BA8A     		ldrh	r2, [r7, #20]	@ movhi
 12171 0076 1A84     		strh	r2, [r3, #32]	@ movhi
3296:App/STM32F4-Discovery/Libraries/STM32F4xx_StdPeriph_Driver/src/stm32f4xx_tim.c **** }
 12172              		.loc 1 3296 0
 12173 0078 1C37     		adds	r7, r7, #28
 12174 007a BD46     		mov	sp, r7
 12175              		@ sp needed
 12176 007c 5DF8047B 		ldr	r7, [sp], #4
 12177 0080 7047     		bx	lr
 12178              		.cfi_endproc
 12179              	.LFE200:
 12181 0082 00BF     		.section	.text.TI4_Config,"ax",%progbits
 12182              		.align	2
 12183              		.thumb
 12184              		.thumb_func
 12186              	TI4_Config:
 12187              	.LFB201:
3297:App/STM32F4-Discovery/Libraries/STM32F4xx_StdPeriph_Driver/src/stm32f4xx_tim.c **** 
3298:App/STM32F4-Discovery/Libraries/STM32F4xx_StdPeriph_Driver/src/stm32f4xx_tim.c **** /**
3299:App/STM32F4-Discovery/Libraries/STM32F4xx_StdPeriph_Driver/src/stm32f4xx_tim.c ****   * @brief  Configure the TI4 as Input.
3300:App/STM32F4-Discovery/Libraries/STM32F4xx_StdPeriph_Driver/src/stm32f4xx_tim.c ****   * @param  TIMx: where x can be 1, 2, 3, 4, 5 or 8 to select the TIM peripheral.
3301:App/STM32F4-Discovery/Libraries/STM32F4xx_StdPeriph_Driver/src/stm32f4xx_tim.c ****   * @param  TIM_ICPolarity : The Input Polarity.
3302:App/STM32F4-Discovery/Libraries/STM32F4xx_StdPeriph_Driver/src/stm32f4xx_tim.c ****   *          This parameter can be one of the following values:
3303:App/STM32F4-Discovery/Libraries/STM32F4xx_StdPeriph_Driver/src/stm32f4xx_tim.c ****   *            @arg TIM_ICPolarity_Rising
3304:App/STM32F4-Discovery/Libraries/STM32F4xx_StdPeriph_Driver/src/stm32f4xx_tim.c ****   *            @arg TIM_ICPolarity_Falling
3305:App/STM32F4-Discovery/Libraries/STM32F4xx_StdPeriph_Driver/src/stm32f4xx_tim.c ****   *            @arg TIM_ICPolarity_BothEdge     
3306:App/STM32F4-Discovery/Libraries/STM32F4xx_StdPeriph_Driver/src/stm32f4xx_tim.c ****   * @param  TIM_ICSelection: specifies the input to be used.
3307:App/STM32F4-Discovery/Libraries/STM32F4xx_StdPeriph_Driver/src/stm32f4xx_tim.c ****   *          This parameter can be one of the following values:
3308:App/STM32F4-Discovery/Libraries/STM32F4xx_StdPeriph_Driver/src/stm32f4xx_tim.c ****   *            @arg TIM_ICSelection_DirectTI: TIM Input 4 is selected to be connected to IC4.
3309:App/STM32F4-Discovery/Libraries/STM32F4xx_StdPeriph_Driver/src/stm32f4xx_tim.c ****   *            @arg TIM_ICSelection_IndirectTI: TIM Input 4 is selected to be connected to IC3.
3310:App/STM32F4-Discovery/Libraries/STM32F4xx_StdPeriph_Driver/src/stm32f4xx_tim.c ****   *            @arg TIM_ICSelection_TRC: TIM Input 4 is selected to be connected to TRC.
3311:App/STM32F4-Discovery/Libraries/STM32F4xx_StdPeriph_Driver/src/stm32f4xx_tim.c ****   * @param  TIM_ICFilter: Specifies the Input Capture Filter.
3312:App/STM32F4-Discovery/Libraries/STM32F4xx_StdPeriph_Driver/src/stm32f4xx_tim.c ****   *          This parameter must be a value between 0x00 and 0x0F.
3313:App/STM32F4-Discovery/Libraries/STM32F4xx_StdPeriph_Driver/src/stm32f4xx_tim.c ****   * @retval None
3314:App/STM32F4-Discovery/Libraries/STM32F4xx_StdPeriph_Driver/src/stm32f4xx_tim.c ****   */
3315:App/STM32F4-Discovery/Libraries/STM32F4xx_StdPeriph_Driver/src/stm32f4xx_tim.c **** static void TI4_Config(TIM_TypeDef* TIMx, uint16_t TIM_ICPolarity, uint16_t TIM_ICSelection,
3316:App/STM32F4-Discovery/Libraries/STM32F4xx_StdPeriph_Driver/src/stm32f4xx_tim.c ****                        uint16_t TIM_ICFilter)
3317:App/STM32F4-Discovery/Libraries/STM32F4xx_StdPeriph_Driver/src/stm32f4xx_tim.c **** {
 12188              		.loc 1 3317 0
 12189              		.cfi_startproc
 12190              		@ args = 0, pretend = 0, frame = 24
 12191              		@ frame_needed = 1, uses_anonymous_args = 0
 12192              		@ link register save eliminated.
 12193 0000 80B4     		push	{r7}
 12194              	.LCFI273:
 12195              		.cfi_def_cfa_offset 4
 12196              		.cfi_offset 7, -4
 12197 0002 87B0     		sub	sp, sp, #28
 12198              	.LCFI274:
 12199              		.cfi_def_cfa_offset 32
 12200 0004 00AF     		add	r7, sp, #0
 12201              	.LCFI275:
 12202              		.cfi_def_cfa_register 7
 12203 0006 F860     		str	r0, [r7, #12]
 12204 0008 7981     		strh	r1, [r7, #10]	@ movhi
 12205 000a 3A81     		strh	r2, [r7, #8]	@ movhi
 12206 000c FB80     		strh	r3, [r7, #6]	@ movhi
3318:App/STM32F4-Discovery/Libraries/STM32F4xx_StdPeriph_Driver/src/stm32f4xx_tim.c ****   uint16_t tmpccmr2 = 0, tmpccer = 0, tmp = 0;
 12207              		.loc 1 3318 0
 12208 000e 0023     		movs	r3, #0
 12209 0010 FB82     		strh	r3, [r7, #22]	@ movhi
 12210 0012 0023     		movs	r3, #0
 12211 0014 BB82     		strh	r3, [r7, #20]	@ movhi
 12212 0016 0023     		movs	r3, #0
 12213 0018 7B82     		strh	r3, [r7, #18]	@ movhi
3319:App/STM32F4-Discovery/Libraries/STM32F4xx_StdPeriph_Driver/src/stm32f4xx_tim.c **** 
3320:App/STM32F4-Discovery/Libraries/STM32F4xx_StdPeriph_Driver/src/stm32f4xx_tim.c ****   /* Disable the Channel 4: Reset the CC4E Bit */
3321:App/STM32F4-Discovery/Libraries/STM32F4xx_StdPeriph_Driver/src/stm32f4xx_tim.c ****   TIMx->CCER &= (uint16_t)~TIM_CCER_CC4E;
 12214              		.loc 1 3321 0
 12215 001a FB68     		ldr	r3, [r7, #12]
 12216 001c 1B8C     		ldrh	r3, [r3, #32]	@ movhi
 12217 001e 9BB2     		uxth	r3, r3
 12218 0020 23F48053 		bic	r3, r3, #4096
 12219 0024 9AB2     		uxth	r2, r3
 12220 0026 FB68     		ldr	r3, [r7, #12]
 12221 0028 1A84     		strh	r2, [r3, #32]	@ movhi
3322:App/STM32F4-Discovery/Libraries/STM32F4xx_StdPeriph_Driver/src/stm32f4xx_tim.c ****   tmpccmr2 = TIMx->CCMR2;
 12222              		.loc 1 3322 0
 12223 002a FB68     		ldr	r3, [r7, #12]
 12224 002c 9B8B     		ldrh	r3, [r3, #28]	@ movhi
 12225 002e FB82     		strh	r3, [r7, #22]	@ movhi
3323:App/STM32F4-Discovery/Libraries/STM32F4xx_StdPeriph_Driver/src/stm32f4xx_tim.c ****   tmpccer = TIMx->CCER;
 12226              		.loc 1 3323 0
 12227 0030 FB68     		ldr	r3, [r7, #12]
 12228 0032 1B8C     		ldrh	r3, [r3, #32]	@ movhi
 12229 0034 BB82     		strh	r3, [r7, #20]	@ movhi
3324:App/STM32F4-Discovery/Libraries/STM32F4xx_StdPeriph_Driver/src/stm32f4xx_tim.c ****   tmp = (uint16_t)(TIM_ICPolarity << 12);
 12230              		.loc 1 3324 0
 12231 0036 7B89     		ldrh	r3, [r7, #10]	@ movhi
 12232 0038 1B03     		lsls	r3, r3, #12
 12233 003a 7B82     		strh	r3, [r7, #18]	@ movhi
3325:App/STM32F4-Discovery/Libraries/STM32F4xx_StdPeriph_Driver/src/stm32f4xx_tim.c **** 
3326:App/STM32F4-Discovery/Libraries/STM32F4xx_StdPeriph_Driver/src/stm32f4xx_tim.c ****   /* Select the Input and set the filter */
3327:App/STM32F4-Discovery/Libraries/STM32F4xx_StdPeriph_Driver/src/stm32f4xx_tim.c ****   tmpccmr2 &= ((uint16_t)~TIM_CCMR1_CC2S) & ((uint16_t)~TIM_CCMR1_IC2F);
 12234              		.loc 1 3327 0
 12235 003c FB8A     		ldrh	r3, [r7, #22]	@ movhi
 12236 003e 23F44073 		bic	r3, r3, #768
 12237 0042 1B05     		lsls	r3, r3, #20
 12238 0044 1B0D     		lsrs	r3, r3, #20
 12239 0046 FB82     		strh	r3, [r7, #22]	@ movhi
3328:App/STM32F4-Discovery/Libraries/STM32F4xx_StdPeriph_Driver/src/stm32f4xx_tim.c ****   tmpccmr2 |= (uint16_t)(TIM_ICSelection << 8);
 12240              		.loc 1 3328 0
 12241 0048 3B89     		ldrh	r3, [r7, #8]	@ movhi
 12242 004a 1B02     		lsls	r3, r3, #8
 12243 004c 9AB2     		uxth	r2, r3
 12244 004e FB8A     		ldrh	r3, [r7, #22]	@ movhi
 12245 0050 1343     		orrs	r3, r3, r2
 12246 0052 FB82     		strh	r3, [r7, #22]	@ movhi
3329:App/STM32F4-Discovery/Libraries/STM32F4xx_StdPeriph_Driver/src/stm32f4xx_tim.c ****   tmpccmr2 |= (uint16_t)(TIM_ICFilter << 12);
 12247              		.loc 1 3329 0
 12248 0054 FB88     		ldrh	r3, [r7, #6]	@ movhi
 12249 0056 1B03     		lsls	r3, r3, #12
 12250 0058 9AB2     		uxth	r2, r3
 12251 005a FB8A     		ldrh	r3, [r7, #22]	@ movhi
 12252 005c 1343     		orrs	r3, r3, r2
 12253 005e FB82     		strh	r3, [r7, #22]	@ movhi
3330:App/STM32F4-Discovery/Libraries/STM32F4xx_StdPeriph_Driver/src/stm32f4xx_tim.c **** 
3331:App/STM32F4-Discovery/Libraries/STM32F4xx_StdPeriph_Driver/src/stm32f4xx_tim.c ****   /* Select the Polarity and set the CC4E Bit */
3332:App/STM32F4-Discovery/Libraries/STM32F4xx_StdPeriph_Driver/src/stm32f4xx_tim.c ****   tmpccer &= (uint16_t)~(TIM_CCER_CC4P | TIM_CCER_CC4NP);
 12254              		.loc 1 3332 0
 12255 0060 BB8A     		ldrh	r3, [r7, #20]	@ movhi
 12256 0062 23F40053 		bic	r3, r3, #8192
 12257 0066 5B04     		lsls	r3, r3, #17
 12258 0068 5B0C     		lsrs	r3, r3, #17
 12259 006a BB82     		strh	r3, [r7, #20]	@ movhi
3333:App/STM32F4-Discovery/Libraries/STM32F4xx_StdPeriph_Driver/src/stm32f4xx_tim.c ****   tmpccer |= (uint16_t)(tmp | (uint16_t)TIM_CCER_CC4E);
 12260              		.loc 1 3333 0
 12261 006c 7A8A     		ldrh	r2, [r7, #18]	@ movhi
 12262 006e BB8A     		ldrh	r3, [r7, #20]	@ movhi
 12263 0070 1343     		orrs	r3, r3, r2
 12264 0072 9BB2     		uxth	r3, r3
 12265 0074 43F48053 		orr	r3, r3, #4096
 12266 0078 BB82     		strh	r3, [r7, #20]	@ movhi
3334:App/STM32F4-Discovery/Libraries/STM32F4xx_StdPeriph_Driver/src/stm32f4xx_tim.c **** 
3335:App/STM32F4-Discovery/Libraries/STM32F4xx_StdPeriph_Driver/src/stm32f4xx_tim.c ****   /* Write to TIMx CCMR2 and CCER registers */
3336:App/STM32F4-Discovery/Libraries/STM32F4xx_StdPeriph_Driver/src/stm32f4xx_tim.c ****   TIMx->CCMR2 = tmpccmr2;
 12267              		.loc 1 3336 0
 12268 007a FB68     		ldr	r3, [r7, #12]
 12269 007c FA8A     		ldrh	r2, [r7, #22]	@ movhi
 12270 007e 9A83     		strh	r2, [r3, #28]	@ movhi
3337:App/STM32F4-Discovery/Libraries/STM32F4xx_StdPeriph_Driver/src/stm32f4xx_tim.c ****   TIMx->CCER = tmpccer ;
 12271              		.loc 1 3337 0
 12272 0080 FB68     		ldr	r3, [r7, #12]
 12273 0082 BA8A     		ldrh	r2, [r7, #20]	@ movhi
 12274 0084 1A84     		strh	r2, [r3, #32]	@ movhi
3338:App/STM32F4-Discovery/Libraries/STM32F4xx_StdPeriph_Driver/src/stm32f4xx_tim.c **** }
 12275              		.loc 1 3338 0
 12276 0086 1C37     		adds	r7, r7, #28
 12277 0088 BD46     		mov	sp, r7
 12278              		@ sp needed
 12279 008a 5DF8047B 		ldr	r7, [sp], #4
 12280 008e 7047     		bx	lr
 12281              		.cfi_endproc
 12282              	.LFE201:
 12284              		.text
 12285              	.Letext0:
 12286              		.file 2 "/home/shihyu/data/STM32F4/gcc-arm-none-eabi-4_8-2013q4/arm-none-eabi/include/stdint.h"
 12287              		.file 3 "App/STM32F4-Discovery/Libraries/CMSIS/ST/STM32F4xx/Include/stm32f4xx.h"
 12288              		.file 4 "App/STM32F4-Discovery/Libraries/STM32F4xx_StdPeriph_Driver/inc/stm32f4xx_tim.h"
 12289              		.file 5 "App/STM32F4-Discovery/Libraries/CMSIS/Include/core_cm4.h"
DEFINED SYMBOLS
                            *ABS*:00000000 stm32f4xx_tim.c
     /tmp/ccnchRhJ.s:20     .rodata:00000000 $d
     /tmp/ccnchRhJ.s:25     .text.TIM_DeInit:00000000 $t
     /tmp/ccnchRhJ.s:30     .text.TIM_DeInit:00000000 TIM_DeInit
     /tmp/ccnchRhJ.s:326    .text.TIM_DeInit:00000200 $d
     /tmp/ccnchRhJ.s:344    .text.TIM_TimeBaseInit:00000000 $t
     /tmp/ccnchRhJ.s:349    .text.TIM_TimeBaseInit:00000000 TIM_TimeBaseInit
     /tmp/ccnchRhJ.s:585    .text.TIM_TimeBaseInit:00000188 $d
     /tmp/ccnchRhJ.s:603    .text.TIM_TimeBaseStructInit:00000000 $t
     /tmp/ccnchRhJ.s:608    .text.TIM_TimeBaseStructInit:00000000 TIM_TimeBaseStructInit
     /tmp/ccnchRhJ.s:656    .text.TIM_PrescalerConfig:00000000 $t
     /tmp/ccnchRhJ.s:661    .text.TIM_PrescalerConfig:00000000 TIM_PrescalerConfig
     /tmp/ccnchRhJ.s:772    .text.TIM_PrescalerConfig:000000b4 $d
     /tmp/ccnchRhJ.s:790    .text.TIM_CounterModeConfig:00000000 $t
     /tmp/ccnchRhJ.s:795    .text.TIM_CounterModeConfig:00000000 TIM_CounterModeConfig
     /tmp/ccnchRhJ.s:893    .text.TIM_CounterModeConfig:00000094 $d
     /tmp/ccnchRhJ.s:903    .text.TIM_SetCounter:00000000 $t
     /tmp/ccnchRhJ.s:908    .text.TIM_SetCounter:00000000 TIM_SetCounter
     /tmp/ccnchRhJ.s:1000   .text.TIM_SetCounter:00000090 $d
     /tmp/ccnchRhJ.s:1018   .text.TIM_SetAutoreload:00000000 $t
     /tmp/ccnchRhJ.s:1023   .text.TIM_SetAutoreload:00000000 TIM_SetAutoreload
     /tmp/ccnchRhJ.s:1115   .text.TIM_SetAutoreload:00000090 $d
     /tmp/ccnchRhJ.s:1133   .text.TIM_GetCounter:00000000 $t
     /tmp/ccnchRhJ.s:1138   .text.TIM_GetCounter:00000000 TIM_GetCounter
     /tmp/ccnchRhJ.s:1229   .text.TIM_GetCounter:00000090 $d
     /tmp/ccnchRhJ.s:1247   .text.TIM_GetPrescaler:00000000 $t
     /tmp/ccnchRhJ.s:1252   .text.TIM_GetPrescaler:00000000 TIM_GetPrescaler
     /tmp/ccnchRhJ.s:1344   .text.TIM_GetPrescaler:00000090 $d
     /tmp/ccnchRhJ.s:1362   .text.TIM_UpdateDisableConfig:00000000 $t
     /tmp/ccnchRhJ.s:1367   .text.TIM_UpdateDisableConfig:00000000 TIM_UpdateDisableConfig
     /tmp/ccnchRhJ.s:1491   .text.TIM_UpdateDisableConfig:000000cc $d
     /tmp/ccnchRhJ.s:1509   .text.TIM_UpdateRequestConfig:00000000 $t
     /tmp/ccnchRhJ.s:1514   .text.TIM_UpdateRequestConfig:00000000 TIM_UpdateRequestConfig
     /tmp/ccnchRhJ.s:1638   .text.TIM_UpdateRequestConfig:000000cc $d
     /tmp/ccnchRhJ.s:1656   .text.TIM_ARRPreloadConfig:00000000 $t
     /tmp/ccnchRhJ.s:1661   .text.TIM_ARRPreloadConfig:00000000 TIM_ARRPreloadConfig
     /tmp/ccnchRhJ.s:1785   .text.TIM_ARRPreloadConfig:000000cc $d
     /tmp/ccnchRhJ.s:1803   .text.TIM_SelectOnePulseMode:00000000 $t
     /tmp/ccnchRhJ.s:1808   .text.TIM_SelectOnePulseMode:00000000 TIM_SelectOnePulseMode
     /tmp/ccnchRhJ.s:1926   .text.TIM_SelectOnePulseMode:000000c4 $d
     /tmp/ccnchRhJ.s:1944   .text.TIM_SetClockDivision:00000000 $t
     /tmp/ccnchRhJ.s:1949   .text.TIM_SetClockDivision:00000000 TIM_SetClockDivision
     /tmp/ccnchRhJ.s:2062   .text.TIM_SetClockDivision:000000bc $d
     /tmp/ccnchRhJ.s:2078   .text.TIM_Cmd:00000000 $t
     /tmp/ccnchRhJ.s:2083   .text.TIM_Cmd:00000000 TIM_Cmd
     /tmp/ccnchRhJ.s:2207   .text.TIM_Cmd:000000cc $d
     /tmp/ccnchRhJ.s:2225   .text.TIM_OC1Init:00000000 $t
     /tmp/ccnchRhJ.s:2230   .text.TIM_OC1Init:00000000 TIM_OC1Init
     /tmp/ccnchRhJ.s:2550   .text.TIM_OC1Init:0000022c $d
     /tmp/ccnchRhJ.s:2566   .text.TIM_OC2Init:00000000 $t
     /tmp/ccnchRhJ.s:2571   .text.TIM_OC2Init:00000000 TIM_OC2Init
     /tmp/ccnchRhJ.s:2889   .text.TIM_OC2Init:00000228 $d
     /tmp/ccnchRhJ.s:2901   .text.TIM_OC3Init:00000000 $t
     /tmp/ccnchRhJ.s:2906   .text.TIM_OC3Init:00000000 TIM_OC3Init
     /tmp/ccnchRhJ.s:3214   .text.TIM_OC3Init:00000214 $d
     /tmp/ccnchRhJ.s:3224   .text.TIM_OC4Init:00000000 $t
     /tmp/ccnchRhJ.s:3229   .text.TIM_OC4Init:00000000 TIM_OC4Init
     /tmp/ccnchRhJ.s:3461   .text.TIM_OC4Init:00000184 $d
     /tmp/ccnchRhJ.s:3471   .text.TIM_OCStructInit:00000000 $t
     /tmp/ccnchRhJ.s:3476   .text.TIM_OCStructInit:00000000 TIM_OCStructInit
     /tmp/ccnchRhJ.s:3536   .text.TIM_SelectOCxM:00000000 $t
     /tmp/ccnchRhJ.s:3541   .text.TIM_SelectOCxM:00000000 TIM_SelectOCxM
     /tmp/ccnchRhJ.s:3759   .text.TIM_SelectOCxM:00000170 $d
     /tmp/ccnchRhJ.s:3775   .text.TIM_SetCompare1:00000000 $t
     /tmp/ccnchRhJ.s:3780   .text.TIM_SetCompare1:00000000 TIM_SetCompare1
     /tmp/ccnchRhJ.s:3864   .text.TIM_SetCompare1:00000080 $d
     /tmp/ccnchRhJ.s:3880   .text.TIM_SetCompare2:00000000 $t
     /tmp/ccnchRhJ.s:3885   .text.TIM_SetCompare2:00000000 TIM_SetCompare2
     /tmp/ccnchRhJ.s:3953   .text.TIM_SetCompare2:00000060 $d
     /tmp/ccnchRhJ.s:3965   .text.TIM_SetCompare3:00000000 $t
     /tmp/ccnchRhJ.s:3970   .text.TIM_SetCompare3:00000000 TIM_SetCompare3
     /tmp/ccnchRhJ.s:4030   .text.TIM_SetCompare3:00000050 $d
     /tmp/ccnchRhJ.s:4040   .text.TIM_SetCompare4:00000000 $t
     /tmp/ccnchRhJ.s:4045   .text.TIM_SetCompare4:00000000 TIM_SetCompare4
     /tmp/ccnchRhJ.s:4105   .text.TIM_SetCompare4:00000050 $d
     /tmp/ccnchRhJ.s:4115   .text.TIM_ForcedOC1Config:00000000 $t
     /tmp/ccnchRhJ.s:4120   .text.TIM_ForcedOC1Config:00000000 TIM_ForcedOC1Config
     /tmp/ccnchRhJ.s:4233   .text.TIM_ForcedOC1Config:000000b4 $d
     /tmp/ccnchRhJ.s:4249   .text.TIM_ForcedOC2Config:00000000 $t
     /tmp/ccnchRhJ.s:4254   .text.TIM_ForcedOC2Config:00000000 TIM_ForcedOC2Config
     /tmp/ccnchRhJ.s:4353   .text.TIM_ForcedOC2Config:00000098 $d
     /tmp/ccnchRhJ.s:4365   .text.TIM_ForcedOC3Config:00000000 $t
     /tmp/ccnchRhJ.s:4370   .text.TIM_ForcedOC3Config:00000000 TIM_ForcedOC3Config
     /tmp/ccnchRhJ.s:4459   .text.TIM_ForcedOC3Config:00000084 $d
     /tmp/ccnchRhJ.s:4469   .text.TIM_ForcedOC4Config:00000000 $t
     /tmp/ccnchRhJ.s:4474   .text.TIM_ForcedOC4Config:00000000 TIM_ForcedOC4Config
     /tmp/ccnchRhJ.s:4565   .text.TIM_ForcedOC4Config:00000088 $d
     /tmp/ccnchRhJ.s:4575   .text.TIM_OC1PreloadConfig:00000000 $t
     /tmp/ccnchRhJ.s:4580   .text.TIM_OC1PreloadConfig:00000000 TIM_OC1PreloadConfig
     /tmp/ccnchRhJ.s:4693   .text.TIM_OC1PreloadConfig:000000b4 $d
     /tmp/ccnchRhJ.s:4709   .text.TIM_OC2PreloadConfig:00000000 $t
     /tmp/ccnchRhJ.s:4714   .text.TIM_OC2PreloadConfig:00000000 TIM_OC2PreloadConfig
     /tmp/ccnchRhJ.s:4813   .text.TIM_OC2PreloadConfig:00000098 $d
     /tmp/ccnchRhJ.s:4825   .text.TIM_OC3PreloadConfig:00000000 $t
     /tmp/ccnchRhJ.s:4830   .text.TIM_OC3PreloadConfig:00000000 TIM_OC3PreloadConfig
     /tmp/ccnchRhJ.s:4919   .text.TIM_OC3PreloadConfig:00000084 $d
     /tmp/ccnchRhJ.s:4929   .text.TIM_OC4PreloadConfig:00000000 $t
     /tmp/ccnchRhJ.s:4934   .text.TIM_OC4PreloadConfig:00000000 TIM_OC4PreloadConfig
     /tmp/ccnchRhJ.s:5025   .text.TIM_OC4PreloadConfig:00000088 $d
     /tmp/ccnchRhJ.s:5035   .text.TIM_OC1FastConfig:00000000 $t
     /tmp/ccnchRhJ.s:5040   .text.TIM_OC1FastConfig:00000000 TIM_OC1FastConfig
     /tmp/ccnchRhJ.s:5153   .text.TIM_OC1FastConfig:000000b4 $d
     /tmp/ccnchRhJ.s:5169   .text.TIM_OC2FastConfig:00000000 $t
     /tmp/ccnchRhJ.s:5174   .text.TIM_OC2FastConfig:00000000 TIM_OC2FastConfig
     /tmp/ccnchRhJ.s:5273   .text.TIM_OC2FastConfig:00000098 $d
     /tmp/ccnchRhJ.s:5285   .text.TIM_OC3FastConfig:00000000 $t
     /tmp/ccnchRhJ.s:5290   .text.TIM_OC3FastConfig:00000000 TIM_OC3FastConfig
     /tmp/ccnchRhJ.s:5379   .text.TIM_OC3FastConfig:00000084 $d
     /tmp/ccnchRhJ.s:5389   .text.TIM_OC4FastConfig:00000000 $t
     /tmp/ccnchRhJ.s:5394   .text.TIM_OC4FastConfig:00000000 TIM_OC4FastConfig
     /tmp/ccnchRhJ.s:5485   .text.TIM_OC4FastConfig:00000088 $d
     /tmp/ccnchRhJ.s:5495   .text.TIM_ClearOC1Ref:00000000 $t
     /tmp/ccnchRhJ.s:5500   .text.TIM_ClearOC1Ref:00000000 TIM_ClearOC1Ref
     /tmp/ccnchRhJ.s:5613   .text.TIM_ClearOC1Ref:000000b4 $d
     /tmp/ccnchRhJ.s:5629   .text.TIM_ClearOC2Ref:00000000 $t
     /tmp/ccnchRhJ.s:5634   .text.TIM_ClearOC2Ref:00000000 TIM_ClearOC2Ref
     /tmp/ccnchRhJ.s:5733   .text.TIM_ClearOC2Ref:00000098 $d
     /tmp/ccnchRhJ.s:5745   .text.TIM_ClearOC3Ref:00000000 $t
     /tmp/ccnchRhJ.s:5750   .text.TIM_ClearOC3Ref:00000000 TIM_ClearOC3Ref
     /tmp/ccnchRhJ.s:5839   .text.TIM_ClearOC3Ref:00000084 $d
     /tmp/ccnchRhJ.s:5849   .text.TIM_ClearOC4Ref:00000000 $t
     /tmp/ccnchRhJ.s:5854   .text.TIM_ClearOC4Ref:00000000 TIM_ClearOC4Ref
     /tmp/ccnchRhJ.s:5945   .text.TIM_ClearOC4Ref:00000088 $d
     /tmp/ccnchRhJ.s:5955   .text.TIM_OC1PolarityConfig:00000000 $t
     /tmp/ccnchRhJ.s:5960   .text.TIM_OC1PolarityConfig:00000000 TIM_OC1PolarityConfig
     /tmp/ccnchRhJ.s:6073   .text.TIM_OC1PolarityConfig:000000b4 $d
     /tmp/ccnchRhJ.s:6089   .text.TIM_OC1NPolarityConfig:00000000 $t
     /tmp/ccnchRhJ.s:6094   .text.TIM_OC1NPolarityConfig:00000000 TIM_OC1NPolarityConfig
     /tmp/ccnchRhJ.s:6168   .text.TIM_OC1NPolarityConfig:00000064 $d
     /tmp/ccnchRhJ.s:6175   .text.TIM_OC2PolarityConfig:00000000 $t
     /tmp/ccnchRhJ.s:6180   .text.TIM_OC2PolarityConfig:00000000 TIM_OC2PolarityConfig
     /tmp/ccnchRhJ.s:6279   .text.TIM_OC2PolarityConfig:00000098 $d
     /tmp/ccnchRhJ.s:6291   .text.TIM_OC2NPolarityConfig:00000000 $t
     /tmp/ccnchRhJ.s:6296   .text.TIM_OC2NPolarityConfig:00000000 TIM_OC2NPolarityConfig
     /tmp/ccnchRhJ.s:6372   .text.TIM_OC2NPolarityConfig:00000068 $d
     /tmp/ccnchRhJ.s:6379   .text.TIM_OC3PolarityConfig:00000000 $t
     /tmp/ccnchRhJ.s:6384   .text.TIM_OC3PolarityConfig:00000000 TIM_OC3PolarityConfig
     /tmp/ccnchRhJ.s:6475   .text.TIM_OC3PolarityConfig:00000088 $d
     /tmp/ccnchRhJ.s:6485   .text.TIM_OC3NPolarityConfig:00000000 $t
     /tmp/ccnchRhJ.s:6490   .text.TIM_OC3NPolarityConfig:00000000 TIM_OC3NPolarityConfig
     /tmp/ccnchRhJ.s:6566   .text.TIM_OC3NPolarityConfig:00000068 $d
     /tmp/ccnchRhJ.s:6573   .text.TIM_OC4PolarityConfig:00000000 $t
     /tmp/ccnchRhJ.s:6578   .text.TIM_OC4PolarityConfig:00000000 TIM_OC4PolarityConfig
     /tmp/ccnchRhJ.s:6669   .text.TIM_OC4PolarityConfig:00000088 $d
     /tmp/ccnchRhJ.s:6679   .text.TIM_CCxCmd:00000000 $t
     /tmp/ccnchRhJ.s:6684   .text.TIM_CCxCmd:00000000 TIM_CCxCmd
     /tmp/ccnchRhJ.s:6828   .text.TIM_CCxCmd:000000f4 $d
     /tmp/ccnchRhJ.s:6844   .text.TIM_CCxNCmd:00000000 $t
     /tmp/ccnchRhJ.s:6849   .text.TIM_CCxNCmd:00000000 TIM_CCxNCmd
     /tmp/ccnchRhJ.s:6951   .text.TIM_CCxNCmd:0000009c $d
     /tmp/ccnchRhJ.s:6958   .text.TIM_ICInit:00000000 $t
     /tmp/ccnchRhJ.s:6963   .text.TIM_ICInit:00000000 TIM_ICInit
     /tmp/ccnchRhJ.s:11901  .text.TI1_Config:00000000 TI1_Config
     /tmp/ccnchRhJ.s:7877   .text.TIM_SetIC1Prescaler:00000000 TIM_SetIC1Prescaler
     /tmp/ccnchRhJ.s:11990  .text.TI2_Config:00000000 TI2_Config
     /tmp/ccnchRhJ.s:8014   .text.TIM_SetIC2Prescaler:00000000 TIM_SetIC2Prescaler
     /tmp/ccnchRhJ.s:12091  .text.TI3_Config:00000000 TI3_Config
     /tmp/ccnchRhJ.s:8133   .text.TIM_SetIC3Prescaler:00000000 TIM_SetIC3Prescaler
     /tmp/ccnchRhJ.s:12186  .text.TI4_Config:00000000 TI4_Config
     /tmp/ccnchRhJ.s:8240   .text.TIM_SetIC4Prescaler:00000000 TIM_SetIC4Prescaler
     /tmp/ccnchRhJ.s:7288   .text.TIM_ICInit:00000250 $d
     /tmp/ccnchRhJ.s:7304   .text.TIM_ICStructInit:00000000 $t
     /tmp/ccnchRhJ.s:7309   .text.TIM_ICStructInit:00000000 TIM_ICStructInit
     /tmp/ccnchRhJ.s:7357   .text.TIM_PWMIConfig:00000000 $t
     /tmp/ccnchRhJ.s:7362   .text.TIM_PWMIConfig:00000000 TIM_PWMIConfig
     /tmp/ccnchRhJ.s:7524   .text.TIM_PWMIConfig:00000100 $d
     /tmp/ccnchRhJ.s:7536   .text.TIM_GetCapture1:00000000 $t
     /tmp/ccnchRhJ.s:7541   .text.TIM_GetCapture1:00000000 TIM_GetCapture1
     /tmp/ccnchRhJ.s:7624   .text.TIM_GetCapture1:00000080 $d
     /tmp/ccnchRhJ.s:7640   .text.TIM_GetCapture2:00000000 $t
     /tmp/ccnchRhJ.s:7645   .text.TIM_GetCapture2:00000000 TIM_GetCapture2
     /tmp/ccnchRhJ.s:7712   .text.TIM_GetCapture2:00000060 $d
     /tmp/ccnchRhJ.s:7724   .text.TIM_GetCapture3:00000000 $t
     /tmp/ccnchRhJ.s:7729   .text.TIM_GetCapture3:00000000 TIM_GetCapture3
     /tmp/ccnchRhJ.s:7788   .text.TIM_GetCapture3:00000050 $d
     /tmp/ccnchRhJ.s:7798   .text.TIM_GetCapture4:00000000 $t
     /tmp/ccnchRhJ.s:7803   .text.TIM_GetCapture4:00000000 TIM_GetCapture4
     /tmp/ccnchRhJ.s:7862   .text.TIM_GetCapture4:00000050 $d
     /tmp/ccnchRhJ.s:7872   .text.TIM_SetIC1Prescaler:00000000 $t
     /tmp/ccnchRhJ.s:7993   .text.TIM_SetIC1Prescaler:000000c0 $d
     /tmp/ccnchRhJ.s:8009   .text.TIM_SetIC2Prescaler:00000000 $t
     /tmp/ccnchRhJ.s:8116   .text.TIM_SetIC2Prescaler:000000a4 $d
     /tmp/ccnchRhJ.s:8128   .text.TIM_SetIC3Prescaler:00000000 $t
     /tmp/ccnchRhJ.s:8225   .text.TIM_SetIC3Prescaler:00000090 $d
     /tmp/ccnchRhJ.s:8235   .text.TIM_SetIC4Prescaler:00000000 $t
     /tmp/ccnchRhJ.s:8334   .text.TIM_SetIC4Prescaler:00000094 $d
     /tmp/ccnchRhJ.s:8344   .text.TIM_BDTRConfig:00000000 $t
     /tmp/ccnchRhJ.s:8349   .text.TIM_BDTRConfig:00000000 TIM_BDTRConfig
     /tmp/ccnchRhJ.s:8521   .text.TIM_BDTRConfig:00000120 $d
     /tmp/ccnchRhJ.s:8528   .text.TIM_BDTRStructInit:00000000 $t
     /tmp/ccnchRhJ.s:8533   .text.TIM_BDTRStructInit:00000000 TIM_BDTRStructInit
     /tmp/ccnchRhJ.s:8589   .text.TIM_CtrlPWMOutputs:00000000 $t
     /tmp/ccnchRhJ.s:8594   .text.TIM_CtrlPWMOutputs:00000000 TIM_CtrlPWMOutputs
     /tmp/ccnchRhJ.s:8672   .text.TIM_CtrlPWMOutputs:00000078 $d
     /tmp/ccnchRhJ.s:8679   .text.TIM_SelectCOM:00000000 $t
     /tmp/ccnchRhJ.s:8684   .text.TIM_SelectCOM:00000000 TIM_SelectCOM
     /tmp/ccnchRhJ.s:8761   .text.TIM_SelectCOM:0000006c $d
     /tmp/ccnchRhJ.s:8768   .text.TIM_CCPreloadControl:00000000 $t
     /tmp/ccnchRhJ.s:8773   .text.TIM_CCPreloadControl:00000000 TIM_CCPreloadControl
     /tmp/ccnchRhJ.s:8850   .text.TIM_CCPreloadControl:0000006c $d
     /tmp/ccnchRhJ.s:8857   .text.TIM_ITConfig:00000000 $t
     /tmp/ccnchRhJ.s:8862   .text.TIM_ITConfig:00000000 TIM_ITConfig
     /tmp/ccnchRhJ.s:9007   .text.TIM_ITConfig:000000ec $d
     /tmp/ccnchRhJ.s:9025   .text.TIM_GenerateEvent:00000000 $t
     /tmp/ccnchRhJ.s:9030   .text.TIM_GenerateEvent:00000000 TIM_GenerateEvent
     /tmp/ccnchRhJ.s:9138   .text.TIM_GenerateEvent:000000ac $d
     /tmp/ccnchRhJ.s:9156   .text.TIM_GetFlagStatus:00000000 $t
     /tmp/ccnchRhJ.s:9161   .text.TIM_GetFlagStatus:00000000 TIM_GetFlagStatus
     /tmp/ccnchRhJ.s:9316   .text.TIM_GetFlagStatus:00000108 $d
     /tmp/ccnchRhJ.s:9334   .text.TIM_ClearFlag:00000000 $t
     /tmp/ccnchRhJ.s:9339   .text.TIM_ClearFlag:00000000 TIM_ClearFlag
     /tmp/ccnchRhJ.s:9434   .text.TIM_ClearFlag:00000098 $d
     /tmp/ccnchRhJ.s:9452   .text.TIM_GetITStatus:00000000 $t
     /tmp/ccnchRhJ.s:9457   .text.TIM_GetITStatus:00000000 TIM_GetITStatus
     /tmp/ccnchRhJ.s:9618   .text.TIM_GetITStatus:00000104 $d
     /tmp/ccnchRhJ.s:9636   .text.TIM_ClearITPendingBit:00000000 $t
     /tmp/ccnchRhJ.s:9641   .text.TIM_ClearITPendingBit:00000000 TIM_ClearITPendingBit
     /tmp/ccnchRhJ.s:9736   .text.TIM_ClearITPendingBit:00000098 $d
     /tmp/ccnchRhJ.s:9754   .text.TIM_DMAConfig:00000000 $t
     /tmp/ccnchRhJ.s:9759   .text.TIM_DMAConfig:00000000 TIM_DMAConfig
     /tmp/ccnchRhJ.s:9951   .text.TIM_DMAConfig:00000178 $d
     /tmp/ccnchRhJ.s:9961   .text.TIM_DMACmd:00000000 $t
     /tmp/ccnchRhJ.s:9966   .text.TIM_DMACmd:00000000 TIM_DMACmd
     /tmp/ccnchRhJ.s:10088  .text.TIM_DMACmd:000000c0 $d
     /tmp/ccnchRhJ.s:10100  .text.TIM_SelectCCDMA:00000000 $t
     /tmp/ccnchRhJ.s:10105  .text.TIM_SelectCCDMA:00000000 TIM_SelectCCDMA
     /tmp/ccnchRhJ.s:10197  .text.TIM_SelectCCDMA:0000008c $d
     /tmp/ccnchRhJ.s:10207  .text.TIM_InternalClockConfig:00000000 $t
     /tmp/ccnchRhJ.s:10212  .text.TIM_InternalClockConfig:00000000 TIM_InternalClockConfig
     /tmp/ccnchRhJ.s:10283  .text.TIM_InternalClockConfig:00000068 $d
     /tmp/ccnchRhJ.s:10295  .text.TIM_ITRxExternalClockConfig:00000000 $t
     /tmp/ccnchRhJ.s:10300  .text.TIM_ITRxExternalClockConfig:00000000 TIM_ITRxExternalClockConfig
     /tmp/ccnchRhJ.s:10845  .text.TIM_SelectInputTrigger:00000000 TIM_SelectInputTrigger
     /tmp/ccnchRhJ.s:10396  .text.TIM_ITRxExternalClockConfig:00000098 $d
     /tmp/ccnchRhJ.s:10408  .text.TIM_TIxExternalClockConfig:00000000 $t
     /tmp/ccnchRhJ.s:10413  .text.TIM_TIxExternalClockConfig:00000000 TIM_TIxExternalClockConfig
     /tmp/ccnchRhJ.s:10553  .text.TIM_TIxExternalClockConfig:000000e8 $d
     /tmp/ccnchRhJ.s:10569  .text.TIM_ETRClockMode1Config:00000000 $t
     /tmp/ccnchRhJ.s:10574  .text.TIM_ETRClockMode1Config:00000000 TIM_ETRClockMode1Config
     /tmp/ccnchRhJ.s:11354  .text.TIM_ETRConfig:00000000 TIM_ETRConfig
     /tmp/ccnchRhJ.s:10704  .text.TIM_ETRClockMode1Config:000000dc $d
     /tmp/ccnchRhJ.s:10714  .text.TIM_ETRClockMode2Config:00000000 $t
     /tmp/ccnchRhJ.s:10719  .text.TIM_ETRClockMode2Config:00000000 TIM_ETRClockMode2Config
     /tmp/ccnchRhJ.s:10830  .text.TIM_ETRClockMode2Config:000000bc $d
     /tmp/ccnchRhJ.s:10840  .text.TIM_SelectInputTrigger:00000000 $t
     /tmp/ccnchRhJ.s:10976  .text.TIM_SelectInputTrigger:000000d8 $d
     /tmp/ccnchRhJ.s:10992  .text.TIM_SelectOutputTrigger:00000000 $t
     /tmp/ccnchRhJ.s:10997  .text.TIM_SelectOutputTrigger:00000000 TIM_SelectOutputTrigger
     /tmp/ccnchRhJ.s:11109  .text.TIM_SelectOutputTrigger:000000b8 $d
     /tmp/ccnchRhJ.s:11121  .text.TIM_SelectSlaveMode:00000000 $t
     /tmp/ccnchRhJ.s:11126  .text.TIM_SelectSlaveMode:00000000 TIM_SelectSlaveMode
     /tmp/ccnchRhJ.s:11226  .text.TIM_SelectSlaveMode:000000a0 $d
     /tmp/ccnchRhJ.s:11238  .text.TIM_SelectMasterSlaveMode:00000000 $t
     /tmp/ccnchRhJ.s:11243  .text.TIM_SelectMasterSlaveMode:00000000 TIM_SelectMasterSlaveMode
     /tmp/ccnchRhJ.s:11337  .text.TIM_SelectMasterSlaveMode:00000094 $d
     /tmp/ccnchRhJ.s:11349  .text.TIM_ETRConfig:00000000 $t
     /tmp/ccnchRhJ.s:11479  .text.TIM_ETRConfig:000000cc $d
     /tmp/ccnchRhJ.s:11489  .text.TIM_EncoderInterfaceConfig:00000000 $t
     /tmp/ccnchRhJ.s:11494  .text.TIM_EncoderInterfaceConfig:00000000 TIM_EncoderInterfaceConfig
     /tmp/ccnchRhJ.s:11671  .text.TIM_EncoderInterfaceConfig:00000124 $d
     /tmp/ccnchRhJ.s:11683  .text.TIM_SelectHallSensor:00000000 $t
     /tmp/ccnchRhJ.s:11688  .text.TIM_SelectHallSensor:00000000 TIM_SelectHallSensor
     /tmp/ccnchRhJ.s:11788  .text.TIM_SelectHallSensor:0000009c $d
     /tmp/ccnchRhJ.s:11800  .text.TIM_RemapConfig:00000000 $t
     /tmp/ccnchRhJ.s:11805  .text.TIM_RemapConfig:00000000 TIM_RemapConfig
     /tmp/ccnchRhJ.s:11890  .text.TIM_RemapConfig:00000088 $d
     /tmp/ccnchRhJ.s:11897  .text.TI1_Config:00000000 $t
     /tmp/ccnchRhJ.s:11986  .text.TI2_Config:00000000 $t
     /tmp/ccnchRhJ.s:12087  .text.TI3_Config:00000000 $t
     /tmp/ccnchRhJ.s:12182  .text.TI4_Config:00000000 $t
                     .debug_frame:00000010 $d

UNDEFINED SYMBOLS
assert_failed
RCC_APB2PeriphResetCmd
RCC_APB1PeriphResetCmd
