   1              		.syntax unified
   2              		.cpu cortex-m4
   3              		.eabi_attribute 27, 3
   4              		.fpu fpv4-sp-d16
   5              		.eabi_attribute 20, 1
   6              		.eabi_attribute 21, 1
   7              		.eabi_attribute 23, 3
   8              		.eabi_attribute 24, 1
   9              		.eabi_attribute 25, 1
  10              		.eabi_attribute 26, 1
  11              		.eabi_attribute 30, 6
  12              		.eabi_attribute 34, 1
  13              		.eabi_attribute 18, 4
  14              		.thumb
  15              		.file	"stm32f4xx_gpio.c"
  16              		.text
  17              	.Ltext0:
  18              		.cfi_sections	.debug_frame
  19              		.section	.rodata
  20              		.align	2
  21              	.LC0:
  22 0000 4170702F 		.ascii	"App/STM32F4-Discovery/Libraries/STM32F4xx_StdPeriph"
  22      53544D33 
  22      3246342D 
  22      44697363 
  22      6F766572 
  23 0033 5F447269 		.ascii	"_Driver/src/stm32f4xx_gpio.c\000"
  23      7665722F 
  23      7372632F 
  23      73746D33 
  23      32663478 
  24              		.section	.text.GPIO_DeInit,"ax",%progbits
  25              		.align	2
  26              		.global	GPIO_DeInit
  27              		.thumb
  28              		.thumb_func
  30              	GPIO_DeInit:
  31              	.LFB110:
  32              		.file 1 "App/STM32F4-Discovery/Libraries/STM32F4xx_StdPeriph_Driver/src/stm32f4xx_gpio.c"
   1:App/STM32F4-Discovery/Libraries/STM32F4xx_StdPeriph_Driver/src/stm32f4xx_gpio.c **** /**
   2:App/STM32F4-Discovery/Libraries/STM32F4xx_StdPeriph_Driver/src/stm32f4xx_gpio.c ****   ******************************************************************************
   3:App/STM32F4-Discovery/Libraries/STM32F4xx_StdPeriph_Driver/src/stm32f4xx_gpio.c ****   * @file    stm32f4xx_gpio.c
   4:App/STM32F4-Discovery/Libraries/STM32F4xx_StdPeriph_Driver/src/stm32f4xx_gpio.c ****   * @author  MCD Application Team
   5:App/STM32F4-Discovery/Libraries/STM32F4xx_StdPeriph_Driver/src/stm32f4xx_gpio.c ****   * @version V1.0.0
   6:App/STM32F4-Discovery/Libraries/STM32F4xx_StdPeriph_Driver/src/stm32f4xx_gpio.c ****   * @date    30-September-2011
   7:App/STM32F4-Discovery/Libraries/STM32F4xx_StdPeriph_Driver/src/stm32f4xx_gpio.c ****   * @brief   This file provides firmware functions to manage the following 
   8:App/STM32F4-Discovery/Libraries/STM32F4xx_StdPeriph_Driver/src/stm32f4xx_gpio.c ****   *          functionalities of the GPIO peripheral:           
   9:App/STM32F4-Discovery/Libraries/STM32F4xx_StdPeriph_Driver/src/stm32f4xx_gpio.c ****   *           - Initialization and Configuration
  10:App/STM32F4-Discovery/Libraries/STM32F4xx_StdPeriph_Driver/src/stm32f4xx_gpio.c ****   *           - GPIO Read and Write
  11:App/STM32F4-Discovery/Libraries/STM32F4xx_StdPeriph_Driver/src/stm32f4xx_gpio.c ****   *           - GPIO Alternate functions configuration
  12:App/STM32F4-Discovery/Libraries/STM32F4xx_StdPeriph_Driver/src/stm32f4xx_gpio.c ****   * 
  13:App/STM32F4-Discovery/Libraries/STM32F4xx_StdPeriph_Driver/src/stm32f4xx_gpio.c ****   *  @verbatim
  14:App/STM32F4-Discovery/Libraries/STM32F4xx_StdPeriph_Driver/src/stm32f4xx_gpio.c ****   *
  15:App/STM32F4-Discovery/Libraries/STM32F4xx_StdPeriph_Driver/src/stm32f4xx_gpio.c ****   *          ===================================================================
  16:App/STM32F4-Discovery/Libraries/STM32F4xx_StdPeriph_Driver/src/stm32f4xx_gpio.c ****   *                                 How to use this driver
  17:App/STM32F4-Discovery/Libraries/STM32F4xx_StdPeriph_Driver/src/stm32f4xx_gpio.c ****   *          ===================================================================       
  18:App/STM32F4-Discovery/Libraries/STM32F4xx_StdPeriph_Driver/src/stm32f4xx_gpio.c ****   *           1. Enable the GPIO AHB clock using the following function
  19:App/STM32F4-Discovery/Libraries/STM32F4xx_StdPeriph_Driver/src/stm32f4xx_gpio.c ****   *                RCC_AHB1PeriphClockCmd(RCC_AHB1Periph_GPIOx, ENABLE);
  20:App/STM32F4-Discovery/Libraries/STM32F4xx_StdPeriph_Driver/src/stm32f4xx_gpio.c ****   *             
  21:App/STM32F4-Discovery/Libraries/STM32F4xx_StdPeriph_Driver/src/stm32f4xx_gpio.c ****   *           2. Configure the GPIO pin(s) using GPIO_Init()
  22:App/STM32F4-Discovery/Libraries/STM32F4xx_StdPeriph_Driver/src/stm32f4xx_gpio.c ****   *              Four possible configuration are available for each pin:
  23:App/STM32F4-Discovery/Libraries/STM32F4xx_StdPeriph_Driver/src/stm32f4xx_gpio.c ****   *                - Input: Floating, Pull-up, Pull-down.
  24:App/STM32F4-Discovery/Libraries/STM32F4xx_StdPeriph_Driver/src/stm32f4xx_gpio.c ****   *                - Output: Push-Pull (Pull-up, Pull-down or no Pull)
  25:App/STM32F4-Discovery/Libraries/STM32F4xx_StdPeriph_Driver/src/stm32f4xx_gpio.c ****   *                          Open Drain (Pull-up, Pull-down or no Pull).
  26:App/STM32F4-Discovery/Libraries/STM32F4xx_StdPeriph_Driver/src/stm32f4xx_gpio.c ****   *                  In output mode, the speed is configurable: 2 MHz, 25 MHz,
  27:App/STM32F4-Discovery/Libraries/STM32F4xx_StdPeriph_Driver/src/stm32f4xx_gpio.c ****   *                  50 MHz or 100 MHz.
  28:App/STM32F4-Discovery/Libraries/STM32F4xx_StdPeriph_Driver/src/stm32f4xx_gpio.c ****   *                - Alternate Function: Push-Pull (Pull-up, Pull-down or no Pull)
  29:App/STM32F4-Discovery/Libraries/STM32F4xx_StdPeriph_Driver/src/stm32f4xx_gpio.c ****   *                                      Open Drain (Pull-up, Pull-down or no Pull).
  30:App/STM32F4-Discovery/Libraries/STM32F4xx_StdPeriph_Driver/src/stm32f4xx_gpio.c ****   *                - Analog: required mode when a pin is to be used as ADC channel
  31:App/STM32F4-Discovery/Libraries/STM32F4xx_StdPeriph_Driver/src/stm32f4xx_gpio.c ****   *                          or DAC output.
  32:App/STM32F4-Discovery/Libraries/STM32F4xx_StdPeriph_Driver/src/stm32f4xx_gpio.c ****   * 
  33:App/STM32F4-Discovery/Libraries/STM32F4xx_StdPeriph_Driver/src/stm32f4xx_gpio.c ****   *          3- Peripherals alternate function:
  34:App/STM32F4-Discovery/Libraries/STM32F4xx_StdPeriph_Driver/src/stm32f4xx_gpio.c ****   *              - For ADC and DAC, configure the desired pin in analog mode using 
  35:App/STM32F4-Discovery/Libraries/STM32F4xx_StdPeriph_Driver/src/stm32f4xx_gpio.c ****   *                  GPIO_InitStruct->GPIO_Mode = GPIO_Mode_AN;
  36:App/STM32F4-Discovery/Libraries/STM32F4xx_StdPeriph_Driver/src/stm32f4xx_gpio.c ****   *              - For other peripherals (TIM, USART...):
  37:App/STM32F4-Discovery/Libraries/STM32F4xx_StdPeriph_Driver/src/stm32f4xx_gpio.c ****   *                 - Connect the pin to the desired peripherals' Alternate 
  38:App/STM32F4-Discovery/Libraries/STM32F4xx_StdPeriph_Driver/src/stm32f4xx_gpio.c ****   *                   Function (AF) using GPIO_PinAFConfig() function
  39:App/STM32F4-Discovery/Libraries/STM32F4xx_StdPeriph_Driver/src/stm32f4xx_gpio.c ****   *                 - Configure the desired pin in alternate function mode using
  40:App/STM32F4-Discovery/Libraries/STM32F4xx_StdPeriph_Driver/src/stm32f4xx_gpio.c ****   *                   GPIO_InitStruct->GPIO_Mode = GPIO_Mode_AF
  41:App/STM32F4-Discovery/Libraries/STM32F4xx_StdPeriph_Driver/src/stm32f4xx_gpio.c ****   *                 - Select the type, pull-up/pull-down and output speed via 
  42:App/STM32F4-Discovery/Libraries/STM32F4xx_StdPeriph_Driver/src/stm32f4xx_gpio.c ****   *                   GPIO_PuPd, GPIO_OType and GPIO_Speed members
  43:App/STM32F4-Discovery/Libraries/STM32F4xx_StdPeriph_Driver/src/stm32f4xx_gpio.c ****   *                 - Call GPIO_Init() function
  44:App/STM32F4-Discovery/Libraries/STM32F4xx_StdPeriph_Driver/src/stm32f4xx_gpio.c ****   *        
  45:App/STM32F4-Discovery/Libraries/STM32F4xx_StdPeriph_Driver/src/stm32f4xx_gpio.c ****   *          4. To get the level of a pin configured in input mode use GPIO_ReadInputDataBit()
  46:App/STM32F4-Discovery/Libraries/STM32F4xx_StdPeriph_Driver/src/stm32f4xx_gpio.c ****   *          
  47:App/STM32F4-Discovery/Libraries/STM32F4xx_StdPeriph_Driver/src/stm32f4xx_gpio.c ****   *          5. To set/reset the level of a pin configured in output mode use
  48:App/STM32F4-Discovery/Libraries/STM32F4xx_StdPeriph_Driver/src/stm32f4xx_gpio.c ****   *             GPIO_SetBits()/GPIO_ResetBits()
  49:App/STM32F4-Discovery/Libraries/STM32F4xx_StdPeriph_Driver/src/stm32f4xx_gpio.c ****   *               
  50:App/STM32F4-Discovery/Libraries/STM32F4xx_StdPeriph_Driver/src/stm32f4xx_gpio.c ****   *          6. During and just after reset, the alternate functions are not 
  51:App/STM32F4-Discovery/Libraries/STM32F4xx_StdPeriph_Driver/src/stm32f4xx_gpio.c ****   *             active and the GPIO pins are configured in input floating mode
  52:App/STM32F4-Discovery/Libraries/STM32F4xx_StdPeriph_Driver/src/stm32f4xx_gpio.c ****   *             (except JTAG pins).
  53:App/STM32F4-Discovery/Libraries/STM32F4xx_StdPeriph_Driver/src/stm32f4xx_gpio.c ****   *
  54:App/STM32F4-Discovery/Libraries/STM32F4xx_StdPeriph_Driver/src/stm32f4xx_gpio.c ****   *          7. The LSE oscillator pins OSC32_IN and OSC32_OUT can be used as 
  55:App/STM32F4-Discovery/Libraries/STM32F4xx_StdPeriph_Driver/src/stm32f4xx_gpio.c ****   *             general-purpose (PC14 and PC15, respectively) when the LSE
  56:App/STM32F4-Discovery/Libraries/STM32F4xx_StdPeriph_Driver/src/stm32f4xx_gpio.c ****   *             oscillator is off. The LSE has priority over the GPIO function.
  57:App/STM32F4-Discovery/Libraries/STM32F4xx_StdPeriph_Driver/src/stm32f4xx_gpio.c ****   *
  58:App/STM32F4-Discovery/Libraries/STM32F4xx_StdPeriph_Driver/src/stm32f4xx_gpio.c ****   *          8. The HSE oscillator pins OSC_IN/OSC_OUT can be used as 
  59:App/STM32F4-Discovery/Libraries/STM32F4xx_StdPeriph_Driver/src/stm32f4xx_gpio.c ****   *             general-purpose PH0 and PH1, respectively, when the HSE 
  60:App/STM32F4-Discovery/Libraries/STM32F4xx_StdPeriph_Driver/src/stm32f4xx_gpio.c ****   *             oscillator is off. The HSE has priority over the GPIO function.
  61:App/STM32F4-Discovery/Libraries/STM32F4xx_StdPeriph_Driver/src/stm32f4xx_gpio.c ****   *             
  62:App/STM32F4-Discovery/Libraries/STM32F4xx_StdPeriph_Driver/src/stm32f4xx_gpio.c ****   *  @endverbatim        
  63:App/STM32F4-Discovery/Libraries/STM32F4xx_StdPeriph_Driver/src/stm32f4xx_gpio.c ****   *
  64:App/STM32F4-Discovery/Libraries/STM32F4xx_StdPeriph_Driver/src/stm32f4xx_gpio.c ****   ******************************************************************************
  65:App/STM32F4-Discovery/Libraries/STM32F4xx_StdPeriph_Driver/src/stm32f4xx_gpio.c ****   * @attention
  66:App/STM32F4-Discovery/Libraries/STM32F4xx_StdPeriph_Driver/src/stm32f4xx_gpio.c ****   *
  67:App/STM32F4-Discovery/Libraries/STM32F4xx_StdPeriph_Driver/src/stm32f4xx_gpio.c ****   * THE PRESENT FIRMWARE WHICH IS FOR GUIDANCE ONLY AIMS AT PROVIDING CUSTOMERS
  68:App/STM32F4-Discovery/Libraries/STM32F4xx_StdPeriph_Driver/src/stm32f4xx_gpio.c ****   * WITH CODING INFORMATION REGARDING THEIR PRODUCTS IN ORDER FOR THEM TO SAVE
  69:App/STM32F4-Discovery/Libraries/STM32F4xx_StdPeriph_Driver/src/stm32f4xx_gpio.c ****   * TIME. AS A RESULT, STMICROELECTRONICS SHALL NOT BE HELD LIABLE FOR ANY
  70:App/STM32F4-Discovery/Libraries/STM32F4xx_StdPeriph_Driver/src/stm32f4xx_gpio.c ****   * DIRECT, INDIRECT OR CONSEQUENTIAL DAMAGES WITH RESPECT TO ANY CLAIMS ARISING
  71:App/STM32F4-Discovery/Libraries/STM32F4xx_StdPeriph_Driver/src/stm32f4xx_gpio.c ****   * FROM THE CONTENT OF SUCH FIRMWARE AND/OR THE USE MADE BY CUSTOMERS OF THE
  72:App/STM32F4-Discovery/Libraries/STM32F4xx_StdPeriph_Driver/src/stm32f4xx_gpio.c ****   * CODING INFORMATION CONTAINED HEREIN IN CONNECTION WITH THEIR PRODUCTS.
  73:App/STM32F4-Discovery/Libraries/STM32F4xx_StdPeriph_Driver/src/stm32f4xx_gpio.c ****   *
  74:App/STM32F4-Discovery/Libraries/STM32F4xx_StdPeriph_Driver/src/stm32f4xx_gpio.c ****   * <h2><center>&copy; COPYRIGHT 2011 STMicroelectronics</center></h2>
  75:App/STM32F4-Discovery/Libraries/STM32F4xx_StdPeriph_Driver/src/stm32f4xx_gpio.c ****   ******************************************************************************
  76:App/STM32F4-Discovery/Libraries/STM32F4xx_StdPeriph_Driver/src/stm32f4xx_gpio.c ****   */
  77:App/STM32F4-Discovery/Libraries/STM32F4xx_StdPeriph_Driver/src/stm32f4xx_gpio.c **** 
  78:App/STM32F4-Discovery/Libraries/STM32F4xx_StdPeriph_Driver/src/stm32f4xx_gpio.c **** /* Includes ------------------------------------------------------------------*/
  79:App/STM32F4-Discovery/Libraries/STM32F4xx_StdPeriph_Driver/src/stm32f4xx_gpio.c **** #include "stm32f4xx_gpio.h"
  80:App/STM32F4-Discovery/Libraries/STM32F4xx_StdPeriph_Driver/src/stm32f4xx_gpio.c **** #include "stm32f4xx_rcc.h"
  81:App/STM32F4-Discovery/Libraries/STM32F4xx_StdPeriph_Driver/src/stm32f4xx_gpio.c **** 
  82:App/STM32F4-Discovery/Libraries/STM32F4xx_StdPeriph_Driver/src/stm32f4xx_gpio.c **** /** @addtogroup STM32F4xx_StdPeriph_Driver
  83:App/STM32F4-Discovery/Libraries/STM32F4xx_StdPeriph_Driver/src/stm32f4xx_gpio.c ****   * @{
  84:App/STM32F4-Discovery/Libraries/STM32F4xx_StdPeriph_Driver/src/stm32f4xx_gpio.c ****   */
  85:App/STM32F4-Discovery/Libraries/STM32F4xx_StdPeriph_Driver/src/stm32f4xx_gpio.c **** 
  86:App/STM32F4-Discovery/Libraries/STM32F4xx_StdPeriph_Driver/src/stm32f4xx_gpio.c **** /** @defgroup GPIO 
  87:App/STM32F4-Discovery/Libraries/STM32F4xx_StdPeriph_Driver/src/stm32f4xx_gpio.c ****   * @brief GPIO driver modules
  88:App/STM32F4-Discovery/Libraries/STM32F4xx_StdPeriph_Driver/src/stm32f4xx_gpio.c ****   * @{
  89:App/STM32F4-Discovery/Libraries/STM32F4xx_StdPeriph_Driver/src/stm32f4xx_gpio.c ****   */ 
  90:App/STM32F4-Discovery/Libraries/STM32F4xx_StdPeriph_Driver/src/stm32f4xx_gpio.c **** 
  91:App/STM32F4-Discovery/Libraries/STM32F4xx_StdPeriph_Driver/src/stm32f4xx_gpio.c **** /* Private typedef -----------------------------------------------------------*/
  92:App/STM32F4-Discovery/Libraries/STM32F4xx_StdPeriph_Driver/src/stm32f4xx_gpio.c **** /* Private define ------------------------------------------------------------*/
  93:App/STM32F4-Discovery/Libraries/STM32F4xx_StdPeriph_Driver/src/stm32f4xx_gpio.c **** /* Private macro -------------------------------------------------------------*/
  94:App/STM32F4-Discovery/Libraries/STM32F4xx_StdPeriph_Driver/src/stm32f4xx_gpio.c **** /* Private variables ---------------------------------------------------------*/
  95:App/STM32F4-Discovery/Libraries/STM32F4xx_StdPeriph_Driver/src/stm32f4xx_gpio.c **** /* Private function prototypes -----------------------------------------------*/
  96:App/STM32F4-Discovery/Libraries/STM32F4xx_StdPeriph_Driver/src/stm32f4xx_gpio.c **** /* Private functions ---------------------------------------------------------*/
  97:App/STM32F4-Discovery/Libraries/STM32F4xx_StdPeriph_Driver/src/stm32f4xx_gpio.c **** 
  98:App/STM32F4-Discovery/Libraries/STM32F4xx_StdPeriph_Driver/src/stm32f4xx_gpio.c **** /** @defgroup GPIO_Private_Functions
  99:App/STM32F4-Discovery/Libraries/STM32F4xx_StdPeriph_Driver/src/stm32f4xx_gpio.c ****   * @{
 100:App/STM32F4-Discovery/Libraries/STM32F4xx_StdPeriph_Driver/src/stm32f4xx_gpio.c ****   */ 
 101:App/STM32F4-Discovery/Libraries/STM32F4xx_StdPeriph_Driver/src/stm32f4xx_gpio.c **** 
 102:App/STM32F4-Discovery/Libraries/STM32F4xx_StdPeriph_Driver/src/stm32f4xx_gpio.c **** /** @defgroup GPIO_Group1 Initialization and Configuration
 103:App/STM32F4-Discovery/Libraries/STM32F4xx_StdPeriph_Driver/src/stm32f4xx_gpio.c ****  *  @brief   Initialization and Configuration
 104:App/STM32F4-Discovery/Libraries/STM32F4xx_StdPeriph_Driver/src/stm32f4xx_gpio.c ****  *
 105:App/STM32F4-Discovery/Libraries/STM32F4xx_StdPeriph_Driver/src/stm32f4xx_gpio.c **** @verbatim   
 106:App/STM32F4-Discovery/Libraries/STM32F4xx_StdPeriph_Driver/src/stm32f4xx_gpio.c ****  ===============================================================================
 107:App/STM32F4-Discovery/Libraries/STM32F4xx_StdPeriph_Driver/src/stm32f4xx_gpio.c ****                         Initialization and Configuration
 108:App/STM32F4-Discovery/Libraries/STM32F4xx_StdPeriph_Driver/src/stm32f4xx_gpio.c ****  ===============================================================================  
 109:App/STM32F4-Discovery/Libraries/STM32F4xx_StdPeriph_Driver/src/stm32f4xx_gpio.c **** 
 110:App/STM32F4-Discovery/Libraries/STM32F4xx_StdPeriph_Driver/src/stm32f4xx_gpio.c **** @endverbatim
 111:App/STM32F4-Discovery/Libraries/STM32F4xx_StdPeriph_Driver/src/stm32f4xx_gpio.c ****   * @{
 112:App/STM32F4-Discovery/Libraries/STM32F4xx_StdPeriph_Driver/src/stm32f4xx_gpio.c ****   */
 113:App/STM32F4-Discovery/Libraries/STM32F4xx_StdPeriph_Driver/src/stm32f4xx_gpio.c **** 
 114:App/STM32F4-Discovery/Libraries/STM32F4xx_StdPeriph_Driver/src/stm32f4xx_gpio.c **** /**
 115:App/STM32F4-Discovery/Libraries/STM32F4xx_StdPeriph_Driver/src/stm32f4xx_gpio.c ****   * @brief  Deinitializes the GPIOx peripheral registers to their default reset values.
 116:App/STM32F4-Discovery/Libraries/STM32F4xx_StdPeriph_Driver/src/stm32f4xx_gpio.c ****   * @note   By default, The GPIO pins are configured in input floating mode (except JTAG pins).
 117:App/STM32F4-Discovery/Libraries/STM32F4xx_StdPeriph_Driver/src/stm32f4xx_gpio.c ****   * @param  GPIOx: where x can be (A..I) to select the GPIO peripheral.
 118:App/STM32F4-Discovery/Libraries/STM32F4xx_StdPeriph_Driver/src/stm32f4xx_gpio.c ****   * @retval None
 119:App/STM32F4-Discovery/Libraries/STM32F4xx_StdPeriph_Driver/src/stm32f4xx_gpio.c ****   */
 120:App/STM32F4-Discovery/Libraries/STM32F4xx_StdPeriph_Driver/src/stm32f4xx_gpio.c **** void GPIO_DeInit(GPIO_TypeDef* GPIOx)
 121:App/STM32F4-Discovery/Libraries/STM32F4xx_StdPeriph_Driver/src/stm32f4xx_gpio.c **** {
  33              		.loc 1 121 0
  34              		.cfi_startproc
  35              		@ args = 0, pretend = 0, frame = 8
  36              		@ frame_needed = 1, uses_anonymous_args = 0
  37 0000 80B5     		push	{r7, lr}
  38              	.LCFI0:
  39              		.cfi_def_cfa_offset 8
  40              		.cfi_offset 7, -8
  41              		.cfi_offset 14, -4
  42 0002 82B0     		sub	sp, sp, #8
  43              	.LCFI1:
  44              		.cfi_def_cfa_offset 16
  45 0004 00AF     		add	r7, sp, #0
  46              	.LCFI2:
  47              		.cfi_def_cfa_register 7
  48 0006 7860     		str	r0, [r7, #4]
 122:App/STM32F4-Discovery/Libraries/STM32F4xx_StdPeriph_Driver/src/stm32f4xx_gpio.c ****   /* Check the parameters */
 123:App/STM32F4-Discovery/Libraries/STM32F4xx_StdPeriph_Driver/src/stm32f4xx_gpio.c ****   assert_param(IS_GPIO_ALL_PERIPH(GPIOx));
  49              		.loc 1 123 0
  50 0008 7A68     		ldr	r2, [r7, #4]
  51 000a 504B     		ldr	r3, .L12
  52 000c 9A42     		cmp	r2, r3
  53 000e 23D0     		beq	.L2
  54              		.loc 1 123 0 is_stmt 0 discriminator 1
  55 0010 7A68     		ldr	r2, [r7, #4]
  56 0012 4F4B     		ldr	r3, .L12+4
  57 0014 9A42     		cmp	r2, r3
  58 0016 1FD0     		beq	.L2
  59 0018 7A68     		ldr	r2, [r7, #4]
  60 001a 4E4B     		ldr	r3, .L12+8
  61 001c 9A42     		cmp	r2, r3
  62 001e 1BD0     		beq	.L2
  63 0020 7A68     		ldr	r2, [r7, #4]
  64 0022 4D4B     		ldr	r3, .L12+12
  65 0024 9A42     		cmp	r2, r3
  66 0026 17D0     		beq	.L2
  67 0028 7A68     		ldr	r2, [r7, #4]
  68 002a 4C4B     		ldr	r3, .L12+16
  69 002c 9A42     		cmp	r2, r3
  70 002e 13D0     		beq	.L2
  71 0030 7A68     		ldr	r2, [r7, #4]
  72 0032 4B4B     		ldr	r3, .L12+20
  73 0034 9A42     		cmp	r2, r3
  74 0036 0FD0     		beq	.L2
  75 0038 7A68     		ldr	r2, [r7, #4]
  76 003a 4A4B     		ldr	r3, .L12+24
  77 003c 9A42     		cmp	r2, r3
  78 003e 0BD0     		beq	.L2
  79 0040 7A68     		ldr	r2, [r7, #4]
  80 0042 494B     		ldr	r3, .L12+28
  81 0044 9A42     		cmp	r2, r3
  82 0046 07D0     		beq	.L2
  83 0048 7A68     		ldr	r2, [r7, #4]
  84 004a 484B     		ldr	r3, .L12+32
  85 004c 9A42     		cmp	r2, r3
  86 004e 03D0     		beq	.L2
  87 0050 4748     		ldr	r0, .L12+36
  88 0052 7B21     		movs	r1, #123
  89 0054 FFF7FEFF 		bl	assert_failed
  90              	.L2:
 124:App/STM32F4-Discovery/Libraries/STM32F4xx_StdPeriph_Driver/src/stm32f4xx_gpio.c **** 
 125:App/STM32F4-Discovery/Libraries/STM32F4xx_StdPeriph_Driver/src/stm32f4xx_gpio.c ****   if (GPIOx == GPIOA)
  91              		.loc 1 125 0 is_stmt 1
  92 0058 7A68     		ldr	r2, [r7, #4]
  93 005a 3C4B     		ldr	r3, .L12
  94 005c 9A42     		cmp	r2, r3
  95 005e 08D1     		bne	.L3
 126:App/STM32F4-Discovery/Libraries/STM32F4xx_StdPeriph_Driver/src/stm32f4xx_gpio.c ****   {
 127:App/STM32F4-Discovery/Libraries/STM32F4xx_StdPeriph_Driver/src/stm32f4xx_gpio.c ****     RCC_AHB1PeriphResetCmd(RCC_AHB1Periph_GPIOA, ENABLE);
  96              		.loc 1 127 0
  97 0060 0120     		movs	r0, #1
  98 0062 0121     		movs	r1, #1
  99 0064 FFF7FEFF 		bl	RCC_AHB1PeriphResetCmd
 128:App/STM32F4-Discovery/Libraries/STM32F4xx_StdPeriph_Driver/src/stm32f4xx_gpio.c ****     RCC_AHB1PeriphResetCmd(RCC_AHB1Periph_GPIOA, DISABLE);
 100              		.loc 1 128 0
 101 0068 0120     		movs	r0, #1
 102 006a 0021     		movs	r1, #0
 103 006c FFF7FEFF 		bl	RCC_AHB1PeriphResetCmd
 104 0070 68E0     		b	.L1
 105              	.L3:
 129:App/STM32F4-Discovery/Libraries/STM32F4xx_StdPeriph_Driver/src/stm32f4xx_gpio.c ****   }
 130:App/STM32F4-Discovery/Libraries/STM32F4xx_StdPeriph_Driver/src/stm32f4xx_gpio.c ****   else if (GPIOx == GPIOB)
 106              		.loc 1 130 0
 107 0072 7A68     		ldr	r2, [r7, #4]
 108 0074 364B     		ldr	r3, .L12+4
 109 0076 9A42     		cmp	r2, r3
 110 0078 08D1     		bne	.L5
 131:App/STM32F4-Discovery/Libraries/STM32F4xx_StdPeriph_Driver/src/stm32f4xx_gpio.c ****   {
 132:App/STM32F4-Discovery/Libraries/STM32F4xx_StdPeriph_Driver/src/stm32f4xx_gpio.c ****     RCC_AHB1PeriphResetCmd(RCC_AHB1Periph_GPIOB, ENABLE);
 111              		.loc 1 132 0
 112 007a 0220     		movs	r0, #2
 113 007c 0121     		movs	r1, #1
 114 007e FFF7FEFF 		bl	RCC_AHB1PeriphResetCmd
 133:App/STM32F4-Discovery/Libraries/STM32F4xx_StdPeriph_Driver/src/stm32f4xx_gpio.c ****     RCC_AHB1PeriphResetCmd(RCC_AHB1Periph_GPIOB, DISABLE);
 115              		.loc 1 133 0
 116 0082 0220     		movs	r0, #2
 117 0084 0021     		movs	r1, #0
 118 0086 FFF7FEFF 		bl	RCC_AHB1PeriphResetCmd
 119 008a 5BE0     		b	.L1
 120              	.L5:
 134:App/STM32F4-Discovery/Libraries/STM32F4xx_StdPeriph_Driver/src/stm32f4xx_gpio.c ****   }
 135:App/STM32F4-Discovery/Libraries/STM32F4xx_StdPeriph_Driver/src/stm32f4xx_gpio.c ****   else if (GPIOx == GPIOC)
 121              		.loc 1 135 0
 122 008c 7A68     		ldr	r2, [r7, #4]
 123 008e 314B     		ldr	r3, .L12+8
 124 0090 9A42     		cmp	r2, r3
 125 0092 08D1     		bne	.L6
 136:App/STM32F4-Discovery/Libraries/STM32F4xx_StdPeriph_Driver/src/stm32f4xx_gpio.c ****   {
 137:App/STM32F4-Discovery/Libraries/STM32F4xx_StdPeriph_Driver/src/stm32f4xx_gpio.c ****     RCC_AHB1PeriphResetCmd(RCC_AHB1Periph_GPIOC, ENABLE);
 126              		.loc 1 137 0
 127 0094 0420     		movs	r0, #4
 128 0096 0121     		movs	r1, #1
 129 0098 FFF7FEFF 		bl	RCC_AHB1PeriphResetCmd
 138:App/STM32F4-Discovery/Libraries/STM32F4xx_StdPeriph_Driver/src/stm32f4xx_gpio.c ****     RCC_AHB1PeriphResetCmd(RCC_AHB1Periph_GPIOC, DISABLE);
 130              		.loc 1 138 0
 131 009c 0420     		movs	r0, #4
 132 009e 0021     		movs	r1, #0
 133 00a0 FFF7FEFF 		bl	RCC_AHB1PeriphResetCmd
 134 00a4 4EE0     		b	.L1
 135              	.L6:
 139:App/STM32F4-Discovery/Libraries/STM32F4xx_StdPeriph_Driver/src/stm32f4xx_gpio.c ****   }
 140:App/STM32F4-Discovery/Libraries/STM32F4xx_StdPeriph_Driver/src/stm32f4xx_gpio.c ****   else if (GPIOx == GPIOD)
 136              		.loc 1 140 0
 137 00a6 7A68     		ldr	r2, [r7, #4]
 138 00a8 2B4B     		ldr	r3, .L12+12
 139 00aa 9A42     		cmp	r2, r3
 140 00ac 08D1     		bne	.L7
 141:App/STM32F4-Discovery/Libraries/STM32F4xx_StdPeriph_Driver/src/stm32f4xx_gpio.c ****   {
 142:App/STM32F4-Discovery/Libraries/STM32F4xx_StdPeriph_Driver/src/stm32f4xx_gpio.c ****     RCC_AHB1PeriphResetCmd(RCC_AHB1Periph_GPIOD, ENABLE);
 141              		.loc 1 142 0
 142 00ae 0820     		movs	r0, #8
 143 00b0 0121     		movs	r1, #1
 144 00b2 FFF7FEFF 		bl	RCC_AHB1PeriphResetCmd
 143:App/STM32F4-Discovery/Libraries/STM32F4xx_StdPeriph_Driver/src/stm32f4xx_gpio.c ****     RCC_AHB1PeriphResetCmd(RCC_AHB1Periph_GPIOD, DISABLE);
 145              		.loc 1 143 0
 146 00b6 0820     		movs	r0, #8
 147 00b8 0021     		movs	r1, #0
 148 00ba FFF7FEFF 		bl	RCC_AHB1PeriphResetCmd
 149 00be 41E0     		b	.L1
 150              	.L7:
 144:App/STM32F4-Discovery/Libraries/STM32F4xx_StdPeriph_Driver/src/stm32f4xx_gpio.c ****   }
 145:App/STM32F4-Discovery/Libraries/STM32F4xx_StdPeriph_Driver/src/stm32f4xx_gpio.c ****   else if (GPIOx == GPIOE)
 151              		.loc 1 145 0
 152 00c0 7A68     		ldr	r2, [r7, #4]
 153 00c2 264B     		ldr	r3, .L12+16
 154 00c4 9A42     		cmp	r2, r3
 155 00c6 08D1     		bne	.L8
 146:App/STM32F4-Discovery/Libraries/STM32F4xx_StdPeriph_Driver/src/stm32f4xx_gpio.c ****   {
 147:App/STM32F4-Discovery/Libraries/STM32F4xx_StdPeriph_Driver/src/stm32f4xx_gpio.c ****     RCC_AHB1PeriphResetCmd(RCC_AHB1Periph_GPIOE, ENABLE);
 156              		.loc 1 147 0
 157 00c8 1020     		movs	r0, #16
 158 00ca 0121     		movs	r1, #1
 159 00cc FFF7FEFF 		bl	RCC_AHB1PeriphResetCmd
 148:App/STM32F4-Discovery/Libraries/STM32F4xx_StdPeriph_Driver/src/stm32f4xx_gpio.c ****     RCC_AHB1PeriphResetCmd(RCC_AHB1Periph_GPIOE, DISABLE);
 160              		.loc 1 148 0
 161 00d0 1020     		movs	r0, #16
 162 00d2 0021     		movs	r1, #0
 163 00d4 FFF7FEFF 		bl	RCC_AHB1PeriphResetCmd
 164 00d8 34E0     		b	.L1
 165              	.L8:
 149:App/STM32F4-Discovery/Libraries/STM32F4xx_StdPeriph_Driver/src/stm32f4xx_gpio.c ****   }
 150:App/STM32F4-Discovery/Libraries/STM32F4xx_StdPeriph_Driver/src/stm32f4xx_gpio.c ****   else if (GPIOx == GPIOF)
 166              		.loc 1 150 0
 167 00da 7A68     		ldr	r2, [r7, #4]
 168 00dc 204B     		ldr	r3, .L12+20
 169 00de 9A42     		cmp	r2, r3
 170 00e0 08D1     		bne	.L9
 151:App/STM32F4-Discovery/Libraries/STM32F4xx_StdPeriph_Driver/src/stm32f4xx_gpio.c ****   {
 152:App/STM32F4-Discovery/Libraries/STM32F4xx_StdPeriph_Driver/src/stm32f4xx_gpio.c ****     RCC_AHB1PeriphResetCmd(RCC_AHB1Periph_GPIOF, ENABLE);
 171              		.loc 1 152 0
 172 00e2 2020     		movs	r0, #32
 173 00e4 0121     		movs	r1, #1
 174 00e6 FFF7FEFF 		bl	RCC_AHB1PeriphResetCmd
 153:App/STM32F4-Discovery/Libraries/STM32F4xx_StdPeriph_Driver/src/stm32f4xx_gpio.c ****     RCC_AHB1PeriphResetCmd(RCC_AHB1Periph_GPIOF, DISABLE);
 175              		.loc 1 153 0
 176 00ea 2020     		movs	r0, #32
 177 00ec 0021     		movs	r1, #0
 178 00ee FFF7FEFF 		bl	RCC_AHB1PeriphResetCmd
 179 00f2 27E0     		b	.L1
 180              	.L9:
 154:App/STM32F4-Discovery/Libraries/STM32F4xx_StdPeriph_Driver/src/stm32f4xx_gpio.c ****   }
 155:App/STM32F4-Discovery/Libraries/STM32F4xx_StdPeriph_Driver/src/stm32f4xx_gpio.c ****   else if (GPIOx == GPIOG)
 181              		.loc 1 155 0
 182 00f4 7A68     		ldr	r2, [r7, #4]
 183 00f6 1B4B     		ldr	r3, .L12+24
 184 00f8 9A42     		cmp	r2, r3
 185 00fa 08D1     		bne	.L10
 156:App/STM32F4-Discovery/Libraries/STM32F4xx_StdPeriph_Driver/src/stm32f4xx_gpio.c ****   {
 157:App/STM32F4-Discovery/Libraries/STM32F4xx_StdPeriph_Driver/src/stm32f4xx_gpio.c ****     RCC_AHB1PeriphResetCmd(RCC_AHB1Periph_GPIOG, ENABLE);
 186              		.loc 1 157 0
 187 00fc 4020     		movs	r0, #64
 188 00fe 0121     		movs	r1, #1
 189 0100 FFF7FEFF 		bl	RCC_AHB1PeriphResetCmd
 158:App/STM32F4-Discovery/Libraries/STM32F4xx_StdPeriph_Driver/src/stm32f4xx_gpio.c ****     RCC_AHB1PeriphResetCmd(RCC_AHB1Periph_GPIOG, DISABLE);
 190              		.loc 1 158 0
 191 0104 4020     		movs	r0, #64
 192 0106 0021     		movs	r1, #0
 193 0108 FFF7FEFF 		bl	RCC_AHB1PeriphResetCmd
 194 010c 1AE0     		b	.L1
 195              	.L10:
 159:App/STM32F4-Discovery/Libraries/STM32F4xx_StdPeriph_Driver/src/stm32f4xx_gpio.c ****   }
 160:App/STM32F4-Discovery/Libraries/STM32F4xx_StdPeriph_Driver/src/stm32f4xx_gpio.c ****   else if (GPIOx == GPIOH)
 196              		.loc 1 160 0
 197 010e 7A68     		ldr	r2, [r7, #4]
 198 0110 154B     		ldr	r3, .L12+28
 199 0112 9A42     		cmp	r2, r3
 200 0114 08D1     		bne	.L11
 161:App/STM32F4-Discovery/Libraries/STM32F4xx_StdPeriph_Driver/src/stm32f4xx_gpio.c ****   {
 162:App/STM32F4-Discovery/Libraries/STM32F4xx_StdPeriph_Driver/src/stm32f4xx_gpio.c ****     RCC_AHB1PeriphResetCmd(RCC_AHB1Periph_GPIOH, ENABLE);
 201              		.loc 1 162 0
 202 0116 8020     		movs	r0, #128
 203 0118 0121     		movs	r1, #1
 204 011a FFF7FEFF 		bl	RCC_AHB1PeriphResetCmd
 163:App/STM32F4-Discovery/Libraries/STM32F4xx_StdPeriph_Driver/src/stm32f4xx_gpio.c ****     RCC_AHB1PeriphResetCmd(RCC_AHB1Periph_GPIOH, DISABLE);
 205              		.loc 1 163 0
 206 011e 8020     		movs	r0, #128
 207 0120 0021     		movs	r1, #0
 208 0122 FFF7FEFF 		bl	RCC_AHB1PeriphResetCmd
 209 0126 0DE0     		b	.L1
 210              	.L11:
 164:App/STM32F4-Discovery/Libraries/STM32F4xx_StdPeriph_Driver/src/stm32f4xx_gpio.c ****   }
 165:App/STM32F4-Discovery/Libraries/STM32F4xx_StdPeriph_Driver/src/stm32f4xx_gpio.c ****   else
 166:App/STM32F4-Discovery/Libraries/STM32F4xx_StdPeriph_Driver/src/stm32f4xx_gpio.c ****   {
 167:App/STM32F4-Discovery/Libraries/STM32F4xx_StdPeriph_Driver/src/stm32f4xx_gpio.c ****     if (GPIOx == GPIOI)
 211              		.loc 1 167 0
 212 0128 7A68     		ldr	r2, [r7, #4]
 213 012a 104B     		ldr	r3, .L12+32
 214 012c 9A42     		cmp	r2, r3
 215 012e 09D1     		bne	.L1
 168:App/STM32F4-Discovery/Libraries/STM32F4xx_StdPeriph_Driver/src/stm32f4xx_gpio.c ****     {
 169:App/STM32F4-Discovery/Libraries/STM32F4xx_StdPeriph_Driver/src/stm32f4xx_gpio.c ****       RCC_AHB1PeriphResetCmd(RCC_AHB1Periph_GPIOI, ENABLE);
 216              		.loc 1 169 0
 217 0130 4FF48070 		mov	r0, #256
 218 0134 0121     		movs	r1, #1
 219 0136 FFF7FEFF 		bl	RCC_AHB1PeriphResetCmd
 170:App/STM32F4-Discovery/Libraries/STM32F4xx_StdPeriph_Driver/src/stm32f4xx_gpio.c ****       RCC_AHB1PeriphResetCmd(RCC_AHB1Periph_GPIOI, DISABLE);
 220              		.loc 1 170 0
 221 013a 4FF48070 		mov	r0, #256
 222 013e 0021     		movs	r1, #0
 223 0140 FFF7FEFF 		bl	RCC_AHB1PeriphResetCmd
 224              	.L1:
 171:App/STM32F4-Discovery/Libraries/STM32F4xx_StdPeriph_Driver/src/stm32f4xx_gpio.c ****     }
 172:App/STM32F4-Discovery/Libraries/STM32F4xx_StdPeriph_Driver/src/stm32f4xx_gpio.c ****   }
 173:App/STM32F4-Discovery/Libraries/STM32F4xx_StdPeriph_Driver/src/stm32f4xx_gpio.c **** }
 225              		.loc 1 173 0
 226 0144 0837     		adds	r7, r7, #8
 227 0146 BD46     		mov	sp, r7
 228              		@ sp needed
 229 0148 80BD     		pop	{r7, pc}
 230              	.L13:
 231 014a 00BF     		.align	2
 232              	.L12:
 233 014c 00000240 		.word	1073872896
 234 0150 00040240 		.word	1073873920
 235 0154 00080240 		.word	1073874944
 236 0158 000C0240 		.word	1073875968
 237 015c 00100240 		.word	1073876992
 238 0160 00140240 		.word	1073878016
 239 0164 00180240 		.word	1073879040
 240 0168 001C0240 		.word	1073880064
 241 016c 00200240 		.word	1073881088
 242 0170 00000000 		.word	.LC0
 243              		.cfi_endproc
 244              	.LFE110:
 246              		.section	.text.GPIO_Init,"ax",%progbits
 247              		.align	2
 248              		.global	GPIO_Init
 249              		.thumb
 250              		.thumb_func
 252              	GPIO_Init:
 253              	.LFB111:
 174:App/STM32F4-Discovery/Libraries/STM32F4xx_StdPeriph_Driver/src/stm32f4xx_gpio.c **** 
 175:App/STM32F4-Discovery/Libraries/STM32F4xx_StdPeriph_Driver/src/stm32f4xx_gpio.c **** /**
 176:App/STM32F4-Discovery/Libraries/STM32F4xx_StdPeriph_Driver/src/stm32f4xx_gpio.c ****   * @brief  Initializes the GPIOx peripheral according to the specified parameters in the GPIO_Init
 177:App/STM32F4-Discovery/Libraries/STM32F4xx_StdPeriph_Driver/src/stm32f4xx_gpio.c ****   * @param  GPIOx: where x can be (A..I) to select the GPIO peripheral.
 178:App/STM32F4-Discovery/Libraries/STM32F4xx_StdPeriph_Driver/src/stm32f4xx_gpio.c ****   * @param  GPIO_InitStruct: pointer to a GPIO_InitTypeDef structure that contains
 179:App/STM32F4-Discovery/Libraries/STM32F4xx_StdPeriph_Driver/src/stm32f4xx_gpio.c ****   *         the configuration information for the specified GPIO peripheral.
 180:App/STM32F4-Discovery/Libraries/STM32F4xx_StdPeriph_Driver/src/stm32f4xx_gpio.c ****   * @retval None
 181:App/STM32F4-Discovery/Libraries/STM32F4xx_StdPeriph_Driver/src/stm32f4xx_gpio.c ****   */
 182:App/STM32F4-Discovery/Libraries/STM32F4xx_StdPeriph_Driver/src/stm32f4xx_gpio.c **** void GPIO_Init(GPIO_TypeDef* GPIOx, GPIO_InitTypeDef* GPIO_InitStruct)
 183:App/STM32F4-Discovery/Libraries/STM32F4xx_StdPeriph_Driver/src/stm32f4xx_gpio.c **** {
 254              		.loc 1 183 0
 255              		.cfi_startproc
 256              		@ args = 0, pretend = 0, frame = 24
 257              		@ frame_needed = 1, uses_anonymous_args = 0
 258 0000 80B5     		push	{r7, lr}
 259              	.LCFI3:
 260              		.cfi_def_cfa_offset 8
 261              		.cfi_offset 7, -8
 262              		.cfi_offset 14, -4
 263 0002 86B0     		sub	sp, sp, #24
 264              	.LCFI4:
 265              		.cfi_def_cfa_offset 32
 266 0004 00AF     		add	r7, sp, #0
 267              	.LCFI5:
 268              		.cfi_def_cfa_register 7
 269 0006 7860     		str	r0, [r7, #4]
 270 0008 3960     		str	r1, [r7]
 184:App/STM32F4-Discovery/Libraries/STM32F4xx_StdPeriph_Driver/src/stm32f4xx_gpio.c ****   uint32_t pinpos = 0x00, pos = 0x00 , currentpin = 0x00;
 271              		.loc 1 184 0
 272 000a 0023     		movs	r3, #0
 273 000c 7B61     		str	r3, [r7, #20]
 274 000e 0023     		movs	r3, #0
 275 0010 3B61     		str	r3, [r7, #16]
 276 0012 0023     		movs	r3, #0
 277 0014 FB60     		str	r3, [r7, #12]
 185:App/STM32F4-Discovery/Libraries/STM32F4xx_StdPeriph_Driver/src/stm32f4xx_gpio.c **** 
 186:App/STM32F4-Discovery/Libraries/STM32F4xx_StdPeriph_Driver/src/stm32f4xx_gpio.c ****   /* Check the parameters */
 187:App/STM32F4-Discovery/Libraries/STM32F4xx_StdPeriph_Driver/src/stm32f4xx_gpio.c ****   assert_param(IS_GPIO_ALL_PERIPH(GPIOx));
 278              		.loc 1 187 0
 279 0016 7A68     		ldr	r2, [r7, #4]
 280 0018 7A4B     		ldr	r3, .L26
 281 001a 9A42     		cmp	r2, r3
 282 001c 23D0     		beq	.L15
 283              		.loc 1 187 0 is_stmt 0 discriminator 1
 284 001e 7A68     		ldr	r2, [r7, #4]
 285 0020 794B     		ldr	r3, .L26+4
 286 0022 9A42     		cmp	r2, r3
 287 0024 1FD0     		beq	.L15
 288 0026 7A68     		ldr	r2, [r7, #4]
 289 0028 784B     		ldr	r3, .L26+8
 290 002a 9A42     		cmp	r2, r3
 291 002c 1BD0     		beq	.L15
 292 002e 7A68     		ldr	r2, [r7, #4]
 293 0030 774B     		ldr	r3, .L26+12
 294 0032 9A42     		cmp	r2, r3
 295 0034 17D0     		beq	.L15
 296 0036 7A68     		ldr	r2, [r7, #4]
 297 0038 764B     		ldr	r3, .L26+16
 298 003a 9A42     		cmp	r2, r3
 299 003c 13D0     		beq	.L15
 300 003e 7A68     		ldr	r2, [r7, #4]
 301 0040 754B     		ldr	r3, .L26+20
 302 0042 9A42     		cmp	r2, r3
 303 0044 0FD0     		beq	.L15
 304 0046 7A68     		ldr	r2, [r7, #4]
 305 0048 744B     		ldr	r3, .L26+24
 306 004a 9A42     		cmp	r2, r3
 307 004c 0BD0     		beq	.L15
 308 004e 7A68     		ldr	r2, [r7, #4]
 309 0050 734B     		ldr	r3, .L26+28
 310 0052 9A42     		cmp	r2, r3
 311 0054 07D0     		beq	.L15
 312 0056 7A68     		ldr	r2, [r7, #4]
 313 0058 724B     		ldr	r3, .L26+32
 314 005a 9A42     		cmp	r2, r3
 315 005c 03D0     		beq	.L15
 316 005e 7248     		ldr	r0, .L26+36
 317 0060 BB21     		movs	r1, #187
 318 0062 FFF7FEFF 		bl	assert_failed
 319              	.L15:
 188:App/STM32F4-Discovery/Libraries/STM32F4xx_StdPeriph_Driver/src/stm32f4xx_gpio.c ****   assert_param(IS_GPIO_PIN(GPIO_InitStruct->GPIO_Pin));
 320              		.loc 1 188 0 is_stmt 1
 321 0066 3B68     		ldr	r3, [r7]
 322 0068 1B68     		ldr	r3, [r3]
 323 006a 002B     		cmp	r3, #0
 324 006c 03D1     		bne	.L16
 325              		.loc 1 188 0 is_stmt 0 discriminator 1
 326 006e 6E48     		ldr	r0, .L26+36
 327 0070 BC21     		movs	r1, #188
 328 0072 FFF7FEFF 		bl	assert_failed
 329              	.L16:
 189:App/STM32F4-Discovery/Libraries/STM32F4xx_StdPeriph_Driver/src/stm32f4xx_gpio.c ****   assert_param(IS_GPIO_MODE(GPIO_InitStruct->GPIO_Mode));
 330              		.loc 1 189 0 is_stmt 1
 331 0076 3B68     		ldr	r3, [r7]
 332 0078 1B79     		ldrb	r3, [r3, #4]	@ zero_extendqisi2
 333 007a 002B     		cmp	r3, #0
 334 007c 0FD0     		beq	.L17
 335              		.loc 1 189 0 is_stmt 0 discriminator 1
 336 007e 3B68     		ldr	r3, [r7]
 337 0080 1B79     		ldrb	r3, [r3, #4]	@ zero_extendqisi2
 338 0082 012B     		cmp	r3, #1
 339 0084 0BD0     		beq	.L17
 340 0086 3B68     		ldr	r3, [r7]
 341 0088 1B79     		ldrb	r3, [r3, #4]	@ zero_extendqisi2
 342 008a 022B     		cmp	r3, #2
 343 008c 07D0     		beq	.L17
 344 008e 3B68     		ldr	r3, [r7]
 345 0090 1B79     		ldrb	r3, [r3, #4]	@ zero_extendqisi2
 346 0092 032B     		cmp	r3, #3
 347 0094 03D0     		beq	.L17
 348 0096 6448     		ldr	r0, .L26+36
 349 0098 BD21     		movs	r1, #189
 350 009a FFF7FEFF 		bl	assert_failed
 351              	.L17:
 190:App/STM32F4-Discovery/Libraries/STM32F4xx_StdPeriph_Driver/src/stm32f4xx_gpio.c ****   assert_param(IS_GPIO_PUPD(GPIO_InitStruct->GPIO_PuPd));
 352              		.loc 1 190 0 is_stmt 1
 353 009e 3B68     		ldr	r3, [r7]
 354 00a0 DB79     		ldrb	r3, [r3, #7]	@ zero_extendqisi2
 355 00a2 002B     		cmp	r3, #0
 356 00a4 0BD0     		beq	.L18
 357              		.loc 1 190 0 is_stmt 0 discriminator 1
 358 00a6 3B68     		ldr	r3, [r7]
 359 00a8 DB79     		ldrb	r3, [r3, #7]	@ zero_extendqisi2
 360 00aa 012B     		cmp	r3, #1
 361 00ac 07D0     		beq	.L18
 362 00ae 3B68     		ldr	r3, [r7]
 363 00b0 DB79     		ldrb	r3, [r3, #7]	@ zero_extendqisi2
 364 00b2 022B     		cmp	r3, #2
 365 00b4 03D0     		beq	.L18
 366 00b6 5C48     		ldr	r0, .L26+36
 367 00b8 BE21     		movs	r1, #190
 368 00ba FFF7FEFF 		bl	assert_failed
 369              	.L18:
 191:App/STM32F4-Discovery/Libraries/STM32F4xx_StdPeriph_Driver/src/stm32f4xx_gpio.c **** 
 192:App/STM32F4-Discovery/Libraries/STM32F4xx_StdPeriph_Driver/src/stm32f4xx_gpio.c ****   /* -------------------------Configure the port pins---------------- */
 193:App/STM32F4-Discovery/Libraries/STM32F4xx_StdPeriph_Driver/src/stm32f4xx_gpio.c ****   /*-- GPIO Mode Configuration --*/
 194:App/STM32F4-Discovery/Libraries/STM32F4xx_StdPeriph_Driver/src/stm32f4xx_gpio.c ****   for (pinpos = 0x00; pinpos < 0x10; pinpos++)
 370              		.loc 1 194 0 is_stmt 1
 371 00be 0023     		movs	r3, #0
 372 00c0 7B61     		str	r3, [r7, #20]
 373 00c2 97E0     		b	.L19
 374              	.L25:
 195:App/STM32F4-Discovery/Libraries/STM32F4xx_StdPeriph_Driver/src/stm32f4xx_gpio.c ****   {
 196:App/STM32F4-Discovery/Libraries/STM32F4xx_StdPeriph_Driver/src/stm32f4xx_gpio.c ****     pos = ((uint32_t)0x01) << pinpos;
 375              		.loc 1 196 0
 376 00c4 7B69     		ldr	r3, [r7, #20]
 377 00c6 0122     		movs	r2, #1
 378 00c8 02FA03F3 		lsl	r3, r2, r3
 379 00cc 3B61     		str	r3, [r7, #16]
 197:App/STM32F4-Discovery/Libraries/STM32F4xx_StdPeriph_Driver/src/stm32f4xx_gpio.c ****     /* Get the port pins position */
 198:App/STM32F4-Discovery/Libraries/STM32F4xx_StdPeriph_Driver/src/stm32f4xx_gpio.c ****     currentpin = (GPIO_InitStruct->GPIO_Pin) & pos;
 380              		.loc 1 198 0
 381 00ce 3B68     		ldr	r3, [r7]
 382 00d0 1A68     		ldr	r2, [r3]
 383 00d2 3B69     		ldr	r3, [r7, #16]
 384 00d4 1340     		ands	r3, r3, r2
 385 00d6 FB60     		str	r3, [r7, #12]
 199:App/STM32F4-Discovery/Libraries/STM32F4xx_StdPeriph_Driver/src/stm32f4xx_gpio.c **** 
 200:App/STM32F4-Discovery/Libraries/STM32F4xx_StdPeriph_Driver/src/stm32f4xx_gpio.c ****     if (currentpin == pos)
 386              		.loc 1 200 0
 387 00d8 FA68     		ldr	r2, [r7, #12]
 388 00da 3B69     		ldr	r3, [r7, #16]
 389 00dc 9A42     		cmp	r2, r3
 390 00de 40F08680 		bne	.L20
 201:App/STM32F4-Discovery/Libraries/STM32F4xx_StdPeriph_Driver/src/stm32f4xx_gpio.c ****     {
 202:App/STM32F4-Discovery/Libraries/STM32F4xx_StdPeriph_Driver/src/stm32f4xx_gpio.c ****       GPIOx->MODER  &= ~(GPIO_MODER_MODER0 << (pinpos * 2));
 391              		.loc 1 202 0
 392 00e2 7B68     		ldr	r3, [r7, #4]
 393 00e4 1A68     		ldr	r2, [r3]
 394 00e6 7B69     		ldr	r3, [r7, #20]
 395 00e8 5B00     		lsls	r3, r3, #1
 396 00ea 0321     		movs	r1, #3
 397 00ec 01FA03F3 		lsl	r3, r1, r3
 398 00f0 DB43     		mvns	r3, r3
 399 00f2 1A40     		ands	r2, r2, r3
 400 00f4 7B68     		ldr	r3, [r7, #4]
 401 00f6 1A60     		str	r2, [r3]
 203:App/STM32F4-Discovery/Libraries/STM32F4xx_StdPeriph_Driver/src/stm32f4xx_gpio.c ****       GPIOx->MODER |= (((uint32_t)GPIO_InitStruct->GPIO_Mode) << (pinpos * 2));
 402              		.loc 1 203 0
 403 00f8 7B68     		ldr	r3, [r7, #4]
 404 00fa 1A68     		ldr	r2, [r3]
 405 00fc 3B68     		ldr	r3, [r7]
 406 00fe 1B79     		ldrb	r3, [r3, #4]	@ zero_extendqisi2
 407 0100 1946     		mov	r1, r3
 408 0102 7B69     		ldr	r3, [r7, #20]
 409 0104 5B00     		lsls	r3, r3, #1
 410 0106 01FA03F3 		lsl	r3, r1, r3
 411 010a 1A43     		orrs	r2, r2, r3
 412 010c 7B68     		ldr	r3, [r7, #4]
 413 010e 1A60     		str	r2, [r3]
 204:App/STM32F4-Discovery/Libraries/STM32F4xx_StdPeriph_Driver/src/stm32f4xx_gpio.c **** 
 205:App/STM32F4-Discovery/Libraries/STM32F4xx_StdPeriph_Driver/src/stm32f4xx_gpio.c ****       if ((GPIO_InitStruct->GPIO_Mode == GPIO_Mode_OUT) || (GPIO_InitStruct->GPIO_Mode == GPIO_Mode
 414              		.loc 1 205 0
 415 0110 3B68     		ldr	r3, [r7]
 416 0112 1B79     		ldrb	r3, [r3, #4]	@ zero_extendqisi2
 417 0114 012B     		cmp	r3, #1
 418 0116 03D0     		beq	.L21
 419              		.loc 1 205 0 is_stmt 0 discriminator 1
 420 0118 3B68     		ldr	r3, [r7]
 421 011a 1B79     		ldrb	r3, [r3, #4]	@ zero_extendqisi2
 422 011c 022B     		cmp	r3, #2
 423 011e 4ED1     		bne	.L22
 424              	.L21:
 206:App/STM32F4-Discovery/Libraries/STM32F4xx_StdPeriph_Driver/src/stm32f4xx_gpio.c ****       {
 207:App/STM32F4-Discovery/Libraries/STM32F4xx_StdPeriph_Driver/src/stm32f4xx_gpio.c ****         /* Check Speed mode parameters */
 208:App/STM32F4-Discovery/Libraries/STM32F4xx_StdPeriph_Driver/src/stm32f4xx_gpio.c ****         assert_param(IS_GPIO_SPEED(GPIO_InitStruct->GPIO_Speed));
 425              		.loc 1 208 0 is_stmt 1
 426 0120 3B68     		ldr	r3, [r7]
 427 0122 5B79     		ldrb	r3, [r3, #5]	@ zero_extendqisi2
 428 0124 002B     		cmp	r3, #0
 429 0126 0FD0     		beq	.L23
 430              		.loc 1 208 0 is_stmt 0 discriminator 1
 431 0128 3B68     		ldr	r3, [r7]
 432 012a 5B79     		ldrb	r3, [r3, #5]	@ zero_extendqisi2
 433 012c 012B     		cmp	r3, #1
 434 012e 0BD0     		beq	.L23
 435 0130 3B68     		ldr	r3, [r7]
 436 0132 5B79     		ldrb	r3, [r3, #5]	@ zero_extendqisi2
 437 0134 022B     		cmp	r3, #2
 438 0136 07D0     		beq	.L23
 439 0138 3B68     		ldr	r3, [r7]
 440 013a 5B79     		ldrb	r3, [r3, #5]	@ zero_extendqisi2
 441 013c 032B     		cmp	r3, #3
 442 013e 03D0     		beq	.L23
 443 0140 3948     		ldr	r0, .L26+36
 444 0142 D021     		movs	r1, #208
 445 0144 FFF7FEFF 		bl	assert_failed
 446              	.L23:
 209:App/STM32F4-Discovery/Libraries/STM32F4xx_StdPeriph_Driver/src/stm32f4xx_gpio.c **** 
 210:App/STM32F4-Discovery/Libraries/STM32F4xx_StdPeriph_Driver/src/stm32f4xx_gpio.c ****         /* Speed mode configuration */
 211:App/STM32F4-Discovery/Libraries/STM32F4xx_StdPeriph_Driver/src/stm32f4xx_gpio.c ****         GPIOx->OSPEEDR &= ~(GPIO_OSPEEDER_OSPEEDR0 << (pinpos * 2));
 447              		.loc 1 211 0 is_stmt 1
 448 0148 7B68     		ldr	r3, [r7, #4]
 449 014a 9A68     		ldr	r2, [r3, #8]
 450 014c 7B69     		ldr	r3, [r7, #20]
 451 014e 5B00     		lsls	r3, r3, #1
 452 0150 0321     		movs	r1, #3
 453 0152 01FA03F3 		lsl	r3, r1, r3
 454 0156 DB43     		mvns	r3, r3
 455 0158 1A40     		ands	r2, r2, r3
 456 015a 7B68     		ldr	r3, [r7, #4]
 457 015c 9A60     		str	r2, [r3, #8]
 212:App/STM32F4-Discovery/Libraries/STM32F4xx_StdPeriph_Driver/src/stm32f4xx_gpio.c ****         GPIOx->OSPEEDR |= ((uint32_t)(GPIO_InitStruct->GPIO_Speed) << (pinpos * 2));
 458              		.loc 1 212 0
 459 015e 7B68     		ldr	r3, [r7, #4]
 460 0160 9A68     		ldr	r2, [r3, #8]
 461 0162 3B68     		ldr	r3, [r7]
 462 0164 5B79     		ldrb	r3, [r3, #5]	@ zero_extendqisi2
 463 0166 1946     		mov	r1, r3
 464 0168 7B69     		ldr	r3, [r7, #20]
 465 016a 5B00     		lsls	r3, r3, #1
 466 016c 01FA03F3 		lsl	r3, r1, r3
 467 0170 1A43     		orrs	r2, r2, r3
 468 0172 7B68     		ldr	r3, [r7, #4]
 469 0174 9A60     		str	r2, [r3, #8]
 213:App/STM32F4-Discovery/Libraries/STM32F4xx_StdPeriph_Driver/src/stm32f4xx_gpio.c **** 
 214:App/STM32F4-Discovery/Libraries/STM32F4xx_StdPeriph_Driver/src/stm32f4xx_gpio.c ****         /* Check Output mode parameters */
 215:App/STM32F4-Discovery/Libraries/STM32F4xx_StdPeriph_Driver/src/stm32f4xx_gpio.c ****         assert_param(IS_GPIO_OTYPE(GPIO_InitStruct->GPIO_OType));
 470              		.loc 1 215 0
 471 0176 3B68     		ldr	r3, [r7]
 472 0178 9B79     		ldrb	r3, [r3, #6]	@ zero_extendqisi2
 473 017a 002B     		cmp	r3, #0
 474 017c 07D0     		beq	.L24
 475              		.loc 1 215 0 is_stmt 0 discriminator 1
 476 017e 3B68     		ldr	r3, [r7]
 477 0180 9B79     		ldrb	r3, [r3, #6]	@ zero_extendqisi2
 478 0182 012B     		cmp	r3, #1
 479 0184 03D0     		beq	.L24
 480 0186 2848     		ldr	r0, .L26+36
 481 0188 D721     		movs	r1, #215
 482 018a FFF7FEFF 		bl	assert_failed
 483              	.L24:
 216:App/STM32F4-Discovery/Libraries/STM32F4xx_StdPeriph_Driver/src/stm32f4xx_gpio.c **** 
 217:App/STM32F4-Discovery/Libraries/STM32F4xx_StdPeriph_Driver/src/stm32f4xx_gpio.c ****         /* Output mode configuration*/
 218:App/STM32F4-Discovery/Libraries/STM32F4xx_StdPeriph_Driver/src/stm32f4xx_gpio.c ****         GPIOx->OTYPER  &= ~((GPIO_OTYPER_OT_0) << ((uint16_t)pinpos)) ;
 484              		.loc 1 218 0 is_stmt 1
 485 018e 7B68     		ldr	r3, [r7, #4]
 486 0190 5A68     		ldr	r2, [r3, #4]
 487 0192 7B69     		ldr	r3, [r7, #20]
 488 0194 9BB2     		uxth	r3, r3
 489 0196 0121     		movs	r1, #1
 490 0198 01FA03F3 		lsl	r3, r1, r3
 491 019c DB43     		mvns	r3, r3
 492 019e 1A40     		ands	r2, r2, r3
 493 01a0 7B68     		ldr	r3, [r7, #4]
 494 01a2 5A60     		str	r2, [r3, #4]
 219:App/STM32F4-Discovery/Libraries/STM32F4xx_StdPeriph_Driver/src/stm32f4xx_gpio.c ****         GPIOx->OTYPER |= (uint16_t)(((uint16_t)GPIO_InitStruct->GPIO_OType) << ((uint16_t)pinpos));
 495              		.loc 1 219 0
 496 01a4 7B68     		ldr	r3, [r7, #4]
 497 01a6 5A68     		ldr	r2, [r3, #4]
 498 01a8 3B68     		ldr	r3, [r7]
 499 01aa 9B79     		ldrb	r3, [r3, #6]	@ zero_extendqisi2
 500 01ac 1946     		mov	r1, r3
 501 01ae 7B69     		ldr	r3, [r7, #20]
 502 01b0 9BB2     		uxth	r3, r3
 503 01b2 01FA03F3 		lsl	r3, r1, r3
 504 01b6 9BB2     		uxth	r3, r3
 505 01b8 1A43     		orrs	r2, r2, r3
 506 01ba 7B68     		ldr	r3, [r7, #4]
 507 01bc 5A60     		str	r2, [r3, #4]
 508              	.L22:
 220:App/STM32F4-Discovery/Libraries/STM32F4xx_StdPeriph_Driver/src/stm32f4xx_gpio.c ****       }
 221:App/STM32F4-Discovery/Libraries/STM32F4xx_StdPeriph_Driver/src/stm32f4xx_gpio.c **** 
 222:App/STM32F4-Discovery/Libraries/STM32F4xx_StdPeriph_Driver/src/stm32f4xx_gpio.c ****       /* Pull-up Pull down resistor configuration*/
 223:App/STM32F4-Discovery/Libraries/STM32F4xx_StdPeriph_Driver/src/stm32f4xx_gpio.c ****       GPIOx->PUPDR &= ~(GPIO_PUPDR_PUPDR0 << ((uint16_t)pinpos * 2));
 509              		.loc 1 223 0
 510 01be 7B68     		ldr	r3, [r7, #4]
 511 01c0 DA68     		ldr	r2, [r3, #12]
 512 01c2 7B69     		ldr	r3, [r7, #20]
 513 01c4 9BB2     		uxth	r3, r3
 514 01c6 5B00     		lsls	r3, r3, #1
 515 01c8 0321     		movs	r1, #3
 516 01ca 01FA03F3 		lsl	r3, r1, r3
 517 01ce DB43     		mvns	r3, r3
 518 01d0 1A40     		ands	r2, r2, r3
 519 01d2 7B68     		ldr	r3, [r7, #4]
 520 01d4 DA60     		str	r2, [r3, #12]
 224:App/STM32F4-Discovery/Libraries/STM32F4xx_StdPeriph_Driver/src/stm32f4xx_gpio.c ****       GPIOx->PUPDR |= (((uint32_t)GPIO_InitStruct->GPIO_PuPd) << (pinpos * 2));
 521              		.loc 1 224 0
 522 01d6 7B68     		ldr	r3, [r7, #4]
 523 01d8 DA68     		ldr	r2, [r3, #12]
 524 01da 3B68     		ldr	r3, [r7]
 525 01dc DB79     		ldrb	r3, [r3, #7]	@ zero_extendqisi2
 526 01de 1946     		mov	r1, r3
 527 01e0 7B69     		ldr	r3, [r7, #20]
 528 01e2 5B00     		lsls	r3, r3, #1
 529 01e4 01FA03F3 		lsl	r3, r1, r3
 530 01e8 1A43     		orrs	r2, r2, r3
 531 01ea 7B68     		ldr	r3, [r7, #4]
 532 01ec DA60     		str	r2, [r3, #12]
 533              	.L20:
 194:App/STM32F4-Discovery/Libraries/STM32F4xx_StdPeriph_Driver/src/stm32f4xx_gpio.c ****   for (pinpos = 0x00; pinpos < 0x10; pinpos++)
 534              		.loc 1 194 0
 535 01ee 7B69     		ldr	r3, [r7, #20]
 536 01f0 0133     		adds	r3, r3, #1
 537 01f2 7B61     		str	r3, [r7, #20]
 538              	.L19:
 194:App/STM32F4-Discovery/Libraries/STM32F4xx_StdPeriph_Driver/src/stm32f4xx_gpio.c ****   for (pinpos = 0x00; pinpos < 0x10; pinpos++)
 539              		.loc 1 194 0 is_stmt 0 discriminator 1
 540 01f4 7B69     		ldr	r3, [r7, #20]
 541 01f6 0F2B     		cmp	r3, #15
 542 01f8 7FF664AF 		bls	.L25
 225:App/STM32F4-Discovery/Libraries/STM32F4xx_StdPeriph_Driver/src/stm32f4xx_gpio.c ****     }
 226:App/STM32F4-Discovery/Libraries/STM32F4xx_StdPeriph_Driver/src/stm32f4xx_gpio.c ****   }
 227:App/STM32F4-Discovery/Libraries/STM32F4xx_StdPeriph_Driver/src/stm32f4xx_gpio.c **** }
 543              		.loc 1 227 0 is_stmt 1
 544 01fc 1837     		adds	r7, r7, #24
 545 01fe BD46     		mov	sp, r7
 546              		@ sp needed
 547 0200 80BD     		pop	{r7, pc}
 548              	.L27:
 549 0202 00BF     		.align	2
 550              	.L26:
 551 0204 00000240 		.word	1073872896
 552 0208 00040240 		.word	1073873920
 553 020c 00080240 		.word	1073874944
 554 0210 000C0240 		.word	1073875968
 555 0214 00100240 		.word	1073876992
 556 0218 00140240 		.word	1073878016
 557 021c 00180240 		.word	1073879040
 558 0220 001C0240 		.word	1073880064
 559 0224 00200240 		.word	1073881088
 560 0228 00000000 		.word	.LC0
 561              		.cfi_endproc
 562              	.LFE111:
 564              		.section	.text.GPIO_StructInit,"ax",%progbits
 565              		.align	2
 566              		.global	GPIO_StructInit
 567              		.thumb
 568              		.thumb_func
 570              	GPIO_StructInit:
 571              	.LFB112:
 228:App/STM32F4-Discovery/Libraries/STM32F4xx_StdPeriph_Driver/src/stm32f4xx_gpio.c **** 
 229:App/STM32F4-Discovery/Libraries/STM32F4xx_StdPeriph_Driver/src/stm32f4xx_gpio.c **** /**
 230:App/STM32F4-Discovery/Libraries/STM32F4xx_StdPeriph_Driver/src/stm32f4xx_gpio.c ****   * @brief  Fills each GPIO_InitStruct member with its default value.
 231:App/STM32F4-Discovery/Libraries/STM32F4xx_StdPeriph_Driver/src/stm32f4xx_gpio.c ****   * @param  GPIO_InitStruct : pointer to a GPIO_InitTypeDef structure which will be initialized.
 232:App/STM32F4-Discovery/Libraries/STM32F4xx_StdPeriph_Driver/src/stm32f4xx_gpio.c ****   * @retval None
 233:App/STM32F4-Discovery/Libraries/STM32F4xx_StdPeriph_Driver/src/stm32f4xx_gpio.c ****   */
 234:App/STM32F4-Discovery/Libraries/STM32F4xx_StdPeriph_Driver/src/stm32f4xx_gpio.c **** void GPIO_StructInit(GPIO_InitTypeDef* GPIO_InitStruct)
 235:App/STM32F4-Discovery/Libraries/STM32F4xx_StdPeriph_Driver/src/stm32f4xx_gpio.c **** {
 572              		.loc 1 235 0
 573              		.cfi_startproc
 574              		@ args = 0, pretend = 0, frame = 8
 575              		@ frame_needed = 1, uses_anonymous_args = 0
 576              		@ link register save eliminated.
 577 0000 80B4     		push	{r7}
 578              	.LCFI6:
 579              		.cfi_def_cfa_offset 4
 580              		.cfi_offset 7, -4
 581 0002 83B0     		sub	sp, sp, #12
 582              	.LCFI7:
 583              		.cfi_def_cfa_offset 16
 584 0004 00AF     		add	r7, sp, #0
 585              	.LCFI8:
 586              		.cfi_def_cfa_register 7
 587 0006 7860     		str	r0, [r7, #4]
 236:App/STM32F4-Discovery/Libraries/STM32F4xx_StdPeriph_Driver/src/stm32f4xx_gpio.c ****   /* Reset GPIO init structure parameters values */
 237:App/STM32F4-Discovery/Libraries/STM32F4xx_StdPeriph_Driver/src/stm32f4xx_gpio.c ****   GPIO_InitStruct->GPIO_Pin  = GPIO_Pin_All;
 588              		.loc 1 237 0
 589 0008 7B68     		ldr	r3, [r7, #4]
 590 000a 4FF6FF72 		movw	r2, #65535
 591 000e 1A60     		str	r2, [r3]
 238:App/STM32F4-Discovery/Libraries/STM32F4xx_StdPeriph_Driver/src/stm32f4xx_gpio.c ****   GPIO_InitStruct->GPIO_Mode = GPIO_Mode_IN;
 592              		.loc 1 238 0
 593 0010 7B68     		ldr	r3, [r7, #4]
 594 0012 0022     		movs	r2, #0
 595 0014 1A71     		strb	r2, [r3, #4]
 239:App/STM32F4-Discovery/Libraries/STM32F4xx_StdPeriph_Driver/src/stm32f4xx_gpio.c ****   GPIO_InitStruct->GPIO_Speed = GPIO_Speed_2MHz;
 596              		.loc 1 239 0
 597 0016 7B68     		ldr	r3, [r7, #4]
 598 0018 0022     		movs	r2, #0
 599 001a 5A71     		strb	r2, [r3, #5]
 240:App/STM32F4-Discovery/Libraries/STM32F4xx_StdPeriph_Driver/src/stm32f4xx_gpio.c ****   GPIO_InitStruct->GPIO_OType = GPIO_OType_PP;
 600              		.loc 1 240 0
 601 001c 7B68     		ldr	r3, [r7, #4]
 602 001e 0022     		movs	r2, #0
 603 0020 9A71     		strb	r2, [r3, #6]
 241:App/STM32F4-Discovery/Libraries/STM32F4xx_StdPeriph_Driver/src/stm32f4xx_gpio.c ****   GPIO_InitStruct->GPIO_PuPd = GPIO_PuPd_NOPULL;
 604              		.loc 1 241 0
 605 0022 7B68     		ldr	r3, [r7, #4]
 606 0024 0022     		movs	r2, #0
 607 0026 DA71     		strb	r2, [r3, #7]
 242:App/STM32F4-Discovery/Libraries/STM32F4xx_StdPeriph_Driver/src/stm32f4xx_gpio.c **** }
 608              		.loc 1 242 0
 609 0028 0C37     		adds	r7, r7, #12
 610 002a BD46     		mov	sp, r7
 611              		@ sp needed
 612 002c 5DF8047B 		ldr	r7, [sp], #4
 613 0030 7047     		bx	lr
 614              		.cfi_endproc
 615              	.LFE112:
 617 0032 00BF     		.section	.text.GPIO_PinLockConfig,"ax",%progbits
 618              		.align	2
 619              		.global	GPIO_PinLockConfig
 620              		.thumb
 621              		.thumb_func
 623              	GPIO_PinLockConfig:
 624              	.LFB113:
 243:App/STM32F4-Discovery/Libraries/STM32F4xx_StdPeriph_Driver/src/stm32f4xx_gpio.c **** 
 244:App/STM32F4-Discovery/Libraries/STM32F4xx_StdPeriph_Driver/src/stm32f4xx_gpio.c **** /**
 245:App/STM32F4-Discovery/Libraries/STM32F4xx_StdPeriph_Driver/src/stm32f4xx_gpio.c ****   * @brief  Locks GPIO Pins configuration registers.
 246:App/STM32F4-Discovery/Libraries/STM32F4xx_StdPeriph_Driver/src/stm32f4xx_gpio.c ****   * @note   The locked registers are GPIOx_MODER, GPIOx_OTYPER, GPIOx_OSPEEDR,
 247:App/STM32F4-Discovery/Libraries/STM32F4xx_StdPeriph_Driver/src/stm32f4xx_gpio.c ****   *         GPIOx_PUPDR, GPIOx_AFRL and GPIOx_AFRH.
 248:App/STM32F4-Discovery/Libraries/STM32F4xx_StdPeriph_Driver/src/stm32f4xx_gpio.c ****   * @note   The configuration of the locked GPIO pins can no longer be modified
 249:App/STM32F4-Discovery/Libraries/STM32F4xx_StdPeriph_Driver/src/stm32f4xx_gpio.c ****   *         until the next reset.
 250:App/STM32F4-Discovery/Libraries/STM32F4xx_StdPeriph_Driver/src/stm32f4xx_gpio.c ****   * @param  GPIOx: where x can be (A..I) to select the GPIO peripheral.
 251:App/STM32F4-Discovery/Libraries/STM32F4xx_StdPeriph_Driver/src/stm32f4xx_gpio.c ****   * @param  GPIO_Pin: specifies the port bit to be locked.
 252:App/STM32F4-Discovery/Libraries/STM32F4xx_StdPeriph_Driver/src/stm32f4xx_gpio.c ****   *          This parameter can be any combination of GPIO_Pin_x where x can be (0..15).
 253:App/STM32F4-Discovery/Libraries/STM32F4xx_StdPeriph_Driver/src/stm32f4xx_gpio.c ****   * @retval None
 254:App/STM32F4-Discovery/Libraries/STM32F4xx_StdPeriph_Driver/src/stm32f4xx_gpio.c ****   */
 255:App/STM32F4-Discovery/Libraries/STM32F4xx_StdPeriph_Driver/src/stm32f4xx_gpio.c **** void GPIO_PinLockConfig(GPIO_TypeDef* GPIOx, uint16_t GPIO_Pin)
 256:App/STM32F4-Discovery/Libraries/STM32F4xx_StdPeriph_Driver/src/stm32f4xx_gpio.c **** {
 625              		.loc 1 256 0
 626              		.cfi_startproc
 627              		@ args = 0, pretend = 0, frame = 16
 628              		@ frame_needed = 1, uses_anonymous_args = 0
 629 0000 80B5     		push	{r7, lr}
 630              	.LCFI9:
 631              		.cfi_def_cfa_offset 8
 632              		.cfi_offset 7, -8
 633              		.cfi_offset 14, -4
 634 0002 84B0     		sub	sp, sp, #16
 635              	.LCFI10:
 636              		.cfi_def_cfa_offset 24
 637 0004 00AF     		add	r7, sp, #0
 638              	.LCFI11:
 639              		.cfi_def_cfa_register 7
 640 0006 7860     		str	r0, [r7, #4]
 641 0008 0B46     		mov	r3, r1
 642 000a 7B80     		strh	r3, [r7, #2]	@ movhi
 257:App/STM32F4-Discovery/Libraries/STM32F4xx_StdPeriph_Driver/src/stm32f4xx_gpio.c ****   __IO uint32_t tmp = 0x00010000;
 643              		.loc 1 257 0
 644 000c 4FF48033 		mov	r3, #65536
 645 0010 FB60     		str	r3, [r7, #12]
 258:App/STM32F4-Discovery/Libraries/STM32F4xx_StdPeriph_Driver/src/stm32f4xx_gpio.c **** 
 259:App/STM32F4-Discovery/Libraries/STM32F4xx_StdPeriph_Driver/src/stm32f4xx_gpio.c ****   /* Check the parameters */
 260:App/STM32F4-Discovery/Libraries/STM32F4xx_StdPeriph_Driver/src/stm32f4xx_gpio.c ****   assert_param(IS_GPIO_ALL_PERIPH(GPIOx));
 646              		.loc 1 260 0
 647 0012 7A68     		ldr	r2, [r7, #4]
 648 0014 224B     		ldr	r3, .L32
 649 0016 9A42     		cmp	r2, r3
 650 0018 24D0     		beq	.L30
 651              		.loc 1 260 0 is_stmt 0 discriminator 1
 652 001a 7A68     		ldr	r2, [r7, #4]
 653 001c 214B     		ldr	r3, .L32+4
 654 001e 9A42     		cmp	r2, r3
 655 0020 20D0     		beq	.L30
 656 0022 7A68     		ldr	r2, [r7, #4]
 657 0024 204B     		ldr	r3, .L32+8
 658 0026 9A42     		cmp	r2, r3
 659 0028 1CD0     		beq	.L30
 660 002a 7A68     		ldr	r2, [r7, #4]
 661 002c 1F4B     		ldr	r3, .L32+12
 662 002e 9A42     		cmp	r2, r3
 663 0030 18D0     		beq	.L30
 664 0032 7A68     		ldr	r2, [r7, #4]
 665 0034 1E4B     		ldr	r3, .L32+16
 666 0036 9A42     		cmp	r2, r3
 667 0038 14D0     		beq	.L30
 668 003a 7A68     		ldr	r2, [r7, #4]
 669 003c 1D4B     		ldr	r3, .L32+20
 670 003e 9A42     		cmp	r2, r3
 671 0040 10D0     		beq	.L30
 672 0042 7A68     		ldr	r2, [r7, #4]
 673 0044 1C4B     		ldr	r3, .L32+24
 674 0046 9A42     		cmp	r2, r3
 675 0048 0CD0     		beq	.L30
 676 004a 7A68     		ldr	r2, [r7, #4]
 677 004c 1B4B     		ldr	r3, .L32+28
 678 004e 9A42     		cmp	r2, r3
 679 0050 08D0     		beq	.L30
 680 0052 7A68     		ldr	r2, [r7, #4]
 681 0054 1A4B     		ldr	r3, .L32+32
 682 0056 9A42     		cmp	r2, r3
 683 0058 04D0     		beq	.L30
 684 005a 1A48     		ldr	r0, .L32+36
 685 005c 4FF48271 		mov	r1, #260
 686 0060 FFF7FEFF 		bl	assert_failed
 687              	.L30:
 261:App/STM32F4-Discovery/Libraries/STM32F4xx_StdPeriph_Driver/src/stm32f4xx_gpio.c ****   assert_param(IS_GPIO_PIN(GPIO_Pin));
 688              		.loc 1 261 0 is_stmt 1
 689 0064 7B88     		ldrh	r3, [r7, #2]
 690 0066 002B     		cmp	r3, #0
 691 0068 04D1     		bne	.L31
 692              		.loc 1 261 0 is_stmt 0 discriminator 1
 693 006a 1648     		ldr	r0, .L32+36
 694 006c 40F20511 		movw	r1, #261
 695 0070 FFF7FEFF 		bl	assert_failed
 696              	.L31:
 262:App/STM32F4-Discovery/Libraries/STM32F4xx_StdPeriph_Driver/src/stm32f4xx_gpio.c **** 
 263:App/STM32F4-Discovery/Libraries/STM32F4xx_StdPeriph_Driver/src/stm32f4xx_gpio.c ****   tmp |= GPIO_Pin;
 697              		.loc 1 263 0 is_stmt 1
 698 0074 7A88     		ldrh	r2, [r7, #2]
 699 0076 FB68     		ldr	r3, [r7, #12]
 700 0078 1343     		orrs	r3, r3, r2
 701 007a FB60     		str	r3, [r7, #12]
 264:App/STM32F4-Discovery/Libraries/STM32F4xx_StdPeriph_Driver/src/stm32f4xx_gpio.c ****   /* Set LCKK bit */
 265:App/STM32F4-Discovery/Libraries/STM32F4xx_StdPeriph_Driver/src/stm32f4xx_gpio.c ****   GPIOx->LCKR = tmp;
 702              		.loc 1 265 0
 703 007c FA68     		ldr	r2, [r7, #12]
 704 007e 7B68     		ldr	r3, [r7, #4]
 705 0080 DA61     		str	r2, [r3, #28]
 266:App/STM32F4-Discovery/Libraries/STM32F4xx_StdPeriph_Driver/src/stm32f4xx_gpio.c ****   /* Reset LCKK bit */
 267:App/STM32F4-Discovery/Libraries/STM32F4xx_StdPeriph_Driver/src/stm32f4xx_gpio.c ****   GPIOx->LCKR =  GPIO_Pin;
 706              		.loc 1 267 0
 707 0082 7A88     		ldrh	r2, [r7, #2]
 708 0084 7B68     		ldr	r3, [r7, #4]
 709 0086 DA61     		str	r2, [r3, #28]
 268:App/STM32F4-Discovery/Libraries/STM32F4xx_StdPeriph_Driver/src/stm32f4xx_gpio.c ****   /* Set LCKK bit */
 269:App/STM32F4-Discovery/Libraries/STM32F4xx_StdPeriph_Driver/src/stm32f4xx_gpio.c ****   GPIOx->LCKR = tmp;
 710              		.loc 1 269 0
 711 0088 FA68     		ldr	r2, [r7, #12]
 712 008a 7B68     		ldr	r3, [r7, #4]
 713 008c DA61     		str	r2, [r3, #28]
 270:App/STM32F4-Discovery/Libraries/STM32F4xx_StdPeriph_Driver/src/stm32f4xx_gpio.c ****   /* Read LCKK bit*/
 271:App/STM32F4-Discovery/Libraries/STM32F4xx_StdPeriph_Driver/src/stm32f4xx_gpio.c ****   tmp = GPIOx->LCKR;
 714              		.loc 1 271 0
 715 008e 7B68     		ldr	r3, [r7, #4]
 716 0090 DB69     		ldr	r3, [r3, #28]
 717 0092 FB60     		str	r3, [r7, #12]
 272:App/STM32F4-Discovery/Libraries/STM32F4xx_StdPeriph_Driver/src/stm32f4xx_gpio.c ****   /* Read LCKK bit*/
 273:App/STM32F4-Discovery/Libraries/STM32F4xx_StdPeriph_Driver/src/stm32f4xx_gpio.c ****   tmp = GPIOx->LCKR;
 718              		.loc 1 273 0
 719 0094 7B68     		ldr	r3, [r7, #4]
 720 0096 DB69     		ldr	r3, [r3, #28]
 721 0098 FB60     		str	r3, [r7, #12]
 274:App/STM32F4-Discovery/Libraries/STM32F4xx_StdPeriph_Driver/src/stm32f4xx_gpio.c **** }
 722              		.loc 1 274 0
 723 009a 1037     		adds	r7, r7, #16
 724 009c BD46     		mov	sp, r7
 725              		@ sp needed
 726 009e 80BD     		pop	{r7, pc}
 727              	.L33:
 728              		.align	2
 729              	.L32:
 730 00a0 00000240 		.word	1073872896
 731 00a4 00040240 		.word	1073873920
 732 00a8 00080240 		.word	1073874944
 733 00ac 000C0240 		.word	1073875968
 734 00b0 00100240 		.word	1073876992
 735 00b4 00140240 		.word	1073878016
 736 00b8 00180240 		.word	1073879040
 737 00bc 001C0240 		.word	1073880064
 738 00c0 00200240 		.word	1073881088
 739 00c4 00000000 		.word	.LC0
 740              		.cfi_endproc
 741              	.LFE113:
 743              		.section	.text.GPIO_ReadInputDataBit,"ax",%progbits
 744              		.align	2
 745              		.global	GPIO_ReadInputDataBit
 746              		.thumb
 747              		.thumb_func
 749              	GPIO_ReadInputDataBit:
 750              	.LFB114:
 275:App/STM32F4-Discovery/Libraries/STM32F4xx_StdPeriph_Driver/src/stm32f4xx_gpio.c **** 
 276:App/STM32F4-Discovery/Libraries/STM32F4xx_StdPeriph_Driver/src/stm32f4xx_gpio.c **** /**
 277:App/STM32F4-Discovery/Libraries/STM32F4xx_StdPeriph_Driver/src/stm32f4xx_gpio.c ****   * @}
 278:App/STM32F4-Discovery/Libraries/STM32F4xx_StdPeriph_Driver/src/stm32f4xx_gpio.c ****   */
 279:App/STM32F4-Discovery/Libraries/STM32F4xx_StdPeriph_Driver/src/stm32f4xx_gpio.c **** 
 280:App/STM32F4-Discovery/Libraries/STM32F4xx_StdPeriph_Driver/src/stm32f4xx_gpio.c **** /** @defgroup GPIO_Group2 GPIO Read and Write
 281:App/STM32F4-Discovery/Libraries/STM32F4xx_StdPeriph_Driver/src/stm32f4xx_gpio.c ****  *  @brief   GPIO Read and Write
 282:App/STM32F4-Discovery/Libraries/STM32F4xx_StdPeriph_Driver/src/stm32f4xx_gpio.c ****  *
 283:App/STM32F4-Discovery/Libraries/STM32F4xx_StdPeriph_Driver/src/stm32f4xx_gpio.c **** @verbatim   
 284:App/STM32F4-Discovery/Libraries/STM32F4xx_StdPeriph_Driver/src/stm32f4xx_gpio.c ****  ===============================================================================
 285:App/STM32F4-Discovery/Libraries/STM32F4xx_StdPeriph_Driver/src/stm32f4xx_gpio.c ****                               GPIO Read and Write
 286:App/STM32F4-Discovery/Libraries/STM32F4xx_StdPeriph_Driver/src/stm32f4xx_gpio.c ****  ===============================================================================  
 287:App/STM32F4-Discovery/Libraries/STM32F4xx_StdPeriph_Driver/src/stm32f4xx_gpio.c **** 
 288:App/STM32F4-Discovery/Libraries/STM32F4xx_StdPeriph_Driver/src/stm32f4xx_gpio.c **** @endverbatim
 289:App/STM32F4-Discovery/Libraries/STM32F4xx_StdPeriph_Driver/src/stm32f4xx_gpio.c ****   * @{
 290:App/STM32F4-Discovery/Libraries/STM32F4xx_StdPeriph_Driver/src/stm32f4xx_gpio.c ****   */
 291:App/STM32F4-Discovery/Libraries/STM32F4xx_StdPeriph_Driver/src/stm32f4xx_gpio.c **** 
 292:App/STM32F4-Discovery/Libraries/STM32F4xx_StdPeriph_Driver/src/stm32f4xx_gpio.c **** /**
 293:App/STM32F4-Discovery/Libraries/STM32F4xx_StdPeriph_Driver/src/stm32f4xx_gpio.c ****   * @brief  Reads the specified input port pin.
 294:App/STM32F4-Discovery/Libraries/STM32F4xx_StdPeriph_Driver/src/stm32f4xx_gpio.c ****   * @param  GPIOx: where x can be (A..I) to select the GPIO peripheral.
 295:App/STM32F4-Discovery/Libraries/STM32F4xx_StdPeriph_Driver/src/stm32f4xx_gpio.c ****   * @param  GPIO_Pin: specifies the port bit to read.
 296:App/STM32F4-Discovery/Libraries/STM32F4xx_StdPeriph_Driver/src/stm32f4xx_gpio.c ****   *         This parameter can be GPIO_Pin_x where x can be (0..15).
 297:App/STM32F4-Discovery/Libraries/STM32F4xx_StdPeriph_Driver/src/stm32f4xx_gpio.c ****   * @retval The input port pin value.
 298:App/STM32F4-Discovery/Libraries/STM32F4xx_StdPeriph_Driver/src/stm32f4xx_gpio.c ****   */
 299:App/STM32F4-Discovery/Libraries/STM32F4xx_StdPeriph_Driver/src/stm32f4xx_gpio.c **** uint8_t GPIO_ReadInputDataBit(GPIO_TypeDef* GPIOx, uint16_t GPIO_Pin)
 300:App/STM32F4-Discovery/Libraries/STM32F4xx_StdPeriph_Driver/src/stm32f4xx_gpio.c **** {
 751              		.loc 1 300 0
 752              		.cfi_startproc
 753              		@ args = 0, pretend = 0, frame = 16
 754              		@ frame_needed = 1, uses_anonymous_args = 0
 755 0000 80B5     		push	{r7, lr}
 756              	.LCFI12:
 757              		.cfi_def_cfa_offset 8
 758              		.cfi_offset 7, -8
 759              		.cfi_offset 14, -4
 760 0002 84B0     		sub	sp, sp, #16
 761              	.LCFI13:
 762              		.cfi_def_cfa_offset 24
 763 0004 00AF     		add	r7, sp, #0
 764              	.LCFI14:
 765              		.cfi_def_cfa_register 7
 766 0006 7860     		str	r0, [r7, #4]
 767 0008 0B46     		mov	r3, r1
 768 000a 7B80     		strh	r3, [r7, #2]	@ movhi
 301:App/STM32F4-Discovery/Libraries/STM32F4xx_StdPeriph_Driver/src/stm32f4xx_gpio.c ****   uint8_t bitstatus = 0x00;
 769              		.loc 1 301 0
 770 000c 0023     		movs	r3, #0
 771 000e FB73     		strb	r3, [r7, #15]
 302:App/STM32F4-Discovery/Libraries/STM32F4xx_StdPeriph_Driver/src/stm32f4xx_gpio.c **** 
 303:App/STM32F4-Discovery/Libraries/STM32F4xx_StdPeriph_Driver/src/stm32f4xx_gpio.c ****   /* Check the parameters */
 304:App/STM32F4-Discovery/Libraries/STM32F4xx_StdPeriph_Driver/src/stm32f4xx_gpio.c ****   assert_param(IS_GPIO_ALL_PERIPH(GPIOx));
 772              		.loc 1 304 0
 773 0010 7A68     		ldr	r2, [r7, #4]
 774 0012 3A4B     		ldr	r3, .L40
 775 0014 9A42     		cmp	r2, r3
 776 0016 24D0     		beq	.L35
 777              		.loc 1 304 0 is_stmt 0 discriminator 1
 778 0018 7A68     		ldr	r2, [r7, #4]
 779 001a 394B     		ldr	r3, .L40+4
 780 001c 9A42     		cmp	r2, r3
 781 001e 20D0     		beq	.L35
 782 0020 7A68     		ldr	r2, [r7, #4]
 783 0022 384B     		ldr	r3, .L40+8
 784 0024 9A42     		cmp	r2, r3
 785 0026 1CD0     		beq	.L35
 786 0028 7A68     		ldr	r2, [r7, #4]
 787 002a 374B     		ldr	r3, .L40+12
 788 002c 9A42     		cmp	r2, r3
 789 002e 18D0     		beq	.L35
 790 0030 7A68     		ldr	r2, [r7, #4]
 791 0032 364B     		ldr	r3, .L40+16
 792 0034 9A42     		cmp	r2, r3
 793 0036 14D0     		beq	.L35
 794 0038 7A68     		ldr	r2, [r7, #4]
 795 003a 354B     		ldr	r3, .L40+20
 796 003c 9A42     		cmp	r2, r3
 797 003e 10D0     		beq	.L35
 798 0040 7A68     		ldr	r2, [r7, #4]
 799 0042 344B     		ldr	r3, .L40+24
 800 0044 9A42     		cmp	r2, r3
 801 0046 0CD0     		beq	.L35
 802 0048 7A68     		ldr	r2, [r7, #4]
 803 004a 334B     		ldr	r3, .L40+28
 804 004c 9A42     		cmp	r2, r3
 805 004e 08D0     		beq	.L35
 806 0050 7A68     		ldr	r2, [r7, #4]
 807 0052 324B     		ldr	r3, .L40+32
 808 0054 9A42     		cmp	r2, r3
 809 0056 04D0     		beq	.L35
 810 0058 3148     		ldr	r0, .L40+36
 811 005a 4FF49871 		mov	r1, #304
 812 005e FFF7FEFF 		bl	assert_failed
 813              	.L35:
 305:App/STM32F4-Discovery/Libraries/STM32F4xx_StdPeriph_Driver/src/stm32f4xx_gpio.c ****   assert_param(IS_GET_GPIO_PIN(GPIO_Pin));
 814              		.loc 1 305 0 is_stmt 1
 815 0062 7B88     		ldrh	r3, [r7, #2]
 816 0064 012B     		cmp	r3, #1
 817 0066 39D0     		beq	.L36
 818              		.loc 1 305 0 is_stmt 0 discriminator 1
 819 0068 7B88     		ldrh	r3, [r7, #2]
 820 006a 022B     		cmp	r3, #2
 821 006c 36D0     		beq	.L36
 822 006e 7B88     		ldrh	r3, [r7, #2]
 823 0070 042B     		cmp	r3, #4
 824 0072 33D0     		beq	.L36
 825 0074 7B88     		ldrh	r3, [r7, #2]
 826 0076 082B     		cmp	r3, #8
 827 0078 30D0     		beq	.L36
 828 007a 7B88     		ldrh	r3, [r7, #2]
 829 007c 102B     		cmp	r3, #16
 830 007e 2DD0     		beq	.L36
 831 0080 7B88     		ldrh	r3, [r7, #2]
 832 0082 202B     		cmp	r3, #32
 833 0084 2AD0     		beq	.L36
 834 0086 7B88     		ldrh	r3, [r7, #2]
 835 0088 402B     		cmp	r3, #64
 836 008a 27D0     		beq	.L36
 837 008c 7B88     		ldrh	r3, [r7, #2]
 838 008e 802B     		cmp	r3, #128
 839 0090 24D0     		beq	.L36
 840 0092 7B88     		ldrh	r3, [r7, #2]
 841 0094 B3F5807F 		cmp	r3, #256
 842 0098 20D0     		beq	.L36
 843 009a 7B88     		ldrh	r3, [r7, #2]
 844 009c B3F5007F 		cmp	r3, #512
 845 00a0 1CD0     		beq	.L36
 846 00a2 7B88     		ldrh	r3, [r7, #2]
 847 00a4 B3F5806F 		cmp	r3, #1024
 848 00a8 18D0     		beq	.L36
 849 00aa 7B88     		ldrh	r3, [r7, #2]
 850 00ac B3F5006F 		cmp	r3, #2048
 851 00b0 14D0     		beq	.L36
 852 00b2 7B88     		ldrh	r3, [r7, #2]
 853 00b4 B3F5805F 		cmp	r3, #4096
 854 00b8 10D0     		beq	.L36
 855 00ba 7B88     		ldrh	r3, [r7, #2]
 856 00bc B3F5005F 		cmp	r3, #8192
 857 00c0 0CD0     		beq	.L36
 858 00c2 7B88     		ldrh	r3, [r7, #2]
 859 00c4 B3F5804F 		cmp	r3, #16384
 860 00c8 08D0     		beq	.L36
 861 00ca 7B88     		ldrh	r3, [r7, #2]
 862 00cc B3F5004F 		cmp	r3, #32768
 863 00d0 04D0     		beq	.L36
 864 00d2 1348     		ldr	r0, .L40+36
 865 00d4 40F23111 		movw	r1, #305
 866 00d8 FFF7FEFF 		bl	assert_failed
 867              	.L36:
 306:App/STM32F4-Discovery/Libraries/STM32F4xx_StdPeriph_Driver/src/stm32f4xx_gpio.c **** 
 307:App/STM32F4-Discovery/Libraries/STM32F4xx_StdPeriph_Driver/src/stm32f4xx_gpio.c ****   if ((GPIOx->IDR & GPIO_Pin) != (uint32_t)Bit_RESET)
 868              		.loc 1 307 0 is_stmt 1
 869 00dc 7B68     		ldr	r3, [r7, #4]
 870 00de 1A69     		ldr	r2, [r3, #16]
 871 00e0 7B88     		ldrh	r3, [r7, #2]
 872 00e2 1340     		ands	r3, r3, r2
 873 00e4 002B     		cmp	r3, #0
 874 00e6 02D0     		beq	.L37
 308:App/STM32F4-Discovery/Libraries/STM32F4xx_StdPeriph_Driver/src/stm32f4xx_gpio.c ****   {
 309:App/STM32F4-Discovery/Libraries/STM32F4xx_StdPeriph_Driver/src/stm32f4xx_gpio.c ****     bitstatus = (uint8_t)Bit_SET;
 875              		.loc 1 309 0
 876 00e8 0123     		movs	r3, #1
 877 00ea FB73     		strb	r3, [r7, #15]
 878 00ec 01E0     		b	.L38
 879              	.L37:
 310:App/STM32F4-Discovery/Libraries/STM32F4xx_StdPeriph_Driver/src/stm32f4xx_gpio.c ****   }
 311:App/STM32F4-Discovery/Libraries/STM32F4xx_StdPeriph_Driver/src/stm32f4xx_gpio.c ****   else
 312:App/STM32F4-Discovery/Libraries/STM32F4xx_StdPeriph_Driver/src/stm32f4xx_gpio.c ****   {
 313:App/STM32F4-Discovery/Libraries/STM32F4xx_StdPeriph_Driver/src/stm32f4xx_gpio.c ****     bitstatus = (uint8_t)Bit_RESET;
 880              		.loc 1 313 0
 881 00ee 0023     		movs	r3, #0
 882 00f0 FB73     		strb	r3, [r7, #15]
 883              	.L38:
 314:App/STM32F4-Discovery/Libraries/STM32F4xx_StdPeriph_Driver/src/stm32f4xx_gpio.c ****   }
 315:App/STM32F4-Discovery/Libraries/STM32F4xx_StdPeriph_Driver/src/stm32f4xx_gpio.c ****   return bitstatus;
 884              		.loc 1 315 0
 885 00f2 FB7B     		ldrb	r3, [r7, #15]	@ zero_extendqisi2
 316:App/STM32F4-Discovery/Libraries/STM32F4xx_StdPeriph_Driver/src/stm32f4xx_gpio.c **** }
 886              		.loc 1 316 0
 887 00f4 1846     		mov	r0, r3
 888 00f6 1037     		adds	r7, r7, #16
 889 00f8 BD46     		mov	sp, r7
 890              		@ sp needed
 891 00fa 80BD     		pop	{r7, pc}
 892              	.L41:
 893              		.align	2
 894              	.L40:
 895 00fc 00000240 		.word	1073872896
 896 0100 00040240 		.word	1073873920
 897 0104 00080240 		.word	1073874944
 898 0108 000C0240 		.word	1073875968
 899 010c 00100240 		.word	1073876992
 900 0110 00140240 		.word	1073878016
 901 0114 00180240 		.word	1073879040
 902 0118 001C0240 		.word	1073880064
 903 011c 00200240 		.word	1073881088
 904 0120 00000000 		.word	.LC0
 905              		.cfi_endproc
 906              	.LFE114:
 908              		.section	.text.GPIO_ReadInputData,"ax",%progbits
 909              		.align	2
 910              		.global	GPIO_ReadInputData
 911              		.thumb
 912              		.thumb_func
 914              	GPIO_ReadInputData:
 915              	.LFB115:
 317:App/STM32F4-Discovery/Libraries/STM32F4xx_StdPeriph_Driver/src/stm32f4xx_gpio.c **** 
 318:App/STM32F4-Discovery/Libraries/STM32F4xx_StdPeriph_Driver/src/stm32f4xx_gpio.c **** /**
 319:App/STM32F4-Discovery/Libraries/STM32F4xx_StdPeriph_Driver/src/stm32f4xx_gpio.c ****   * @brief  Reads the specified GPIO input data port.
 320:App/STM32F4-Discovery/Libraries/STM32F4xx_StdPeriph_Driver/src/stm32f4xx_gpio.c ****   * @param  GPIOx: where x can be (A..I) to select the GPIO peripheral.
 321:App/STM32F4-Discovery/Libraries/STM32F4xx_StdPeriph_Driver/src/stm32f4xx_gpio.c ****   * @retval GPIO input data port value.
 322:App/STM32F4-Discovery/Libraries/STM32F4xx_StdPeriph_Driver/src/stm32f4xx_gpio.c ****   */
 323:App/STM32F4-Discovery/Libraries/STM32F4xx_StdPeriph_Driver/src/stm32f4xx_gpio.c **** uint16_t GPIO_ReadInputData(GPIO_TypeDef* GPIOx)
 324:App/STM32F4-Discovery/Libraries/STM32F4xx_StdPeriph_Driver/src/stm32f4xx_gpio.c **** {
 916              		.loc 1 324 0
 917              		.cfi_startproc
 918              		@ args = 0, pretend = 0, frame = 8
 919              		@ frame_needed = 1, uses_anonymous_args = 0
 920 0000 80B5     		push	{r7, lr}
 921              	.LCFI15:
 922              		.cfi_def_cfa_offset 8
 923              		.cfi_offset 7, -8
 924              		.cfi_offset 14, -4
 925 0002 82B0     		sub	sp, sp, #8
 926              	.LCFI16:
 927              		.cfi_def_cfa_offset 16
 928 0004 00AF     		add	r7, sp, #0
 929              	.LCFI17:
 930              		.cfi_def_cfa_register 7
 931 0006 7860     		str	r0, [r7, #4]
 325:App/STM32F4-Discovery/Libraries/STM32F4xx_StdPeriph_Driver/src/stm32f4xx_gpio.c ****   /* Check the parameters */
 326:App/STM32F4-Discovery/Libraries/STM32F4xx_StdPeriph_Driver/src/stm32f4xx_gpio.c ****   assert_param(IS_GPIO_ALL_PERIPH(GPIOx));
 932              		.loc 1 326 0
 933 0008 7A68     		ldr	r2, [r7, #4]
 934 000a 174B     		ldr	r3, .L45
 935 000c 9A42     		cmp	r2, r3
 936 000e 24D0     		beq	.L43
 937              		.loc 1 326 0 is_stmt 0 discriminator 1
 938 0010 7A68     		ldr	r2, [r7, #4]
 939 0012 164B     		ldr	r3, .L45+4
 940 0014 9A42     		cmp	r2, r3
 941 0016 20D0     		beq	.L43
 942 0018 7A68     		ldr	r2, [r7, #4]
 943 001a 154B     		ldr	r3, .L45+8
 944 001c 9A42     		cmp	r2, r3
 945 001e 1CD0     		beq	.L43
 946 0020 7A68     		ldr	r2, [r7, #4]
 947 0022 144B     		ldr	r3, .L45+12
 948 0024 9A42     		cmp	r2, r3
 949 0026 18D0     		beq	.L43
 950 0028 7A68     		ldr	r2, [r7, #4]
 951 002a 134B     		ldr	r3, .L45+16
 952 002c 9A42     		cmp	r2, r3
 953 002e 14D0     		beq	.L43
 954 0030 7A68     		ldr	r2, [r7, #4]
 955 0032 124B     		ldr	r3, .L45+20
 956 0034 9A42     		cmp	r2, r3
 957 0036 10D0     		beq	.L43
 958 0038 7A68     		ldr	r2, [r7, #4]
 959 003a 114B     		ldr	r3, .L45+24
 960 003c 9A42     		cmp	r2, r3
 961 003e 0CD0     		beq	.L43
 962 0040 7A68     		ldr	r2, [r7, #4]
 963 0042 104B     		ldr	r3, .L45+28
 964 0044 9A42     		cmp	r2, r3
 965 0046 08D0     		beq	.L43
 966 0048 7A68     		ldr	r2, [r7, #4]
 967 004a 0F4B     		ldr	r3, .L45+32
 968 004c 9A42     		cmp	r2, r3
 969 004e 04D0     		beq	.L43
 970 0050 0E48     		ldr	r0, .L45+36
 971 0052 4FF4A371 		mov	r1, #326
 972 0056 FFF7FEFF 		bl	assert_failed
 973              	.L43:
 327:App/STM32F4-Discovery/Libraries/STM32F4xx_StdPeriph_Driver/src/stm32f4xx_gpio.c **** 
 328:App/STM32F4-Discovery/Libraries/STM32F4xx_StdPeriph_Driver/src/stm32f4xx_gpio.c ****   return ((uint16_t)GPIOx->IDR);
 974              		.loc 1 328 0 is_stmt 1
 975 005a 7B68     		ldr	r3, [r7, #4]
 976 005c 1B69     		ldr	r3, [r3, #16]
 977 005e 9BB2     		uxth	r3, r3
 329:App/STM32F4-Discovery/Libraries/STM32F4xx_StdPeriph_Driver/src/stm32f4xx_gpio.c **** }
 978              		.loc 1 329 0
 979 0060 1846     		mov	r0, r3
 980 0062 0837     		adds	r7, r7, #8
 981 0064 BD46     		mov	sp, r7
 982              		@ sp needed
 983 0066 80BD     		pop	{r7, pc}
 984              	.L46:
 985              		.align	2
 986              	.L45:
 987 0068 00000240 		.word	1073872896
 988 006c 00040240 		.word	1073873920
 989 0070 00080240 		.word	1073874944
 990 0074 000C0240 		.word	1073875968
 991 0078 00100240 		.word	1073876992
 992 007c 00140240 		.word	1073878016
 993 0080 00180240 		.word	1073879040
 994 0084 001C0240 		.word	1073880064
 995 0088 00200240 		.word	1073881088
 996 008c 00000000 		.word	.LC0
 997              		.cfi_endproc
 998              	.LFE115:
 1000              		.section	.text.GPIO_ReadOutputDataBit,"ax",%progbits
 1001              		.align	2
 1002              		.global	GPIO_ReadOutputDataBit
 1003              		.thumb
 1004              		.thumb_func
 1006              	GPIO_ReadOutputDataBit:
 1007              	.LFB116:
 330:App/STM32F4-Discovery/Libraries/STM32F4xx_StdPeriph_Driver/src/stm32f4xx_gpio.c **** 
 331:App/STM32F4-Discovery/Libraries/STM32F4xx_StdPeriph_Driver/src/stm32f4xx_gpio.c **** /**
 332:App/STM32F4-Discovery/Libraries/STM32F4xx_StdPeriph_Driver/src/stm32f4xx_gpio.c ****   * @brief  Reads the specified output data port bit.
 333:App/STM32F4-Discovery/Libraries/STM32F4xx_StdPeriph_Driver/src/stm32f4xx_gpio.c ****   * @param  GPIOx: where x can be (A..I) to select the GPIO peripheral.
 334:App/STM32F4-Discovery/Libraries/STM32F4xx_StdPeriph_Driver/src/stm32f4xx_gpio.c ****   * @param  GPIO_Pin: specifies the port bit to read.
 335:App/STM32F4-Discovery/Libraries/STM32F4xx_StdPeriph_Driver/src/stm32f4xx_gpio.c ****   *          This parameter can be GPIO_Pin_x where x can be (0..15).
 336:App/STM32F4-Discovery/Libraries/STM32F4xx_StdPeriph_Driver/src/stm32f4xx_gpio.c ****   * @retval The output port pin value.
 337:App/STM32F4-Discovery/Libraries/STM32F4xx_StdPeriph_Driver/src/stm32f4xx_gpio.c ****   */
 338:App/STM32F4-Discovery/Libraries/STM32F4xx_StdPeriph_Driver/src/stm32f4xx_gpio.c **** uint8_t GPIO_ReadOutputDataBit(GPIO_TypeDef* GPIOx, uint16_t GPIO_Pin)
 339:App/STM32F4-Discovery/Libraries/STM32F4xx_StdPeriph_Driver/src/stm32f4xx_gpio.c **** {
 1008              		.loc 1 339 0
 1009              		.cfi_startproc
 1010              		@ args = 0, pretend = 0, frame = 16
 1011              		@ frame_needed = 1, uses_anonymous_args = 0
 1012 0000 80B5     		push	{r7, lr}
 1013              	.LCFI18:
 1014              		.cfi_def_cfa_offset 8
 1015              		.cfi_offset 7, -8
 1016              		.cfi_offset 14, -4
 1017 0002 84B0     		sub	sp, sp, #16
 1018              	.LCFI19:
 1019              		.cfi_def_cfa_offset 24
 1020 0004 00AF     		add	r7, sp, #0
 1021              	.LCFI20:
 1022              		.cfi_def_cfa_register 7
 1023 0006 7860     		str	r0, [r7, #4]
 1024 0008 0B46     		mov	r3, r1
 1025 000a 7B80     		strh	r3, [r7, #2]	@ movhi
 340:App/STM32F4-Discovery/Libraries/STM32F4xx_StdPeriph_Driver/src/stm32f4xx_gpio.c ****   uint8_t bitstatus = 0x00;
 1026              		.loc 1 340 0
 1027 000c 0023     		movs	r3, #0
 1028 000e FB73     		strb	r3, [r7, #15]
 341:App/STM32F4-Discovery/Libraries/STM32F4xx_StdPeriph_Driver/src/stm32f4xx_gpio.c **** 
 342:App/STM32F4-Discovery/Libraries/STM32F4xx_StdPeriph_Driver/src/stm32f4xx_gpio.c ****   /* Check the parameters */
 343:App/STM32F4-Discovery/Libraries/STM32F4xx_StdPeriph_Driver/src/stm32f4xx_gpio.c ****   assert_param(IS_GPIO_ALL_PERIPH(GPIOx));
 1029              		.loc 1 343 0
 1030 0010 7A68     		ldr	r2, [r7, #4]
 1031 0012 3A4B     		ldr	r3, .L53
 1032 0014 9A42     		cmp	r2, r3
 1033 0016 24D0     		beq	.L48
 1034              		.loc 1 343 0 is_stmt 0 discriminator 1
 1035 0018 7A68     		ldr	r2, [r7, #4]
 1036 001a 394B     		ldr	r3, .L53+4
 1037 001c 9A42     		cmp	r2, r3
 1038 001e 20D0     		beq	.L48
 1039 0020 7A68     		ldr	r2, [r7, #4]
 1040 0022 384B     		ldr	r3, .L53+8
 1041 0024 9A42     		cmp	r2, r3
 1042 0026 1CD0     		beq	.L48
 1043 0028 7A68     		ldr	r2, [r7, #4]
 1044 002a 374B     		ldr	r3, .L53+12
 1045 002c 9A42     		cmp	r2, r3
 1046 002e 18D0     		beq	.L48
 1047 0030 7A68     		ldr	r2, [r7, #4]
 1048 0032 364B     		ldr	r3, .L53+16
 1049 0034 9A42     		cmp	r2, r3
 1050 0036 14D0     		beq	.L48
 1051 0038 7A68     		ldr	r2, [r7, #4]
 1052 003a 354B     		ldr	r3, .L53+20
 1053 003c 9A42     		cmp	r2, r3
 1054 003e 10D0     		beq	.L48
 1055 0040 7A68     		ldr	r2, [r7, #4]
 1056 0042 344B     		ldr	r3, .L53+24
 1057 0044 9A42     		cmp	r2, r3
 1058 0046 0CD0     		beq	.L48
 1059 0048 7A68     		ldr	r2, [r7, #4]
 1060 004a 334B     		ldr	r3, .L53+28
 1061 004c 9A42     		cmp	r2, r3
 1062 004e 08D0     		beq	.L48
 1063 0050 7A68     		ldr	r2, [r7, #4]
 1064 0052 324B     		ldr	r3, .L53+32
 1065 0054 9A42     		cmp	r2, r3
 1066 0056 04D0     		beq	.L48
 1067 0058 3148     		ldr	r0, .L53+36
 1068 005a 40F25711 		movw	r1, #343
 1069 005e FFF7FEFF 		bl	assert_failed
 1070              	.L48:
 344:App/STM32F4-Discovery/Libraries/STM32F4xx_StdPeriph_Driver/src/stm32f4xx_gpio.c ****   assert_param(IS_GET_GPIO_PIN(GPIO_Pin));
 1071              		.loc 1 344 0 is_stmt 1
 1072 0062 7B88     		ldrh	r3, [r7, #2]
 1073 0064 012B     		cmp	r3, #1
 1074 0066 39D0     		beq	.L49
 1075              		.loc 1 344 0 is_stmt 0 discriminator 1
 1076 0068 7B88     		ldrh	r3, [r7, #2]
 1077 006a 022B     		cmp	r3, #2
 1078 006c 36D0     		beq	.L49
 1079 006e 7B88     		ldrh	r3, [r7, #2]
 1080 0070 042B     		cmp	r3, #4
 1081 0072 33D0     		beq	.L49
 1082 0074 7B88     		ldrh	r3, [r7, #2]
 1083 0076 082B     		cmp	r3, #8
 1084 0078 30D0     		beq	.L49
 1085 007a 7B88     		ldrh	r3, [r7, #2]
 1086 007c 102B     		cmp	r3, #16
 1087 007e 2DD0     		beq	.L49
 1088 0080 7B88     		ldrh	r3, [r7, #2]
 1089 0082 202B     		cmp	r3, #32
 1090 0084 2AD0     		beq	.L49
 1091 0086 7B88     		ldrh	r3, [r7, #2]
 1092 0088 402B     		cmp	r3, #64
 1093 008a 27D0     		beq	.L49
 1094 008c 7B88     		ldrh	r3, [r7, #2]
 1095 008e 802B     		cmp	r3, #128
 1096 0090 24D0     		beq	.L49
 1097 0092 7B88     		ldrh	r3, [r7, #2]
 1098 0094 B3F5807F 		cmp	r3, #256
 1099 0098 20D0     		beq	.L49
 1100 009a 7B88     		ldrh	r3, [r7, #2]
 1101 009c B3F5007F 		cmp	r3, #512
 1102 00a0 1CD0     		beq	.L49
 1103 00a2 7B88     		ldrh	r3, [r7, #2]
 1104 00a4 B3F5806F 		cmp	r3, #1024
 1105 00a8 18D0     		beq	.L49
 1106 00aa 7B88     		ldrh	r3, [r7, #2]
 1107 00ac B3F5006F 		cmp	r3, #2048
 1108 00b0 14D0     		beq	.L49
 1109 00b2 7B88     		ldrh	r3, [r7, #2]
 1110 00b4 B3F5805F 		cmp	r3, #4096
 1111 00b8 10D0     		beq	.L49
 1112 00ba 7B88     		ldrh	r3, [r7, #2]
 1113 00bc B3F5005F 		cmp	r3, #8192
 1114 00c0 0CD0     		beq	.L49
 1115 00c2 7B88     		ldrh	r3, [r7, #2]
 1116 00c4 B3F5804F 		cmp	r3, #16384
 1117 00c8 08D0     		beq	.L49
 1118 00ca 7B88     		ldrh	r3, [r7, #2]
 1119 00cc B3F5004F 		cmp	r3, #32768
 1120 00d0 04D0     		beq	.L49
 1121 00d2 1348     		ldr	r0, .L53+36
 1122 00d4 4FF4AC71 		mov	r1, #344
 1123 00d8 FFF7FEFF 		bl	assert_failed
 1124              	.L49:
 345:App/STM32F4-Discovery/Libraries/STM32F4xx_StdPeriph_Driver/src/stm32f4xx_gpio.c **** 
 346:App/STM32F4-Discovery/Libraries/STM32F4xx_StdPeriph_Driver/src/stm32f4xx_gpio.c ****   if ((GPIOx->ODR & GPIO_Pin) != (uint32_t)Bit_RESET)
 1125              		.loc 1 346 0 is_stmt 1
 1126 00dc 7B68     		ldr	r3, [r7, #4]
 1127 00de 5A69     		ldr	r2, [r3, #20]
 1128 00e0 7B88     		ldrh	r3, [r7, #2]
 1129 00e2 1340     		ands	r3, r3, r2
 1130 00e4 002B     		cmp	r3, #0
 1131 00e6 02D0     		beq	.L50
 347:App/STM32F4-Discovery/Libraries/STM32F4xx_StdPeriph_Driver/src/stm32f4xx_gpio.c ****   {
 348:App/STM32F4-Discovery/Libraries/STM32F4xx_StdPeriph_Driver/src/stm32f4xx_gpio.c ****     bitstatus = (uint8_t)Bit_SET;
 1132              		.loc 1 348 0
 1133 00e8 0123     		movs	r3, #1
 1134 00ea FB73     		strb	r3, [r7, #15]
 1135 00ec 01E0     		b	.L51
 1136              	.L50:
 349:App/STM32F4-Discovery/Libraries/STM32F4xx_StdPeriph_Driver/src/stm32f4xx_gpio.c ****   }
 350:App/STM32F4-Discovery/Libraries/STM32F4xx_StdPeriph_Driver/src/stm32f4xx_gpio.c ****   else
 351:App/STM32F4-Discovery/Libraries/STM32F4xx_StdPeriph_Driver/src/stm32f4xx_gpio.c ****   {
 352:App/STM32F4-Discovery/Libraries/STM32F4xx_StdPeriph_Driver/src/stm32f4xx_gpio.c ****     bitstatus = (uint8_t)Bit_RESET;
 1137              		.loc 1 352 0
 1138 00ee 0023     		movs	r3, #0
 1139 00f0 FB73     		strb	r3, [r7, #15]
 1140              	.L51:
 353:App/STM32F4-Discovery/Libraries/STM32F4xx_StdPeriph_Driver/src/stm32f4xx_gpio.c ****   }
 354:App/STM32F4-Discovery/Libraries/STM32F4xx_StdPeriph_Driver/src/stm32f4xx_gpio.c ****   return bitstatus;
 1141              		.loc 1 354 0
 1142 00f2 FB7B     		ldrb	r3, [r7, #15]	@ zero_extendqisi2
 355:App/STM32F4-Discovery/Libraries/STM32F4xx_StdPeriph_Driver/src/stm32f4xx_gpio.c **** }
 1143              		.loc 1 355 0
 1144 00f4 1846     		mov	r0, r3
 1145 00f6 1037     		adds	r7, r7, #16
 1146 00f8 BD46     		mov	sp, r7
 1147              		@ sp needed
 1148 00fa 80BD     		pop	{r7, pc}
 1149              	.L54:
 1150              		.align	2
 1151              	.L53:
 1152 00fc 00000240 		.word	1073872896
 1153 0100 00040240 		.word	1073873920
 1154 0104 00080240 		.word	1073874944
 1155 0108 000C0240 		.word	1073875968
 1156 010c 00100240 		.word	1073876992
 1157 0110 00140240 		.word	1073878016
 1158 0114 00180240 		.word	1073879040
 1159 0118 001C0240 		.word	1073880064
 1160 011c 00200240 		.word	1073881088
 1161 0120 00000000 		.word	.LC0
 1162              		.cfi_endproc
 1163              	.LFE116:
 1165              		.section	.text.GPIO_ReadOutputData,"ax",%progbits
 1166              		.align	2
 1167              		.global	GPIO_ReadOutputData
 1168              		.thumb
 1169              		.thumb_func
 1171              	GPIO_ReadOutputData:
 1172              	.LFB117:
 356:App/STM32F4-Discovery/Libraries/STM32F4xx_StdPeriph_Driver/src/stm32f4xx_gpio.c **** 
 357:App/STM32F4-Discovery/Libraries/STM32F4xx_StdPeriph_Driver/src/stm32f4xx_gpio.c **** /**
 358:App/STM32F4-Discovery/Libraries/STM32F4xx_StdPeriph_Driver/src/stm32f4xx_gpio.c ****   * @brief  Reads the specified GPIO output data port.
 359:App/STM32F4-Discovery/Libraries/STM32F4xx_StdPeriph_Driver/src/stm32f4xx_gpio.c ****   * @param  GPIOx: where x can be (A..I) to select the GPIO peripheral.
 360:App/STM32F4-Discovery/Libraries/STM32F4xx_StdPeriph_Driver/src/stm32f4xx_gpio.c ****   * @retval GPIO output data port value.
 361:App/STM32F4-Discovery/Libraries/STM32F4xx_StdPeriph_Driver/src/stm32f4xx_gpio.c ****   */
 362:App/STM32F4-Discovery/Libraries/STM32F4xx_StdPeriph_Driver/src/stm32f4xx_gpio.c **** uint16_t GPIO_ReadOutputData(GPIO_TypeDef* GPIOx)
 363:App/STM32F4-Discovery/Libraries/STM32F4xx_StdPeriph_Driver/src/stm32f4xx_gpio.c **** {
 1173              		.loc 1 363 0
 1174              		.cfi_startproc
 1175              		@ args = 0, pretend = 0, frame = 8
 1176              		@ frame_needed = 1, uses_anonymous_args = 0
 1177 0000 80B5     		push	{r7, lr}
 1178              	.LCFI21:
 1179              		.cfi_def_cfa_offset 8
 1180              		.cfi_offset 7, -8
 1181              		.cfi_offset 14, -4
 1182 0002 82B0     		sub	sp, sp, #8
 1183              	.LCFI22:
 1184              		.cfi_def_cfa_offset 16
 1185 0004 00AF     		add	r7, sp, #0
 1186              	.LCFI23:
 1187              		.cfi_def_cfa_register 7
 1188 0006 7860     		str	r0, [r7, #4]
 364:App/STM32F4-Discovery/Libraries/STM32F4xx_StdPeriph_Driver/src/stm32f4xx_gpio.c ****   /* Check the parameters */
 365:App/STM32F4-Discovery/Libraries/STM32F4xx_StdPeriph_Driver/src/stm32f4xx_gpio.c ****   assert_param(IS_GPIO_ALL_PERIPH(GPIOx));
 1189              		.loc 1 365 0
 1190 0008 7A68     		ldr	r2, [r7, #4]
 1191 000a 174B     		ldr	r3, .L58
 1192 000c 9A42     		cmp	r2, r3
 1193 000e 24D0     		beq	.L56
 1194              		.loc 1 365 0 is_stmt 0 discriminator 1
 1195 0010 7A68     		ldr	r2, [r7, #4]
 1196 0012 164B     		ldr	r3, .L58+4
 1197 0014 9A42     		cmp	r2, r3
 1198 0016 20D0     		beq	.L56
 1199 0018 7A68     		ldr	r2, [r7, #4]
 1200 001a 154B     		ldr	r3, .L58+8
 1201 001c 9A42     		cmp	r2, r3
 1202 001e 1CD0     		beq	.L56
 1203 0020 7A68     		ldr	r2, [r7, #4]
 1204 0022 144B     		ldr	r3, .L58+12
 1205 0024 9A42     		cmp	r2, r3
 1206 0026 18D0     		beq	.L56
 1207 0028 7A68     		ldr	r2, [r7, #4]
 1208 002a 134B     		ldr	r3, .L58+16
 1209 002c 9A42     		cmp	r2, r3
 1210 002e 14D0     		beq	.L56
 1211 0030 7A68     		ldr	r2, [r7, #4]
 1212 0032 124B     		ldr	r3, .L58+20
 1213 0034 9A42     		cmp	r2, r3
 1214 0036 10D0     		beq	.L56
 1215 0038 7A68     		ldr	r2, [r7, #4]
 1216 003a 114B     		ldr	r3, .L58+24
 1217 003c 9A42     		cmp	r2, r3
 1218 003e 0CD0     		beq	.L56
 1219 0040 7A68     		ldr	r2, [r7, #4]
 1220 0042 104B     		ldr	r3, .L58+28
 1221 0044 9A42     		cmp	r2, r3
 1222 0046 08D0     		beq	.L56
 1223 0048 7A68     		ldr	r2, [r7, #4]
 1224 004a 0F4B     		ldr	r3, .L58+32
 1225 004c 9A42     		cmp	r2, r3
 1226 004e 04D0     		beq	.L56
 1227 0050 0E48     		ldr	r0, .L58+36
 1228 0052 40F26D11 		movw	r1, #365
 1229 0056 FFF7FEFF 		bl	assert_failed
 1230              	.L56:
 366:App/STM32F4-Discovery/Libraries/STM32F4xx_StdPeriph_Driver/src/stm32f4xx_gpio.c **** 
 367:App/STM32F4-Discovery/Libraries/STM32F4xx_StdPeriph_Driver/src/stm32f4xx_gpio.c ****   return ((uint16_t)GPIOx->ODR);
 1231              		.loc 1 367 0 is_stmt 1
 1232 005a 7B68     		ldr	r3, [r7, #4]
 1233 005c 5B69     		ldr	r3, [r3, #20]
 1234 005e 9BB2     		uxth	r3, r3
 368:App/STM32F4-Discovery/Libraries/STM32F4xx_StdPeriph_Driver/src/stm32f4xx_gpio.c **** }
 1235              		.loc 1 368 0
 1236 0060 1846     		mov	r0, r3
 1237 0062 0837     		adds	r7, r7, #8
 1238 0064 BD46     		mov	sp, r7
 1239              		@ sp needed
 1240 0066 80BD     		pop	{r7, pc}
 1241              	.L59:
 1242              		.align	2
 1243              	.L58:
 1244 0068 00000240 		.word	1073872896
 1245 006c 00040240 		.word	1073873920
 1246 0070 00080240 		.word	1073874944
 1247 0074 000C0240 		.word	1073875968
 1248 0078 00100240 		.word	1073876992
 1249 007c 00140240 		.word	1073878016
 1250 0080 00180240 		.word	1073879040
 1251 0084 001C0240 		.word	1073880064
 1252 0088 00200240 		.word	1073881088
 1253 008c 00000000 		.word	.LC0
 1254              		.cfi_endproc
 1255              	.LFE117:
 1257              		.section	.text.GPIO_SetBits,"ax",%progbits
 1258              		.align	2
 1259              		.global	GPIO_SetBits
 1260              		.thumb
 1261              		.thumb_func
 1263              	GPIO_SetBits:
 1264              	.LFB118:
 369:App/STM32F4-Discovery/Libraries/STM32F4xx_StdPeriph_Driver/src/stm32f4xx_gpio.c **** 
 370:App/STM32F4-Discovery/Libraries/STM32F4xx_StdPeriph_Driver/src/stm32f4xx_gpio.c **** /**
 371:App/STM32F4-Discovery/Libraries/STM32F4xx_StdPeriph_Driver/src/stm32f4xx_gpio.c ****   * @brief  Sets the selected data port bits.
 372:App/STM32F4-Discovery/Libraries/STM32F4xx_StdPeriph_Driver/src/stm32f4xx_gpio.c ****   * @note   This functions uses GPIOx_BSRR register to allow atomic read/modify 
 373:App/STM32F4-Discovery/Libraries/STM32F4xx_StdPeriph_Driver/src/stm32f4xx_gpio.c ****   *         accesses. In this way, there is no risk of an IRQ occurring between
 374:App/STM32F4-Discovery/Libraries/STM32F4xx_StdPeriph_Driver/src/stm32f4xx_gpio.c ****   *         the read and the modify access.
 375:App/STM32F4-Discovery/Libraries/STM32F4xx_StdPeriph_Driver/src/stm32f4xx_gpio.c ****   * @param  GPIOx: where x can be (A..I) to select the GPIO peripheral.
 376:App/STM32F4-Discovery/Libraries/STM32F4xx_StdPeriph_Driver/src/stm32f4xx_gpio.c ****   * @param  GPIO_Pin: specifies the port bits to be written.
 377:App/STM32F4-Discovery/Libraries/STM32F4xx_StdPeriph_Driver/src/stm32f4xx_gpio.c ****   *          This parameter can be any combination of GPIO_Pin_x where x can be (0..15).
 378:App/STM32F4-Discovery/Libraries/STM32F4xx_StdPeriph_Driver/src/stm32f4xx_gpio.c ****   * @retval None
 379:App/STM32F4-Discovery/Libraries/STM32F4xx_StdPeriph_Driver/src/stm32f4xx_gpio.c ****   */
 380:App/STM32F4-Discovery/Libraries/STM32F4xx_StdPeriph_Driver/src/stm32f4xx_gpio.c **** void GPIO_SetBits(GPIO_TypeDef* GPIOx, uint16_t GPIO_Pin)
 381:App/STM32F4-Discovery/Libraries/STM32F4xx_StdPeriph_Driver/src/stm32f4xx_gpio.c **** {
 1265              		.loc 1 381 0
 1266              		.cfi_startproc
 1267              		@ args = 0, pretend = 0, frame = 8
 1268              		@ frame_needed = 1, uses_anonymous_args = 0
 1269 0000 80B5     		push	{r7, lr}
 1270              	.LCFI24:
 1271              		.cfi_def_cfa_offset 8
 1272              		.cfi_offset 7, -8
 1273              		.cfi_offset 14, -4
 1274 0002 82B0     		sub	sp, sp, #8
 1275              	.LCFI25:
 1276              		.cfi_def_cfa_offset 16
 1277 0004 00AF     		add	r7, sp, #0
 1278              	.LCFI26:
 1279              		.cfi_def_cfa_register 7
 1280 0006 7860     		str	r0, [r7, #4]
 1281 0008 0B46     		mov	r3, r1
 1282 000a 7B80     		strh	r3, [r7, #2]	@ movhi
 382:App/STM32F4-Discovery/Libraries/STM32F4xx_StdPeriph_Driver/src/stm32f4xx_gpio.c ****   /* Check the parameters */
 383:App/STM32F4-Discovery/Libraries/STM32F4xx_StdPeriph_Driver/src/stm32f4xx_gpio.c ****   assert_param(IS_GPIO_ALL_PERIPH(GPIOx));
 1283              		.loc 1 383 0
 1284 000c 7A68     		ldr	r2, [r7, #4]
 1285 000e 1B4B     		ldr	r3, .L63
 1286 0010 9A42     		cmp	r2, r3
 1287 0012 24D0     		beq	.L61
 1288              		.loc 1 383 0 is_stmt 0 discriminator 1
 1289 0014 7A68     		ldr	r2, [r7, #4]
 1290 0016 1A4B     		ldr	r3, .L63+4
 1291 0018 9A42     		cmp	r2, r3
 1292 001a 20D0     		beq	.L61
 1293 001c 7A68     		ldr	r2, [r7, #4]
 1294 001e 194B     		ldr	r3, .L63+8
 1295 0020 9A42     		cmp	r2, r3
 1296 0022 1CD0     		beq	.L61
 1297 0024 7A68     		ldr	r2, [r7, #4]
 1298 0026 184B     		ldr	r3, .L63+12
 1299 0028 9A42     		cmp	r2, r3
 1300 002a 18D0     		beq	.L61
 1301 002c 7A68     		ldr	r2, [r7, #4]
 1302 002e 174B     		ldr	r3, .L63+16
 1303 0030 9A42     		cmp	r2, r3
 1304 0032 14D0     		beq	.L61
 1305 0034 7A68     		ldr	r2, [r7, #4]
 1306 0036 164B     		ldr	r3, .L63+20
 1307 0038 9A42     		cmp	r2, r3
 1308 003a 10D0     		beq	.L61
 1309 003c 7A68     		ldr	r2, [r7, #4]
 1310 003e 154B     		ldr	r3, .L63+24
 1311 0040 9A42     		cmp	r2, r3
 1312 0042 0CD0     		beq	.L61
 1313 0044 7A68     		ldr	r2, [r7, #4]
 1314 0046 144B     		ldr	r3, .L63+28
 1315 0048 9A42     		cmp	r2, r3
 1316 004a 08D0     		beq	.L61
 1317 004c 7A68     		ldr	r2, [r7, #4]
 1318 004e 134B     		ldr	r3, .L63+32
 1319 0050 9A42     		cmp	r2, r3
 1320 0052 04D0     		beq	.L61
 1321 0054 1248     		ldr	r0, .L63+36
 1322 0056 40F27F11 		movw	r1, #383
 1323 005a FFF7FEFF 		bl	assert_failed
 1324              	.L61:
 384:App/STM32F4-Discovery/Libraries/STM32F4xx_StdPeriph_Driver/src/stm32f4xx_gpio.c ****   assert_param(IS_GPIO_PIN(GPIO_Pin));
 1325              		.loc 1 384 0 is_stmt 1
 1326 005e 7B88     		ldrh	r3, [r7, #2]
 1327 0060 002B     		cmp	r3, #0
 1328 0062 04D1     		bne	.L62
 1329              		.loc 1 384 0 is_stmt 0 discriminator 1
 1330 0064 0E48     		ldr	r0, .L63+36
 1331 0066 4FF4C071 		mov	r1, #384
 1332 006a FFF7FEFF 		bl	assert_failed
 1333              	.L62:
 385:App/STM32F4-Discovery/Libraries/STM32F4xx_StdPeriph_Driver/src/stm32f4xx_gpio.c **** 
 386:App/STM32F4-Discovery/Libraries/STM32F4xx_StdPeriph_Driver/src/stm32f4xx_gpio.c ****   GPIOx->BSRRL = GPIO_Pin;
 1334              		.loc 1 386 0 is_stmt 1
 1335 006e 7B68     		ldr	r3, [r7, #4]
 1336 0070 7A88     		ldrh	r2, [r7, #2]	@ movhi
 1337 0072 1A83     		strh	r2, [r3, #24]	@ movhi
 387:App/STM32F4-Discovery/Libraries/STM32F4xx_StdPeriph_Driver/src/stm32f4xx_gpio.c **** }
 1338              		.loc 1 387 0
 1339 0074 0837     		adds	r7, r7, #8
 1340 0076 BD46     		mov	sp, r7
 1341              		@ sp needed
 1342 0078 80BD     		pop	{r7, pc}
 1343              	.L64:
 1344 007a 00BF     		.align	2
 1345              	.L63:
 1346 007c 00000240 		.word	1073872896
 1347 0080 00040240 		.word	1073873920
 1348 0084 00080240 		.word	1073874944
 1349 0088 000C0240 		.word	1073875968
 1350 008c 00100240 		.word	1073876992
 1351 0090 00140240 		.word	1073878016
 1352 0094 00180240 		.word	1073879040
 1353 0098 001C0240 		.word	1073880064
 1354 009c 00200240 		.word	1073881088
 1355 00a0 00000000 		.word	.LC0
 1356              		.cfi_endproc
 1357              	.LFE118:
 1359              		.section	.text.GPIO_ResetBits,"ax",%progbits
 1360              		.align	2
 1361              		.global	GPIO_ResetBits
 1362              		.thumb
 1363              		.thumb_func
 1365              	GPIO_ResetBits:
 1366              	.LFB119:
 388:App/STM32F4-Discovery/Libraries/STM32F4xx_StdPeriph_Driver/src/stm32f4xx_gpio.c **** 
 389:App/STM32F4-Discovery/Libraries/STM32F4xx_StdPeriph_Driver/src/stm32f4xx_gpio.c **** /**
 390:App/STM32F4-Discovery/Libraries/STM32F4xx_StdPeriph_Driver/src/stm32f4xx_gpio.c ****   * @brief  Clears the selected data port bits.
 391:App/STM32F4-Discovery/Libraries/STM32F4xx_StdPeriph_Driver/src/stm32f4xx_gpio.c ****   * @note   This functions uses GPIOx_BSRR register to allow atomic read/modify 
 392:App/STM32F4-Discovery/Libraries/STM32F4xx_StdPeriph_Driver/src/stm32f4xx_gpio.c ****   *         accesses. In this way, there is no risk of an IRQ occurring between
 393:App/STM32F4-Discovery/Libraries/STM32F4xx_StdPeriph_Driver/src/stm32f4xx_gpio.c ****   *         the read and the modify access.
 394:App/STM32F4-Discovery/Libraries/STM32F4xx_StdPeriph_Driver/src/stm32f4xx_gpio.c ****   * @param  GPIOx: where x can be (A..I) to select the GPIO peripheral.
 395:App/STM32F4-Discovery/Libraries/STM32F4xx_StdPeriph_Driver/src/stm32f4xx_gpio.c ****   * @param  GPIO_Pin: specifies the port bits to be written.
 396:App/STM32F4-Discovery/Libraries/STM32F4xx_StdPeriph_Driver/src/stm32f4xx_gpio.c ****   *          This parameter can be any combination of GPIO_Pin_x where x can be (0..15).
 397:App/STM32F4-Discovery/Libraries/STM32F4xx_StdPeriph_Driver/src/stm32f4xx_gpio.c ****   * @retval None
 398:App/STM32F4-Discovery/Libraries/STM32F4xx_StdPeriph_Driver/src/stm32f4xx_gpio.c ****   */
 399:App/STM32F4-Discovery/Libraries/STM32F4xx_StdPeriph_Driver/src/stm32f4xx_gpio.c **** void GPIO_ResetBits(GPIO_TypeDef* GPIOx, uint16_t GPIO_Pin)
 400:App/STM32F4-Discovery/Libraries/STM32F4xx_StdPeriph_Driver/src/stm32f4xx_gpio.c **** {
 1367              		.loc 1 400 0
 1368              		.cfi_startproc
 1369              		@ args = 0, pretend = 0, frame = 8
 1370              		@ frame_needed = 1, uses_anonymous_args = 0
 1371 0000 80B5     		push	{r7, lr}
 1372              	.LCFI27:
 1373              		.cfi_def_cfa_offset 8
 1374              		.cfi_offset 7, -8
 1375              		.cfi_offset 14, -4
 1376 0002 82B0     		sub	sp, sp, #8
 1377              	.LCFI28:
 1378              		.cfi_def_cfa_offset 16
 1379 0004 00AF     		add	r7, sp, #0
 1380              	.LCFI29:
 1381              		.cfi_def_cfa_register 7
 1382 0006 7860     		str	r0, [r7, #4]
 1383 0008 0B46     		mov	r3, r1
 1384 000a 7B80     		strh	r3, [r7, #2]	@ movhi
 401:App/STM32F4-Discovery/Libraries/STM32F4xx_StdPeriph_Driver/src/stm32f4xx_gpio.c ****   /* Check the parameters */
 402:App/STM32F4-Discovery/Libraries/STM32F4xx_StdPeriph_Driver/src/stm32f4xx_gpio.c ****   assert_param(IS_GPIO_ALL_PERIPH(GPIOx));
 1385              		.loc 1 402 0
 1386 000c 7A68     		ldr	r2, [r7, #4]
 1387 000e 1B4B     		ldr	r3, .L68
 1388 0010 9A42     		cmp	r2, r3
 1389 0012 24D0     		beq	.L66
 1390              		.loc 1 402 0 is_stmt 0 discriminator 1
 1391 0014 7A68     		ldr	r2, [r7, #4]
 1392 0016 1A4B     		ldr	r3, .L68+4
 1393 0018 9A42     		cmp	r2, r3
 1394 001a 20D0     		beq	.L66
 1395 001c 7A68     		ldr	r2, [r7, #4]
 1396 001e 194B     		ldr	r3, .L68+8
 1397 0020 9A42     		cmp	r2, r3
 1398 0022 1CD0     		beq	.L66
 1399 0024 7A68     		ldr	r2, [r7, #4]
 1400 0026 184B     		ldr	r3, .L68+12
 1401 0028 9A42     		cmp	r2, r3
 1402 002a 18D0     		beq	.L66
 1403 002c 7A68     		ldr	r2, [r7, #4]
 1404 002e 174B     		ldr	r3, .L68+16
 1405 0030 9A42     		cmp	r2, r3
 1406 0032 14D0     		beq	.L66
 1407 0034 7A68     		ldr	r2, [r7, #4]
 1408 0036 164B     		ldr	r3, .L68+20
 1409 0038 9A42     		cmp	r2, r3
 1410 003a 10D0     		beq	.L66
 1411 003c 7A68     		ldr	r2, [r7, #4]
 1412 003e 154B     		ldr	r3, .L68+24
 1413 0040 9A42     		cmp	r2, r3
 1414 0042 0CD0     		beq	.L66
 1415 0044 7A68     		ldr	r2, [r7, #4]
 1416 0046 144B     		ldr	r3, .L68+28
 1417 0048 9A42     		cmp	r2, r3
 1418 004a 08D0     		beq	.L66
 1419 004c 7A68     		ldr	r2, [r7, #4]
 1420 004e 134B     		ldr	r3, .L68+32
 1421 0050 9A42     		cmp	r2, r3
 1422 0052 04D0     		beq	.L66
 1423 0054 1248     		ldr	r0, .L68+36
 1424 0056 4FF4C971 		mov	r1, #402
 1425 005a FFF7FEFF 		bl	assert_failed
 1426              	.L66:
 403:App/STM32F4-Discovery/Libraries/STM32F4xx_StdPeriph_Driver/src/stm32f4xx_gpio.c ****   assert_param(IS_GPIO_PIN(GPIO_Pin));
 1427              		.loc 1 403 0 is_stmt 1
 1428 005e 7B88     		ldrh	r3, [r7, #2]
 1429 0060 002B     		cmp	r3, #0
 1430 0062 04D1     		bne	.L67
 1431              		.loc 1 403 0 is_stmt 0 discriminator 1
 1432 0064 0E48     		ldr	r0, .L68+36
 1433 0066 40F29311 		movw	r1, #403
 1434 006a FFF7FEFF 		bl	assert_failed
 1435              	.L67:
 404:App/STM32F4-Discovery/Libraries/STM32F4xx_StdPeriph_Driver/src/stm32f4xx_gpio.c **** 
 405:App/STM32F4-Discovery/Libraries/STM32F4xx_StdPeriph_Driver/src/stm32f4xx_gpio.c ****   GPIOx->BSRRH = GPIO_Pin;
 1436              		.loc 1 405 0 is_stmt 1
 1437 006e 7B68     		ldr	r3, [r7, #4]
 1438 0070 7A88     		ldrh	r2, [r7, #2]	@ movhi
 1439 0072 5A83     		strh	r2, [r3, #26]	@ movhi
 406:App/STM32F4-Discovery/Libraries/STM32F4xx_StdPeriph_Driver/src/stm32f4xx_gpio.c **** }
 1440              		.loc 1 406 0
 1441 0074 0837     		adds	r7, r7, #8
 1442 0076 BD46     		mov	sp, r7
 1443              		@ sp needed
 1444 0078 80BD     		pop	{r7, pc}
 1445              	.L69:
 1446 007a 00BF     		.align	2
 1447              	.L68:
 1448 007c 00000240 		.word	1073872896
 1449 0080 00040240 		.word	1073873920
 1450 0084 00080240 		.word	1073874944
 1451 0088 000C0240 		.word	1073875968
 1452 008c 00100240 		.word	1073876992
 1453 0090 00140240 		.word	1073878016
 1454 0094 00180240 		.word	1073879040
 1455 0098 001C0240 		.word	1073880064
 1456 009c 00200240 		.word	1073881088
 1457 00a0 00000000 		.word	.LC0
 1458              		.cfi_endproc
 1459              	.LFE119:
 1461              		.section	.text.GPIO_WriteBit,"ax",%progbits
 1462              		.align	2
 1463              		.global	GPIO_WriteBit
 1464              		.thumb
 1465              		.thumb_func
 1467              	GPIO_WriteBit:
 1468              	.LFB120:
 407:App/STM32F4-Discovery/Libraries/STM32F4xx_StdPeriph_Driver/src/stm32f4xx_gpio.c **** 
 408:App/STM32F4-Discovery/Libraries/STM32F4xx_StdPeriph_Driver/src/stm32f4xx_gpio.c **** /**
 409:App/STM32F4-Discovery/Libraries/STM32F4xx_StdPeriph_Driver/src/stm32f4xx_gpio.c ****   * @brief  Sets or clears the selected data port bit.
 410:App/STM32F4-Discovery/Libraries/STM32F4xx_StdPeriph_Driver/src/stm32f4xx_gpio.c ****   * @param  GPIOx: where x can be (A..I) to select the GPIO peripheral.
 411:App/STM32F4-Discovery/Libraries/STM32F4xx_StdPeriph_Driver/src/stm32f4xx_gpio.c ****   * @param  GPIO_Pin: specifies the port bit to be written.
 412:App/STM32F4-Discovery/Libraries/STM32F4xx_StdPeriph_Driver/src/stm32f4xx_gpio.c ****   *          This parameter can be one of GPIO_Pin_x where x can be (0..15).
 413:App/STM32F4-Discovery/Libraries/STM32F4xx_StdPeriph_Driver/src/stm32f4xx_gpio.c ****   * @param  BitVal: specifies the value to be written to the selected bit.
 414:App/STM32F4-Discovery/Libraries/STM32F4xx_StdPeriph_Driver/src/stm32f4xx_gpio.c ****   *          This parameter can be one of the BitAction enum values:
 415:App/STM32F4-Discovery/Libraries/STM32F4xx_StdPeriph_Driver/src/stm32f4xx_gpio.c ****   *            @arg Bit_RESET: to clear the port pin
 416:App/STM32F4-Discovery/Libraries/STM32F4xx_StdPeriph_Driver/src/stm32f4xx_gpio.c ****   *            @arg Bit_SET: to set the port pin
 417:App/STM32F4-Discovery/Libraries/STM32F4xx_StdPeriph_Driver/src/stm32f4xx_gpio.c ****   * @retval None
 418:App/STM32F4-Discovery/Libraries/STM32F4xx_StdPeriph_Driver/src/stm32f4xx_gpio.c ****   */
 419:App/STM32F4-Discovery/Libraries/STM32F4xx_StdPeriph_Driver/src/stm32f4xx_gpio.c **** void GPIO_WriteBit(GPIO_TypeDef* GPIOx, uint16_t GPIO_Pin, BitAction BitVal)
 420:App/STM32F4-Discovery/Libraries/STM32F4xx_StdPeriph_Driver/src/stm32f4xx_gpio.c **** {
 1469              		.loc 1 420 0
 1470              		.cfi_startproc
 1471              		@ args = 0, pretend = 0, frame = 8
 1472              		@ frame_needed = 1, uses_anonymous_args = 0
 1473 0000 80B5     		push	{r7, lr}
 1474              	.LCFI30:
 1475              		.cfi_def_cfa_offset 8
 1476              		.cfi_offset 7, -8
 1477              		.cfi_offset 14, -4
 1478 0002 82B0     		sub	sp, sp, #8
 1479              	.LCFI31:
 1480              		.cfi_def_cfa_offset 16
 1481 0004 00AF     		add	r7, sp, #0
 1482              	.LCFI32:
 1483              		.cfi_def_cfa_register 7
 1484 0006 7860     		str	r0, [r7, #4]
 1485 0008 1346     		mov	r3, r2
 1486 000a 0A46     		mov	r2, r1	@ movhi
 1487 000c 7A80     		strh	r2, [r7, #2]	@ movhi
 1488 000e 7B70     		strb	r3, [r7, #1]
 421:App/STM32F4-Discovery/Libraries/STM32F4xx_StdPeriph_Driver/src/stm32f4xx_gpio.c ****   /* Check the parameters */
 422:App/STM32F4-Discovery/Libraries/STM32F4xx_StdPeriph_Driver/src/stm32f4xx_gpio.c ****   assert_param(IS_GPIO_ALL_PERIPH(GPIOx));
 1489              		.loc 1 422 0
 1490 0010 7A68     		ldr	r2, [r7, #4]
 1491 0012 3E4B     		ldr	r3, .L76
 1492 0014 9A42     		cmp	r2, r3
 1493 0016 24D0     		beq	.L71
 1494              		.loc 1 422 0 is_stmt 0 discriminator 1
 1495 0018 7A68     		ldr	r2, [r7, #4]
 1496 001a 3D4B     		ldr	r3, .L76+4
 1497 001c 9A42     		cmp	r2, r3
 1498 001e 20D0     		beq	.L71
 1499 0020 7A68     		ldr	r2, [r7, #4]
 1500 0022 3C4B     		ldr	r3, .L76+8
 1501 0024 9A42     		cmp	r2, r3
 1502 0026 1CD0     		beq	.L71
 1503 0028 7A68     		ldr	r2, [r7, #4]
 1504 002a 3B4B     		ldr	r3, .L76+12
 1505 002c 9A42     		cmp	r2, r3
 1506 002e 18D0     		beq	.L71
 1507 0030 7A68     		ldr	r2, [r7, #4]
 1508 0032 3A4B     		ldr	r3, .L76+16
 1509 0034 9A42     		cmp	r2, r3
 1510 0036 14D0     		beq	.L71
 1511 0038 7A68     		ldr	r2, [r7, #4]
 1512 003a 394B     		ldr	r3, .L76+20
 1513 003c 9A42     		cmp	r2, r3
 1514 003e 10D0     		beq	.L71
 1515 0040 7A68     		ldr	r2, [r7, #4]
 1516 0042 384B     		ldr	r3, .L76+24
 1517 0044 9A42     		cmp	r2, r3
 1518 0046 0CD0     		beq	.L71
 1519 0048 7A68     		ldr	r2, [r7, #4]
 1520 004a 374B     		ldr	r3, .L76+28
 1521 004c 9A42     		cmp	r2, r3
 1522 004e 08D0     		beq	.L71
 1523 0050 7A68     		ldr	r2, [r7, #4]
 1524 0052 364B     		ldr	r3, .L76+32
 1525 0054 9A42     		cmp	r2, r3
 1526 0056 04D0     		beq	.L71
 1527 0058 3548     		ldr	r0, .L76+36
 1528 005a 4FF4D371 		mov	r1, #422
 1529 005e FFF7FEFF 		bl	assert_failed
 1530              	.L71:
 423:App/STM32F4-Discovery/Libraries/STM32F4xx_StdPeriph_Driver/src/stm32f4xx_gpio.c ****   assert_param(IS_GET_GPIO_PIN(GPIO_Pin));
 1531              		.loc 1 423 0 is_stmt 1
 1532 0062 7B88     		ldrh	r3, [r7, #2]
 1533 0064 012B     		cmp	r3, #1
 1534 0066 39D0     		beq	.L72
 1535              		.loc 1 423 0 is_stmt 0 discriminator 1
 1536 0068 7B88     		ldrh	r3, [r7, #2]
 1537 006a 022B     		cmp	r3, #2
 1538 006c 36D0     		beq	.L72
 1539 006e 7B88     		ldrh	r3, [r7, #2]
 1540 0070 042B     		cmp	r3, #4
 1541 0072 33D0     		beq	.L72
 1542 0074 7B88     		ldrh	r3, [r7, #2]
 1543 0076 082B     		cmp	r3, #8
 1544 0078 30D0     		beq	.L72
 1545 007a 7B88     		ldrh	r3, [r7, #2]
 1546 007c 102B     		cmp	r3, #16
 1547 007e 2DD0     		beq	.L72
 1548 0080 7B88     		ldrh	r3, [r7, #2]
 1549 0082 202B     		cmp	r3, #32
 1550 0084 2AD0     		beq	.L72
 1551 0086 7B88     		ldrh	r3, [r7, #2]
 1552 0088 402B     		cmp	r3, #64
 1553 008a 27D0     		beq	.L72
 1554 008c 7B88     		ldrh	r3, [r7, #2]
 1555 008e 802B     		cmp	r3, #128
 1556 0090 24D0     		beq	.L72
 1557 0092 7B88     		ldrh	r3, [r7, #2]
 1558 0094 B3F5807F 		cmp	r3, #256
 1559 0098 20D0     		beq	.L72
 1560 009a 7B88     		ldrh	r3, [r7, #2]
 1561 009c B3F5007F 		cmp	r3, #512
 1562 00a0 1CD0     		beq	.L72
 1563 00a2 7B88     		ldrh	r3, [r7, #2]
 1564 00a4 B3F5806F 		cmp	r3, #1024
 1565 00a8 18D0     		beq	.L72
 1566 00aa 7B88     		ldrh	r3, [r7, #2]
 1567 00ac B3F5006F 		cmp	r3, #2048
 1568 00b0 14D0     		beq	.L72
 1569 00b2 7B88     		ldrh	r3, [r7, #2]
 1570 00b4 B3F5805F 		cmp	r3, #4096
 1571 00b8 10D0     		beq	.L72
 1572 00ba 7B88     		ldrh	r3, [r7, #2]
 1573 00bc B3F5005F 		cmp	r3, #8192
 1574 00c0 0CD0     		beq	.L72
 1575 00c2 7B88     		ldrh	r3, [r7, #2]
 1576 00c4 B3F5804F 		cmp	r3, #16384
 1577 00c8 08D0     		beq	.L72
 1578 00ca 7B88     		ldrh	r3, [r7, #2]
 1579 00cc B3F5004F 		cmp	r3, #32768
 1580 00d0 04D0     		beq	.L72
 1581 00d2 1748     		ldr	r0, .L76+36
 1582 00d4 40F2A711 		movw	r1, #423
 1583 00d8 FFF7FEFF 		bl	assert_failed
 1584              	.L72:
 424:App/STM32F4-Discovery/Libraries/STM32F4xx_StdPeriph_Driver/src/stm32f4xx_gpio.c ****   assert_param(IS_GPIO_BIT_ACTION(BitVal));
 1585              		.loc 1 424 0 is_stmt 1
 1586 00dc 7B78     		ldrb	r3, [r7, #1]	@ zero_extendqisi2
 1587 00de 002B     		cmp	r3, #0
 1588 00e0 07D0     		beq	.L73
 1589              		.loc 1 424 0 is_stmt 0 discriminator 1
 1590 00e2 7B78     		ldrb	r3, [r7, #1]	@ zero_extendqisi2
 1591 00e4 012B     		cmp	r3, #1
 1592 00e6 04D0     		beq	.L73
 1593 00e8 1148     		ldr	r0, .L76+36
 1594 00ea 4FF4D471 		mov	r1, #424
 1595 00ee FFF7FEFF 		bl	assert_failed
 1596              	.L73:
 425:App/STM32F4-Discovery/Libraries/STM32F4xx_StdPeriph_Driver/src/stm32f4xx_gpio.c **** 
 426:App/STM32F4-Discovery/Libraries/STM32F4xx_StdPeriph_Driver/src/stm32f4xx_gpio.c ****   if (BitVal != Bit_RESET)
 1597              		.loc 1 426 0 is_stmt 1
 1598 00f2 7B78     		ldrb	r3, [r7, #1]	@ zero_extendqisi2
 1599 00f4 002B     		cmp	r3, #0
 1600 00f6 03D0     		beq	.L74
 427:App/STM32F4-Discovery/Libraries/STM32F4xx_StdPeriph_Driver/src/stm32f4xx_gpio.c ****   {
 428:App/STM32F4-Discovery/Libraries/STM32F4xx_StdPeriph_Driver/src/stm32f4xx_gpio.c ****     GPIOx->BSRRL = GPIO_Pin;
 1601              		.loc 1 428 0
 1602 00f8 7B68     		ldr	r3, [r7, #4]
 1603 00fa 7A88     		ldrh	r2, [r7, #2]	@ movhi
 1604 00fc 1A83     		strh	r2, [r3, #24]	@ movhi
 1605 00fe 02E0     		b	.L70
 1606              	.L74:
 429:App/STM32F4-Discovery/Libraries/STM32F4xx_StdPeriph_Driver/src/stm32f4xx_gpio.c ****   }
 430:App/STM32F4-Discovery/Libraries/STM32F4xx_StdPeriph_Driver/src/stm32f4xx_gpio.c ****   else
 431:App/STM32F4-Discovery/Libraries/STM32F4xx_StdPeriph_Driver/src/stm32f4xx_gpio.c ****   {
 432:App/STM32F4-Discovery/Libraries/STM32F4xx_StdPeriph_Driver/src/stm32f4xx_gpio.c ****     GPIOx->BSRRH = GPIO_Pin ;
 1607              		.loc 1 432 0
 1608 0100 7B68     		ldr	r3, [r7, #4]
 1609 0102 7A88     		ldrh	r2, [r7, #2]	@ movhi
 1610 0104 5A83     		strh	r2, [r3, #26]	@ movhi
 1611              	.L70:
 433:App/STM32F4-Discovery/Libraries/STM32F4xx_StdPeriph_Driver/src/stm32f4xx_gpio.c ****   }
 434:App/STM32F4-Discovery/Libraries/STM32F4xx_StdPeriph_Driver/src/stm32f4xx_gpio.c **** }
 1612              		.loc 1 434 0
 1613 0106 0837     		adds	r7, r7, #8
 1614 0108 BD46     		mov	sp, r7
 1615              		@ sp needed
 1616 010a 80BD     		pop	{r7, pc}
 1617              	.L77:
 1618              		.align	2
 1619              	.L76:
 1620 010c 00000240 		.word	1073872896
 1621 0110 00040240 		.word	1073873920
 1622 0114 00080240 		.word	1073874944
 1623 0118 000C0240 		.word	1073875968
 1624 011c 00100240 		.word	1073876992
 1625 0120 00140240 		.word	1073878016
 1626 0124 00180240 		.word	1073879040
 1627 0128 001C0240 		.word	1073880064
 1628 012c 00200240 		.word	1073881088
 1629 0130 00000000 		.word	.LC0
 1630              		.cfi_endproc
 1631              	.LFE120:
 1633              		.section	.text.GPIO_Write,"ax",%progbits
 1634              		.align	2
 1635              		.global	GPIO_Write
 1636              		.thumb
 1637              		.thumb_func
 1639              	GPIO_Write:
 1640              	.LFB121:
 435:App/STM32F4-Discovery/Libraries/STM32F4xx_StdPeriph_Driver/src/stm32f4xx_gpio.c **** 
 436:App/STM32F4-Discovery/Libraries/STM32F4xx_StdPeriph_Driver/src/stm32f4xx_gpio.c **** /**
 437:App/STM32F4-Discovery/Libraries/STM32F4xx_StdPeriph_Driver/src/stm32f4xx_gpio.c ****   * @brief  Writes data to the specified GPIO data port.
 438:App/STM32F4-Discovery/Libraries/STM32F4xx_StdPeriph_Driver/src/stm32f4xx_gpio.c ****   * @param  GPIOx: where x can be (A..I) to select the GPIO peripheral.
 439:App/STM32F4-Discovery/Libraries/STM32F4xx_StdPeriph_Driver/src/stm32f4xx_gpio.c ****   * @param  PortVal: specifies the value to be written to the port output data register.
 440:App/STM32F4-Discovery/Libraries/STM32F4xx_StdPeriph_Driver/src/stm32f4xx_gpio.c ****   * @retval None
 441:App/STM32F4-Discovery/Libraries/STM32F4xx_StdPeriph_Driver/src/stm32f4xx_gpio.c ****   */
 442:App/STM32F4-Discovery/Libraries/STM32F4xx_StdPeriph_Driver/src/stm32f4xx_gpio.c **** void GPIO_Write(GPIO_TypeDef* GPIOx, uint16_t PortVal)
 443:App/STM32F4-Discovery/Libraries/STM32F4xx_StdPeriph_Driver/src/stm32f4xx_gpio.c **** {
 1641              		.loc 1 443 0
 1642              		.cfi_startproc
 1643              		@ args = 0, pretend = 0, frame = 8
 1644              		@ frame_needed = 1, uses_anonymous_args = 0
 1645 0000 80B5     		push	{r7, lr}
 1646              	.LCFI33:
 1647              		.cfi_def_cfa_offset 8
 1648              		.cfi_offset 7, -8
 1649              		.cfi_offset 14, -4
 1650 0002 82B0     		sub	sp, sp, #8
 1651              	.LCFI34:
 1652              		.cfi_def_cfa_offset 16
 1653 0004 00AF     		add	r7, sp, #0
 1654              	.LCFI35:
 1655              		.cfi_def_cfa_register 7
 1656 0006 7860     		str	r0, [r7, #4]
 1657 0008 0B46     		mov	r3, r1
 1658 000a 7B80     		strh	r3, [r7, #2]	@ movhi
 444:App/STM32F4-Discovery/Libraries/STM32F4xx_StdPeriph_Driver/src/stm32f4xx_gpio.c ****   /* Check the parameters */
 445:App/STM32F4-Discovery/Libraries/STM32F4xx_StdPeriph_Driver/src/stm32f4xx_gpio.c ****   assert_param(IS_GPIO_ALL_PERIPH(GPIOx));
 1659              		.loc 1 445 0
 1660 000c 7A68     		ldr	r2, [r7, #4]
 1661 000e 174B     		ldr	r3, .L80
 1662 0010 9A42     		cmp	r2, r3
 1663 0012 24D0     		beq	.L79
 1664              		.loc 1 445 0 is_stmt 0 discriminator 1
 1665 0014 7A68     		ldr	r2, [r7, #4]
 1666 0016 164B     		ldr	r3, .L80+4
 1667 0018 9A42     		cmp	r2, r3
 1668 001a 20D0     		beq	.L79
 1669 001c 7A68     		ldr	r2, [r7, #4]
 1670 001e 154B     		ldr	r3, .L80+8
 1671 0020 9A42     		cmp	r2, r3
 1672 0022 1CD0     		beq	.L79
 1673 0024 7A68     		ldr	r2, [r7, #4]
 1674 0026 144B     		ldr	r3, .L80+12
 1675 0028 9A42     		cmp	r2, r3
 1676 002a 18D0     		beq	.L79
 1677 002c 7A68     		ldr	r2, [r7, #4]
 1678 002e 134B     		ldr	r3, .L80+16
 1679 0030 9A42     		cmp	r2, r3
 1680 0032 14D0     		beq	.L79
 1681 0034 7A68     		ldr	r2, [r7, #4]
 1682 0036 124B     		ldr	r3, .L80+20
 1683 0038 9A42     		cmp	r2, r3
 1684 003a 10D0     		beq	.L79
 1685 003c 7A68     		ldr	r2, [r7, #4]
 1686 003e 114B     		ldr	r3, .L80+24
 1687 0040 9A42     		cmp	r2, r3
 1688 0042 0CD0     		beq	.L79
 1689 0044 7A68     		ldr	r2, [r7, #4]
 1690 0046 104B     		ldr	r3, .L80+28
 1691 0048 9A42     		cmp	r2, r3
 1692 004a 08D0     		beq	.L79
 1693 004c 7A68     		ldr	r2, [r7, #4]
 1694 004e 0F4B     		ldr	r3, .L80+32
 1695 0050 9A42     		cmp	r2, r3
 1696 0052 04D0     		beq	.L79
 1697 0054 0E48     		ldr	r0, .L80+36
 1698 0056 40F2BD11 		movw	r1, #445
 1699 005a FFF7FEFF 		bl	assert_failed
 1700              	.L79:
 446:App/STM32F4-Discovery/Libraries/STM32F4xx_StdPeriph_Driver/src/stm32f4xx_gpio.c **** 
 447:App/STM32F4-Discovery/Libraries/STM32F4xx_StdPeriph_Driver/src/stm32f4xx_gpio.c ****   GPIOx->ODR = PortVal;
 1701              		.loc 1 447 0 is_stmt 1
 1702 005e 7A88     		ldrh	r2, [r7, #2]
 1703 0060 7B68     		ldr	r3, [r7, #4]
 1704 0062 5A61     		str	r2, [r3, #20]
 448:App/STM32F4-Discovery/Libraries/STM32F4xx_StdPeriph_Driver/src/stm32f4xx_gpio.c **** }
 1705              		.loc 1 448 0
 1706 0064 0837     		adds	r7, r7, #8
 1707 0066 BD46     		mov	sp, r7
 1708              		@ sp needed
 1709 0068 80BD     		pop	{r7, pc}
 1710              	.L81:
 1711 006a 00BF     		.align	2
 1712              	.L80:
 1713 006c 00000240 		.word	1073872896
 1714 0070 00040240 		.word	1073873920
 1715 0074 00080240 		.word	1073874944
 1716 0078 000C0240 		.word	1073875968
 1717 007c 00100240 		.word	1073876992
 1718 0080 00140240 		.word	1073878016
 1719 0084 00180240 		.word	1073879040
 1720 0088 001C0240 		.word	1073880064
 1721 008c 00200240 		.word	1073881088
 1722 0090 00000000 		.word	.LC0
 1723              		.cfi_endproc
 1724              	.LFE121:
 1726              		.section	.text.GPIO_ToggleBits,"ax",%progbits
 1727              		.align	2
 1728              		.global	GPIO_ToggleBits
 1729              		.thumb
 1730              		.thumb_func
 1732              	GPIO_ToggleBits:
 1733              	.LFB122:
 449:App/STM32F4-Discovery/Libraries/STM32F4xx_StdPeriph_Driver/src/stm32f4xx_gpio.c **** 
 450:App/STM32F4-Discovery/Libraries/STM32F4xx_StdPeriph_Driver/src/stm32f4xx_gpio.c **** /**
 451:App/STM32F4-Discovery/Libraries/STM32F4xx_StdPeriph_Driver/src/stm32f4xx_gpio.c ****   * @brief  Toggles the specified GPIO pins..
 452:App/STM32F4-Discovery/Libraries/STM32F4xx_StdPeriph_Driver/src/stm32f4xx_gpio.c ****   * @param  GPIOx: where x can be (A..I) to select the GPIO peripheral.
 453:App/STM32F4-Discovery/Libraries/STM32F4xx_StdPeriph_Driver/src/stm32f4xx_gpio.c ****   * @param  GPIO_Pin: Specifies the pins to be toggled.
 454:App/STM32F4-Discovery/Libraries/STM32F4xx_StdPeriph_Driver/src/stm32f4xx_gpio.c ****   * @retval None
 455:App/STM32F4-Discovery/Libraries/STM32F4xx_StdPeriph_Driver/src/stm32f4xx_gpio.c ****   */
 456:App/STM32F4-Discovery/Libraries/STM32F4xx_StdPeriph_Driver/src/stm32f4xx_gpio.c **** void GPIO_ToggleBits(GPIO_TypeDef* GPIOx, uint16_t GPIO_Pin)
 457:App/STM32F4-Discovery/Libraries/STM32F4xx_StdPeriph_Driver/src/stm32f4xx_gpio.c **** {
 1734              		.loc 1 457 0
 1735              		.cfi_startproc
 1736              		@ args = 0, pretend = 0, frame = 8
 1737              		@ frame_needed = 1, uses_anonymous_args = 0
 1738 0000 80B5     		push	{r7, lr}
 1739              	.LCFI36:
 1740              		.cfi_def_cfa_offset 8
 1741              		.cfi_offset 7, -8
 1742              		.cfi_offset 14, -4
 1743 0002 82B0     		sub	sp, sp, #8
 1744              	.LCFI37:
 1745              		.cfi_def_cfa_offset 16
 1746 0004 00AF     		add	r7, sp, #0
 1747              	.LCFI38:
 1748              		.cfi_def_cfa_register 7
 1749 0006 7860     		str	r0, [r7, #4]
 1750 0008 0B46     		mov	r3, r1
 1751 000a 7B80     		strh	r3, [r7, #2]	@ movhi
 458:App/STM32F4-Discovery/Libraries/STM32F4xx_StdPeriph_Driver/src/stm32f4xx_gpio.c ****   /* Check the parameters */
 459:App/STM32F4-Discovery/Libraries/STM32F4xx_StdPeriph_Driver/src/stm32f4xx_gpio.c ****   assert_param(IS_GPIO_ALL_PERIPH(GPIOx));
 1752              		.loc 1 459 0
 1753 000c 7A68     		ldr	r2, [r7, #4]
 1754 000e 184B     		ldr	r3, .L84
 1755 0010 9A42     		cmp	r2, r3
 1756 0012 24D0     		beq	.L83
 1757              		.loc 1 459 0 is_stmt 0 discriminator 1
 1758 0014 7A68     		ldr	r2, [r7, #4]
 1759 0016 174B     		ldr	r3, .L84+4
 1760 0018 9A42     		cmp	r2, r3
 1761 001a 20D0     		beq	.L83
 1762 001c 7A68     		ldr	r2, [r7, #4]
 1763 001e 164B     		ldr	r3, .L84+8
 1764 0020 9A42     		cmp	r2, r3
 1765 0022 1CD0     		beq	.L83
 1766 0024 7A68     		ldr	r2, [r7, #4]
 1767 0026 154B     		ldr	r3, .L84+12
 1768 0028 9A42     		cmp	r2, r3
 1769 002a 18D0     		beq	.L83
 1770 002c 7A68     		ldr	r2, [r7, #4]
 1771 002e 144B     		ldr	r3, .L84+16
 1772 0030 9A42     		cmp	r2, r3
 1773 0032 14D0     		beq	.L83
 1774 0034 7A68     		ldr	r2, [r7, #4]
 1775 0036 134B     		ldr	r3, .L84+20
 1776 0038 9A42     		cmp	r2, r3
 1777 003a 10D0     		beq	.L83
 1778 003c 7A68     		ldr	r2, [r7, #4]
 1779 003e 124B     		ldr	r3, .L84+24
 1780 0040 9A42     		cmp	r2, r3
 1781 0042 0CD0     		beq	.L83
 1782 0044 7A68     		ldr	r2, [r7, #4]
 1783 0046 114B     		ldr	r3, .L84+28
 1784 0048 9A42     		cmp	r2, r3
 1785 004a 08D0     		beq	.L83
 1786 004c 7A68     		ldr	r2, [r7, #4]
 1787 004e 104B     		ldr	r3, .L84+32
 1788 0050 9A42     		cmp	r2, r3
 1789 0052 04D0     		beq	.L83
 1790 0054 0F48     		ldr	r0, .L84+36
 1791 0056 40F2CB11 		movw	r1, #459
 1792 005a FFF7FEFF 		bl	assert_failed
 1793              	.L83:
 460:App/STM32F4-Discovery/Libraries/STM32F4xx_StdPeriph_Driver/src/stm32f4xx_gpio.c **** 
 461:App/STM32F4-Discovery/Libraries/STM32F4xx_StdPeriph_Driver/src/stm32f4xx_gpio.c ****   GPIOx->ODR ^= GPIO_Pin;
 1794              		.loc 1 461 0 is_stmt 1
 1795 005e 7B68     		ldr	r3, [r7, #4]
 1796 0060 5A69     		ldr	r2, [r3, #20]
 1797 0062 7B88     		ldrh	r3, [r7, #2]
 1798 0064 5A40     		eors	r2, r2, r3
 1799 0066 7B68     		ldr	r3, [r7, #4]
 1800 0068 5A61     		str	r2, [r3, #20]
 462:App/STM32F4-Discovery/Libraries/STM32F4xx_StdPeriph_Driver/src/stm32f4xx_gpio.c **** }
 1801              		.loc 1 462 0
 1802 006a 0837     		adds	r7, r7, #8
 1803 006c BD46     		mov	sp, r7
 1804              		@ sp needed
 1805 006e 80BD     		pop	{r7, pc}
 1806              	.L85:
 1807              		.align	2
 1808              	.L84:
 1809 0070 00000240 		.word	1073872896
 1810 0074 00040240 		.word	1073873920
 1811 0078 00080240 		.word	1073874944
 1812 007c 000C0240 		.word	1073875968
 1813 0080 00100240 		.word	1073876992
 1814 0084 00140240 		.word	1073878016
 1815 0088 00180240 		.word	1073879040
 1816 008c 001C0240 		.word	1073880064
 1817 0090 00200240 		.word	1073881088
 1818 0094 00000000 		.word	.LC0
 1819              		.cfi_endproc
 1820              	.LFE122:
 1822              		.section	.text.GPIO_PinAFConfig,"ax",%progbits
 1823              		.align	2
 1824              		.global	GPIO_PinAFConfig
 1825              		.thumb
 1826              		.thumb_func
 1828              	GPIO_PinAFConfig:
 1829              	.LFB123:
 463:App/STM32F4-Discovery/Libraries/STM32F4xx_StdPeriph_Driver/src/stm32f4xx_gpio.c **** 
 464:App/STM32F4-Discovery/Libraries/STM32F4xx_StdPeriph_Driver/src/stm32f4xx_gpio.c **** /**
 465:App/STM32F4-Discovery/Libraries/STM32F4xx_StdPeriph_Driver/src/stm32f4xx_gpio.c ****   * @}
 466:App/STM32F4-Discovery/Libraries/STM32F4xx_StdPeriph_Driver/src/stm32f4xx_gpio.c ****   */
 467:App/STM32F4-Discovery/Libraries/STM32F4xx_StdPeriph_Driver/src/stm32f4xx_gpio.c **** 
 468:App/STM32F4-Discovery/Libraries/STM32F4xx_StdPeriph_Driver/src/stm32f4xx_gpio.c **** /** @defgroup GPIO_Group3 GPIO Alternate functions configuration function
 469:App/STM32F4-Discovery/Libraries/STM32F4xx_StdPeriph_Driver/src/stm32f4xx_gpio.c ****  *  @brief   GPIO Alternate functions configuration function
 470:App/STM32F4-Discovery/Libraries/STM32F4xx_StdPeriph_Driver/src/stm32f4xx_gpio.c ****  *
 471:App/STM32F4-Discovery/Libraries/STM32F4xx_StdPeriph_Driver/src/stm32f4xx_gpio.c **** @verbatim   
 472:App/STM32F4-Discovery/Libraries/STM32F4xx_StdPeriph_Driver/src/stm32f4xx_gpio.c ****  ===============================================================================
 473:App/STM32F4-Discovery/Libraries/STM32F4xx_StdPeriph_Driver/src/stm32f4xx_gpio.c ****                GPIO Alternate functions configuration function
 474:App/STM32F4-Discovery/Libraries/STM32F4xx_StdPeriph_Driver/src/stm32f4xx_gpio.c ****  ===============================================================================  
 475:App/STM32F4-Discovery/Libraries/STM32F4xx_StdPeriph_Driver/src/stm32f4xx_gpio.c **** 
 476:App/STM32F4-Discovery/Libraries/STM32F4xx_StdPeriph_Driver/src/stm32f4xx_gpio.c **** @endverbatim
 477:App/STM32F4-Discovery/Libraries/STM32F4xx_StdPeriph_Driver/src/stm32f4xx_gpio.c ****   * @{
 478:App/STM32F4-Discovery/Libraries/STM32F4xx_StdPeriph_Driver/src/stm32f4xx_gpio.c ****   */
 479:App/STM32F4-Discovery/Libraries/STM32F4xx_StdPeriph_Driver/src/stm32f4xx_gpio.c **** 
 480:App/STM32F4-Discovery/Libraries/STM32F4xx_StdPeriph_Driver/src/stm32f4xx_gpio.c **** /**
 481:App/STM32F4-Discovery/Libraries/STM32F4xx_StdPeriph_Driver/src/stm32f4xx_gpio.c ****   * @brief  Changes the mapping of the specified pin.
 482:App/STM32F4-Discovery/Libraries/STM32F4xx_StdPeriph_Driver/src/stm32f4xx_gpio.c ****   * @param  GPIOx: where x can be (A..I) to select the GPIO peripheral.
 483:App/STM32F4-Discovery/Libraries/STM32F4xx_StdPeriph_Driver/src/stm32f4xx_gpio.c ****   * @param  GPIO_PinSource: specifies the pin for the Alternate function.
 484:App/STM32F4-Discovery/Libraries/STM32F4xx_StdPeriph_Driver/src/stm32f4xx_gpio.c ****   *         This parameter can be GPIO_PinSourcex where x can be (0..15).
 485:App/STM32F4-Discovery/Libraries/STM32F4xx_StdPeriph_Driver/src/stm32f4xx_gpio.c ****   * @param  GPIO_AFSelection: selects the pin to used as Alternate function.
 486:App/STM32F4-Discovery/Libraries/STM32F4xx_StdPeriph_Driver/src/stm32f4xx_gpio.c ****   *          This parameter can be one of the following values:
 487:App/STM32F4-Discovery/Libraries/STM32F4xx_StdPeriph_Driver/src/stm32f4xx_gpio.c ****   *            @arg GPIO_AF_RTC_50Hz: Connect RTC_50Hz pin to AF0 (default after reset) 
 488:App/STM32F4-Discovery/Libraries/STM32F4xx_StdPeriph_Driver/src/stm32f4xx_gpio.c ****   *            @arg GPIO_AF_MCO: Connect MCO pin (MCO1 and MCO2) to AF0 (default after reset) 
 489:App/STM32F4-Discovery/Libraries/STM32F4xx_StdPeriph_Driver/src/stm32f4xx_gpio.c ****   *            @arg GPIO_AF_TAMPER: Connect TAMPER pins (TAMPER_1 and TAMPER_2) to AF0 (default aft
 490:App/STM32F4-Discovery/Libraries/STM32F4xx_StdPeriph_Driver/src/stm32f4xx_gpio.c ****   *            @arg GPIO_AF_SWJ: Connect SWJ pins (SWD and JTAG)to AF0 (default after reset) 
 491:App/STM32F4-Discovery/Libraries/STM32F4xx_StdPeriph_Driver/src/stm32f4xx_gpio.c ****   *            @arg GPIO_AF_TRACE: Connect TRACE pins to AF0 (default after reset)
 492:App/STM32F4-Discovery/Libraries/STM32F4xx_StdPeriph_Driver/src/stm32f4xx_gpio.c ****   *            @arg GPIO_AF_TIM1: Connect TIM1 pins to AF1
 493:App/STM32F4-Discovery/Libraries/STM32F4xx_StdPeriph_Driver/src/stm32f4xx_gpio.c ****   *            @arg GPIO_AF_TIM2: Connect TIM2 pins to AF1
 494:App/STM32F4-Discovery/Libraries/STM32F4xx_StdPeriph_Driver/src/stm32f4xx_gpio.c ****   *            @arg GPIO_AF_TIM3: Connect TIM3 pins to AF2
 495:App/STM32F4-Discovery/Libraries/STM32F4xx_StdPeriph_Driver/src/stm32f4xx_gpio.c ****   *            @arg GPIO_AF_TIM4: Connect TIM4 pins to AF2
 496:App/STM32F4-Discovery/Libraries/STM32F4xx_StdPeriph_Driver/src/stm32f4xx_gpio.c ****   *            @arg GPIO_AF_TIM5: Connect TIM5 pins to AF2
 497:App/STM32F4-Discovery/Libraries/STM32F4xx_StdPeriph_Driver/src/stm32f4xx_gpio.c ****   *            @arg GPIO_AF_TIM8: Connect TIM8 pins to AF3
 498:App/STM32F4-Discovery/Libraries/STM32F4xx_StdPeriph_Driver/src/stm32f4xx_gpio.c ****   *            @arg GPIO_AF_TIM9: Connect TIM9 pins to AF3
 499:App/STM32F4-Discovery/Libraries/STM32F4xx_StdPeriph_Driver/src/stm32f4xx_gpio.c ****   *            @arg GPIO_AF_TIM10: Connect TIM10 pins to AF3
 500:App/STM32F4-Discovery/Libraries/STM32F4xx_StdPeriph_Driver/src/stm32f4xx_gpio.c ****   *            @arg GPIO_AF_TIM11: Connect TIM11 pins to AF3
 501:App/STM32F4-Discovery/Libraries/STM32F4xx_StdPeriph_Driver/src/stm32f4xx_gpio.c ****   *            @arg GPIO_AF_I2C1: Connect I2C1 pins to AF4
 502:App/STM32F4-Discovery/Libraries/STM32F4xx_StdPeriph_Driver/src/stm32f4xx_gpio.c ****   *            @arg GPIO_AF_I2C2: Connect I2C2 pins to AF4
 503:App/STM32F4-Discovery/Libraries/STM32F4xx_StdPeriph_Driver/src/stm32f4xx_gpio.c ****   *            @arg GPIO_AF_I2C3: Connect I2C3 pins to AF4
 504:App/STM32F4-Discovery/Libraries/STM32F4xx_StdPeriph_Driver/src/stm32f4xx_gpio.c ****   *            @arg GPIO_AF_SPI1: Connect SPI1 pins to AF5
 505:App/STM32F4-Discovery/Libraries/STM32F4xx_StdPeriph_Driver/src/stm32f4xx_gpio.c ****   *            @arg GPIO_AF_SPI2: Connect SPI2/I2S2 pins to AF5
 506:App/STM32F4-Discovery/Libraries/STM32F4xx_StdPeriph_Driver/src/stm32f4xx_gpio.c ****   *            @arg GPIO_AF_SPI3: Connect SPI3/I2S3 pins to AF6
 507:App/STM32F4-Discovery/Libraries/STM32F4xx_StdPeriph_Driver/src/stm32f4xx_gpio.c ****   *            @arg GPIO_AF_I2S3ext: Connect I2S3ext pins to AF7
 508:App/STM32F4-Discovery/Libraries/STM32F4xx_StdPeriph_Driver/src/stm32f4xx_gpio.c ****   *            @arg GPIO_AF_USART1: Connect USART1 pins to AF7
 509:App/STM32F4-Discovery/Libraries/STM32F4xx_StdPeriph_Driver/src/stm32f4xx_gpio.c ****   *            @arg GPIO_AF_USART2: Connect USART2 pins to AF7
 510:App/STM32F4-Discovery/Libraries/STM32F4xx_StdPeriph_Driver/src/stm32f4xx_gpio.c ****   *            @arg GPIO_AF_USART3: Connect USART3 pins to AF7
 511:App/STM32F4-Discovery/Libraries/STM32F4xx_StdPeriph_Driver/src/stm32f4xx_gpio.c ****   *            @arg GPIO_AF_UART4: Connect UART4 pins to AF8
 512:App/STM32F4-Discovery/Libraries/STM32F4xx_StdPeriph_Driver/src/stm32f4xx_gpio.c ****   *            @arg GPIO_AF_UART5: Connect UART5 pins to AF8
 513:App/STM32F4-Discovery/Libraries/STM32F4xx_StdPeriph_Driver/src/stm32f4xx_gpio.c ****   *            @arg GPIO_AF_USART6: Connect USART6 pins to AF8
 514:App/STM32F4-Discovery/Libraries/STM32F4xx_StdPeriph_Driver/src/stm32f4xx_gpio.c ****   *            @arg GPIO_AF_CAN1: Connect CAN1 pins to AF9
 515:App/STM32F4-Discovery/Libraries/STM32F4xx_StdPeriph_Driver/src/stm32f4xx_gpio.c ****   *            @arg GPIO_AF_CAN2: Connect CAN2 pins to AF9
 516:App/STM32F4-Discovery/Libraries/STM32F4xx_StdPeriph_Driver/src/stm32f4xx_gpio.c ****   *            @arg GPIO_AF_TIM12: Connect TIM12 pins to AF9
 517:App/STM32F4-Discovery/Libraries/STM32F4xx_StdPeriph_Driver/src/stm32f4xx_gpio.c ****   *            @arg GPIO_AF_TIM13: Connect TIM13 pins to AF9
 518:App/STM32F4-Discovery/Libraries/STM32F4xx_StdPeriph_Driver/src/stm32f4xx_gpio.c ****   *            @arg GPIO_AF_TIM14: Connect TIM14 pins to AF9
 519:App/STM32F4-Discovery/Libraries/STM32F4xx_StdPeriph_Driver/src/stm32f4xx_gpio.c ****   *            @arg GPIO_AF_OTG_FS: Connect OTG_FS pins to AF10
 520:App/STM32F4-Discovery/Libraries/STM32F4xx_StdPeriph_Driver/src/stm32f4xx_gpio.c ****   *            @arg GPIO_AF_OTG_HS: Connect OTG_HS pins to AF10
 521:App/STM32F4-Discovery/Libraries/STM32F4xx_StdPeriph_Driver/src/stm32f4xx_gpio.c ****   *            @arg GPIO_AF_ETH: Connect ETHERNET pins to AF11
 522:App/STM32F4-Discovery/Libraries/STM32F4xx_StdPeriph_Driver/src/stm32f4xx_gpio.c ****   *            @arg GPIO_AF_FSMC: Connect FSMC pins to AF12
 523:App/STM32F4-Discovery/Libraries/STM32F4xx_StdPeriph_Driver/src/stm32f4xx_gpio.c ****   *            @arg GPIO_AF_OTG_HS_FS: Connect OTG HS (configured in FS) pins to AF12
 524:App/STM32F4-Discovery/Libraries/STM32F4xx_StdPeriph_Driver/src/stm32f4xx_gpio.c ****   *            @arg GPIO_AF_SDIO: Connect SDIO pins to AF12
 525:App/STM32F4-Discovery/Libraries/STM32F4xx_StdPeriph_Driver/src/stm32f4xx_gpio.c ****   *            @arg GPIO_AF_DCMI: Connect DCMI pins to AF13
 526:App/STM32F4-Discovery/Libraries/STM32F4xx_StdPeriph_Driver/src/stm32f4xx_gpio.c ****   *            @arg GPIO_AF_EVENTOUT: Connect EVENTOUT pins to AF15
 527:App/STM32F4-Discovery/Libraries/STM32F4xx_StdPeriph_Driver/src/stm32f4xx_gpio.c ****   * @retval None
 528:App/STM32F4-Discovery/Libraries/STM32F4xx_StdPeriph_Driver/src/stm32f4xx_gpio.c ****   */
 529:App/STM32F4-Discovery/Libraries/STM32F4xx_StdPeriph_Driver/src/stm32f4xx_gpio.c **** void GPIO_PinAFConfig(GPIO_TypeDef* GPIOx, uint16_t GPIO_PinSource, uint8_t GPIO_AF)
 530:App/STM32F4-Discovery/Libraries/STM32F4xx_StdPeriph_Driver/src/stm32f4xx_gpio.c **** {
 1830              		.loc 1 530 0
 1831              		.cfi_startproc
 1832              		@ args = 0, pretend = 0, frame = 16
 1833              		@ frame_needed = 1, uses_anonymous_args = 0
 1834 0000 80B5     		push	{r7, lr}
 1835              	.LCFI39:
 1836              		.cfi_def_cfa_offset 8
 1837              		.cfi_offset 7, -8
 1838              		.cfi_offset 14, -4
 1839 0002 84B0     		sub	sp, sp, #16
 1840              	.LCFI40:
 1841              		.cfi_def_cfa_offset 24
 1842 0004 00AF     		add	r7, sp, #0
 1843              	.LCFI41:
 1844              		.cfi_def_cfa_register 7
 1845 0006 7860     		str	r0, [r7, #4]
 1846 0008 1346     		mov	r3, r2
 1847 000a 0A46     		mov	r2, r1	@ movhi
 1848 000c 7A80     		strh	r2, [r7, #2]	@ movhi
 1849 000e 7B70     		strb	r3, [r7, #1]
 531:App/STM32F4-Discovery/Libraries/STM32F4xx_StdPeriph_Driver/src/stm32f4xx_gpio.c ****   uint32_t temp = 0x00;
 1850              		.loc 1 531 0
 1851 0010 0023     		movs	r3, #0
 1852 0012 FB60     		str	r3, [r7, #12]
 532:App/STM32F4-Discovery/Libraries/STM32F4xx_StdPeriph_Driver/src/stm32f4xx_gpio.c ****   uint32_t temp_2 = 0x00;
 1853              		.loc 1 532 0
 1854 0014 0023     		movs	r3, #0
 1855 0016 BB60     		str	r3, [r7, #8]
 533:App/STM32F4-Discovery/Libraries/STM32F4xx_StdPeriph_Driver/src/stm32f4xx_gpio.c ****   
 534:App/STM32F4-Discovery/Libraries/STM32F4xx_StdPeriph_Driver/src/stm32f4xx_gpio.c ****   /* Check the parameters */
 535:App/STM32F4-Discovery/Libraries/STM32F4xx_StdPeriph_Driver/src/stm32f4xx_gpio.c ****   assert_param(IS_GPIO_ALL_PERIPH(GPIOx));
 1856              		.loc 1 535 0
 1857 0018 7A68     		ldr	r2, [r7, #4]
 1858 001a 834B     		ldr	r3, .L90
 1859 001c 9A42     		cmp	r2, r3
 1860 001e 24D0     		beq	.L87
 1861              		.loc 1 535 0 is_stmt 0 discriminator 1
 1862 0020 7A68     		ldr	r2, [r7, #4]
 1863 0022 824B     		ldr	r3, .L90+4
 1864 0024 9A42     		cmp	r2, r3
 1865 0026 20D0     		beq	.L87
 1866 0028 7A68     		ldr	r2, [r7, #4]
 1867 002a 814B     		ldr	r3, .L90+8
 1868 002c 9A42     		cmp	r2, r3
 1869 002e 1CD0     		beq	.L87
 1870 0030 7A68     		ldr	r2, [r7, #4]
 1871 0032 804B     		ldr	r3, .L90+12
 1872 0034 9A42     		cmp	r2, r3
 1873 0036 18D0     		beq	.L87
 1874 0038 7A68     		ldr	r2, [r7, #4]
 1875 003a 7F4B     		ldr	r3, .L90+16
 1876 003c 9A42     		cmp	r2, r3
 1877 003e 14D0     		beq	.L87
 1878 0040 7A68     		ldr	r2, [r7, #4]
 1879 0042 7E4B     		ldr	r3, .L90+20
 1880 0044 9A42     		cmp	r2, r3
 1881 0046 10D0     		beq	.L87
 1882 0048 7A68     		ldr	r2, [r7, #4]
 1883 004a 7D4B     		ldr	r3, .L90+24
 1884 004c 9A42     		cmp	r2, r3
 1885 004e 0CD0     		beq	.L87
 1886 0050 7A68     		ldr	r2, [r7, #4]
 1887 0052 7C4B     		ldr	r3, .L90+28
 1888 0054 9A42     		cmp	r2, r3
 1889 0056 08D0     		beq	.L87
 1890 0058 7A68     		ldr	r2, [r7, #4]
 1891 005a 7B4B     		ldr	r3, .L90+32
 1892 005c 9A42     		cmp	r2, r3
 1893 005e 04D0     		beq	.L87
 1894 0060 7A48     		ldr	r0, .L90+36
 1895 0062 40F21721 		movw	r1, #535
 1896 0066 FFF7FEFF 		bl	assert_failed
 1897              	.L87:
 536:App/STM32F4-Discovery/Libraries/STM32F4xx_StdPeriph_Driver/src/stm32f4xx_gpio.c ****   assert_param(IS_GPIO_PIN_SOURCE(GPIO_PinSource));
 1898              		.loc 1 536 0 is_stmt 1
 1899 006a 7B88     		ldrh	r3, [r7, #2]
 1900 006c 002B     		cmp	r3, #0
 1901 006e 31D0     		beq	.L88
 1902              		.loc 1 536 0 is_stmt 0 discriminator 1
 1903 0070 7B88     		ldrh	r3, [r7, #2]
 1904 0072 012B     		cmp	r3, #1
 1905 0074 2ED0     		beq	.L88
 1906 0076 7B88     		ldrh	r3, [r7, #2]
 1907 0078 022B     		cmp	r3, #2
 1908 007a 2BD0     		beq	.L88
 1909 007c 7B88     		ldrh	r3, [r7, #2]
 1910 007e 032B     		cmp	r3, #3
 1911 0080 28D0     		beq	.L88
 1912 0082 7B88     		ldrh	r3, [r7, #2]
 1913 0084 042B     		cmp	r3, #4
 1914 0086 25D0     		beq	.L88
 1915 0088 7B88     		ldrh	r3, [r7, #2]
 1916 008a 052B     		cmp	r3, #5
 1917 008c 22D0     		beq	.L88
 1918 008e 7B88     		ldrh	r3, [r7, #2]
 1919 0090 062B     		cmp	r3, #6
 1920 0092 1FD0     		beq	.L88
 1921 0094 7B88     		ldrh	r3, [r7, #2]
 1922 0096 072B     		cmp	r3, #7
 1923 0098 1CD0     		beq	.L88
 1924 009a 7B88     		ldrh	r3, [r7, #2]
 1925 009c 082B     		cmp	r3, #8
 1926 009e 19D0     		beq	.L88
 1927 00a0 7B88     		ldrh	r3, [r7, #2]
 1928 00a2 092B     		cmp	r3, #9
 1929 00a4 16D0     		beq	.L88
 1930 00a6 7B88     		ldrh	r3, [r7, #2]
 1931 00a8 0A2B     		cmp	r3, #10
 1932 00aa 13D0     		beq	.L88
 1933 00ac 7B88     		ldrh	r3, [r7, #2]
 1934 00ae 0B2B     		cmp	r3, #11
 1935 00b0 10D0     		beq	.L88
 1936 00b2 7B88     		ldrh	r3, [r7, #2]
 1937 00b4 0C2B     		cmp	r3, #12
 1938 00b6 0DD0     		beq	.L88
 1939 00b8 7B88     		ldrh	r3, [r7, #2]
 1940 00ba 0D2B     		cmp	r3, #13
 1941 00bc 0AD0     		beq	.L88
 1942 00be 7B88     		ldrh	r3, [r7, #2]
 1943 00c0 0E2B     		cmp	r3, #14
 1944 00c2 07D0     		beq	.L88
 1945 00c4 7B88     		ldrh	r3, [r7, #2]
 1946 00c6 0F2B     		cmp	r3, #15
 1947 00c8 04D0     		beq	.L88
 1948 00ca 6048     		ldr	r0, .L90+36
 1949 00cc 4FF40671 		mov	r1, #536
 1950 00d0 FFF7FEFF 		bl	assert_failed
 1951              	.L88:
 537:App/STM32F4-Discovery/Libraries/STM32F4xx_StdPeriph_Driver/src/stm32f4xx_gpio.c ****   assert_param(IS_GPIO_AF(GPIO_AF));
 1952              		.loc 1 537 0 is_stmt 1
 1953 00d4 7B78     		ldrb	r3, [r7, #1]	@ zero_extendqisi2
 1954 00d6 002B     		cmp	r3, #0
 1955 00d8 6DD0     		beq	.L89
 1956              		.loc 1 537 0 is_stmt 0 discriminator 1
 1957 00da 7B78     		ldrb	r3, [r7, #1]	@ zero_extendqisi2
 1958 00dc 092B     		cmp	r3, #9
 1959 00de 6AD0     		beq	.L89
 1960 00e0 7B78     		ldrb	r3, [r7, #1]	@ zero_extendqisi2
 1961 00e2 002B     		cmp	r3, #0
 1962 00e4 67D0     		beq	.L89
 1963 00e6 7B78     		ldrb	r3, [r7, #1]	@ zero_extendqisi2
 1964 00e8 002B     		cmp	r3, #0
 1965 00ea 64D0     		beq	.L89
 1966 00ec 7B78     		ldrb	r3, [r7, #1]	@ zero_extendqisi2
 1967 00ee 002B     		cmp	r3, #0
 1968 00f0 61D0     		beq	.L89
 1969 00f2 7B78     		ldrb	r3, [r7, #1]	@ zero_extendqisi2
 1970 00f4 002B     		cmp	r3, #0
 1971 00f6 5ED0     		beq	.L89
 1972 00f8 7B78     		ldrb	r3, [r7, #1]	@ zero_extendqisi2
 1973 00fa 012B     		cmp	r3, #1
 1974 00fc 5BD0     		beq	.L89
 1975 00fe 7B78     		ldrb	r3, [r7, #1]	@ zero_extendqisi2
 1976 0100 012B     		cmp	r3, #1
 1977 0102 58D0     		beq	.L89
 1978 0104 7B78     		ldrb	r3, [r7, #1]	@ zero_extendqisi2
 1979 0106 022B     		cmp	r3, #2
 1980 0108 55D0     		beq	.L89
 1981 010a 7B78     		ldrb	r3, [r7, #1]	@ zero_extendqisi2
 1982 010c 022B     		cmp	r3, #2
 1983 010e 52D0     		beq	.L89
 1984 0110 7B78     		ldrb	r3, [r7, #1]	@ zero_extendqisi2
 1985 0112 022B     		cmp	r3, #2
 1986 0114 4FD0     		beq	.L89
 1987 0116 7B78     		ldrb	r3, [r7, #1]	@ zero_extendqisi2
 1988 0118 032B     		cmp	r3, #3
 1989 011a 4CD0     		beq	.L89
 1990 011c 7B78     		ldrb	r3, [r7, #1]	@ zero_extendqisi2
 1991 011e 042B     		cmp	r3, #4
 1992 0120 49D0     		beq	.L89
 1993 0122 7B78     		ldrb	r3, [r7, #1]	@ zero_extendqisi2
 1994 0124 042B     		cmp	r3, #4
 1995 0126 46D0     		beq	.L89
 1996 0128 7B78     		ldrb	r3, [r7, #1]	@ zero_extendqisi2
 1997 012a 042B     		cmp	r3, #4
 1998 012c 43D0     		beq	.L89
 1999 012e 7B78     		ldrb	r3, [r7, #1]	@ zero_extendqisi2
 2000 0130 052B     		cmp	r3, #5
 2001 0132 40D0     		beq	.L89
 2002 0134 7B78     		ldrb	r3, [r7, #1]	@ zero_extendqisi2
 2003 0136 052B     		cmp	r3, #5
 2004 0138 3DD0     		beq	.L89
 2005 013a 7B78     		ldrb	r3, [r7, #1]	@ zero_extendqisi2
 2006 013c 092B     		cmp	r3, #9
 2007 013e 3AD0     		beq	.L89
 2008 0140 7B78     		ldrb	r3, [r7, #1]	@ zero_extendqisi2
 2009 0142 062B     		cmp	r3, #6
 2010 0144 37D0     		beq	.L89
 2011 0146 7B78     		ldrb	r3, [r7, #1]	@ zero_extendqisi2
 2012 0148 092B     		cmp	r3, #9
 2013 014a 34D0     		beq	.L89
 2014 014c 7B78     		ldrb	r3, [r7, #1]	@ zero_extendqisi2
 2015 014e 072B     		cmp	r3, #7
 2016 0150 31D0     		beq	.L89
 2017 0152 7B78     		ldrb	r3, [r7, #1]	@ zero_extendqisi2
 2018 0154 072B     		cmp	r3, #7
 2019 0156 2ED0     		beq	.L89
 2020 0158 7B78     		ldrb	r3, [r7, #1]	@ zero_extendqisi2
 2021 015a 072B     		cmp	r3, #7
 2022 015c 2BD0     		beq	.L89
 2023 015e 7B78     		ldrb	r3, [r7, #1]	@ zero_extendqisi2
 2024 0160 082B     		cmp	r3, #8
 2025 0162 28D0     		beq	.L89
 2026 0164 7B78     		ldrb	r3, [r7, #1]	@ zero_extendqisi2
 2027 0166 082B     		cmp	r3, #8
 2028 0168 25D0     		beq	.L89
 2029 016a 7B78     		ldrb	r3, [r7, #1]	@ zero_extendqisi2
 2030 016c 082B     		cmp	r3, #8
 2031 016e 22D0     		beq	.L89
 2032 0170 7B78     		ldrb	r3, [r7, #1]	@ zero_extendqisi2
 2033 0172 092B     		cmp	r3, #9
 2034 0174 1FD0     		beq	.L89
 2035 0176 7B78     		ldrb	r3, [r7, #1]	@ zero_extendqisi2
 2036 0178 092B     		cmp	r3, #9
 2037 017a 1CD0     		beq	.L89
 2038 017c 7B78     		ldrb	r3, [r7, #1]	@ zero_extendqisi2
 2039 017e 0A2B     		cmp	r3, #10
 2040 0180 19D0     		beq	.L89
 2041 0182 7B78     		ldrb	r3, [r7, #1]	@ zero_extendqisi2
 2042 0184 0A2B     		cmp	r3, #10
 2043 0186 16D0     		beq	.L89
 2044 0188 7B78     		ldrb	r3, [r7, #1]	@ zero_extendqisi2
 2045 018a 0B2B     		cmp	r3, #11
 2046 018c 13D0     		beq	.L89
 2047 018e 7B78     		ldrb	r3, [r7, #1]	@ zero_extendqisi2
 2048 0190 0C2B     		cmp	r3, #12
 2049 0192 10D0     		beq	.L89
 2050 0194 7B78     		ldrb	r3, [r7, #1]	@ zero_extendqisi2
 2051 0196 0C2B     		cmp	r3, #12
 2052 0198 0DD0     		beq	.L89
 2053 019a 7B78     		ldrb	r3, [r7, #1]	@ zero_extendqisi2
 2054 019c 0C2B     		cmp	r3, #12
 2055 019e 0AD0     		beq	.L89
 2056 01a0 7B78     		ldrb	r3, [r7, #1]	@ zero_extendqisi2
 2057 01a2 0D2B     		cmp	r3, #13
 2058 01a4 07D0     		beq	.L89
 2059 01a6 7B78     		ldrb	r3, [r7, #1]	@ zero_extendqisi2
 2060 01a8 0F2B     		cmp	r3, #15
 2061 01aa 04D0     		beq	.L89
 2062 01ac 2748     		ldr	r0, .L90+36
 2063 01ae 40F21921 		movw	r1, #537
 2064 01b2 FFF7FEFF 		bl	assert_failed
 2065              	.L89:
 538:App/STM32F4-Discovery/Libraries/STM32F4xx_StdPeriph_Driver/src/stm32f4xx_gpio.c ****   
 539:App/STM32F4-Discovery/Libraries/STM32F4xx_StdPeriph_Driver/src/stm32f4xx_gpio.c ****   temp = ((uint32_t)(GPIO_AF) << ((uint32_t)((uint32_t)GPIO_PinSource & (uint32_t)0x07) * 4)) ;
 2066              		.loc 1 539 0 is_stmt 1
 2067 01b6 7A78     		ldrb	r2, [r7, #1]	@ zero_extendqisi2
 2068 01b8 7B88     		ldrh	r3, [r7, #2]
 2069 01ba 03F00703 		and	r3, r3, #7
 2070 01be 9B00     		lsls	r3, r3, #2
 2071 01c0 02FA03F3 		lsl	r3, r2, r3
 2072 01c4 FB60     		str	r3, [r7, #12]
 540:App/STM32F4-Discovery/Libraries/STM32F4xx_StdPeriph_Driver/src/stm32f4xx_gpio.c ****   GPIOx->AFR[GPIO_PinSource >> 0x03] &= ~((uint32_t)0xF << ((uint32_t)((uint32_t)GPIO_PinSource & (
 2073              		.loc 1 540 0
 2074 01c6 7B88     		ldrh	r3, [r7, #2]
 2075 01c8 DB08     		lsrs	r3, r3, #3
 2076 01ca 9BB2     		uxth	r3, r3
 2077 01cc 1A46     		mov	r2, r3
 2078 01ce 7B88     		ldrh	r3, [r7, #2]
 2079 01d0 DB08     		lsrs	r3, r3, #3
 2080 01d2 9BB2     		uxth	r3, r3
 2081 01d4 1946     		mov	r1, r3
 2082 01d6 7B68     		ldr	r3, [r7, #4]
 2083 01d8 0831     		adds	r1, r1, #8
 2084 01da 53F82110 		ldr	r1, [r3, r1, lsl #2]
 2085 01de 7B88     		ldrh	r3, [r7, #2]
 2086 01e0 03F00703 		and	r3, r3, #7
 2087 01e4 9B00     		lsls	r3, r3, #2
 2088 01e6 0F20     		movs	r0, #15
 2089 01e8 00FA03F3 		lsl	r3, r0, r3
 2090 01ec DB43     		mvns	r3, r3
 2091 01ee 1940     		ands	r1, r1, r3
 2092 01f0 7B68     		ldr	r3, [r7, #4]
 2093 01f2 0832     		adds	r2, r2, #8
 2094 01f4 43F82210 		str	r1, [r3, r2, lsl #2]
 541:App/STM32F4-Discovery/Libraries/STM32F4xx_StdPeriph_Driver/src/stm32f4xx_gpio.c ****   temp_2 = GPIOx->AFR[GPIO_PinSource >> 0x03] | temp;
 2095              		.loc 1 541 0
 2096 01f8 7B88     		ldrh	r3, [r7, #2]
 2097 01fa DB08     		lsrs	r3, r3, #3
 2098 01fc 9BB2     		uxth	r3, r3
 2099 01fe 1A46     		mov	r2, r3
 2100 0200 7B68     		ldr	r3, [r7, #4]
 2101 0202 0832     		adds	r2, r2, #8
 2102 0204 53F82220 		ldr	r2, [r3, r2, lsl #2]
 2103 0208 FB68     		ldr	r3, [r7, #12]
 2104 020a 1343     		orrs	r3, r3, r2
 2105 020c BB60     		str	r3, [r7, #8]
 542:App/STM32F4-Discovery/Libraries/STM32F4xx_StdPeriph_Driver/src/stm32f4xx_gpio.c ****   GPIOx->AFR[GPIO_PinSource >> 0x03] = temp_2;
 2106              		.loc 1 542 0
 2107 020e 7B88     		ldrh	r3, [r7, #2]
 2108 0210 DB08     		lsrs	r3, r3, #3
 2109 0212 9BB2     		uxth	r3, r3
 2110 0214 1A46     		mov	r2, r3
 2111 0216 7B68     		ldr	r3, [r7, #4]
 2112 0218 0832     		adds	r2, r2, #8
 2113 021a B968     		ldr	r1, [r7, #8]
 2114 021c 43F82210 		str	r1, [r3, r2, lsl #2]
 543:App/STM32F4-Discovery/Libraries/STM32F4xx_StdPeriph_Driver/src/stm32f4xx_gpio.c **** }
 2115              		.loc 1 543 0
 2116 0220 1037     		adds	r7, r7, #16
 2117 0222 BD46     		mov	sp, r7
 2118              		@ sp needed
 2119 0224 80BD     		pop	{r7, pc}
 2120              	.L91:
 2121 0226 00BF     		.align	2
 2122              	.L90:
 2123 0228 00000240 		.word	1073872896
 2124 022c 00040240 		.word	1073873920
 2125 0230 00080240 		.word	1073874944
 2126 0234 000C0240 		.word	1073875968
 2127 0238 00100240 		.word	1073876992
 2128 023c 00140240 		.word	1073878016
 2129 0240 00180240 		.word	1073879040
 2130 0244 001C0240 		.word	1073880064
 2131 0248 00200240 		.word	1073881088
 2132 024c 00000000 		.word	.LC0
 2133              		.cfi_endproc
 2134              	.LFE123:
 2136              		.text
 2137              	.Letext0:
 2138              		.file 2 "/home/shihyu/data/STM32F4/gcc-arm-none-eabi-4_8-2013q4/arm-none-eabi/include/stdint.h"
 2139              		.file 3 "App/STM32F4-Discovery/Libraries/CMSIS/ST/STM32F4xx/Include/stm32f4xx.h"
 2140              		.file 4 "App/STM32F4-Discovery/Libraries/STM32F4xx_StdPeriph_Driver/inc/stm32f4xx_gpio.h"
 2141              		.file 5 "App/STM32F4-Discovery/Libraries/CMSIS/Include/core_cm4.h"