   1              		.syntax unified
   2              		.cpu cortex-m4
   3              		.eabi_attribute 27, 3
   4              		.fpu fpv4-sp-d16
   5              		.eabi_attribute 20, 1
   6              		.eabi_attribute 21, 1
   7              		.eabi_attribute 23, 3
   8              		.eabi_attribute 24, 1
   9              		.eabi_attribute 25, 1
  10              		.eabi_attribute 26, 1
  11              		.eabi_attribute 30, 6
  12              		.eabi_attribute 34, 1
  13              		.eabi_attribute 18, 4
  14              		.thumb
  15              		.file	"stm32f4xx_spi.c"
  16              		.text
  17              	.Ltext0:
  18              		.cfi_sections	.debug_frame
  19              		.section	.rodata
  20              		.align	2
  21              	.LC0:
  22 0000 4170702F 		.ascii	"App/STM32F4-Discovery/Libraries/STM32F4xx_StdPeriph"
  22      53544D33 
  22      3246342D 
  22      44697363 
  22      6F766572 
  23 0033 5F447269 		.ascii	"_Driver/src/stm32f4xx_spi.c\000"
  23      7665722F 
  23      7372632F 
  23      73746D33 
  23      32663478 
  24 004f 00       		.section	.text.SPI_I2S_DeInit,"ax",%progbits
  25              		.align	2
  26              		.global	SPI_I2S_DeInit
  27              		.thumb
  28              		.thumb_func
  30              	SPI_I2S_DeInit:
  31              	.LFB110:
  32              		.file 1 "App/STM32F4-Discovery/Libraries/STM32F4xx_StdPeriph_Driver/src/stm32f4xx_spi.c"
   1:App/STM32F4-Discovery/Libraries/STM32F4xx_StdPeriph_Driver/src/stm32f4xx_spi.c **** /**
   2:App/STM32F4-Discovery/Libraries/STM32F4xx_StdPeriph_Driver/src/stm32f4xx_spi.c ****   ******************************************************************************
   3:App/STM32F4-Discovery/Libraries/STM32F4xx_StdPeriph_Driver/src/stm32f4xx_spi.c ****   * @file    stm32f4xx_spi.c
   4:App/STM32F4-Discovery/Libraries/STM32F4xx_StdPeriph_Driver/src/stm32f4xx_spi.c ****   * @author  MCD Application Team
   5:App/STM32F4-Discovery/Libraries/STM32F4xx_StdPeriph_Driver/src/stm32f4xx_spi.c ****   * @version V1.0.0
   6:App/STM32F4-Discovery/Libraries/STM32F4xx_StdPeriph_Driver/src/stm32f4xx_spi.c ****   * @date    30-September-2011
   7:App/STM32F4-Discovery/Libraries/STM32F4xx_StdPeriph_Driver/src/stm32f4xx_spi.c ****   * @brief   This file provides firmware functions to manage the following 
   8:App/STM32F4-Discovery/Libraries/STM32F4xx_StdPeriph_Driver/src/stm32f4xx_spi.c ****   *          functionalities of the Serial peripheral interface (SPI):
   9:App/STM32F4-Discovery/Libraries/STM32F4xx_StdPeriph_Driver/src/stm32f4xx_spi.c ****   *           - Initialization and Configuration
  10:App/STM32F4-Discovery/Libraries/STM32F4xx_StdPeriph_Driver/src/stm32f4xx_spi.c ****   *           - Data transfers functions
  11:App/STM32F4-Discovery/Libraries/STM32F4xx_StdPeriph_Driver/src/stm32f4xx_spi.c ****   *           - Hardware CRC Calculation
  12:App/STM32F4-Discovery/Libraries/STM32F4xx_StdPeriph_Driver/src/stm32f4xx_spi.c ****   *           - DMA transfers management
  13:App/STM32F4-Discovery/Libraries/STM32F4xx_StdPeriph_Driver/src/stm32f4xx_spi.c ****   *           - Interrupts and flags management 
  14:App/STM32F4-Discovery/Libraries/STM32F4xx_StdPeriph_Driver/src/stm32f4xx_spi.c ****   *           
  15:App/STM32F4-Discovery/Libraries/STM32F4xx_StdPeriph_Driver/src/stm32f4xx_spi.c ****   *  @verbatim
  16:App/STM32F4-Discovery/Libraries/STM32F4xx_StdPeriph_Driver/src/stm32f4xx_spi.c ****   *          
  17:App/STM32F4-Discovery/Libraries/STM32F4xx_StdPeriph_Driver/src/stm32f4xx_spi.c ****   *                    
  18:App/STM32F4-Discovery/Libraries/STM32F4xx_StdPeriph_Driver/src/stm32f4xx_spi.c ****   *          ===================================================================
  19:App/STM32F4-Discovery/Libraries/STM32F4xx_StdPeriph_Driver/src/stm32f4xx_spi.c ****   *                                 How to use this driver
  20:App/STM32F4-Discovery/Libraries/STM32F4xx_StdPeriph_Driver/src/stm32f4xx_spi.c ****   *          ===================================================================
  21:App/STM32F4-Discovery/Libraries/STM32F4xx_StdPeriph_Driver/src/stm32f4xx_spi.c ****   *    
  22:App/STM32F4-Discovery/Libraries/STM32F4xx_StdPeriph_Driver/src/stm32f4xx_spi.c ****   *          1. Enable peripheral clock using the following functions 
  23:App/STM32F4-Discovery/Libraries/STM32F4xx_StdPeriph_Driver/src/stm32f4xx_spi.c ****   *             RCC_APB2PeriphClockCmd(RCC_APB2Periph_SPI1, ENABLE) for SPI1
  24:App/STM32F4-Discovery/Libraries/STM32F4xx_StdPeriph_Driver/src/stm32f4xx_spi.c ****   *             RCC_APB1PeriphClockCmd(RCC_APB1Periph_SPI2, ENABLE) for SPI2
  25:App/STM32F4-Discovery/Libraries/STM32F4xx_StdPeriph_Driver/src/stm32f4xx_spi.c ****   *             RCC_APB1PeriphResetCmd(RCC_APB1Periph_SPI3, ENABLE) for SPI3.
  26:App/STM32F4-Discovery/Libraries/STM32F4xx_StdPeriph_Driver/src/stm32f4xx_spi.c ****   *
  27:App/STM32F4-Discovery/Libraries/STM32F4xx_StdPeriph_Driver/src/stm32f4xx_spi.c ****   *          2. Enable SCK, MOSI, MISO and NSS GPIO clocks using RCC_AHB1PeriphClockCmd()
  28:App/STM32F4-Discovery/Libraries/STM32F4xx_StdPeriph_Driver/src/stm32f4xx_spi.c ****   *             function.
  29:App/STM32F4-Discovery/Libraries/STM32F4xx_StdPeriph_Driver/src/stm32f4xx_spi.c ****   *             In I2S mode, if an external clock source is used then the I2S CKIN pin GPIO
  30:App/STM32F4-Discovery/Libraries/STM32F4xx_StdPeriph_Driver/src/stm32f4xx_spi.c ****   *             clock should also be enabled.
  31:App/STM32F4-Discovery/Libraries/STM32F4xx_StdPeriph_Driver/src/stm32f4xx_spi.c ****   *
  32:App/STM32F4-Discovery/Libraries/STM32F4xx_StdPeriph_Driver/src/stm32f4xx_spi.c ****   *          3. Peripherals alternate function: 
  33:App/STM32F4-Discovery/Libraries/STM32F4xx_StdPeriph_Driver/src/stm32f4xx_spi.c ****   *                 - Connect the pin to the desired peripherals' Alternate 
  34:App/STM32F4-Discovery/Libraries/STM32F4xx_StdPeriph_Driver/src/stm32f4xx_spi.c ****   *                   Function (AF) using GPIO_PinAFConfig() function
  35:App/STM32F4-Discovery/Libraries/STM32F4xx_StdPeriph_Driver/src/stm32f4xx_spi.c ****   *                 - Configure the desired pin in alternate function by:
  36:App/STM32F4-Discovery/Libraries/STM32F4xx_StdPeriph_Driver/src/stm32f4xx_spi.c ****   *                   GPIO_InitStruct->GPIO_Mode = GPIO_Mode_AF
  37:App/STM32F4-Discovery/Libraries/STM32F4xx_StdPeriph_Driver/src/stm32f4xx_spi.c ****   *                 - Select the type, pull-up/pull-down and output speed via 
  38:App/STM32F4-Discovery/Libraries/STM32F4xx_StdPeriph_Driver/src/stm32f4xx_spi.c ****   *                   GPIO_PuPd, GPIO_OType and GPIO_Speed members
  39:App/STM32F4-Discovery/Libraries/STM32F4xx_StdPeriph_Driver/src/stm32f4xx_spi.c ****   *                 - Call GPIO_Init() function
  40:App/STM32F4-Discovery/Libraries/STM32F4xx_StdPeriph_Driver/src/stm32f4xx_spi.c ****   *              In I2S mode, if an external clock source is used then the I2S CKIN pin
  41:App/STM32F4-Discovery/Libraries/STM32F4xx_StdPeriph_Driver/src/stm32f4xx_spi.c ****   *              should be also configured in Alternate function Push-pull pull-up mode. 
  42:App/STM32F4-Discovery/Libraries/STM32F4xx_StdPeriph_Driver/src/stm32f4xx_spi.c ****   *        
  43:App/STM32F4-Discovery/Libraries/STM32F4xx_StdPeriph_Driver/src/stm32f4xx_spi.c ****   *          4. Program the Polarity, Phase, First Data, Baud Rate Prescaler, Slave 
  44:App/STM32F4-Discovery/Libraries/STM32F4xx_StdPeriph_Driver/src/stm32f4xx_spi.c ****   *             Management, Peripheral Mode and CRC Polynomial values using the SPI_Init()
  45:App/STM32F4-Discovery/Libraries/STM32F4xx_StdPeriph_Driver/src/stm32f4xx_spi.c ****   *             function.
  46:App/STM32F4-Discovery/Libraries/STM32F4xx_StdPeriph_Driver/src/stm32f4xx_spi.c ****   *             In I2S mode, program the Mode, Standard, Data Format, MCLK Output, Audio 
  47:App/STM32F4-Discovery/Libraries/STM32F4xx_StdPeriph_Driver/src/stm32f4xx_spi.c ****   *             frequency and Polarity using I2S_Init() function.
  48:App/STM32F4-Discovery/Libraries/STM32F4xx_StdPeriph_Driver/src/stm32f4xx_spi.c ****   *             For I2S mode, make sure that either:
  49:App/STM32F4-Discovery/Libraries/STM32F4xx_StdPeriph_Driver/src/stm32f4xx_spi.c ****   *              - I2S PLL is configured using the functions RCC_I2SCLKConfig(RCC_I2S2CLKSource_PLL
  50:App/STM32F4-Discovery/Libraries/STM32F4xx_StdPeriph_Driver/src/stm32f4xx_spi.c ****   *                RCC_PLLI2SCmd(ENABLE) and RCC_GetFlagStatus(RCC_FLAG_PLLI2SRDY).
  51:App/STM32F4-Discovery/Libraries/STM32F4xx_StdPeriph_Driver/src/stm32f4xx_spi.c ****   *              or 
  52:App/STM32F4-Discovery/Libraries/STM32F4xx_StdPeriph_Driver/src/stm32f4xx_spi.c ****   *              - External clock source is configured using the function 
  53:App/STM32F4-Discovery/Libraries/STM32F4xx_StdPeriph_Driver/src/stm32f4xx_spi.c ****   *                RCC_I2SCLKConfig(RCC_I2S2CLKSource_Ext) and after setting correctly the define c
  54:App/STM32F4-Discovery/Libraries/STM32F4xx_StdPeriph_Driver/src/stm32f4xx_spi.c ****   *                I2S_EXTERNAL_CLOCK_VAL in the stm32f4xx_conf.h file. 
  55:App/STM32F4-Discovery/Libraries/STM32F4xx_StdPeriph_Driver/src/stm32f4xx_spi.c ****   *
  56:App/STM32F4-Discovery/Libraries/STM32F4xx_StdPeriph_Driver/src/stm32f4xx_spi.c ****   *          5. Enable the NVIC and the corresponding interrupt using the function 
  57:App/STM32F4-Discovery/Libraries/STM32F4xx_StdPeriph_Driver/src/stm32f4xx_spi.c ****   *             SPI_ITConfig() if you need to use interrupt mode. 
  58:App/STM32F4-Discovery/Libraries/STM32F4xx_StdPeriph_Driver/src/stm32f4xx_spi.c ****   *
  59:App/STM32F4-Discovery/Libraries/STM32F4xx_StdPeriph_Driver/src/stm32f4xx_spi.c ****   *          6. When using the DMA mode 
  60:App/STM32F4-Discovery/Libraries/STM32F4xx_StdPeriph_Driver/src/stm32f4xx_spi.c ****   *                   - Configure the DMA using DMA_Init() function
  61:App/STM32F4-Discovery/Libraries/STM32F4xx_StdPeriph_Driver/src/stm32f4xx_spi.c ****   *                   - Active the needed channel Request using SPI_I2S_DMACmd() function
  62:App/STM32F4-Discovery/Libraries/STM32F4xx_StdPeriph_Driver/src/stm32f4xx_spi.c ****   * 
  63:App/STM32F4-Discovery/Libraries/STM32F4xx_StdPeriph_Driver/src/stm32f4xx_spi.c ****   *          7. Enable the SPI using the SPI_Cmd() function or enable the I2S using
  64:App/STM32F4-Discovery/Libraries/STM32F4xx_StdPeriph_Driver/src/stm32f4xx_spi.c ****   *             I2S_Cmd().
  65:App/STM32F4-Discovery/Libraries/STM32F4xx_StdPeriph_Driver/src/stm32f4xx_spi.c ****   * 
  66:App/STM32F4-Discovery/Libraries/STM32F4xx_StdPeriph_Driver/src/stm32f4xx_spi.c ****   *          8. Enable the DMA using the DMA_Cmd() function when using DMA mode. 
  67:App/STM32F4-Discovery/Libraries/STM32F4xx_StdPeriph_Driver/src/stm32f4xx_spi.c ****   *
  68:App/STM32F4-Discovery/Libraries/STM32F4xx_StdPeriph_Driver/src/stm32f4xx_spi.c ****   *          9. Optionally, you can enable/configure the following parameters without
  69:App/STM32F4-Discovery/Libraries/STM32F4xx_StdPeriph_Driver/src/stm32f4xx_spi.c ****   *             re-initialization (i.e there is no need to call again SPI_Init() function):
  70:App/STM32F4-Discovery/Libraries/STM32F4xx_StdPeriph_Driver/src/stm32f4xx_spi.c ****   *              - When bidirectional mode (SPI_Direction_1Line_Rx or SPI_Direction_1Line_Tx)
  71:App/STM32F4-Discovery/Libraries/STM32F4xx_StdPeriph_Driver/src/stm32f4xx_spi.c ****   *                is programmed as Data direction parameter using the SPI_Init() function
  72:App/STM32F4-Discovery/Libraries/STM32F4xx_StdPeriph_Driver/src/stm32f4xx_spi.c ****   *                it can be possible to switch between SPI_Direction_Tx or SPI_Direction_Rx
  73:App/STM32F4-Discovery/Libraries/STM32F4xx_StdPeriph_Driver/src/stm32f4xx_spi.c ****   *                using the SPI_BiDirectionalLineConfig() function.
  74:App/STM32F4-Discovery/Libraries/STM32F4xx_StdPeriph_Driver/src/stm32f4xx_spi.c ****   *              - When SPI_NSS_Soft is selected as Slave Select Management parameter 
  75:App/STM32F4-Discovery/Libraries/STM32F4xx_StdPeriph_Driver/src/stm32f4xx_spi.c ****   *                using the SPI_Init() function it can be possible to manage the 
  76:App/STM32F4-Discovery/Libraries/STM32F4xx_StdPeriph_Driver/src/stm32f4xx_spi.c ****   *                NSS internal signal using the SPI_NSSInternalSoftwareConfig() function.
  77:App/STM32F4-Discovery/Libraries/STM32F4xx_StdPeriph_Driver/src/stm32f4xx_spi.c ****   *              - Reconfigure the data size using the SPI_DataSizeConfig() function  
  78:App/STM32F4-Discovery/Libraries/STM32F4xx_StdPeriph_Driver/src/stm32f4xx_spi.c ****   *              - Enable or disable the SS output using the SPI_SSOutputCmd() function  
  79:App/STM32F4-Discovery/Libraries/STM32F4xx_StdPeriph_Driver/src/stm32f4xx_spi.c ****   *          
  80:App/STM32F4-Discovery/Libraries/STM32F4xx_StdPeriph_Driver/src/stm32f4xx_spi.c ****   *          10. To use the CRC Hardware calculation feature refer to the Peripheral 
  81:App/STM32F4-Discovery/Libraries/STM32F4xx_StdPeriph_Driver/src/stm32f4xx_spi.c ****   *              CRC hardware Calculation subsection.
  82:App/STM32F4-Discovery/Libraries/STM32F4xx_StdPeriph_Driver/src/stm32f4xx_spi.c ****   *   
  83:App/STM32F4-Discovery/Libraries/STM32F4xx_StdPeriph_Driver/src/stm32f4xx_spi.c ****   *
  84:App/STM32F4-Discovery/Libraries/STM32F4xx_StdPeriph_Driver/src/stm32f4xx_spi.c ****   *          It is possible to use SPI in I2S full duplex mode, in this case, each SPI 
  85:App/STM32F4-Discovery/Libraries/STM32F4xx_StdPeriph_Driver/src/stm32f4xx_spi.c ****   *          peripheral is able to manage sending and receiving data simultaneously
  86:App/STM32F4-Discovery/Libraries/STM32F4xx_StdPeriph_Driver/src/stm32f4xx_spi.c ****   *          using two data lines. Each SPI peripheral has an extended block called I2Sxext
  87:App/STM32F4-Discovery/Libraries/STM32F4xx_StdPeriph_Driver/src/stm32f4xx_spi.c ****   *          (ie. I2S2ext for SPI2 and I2S3ext for SPI3).
  88:App/STM32F4-Discovery/Libraries/STM32F4xx_StdPeriph_Driver/src/stm32f4xx_spi.c ****   *          The extension block is not a full SPI IP, it is used only as I2S slave to
  89:App/STM32F4-Discovery/Libraries/STM32F4xx_StdPeriph_Driver/src/stm32f4xx_spi.c ****   *          implement full duplex mode. The extension block uses the same clock sources
  90:App/STM32F4-Discovery/Libraries/STM32F4xx_StdPeriph_Driver/src/stm32f4xx_spi.c ****   *          as its master.          
  91:App/STM32F4-Discovery/Libraries/STM32F4xx_StdPeriph_Driver/src/stm32f4xx_spi.c ****   *          To configure I2S full duplex you have to:
  92:App/STM32F4-Discovery/Libraries/STM32F4xx_StdPeriph_Driver/src/stm32f4xx_spi.c ****   *            
  93:App/STM32F4-Discovery/Libraries/STM32F4xx_StdPeriph_Driver/src/stm32f4xx_spi.c ****   *          1. Configure SPIx in I2S mode (I2S_Init() function) as described above. 
  94:App/STM32F4-Discovery/Libraries/STM32F4xx_StdPeriph_Driver/src/stm32f4xx_spi.c ****   *           
  95:App/STM32F4-Discovery/Libraries/STM32F4xx_StdPeriph_Driver/src/stm32f4xx_spi.c ****   *          2. Call the I2S_FullDuplexConfig() function using the same strucutre passed to  
  96:App/STM32F4-Discovery/Libraries/STM32F4xx_StdPeriph_Driver/src/stm32f4xx_spi.c ****   *             I2S_Init() function.
  97:App/STM32F4-Discovery/Libraries/STM32F4xx_StdPeriph_Driver/src/stm32f4xx_spi.c ****   *            
  98:App/STM32F4-Discovery/Libraries/STM32F4xx_StdPeriph_Driver/src/stm32f4xx_spi.c ****   *          3. Call I2S_Cmd() for SPIx then for its extended block.
  99:App/STM32F4-Discovery/Libraries/STM32F4xx_StdPeriph_Driver/src/stm32f4xx_spi.c ****   *          
 100:App/STM32F4-Discovery/Libraries/STM32F4xx_StdPeriph_Driver/src/stm32f4xx_spi.c ****   *          4. To configure interrupts or DMA requests and to get/clear flag status, 
 101:App/STM32F4-Discovery/Libraries/STM32F4xx_StdPeriph_Driver/src/stm32f4xx_spi.c ****   *             use I2Sxext instance for the extension block.
 102:App/STM32F4-Discovery/Libraries/STM32F4xx_StdPeriph_Driver/src/stm32f4xx_spi.c ****   *             
 103:App/STM32F4-Discovery/Libraries/STM32F4xx_StdPeriph_Driver/src/stm32f4xx_spi.c ****   *          Functions that can be called with I2Sxext instances are:
 104:App/STM32F4-Discovery/Libraries/STM32F4xx_StdPeriph_Driver/src/stm32f4xx_spi.c ****   *          I2S_Cmd(), I2S_FullDuplexConfig(), SPI_I2S_ReceiveData(), SPI_I2S_SendData(), 
 105:App/STM32F4-Discovery/Libraries/STM32F4xx_StdPeriph_Driver/src/stm32f4xx_spi.c ****   *          SPI_I2S_DMACmd(), SPI_I2S_ITConfig(), SPI_I2S_GetFlagStatus(), SPI_I2S_ClearFlag(),
 106:App/STM32F4-Discovery/Libraries/STM32F4xx_StdPeriph_Driver/src/stm32f4xx_spi.c ****   *          SPI_I2S_GetITStatus() and SPI_I2S_ClearITPendingBit().
 107:App/STM32F4-Discovery/Libraries/STM32F4xx_StdPeriph_Driver/src/stm32f4xx_spi.c ****   *                 
 108:App/STM32F4-Discovery/Libraries/STM32F4xx_StdPeriph_Driver/src/stm32f4xx_spi.c ****   *          Example: To use SPI3 in Full duplex mode (SPI3 is Master Tx, I2S3ext is Slave Rx):
 109:App/STM32F4-Discovery/Libraries/STM32F4xx_StdPeriph_Driver/src/stm32f4xx_spi.c ****   *            
 110:App/STM32F4-Discovery/Libraries/STM32F4xx_StdPeriph_Driver/src/stm32f4xx_spi.c ****   *          RCC_APB1PeriphClockCmd(RCC_APB1Periph_SPI3, ENABLE);   
 111:App/STM32F4-Discovery/Libraries/STM32F4xx_StdPeriph_Driver/src/stm32f4xx_spi.c ****   *          I2S_StructInit(&I2SInitStruct);
 112:App/STM32F4-Discovery/Libraries/STM32F4xx_StdPeriph_Driver/src/stm32f4xx_spi.c ****   *          I2SInitStruct.Mode = I2S_Mode_MasterTx;     
 113:App/STM32F4-Discovery/Libraries/STM32F4xx_StdPeriph_Driver/src/stm32f4xx_spi.c ****   *          I2S_Init(SPI3, &I2SInitStruct);
 114:App/STM32F4-Discovery/Libraries/STM32F4xx_StdPeriph_Driver/src/stm32f4xx_spi.c ****   *          I2S_FullDuplexConfig(SPI3ext, &I2SInitStruct)
 115:App/STM32F4-Discovery/Libraries/STM32F4xx_StdPeriph_Driver/src/stm32f4xx_spi.c ****   *          I2S_Cmd(SPI3, ENABLE);
 116:App/STM32F4-Discovery/Libraries/STM32F4xx_StdPeriph_Driver/src/stm32f4xx_spi.c ****   *          I2S_Cmd(SPI3ext, ENABLE);
 117:App/STM32F4-Discovery/Libraries/STM32F4xx_StdPeriph_Driver/src/stm32f4xx_spi.c ****   *          ...
 118:App/STM32F4-Discovery/Libraries/STM32F4xx_StdPeriph_Driver/src/stm32f4xx_spi.c ****   *          while (SPI_I2S_GetFlagStatus(SPI2, SPI_FLAG_TXE) == RESET)
 119:App/STM32F4-Discovery/Libraries/STM32F4xx_StdPeriph_Driver/src/stm32f4xx_spi.c ****   *          {}
 120:App/STM32F4-Discovery/Libraries/STM32F4xx_StdPeriph_Driver/src/stm32f4xx_spi.c ****   *          SPI_I2S_SendData(SPI3, txdata[i]);
 121:App/STM32F4-Discovery/Libraries/STM32F4xx_StdPeriph_Driver/src/stm32f4xx_spi.c ****   *          ...  
 122:App/STM32F4-Discovery/Libraries/STM32F4xx_StdPeriph_Driver/src/stm32f4xx_spi.c ****   *          while (SPI_I2S_GetFlagStatus(I2S3ext, SPI_FLAG_RXNE) == RESET)
 123:App/STM32F4-Discovery/Libraries/STM32F4xx_StdPeriph_Driver/src/stm32f4xx_spi.c ****   *          {}
 124:App/STM32F4-Discovery/Libraries/STM32F4xx_StdPeriph_Driver/src/stm32f4xx_spi.c ****   *          rxdata[i] = SPI_I2S_ReceiveData(I2S3ext);
 125:App/STM32F4-Discovery/Libraries/STM32F4xx_StdPeriph_Driver/src/stm32f4xx_spi.c ****   *          ...          
 126:App/STM32F4-Discovery/Libraries/STM32F4xx_StdPeriph_Driver/src/stm32f4xx_spi.c ****   *              
 127:App/STM32F4-Discovery/Libraries/STM32F4xx_StdPeriph_Driver/src/stm32f4xx_spi.c ****   *     
 128:App/STM32F4-Discovery/Libraries/STM32F4xx_StdPeriph_Driver/src/stm32f4xx_spi.c ****   * @note    In I2S mode: if an external clock is used as source clock for the I2S,  
 129:App/STM32F4-Discovery/Libraries/STM32F4xx_StdPeriph_Driver/src/stm32f4xx_spi.c ****   *          then the define I2S_EXTERNAL_CLOCK_VAL in file stm32f4xx_conf.h should 
 130:App/STM32F4-Discovery/Libraries/STM32F4xx_StdPeriph_Driver/src/stm32f4xx_spi.c ****   *          be enabled and set to the value of the source clock frequency (in Hz).
 131:App/STM32F4-Discovery/Libraries/STM32F4xx_StdPeriph_Driver/src/stm32f4xx_spi.c ****   * 
 132:App/STM32F4-Discovery/Libraries/STM32F4xx_StdPeriph_Driver/src/stm32f4xx_spi.c ****   * @note    In SPI mode: To use the SPI TI mode, call the function SPI_TIModeCmd() 
 133:App/STM32F4-Discovery/Libraries/STM32F4xx_StdPeriph_Driver/src/stm32f4xx_spi.c ****   *          just after calling the function SPI_Init().
 134:App/STM32F4-Discovery/Libraries/STM32F4xx_StdPeriph_Driver/src/stm32f4xx_spi.c ****   *
 135:App/STM32F4-Discovery/Libraries/STM32F4xx_StdPeriph_Driver/src/stm32f4xx_spi.c ****   *  @endverbatim  
 136:App/STM32F4-Discovery/Libraries/STM32F4xx_StdPeriph_Driver/src/stm32f4xx_spi.c ****   *                                  
 137:App/STM32F4-Discovery/Libraries/STM32F4xx_StdPeriph_Driver/src/stm32f4xx_spi.c ****   ******************************************************************************
 138:App/STM32F4-Discovery/Libraries/STM32F4xx_StdPeriph_Driver/src/stm32f4xx_spi.c ****   * @attention
 139:App/STM32F4-Discovery/Libraries/STM32F4xx_StdPeriph_Driver/src/stm32f4xx_spi.c ****   *
 140:App/STM32F4-Discovery/Libraries/STM32F4xx_StdPeriph_Driver/src/stm32f4xx_spi.c ****   * THE PRESENT FIRMWARE WHICH IS FOR GUIDANCE ONLY AIMS AT PROVIDING CUSTOMERS
 141:App/STM32F4-Discovery/Libraries/STM32F4xx_StdPeriph_Driver/src/stm32f4xx_spi.c ****   * WITH CODING INFORMATION REGARDING THEIR PRODUCTS IN ORDER FOR THEM TO SAVE
 142:App/STM32F4-Discovery/Libraries/STM32F4xx_StdPeriph_Driver/src/stm32f4xx_spi.c ****   * TIME. AS A RESULT, STMICROELECTRONICS SHALL NOT BE HELD LIABLE FOR ANY
 143:App/STM32F4-Discovery/Libraries/STM32F4xx_StdPeriph_Driver/src/stm32f4xx_spi.c ****   * DIRECT, INDIRECT OR CONSEQUENTIAL DAMAGES WITH RESPECT TO ANY CLAIMS ARISING
 144:App/STM32F4-Discovery/Libraries/STM32F4xx_StdPeriph_Driver/src/stm32f4xx_spi.c ****   * FROM THE CONTENT OF SUCH FIRMWARE AND/OR THE USE MADE BY CUSTOMERS OF THE
 145:App/STM32F4-Discovery/Libraries/STM32F4xx_StdPeriph_Driver/src/stm32f4xx_spi.c ****   * CODING INFORMATION CONTAINED HEREIN IN CONNECTION WITH THEIR PRODUCTS.
 146:App/STM32F4-Discovery/Libraries/STM32F4xx_StdPeriph_Driver/src/stm32f4xx_spi.c ****   *
 147:App/STM32F4-Discovery/Libraries/STM32F4xx_StdPeriph_Driver/src/stm32f4xx_spi.c ****   * <h2><center>&copy; COPYRIGHT 2011 STMicroelectronics</center></h2>
 148:App/STM32F4-Discovery/Libraries/STM32F4xx_StdPeriph_Driver/src/stm32f4xx_spi.c ****   ******************************************************************************  
 149:App/STM32F4-Discovery/Libraries/STM32F4xx_StdPeriph_Driver/src/stm32f4xx_spi.c ****   */ 
 150:App/STM32F4-Discovery/Libraries/STM32F4xx_StdPeriph_Driver/src/stm32f4xx_spi.c **** 
 151:App/STM32F4-Discovery/Libraries/STM32F4xx_StdPeriph_Driver/src/stm32f4xx_spi.c **** /* Includes ------------------------------------------------------------------*/
 152:App/STM32F4-Discovery/Libraries/STM32F4xx_StdPeriph_Driver/src/stm32f4xx_spi.c **** #include "stm32f4xx_spi.h"
 153:App/STM32F4-Discovery/Libraries/STM32F4xx_StdPeriph_Driver/src/stm32f4xx_spi.c **** #include "stm32f4xx_rcc.h"
 154:App/STM32F4-Discovery/Libraries/STM32F4xx_StdPeriph_Driver/src/stm32f4xx_spi.c **** 
 155:App/STM32F4-Discovery/Libraries/STM32F4xx_StdPeriph_Driver/src/stm32f4xx_spi.c **** /** @addtogroup STM32F4xx_StdPeriph_Driver
 156:App/STM32F4-Discovery/Libraries/STM32F4xx_StdPeriph_Driver/src/stm32f4xx_spi.c ****   * @{
 157:App/STM32F4-Discovery/Libraries/STM32F4xx_StdPeriph_Driver/src/stm32f4xx_spi.c ****   */
 158:App/STM32F4-Discovery/Libraries/STM32F4xx_StdPeriph_Driver/src/stm32f4xx_spi.c **** 
 159:App/STM32F4-Discovery/Libraries/STM32F4xx_StdPeriph_Driver/src/stm32f4xx_spi.c **** /** @defgroup SPI 
 160:App/STM32F4-Discovery/Libraries/STM32F4xx_StdPeriph_Driver/src/stm32f4xx_spi.c ****   * @brief SPI driver modules
 161:App/STM32F4-Discovery/Libraries/STM32F4xx_StdPeriph_Driver/src/stm32f4xx_spi.c ****   * @{
 162:App/STM32F4-Discovery/Libraries/STM32F4xx_StdPeriph_Driver/src/stm32f4xx_spi.c ****   */ 
 163:App/STM32F4-Discovery/Libraries/STM32F4xx_StdPeriph_Driver/src/stm32f4xx_spi.c **** 
 164:App/STM32F4-Discovery/Libraries/STM32F4xx_StdPeriph_Driver/src/stm32f4xx_spi.c **** /* Private typedef -----------------------------------------------------------*/
 165:App/STM32F4-Discovery/Libraries/STM32F4xx_StdPeriph_Driver/src/stm32f4xx_spi.c **** /* Private define ------------------------------------------------------------*/
 166:App/STM32F4-Discovery/Libraries/STM32F4xx_StdPeriph_Driver/src/stm32f4xx_spi.c **** 
 167:App/STM32F4-Discovery/Libraries/STM32F4xx_StdPeriph_Driver/src/stm32f4xx_spi.c **** /* SPI registers Masks */
 168:App/STM32F4-Discovery/Libraries/STM32F4xx_StdPeriph_Driver/src/stm32f4xx_spi.c **** #define CR1_CLEAR_MASK            ((uint16_t)0x3040)
 169:App/STM32F4-Discovery/Libraries/STM32F4xx_StdPeriph_Driver/src/stm32f4xx_spi.c **** #define I2SCFGR_CLEAR_MASK        ((uint16_t)0xF040)
 170:App/STM32F4-Discovery/Libraries/STM32F4xx_StdPeriph_Driver/src/stm32f4xx_spi.c **** 
 171:App/STM32F4-Discovery/Libraries/STM32F4xx_StdPeriph_Driver/src/stm32f4xx_spi.c **** /* RCC PLLs masks */
 172:App/STM32F4-Discovery/Libraries/STM32F4xx_StdPeriph_Driver/src/stm32f4xx_spi.c **** #define PLLCFGR_PPLR_MASK         ((uint32_t)0x70000000)
 173:App/STM32F4-Discovery/Libraries/STM32F4xx_StdPeriph_Driver/src/stm32f4xx_spi.c **** #define PLLCFGR_PPLN_MASK         ((uint32_t)0x00007FC0)
 174:App/STM32F4-Discovery/Libraries/STM32F4xx_StdPeriph_Driver/src/stm32f4xx_spi.c **** 
 175:App/STM32F4-Discovery/Libraries/STM32F4xx_StdPeriph_Driver/src/stm32f4xx_spi.c **** #define SPI_CR2_FRF               ((uint16_t)0x0010)
 176:App/STM32F4-Discovery/Libraries/STM32F4xx_StdPeriph_Driver/src/stm32f4xx_spi.c **** #define SPI_SR_TIFRFE             ((uint16_t)0x0100)
 177:App/STM32F4-Discovery/Libraries/STM32F4xx_StdPeriph_Driver/src/stm32f4xx_spi.c **** 
 178:App/STM32F4-Discovery/Libraries/STM32F4xx_StdPeriph_Driver/src/stm32f4xx_spi.c **** /* Private macro -------------------------------------------------------------*/
 179:App/STM32F4-Discovery/Libraries/STM32F4xx_StdPeriph_Driver/src/stm32f4xx_spi.c **** /* Private variables ---------------------------------------------------------*/
 180:App/STM32F4-Discovery/Libraries/STM32F4xx_StdPeriph_Driver/src/stm32f4xx_spi.c **** /* Private function prototypes -----------------------------------------------*/
 181:App/STM32F4-Discovery/Libraries/STM32F4xx_StdPeriph_Driver/src/stm32f4xx_spi.c **** /* Private functions ---------------------------------------------------------*/
 182:App/STM32F4-Discovery/Libraries/STM32F4xx_StdPeriph_Driver/src/stm32f4xx_spi.c **** 
 183:App/STM32F4-Discovery/Libraries/STM32F4xx_StdPeriph_Driver/src/stm32f4xx_spi.c **** /** @defgroup SPI_Private_Functions
 184:App/STM32F4-Discovery/Libraries/STM32F4xx_StdPeriph_Driver/src/stm32f4xx_spi.c ****   * @{
 185:App/STM32F4-Discovery/Libraries/STM32F4xx_StdPeriph_Driver/src/stm32f4xx_spi.c ****   */
 186:App/STM32F4-Discovery/Libraries/STM32F4xx_StdPeriph_Driver/src/stm32f4xx_spi.c **** 
 187:App/STM32F4-Discovery/Libraries/STM32F4xx_StdPeriph_Driver/src/stm32f4xx_spi.c **** /** @defgroup SPI_Group1 Initialization and Configuration functions
 188:App/STM32F4-Discovery/Libraries/STM32F4xx_StdPeriph_Driver/src/stm32f4xx_spi.c ****  *  @brief   Initialization and Configuration functions 
 189:App/STM32F4-Discovery/Libraries/STM32F4xx_StdPeriph_Driver/src/stm32f4xx_spi.c ****  *
 190:App/STM32F4-Discovery/Libraries/STM32F4xx_StdPeriph_Driver/src/stm32f4xx_spi.c **** @verbatim   
 191:App/STM32F4-Discovery/Libraries/STM32F4xx_StdPeriph_Driver/src/stm32f4xx_spi.c ****  ===============================================================================
 192:App/STM32F4-Discovery/Libraries/STM32F4xx_StdPeriph_Driver/src/stm32f4xx_spi.c ****                   Initialization and Configuration functions
 193:App/STM32F4-Discovery/Libraries/STM32F4xx_StdPeriph_Driver/src/stm32f4xx_spi.c ****  ===============================================================================  
 194:App/STM32F4-Discovery/Libraries/STM32F4xx_StdPeriph_Driver/src/stm32f4xx_spi.c **** 
 195:App/STM32F4-Discovery/Libraries/STM32F4xx_StdPeriph_Driver/src/stm32f4xx_spi.c ****   This section provides a set of functions allowing to initialize the SPI Direction,
 196:App/STM32F4-Discovery/Libraries/STM32F4xx_StdPeriph_Driver/src/stm32f4xx_spi.c ****   SPI Mode, SPI Data Size, SPI Polarity, SPI Phase, SPI NSS Management, SPI Baud
 197:App/STM32F4-Discovery/Libraries/STM32F4xx_StdPeriph_Driver/src/stm32f4xx_spi.c ****   Rate Prescaler, SPI First Bit and SPI CRC Polynomial.
 198:App/STM32F4-Discovery/Libraries/STM32F4xx_StdPeriph_Driver/src/stm32f4xx_spi.c ****   
 199:App/STM32F4-Discovery/Libraries/STM32F4xx_StdPeriph_Driver/src/stm32f4xx_spi.c ****   The SPI_Init() function follows the SPI configuration procedures for Master mode
 200:App/STM32F4-Discovery/Libraries/STM32F4xx_StdPeriph_Driver/src/stm32f4xx_spi.c ****   and Slave mode (details for these procedures are available in reference manual
 201:App/STM32F4-Discovery/Libraries/STM32F4xx_StdPeriph_Driver/src/stm32f4xx_spi.c ****   (RM0090)).
 202:App/STM32F4-Discovery/Libraries/STM32F4xx_StdPeriph_Driver/src/stm32f4xx_spi.c ****   
 203:App/STM32F4-Discovery/Libraries/STM32F4xx_StdPeriph_Driver/src/stm32f4xx_spi.c **** @endverbatim
 204:App/STM32F4-Discovery/Libraries/STM32F4xx_StdPeriph_Driver/src/stm32f4xx_spi.c ****   * @{
 205:App/STM32F4-Discovery/Libraries/STM32F4xx_StdPeriph_Driver/src/stm32f4xx_spi.c ****   */
 206:App/STM32F4-Discovery/Libraries/STM32F4xx_StdPeriph_Driver/src/stm32f4xx_spi.c **** 
 207:App/STM32F4-Discovery/Libraries/STM32F4xx_StdPeriph_Driver/src/stm32f4xx_spi.c **** /**
 208:App/STM32F4-Discovery/Libraries/STM32F4xx_StdPeriph_Driver/src/stm32f4xx_spi.c ****   * @brief  Deinitialize the SPIx peripheral registers to their default reset values.
 209:App/STM32F4-Discovery/Libraries/STM32F4xx_StdPeriph_Driver/src/stm32f4xx_spi.c ****   * @param  SPIx: To select the SPIx/I2Sx peripheral, where x can be: 1, 2 or 3 
 210:App/STM32F4-Discovery/Libraries/STM32F4xx_StdPeriph_Driver/src/stm32f4xx_spi.c ****   *         in SPI mode or 2 or 3 in I2S mode.   
 211:App/STM32F4-Discovery/Libraries/STM32F4xx_StdPeriph_Driver/src/stm32f4xx_spi.c ****   *         
 212:App/STM32F4-Discovery/Libraries/STM32F4xx_StdPeriph_Driver/src/stm32f4xx_spi.c ****   * @note   The extended I2S blocks (ie. I2S2ext and I2S3ext blocks) are deinitialized
 213:App/STM32F4-Discovery/Libraries/STM32F4xx_StdPeriph_Driver/src/stm32f4xx_spi.c ****   *         when the relative I2S peripheral is deinitialized (the extended block's clock
 214:App/STM32F4-Discovery/Libraries/STM32F4xx_StdPeriph_Driver/src/stm32f4xx_spi.c ****   *         is managed by the I2S peripheral clock).
 215:App/STM32F4-Discovery/Libraries/STM32F4xx_StdPeriph_Driver/src/stm32f4xx_spi.c ****   *             
 216:App/STM32F4-Discovery/Libraries/STM32F4xx_StdPeriph_Driver/src/stm32f4xx_spi.c ****   * @retval None
 217:App/STM32F4-Discovery/Libraries/STM32F4xx_StdPeriph_Driver/src/stm32f4xx_spi.c ****   */
 218:App/STM32F4-Discovery/Libraries/STM32F4xx_StdPeriph_Driver/src/stm32f4xx_spi.c **** void SPI_I2S_DeInit(SPI_TypeDef* SPIx)
 219:App/STM32F4-Discovery/Libraries/STM32F4xx_StdPeriph_Driver/src/stm32f4xx_spi.c **** {
  33              		.loc 1 219 0
  34              		.cfi_startproc
  35              		@ args = 0, pretend = 0, frame = 8
  36              		@ frame_needed = 1, uses_anonymous_args = 0
  37 0000 80B5     		push	{r7, lr}
  38              	.LCFI0:
  39              		.cfi_def_cfa_offset 8
  40              		.cfi_offset 7, -8
  41              		.cfi_offset 14, -4
  42 0002 82B0     		sub	sp, sp, #8
  43              	.LCFI1:
  44              		.cfi_def_cfa_offset 16
  45 0004 00AF     		add	r7, sp, #0
  46              	.LCFI2:
  47              		.cfi_def_cfa_register 7
  48 0006 7860     		str	r0, [r7, #4]
 220:App/STM32F4-Discovery/Libraries/STM32F4xx_StdPeriph_Driver/src/stm32f4xx_spi.c ****   /* Check the parameters */
 221:App/STM32F4-Discovery/Libraries/STM32F4xx_StdPeriph_Driver/src/stm32f4xx_spi.c ****   assert_param(IS_SPI_ALL_PERIPH(SPIx));
  49              		.loc 1 221 0
  50 0008 7A68     		ldr	r2, [r7, #4]
  51 000a 1F4B     		ldr	r3, .L6
  52 000c 9A42     		cmp	r2, r3
  53 000e 0BD0     		beq	.L2
  54              		.loc 1 221 0 is_stmt 0 discriminator 1
  55 0010 7A68     		ldr	r2, [r7, #4]
  56 0012 1E4B     		ldr	r3, .L6+4
  57 0014 9A42     		cmp	r2, r3
  58 0016 07D0     		beq	.L2
  59 0018 7A68     		ldr	r2, [r7, #4]
  60 001a 1D4B     		ldr	r3, .L6+8
  61 001c 9A42     		cmp	r2, r3
  62 001e 03D0     		beq	.L2
  63 0020 1C48     		ldr	r0, .L6+12
  64 0022 DD21     		movs	r1, #221
  65 0024 FFF7FEFF 		bl	assert_failed
  66              	.L2:
 222:App/STM32F4-Discovery/Libraries/STM32F4xx_StdPeriph_Driver/src/stm32f4xx_spi.c **** 
 223:App/STM32F4-Discovery/Libraries/STM32F4xx_StdPeriph_Driver/src/stm32f4xx_spi.c ****   if (SPIx == SPI1)
  67              		.loc 1 223 0 is_stmt 1
  68 0028 7A68     		ldr	r2, [r7, #4]
  69 002a 174B     		ldr	r3, .L6
  70 002c 9A42     		cmp	r2, r3
  71 002e 0AD1     		bne	.L3
 224:App/STM32F4-Discovery/Libraries/STM32F4xx_StdPeriph_Driver/src/stm32f4xx_spi.c ****   {
 225:App/STM32F4-Discovery/Libraries/STM32F4xx_StdPeriph_Driver/src/stm32f4xx_spi.c ****     /* Enable SPI1 reset state */
 226:App/STM32F4-Discovery/Libraries/STM32F4xx_StdPeriph_Driver/src/stm32f4xx_spi.c ****     RCC_APB2PeriphResetCmd(RCC_APB2Periph_SPI1, ENABLE);
  72              		.loc 1 226 0
  73 0030 4FF48050 		mov	r0, #4096
  74 0034 0121     		movs	r1, #1
  75 0036 FFF7FEFF 		bl	RCC_APB2PeriphResetCmd
 227:App/STM32F4-Discovery/Libraries/STM32F4xx_StdPeriph_Driver/src/stm32f4xx_spi.c ****     /* Release SPI1 from reset state */
 228:App/STM32F4-Discovery/Libraries/STM32F4xx_StdPeriph_Driver/src/stm32f4xx_spi.c ****     RCC_APB2PeriphResetCmd(RCC_APB2Periph_SPI1, DISABLE);
  76              		.loc 1 228 0
  77 003a 4FF48050 		mov	r0, #4096
  78 003e 0021     		movs	r1, #0
  79 0040 FFF7FEFF 		bl	RCC_APB2PeriphResetCmd
  80 0044 1CE0     		b	.L1
  81              	.L3:
 229:App/STM32F4-Discovery/Libraries/STM32F4xx_StdPeriph_Driver/src/stm32f4xx_spi.c ****   }
 230:App/STM32F4-Discovery/Libraries/STM32F4xx_StdPeriph_Driver/src/stm32f4xx_spi.c ****   else if (SPIx == SPI2)
  82              		.loc 1 230 0
  83 0046 7A68     		ldr	r2, [r7, #4]
  84 0048 104B     		ldr	r3, .L6+4
  85 004a 9A42     		cmp	r2, r3
  86 004c 0AD1     		bne	.L5
 231:App/STM32F4-Discovery/Libraries/STM32F4xx_StdPeriph_Driver/src/stm32f4xx_spi.c ****   {
 232:App/STM32F4-Discovery/Libraries/STM32F4xx_StdPeriph_Driver/src/stm32f4xx_spi.c ****     /* Enable SPI2 reset state */
 233:App/STM32F4-Discovery/Libraries/STM32F4xx_StdPeriph_Driver/src/stm32f4xx_spi.c ****     RCC_APB1PeriphResetCmd(RCC_APB1Periph_SPI2, ENABLE);
  87              		.loc 1 233 0
  88 004e 4FF48040 		mov	r0, #16384
  89 0052 0121     		movs	r1, #1
  90 0054 FFF7FEFF 		bl	RCC_APB1PeriphResetCmd
 234:App/STM32F4-Discovery/Libraries/STM32F4xx_StdPeriph_Driver/src/stm32f4xx_spi.c ****     /* Release SPI2 from reset state */
 235:App/STM32F4-Discovery/Libraries/STM32F4xx_StdPeriph_Driver/src/stm32f4xx_spi.c ****     RCC_APB1PeriphResetCmd(RCC_APB1Periph_SPI2, DISABLE);
  91              		.loc 1 235 0
  92 0058 4FF48040 		mov	r0, #16384
  93 005c 0021     		movs	r1, #0
  94 005e FFF7FEFF 		bl	RCC_APB1PeriphResetCmd
  95 0062 0DE0     		b	.L1
  96              	.L5:
 236:App/STM32F4-Discovery/Libraries/STM32F4xx_StdPeriph_Driver/src/stm32f4xx_spi.c ****     }
 237:App/STM32F4-Discovery/Libraries/STM32F4xx_StdPeriph_Driver/src/stm32f4xx_spi.c ****   else
 238:App/STM32F4-Discovery/Libraries/STM32F4xx_StdPeriph_Driver/src/stm32f4xx_spi.c ****   {
 239:App/STM32F4-Discovery/Libraries/STM32F4xx_StdPeriph_Driver/src/stm32f4xx_spi.c ****     if (SPIx == SPI3)
  97              		.loc 1 239 0
  98 0064 7A68     		ldr	r2, [r7, #4]
  99 0066 0A4B     		ldr	r3, .L6+8
 100 0068 9A42     		cmp	r2, r3
 101 006a 09D1     		bne	.L1
 240:App/STM32F4-Discovery/Libraries/STM32F4xx_StdPeriph_Driver/src/stm32f4xx_spi.c ****     {
 241:App/STM32F4-Discovery/Libraries/STM32F4xx_StdPeriph_Driver/src/stm32f4xx_spi.c ****       /* Enable SPI3 reset state */
 242:App/STM32F4-Discovery/Libraries/STM32F4xx_StdPeriph_Driver/src/stm32f4xx_spi.c ****       RCC_APB1PeriphResetCmd(RCC_APB1Periph_SPI3, ENABLE);
 102              		.loc 1 242 0
 103 006c 4FF40040 		mov	r0, #32768
 104 0070 0121     		movs	r1, #1
 105 0072 FFF7FEFF 		bl	RCC_APB1PeriphResetCmd
 243:App/STM32F4-Discovery/Libraries/STM32F4xx_StdPeriph_Driver/src/stm32f4xx_spi.c ****       /* Release SPI3 from reset state */
 244:App/STM32F4-Discovery/Libraries/STM32F4xx_StdPeriph_Driver/src/stm32f4xx_spi.c ****       RCC_APB1PeriphResetCmd(RCC_APB1Periph_SPI3, DISABLE);
 106              		.loc 1 244 0
 107 0076 4FF40040 		mov	r0, #32768
 108 007a 0021     		movs	r1, #0
 109 007c FFF7FEFF 		bl	RCC_APB1PeriphResetCmd
 110              	.L1:
 245:App/STM32F4-Discovery/Libraries/STM32F4xx_StdPeriph_Driver/src/stm32f4xx_spi.c ****     }
 246:App/STM32F4-Discovery/Libraries/STM32F4xx_StdPeriph_Driver/src/stm32f4xx_spi.c ****   }
 247:App/STM32F4-Discovery/Libraries/STM32F4xx_StdPeriph_Driver/src/stm32f4xx_spi.c **** }
 111              		.loc 1 247 0
 112 0080 0837     		adds	r7, r7, #8
 113 0082 BD46     		mov	sp, r7
 114              		@ sp needed
 115 0084 80BD     		pop	{r7, pc}
 116              	.L7:
 117 0086 00BF     		.align	2
 118              	.L6:
 119 0088 00300140 		.word	1073819648
 120 008c 00380040 		.word	1073756160
 121 0090 003C0040 		.word	1073757184
 122 0094 00000000 		.word	.LC0
 123              		.cfi_endproc
 124              	.LFE110:
 126              		.section	.text.SPI_Init,"ax",%progbits
 127              		.align	2
 128              		.global	SPI_Init
 129              		.thumb
 130              		.thumb_func
 132              	SPI_Init:
 133              	.LFB111:
 248:App/STM32F4-Discovery/Libraries/STM32F4xx_StdPeriph_Driver/src/stm32f4xx_spi.c **** 
 249:App/STM32F4-Discovery/Libraries/STM32F4xx_StdPeriph_Driver/src/stm32f4xx_spi.c **** /**
 250:App/STM32F4-Discovery/Libraries/STM32F4xx_StdPeriph_Driver/src/stm32f4xx_spi.c ****   * @brief  Initializes the SPIx peripheral according to the specified 
 251:App/STM32F4-Discovery/Libraries/STM32F4xx_StdPeriph_Driver/src/stm32f4xx_spi.c ****   *         parameters in the SPI_InitStruct.
 252:App/STM32F4-Discovery/Libraries/STM32F4xx_StdPeriph_Driver/src/stm32f4xx_spi.c ****   * @param  SPIx: where x can be 1, 2 or 3 to select the SPI peripheral.
 253:App/STM32F4-Discovery/Libraries/STM32F4xx_StdPeriph_Driver/src/stm32f4xx_spi.c ****   * @param  SPI_InitStruct: pointer to a SPI_InitTypeDef structure that
 254:App/STM32F4-Discovery/Libraries/STM32F4xx_StdPeriph_Driver/src/stm32f4xx_spi.c ****   *         contains the configuration information for the specified SPI peripheral.
 255:App/STM32F4-Discovery/Libraries/STM32F4xx_StdPeriph_Driver/src/stm32f4xx_spi.c ****   * @retval None
 256:App/STM32F4-Discovery/Libraries/STM32F4xx_StdPeriph_Driver/src/stm32f4xx_spi.c ****   */
 257:App/STM32F4-Discovery/Libraries/STM32F4xx_StdPeriph_Driver/src/stm32f4xx_spi.c **** void SPI_Init(SPI_TypeDef* SPIx, SPI_InitTypeDef* SPI_InitStruct)
 258:App/STM32F4-Discovery/Libraries/STM32F4xx_StdPeriph_Driver/src/stm32f4xx_spi.c **** {
 134              		.loc 1 258 0
 135              		.cfi_startproc
 136              		@ args = 0, pretend = 0, frame = 16
 137              		@ frame_needed = 1, uses_anonymous_args = 0
 138 0000 80B5     		push	{r7, lr}
 139              	.LCFI3:
 140              		.cfi_def_cfa_offset 8
 141              		.cfi_offset 7, -8
 142              		.cfi_offset 14, -4
 143 0002 84B0     		sub	sp, sp, #16
 144              	.LCFI4:
 145              		.cfi_def_cfa_offset 24
 146 0004 00AF     		add	r7, sp, #0
 147              	.LCFI5:
 148              		.cfi_def_cfa_register 7
 149 0006 7860     		str	r0, [r7, #4]
 150 0008 3960     		str	r1, [r7]
 259:App/STM32F4-Discovery/Libraries/STM32F4xx_StdPeriph_Driver/src/stm32f4xx_spi.c ****   uint16_t tmpreg = 0;
 151              		.loc 1 259 0
 152 000a 0023     		movs	r3, #0
 153 000c FB81     		strh	r3, [r7, #14]	@ movhi
 260:App/STM32F4-Discovery/Libraries/STM32F4xx_StdPeriph_Driver/src/stm32f4xx_spi.c ****   
 261:App/STM32F4-Discovery/Libraries/STM32F4xx_StdPeriph_Driver/src/stm32f4xx_spi.c ****   /* check the parameters */
 262:App/STM32F4-Discovery/Libraries/STM32F4xx_StdPeriph_Driver/src/stm32f4xx_spi.c ****   assert_param(IS_SPI_ALL_PERIPH(SPIx));
 154              		.loc 1 262 0
 155 000e 7A68     		ldr	r2, [r7, #4]
 156 0010 704B     		ldr	r3, .L19
 157 0012 9A42     		cmp	r2, r3
 158 0014 0CD0     		beq	.L9
 159              		.loc 1 262 0 is_stmt 0 discriminator 1
 160 0016 7A68     		ldr	r2, [r7, #4]
 161 0018 6F4B     		ldr	r3, .L19+4
 162 001a 9A42     		cmp	r2, r3
 163 001c 08D0     		beq	.L9
 164 001e 7A68     		ldr	r2, [r7, #4]
 165 0020 6E4B     		ldr	r3, .L19+8
 166 0022 9A42     		cmp	r2, r3
 167 0024 04D0     		beq	.L9
 168 0026 6E48     		ldr	r0, .L19+12
 169 0028 4FF48371 		mov	r1, #262
 170 002c FFF7FEFF 		bl	assert_failed
 171              	.L9:
 263:App/STM32F4-Discovery/Libraries/STM32F4xx_StdPeriph_Driver/src/stm32f4xx_spi.c ****   
 264:App/STM32F4-Discovery/Libraries/STM32F4xx_StdPeriph_Driver/src/stm32f4xx_spi.c ****   /* Check the SPI parameters */
 265:App/STM32F4-Discovery/Libraries/STM32F4xx_StdPeriph_Driver/src/stm32f4xx_spi.c ****   assert_param(IS_SPI_DIRECTION_MODE(SPI_InitStruct->SPI_Direction));
 172              		.loc 1 265 0 is_stmt 1
 173 0030 3B68     		ldr	r3, [r7]
 174 0032 1B88     		ldrh	r3, [r3]
 175 0034 002B     		cmp	r3, #0
 176 0036 13D0     		beq	.L10
 177              		.loc 1 265 0 is_stmt 0 discriminator 1
 178 0038 3B68     		ldr	r3, [r7]
 179 003a 1B88     		ldrh	r3, [r3]
 180 003c B3F5806F 		cmp	r3, #1024
 181 0040 0ED0     		beq	.L10
 182 0042 3B68     		ldr	r3, [r7]
 183 0044 1B88     		ldrh	r3, [r3]
 184 0046 B3F5004F 		cmp	r3, #32768
 185 004a 09D0     		beq	.L10
 186 004c 3B68     		ldr	r3, [r7]
 187 004e 1B88     		ldrh	r3, [r3]
 188 0050 B3F5404F 		cmp	r3, #49152
 189 0054 04D0     		beq	.L10
 190 0056 6248     		ldr	r0, .L19+12
 191 0058 40F20911 		movw	r1, #265
 192 005c FFF7FEFF 		bl	assert_failed
 193              	.L10:
 266:App/STM32F4-Discovery/Libraries/STM32F4xx_StdPeriph_Driver/src/stm32f4xx_spi.c ****   assert_param(IS_SPI_MODE(SPI_InitStruct->SPI_Mode));
 194              		.loc 1 266 0 is_stmt 1
 195 0060 3B68     		ldr	r3, [r7]
 196 0062 5B88     		ldrh	r3, [r3, #2]
 197 0064 B3F5827F 		cmp	r3, #260
 198 0068 08D0     		beq	.L11
 199              		.loc 1 266 0 is_stmt 0 discriminator 1
 200 006a 3B68     		ldr	r3, [r7]
 201 006c 5B88     		ldrh	r3, [r3, #2]
 202 006e 002B     		cmp	r3, #0
 203 0070 04D0     		beq	.L11
 204 0072 5B48     		ldr	r0, .L19+12
 205 0074 4FF48571 		mov	r1, #266
 206 0078 FFF7FEFF 		bl	assert_failed
 207              	.L11:
 267:App/STM32F4-Discovery/Libraries/STM32F4xx_StdPeriph_Driver/src/stm32f4xx_spi.c ****   assert_param(IS_SPI_DATASIZE(SPI_InitStruct->SPI_DataSize));
 208              		.loc 1 267 0 is_stmt 1
 209 007c 3B68     		ldr	r3, [r7]
 210 007e 9B88     		ldrh	r3, [r3, #4]
 211 0080 B3F5006F 		cmp	r3, #2048
 212 0084 08D0     		beq	.L12
 213              		.loc 1 267 0 is_stmt 0 discriminator 1
 214 0086 3B68     		ldr	r3, [r7]
 215 0088 9B88     		ldrh	r3, [r3, #4]
 216 008a 002B     		cmp	r3, #0
 217 008c 04D0     		beq	.L12
 218 008e 5448     		ldr	r0, .L19+12
 219 0090 40F20B11 		movw	r1, #267
 220 0094 FFF7FEFF 		bl	assert_failed
 221              	.L12:
 268:App/STM32F4-Discovery/Libraries/STM32F4xx_StdPeriph_Driver/src/stm32f4xx_spi.c ****   assert_param(IS_SPI_CPOL(SPI_InitStruct->SPI_CPOL));
 222              		.loc 1 268 0 is_stmt 1
 223 0098 3B68     		ldr	r3, [r7]
 224 009a DB88     		ldrh	r3, [r3, #6]
 225 009c 002B     		cmp	r3, #0
 226 009e 08D0     		beq	.L13
 227              		.loc 1 268 0 is_stmt 0 discriminator 1
 228 00a0 3B68     		ldr	r3, [r7]
 229 00a2 DB88     		ldrh	r3, [r3, #6]
 230 00a4 022B     		cmp	r3, #2
 231 00a6 04D0     		beq	.L13
 232 00a8 4D48     		ldr	r0, .L19+12
 233 00aa 4FF48671 		mov	r1, #268
 234 00ae FFF7FEFF 		bl	assert_failed
 235              	.L13:
 269:App/STM32F4-Discovery/Libraries/STM32F4xx_StdPeriph_Driver/src/stm32f4xx_spi.c ****   assert_param(IS_SPI_CPHA(SPI_InitStruct->SPI_CPHA));
 236              		.loc 1 269 0 is_stmt 1
 237 00b2 3B68     		ldr	r3, [r7]
 238 00b4 1B89     		ldrh	r3, [r3, #8]
 239 00b6 002B     		cmp	r3, #0
 240 00b8 08D0     		beq	.L14
 241              		.loc 1 269 0 is_stmt 0 discriminator 1
 242 00ba 3B68     		ldr	r3, [r7]
 243 00bc 1B89     		ldrh	r3, [r3, #8]
 244 00be 012B     		cmp	r3, #1
 245 00c0 04D0     		beq	.L14
 246 00c2 4748     		ldr	r0, .L19+12
 247 00c4 40F20D11 		movw	r1, #269
 248 00c8 FFF7FEFF 		bl	assert_failed
 249              	.L14:
 270:App/STM32F4-Discovery/Libraries/STM32F4xx_StdPeriph_Driver/src/stm32f4xx_spi.c ****   assert_param(IS_SPI_NSS(SPI_InitStruct->SPI_NSS));
 250              		.loc 1 270 0 is_stmt 1
 251 00cc 3B68     		ldr	r3, [r7]
 252 00ce 5B89     		ldrh	r3, [r3, #10]
 253 00d0 B3F5007F 		cmp	r3, #512
 254 00d4 08D0     		beq	.L15
 255              		.loc 1 270 0 is_stmt 0 discriminator 1
 256 00d6 3B68     		ldr	r3, [r7]
 257 00d8 5B89     		ldrh	r3, [r3, #10]
 258 00da 002B     		cmp	r3, #0
 259 00dc 04D0     		beq	.L15
 260 00de 4048     		ldr	r0, .L19+12
 261 00e0 4FF48771 		mov	r1, #270
 262 00e4 FFF7FEFF 		bl	assert_failed
 263              	.L15:
 271:App/STM32F4-Discovery/Libraries/STM32F4xx_StdPeriph_Driver/src/stm32f4xx_spi.c ****   assert_param(IS_SPI_BAUDRATE_PRESCALER(SPI_InitStruct->SPI_BaudRatePrescaler));
 264              		.loc 1 271 0 is_stmt 1
 265 00e8 3B68     		ldr	r3, [r7]
 266 00ea 9B89     		ldrh	r3, [r3, #12]
 267 00ec 002B     		cmp	r3, #0
 268 00ee 20D0     		beq	.L16
 269              		.loc 1 271 0 is_stmt 0 discriminator 1
 270 00f0 3B68     		ldr	r3, [r7]
 271 00f2 9B89     		ldrh	r3, [r3, #12]
 272 00f4 082B     		cmp	r3, #8
 273 00f6 1CD0     		beq	.L16
 274 00f8 3B68     		ldr	r3, [r7]
 275 00fa 9B89     		ldrh	r3, [r3, #12]
 276 00fc 102B     		cmp	r3, #16
 277 00fe 18D0     		beq	.L16
 278 0100 3B68     		ldr	r3, [r7]
 279 0102 9B89     		ldrh	r3, [r3, #12]
 280 0104 182B     		cmp	r3, #24
 281 0106 14D0     		beq	.L16
 282 0108 3B68     		ldr	r3, [r7]
 283 010a 9B89     		ldrh	r3, [r3, #12]
 284 010c 202B     		cmp	r3, #32
 285 010e 10D0     		beq	.L16
 286 0110 3B68     		ldr	r3, [r7]
 287 0112 9B89     		ldrh	r3, [r3, #12]
 288 0114 282B     		cmp	r3, #40
 289 0116 0CD0     		beq	.L16
 290 0118 3B68     		ldr	r3, [r7]
 291 011a 9B89     		ldrh	r3, [r3, #12]
 292 011c 302B     		cmp	r3, #48
 293 011e 08D0     		beq	.L16
 294 0120 3B68     		ldr	r3, [r7]
 295 0122 9B89     		ldrh	r3, [r3, #12]
 296 0124 382B     		cmp	r3, #56
 297 0126 04D0     		beq	.L16
 298 0128 2D48     		ldr	r0, .L19+12
 299 012a 40F20F11 		movw	r1, #271
 300 012e FFF7FEFF 		bl	assert_failed
 301              	.L16:
 272:App/STM32F4-Discovery/Libraries/STM32F4xx_StdPeriph_Driver/src/stm32f4xx_spi.c ****   assert_param(IS_SPI_FIRST_BIT(SPI_InitStruct->SPI_FirstBit));
 302              		.loc 1 272 0 is_stmt 1
 303 0132 3B68     		ldr	r3, [r7]
 304 0134 DB89     		ldrh	r3, [r3, #14]
 305 0136 002B     		cmp	r3, #0
 306 0138 08D0     		beq	.L17
 307              		.loc 1 272 0 is_stmt 0 discriminator 1
 308 013a 3B68     		ldr	r3, [r7]
 309 013c DB89     		ldrh	r3, [r3, #14]
 310 013e 802B     		cmp	r3, #128
 311 0140 04D0     		beq	.L17
 312 0142 2748     		ldr	r0, .L19+12
 313 0144 4FF48871 		mov	r1, #272
 314 0148 FFF7FEFF 		bl	assert_failed
 315              	.L17:
 273:App/STM32F4-Discovery/Libraries/STM32F4xx_StdPeriph_Driver/src/stm32f4xx_spi.c ****   assert_param(IS_SPI_CRC_POLYNOMIAL(SPI_InitStruct->SPI_CRCPolynomial));
 316              		.loc 1 273 0 is_stmt 1
 317 014c 3B68     		ldr	r3, [r7]
 318 014e 1B8A     		ldrh	r3, [r3, #16]
 319 0150 002B     		cmp	r3, #0
 320 0152 04D1     		bne	.L18
 321              		.loc 1 273 0 is_stmt 0 discriminator 1
 322 0154 2248     		ldr	r0, .L19+12
 323 0156 40F21111 		movw	r1, #273
 324 015a FFF7FEFF 		bl	assert_failed
 325              	.L18:
 274:App/STM32F4-Discovery/Libraries/STM32F4xx_StdPeriph_Driver/src/stm32f4xx_spi.c **** 
 275:App/STM32F4-Discovery/Libraries/STM32F4xx_StdPeriph_Driver/src/stm32f4xx_spi.c **** /*---------------------------- SPIx CR1 Configuration ------------------------*/
 276:App/STM32F4-Discovery/Libraries/STM32F4xx_StdPeriph_Driver/src/stm32f4xx_spi.c ****   /* Get the SPIx CR1 value */
 277:App/STM32F4-Discovery/Libraries/STM32F4xx_StdPeriph_Driver/src/stm32f4xx_spi.c ****   tmpreg = SPIx->CR1;
 326              		.loc 1 277 0 is_stmt 1
 327 015e 7B68     		ldr	r3, [r7, #4]
 328 0160 1B88     		ldrh	r3, [r3]	@ movhi
 329 0162 FB81     		strh	r3, [r7, #14]	@ movhi
 278:App/STM32F4-Discovery/Libraries/STM32F4xx_StdPeriph_Driver/src/stm32f4xx_spi.c ****   /* Clear BIDIMode, BIDIOE, RxONLY, SSM, SSI, LSBFirst, BR, MSTR, CPOL and CPHA bits */
 279:App/STM32F4-Discovery/Libraries/STM32F4xx_StdPeriph_Driver/src/stm32f4xx_spi.c ****   tmpreg &= CR1_CLEAR_MASK;
 330              		.loc 1 279 0
 331 0164 FB89     		ldrh	r3, [r7, #14]	@ movhi
 332 0166 03F44153 		and	r3, r3, #12352
 333 016a FB81     		strh	r3, [r7, #14]	@ movhi
 280:App/STM32F4-Discovery/Libraries/STM32F4xx_StdPeriph_Driver/src/stm32f4xx_spi.c ****   /* Configure SPIx: direction, NSS management, first transmitted bit, BaudRate prescaler
 281:App/STM32F4-Discovery/Libraries/STM32F4xx_StdPeriph_Driver/src/stm32f4xx_spi.c ****      master/salve mode, CPOL and CPHA */
 282:App/STM32F4-Discovery/Libraries/STM32F4xx_StdPeriph_Driver/src/stm32f4xx_spi.c ****   /* Set BIDImode, BIDIOE and RxONLY bits according to SPI_Direction value */
 283:App/STM32F4-Discovery/Libraries/STM32F4xx_StdPeriph_Driver/src/stm32f4xx_spi.c ****   /* Set SSM, SSI and MSTR bits according to SPI_Mode and SPI_NSS values */
 284:App/STM32F4-Discovery/Libraries/STM32F4xx_StdPeriph_Driver/src/stm32f4xx_spi.c ****   /* Set LSBFirst bit according to SPI_FirstBit value */
 285:App/STM32F4-Discovery/Libraries/STM32F4xx_StdPeriph_Driver/src/stm32f4xx_spi.c ****   /* Set BR bits according to SPI_BaudRatePrescaler value */
 286:App/STM32F4-Discovery/Libraries/STM32F4xx_StdPeriph_Driver/src/stm32f4xx_spi.c ****   /* Set CPOL bit according to SPI_CPOL value */
 287:App/STM32F4-Discovery/Libraries/STM32F4xx_StdPeriph_Driver/src/stm32f4xx_spi.c ****   /* Set CPHA bit according to SPI_CPHA value */
 288:App/STM32F4-Discovery/Libraries/STM32F4xx_StdPeriph_Driver/src/stm32f4xx_spi.c ****   tmpreg |= (uint16_t)((uint32_t)SPI_InitStruct->SPI_Direction | SPI_InitStruct->SPI_Mode |
 334              		.loc 1 288 0
 335 016c 3B68     		ldr	r3, [r7]
 336 016e 1A88     		ldrh	r2, [r3]
 337 0170 3B68     		ldr	r3, [r7]
 338 0172 5B88     		ldrh	r3, [r3, #2]
 339 0174 1343     		orrs	r3, r3, r2
 340 0176 9AB2     		uxth	r2, r3
 289:App/STM32F4-Discovery/Libraries/STM32F4xx_StdPeriph_Driver/src/stm32f4xx_spi.c ****                   SPI_InitStruct->SPI_DataSize | SPI_InitStruct->SPI_CPOL |  
 341              		.loc 1 289 0
 342 0178 3B68     		ldr	r3, [r7]
 343 017a 9B88     		ldrh	r3, [r3, #4]
 288:App/STM32F4-Discovery/Libraries/STM32F4xx_StdPeriph_Driver/src/stm32f4xx_spi.c ****   tmpreg |= (uint16_t)((uint32_t)SPI_InitStruct->SPI_Direction | SPI_InitStruct->SPI_Mode |
 344              		.loc 1 288 0
 345 017c 1343     		orrs	r3, r3, r2
 346 017e 9AB2     		uxth	r2, r3
 347              		.loc 1 289 0
 348 0180 3B68     		ldr	r3, [r7]
 349 0182 DB88     		ldrh	r3, [r3, #6]
 288:App/STM32F4-Discovery/Libraries/STM32F4xx_StdPeriph_Driver/src/stm32f4xx_spi.c ****   tmpreg |= (uint16_t)((uint32_t)SPI_InitStruct->SPI_Direction | SPI_InitStruct->SPI_Mode |
 350              		.loc 1 288 0
 351 0184 1343     		orrs	r3, r3, r2
 352 0186 9AB2     		uxth	r2, r3
 290:App/STM32F4-Discovery/Libraries/STM32F4xx_StdPeriph_Driver/src/stm32f4xx_spi.c ****                   SPI_InitStruct->SPI_CPHA | SPI_InitStruct->SPI_NSS |  
 353              		.loc 1 290 0
 354 0188 3B68     		ldr	r3, [r7]
 355 018a 1B89     		ldrh	r3, [r3, #8]
 288:App/STM32F4-Discovery/Libraries/STM32F4xx_StdPeriph_Driver/src/stm32f4xx_spi.c ****   tmpreg |= (uint16_t)((uint32_t)SPI_InitStruct->SPI_Direction | SPI_InitStruct->SPI_Mode |
 356              		.loc 1 288 0
 357 018c 1343     		orrs	r3, r3, r2
 358 018e 9AB2     		uxth	r2, r3
 359              		.loc 1 290 0
 360 0190 3B68     		ldr	r3, [r7]
 361 0192 5B89     		ldrh	r3, [r3, #10]
 288:App/STM32F4-Discovery/Libraries/STM32F4xx_StdPeriph_Driver/src/stm32f4xx_spi.c ****   tmpreg |= (uint16_t)((uint32_t)SPI_InitStruct->SPI_Direction | SPI_InitStruct->SPI_Mode |
 362              		.loc 1 288 0
 363 0194 1343     		orrs	r3, r3, r2
 364 0196 9AB2     		uxth	r2, r3
 291:App/STM32F4-Discovery/Libraries/STM32F4xx_StdPeriph_Driver/src/stm32f4xx_spi.c ****                   SPI_InitStruct->SPI_BaudRatePrescaler | SPI_InitStruct->SPI_FirstBit);
 365              		.loc 1 291 0
 366 0198 3B68     		ldr	r3, [r7]
 367 019a 9B89     		ldrh	r3, [r3, #12]
 288:App/STM32F4-Discovery/Libraries/STM32F4xx_StdPeriph_Driver/src/stm32f4xx_spi.c ****   tmpreg |= (uint16_t)((uint32_t)SPI_InitStruct->SPI_Direction | SPI_InitStruct->SPI_Mode |
 368              		.loc 1 288 0
 369 019c 1343     		orrs	r3, r3, r2
 370 019e 9AB2     		uxth	r2, r3
 371              		.loc 1 291 0
 372 01a0 3B68     		ldr	r3, [r7]
 373 01a2 DB89     		ldrh	r3, [r3, #14]
 288:App/STM32F4-Discovery/Libraries/STM32F4xx_StdPeriph_Driver/src/stm32f4xx_spi.c ****   tmpreg |= (uint16_t)((uint32_t)SPI_InitStruct->SPI_Direction | SPI_InitStruct->SPI_Mode |
 374              		.loc 1 288 0
 375 01a4 1343     		orrs	r3, r3, r2
 376 01a6 9AB2     		uxth	r2, r3
 377 01a8 FB89     		ldrh	r3, [r7, #14]	@ movhi
 378 01aa 1343     		orrs	r3, r3, r2
 379 01ac FB81     		strh	r3, [r7, #14]	@ movhi
 292:App/STM32F4-Discovery/Libraries/STM32F4xx_StdPeriph_Driver/src/stm32f4xx_spi.c ****   /* Write to SPIx CR1 */
 293:App/STM32F4-Discovery/Libraries/STM32F4xx_StdPeriph_Driver/src/stm32f4xx_spi.c ****   SPIx->CR1 = tmpreg;
 380              		.loc 1 293 0
 381 01ae 7B68     		ldr	r3, [r7, #4]
 382 01b0 FA89     		ldrh	r2, [r7, #14]	@ movhi
 383 01b2 1A80     		strh	r2, [r3]	@ movhi
 294:App/STM32F4-Discovery/Libraries/STM32F4xx_StdPeriph_Driver/src/stm32f4xx_spi.c **** 
 295:App/STM32F4-Discovery/Libraries/STM32F4xx_StdPeriph_Driver/src/stm32f4xx_spi.c ****   /* Activate the SPI mode (Reset I2SMOD bit in I2SCFGR register) */
 296:App/STM32F4-Discovery/Libraries/STM32F4xx_StdPeriph_Driver/src/stm32f4xx_spi.c ****   SPIx->I2SCFGR &= (uint16_t)~((uint16_t)SPI_I2SCFGR_I2SMOD);
 384              		.loc 1 296 0
 385 01b4 7B68     		ldr	r3, [r7, #4]
 386 01b6 9B8B     		ldrh	r3, [r3, #28]	@ movhi
 387 01b8 9BB2     		uxth	r3, r3
 388 01ba 23F40063 		bic	r3, r3, #2048
 389 01be 9AB2     		uxth	r2, r3
 390 01c0 7B68     		ldr	r3, [r7, #4]
 391 01c2 9A83     		strh	r2, [r3, #28]	@ movhi
 297:App/STM32F4-Discovery/Libraries/STM32F4xx_StdPeriph_Driver/src/stm32f4xx_spi.c **** /*---------------------------- SPIx CRCPOLY Configuration --------------------*/
 298:App/STM32F4-Discovery/Libraries/STM32F4xx_StdPeriph_Driver/src/stm32f4xx_spi.c ****   /* Write to SPIx CRCPOLY */
 299:App/STM32F4-Discovery/Libraries/STM32F4xx_StdPeriph_Driver/src/stm32f4xx_spi.c ****   SPIx->CRCPR = SPI_InitStruct->SPI_CRCPolynomial;
 392              		.loc 1 299 0
 393 01c4 3B68     		ldr	r3, [r7]
 394 01c6 1A8A     		ldrh	r2, [r3, #16]
 395 01c8 7B68     		ldr	r3, [r7, #4]
 396 01ca 1A82     		strh	r2, [r3, #16]	@ movhi
 300:App/STM32F4-Discovery/Libraries/STM32F4xx_StdPeriph_Driver/src/stm32f4xx_spi.c **** }
 397              		.loc 1 300 0
 398 01cc 1037     		adds	r7, r7, #16
 399 01ce BD46     		mov	sp, r7
 400              		@ sp needed
 401 01d0 80BD     		pop	{r7, pc}
 402              	.L20:
 403 01d2 00BF     		.align	2
 404              	.L19:
 405 01d4 00300140 		.word	1073819648
 406 01d8 00380040 		.word	1073756160
 407 01dc 003C0040 		.word	1073757184
 408 01e0 00000000 		.word	.LC0
 409              		.cfi_endproc
 410              	.LFE111:
 412              		.section	.text.I2S_Init,"ax",%progbits
 413              		.align	2
 414              		.global	I2S_Init
 415              		.thumb
 416              		.thumb_func
 418              	I2S_Init:
 419              	.LFB112:
 301:App/STM32F4-Discovery/Libraries/STM32F4xx_StdPeriph_Driver/src/stm32f4xx_spi.c **** 
 302:App/STM32F4-Discovery/Libraries/STM32F4xx_StdPeriph_Driver/src/stm32f4xx_spi.c **** /**
 303:App/STM32F4-Discovery/Libraries/STM32F4xx_StdPeriph_Driver/src/stm32f4xx_spi.c ****   * @brief  Initializes the SPIx peripheral according to the specified 
 304:App/STM32F4-Discovery/Libraries/STM32F4xx_StdPeriph_Driver/src/stm32f4xx_spi.c ****   *         parameters in the I2S_InitStruct.
 305:App/STM32F4-Discovery/Libraries/STM32F4xx_StdPeriph_Driver/src/stm32f4xx_spi.c ****   * @param  SPIx: where x can be  2 or 3 to select the SPI peripheral (configured in I2S mode).
 306:App/STM32F4-Discovery/Libraries/STM32F4xx_StdPeriph_Driver/src/stm32f4xx_spi.c ****   * @param  I2S_InitStruct: pointer to an I2S_InitTypeDef structure that
 307:App/STM32F4-Discovery/Libraries/STM32F4xx_StdPeriph_Driver/src/stm32f4xx_spi.c ****   *         contains the configuration information for the specified SPI peripheral
 308:App/STM32F4-Discovery/Libraries/STM32F4xx_StdPeriph_Driver/src/stm32f4xx_spi.c ****   *         configured in I2S mode.
 309:App/STM32F4-Discovery/Libraries/STM32F4xx_StdPeriph_Driver/src/stm32f4xx_spi.c ****   *           
 310:App/STM32F4-Discovery/Libraries/STM32F4xx_StdPeriph_Driver/src/stm32f4xx_spi.c ****   * @note   The function calculates the optimal prescaler needed to obtain the most 
 311:App/STM32F4-Discovery/Libraries/STM32F4xx_StdPeriph_Driver/src/stm32f4xx_spi.c ****   *         accurate audio frequency (depending on the I2S clock source, the PLL values 
 312:App/STM32F4-Discovery/Libraries/STM32F4xx_StdPeriph_Driver/src/stm32f4xx_spi.c ****   *         and the product configuration). But in case the prescaler value is greater 
 313:App/STM32F4-Discovery/Libraries/STM32F4xx_StdPeriph_Driver/src/stm32f4xx_spi.c ****   *         than 511, the default value (0x02) will be configured instead.    
 314:App/STM32F4-Discovery/Libraries/STM32F4xx_StdPeriph_Driver/src/stm32f4xx_spi.c ****   * 
 315:App/STM32F4-Discovery/Libraries/STM32F4xx_StdPeriph_Driver/src/stm32f4xx_spi.c ****   * @note   if an external clock is used as source clock for the I2S, then the define
 316:App/STM32F4-Discovery/Libraries/STM32F4xx_StdPeriph_Driver/src/stm32f4xx_spi.c ****   *         I2S_EXTERNAL_CLOCK_VAL in file stm32f4xx_conf.h should be enabled and set
 317:App/STM32F4-Discovery/Libraries/STM32F4xx_StdPeriph_Driver/src/stm32f4xx_spi.c ****   *         to the value of the the source clock frequency (in Hz).
 318:App/STM32F4-Discovery/Libraries/STM32F4xx_StdPeriph_Driver/src/stm32f4xx_spi.c ****   *  
 319:App/STM32F4-Discovery/Libraries/STM32F4xx_StdPeriph_Driver/src/stm32f4xx_spi.c ****   * @retval None
 320:App/STM32F4-Discovery/Libraries/STM32F4xx_StdPeriph_Driver/src/stm32f4xx_spi.c ****   */
 321:App/STM32F4-Discovery/Libraries/STM32F4xx_StdPeriph_Driver/src/stm32f4xx_spi.c **** void I2S_Init(SPI_TypeDef* SPIx, I2S_InitTypeDef* I2S_InitStruct)
 322:App/STM32F4-Discovery/Libraries/STM32F4xx_StdPeriph_Driver/src/stm32f4xx_spi.c **** {
 420              		.loc 1 322 0
 421              		.cfi_startproc
 422              		@ args = 0, pretend = 0, frame = 40
 423              		@ frame_needed = 1, uses_anonymous_args = 0
 424 0000 80B5     		push	{r7, lr}
 425              	.LCFI6:
 426              		.cfi_def_cfa_offset 8
 427              		.cfi_offset 7, -8
 428              		.cfi_offset 14, -4
 429 0002 8AB0     		sub	sp, sp, #40
 430              	.LCFI7:
 431              		.cfi_def_cfa_offset 48
 432 0004 00AF     		add	r7, sp, #0
 433              	.LCFI8:
 434              		.cfi_def_cfa_register 7
 435 0006 7860     		str	r0, [r7, #4]
 436 0008 3960     		str	r1, [r7]
 323:App/STM32F4-Discovery/Libraries/STM32F4xx_StdPeriph_Driver/src/stm32f4xx_spi.c ****   uint16_t tmpreg = 0, i2sdiv = 2, i2sodd = 0, packetlength = 1;
 437              		.loc 1 323 0
 438 000a 0023     		movs	r3, #0
 439 000c 7B83     		strh	r3, [r7, #26]	@ movhi
 440 000e 0223     		movs	r3, #2
 441 0010 FB84     		strh	r3, [r7, #38]	@ movhi
 442 0012 0023     		movs	r3, #0
 443 0014 BB84     		strh	r3, [r7, #36]	@ movhi
 444 0016 0123     		movs	r3, #1
 445 0018 7B84     		strh	r3, [r7, #34]	@ movhi
 324:App/STM32F4-Discovery/Libraries/STM32F4xx_StdPeriph_Driver/src/stm32f4xx_spi.c ****   uint32_t tmp = 0, i2sclk = 0;
 446              		.loc 1 324 0
 447 001a 0023     		movs	r3, #0
 448 001c FB61     		str	r3, [r7, #28]
 449 001e 0023     		movs	r3, #0
 450 0020 7B61     		str	r3, [r7, #20]
 325:App/STM32F4-Discovery/Libraries/STM32F4xx_StdPeriph_Driver/src/stm32f4xx_spi.c **** #ifndef I2S_EXTERNAL_CLOCK_VAL
 326:App/STM32F4-Discovery/Libraries/STM32F4xx_StdPeriph_Driver/src/stm32f4xx_spi.c ****   uint32_t pllm = 0, plln = 0, pllr = 0;
 451              		.loc 1 326 0
 452 0022 0023     		movs	r3, #0
 453 0024 3B61     		str	r3, [r7, #16]
 454 0026 0023     		movs	r3, #0
 455 0028 FB60     		str	r3, [r7, #12]
 456 002a 0023     		movs	r3, #0
 457 002c BB60     		str	r3, [r7, #8]
 327:App/STM32F4-Discovery/Libraries/STM32F4xx_StdPeriph_Driver/src/stm32f4xx_spi.c **** #endif /* I2S_EXTERNAL_CLOCK_VAL */
 328:App/STM32F4-Discovery/Libraries/STM32F4xx_StdPeriph_Driver/src/stm32f4xx_spi.c ****   
 329:App/STM32F4-Discovery/Libraries/STM32F4xx_StdPeriph_Driver/src/stm32f4xx_spi.c ****   /* Check the I2S parameters */
 330:App/STM32F4-Discovery/Libraries/STM32F4xx_StdPeriph_Driver/src/stm32f4xx_spi.c ****   assert_param(IS_SPI_23_PERIPH(SPIx));
 458              		.loc 1 330 0
 459 002e 7A68     		ldr	r2, [r7, #4]
 460 0030 9C4B     		ldr	r3, .L39
 461 0032 9A42     		cmp	r2, r3
 462 0034 08D0     		beq	.L22
 463              		.loc 1 330 0 is_stmt 0 discriminator 1
 464 0036 7A68     		ldr	r2, [r7, #4]
 465 0038 9B4B     		ldr	r3, .L39+4
 466 003a 9A42     		cmp	r2, r3
 467 003c 04D0     		beq	.L22
 468 003e 9B48     		ldr	r0, .L39+8
 469 0040 4FF4A571 		mov	r1, #330
 470 0044 FFF7FEFF 		bl	assert_failed
 471              	.L22:
 331:App/STM32F4-Discovery/Libraries/STM32F4xx_StdPeriph_Driver/src/stm32f4xx_spi.c ****   assert_param(IS_I2S_MODE(I2S_InitStruct->I2S_Mode));
 472              		.loc 1 331 0 is_stmt 1
 473 0048 3B68     		ldr	r3, [r7]
 474 004a 1B88     		ldrh	r3, [r3]
 475 004c 002B     		cmp	r3, #0
 476 004e 13D0     		beq	.L23
 477              		.loc 1 331 0 is_stmt 0 discriminator 1
 478 0050 3B68     		ldr	r3, [r7]
 479 0052 1B88     		ldrh	r3, [r3]
 480 0054 B3F5807F 		cmp	r3, #256
 481 0058 0ED0     		beq	.L23
 482 005a 3B68     		ldr	r3, [r7]
 483 005c 1B88     		ldrh	r3, [r3]
 484 005e B3F5007F 		cmp	r3, #512
 485 0062 09D0     		beq	.L23
 486 0064 3B68     		ldr	r3, [r7]
 487 0066 1B88     		ldrh	r3, [r3]
 488 0068 B3F5407F 		cmp	r3, #768
 489 006c 04D0     		beq	.L23
 490 006e 8F48     		ldr	r0, .L39+8
 491 0070 40F24B11 		movw	r1, #331
 492 0074 FFF7FEFF 		bl	assert_failed
 493              	.L23:
 332:App/STM32F4-Discovery/Libraries/STM32F4xx_StdPeriph_Driver/src/stm32f4xx_spi.c ****   assert_param(IS_I2S_STANDARD(I2S_InitStruct->I2S_Standard));
 494              		.loc 1 332 0 is_stmt 1
 495 0078 3B68     		ldr	r3, [r7]
 496 007a 5B88     		ldrh	r3, [r3, #2]
 497 007c 002B     		cmp	r3, #0
 498 007e 14D0     		beq	.L24
 499              		.loc 1 332 0 is_stmt 0 discriminator 1
 500 0080 3B68     		ldr	r3, [r7]
 501 0082 5B88     		ldrh	r3, [r3, #2]
 502 0084 102B     		cmp	r3, #16
 503 0086 10D0     		beq	.L24
 504 0088 3B68     		ldr	r3, [r7]
 505 008a 5B88     		ldrh	r3, [r3, #2]
 506 008c 202B     		cmp	r3, #32
 507 008e 0CD0     		beq	.L24
 508 0090 3B68     		ldr	r3, [r7]
 509 0092 5B88     		ldrh	r3, [r3, #2]
 510 0094 302B     		cmp	r3, #48
 511 0096 08D0     		beq	.L24
 512 0098 3B68     		ldr	r3, [r7]
 513 009a 5B88     		ldrh	r3, [r3, #2]
 514 009c B02B     		cmp	r3, #176
 515 009e 04D0     		beq	.L24
 516 00a0 8248     		ldr	r0, .L39+8
 517 00a2 4FF4A671 		mov	r1, #332
 518 00a6 FFF7FEFF 		bl	assert_failed
 519              	.L24:
 333:App/STM32F4-Discovery/Libraries/STM32F4xx_StdPeriph_Driver/src/stm32f4xx_spi.c ****   assert_param(IS_I2S_DATA_FORMAT(I2S_InitStruct->I2S_DataFormat));
 520              		.loc 1 333 0 is_stmt 1
 521 00aa 3B68     		ldr	r3, [r7]
 522 00ac 9B88     		ldrh	r3, [r3, #4]
 523 00ae 002B     		cmp	r3, #0
 524 00b0 10D0     		beq	.L25
 525              		.loc 1 333 0 is_stmt 0 discriminator 1
 526 00b2 3B68     		ldr	r3, [r7]
 527 00b4 9B88     		ldrh	r3, [r3, #4]
 528 00b6 012B     		cmp	r3, #1
 529 00b8 0CD0     		beq	.L25
 530 00ba 3B68     		ldr	r3, [r7]
 531 00bc 9B88     		ldrh	r3, [r3, #4]
 532 00be 032B     		cmp	r3, #3
 533 00c0 08D0     		beq	.L25
 534 00c2 3B68     		ldr	r3, [r7]
 535 00c4 9B88     		ldrh	r3, [r3, #4]
 536 00c6 052B     		cmp	r3, #5
 537 00c8 04D0     		beq	.L25
 538 00ca 7848     		ldr	r0, .L39+8
 539 00cc 40F24D11 		movw	r1, #333
 540 00d0 FFF7FEFF 		bl	assert_failed
 541              	.L25:
 334:App/STM32F4-Discovery/Libraries/STM32F4xx_StdPeriph_Driver/src/stm32f4xx_spi.c ****   assert_param(IS_I2S_MCLK_OUTPUT(I2S_InitStruct->I2S_MCLKOutput));
 542              		.loc 1 334 0 is_stmt 1
 543 00d4 3B68     		ldr	r3, [r7]
 544 00d6 DB88     		ldrh	r3, [r3, #6]
 545 00d8 B3F5007F 		cmp	r3, #512
 546 00dc 08D0     		beq	.L26
 547              		.loc 1 334 0 is_stmt 0 discriminator 1
 548 00de 3B68     		ldr	r3, [r7]
 549 00e0 DB88     		ldrh	r3, [r3, #6]
 550 00e2 002B     		cmp	r3, #0
 551 00e4 04D0     		beq	.L26
 552 00e6 7148     		ldr	r0, .L39+8
 553 00e8 4FF4A771 		mov	r1, #334
 554 00ec FFF7FEFF 		bl	assert_failed
 555              	.L26:
 335:App/STM32F4-Discovery/Libraries/STM32F4xx_StdPeriph_Driver/src/stm32f4xx_spi.c ****   assert_param(IS_I2S_AUDIO_FREQ(I2S_InitStruct->I2S_AudioFreq));
 556              		.loc 1 335 0 is_stmt 1
 557 00f0 3B68     		ldr	r3, [r7]
 558 00f2 9B68     		ldr	r3, [r3, #8]
 559 00f4 B3F5FA5F 		cmp	r3, #8000
 560 00f8 04D3     		bcc	.L27
 561              		.loc 1 335 0 is_stmt 0 discriminator 2
 562 00fa 3B68     		ldr	r3, [r7]
 563 00fc 9A68     		ldr	r2, [r3, #8]
 564 00fe 6C4B     		ldr	r3, .L39+12
 565 0100 9A42     		cmp	r2, r3
 566 0102 08D9     		bls	.L28
 567              	.L27:
 568              		.loc 1 335 0 discriminator 1
 569 0104 3B68     		ldr	r3, [r7]
 570 0106 9B68     		ldr	r3, [r3, #8]
 571 0108 022B     		cmp	r3, #2
 572 010a 04D0     		beq	.L28
 573 010c 6748     		ldr	r0, .L39+8
 574 010e 40F24F11 		movw	r1, #335
 575 0112 FFF7FEFF 		bl	assert_failed
 576              	.L28:
 336:App/STM32F4-Discovery/Libraries/STM32F4xx_StdPeriph_Driver/src/stm32f4xx_spi.c ****   assert_param(IS_I2S_CPOL(I2S_InitStruct->I2S_CPOL));  
 577              		.loc 1 336 0 is_stmt 1
 578 0116 3B68     		ldr	r3, [r7]
 579 0118 9B89     		ldrh	r3, [r3, #12]
 580 011a 002B     		cmp	r3, #0
 581 011c 08D0     		beq	.L29
 582              		.loc 1 336 0 is_stmt 0 discriminator 1
 583 011e 3B68     		ldr	r3, [r7]
 584 0120 9B89     		ldrh	r3, [r3, #12]
 585 0122 082B     		cmp	r3, #8
 586 0124 04D0     		beq	.L29
 587 0126 6148     		ldr	r0, .L39+8
 588 0128 4FF4A871 		mov	r1, #336
 589 012c FFF7FEFF 		bl	assert_failed
 590              	.L29:
 337:App/STM32F4-Discovery/Libraries/STM32F4xx_StdPeriph_Driver/src/stm32f4xx_spi.c **** 
 338:App/STM32F4-Discovery/Libraries/STM32F4xx_StdPeriph_Driver/src/stm32f4xx_spi.c **** /*----------------------- SPIx I2SCFGR & I2SPR Configuration -----------------*/
 339:App/STM32F4-Discovery/Libraries/STM32F4xx_StdPeriph_Driver/src/stm32f4xx_spi.c ****   /* Clear I2SMOD, I2SE, I2SCFG, PCMSYNC, I2SSTD, CKPOL, DATLEN and CHLEN bits */
 340:App/STM32F4-Discovery/Libraries/STM32F4xx_StdPeriph_Driver/src/stm32f4xx_spi.c ****   SPIx->I2SCFGR &= I2SCFGR_CLEAR_MASK; 
 591              		.loc 1 340 0 is_stmt 1
 592 0130 7B68     		ldr	r3, [r7, #4]
 593 0132 9B8B     		ldrh	r3, [r3, #28]	@ movhi
 594 0134 9BB2     		uxth	r3, r3
 595 0136 23F47B63 		bic	r3, r3, #4016
 596 013a 23F00F03 		bic	r3, r3, #15
 597 013e 9AB2     		uxth	r2, r3
 598 0140 7B68     		ldr	r3, [r7, #4]
 599 0142 9A83     		strh	r2, [r3, #28]	@ movhi
 341:App/STM32F4-Discovery/Libraries/STM32F4xx_StdPeriph_Driver/src/stm32f4xx_spi.c ****   SPIx->I2SPR = 0x0002;
 600              		.loc 1 341 0
 601 0144 7B68     		ldr	r3, [r7, #4]
 602 0146 0222     		movs	r2, #2
 603 0148 1A84     		strh	r2, [r3, #32]	@ movhi
 342:App/STM32F4-Discovery/Libraries/STM32F4xx_StdPeriph_Driver/src/stm32f4xx_spi.c ****   
 343:App/STM32F4-Discovery/Libraries/STM32F4xx_StdPeriph_Driver/src/stm32f4xx_spi.c ****   /* Get the I2SCFGR register value */
 344:App/STM32F4-Discovery/Libraries/STM32F4xx_StdPeriph_Driver/src/stm32f4xx_spi.c ****   tmpreg = SPIx->I2SCFGR;
 604              		.loc 1 344 0
 605 014a 7B68     		ldr	r3, [r7, #4]
 606 014c 9B8B     		ldrh	r3, [r3, #28]	@ movhi
 607 014e 7B83     		strh	r3, [r7, #26]	@ movhi
 345:App/STM32F4-Discovery/Libraries/STM32F4xx_StdPeriph_Driver/src/stm32f4xx_spi.c ****   
 346:App/STM32F4-Discovery/Libraries/STM32F4xx_StdPeriph_Driver/src/stm32f4xx_spi.c ****   /* If the default value has to be written, reinitialize i2sdiv and i2sodd*/
 347:App/STM32F4-Discovery/Libraries/STM32F4xx_StdPeriph_Driver/src/stm32f4xx_spi.c ****   if(I2S_InitStruct->I2S_AudioFreq == I2S_AudioFreq_Default)
 608              		.loc 1 347 0
 609 0150 3B68     		ldr	r3, [r7]
 610 0152 9B68     		ldr	r3, [r3, #8]
 611 0154 022B     		cmp	r3, #2
 612 0156 04D1     		bne	.L30
 348:App/STM32F4-Discovery/Libraries/STM32F4xx_StdPeriph_Driver/src/stm32f4xx_spi.c ****   {
 349:App/STM32F4-Discovery/Libraries/STM32F4xx_StdPeriph_Driver/src/stm32f4xx_spi.c ****     i2sodd = (uint16_t)0;
 613              		.loc 1 349 0
 614 0158 0023     		movs	r3, #0
 615 015a BB84     		strh	r3, [r7, #36]	@ movhi
 350:App/STM32F4-Discovery/Libraries/STM32F4xx_StdPeriph_Driver/src/stm32f4xx_spi.c ****     i2sdiv = (uint16_t)2;   
 616              		.loc 1 350 0
 617 015c 0223     		movs	r3, #2
 618 015e FB84     		strh	r3, [r7, #38]	@ movhi
 619 0160 71E0     		b	.L31
 620              	.L30:
 351:App/STM32F4-Discovery/Libraries/STM32F4xx_StdPeriph_Driver/src/stm32f4xx_spi.c ****   }
 352:App/STM32F4-Discovery/Libraries/STM32F4xx_StdPeriph_Driver/src/stm32f4xx_spi.c ****   /* If the requested audio frequency is not the default, compute the prescaler */
 353:App/STM32F4-Discovery/Libraries/STM32F4xx_StdPeriph_Driver/src/stm32f4xx_spi.c ****   else
 354:App/STM32F4-Discovery/Libraries/STM32F4xx_StdPeriph_Driver/src/stm32f4xx_spi.c ****   {
 355:App/STM32F4-Discovery/Libraries/STM32F4xx_StdPeriph_Driver/src/stm32f4xx_spi.c ****     /* Check the frame length (For the Prescaler computing) *******************/
 356:App/STM32F4-Discovery/Libraries/STM32F4xx_StdPeriph_Driver/src/stm32f4xx_spi.c ****     if(I2S_InitStruct->I2S_DataFormat == I2S_DataFormat_16b)
 621              		.loc 1 356 0
 622 0162 3B68     		ldr	r3, [r7]
 623 0164 9B88     		ldrh	r3, [r3, #4]
 624 0166 002B     		cmp	r3, #0
 625 0168 02D1     		bne	.L32
 357:App/STM32F4-Discovery/Libraries/STM32F4xx_StdPeriph_Driver/src/stm32f4xx_spi.c ****     {
 358:App/STM32F4-Discovery/Libraries/STM32F4xx_StdPeriph_Driver/src/stm32f4xx_spi.c ****       /* Packet length is 16 bits */
 359:App/STM32F4-Discovery/Libraries/STM32F4xx_StdPeriph_Driver/src/stm32f4xx_spi.c ****       packetlength = 1;
 626              		.loc 1 359 0
 627 016a 0123     		movs	r3, #1
 628 016c 7B84     		strh	r3, [r7, #34]	@ movhi
 629 016e 01E0     		b	.L33
 630              	.L32:
 360:App/STM32F4-Discovery/Libraries/STM32F4xx_StdPeriph_Driver/src/stm32f4xx_spi.c ****     }
 361:App/STM32F4-Discovery/Libraries/STM32F4xx_StdPeriph_Driver/src/stm32f4xx_spi.c ****     else
 362:App/STM32F4-Discovery/Libraries/STM32F4xx_StdPeriph_Driver/src/stm32f4xx_spi.c ****     {
 363:App/STM32F4-Discovery/Libraries/STM32F4xx_StdPeriph_Driver/src/stm32f4xx_spi.c ****       /* Packet length is 32 bits */
 364:App/STM32F4-Discovery/Libraries/STM32F4xx_StdPeriph_Driver/src/stm32f4xx_spi.c ****       packetlength = 2;
 631              		.loc 1 364 0
 632 0170 0223     		movs	r3, #2
 633 0172 7B84     		strh	r3, [r7, #34]	@ movhi
 634              	.L33:
 365:App/STM32F4-Discovery/Libraries/STM32F4xx_StdPeriph_Driver/src/stm32f4xx_spi.c ****     }
 366:App/STM32F4-Discovery/Libraries/STM32F4xx_StdPeriph_Driver/src/stm32f4xx_spi.c **** 
 367:App/STM32F4-Discovery/Libraries/STM32F4xx_StdPeriph_Driver/src/stm32f4xx_spi.c ****     /* Get I2S source Clock frequency  ****************************************/
 368:App/STM32F4-Discovery/Libraries/STM32F4xx_StdPeriph_Driver/src/stm32f4xx_spi.c ****       
 369:App/STM32F4-Discovery/Libraries/STM32F4xx_StdPeriph_Driver/src/stm32f4xx_spi.c ****     /* If an external I2S clock has to be used, this define should be set  
 370:App/STM32F4-Discovery/Libraries/STM32F4xx_StdPeriph_Driver/src/stm32f4xx_spi.c ****        in the project configuration or in the stm32f4xx_conf.h file */
 371:App/STM32F4-Discovery/Libraries/STM32F4xx_StdPeriph_Driver/src/stm32f4xx_spi.c ****   #ifdef I2S_EXTERNAL_CLOCK_VAL     
 372:App/STM32F4-Discovery/Libraries/STM32F4xx_StdPeriph_Driver/src/stm32f4xx_spi.c ****     /* Set external clock as I2S clock source */
 373:App/STM32F4-Discovery/Libraries/STM32F4xx_StdPeriph_Driver/src/stm32f4xx_spi.c ****     if ((RCC->CFGR & RCC_CFGR_I2SSRC) == 0)
 374:App/STM32F4-Discovery/Libraries/STM32F4xx_StdPeriph_Driver/src/stm32f4xx_spi.c ****     {
 375:App/STM32F4-Discovery/Libraries/STM32F4xx_StdPeriph_Driver/src/stm32f4xx_spi.c ****       RCC->CFGR |= (uint32_t)RCC_CFGR_I2SSRC;
 376:App/STM32F4-Discovery/Libraries/STM32F4xx_StdPeriph_Driver/src/stm32f4xx_spi.c ****     }
 377:App/STM32F4-Discovery/Libraries/STM32F4xx_StdPeriph_Driver/src/stm32f4xx_spi.c ****     
 378:App/STM32F4-Discovery/Libraries/STM32F4xx_StdPeriph_Driver/src/stm32f4xx_spi.c ****     /* Set the I2S clock to the external clock  value */
 379:App/STM32F4-Discovery/Libraries/STM32F4xx_StdPeriph_Driver/src/stm32f4xx_spi.c ****     i2sclk = I2S_EXTERNAL_CLOCK_VAL;
 380:App/STM32F4-Discovery/Libraries/STM32F4xx_StdPeriph_Driver/src/stm32f4xx_spi.c **** 
 381:App/STM32F4-Discovery/Libraries/STM32F4xx_StdPeriph_Driver/src/stm32f4xx_spi.c ****   #else /* There is no define for External I2S clock source */
 382:App/STM32F4-Discovery/Libraries/STM32F4xx_StdPeriph_Driver/src/stm32f4xx_spi.c ****     /* Set PLLI2S as I2S clock source */
 383:App/STM32F4-Discovery/Libraries/STM32F4xx_StdPeriph_Driver/src/stm32f4xx_spi.c ****     if ((RCC->CFGR & RCC_CFGR_I2SSRC) != 0)
 635              		.loc 1 383 0
 636 0174 4F4B     		ldr	r3, .L39+16
 637 0176 9B68     		ldr	r3, [r3, #8]
 638 0178 03F40003 		and	r3, r3, #8388608
 639 017c 002B     		cmp	r3, #0
 640 017e 05D0     		beq	.L34
 384:App/STM32F4-Discovery/Libraries/STM32F4xx_StdPeriph_Driver/src/stm32f4xx_spi.c ****     {
 385:App/STM32F4-Discovery/Libraries/STM32F4xx_StdPeriph_Driver/src/stm32f4xx_spi.c ****       RCC->CFGR &= ~(uint32_t)RCC_CFGR_I2SSRC;
 641              		.loc 1 385 0
 642 0180 4C4B     		ldr	r3, .L39+16
 643 0182 4C4A     		ldr	r2, .L39+16
 644 0184 9268     		ldr	r2, [r2, #8]
 645 0186 22F40002 		bic	r2, r2, #8388608
 646 018a 9A60     		str	r2, [r3, #8]
 647              	.L34:
 386:App/STM32F4-Discovery/Libraries/STM32F4xx_StdPeriph_Driver/src/stm32f4xx_spi.c ****     }    
 387:App/STM32F4-Discovery/Libraries/STM32F4xx_StdPeriph_Driver/src/stm32f4xx_spi.c ****     
 388:App/STM32F4-Discovery/Libraries/STM32F4xx_StdPeriph_Driver/src/stm32f4xx_spi.c ****     /* Get the PLLI2SN value */
 389:App/STM32F4-Discovery/Libraries/STM32F4xx_StdPeriph_Driver/src/stm32f4xx_spi.c ****     plln = (uint32_t)(((RCC->PLLI2SCFGR & RCC_PLLI2SCFGR_PLLI2SN) >> 6) & \
 648              		.loc 1 389 0
 649 018c 494B     		ldr	r3, .L39+16
 650 018e D3F88420 		ldr	r2, [r3, #132]
 651 0192 47F6C073 		movw	r3, #32704
 652 0196 1340     		ands	r3, r3, r2
 653 0198 9B09     		lsrs	r3, r3, #6
 654 019a C3F30803 		ubfx	r3, r3, #0, #9
 655 019e FB60     		str	r3, [r7, #12]
 390:App/STM32F4-Discovery/Libraries/STM32F4xx_StdPeriph_Driver/src/stm32f4xx_spi.c ****                       (RCC_PLLI2SCFGR_PLLI2SN >> 6));
 391:App/STM32F4-Discovery/Libraries/STM32F4xx_StdPeriph_Driver/src/stm32f4xx_spi.c ****     
 392:App/STM32F4-Discovery/Libraries/STM32F4xx_StdPeriph_Driver/src/stm32f4xx_spi.c ****     /* Get the PLLI2SR value */
 393:App/STM32F4-Discovery/Libraries/STM32F4xx_StdPeriph_Driver/src/stm32f4xx_spi.c ****     pllr = (uint32_t)(((RCC->PLLI2SCFGR & RCC_PLLI2SCFGR_PLLI2SR) >> 28) & \
 656              		.loc 1 393 0
 657 01a0 444B     		ldr	r3, .L39+16
 658 01a2 D3F88430 		ldr	r3, [r3, #132]
 659 01a6 03F0E043 		and	r3, r3, #1879048192
 660 01aa 1B0F     		lsrs	r3, r3, #28
 661 01ac 03F00703 		and	r3, r3, #7
 662 01b0 BB60     		str	r3, [r7, #8]
 394:App/STM32F4-Discovery/Libraries/STM32F4xx_StdPeriph_Driver/src/stm32f4xx_spi.c ****                       (RCC_PLLI2SCFGR_PLLI2SR >> 28));
 395:App/STM32F4-Discovery/Libraries/STM32F4xx_StdPeriph_Driver/src/stm32f4xx_spi.c ****     
 396:App/STM32F4-Discovery/Libraries/STM32F4xx_StdPeriph_Driver/src/stm32f4xx_spi.c ****     /* Get the PLLM value */
 397:App/STM32F4-Discovery/Libraries/STM32F4xx_StdPeriph_Driver/src/stm32f4xx_spi.c ****     pllm = (uint32_t)(RCC->PLLCFGR & RCC_PLLCFGR_PLLM);      
 663              		.loc 1 397 0
 664 01b2 404B     		ldr	r3, .L39+16
 665 01b4 5B68     		ldr	r3, [r3, #4]
 666 01b6 03F03F03 		and	r3, r3, #63
 667 01ba 3B61     		str	r3, [r7, #16]
 398:App/STM32F4-Discovery/Libraries/STM32F4xx_StdPeriph_Driver/src/stm32f4xx_spi.c ****     
 399:App/STM32F4-Discovery/Libraries/STM32F4xx_StdPeriph_Driver/src/stm32f4xx_spi.c ****     /* Get the I2S source clock value */
 400:App/STM32F4-Discovery/Libraries/STM32F4xx_StdPeriph_Driver/src/stm32f4xx_spi.c ****     i2sclk = (uint32_t)(((HSE_VALUE / pllm) * plln) / pllr);
 668              		.loc 1 400 0
 669 01bc 3E4A     		ldr	r2, .L39+20
 670 01be 3B69     		ldr	r3, [r7, #16]
 671 01c0 B2FBF3F3 		udiv	r3, r2, r3
 672 01c4 FA68     		ldr	r2, [r7, #12]
 673 01c6 02FB03F2 		mul	r2, r2, r3
 674 01ca BB68     		ldr	r3, [r7, #8]
 675 01cc B2FBF3F3 		udiv	r3, r2, r3
 676 01d0 7B61     		str	r3, [r7, #20]
 401:App/STM32F4-Discovery/Libraries/STM32F4xx_StdPeriph_Driver/src/stm32f4xx_spi.c ****   #endif /* I2S_EXTERNAL_CLOCK_VAL */
 402:App/STM32F4-Discovery/Libraries/STM32F4xx_StdPeriph_Driver/src/stm32f4xx_spi.c ****     
 403:App/STM32F4-Discovery/Libraries/STM32F4xx_StdPeriph_Driver/src/stm32f4xx_spi.c ****     /* Compute the Real divider depending on the MCLK output state, with a floating point */
 404:App/STM32F4-Discovery/Libraries/STM32F4xx_StdPeriph_Driver/src/stm32f4xx_spi.c ****     if(I2S_InitStruct->I2S_MCLKOutput == I2S_MCLKOutput_Enable)
 677              		.loc 1 404 0
 678 01d2 3B68     		ldr	r3, [r7]
 679 01d4 DB88     		ldrh	r3, [r3, #6]
 680 01d6 B3F5007F 		cmp	r3, #512
 681 01da 0FD1     		bne	.L35
 405:App/STM32F4-Discovery/Libraries/STM32F4xx_StdPeriph_Driver/src/stm32f4xx_spi.c ****     {
 406:App/STM32F4-Discovery/Libraries/STM32F4xx_StdPeriph_Driver/src/stm32f4xx_spi.c ****       /* MCLK output is enabled */
 407:App/STM32F4-Discovery/Libraries/STM32F4xx_StdPeriph_Driver/src/stm32f4xx_spi.c ****       tmp = (uint16_t)(((((i2sclk / 256) * 10) / I2S_InitStruct->I2S_AudioFreq)) + 5);
 682              		.loc 1 407 0
 683 01dc 7B69     		ldr	r3, [r7, #20]
 684 01de 1A0A     		lsrs	r2, r3, #8
 685 01e0 1346     		mov	r3, r2
 686 01e2 9B00     		lsls	r3, r3, #2
 687 01e4 1344     		add	r3, r3, r2
 688 01e6 5B00     		lsls	r3, r3, #1
 689 01e8 1A46     		mov	r2, r3
 690 01ea 3B68     		ldr	r3, [r7]
 691 01ec 9B68     		ldr	r3, [r3, #8]
 692 01ee B2FBF3F3 		udiv	r3, r2, r3
 693 01f2 9BB2     		uxth	r3, r3
 694 01f4 0533     		adds	r3, r3, #5
 695 01f6 9BB2     		uxth	r3, r3
 696 01f8 FB61     		str	r3, [r7, #28]
 697 01fa 11E0     		b	.L36
 698              	.L35:
 408:App/STM32F4-Discovery/Libraries/STM32F4xx_StdPeriph_Driver/src/stm32f4xx_spi.c ****     }
 409:App/STM32F4-Discovery/Libraries/STM32F4xx_StdPeriph_Driver/src/stm32f4xx_spi.c ****     else
 410:App/STM32F4-Discovery/Libraries/STM32F4xx_StdPeriph_Driver/src/stm32f4xx_spi.c ****     {
 411:App/STM32F4-Discovery/Libraries/STM32F4xx_StdPeriph_Driver/src/stm32f4xx_spi.c ****       /* MCLK output is disabled */
 412:App/STM32F4-Discovery/Libraries/STM32F4xx_StdPeriph_Driver/src/stm32f4xx_spi.c ****       tmp = (uint16_t)(((((i2sclk / (32 * packetlength)) *10 ) / I2S_InitStruct->I2S_AudioFreq)) + 
 699              		.loc 1 412 0
 700 01fc 7B8C     		ldrh	r3, [r7, #34]
 701 01fe 5B01     		lsls	r3, r3, #5
 702 0200 7A69     		ldr	r2, [r7, #20]
 703 0202 B2FBF3F2 		udiv	r2, r2, r3
 704 0206 1346     		mov	r3, r2
 705 0208 9B00     		lsls	r3, r3, #2
 706 020a 1344     		add	r3, r3, r2
 707 020c 5B00     		lsls	r3, r3, #1
 708 020e 1A46     		mov	r2, r3
 709 0210 3B68     		ldr	r3, [r7]
 710 0212 9B68     		ldr	r3, [r3, #8]
 711 0214 B2FBF3F3 		udiv	r3, r2, r3
 712 0218 9BB2     		uxth	r3, r3
 713 021a 0533     		adds	r3, r3, #5
 714 021c 9BB2     		uxth	r3, r3
 715 021e FB61     		str	r3, [r7, #28]
 716              	.L36:
 413:App/STM32F4-Discovery/Libraries/STM32F4xx_StdPeriph_Driver/src/stm32f4xx_spi.c ****     }
 414:App/STM32F4-Discovery/Libraries/STM32F4xx_StdPeriph_Driver/src/stm32f4xx_spi.c ****     
 415:App/STM32F4-Discovery/Libraries/STM32F4xx_StdPeriph_Driver/src/stm32f4xx_spi.c ****     /* Remove the flatting point */
 416:App/STM32F4-Discovery/Libraries/STM32F4xx_StdPeriph_Driver/src/stm32f4xx_spi.c ****     tmp = tmp / 10;  
 717              		.loc 1 416 0
 718 0220 FA69     		ldr	r2, [r7, #28]
 719 0222 264B     		ldr	r3, .L39+24
 720 0224 A3FB0213 		umull	r1, r3, r3, r2
 721 0228 DB08     		lsrs	r3, r3, #3
 722 022a FB61     		str	r3, [r7, #28]
 417:App/STM32F4-Discovery/Libraries/STM32F4xx_StdPeriph_Driver/src/stm32f4xx_spi.c ****       
 418:App/STM32F4-Discovery/Libraries/STM32F4xx_StdPeriph_Driver/src/stm32f4xx_spi.c ****     /* Check the parity of the divider */
 419:App/STM32F4-Discovery/Libraries/STM32F4xx_StdPeriph_Driver/src/stm32f4xx_spi.c ****     i2sodd = (uint16_t)(tmp & (uint16_t)0x0001);
 723              		.loc 1 419 0
 724 022c FB69     		ldr	r3, [r7, #28]
 725 022e 9BB2     		uxth	r3, r3
 726 0230 03F00103 		and	r3, r3, #1
 727 0234 BB84     		strh	r3, [r7, #36]	@ movhi
 420:App/STM32F4-Discovery/Libraries/STM32F4xx_StdPeriph_Driver/src/stm32f4xx_spi.c ****    
 421:App/STM32F4-Discovery/Libraries/STM32F4xx_StdPeriph_Driver/src/stm32f4xx_spi.c ****     /* Compute the i2sdiv prescaler */
 422:App/STM32F4-Discovery/Libraries/STM32F4xx_StdPeriph_Driver/src/stm32f4xx_spi.c ****     i2sdiv = (uint16_t)((tmp - i2sodd) / 2);
 728              		.loc 1 422 0
 729 0236 BB8C     		ldrh	r3, [r7, #36]
 730 0238 FA69     		ldr	r2, [r7, #28]
 731 023a D31A     		subs	r3, r2, r3
 732 023c 5B08     		lsrs	r3, r3, #1
 733 023e FB84     		strh	r3, [r7, #38]	@ movhi
 423:App/STM32F4-Discovery/Libraries/STM32F4xx_StdPeriph_Driver/src/stm32f4xx_spi.c ****    
 424:App/STM32F4-Discovery/Libraries/STM32F4xx_StdPeriph_Driver/src/stm32f4xx_spi.c ****     /* Get the Mask for the Odd bit (SPI_I2SPR[8]) register */
 425:App/STM32F4-Discovery/Libraries/STM32F4xx_StdPeriph_Driver/src/stm32f4xx_spi.c ****     i2sodd = (uint16_t) (i2sodd << 8);
 734              		.loc 1 425 0
 735 0240 BB8C     		ldrh	r3, [r7, #36]	@ movhi
 736 0242 1B02     		lsls	r3, r3, #8
 737 0244 BB84     		strh	r3, [r7, #36]	@ movhi
 738              	.L31:
 426:App/STM32F4-Discovery/Libraries/STM32F4xx_StdPeriph_Driver/src/stm32f4xx_spi.c ****   }
 427:App/STM32F4-Discovery/Libraries/STM32F4xx_StdPeriph_Driver/src/stm32f4xx_spi.c **** 
 428:App/STM32F4-Discovery/Libraries/STM32F4xx_StdPeriph_Driver/src/stm32f4xx_spi.c ****   /* Test if the divider is 1 or 0 or greater than 0xFF */
 429:App/STM32F4-Discovery/Libraries/STM32F4xx_StdPeriph_Driver/src/stm32f4xx_spi.c ****   if ((i2sdiv < 2) || (i2sdiv > 0xFF))
 739              		.loc 1 429 0
 740 0246 FB8C     		ldrh	r3, [r7, #38]
 741 0248 012B     		cmp	r3, #1
 742 024a 02D9     		bls	.L37
 743              		.loc 1 429 0 is_stmt 0 discriminator 1
 744 024c FB8C     		ldrh	r3, [r7, #38]
 745 024e FF2B     		cmp	r3, #255
 746 0250 03D9     		bls	.L38
 747              	.L37:
 430:App/STM32F4-Discovery/Libraries/STM32F4xx_StdPeriph_Driver/src/stm32f4xx_spi.c ****   {
 431:App/STM32F4-Discovery/Libraries/STM32F4xx_StdPeriph_Driver/src/stm32f4xx_spi.c ****     /* Set the default values */
 432:App/STM32F4-Discovery/Libraries/STM32F4xx_StdPeriph_Driver/src/stm32f4xx_spi.c ****     i2sdiv = 2;
 748              		.loc 1 432 0 is_stmt 1
 749 0252 0223     		movs	r3, #2
 750 0254 FB84     		strh	r3, [r7, #38]	@ movhi
 433:App/STM32F4-Discovery/Libraries/STM32F4xx_StdPeriph_Driver/src/stm32f4xx_spi.c ****     i2sodd = 0;
 751              		.loc 1 433 0
 752 0256 0023     		movs	r3, #0
 753 0258 BB84     		strh	r3, [r7, #36]	@ movhi
 754              	.L38:
 434:App/STM32F4-Discovery/Libraries/STM32F4xx_StdPeriph_Driver/src/stm32f4xx_spi.c ****   }
 435:App/STM32F4-Discovery/Libraries/STM32F4xx_StdPeriph_Driver/src/stm32f4xx_spi.c **** 
 436:App/STM32F4-Discovery/Libraries/STM32F4xx_StdPeriph_Driver/src/stm32f4xx_spi.c ****   /* Write to SPIx I2SPR register the computed value */
 437:App/STM32F4-Discovery/Libraries/STM32F4xx_StdPeriph_Driver/src/stm32f4xx_spi.c ****   SPIx->I2SPR = (uint16_t)((uint16_t)i2sdiv | (uint16_t)(i2sodd | (uint16_t)I2S_InitStruct->I2S_MCL
 755              		.loc 1 437 0
 756 025a 3B68     		ldr	r3, [r7]
 757 025c DA88     		ldrh	r2, [r3, #6]
 758 025e BB8C     		ldrh	r3, [r7, #36]	@ movhi
 759 0260 1343     		orrs	r3, r3, r2
 760 0262 9AB2     		uxth	r2, r3
 761 0264 FB8C     		ldrh	r3, [r7, #38]	@ movhi
 762 0266 1343     		orrs	r3, r3, r2
 763 0268 9AB2     		uxth	r2, r3
 764 026a 7B68     		ldr	r3, [r7, #4]
 765 026c 1A84     		strh	r2, [r3, #32]	@ movhi
 438:App/STM32F4-Discovery/Libraries/STM32F4xx_StdPeriph_Driver/src/stm32f4xx_spi.c ****  
 439:App/STM32F4-Discovery/Libraries/STM32F4xx_StdPeriph_Driver/src/stm32f4xx_spi.c ****   /* Configure the I2S with the SPI_InitStruct values */
 440:App/STM32F4-Discovery/Libraries/STM32F4xx_StdPeriph_Driver/src/stm32f4xx_spi.c ****   tmpreg |= (uint16_t)((uint16_t)SPI_I2SCFGR_I2SMOD | (uint16_t)(I2S_InitStruct->I2S_Mode | \
 766              		.loc 1 440 0
 767 026e 3B68     		ldr	r3, [r7]
 768 0270 1A88     		ldrh	r2, [r3]
 441:App/STM32F4-Discovery/Libraries/STM32F4xx_StdPeriph_Driver/src/stm32f4xx_spi.c ****                   (uint16_t)(I2S_InitStruct->I2S_Standard | (uint16_t)(I2S_InitStruct->I2S_DataForm
 769              		.loc 1 441 0
 770 0272 3B68     		ldr	r3, [r7]
 771 0274 5988     		ldrh	r1, [r3, #2]
 772 0276 3B68     		ldr	r3, [r7]
 773 0278 9888     		ldrh	r0, [r3, #4]
 442:App/STM32F4-Discovery/Libraries/STM32F4xx_StdPeriph_Driver/src/stm32f4xx_spi.c ****                   (uint16_t)I2S_InitStruct->I2S_CPOL))));
 774              		.loc 1 442 0
 775 027a 3B68     		ldr	r3, [r7]
 776 027c 9B89     		ldrh	r3, [r3, #12]
 441:App/STM32F4-Discovery/Libraries/STM32F4xx_StdPeriph_Driver/src/stm32f4xx_spi.c ****                   (uint16_t)(I2S_InitStruct->I2S_Standard | (uint16_t)(I2S_InitStruct->I2S_DataForm
 777              		.loc 1 441 0
 778 027e 0343     		orrs	r3, r3, r0
 779 0280 9BB2     		uxth	r3, r3
 780 0282 0B43     		orrs	r3, r3, r1
 781 0284 9BB2     		uxth	r3, r3
 440:App/STM32F4-Discovery/Libraries/STM32F4xx_StdPeriph_Driver/src/stm32f4xx_spi.c ****   tmpreg |= (uint16_t)((uint16_t)SPI_I2SCFGR_I2SMOD | (uint16_t)(I2S_InitStruct->I2S_Mode | \
 782              		.loc 1 440 0
 783 0286 1343     		orrs	r3, r3, r2
 784 0288 9AB2     		uxth	r2, r3
 785 028a 7B8B     		ldrh	r3, [r7, #26]	@ movhi
 786 028c 1343     		orrs	r3, r3, r2
 787 028e 9BB2     		uxth	r3, r3
 788 0290 43F40063 		orr	r3, r3, #2048
 789 0294 7B83     		strh	r3, [r7, #26]	@ movhi
 443:App/STM32F4-Discovery/Libraries/STM32F4xx_StdPeriph_Driver/src/stm32f4xx_spi.c ****  
 444:App/STM32F4-Discovery/Libraries/STM32F4xx_StdPeriph_Driver/src/stm32f4xx_spi.c ****   /* Write to SPIx I2SCFGR */  
 445:App/STM32F4-Discovery/Libraries/STM32F4xx_StdPeriph_Driver/src/stm32f4xx_spi.c ****   SPIx->I2SCFGR = tmpreg;
 790              		.loc 1 445 0
 791 0296 7B68     		ldr	r3, [r7, #4]
 792 0298 7A8B     		ldrh	r2, [r7, #26]	@ movhi
 793 029a 9A83     		strh	r2, [r3, #28]	@ movhi
 446:App/STM32F4-Discovery/Libraries/STM32F4xx_StdPeriph_Driver/src/stm32f4xx_spi.c **** }
 794              		.loc 1 446 0
 795 029c 2837     		adds	r7, r7, #40
 796 029e BD46     		mov	sp, r7
 797              		@ sp needed
 798 02a0 80BD     		pop	{r7, pc}
 799              	.L40:
 800 02a2 00BF     		.align	2
 801              	.L39:
 802 02a4 00380040 		.word	1073756160
 803 02a8 003C0040 		.word	1073757184
 804 02ac 00000000 		.word	.LC0
 805 02b0 00EE0200 		.word	192000
 806 02b4 00380240 		.word	1073887232
 807 02b8 40787D01 		.word	25000000
 808 02bc CDCCCCCC 		.word	-858993459
 809              		.cfi_endproc
 810              	.LFE112:
 812              		.section	.text.SPI_StructInit,"ax",%progbits
 813              		.align	2
 814              		.global	SPI_StructInit
 815              		.thumb
 816              		.thumb_func
 818              	SPI_StructInit:
 819              	.LFB113:
 447:App/STM32F4-Discovery/Libraries/STM32F4xx_StdPeriph_Driver/src/stm32f4xx_spi.c **** 
 448:App/STM32F4-Discovery/Libraries/STM32F4xx_StdPeriph_Driver/src/stm32f4xx_spi.c **** /**
 449:App/STM32F4-Discovery/Libraries/STM32F4xx_StdPeriph_Driver/src/stm32f4xx_spi.c ****   * @brief  Fills each SPI_InitStruct member with its default value.
 450:App/STM32F4-Discovery/Libraries/STM32F4xx_StdPeriph_Driver/src/stm32f4xx_spi.c ****   * @param  SPI_InitStruct: pointer to a SPI_InitTypeDef structure which will be initialized.
 451:App/STM32F4-Discovery/Libraries/STM32F4xx_StdPeriph_Driver/src/stm32f4xx_spi.c ****   * @retval None
 452:App/STM32F4-Discovery/Libraries/STM32F4xx_StdPeriph_Driver/src/stm32f4xx_spi.c ****   */
 453:App/STM32F4-Discovery/Libraries/STM32F4xx_StdPeriph_Driver/src/stm32f4xx_spi.c **** void SPI_StructInit(SPI_InitTypeDef* SPI_InitStruct)
 454:App/STM32F4-Discovery/Libraries/STM32F4xx_StdPeriph_Driver/src/stm32f4xx_spi.c **** {
 820              		.loc 1 454 0
 821              		.cfi_startproc
 822              		@ args = 0, pretend = 0, frame = 8
 823              		@ frame_needed = 1, uses_anonymous_args = 0
 824              		@ link register save eliminated.
 825 0000 80B4     		push	{r7}
 826              	.LCFI9:
 827              		.cfi_def_cfa_offset 4
 828              		.cfi_offset 7, -4
 829 0002 83B0     		sub	sp, sp, #12
 830              	.LCFI10:
 831              		.cfi_def_cfa_offset 16
 832 0004 00AF     		add	r7, sp, #0
 833              	.LCFI11:
 834              		.cfi_def_cfa_register 7
 835 0006 7860     		str	r0, [r7, #4]
 455:App/STM32F4-Discovery/Libraries/STM32F4xx_StdPeriph_Driver/src/stm32f4xx_spi.c **** /*--------------- Reset SPI init structure parameters values -----------------*/
 456:App/STM32F4-Discovery/Libraries/STM32F4xx_StdPeriph_Driver/src/stm32f4xx_spi.c ****   /* Initialize the SPI_Direction member */
 457:App/STM32F4-Discovery/Libraries/STM32F4xx_StdPeriph_Driver/src/stm32f4xx_spi.c ****   SPI_InitStruct->SPI_Direction = SPI_Direction_2Lines_FullDuplex;
 836              		.loc 1 457 0
 837 0008 7B68     		ldr	r3, [r7, #4]
 838 000a 0022     		movs	r2, #0
 839 000c 1A80     		strh	r2, [r3]	@ movhi
 458:App/STM32F4-Discovery/Libraries/STM32F4xx_StdPeriph_Driver/src/stm32f4xx_spi.c ****   /* initialize the SPI_Mode member */
 459:App/STM32F4-Discovery/Libraries/STM32F4xx_StdPeriph_Driver/src/stm32f4xx_spi.c ****   SPI_InitStruct->SPI_Mode = SPI_Mode_Slave;
 840              		.loc 1 459 0
 841 000e 7B68     		ldr	r3, [r7, #4]
 842 0010 0022     		movs	r2, #0
 843 0012 5A80     		strh	r2, [r3, #2]	@ movhi
 460:App/STM32F4-Discovery/Libraries/STM32F4xx_StdPeriph_Driver/src/stm32f4xx_spi.c ****   /* initialize the SPI_DataSize member */
 461:App/STM32F4-Discovery/Libraries/STM32F4xx_StdPeriph_Driver/src/stm32f4xx_spi.c ****   SPI_InitStruct->SPI_DataSize = SPI_DataSize_8b;
 844              		.loc 1 461 0
 845 0014 7B68     		ldr	r3, [r7, #4]
 846 0016 0022     		movs	r2, #0
 847 0018 9A80     		strh	r2, [r3, #4]	@ movhi
 462:App/STM32F4-Discovery/Libraries/STM32F4xx_StdPeriph_Driver/src/stm32f4xx_spi.c ****   /* Initialize the SPI_CPOL member */
 463:App/STM32F4-Discovery/Libraries/STM32F4xx_StdPeriph_Driver/src/stm32f4xx_spi.c ****   SPI_InitStruct->SPI_CPOL = SPI_CPOL_Low;
 848              		.loc 1 463 0
 849 001a 7B68     		ldr	r3, [r7, #4]
 850 001c 0022     		movs	r2, #0
 851 001e DA80     		strh	r2, [r3, #6]	@ movhi
 464:App/STM32F4-Discovery/Libraries/STM32F4xx_StdPeriph_Driver/src/stm32f4xx_spi.c ****   /* Initialize the SPI_CPHA member */
 465:App/STM32F4-Discovery/Libraries/STM32F4xx_StdPeriph_Driver/src/stm32f4xx_spi.c ****   SPI_InitStruct->SPI_CPHA = SPI_CPHA_1Edge;
 852              		.loc 1 465 0
 853 0020 7B68     		ldr	r3, [r7, #4]
 854 0022 0022     		movs	r2, #0
 855 0024 1A81     		strh	r2, [r3, #8]	@ movhi
 466:App/STM32F4-Discovery/Libraries/STM32F4xx_StdPeriph_Driver/src/stm32f4xx_spi.c ****   /* Initialize the SPI_NSS member */
 467:App/STM32F4-Discovery/Libraries/STM32F4xx_StdPeriph_Driver/src/stm32f4xx_spi.c ****   SPI_InitStruct->SPI_NSS = SPI_NSS_Hard;
 856              		.loc 1 467 0
 857 0026 7B68     		ldr	r3, [r7, #4]
 858 0028 0022     		movs	r2, #0
 859 002a 5A81     		strh	r2, [r3, #10]	@ movhi
 468:App/STM32F4-Discovery/Libraries/STM32F4xx_StdPeriph_Driver/src/stm32f4xx_spi.c ****   /* Initialize the SPI_BaudRatePrescaler member */
 469:App/STM32F4-Discovery/Libraries/STM32F4xx_StdPeriph_Driver/src/stm32f4xx_spi.c ****   SPI_InitStruct->SPI_BaudRatePrescaler = SPI_BaudRatePrescaler_2;
 860              		.loc 1 469 0
 861 002c 7B68     		ldr	r3, [r7, #4]
 862 002e 0022     		movs	r2, #0
 863 0030 9A81     		strh	r2, [r3, #12]	@ movhi
 470:App/STM32F4-Discovery/Libraries/STM32F4xx_StdPeriph_Driver/src/stm32f4xx_spi.c ****   /* Initialize the SPI_FirstBit member */
 471:App/STM32F4-Discovery/Libraries/STM32F4xx_StdPeriph_Driver/src/stm32f4xx_spi.c ****   SPI_InitStruct->SPI_FirstBit = SPI_FirstBit_MSB;
 864              		.loc 1 471 0
 865 0032 7B68     		ldr	r3, [r7, #4]
 866 0034 0022     		movs	r2, #0
 867 0036 DA81     		strh	r2, [r3, #14]	@ movhi
 472:App/STM32F4-Discovery/Libraries/STM32F4xx_StdPeriph_Driver/src/stm32f4xx_spi.c ****   /* Initialize the SPI_CRCPolynomial member */
 473:App/STM32F4-Discovery/Libraries/STM32F4xx_StdPeriph_Driver/src/stm32f4xx_spi.c ****   SPI_InitStruct->SPI_CRCPolynomial = 7;
 868              		.loc 1 473 0
 869 0038 7B68     		ldr	r3, [r7, #4]
 870 003a 0722     		movs	r2, #7
 871 003c 1A82     		strh	r2, [r3, #16]	@ movhi
 474:App/STM32F4-Discovery/Libraries/STM32F4xx_StdPeriph_Driver/src/stm32f4xx_spi.c **** }
 872              		.loc 1 474 0
 873 003e 0C37     		adds	r7, r7, #12
 874 0040 BD46     		mov	sp, r7
 875              		@ sp needed
 876 0042 5DF8047B 		ldr	r7, [sp], #4
 877 0046 7047     		bx	lr
 878              		.cfi_endproc
 879              	.LFE113:
 881              		.section	.text.I2S_StructInit,"ax",%progbits
 882              		.align	2
 883              		.global	I2S_StructInit
 884              		.thumb
 885              		.thumb_func
 887              	I2S_StructInit:
 888              	.LFB114:
 475:App/STM32F4-Discovery/Libraries/STM32F4xx_StdPeriph_Driver/src/stm32f4xx_spi.c **** 
 476:App/STM32F4-Discovery/Libraries/STM32F4xx_StdPeriph_Driver/src/stm32f4xx_spi.c **** /**
 477:App/STM32F4-Discovery/Libraries/STM32F4xx_StdPeriph_Driver/src/stm32f4xx_spi.c ****   * @brief  Fills each I2S_InitStruct member with its default value.
 478:App/STM32F4-Discovery/Libraries/STM32F4xx_StdPeriph_Driver/src/stm32f4xx_spi.c ****   * @param  I2S_InitStruct: pointer to a I2S_InitTypeDef structure which will be initialized.
 479:App/STM32F4-Discovery/Libraries/STM32F4xx_StdPeriph_Driver/src/stm32f4xx_spi.c ****   * @retval None
 480:App/STM32F4-Discovery/Libraries/STM32F4xx_StdPeriph_Driver/src/stm32f4xx_spi.c ****   */
 481:App/STM32F4-Discovery/Libraries/STM32F4xx_StdPeriph_Driver/src/stm32f4xx_spi.c **** void I2S_StructInit(I2S_InitTypeDef* I2S_InitStruct)
 482:App/STM32F4-Discovery/Libraries/STM32F4xx_StdPeriph_Driver/src/stm32f4xx_spi.c **** {
 889              		.loc 1 482 0
 890              		.cfi_startproc
 891              		@ args = 0, pretend = 0, frame = 8
 892              		@ frame_needed = 1, uses_anonymous_args = 0
 893              		@ link register save eliminated.
 894 0000 80B4     		push	{r7}
 895              	.LCFI12:
 896              		.cfi_def_cfa_offset 4
 897              		.cfi_offset 7, -4
 898 0002 83B0     		sub	sp, sp, #12
 899              	.LCFI13:
 900              		.cfi_def_cfa_offset 16
 901 0004 00AF     		add	r7, sp, #0
 902              	.LCFI14:
 903              		.cfi_def_cfa_register 7
 904 0006 7860     		str	r0, [r7, #4]
 483:App/STM32F4-Discovery/Libraries/STM32F4xx_StdPeriph_Driver/src/stm32f4xx_spi.c **** /*--------------- Reset I2S init structure parameters values -----------------*/
 484:App/STM32F4-Discovery/Libraries/STM32F4xx_StdPeriph_Driver/src/stm32f4xx_spi.c ****   /* Initialize the I2S_Mode member */
 485:App/STM32F4-Discovery/Libraries/STM32F4xx_StdPeriph_Driver/src/stm32f4xx_spi.c ****   I2S_InitStruct->I2S_Mode = I2S_Mode_SlaveTx;
 905              		.loc 1 485 0
 906 0008 7B68     		ldr	r3, [r7, #4]
 907 000a 0022     		movs	r2, #0
 908 000c 1A80     		strh	r2, [r3]	@ movhi
 486:App/STM32F4-Discovery/Libraries/STM32F4xx_StdPeriph_Driver/src/stm32f4xx_spi.c ****   
 487:App/STM32F4-Discovery/Libraries/STM32F4xx_StdPeriph_Driver/src/stm32f4xx_spi.c ****   /* Initialize the I2S_Standard member */
 488:App/STM32F4-Discovery/Libraries/STM32F4xx_StdPeriph_Driver/src/stm32f4xx_spi.c ****   I2S_InitStruct->I2S_Standard = I2S_Standard_Phillips;
 909              		.loc 1 488 0
 910 000e 7B68     		ldr	r3, [r7, #4]
 911 0010 0022     		movs	r2, #0
 912 0012 5A80     		strh	r2, [r3, #2]	@ movhi
 489:App/STM32F4-Discovery/Libraries/STM32F4xx_StdPeriph_Driver/src/stm32f4xx_spi.c ****   
 490:App/STM32F4-Discovery/Libraries/STM32F4xx_StdPeriph_Driver/src/stm32f4xx_spi.c ****   /* Initialize the I2S_DataFormat member */
 491:App/STM32F4-Discovery/Libraries/STM32F4xx_StdPeriph_Driver/src/stm32f4xx_spi.c ****   I2S_InitStruct->I2S_DataFormat = I2S_DataFormat_16b;
 913              		.loc 1 491 0
 914 0014 7B68     		ldr	r3, [r7, #4]
 915 0016 0022     		movs	r2, #0
 916 0018 9A80     		strh	r2, [r3, #4]	@ movhi
 492:App/STM32F4-Discovery/Libraries/STM32F4xx_StdPeriph_Driver/src/stm32f4xx_spi.c ****   
 493:App/STM32F4-Discovery/Libraries/STM32F4xx_StdPeriph_Driver/src/stm32f4xx_spi.c ****   /* Initialize the I2S_MCLKOutput member */
 494:App/STM32F4-Discovery/Libraries/STM32F4xx_StdPeriph_Driver/src/stm32f4xx_spi.c ****   I2S_InitStruct->I2S_MCLKOutput = I2S_MCLKOutput_Disable;
 917              		.loc 1 494 0
 918 001a 7B68     		ldr	r3, [r7, #4]
 919 001c 0022     		movs	r2, #0
 920 001e DA80     		strh	r2, [r3, #6]	@ movhi
 495:App/STM32F4-Discovery/Libraries/STM32F4xx_StdPeriph_Driver/src/stm32f4xx_spi.c ****   
 496:App/STM32F4-Discovery/Libraries/STM32F4xx_StdPeriph_Driver/src/stm32f4xx_spi.c ****   /* Initialize the I2S_AudioFreq member */
 497:App/STM32F4-Discovery/Libraries/STM32F4xx_StdPeriph_Driver/src/stm32f4xx_spi.c ****   I2S_InitStruct->I2S_AudioFreq = I2S_AudioFreq_Default;
 921              		.loc 1 497 0
 922 0020 7B68     		ldr	r3, [r7, #4]
 923 0022 0222     		movs	r2, #2
 924 0024 9A60     		str	r2, [r3, #8]
 498:App/STM32F4-Discovery/Libraries/STM32F4xx_StdPeriph_Driver/src/stm32f4xx_spi.c ****   
 499:App/STM32F4-Discovery/Libraries/STM32F4xx_StdPeriph_Driver/src/stm32f4xx_spi.c ****   /* Initialize the I2S_CPOL member */
 500:App/STM32F4-Discovery/Libraries/STM32F4xx_StdPeriph_Driver/src/stm32f4xx_spi.c ****   I2S_InitStruct->I2S_CPOL = I2S_CPOL_Low;
 925              		.loc 1 500 0
 926 0026 7B68     		ldr	r3, [r7, #4]
 927 0028 0022     		movs	r2, #0
 928 002a 9A81     		strh	r2, [r3, #12]	@ movhi
 501:App/STM32F4-Discovery/Libraries/STM32F4xx_StdPeriph_Driver/src/stm32f4xx_spi.c **** }
 929              		.loc 1 501 0
 930 002c 0C37     		adds	r7, r7, #12
 931 002e BD46     		mov	sp, r7
 932              		@ sp needed
 933 0030 5DF8047B 		ldr	r7, [sp], #4
 934 0034 7047     		bx	lr
 935              		.cfi_endproc
 936              	.LFE114:
 938 0036 00BF     		.section	.text.SPI_Cmd,"ax",%progbits
 939              		.align	2
 940              		.global	SPI_Cmd
 941              		.thumb
 942              		.thumb_func
 944              	SPI_Cmd:
 945              	.LFB115:
 502:App/STM32F4-Discovery/Libraries/STM32F4xx_StdPeriph_Driver/src/stm32f4xx_spi.c **** 
 503:App/STM32F4-Discovery/Libraries/STM32F4xx_StdPeriph_Driver/src/stm32f4xx_spi.c **** /**
 504:App/STM32F4-Discovery/Libraries/STM32F4xx_StdPeriph_Driver/src/stm32f4xx_spi.c ****   * @brief  Enables or disables the specified SPI peripheral.
 505:App/STM32F4-Discovery/Libraries/STM32F4xx_StdPeriph_Driver/src/stm32f4xx_spi.c ****   * @param  SPIx: where x can be 1, 2 or 3 to select the SPI peripheral.
 506:App/STM32F4-Discovery/Libraries/STM32F4xx_StdPeriph_Driver/src/stm32f4xx_spi.c ****   * @param  NewState: new state of the SPIx peripheral. 
 507:App/STM32F4-Discovery/Libraries/STM32F4xx_StdPeriph_Driver/src/stm32f4xx_spi.c ****   *          This parameter can be: ENABLE or DISABLE.
 508:App/STM32F4-Discovery/Libraries/STM32F4xx_StdPeriph_Driver/src/stm32f4xx_spi.c ****   * @retval None
 509:App/STM32F4-Discovery/Libraries/STM32F4xx_StdPeriph_Driver/src/stm32f4xx_spi.c ****   */
 510:App/STM32F4-Discovery/Libraries/STM32F4xx_StdPeriph_Driver/src/stm32f4xx_spi.c **** void SPI_Cmd(SPI_TypeDef* SPIx, FunctionalState NewState)
 511:App/STM32F4-Discovery/Libraries/STM32F4xx_StdPeriph_Driver/src/stm32f4xx_spi.c **** {
 946              		.loc 1 511 0
 947              		.cfi_startproc
 948              		@ args = 0, pretend = 0, frame = 8
 949              		@ frame_needed = 1, uses_anonymous_args = 0
 950 0000 80B5     		push	{r7, lr}
 951              	.LCFI15:
 952              		.cfi_def_cfa_offset 8
 953              		.cfi_offset 7, -8
 954              		.cfi_offset 14, -4
 955 0002 82B0     		sub	sp, sp, #8
 956              	.LCFI16:
 957              		.cfi_def_cfa_offset 16
 958 0004 00AF     		add	r7, sp, #0
 959              	.LCFI17:
 960              		.cfi_def_cfa_register 7
 961 0006 7860     		str	r0, [r7, #4]
 962 0008 0B46     		mov	r3, r1
 963 000a FB70     		strb	r3, [r7, #3]
 512:App/STM32F4-Discovery/Libraries/STM32F4xx_StdPeriph_Driver/src/stm32f4xx_spi.c ****   /* Check the parameters */
 513:App/STM32F4-Discovery/Libraries/STM32F4xx_StdPeriph_Driver/src/stm32f4xx_spi.c ****   assert_param(IS_SPI_ALL_PERIPH(SPIx));
 964              		.loc 1 513 0
 965 000c 7A68     		ldr	r2, [r7, #4]
 966 000e 194B     		ldr	r3, .L48
 967 0010 9A42     		cmp	r2, r3
 968 0012 0CD0     		beq	.L44
 969              		.loc 1 513 0 is_stmt 0 discriminator 1
 970 0014 7A68     		ldr	r2, [r7, #4]
 971 0016 184B     		ldr	r3, .L48+4
 972 0018 9A42     		cmp	r2, r3
 973 001a 08D0     		beq	.L44
 974 001c 7A68     		ldr	r2, [r7, #4]
 975 001e 174B     		ldr	r3, .L48+8
 976 0020 9A42     		cmp	r2, r3
 977 0022 04D0     		beq	.L44
 978 0024 1648     		ldr	r0, .L48+12
 979 0026 40F20121 		movw	r1, #513
 980 002a FFF7FEFF 		bl	assert_failed
 981              	.L44:
 514:App/STM32F4-Discovery/Libraries/STM32F4xx_StdPeriph_Driver/src/stm32f4xx_spi.c ****   assert_param(IS_FUNCTIONAL_STATE(NewState));
 982              		.loc 1 514 0 is_stmt 1
 983 002e FB78     		ldrb	r3, [r7, #3]	@ zero_extendqisi2
 984 0030 002B     		cmp	r3, #0
 985 0032 07D0     		beq	.L45
 986              		.loc 1 514 0 is_stmt 0 discriminator 1
 987 0034 FB78     		ldrb	r3, [r7, #3]	@ zero_extendqisi2
 988 0036 012B     		cmp	r3, #1
 989 0038 04D0     		beq	.L45
 990 003a 1148     		ldr	r0, .L48+12
 991 003c 40F20221 		movw	r1, #514
 992 0040 FFF7FEFF 		bl	assert_failed
 993              	.L45:
 515:App/STM32F4-Discovery/Libraries/STM32F4xx_StdPeriph_Driver/src/stm32f4xx_spi.c ****   if (NewState != DISABLE)
 994              		.loc 1 515 0 is_stmt 1
 995 0044 FB78     		ldrb	r3, [r7, #3]	@ zero_extendqisi2
 996 0046 002B     		cmp	r3, #0
 997 0048 08D0     		beq	.L46
 516:App/STM32F4-Discovery/Libraries/STM32F4xx_StdPeriph_Driver/src/stm32f4xx_spi.c ****   {
 517:App/STM32F4-Discovery/Libraries/STM32F4xx_StdPeriph_Driver/src/stm32f4xx_spi.c ****     /* Enable the selected SPI peripheral */
 518:App/STM32F4-Discovery/Libraries/STM32F4xx_StdPeriph_Driver/src/stm32f4xx_spi.c ****     SPIx->CR1 |= SPI_CR1_SPE;
 998              		.loc 1 518 0
 999 004a 7B68     		ldr	r3, [r7, #4]
 1000 004c 1B88     		ldrh	r3, [r3]	@ movhi
 1001 004e 9BB2     		uxth	r3, r3
 1002 0050 43F04003 		orr	r3, r3, #64
 1003 0054 9AB2     		uxth	r2, r3
 1004 0056 7B68     		ldr	r3, [r7, #4]
 1005 0058 1A80     		strh	r2, [r3]	@ movhi
 1006 005a 07E0     		b	.L43
 1007              	.L46:
 519:App/STM32F4-Discovery/Libraries/STM32F4xx_StdPeriph_Driver/src/stm32f4xx_spi.c ****   }
 520:App/STM32F4-Discovery/Libraries/STM32F4xx_StdPeriph_Driver/src/stm32f4xx_spi.c ****   else
 521:App/STM32F4-Discovery/Libraries/STM32F4xx_StdPeriph_Driver/src/stm32f4xx_spi.c ****   {
 522:App/STM32F4-Discovery/Libraries/STM32F4xx_StdPeriph_Driver/src/stm32f4xx_spi.c ****     /* Disable the selected SPI peripheral */
 523:App/STM32F4-Discovery/Libraries/STM32F4xx_StdPeriph_Driver/src/stm32f4xx_spi.c ****     SPIx->CR1 &= (uint16_t)~((uint16_t)SPI_CR1_SPE);
 1008              		.loc 1 523 0
 1009 005c 7B68     		ldr	r3, [r7, #4]
 1010 005e 1B88     		ldrh	r3, [r3]	@ movhi
 1011 0060 9BB2     		uxth	r3, r3
 1012 0062 23F04003 		bic	r3, r3, #64
 1013 0066 9AB2     		uxth	r2, r3
 1014 0068 7B68     		ldr	r3, [r7, #4]
 1015 006a 1A80     		strh	r2, [r3]	@ movhi
 1016              	.L43:
 524:App/STM32F4-Discovery/Libraries/STM32F4xx_StdPeriph_Driver/src/stm32f4xx_spi.c ****   }
 525:App/STM32F4-Discovery/Libraries/STM32F4xx_StdPeriph_Driver/src/stm32f4xx_spi.c **** }
 1017              		.loc 1 525 0
 1018 006c 0837     		adds	r7, r7, #8
 1019 006e BD46     		mov	sp, r7
 1020              		@ sp needed
 1021 0070 80BD     		pop	{r7, pc}
 1022              	.L49:
 1023 0072 00BF     		.align	2
 1024              	.L48:
 1025 0074 00300140 		.word	1073819648
 1026 0078 00380040 		.word	1073756160
 1027 007c 003C0040 		.word	1073757184
 1028 0080 00000000 		.word	.LC0
 1029              		.cfi_endproc
 1030              	.LFE115:
 1032              		.section	.text.I2S_Cmd,"ax",%progbits
 1033              		.align	2
 1034              		.global	I2S_Cmd
 1035              		.thumb
 1036              		.thumb_func
 1038              	I2S_Cmd:
 1039              	.LFB116:
 526:App/STM32F4-Discovery/Libraries/STM32F4xx_StdPeriph_Driver/src/stm32f4xx_spi.c **** 
 527:App/STM32F4-Discovery/Libraries/STM32F4xx_StdPeriph_Driver/src/stm32f4xx_spi.c **** /**
 528:App/STM32F4-Discovery/Libraries/STM32F4xx_StdPeriph_Driver/src/stm32f4xx_spi.c ****   * @brief  Enables or disables the specified SPI peripheral (in I2S mode).
 529:App/STM32F4-Discovery/Libraries/STM32F4xx_StdPeriph_Driver/src/stm32f4xx_spi.c ****   * @param  SPIx: where x can be 2 or 3 to select the SPI peripheral (or I2Sxext 
 530:App/STM32F4-Discovery/Libraries/STM32F4xx_StdPeriph_Driver/src/stm32f4xx_spi.c ****   *         for full duplex mode).
 531:App/STM32F4-Discovery/Libraries/STM32F4xx_StdPeriph_Driver/src/stm32f4xx_spi.c ****   * @param  NewState: new state of the SPIx peripheral. 
 532:App/STM32F4-Discovery/Libraries/STM32F4xx_StdPeriph_Driver/src/stm32f4xx_spi.c ****   *         This parameter can be: ENABLE or DISABLE.
 533:App/STM32F4-Discovery/Libraries/STM32F4xx_StdPeriph_Driver/src/stm32f4xx_spi.c ****   * @retval None
 534:App/STM32F4-Discovery/Libraries/STM32F4xx_StdPeriph_Driver/src/stm32f4xx_spi.c ****   */
 535:App/STM32F4-Discovery/Libraries/STM32F4xx_StdPeriph_Driver/src/stm32f4xx_spi.c **** void I2S_Cmd(SPI_TypeDef* SPIx, FunctionalState NewState)
 536:App/STM32F4-Discovery/Libraries/STM32F4xx_StdPeriph_Driver/src/stm32f4xx_spi.c **** {
 1040              		.loc 1 536 0
 1041              		.cfi_startproc
 1042              		@ args = 0, pretend = 0, frame = 8
 1043              		@ frame_needed = 1, uses_anonymous_args = 0
 1044 0000 80B5     		push	{r7, lr}
 1045              	.LCFI18:
 1046              		.cfi_def_cfa_offset 8
 1047              		.cfi_offset 7, -8
 1048              		.cfi_offset 14, -4
 1049 0002 82B0     		sub	sp, sp, #8
 1050              	.LCFI19:
 1051              		.cfi_def_cfa_offset 16
 1052 0004 00AF     		add	r7, sp, #0
 1053              	.LCFI20:
 1054              		.cfi_def_cfa_register 7
 1055 0006 7860     		str	r0, [r7, #4]
 1056 0008 0B46     		mov	r3, r1
 1057 000a FB70     		strb	r3, [r7, #3]
 537:App/STM32F4-Discovery/Libraries/STM32F4xx_StdPeriph_Driver/src/stm32f4xx_spi.c ****   /* Check the parameters */
 538:App/STM32F4-Discovery/Libraries/STM32F4xx_StdPeriph_Driver/src/stm32f4xx_spi.c ****   assert_param(IS_SPI_23_PERIPH_EXT(SPIx));
 1058              		.loc 1 538 0
 1059 000c 7A68     		ldr	r2, [r7, #4]
 1060 000e 1B4B     		ldr	r3, .L55
 1061 0010 9A42     		cmp	r2, r3
 1062 0012 10D0     		beq	.L51
 1063              		.loc 1 538 0 is_stmt 0 discriminator 1
 1064 0014 7A68     		ldr	r2, [r7, #4]
 1065 0016 1A4B     		ldr	r3, .L55+4
 1066 0018 9A42     		cmp	r2, r3
 1067 001a 0CD0     		beq	.L51
 1068 001c 7A68     		ldr	r2, [r7, #4]
 1069 001e 194B     		ldr	r3, .L55+8
 1070 0020 9A42     		cmp	r2, r3
 1071 0022 08D0     		beq	.L51
 1072 0024 7B68     		ldr	r3, [r7, #4]
 1073 0026 B3F1402F 		cmp	r3, #1073758208
 1074 002a 04D0     		beq	.L51
 1075 002c 1648     		ldr	r0, .L55+12
 1076 002e 40F21A21 		movw	r1, #538
 1077 0032 FFF7FEFF 		bl	assert_failed
 1078              	.L51:
 539:App/STM32F4-Discovery/Libraries/STM32F4xx_StdPeriph_Driver/src/stm32f4xx_spi.c ****   assert_param(IS_FUNCTIONAL_STATE(NewState));
 1079              		.loc 1 539 0 is_stmt 1
 1080 0036 FB78     		ldrb	r3, [r7, #3]	@ zero_extendqisi2
 1081 0038 002B     		cmp	r3, #0
 1082 003a 07D0     		beq	.L52
 1083              		.loc 1 539 0 is_stmt 0 discriminator 1
 1084 003c FB78     		ldrb	r3, [r7, #3]	@ zero_extendqisi2
 1085 003e 012B     		cmp	r3, #1
 1086 0040 04D0     		beq	.L52
 1087 0042 1148     		ldr	r0, .L55+12
 1088 0044 40F21B21 		movw	r1, #539
 1089 0048 FFF7FEFF 		bl	assert_failed
 1090              	.L52:
 540:App/STM32F4-Discovery/Libraries/STM32F4xx_StdPeriph_Driver/src/stm32f4xx_spi.c ****   
 541:App/STM32F4-Discovery/Libraries/STM32F4xx_StdPeriph_Driver/src/stm32f4xx_spi.c ****   if (NewState != DISABLE)
 1091              		.loc 1 541 0 is_stmt 1
 1092 004c FB78     		ldrb	r3, [r7, #3]	@ zero_extendqisi2
 1093 004e 002B     		cmp	r3, #0
 1094 0050 08D0     		beq	.L53
 542:App/STM32F4-Discovery/Libraries/STM32F4xx_StdPeriph_Driver/src/stm32f4xx_spi.c ****   {
 543:App/STM32F4-Discovery/Libraries/STM32F4xx_StdPeriph_Driver/src/stm32f4xx_spi.c ****     /* Enable the selected SPI peripheral (in I2S mode) */
 544:App/STM32F4-Discovery/Libraries/STM32F4xx_StdPeriph_Driver/src/stm32f4xx_spi.c ****     SPIx->I2SCFGR |= SPI_I2SCFGR_I2SE;
 1095              		.loc 1 544 0
 1096 0052 7B68     		ldr	r3, [r7, #4]
 1097 0054 9B8B     		ldrh	r3, [r3, #28]	@ movhi
 1098 0056 9BB2     		uxth	r3, r3
 1099 0058 43F48063 		orr	r3, r3, #1024
 1100 005c 9AB2     		uxth	r2, r3
 1101 005e 7B68     		ldr	r3, [r7, #4]
 1102 0060 9A83     		strh	r2, [r3, #28]	@ movhi
 1103 0062 07E0     		b	.L50
 1104              	.L53:
 545:App/STM32F4-Discovery/Libraries/STM32F4xx_StdPeriph_Driver/src/stm32f4xx_spi.c ****   }
 546:App/STM32F4-Discovery/Libraries/STM32F4xx_StdPeriph_Driver/src/stm32f4xx_spi.c ****   else
 547:App/STM32F4-Discovery/Libraries/STM32F4xx_StdPeriph_Driver/src/stm32f4xx_spi.c ****   {
 548:App/STM32F4-Discovery/Libraries/STM32F4xx_StdPeriph_Driver/src/stm32f4xx_spi.c ****     /* Disable the selected SPI peripheral in I2S mode */
 549:App/STM32F4-Discovery/Libraries/STM32F4xx_StdPeriph_Driver/src/stm32f4xx_spi.c ****     SPIx->I2SCFGR &= (uint16_t)~((uint16_t)SPI_I2SCFGR_I2SE);
 1105              		.loc 1 549 0
 1106 0064 7B68     		ldr	r3, [r7, #4]
 1107 0066 9B8B     		ldrh	r3, [r3, #28]	@ movhi
 1108 0068 9BB2     		uxth	r3, r3
 1109 006a 23F48063 		bic	r3, r3, #1024
 1110 006e 9AB2     		uxth	r2, r3
 1111 0070 7B68     		ldr	r3, [r7, #4]
 1112 0072 9A83     		strh	r2, [r3, #28]	@ movhi
 1113              	.L50:
 550:App/STM32F4-Discovery/Libraries/STM32F4xx_StdPeriph_Driver/src/stm32f4xx_spi.c ****   }
 551:App/STM32F4-Discovery/Libraries/STM32F4xx_StdPeriph_Driver/src/stm32f4xx_spi.c **** }
 1114              		.loc 1 551 0
 1115 0074 0837     		adds	r7, r7, #8
 1116 0076 BD46     		mov	sp, r7
 1117              		@ sp needed
 1118 0078 80BD     		pop	{r7, pc}
 1119              	.L56:
 1120 007a 00BF     		.align	2
 1121              	.L55:
 1122 007c 00380040 		.word	1073756160
 1123 0080 003C0040 		.word	1073757184
 1124 0084 00340040 		.word	1073755136
 1125 0088 00000000 		.word	.LC0
 1126              		.cfi_endproc
 1127              	.LFE116:
 1129              		.section	.text.SPI_DataSizeConfig,"ax",%progbits
 1130              		.align	2
 1131              		.global	SPI_DataSizeConfig
 1132              		.thumb
 1133              		.thumb_func
 1135              	SPI_DataSizeConfig:
 1136              	.LFB117:
 552:App/STM32F4-Discovery/Libraries/STM32F4xx_StdPeriph_Driver/src/stm32f4xx_spi.c **** 
 553:App/STM32F4-Discovery/Libraries/STM32F4xx_StdPeriph_Driver/src/stm32f4xx_spi.c **** /**
 554:App/STM32F4-Discovery/Libraries/STM32F4xx_StdPeriph_Driver/src/stm32f4xx_spi.c ****   * @brief  Configures the data size for the selected SPI.
 555:App/STM32F4-Discovery/Libraries/STM32F4xx_StdPeriph_Driver/src/stm32f4xx_spi.c ****   * @param  SPIx: where x can be 1, 2 or 3 to select the SPI peripheral.
 556:App/STM32F4-Discovery/Libraries/STM32F4xx_StdPeriph_Driver/src/stm32f4xx_spi.c ****   * @param  SPI_DataSize: specifies the SPI data size.
 557:App/STM32F4-Discovery/Libraries/STM32F4xx_StdPeriph_Driver/src/stm32f4xx_spi.c ****   *          This parameter can be one of the following values:
 558:App/STM32F4-Discovery/Libraries/STM32F4xx_StdPeriph_Driver/src/stm32f4xx_spi.c ****   *            @arg SPI_DataSize_16b: Set data frame format to 16bit
 559:App/STM32F4-Discovery/Libraries/STM32F4xx_StdPeriph_Driver/src/stm32f4xx_spi.c ****   *            @arg SPI_DataSize_8b: Set data frame format to 8bit
 560:App/STM32F4-Discovery/Libraries/STM32F4xx_StdPeriph_Driver/src/stm32f4xx_spi.c ****   * @retval None
 561:App/STM32F4-Discovery/Libraries/STM32F4xx_StdPeriph_Driver/src/stm32f4xx_spi.c ****   */
 562:App/STM32F4-Discovery/Libraries/STM32F4xx_StdPeriph_Driver/src/stm32f4xx_spi.c **** void SPI_DataSizeConfig(SPI_TypeDef* SPIx, uint16_t SPI_DataSize)
 563:App/STM32F4-Discovery/Libraries/STM32F4xx_StdPeriph_Driver/src/stm32f4xx_spi.c **** {
 1137              		.loc 1 563 0
 1138              		.cfi_startproc
 1139              		@ args = 0, pretend = 0, frame = 8
 1140              		@ frame_needed = 1, uses_anonymous_args = 0
 1141 0000 80B5     		push	{r7, lr}
 1142              	.LCFI21:
 1143              		.cfi_def_cfa_offset 8
 1144              		.cfi_offset 7, -8
 1145              		.cfi_offset 14, -4
 1146 0002 82B0     		sub	sp, sp, #8
 1147              	.LCFI22:
 1148              		.cfi_def_cfa_offset 16
 1149 0004 00AF     		add	r7, sp, #0
 1150              	.LCFI23:
 1151              		.cfi_def_cfa_register 7
 1152 0006 7860     		str	r0, [r7, #4]
 1153 0008 0B46     		mov	r3, r1
 1154 000a 7B80     		strh	r3, [r7, #2]	@ movhi
 564:App/STM32F4-Discovery/Libraries/STM32F4xx_StdPeriph_Driver/src/stm32f4xx_spi.c ****   /* Check the parameters */
 565:App/STM32F4-Discovery/Libraries/STM32F4xx_StdPeriph_Driver/src/stm32f4xx_spi.c ****   assert_param(IS_SPI_ALL_PERIPH(SPIx));
 1155              		.loc 1 565 0
 1156 000c 7A68     		ldr	r2, [r7, #4]
 1157 000e 174B     		ldr	r3, .L60
 1158 0010 9A42     		cmp	r2, r3
 1159 0012 0CD0     		beq	.L58
 1160              		.loc 1 565 0 is_stmt 0 discriminator 1
 1161 0014 7A68     		ldr	r2, [r7, #4]
 1162 0016 164B     		ldr	r3, .L60+4
 1163 0018 9A42     		cmp	r2, r3
 1164 001a 08D0     		beq	.L58
 1165 001c 7A68     		ldr	r2, [r7, #4]
 1166 001e 154B     		ldr	r3, .L60+8
 1167 0020 9A42     		cmp	r2, r3
 1168 0022 04D0     		beq	.L58
 1169 0024 1448     		ldr	r0, .L60+12
 1170 0026 40F23521 		movw	r1, #565
 1171 002a FFF7FEFF 		bl	assert_failed
 1172              	.L58:
 566:App/STM32F4-Discovery/Libraries/STM32F4xx_StdPeriph_Driver/src/stm32f4xx_spi.c ****   assert_param(IS_SPI_DATASIZE(SPI_DataSize));
 1173              		.loc 1 566 0 is_stmt 1
 1174 002e 7B88     		ldrh	r3, [r7, #2]
 1175 0030 B3F5006F 		cmp	r3, #2048
 1176 0034 07D0     		beq	.L59
 1177              		.loc 1 566 0 is_stmt 0 discriminator 1
 1178 0036 7B88     		ldrh	r3, [r7, #2]
 1179 0038 002B     		cmp	r3, #0
 1180 003a 04D0     		beq	.L59
 1181 003c 0E48     		ldr	r0, .L60+12
 1182 003e 40F23621 		movw	r1, #566
 1183 0042 FFF7FEFF 		bl	assert_failed
 1184              	.L59:
 567:App/STM32F4-Discovery/Libraries/STM32F4xx_StdPeriph_Driver/src/stm32f4xx_spi.c ****   /* Clear DFF bit */
 568:App/STM32F4-Discovery/Libraries/STM32F4xx_StdPeriph_Driver/src/stm32f4xx_spi.c ****   SPIx->CR1 &= (uint16_t)~SPI_DataSize_16b;
 1185              		.loc 1 568 0 is_stmt 1
 1186 0046 7B68     		ldr	r3, [r7, #4]
 1187 0048 1B88     		ldrh	r3, [r3]	@ movhi
 1188 004a 9BB2     		uxth	r3, r3
 1189 004c 23F40063 		bic	r3, r3, #2048
 1190 0050 9AB2     		uxth	r2, r3
 1191 0052 7B68     		ldr	r3, [r7, #4]
 1192 0054 1A80     		strh	r2, [r3]	@ movhi
 569:App/STM32F4-Discovery/Libraries/STM32F4xx_StdPeriph_Driver/src/stm32f4xx_spi.c ****   /* Set new DFF bit value */
 570:App/STM32F4-Discovery/Libraries/STM32F4xx_StdPeriph_Driver/src/stm32f4xx_spi.c ****   SPIx->CR1 |= SPI_DataSize;
 1193              		.loc 1 570 0
 1194 0056 7B68     		ldr	r3, [r7, #4]
 1195 0058 1B88     		ldrh	r3, [r3]	@ movhi
 1196 005a 9AB2     		uxth	r2, r3
 1197 005c 7B88     		ldrh	r3, [r7, #2]	@ movhi
 1198 005e 1343     		orrs	r3, r3, r2
 1199 0060 9AB2     		uxth	r2, r3
 1200 0062 7B68     		ldr	r3, [r7, #4]
 1201 0064 1A80     		strh	r2, [r3]	@ movhi
 571:App/STM32F4-Discovery/Libraries/STM32F4xx_StdPeriph_Driver/src/stm32f4xx_spi.c **** }
 1202              		.loc 1 571 0
 1203 0066 0837     		adds	r7, r7, #8
 1204 0068 BD46     		mov	sp, r7
 1205              		@ sp needed
 1206 006a 80BD     		pop	{r7, pc}
 1207              	.L61:
 1208              		.align	2
 1209              	.L60:
 1210 006c 00300140 		.word	1073819648
 1211 0070 00380040 		.word	1073756160
 1212 0074 003C0040 		.word	1073757184
 1213 0078 00000000 		.word	.LC0
 1214              		.cfi_endproc
 1215              	.LFE117:
 1217              		.section	.text.SPI_BiDirectionalLineConfig,"ax",%progbits
 1218              		.align	2
 1219              		.global	SPI_BiDirectionalLineConfig
 1220              		.thumb
 1221              		.thumb_func
 1223              	SPI_BiDirectionalLineConfig:
 1224              	.LFB118:
 572:App/STM32F4-Discovery/Libraries/STM32F4xx_StdPeriph_Driver/src/stm32f4xx_spi.c **** 
 573:App/STM32F4-Discovery/Libraries/STM32F4xx_StdPeriph_Driver/src/stm32f4xx_spi.c **** /**
 574:App/STM32F4-Discovery/Libraries/STM32F4xx_StdPeriph_Driver/src/stm32f4xx_spi.c ****   * @brief  Selects the data transfer direction in bidirectional mode for the specified SPI.
 575:App/STM32F4-Discovery/Libraries/STM32F4xx_StdPeriph_Driver/src/stm32f4xx_spi.c ****   * @param  SPIx: where x can be 1, 2 or 3 to select the SPI peripheral.
 576:App/STM32F4-Discovery/Libraries/STM32F4xx_StdPeriph_Driver/src/stm32f4xx_spi.c ****   * @param  SPI_Direction: specifies the data transfer direction in bidirectional mode. 
 577:App/STM32F4-Discovery/Libraries/STM32F4xx_StdPeriph_Driver/src/stm32f4xx_spi.c ****   *          This parameter can be one of the following values:
 578:App/STM32F4-Discovery/Libraries/STM32F4xx_StdPeriph_Driver/src/stm32f4xx_spi.c ****   *            @arg SPI_Direction_Tx: Selects Tx transmission direction
 579:App/STM32F4-Discovery/Libraries/STM32F4xx_StdPeriph_Driver/src/stm32f4xx_spi.c ****   *            @arg SPI_Direction_Rx: Selects Rx receive direction
 580:App/STM32F4-Discovery/Libraries/STM32F4xx_StdPeriph_Driver/src/stm32f4xx_spi.c ****   * @retval None
 581:App/STM32F4-Discovery/Libraries/STM32F4xx_StdPeriph_Driver/src/stm32f4xx_spi.c ****   */
 582:App/STM32F4-Discovery/Libraries/STM32F4xx_StdPeriph_Driver/src/stm32f4xx_spi.c **** void SPI_BiDirectionalLineConfig(SPI_TypeDef* SPIx, uint16_t SPI_Direction)
 583:App/STM32F4-Discovery/Libraries/STM32F4xx_StdPeriph_Driver/src/stm32f4xx_spi.c **** {
 1225              		.loc 1 583 0
 1226              		.cfi_startproc
 1227              		@ args = 0, pretend = 0, frame = 8
 1228              		@ frame_needed = 1, uses_anonymous_args = 0
 1229 0000 80B5     		push	{r7, lr}
 1230              	.LCFI24:
 1231              		.cfi_def_cfa_offset 8
 1232              		.cfi_offset 7, -8
 1233              		.cfi_offset 14, -4
 1234 0002 82B0     		sub	sp, sp, #8
 1235              	.LCFI25:
 1236              		.cfi_def_cfa_offset 16
 1237 0004 00AF     		add	r7, sp, #0
 1238              	.LCFI26:
 1239              		.cfi_def_cfa_register 7
 1240 0006 7860     		str	r0, [r7, #4]
 1241 0008 0B46     		mov	r3, r1
 1242 000a 7B80     		strh	r3, [r7, #2]	@ movhi
 584:App/STM32F4-Discovery/Libraries/STM32F4xx_StdPeriph_Driver/src/stm32f4xx_spi.c ****   /* Check the parameters */
 585:App/STM32F4-Discovery/Libraries/STM32F4xx_StdPeriph_Driver/src/stm32f4xx_spi.c ****   assert_param(IS_SPI_ALL_PERIPH(SPIx));
 1243              		.loc 1 585 0
 1244 000c 7A68     		ldr	r2, [r7, #4]
 1245 000e 1B4B     		ldr	r3, .L67
 1246 0010 9A42     		cmp	r2, r3
 1247 0012 0CD0     		beq	.L63
 1248              		.loc 1 585 0 is_stmt 0 discriminator 1
 1249 0014 7A68     		ldr	r2, [r7, #4]
 1250 0016 1A4B     		ldr	r3, .L67+4
 1251 0018 9A42     		cmp	r2, r3
 1252 001a 08D0     		beq	.L63
 1253 001c 7A68     		ldr	r2, [r7, #4]
 1254 001e 194B     		ldr	r3, .L67+8
 1255 0020 9A42     		cmp	r2, r3
 1256 0022 04D0     		beq	.L63
 1257 0024 1848     		ldr	r0, .L67+12
 1258 0026 40F24921 		movw	r1, #585
 1259 002a FFF7FEFF 		bl	assert_failed
 1260              	.L63:
 586:App/STM32F4-Discovery/Libraries/STM32F4xx_StdPeriph_Driver/src/stm32f4xx_spi.c ****   assert_param(IS_SPI_DIRECTION(SPI_Direction));
 1261              		.loc 1 586 0 is_stmt 1
 1262 002e 7A88     		ldrh	r2, [r7, #2]
 1263 0030 4BF6FF73 		movw	r3, #49151
 1264 0034 9A42     		cmp	r2, r3
 1265 0036 08D0     		beq	.L64
 1266              		.loc 1 586 0 is_stmt 0 discriminator 1
 1267 0038 7B88     		ldrh	r3, [r7, #2]
 1268 003a B3F5804F 		cmp	r3, #16384
 1269 003e 04D0     		beq	.L64
 1270 0040 1148     		ldr	r0, .L67+12
 1271 0042 40F24A21 		movw	r1, #586
 1272 0046 FFF7FEFF 		bl	assert_failed
 1273              	.L64:
 587:App/STM32F4-Discovery/Libraries/STM32F4xx_StdPeriph_Driver/src/stm32f4xx_spi.c ****   if (SPI_Direction == SPI_Direction_Tx)
 1274              		.loc 1 587 0 is_stmt 1
 1275 004a 7B88     		ldrh	r3, [r7, #2]
 1276 004c B3F5804F 		cmp	r3, #16384
 1277 0050 08D1     		bne	.L65
 588:App/STM32F4-Discovery/Libraries/STM32F4xx_StdPeriph_Driver/src/stm32f4xx_spi.c ****   {
 589:App/STM32F4-Discovery/Libraries/STM32F4xx_StdPeriph_Driver/src/stm32f4xx_spi.c ****     /* Set the Tx only mode */
 590:App/STM32F4-Discovery/Libraries/STM32F4xx_StdPeriph_Driver/src/stm32f4xx_spi.c ****     SPIx->CR1 |= SPI_Direction_Tx;
 1278              		.loc 1 590 0
 1279 0052 7B68     		ldr	r3, [r7, #4]
 1280 0054 1B88     		ldrh	r3, [r3]	@ movhi
 1281 0056 9BB2     		uxth	r3, r3
 1282 0058 43F48043 		orr	r3, r3, #16384
 1283 005c 9AB2     		uxth	r2, r3
 1284 005e 7B68     		ldr	r3, [r7, #4]
 1285 0060 1A80     		strh	r2, [r3]	@ movhi
 1286 0062 07E0     		b	.L62
 1287              	.L65:
 591:App/STM32F4-Discovery/Libraries/STM32F4xx_StdPeriph_Driver/src/stm32f4xx_spi.c ****   }
 592:App/STM32F4-Discovery/Libraries/STM32F4xx_StdPeriph_Driver/src/stm32f4xx_spi.c ****   else
 593:App/STM32F4-Discovery/Libraries/STM32F4xx_StdPeriph_Driver/src/stm32f4xx_spi.c ****   {
 594:App/STM32F4-Discovery/Libraries/STM32F4xx_StdPeriph_Driver/src/stm32f4xx_spi.c ****     /* Set the Rx only mode */
 595:App/STM32F4-Discovery/Libraries/STM32F4xx_StdPeriph_Driver/src/stm32f4xx_spi.c ****     SPIx->CR1 &= SPI_Direction_Rx;
 1288              		.loc 1 595 0
 1289 0064 7B68     		ldr	r3, [r7, #4]
 1290 0066 1B88     		ldrh	r3, [r3]	@ movhi
 1291 0068 9BB2     		uxth	r3, r3
 1292 006a 23F48043 		bic	r3, r3, #16384
 1293 006e 9AB2     		uxth	r2, r3
 1294 0070 7B68     		ldr	r3, [r7, #4]
 1295 0072 1A80     		strh	r2, [r3]	@ movhi
 1296              	.L62:
 596:App/STM32F4-Discovery/Libraries/STM32F4xx_StdPeriph_Driver/src/stm32f4xx_spi.c ****   }
 597:App/STM32F4-Discovery/Libraries/STM32F4xx_StdPeriph_Driver/src/stm32f4xx_spi.c **** }
 1297              		.loc 1 597 0
 1298 0074 0837     		adds	r7, r7, #8
 1299 0076 BD46     		mov	sp, r7
 1300              		@ sp needed
 1301 0078 80BD     		pop	{r7, pc}
 1302              	.L68:
 1303 007a 00BF     		.align	2
 1304              	.L67:
 1305 007c 00300140 		.word	1073819648
 1306 0080 00380040 		.word	1073756160
 1307 0084 003C0040 		.word	1073757184
 1308 0088 00000000 		.word	.LC0
 1309              		.cfi_endproc
 1310              	.LFE118:
 1312              		.section	.text.SPI_NSSInternalSoftwareConfig,"ax",%progbits
 1313              		.align	2
 1314              		.global	SPI_NSSInternalSoftwareConfig
 1315              		.thumb
 1316              		.thumb_func
 1318              	SPI_NSSInternalSoftwareConfig:
 1319              	.LFB119:
 598:App/STM32F4-Discovery/Libraries/STM32F4xx_StdPeriph_Driver/src/stm32f4xx_spi.c **** 
 599:App/STM32F4-Discovery/Libraries/STM32F4xx_StdPeriph_Driver/src/stm32f4xx_spi.c **** /**
 600:App/STM32F4-Discovery/Libraries/STM32F4xx_StdPeriph_Driver/src/stm32f4xx_spi.c ****   * @brief  Configures internally by software the NSS pin for the selected SPI.
 601:App/STM32F4-Discovery/Libraries/STM32F4xx_StdPeriph_Driver/src/stm32f4xx_spi.c ****   * @param  SPIx: where x can be 1, 2 or 3 to select the SPI peripheral.
 602:App/STM32F4-Discovery/Libraries/STM32F4xx_StdPeriph_Driver/src/stm32f4xx_spi.c ****   * @param  SPI_NSSInternalSoft: specifies the SPI NSS internal state.
 603:App/STM32F4-Discovery/Libraries/STM32F4xx_StdPeriph_Driver/src/stm32f4xx_spi.c ****   *          This parameter can be one of the following values:
 604:App/STM32F4-Discovery/Libraries/STM32F4xx_StdPeriph_Driver/src/stm32f4xx_spi.c ****   *            @arg SPI_NSSInternalSoft_Set: Set NSS pin internally
 605:App/STM32F4-Discovery/Libraries/STM32F4xx_StdPeriph_Driver/src/stm32f4xx_spi.c ****   *            @arg SPI_NSSInternalSoft_Reset: Reset NSS pin internally
 606:App/STM32F4-Discovery/Libraries/STM32F4xx_StdPeriph_Driver/src/stm32f4xx_spi.c ****   * @retval None
 607:App/STM32F4-Discovery/Libraries/STM32F4xx_StdPeriph_Driver/src/stm32f4xx_spi.c ****   */
 608:App/STM32F4-Discovery/Libraries/STM32F4xx_StdPeriph_Driver/src/stm32f4xx_spi.c **** void SPI_NSSInternalSoftwareConfig(SPI_TypeDef* SPIx, uint16_t SPI_NSSInternalSoft)
 609:App/STM32F4-Discovery/Libraries/STM32F4xx_StdPeriph_Driver/src/stm32f4xx_spi.c **** {
 1320              		.loc 1 609 0
 1321              		.cfi_startproc
 1322              		@ args = 0, pretend = 0, frame = 8
 1323              		@ frame_needed = 1, uses_anonymous_args = 0
 1324 0000 80B5     		push	{r7, lr}
 1325              	.LCFI27:
 1326              		.cfi_def_cfa_offset 8
 1327              		.cfi_offset 7, -8
 1328              		.cfi_offset 14, -4
 1329 0002 82B0     		sub	sp, sp, #8
 1330              	.LCFI28:
 1331              		.cfi_def_cfa_offset 16
 1332 0004 00AF     		add	r7, sp, #0
 1333              	.LCFI29:
 1334              		.cfi_def_cfa_register 7
 1335 0006 7860     		str	r0, [r7, #4]
 1336 0008 0B46     		mov	r3, r1
 1337 000a 7B80     		strh	r3, [r7, #2]	@ movhi
 610:App/STM32F4-Discovery/Libraries/STM32F4xx_StdPeriph_Driver/src/stm32f4xx_spi.c ****   /* Check the parameters */
 611:App/STM32F4-Discovery/Libraries/STM32F4xx_StdPeriph_Driver/src/stm32f4xx_spi.c ****   assert_param(IS_SPI_ALL_PERIPH(SPIx));
 1338              		.loc 1 611 0
 1339 000c 7A68     		ldr	r2, [r7, #4]
 1340 000e 1B4B     		ldr	r3, .L74
 1341 0010 9A42     		cmp	r2, r3
 1342 0012 0CD0     		beq	.L70
 1343              		.loc 1 611 0 is_stmt 0 discriminator 1
 1344 0014 7A68     		ldr	r2, [r7, #4]
 1345 0016 1A4B     		ldr	r3, .L74+4
 1346 0018 9A42     		cmp	r2, r3
 1347 001a 08D0     		beq	.L70
 1348 001c 7A68     		ldr	r2, [r7, #4]
 1349 001e 194B     		ldr	r3, .L74+8
 1350 0020 9A42     		cmp	r2, r3
 1351 0022 04D0     		beq	.L70
 1352 0024 1848     		ldr	r0, .L74+12
 1353 0026 40F26321 		movw	r1, #611
 1354 002a FFF7FEFF 		bl	assert_failed
 1355              	.L70:
 612:App/STM32F4-Discovery/Libraries/STM32F4xx_StdPeriph_Driver/src/stm32f4xx_spi.c ****   assert_param(IS_SPI_NSS_INTERNAL(SPI_NSSInternalSoft));
 1356              		.loc 1 612 0 is_stmt 1
 1357 002e 7B88     		ldrh	r3, [r7, #2]
 1358 0030 B3F5807F 		cmp	r3, #256
 1359 0034 09D0     		beq	.L71
 1360              		.loc 1 612 0 is_stmt 0 discriminator 1
 1361 0036 7A88     		ldrh	r2, [r7, #2]
 1362 0038 4FF6FF63 		movw	r3, #65279
 1363 003c 9A42     		cmp	r2, r3
 1364 003e 04D0     		beq	.L71
 1365 0040 1148     		ldr	r0, .L74+12
 1366 0042 4FF41971 		mov	r1, #612
 1367 0046 FFF7FEFF 		bl	assert_failed
 1368              	.L71:
 613:App/STM32F4-Discovery/Libraries/STM32F4xx_StdPeriph_Driver/src/stm32f4xx_spi.c ****   if (SPI_NSSInternalSoft != SPI_NSSInternalSoft_Reset)
 1369              		.loc 1 613 0 is_stmt 1
 1370 004a 7A88     		ldrh	r2, [r7, #2]
 1371 004c 4FF6FF63 		movw	r3, #65279
 1372 0050 9A42     		cmp	r2, r3
 1373 0052 08D0     		beq	.L72
 614:App/STM32F4-Discovery/Libraries/STM32F4xx_StdPeriph_Driver/src/stm32f4xx_spi.c ****   {
 615:App/STM32F4-Discovery/Libraries/STM32F4xx_StdPeriph_Driver/src/stm32f4xx_spi.c ****     /* Set NSS pin internally by software */
 616:App/STM32F4-Discovery/Libraries/STM32F4xx_StdPeriph_Driver/src/stm32f4xx_spi.c ****     SPIx->CR1 |= SPI_NSSInternalSoft_Set;
 1374              		.loc 1 616 0
 1375 0054 7B68     		ldr	r3, [r7, #4]
 1376 0056 1B88     		ldrh	r3, [r3]	@ movhi
 1377 0058 9BB2     		uxth	r3, r3
 1378 005a 43F48073 		orr	r3, r3, #256
 1379 005e 9AB2     		uxth	r2, r3
 1380 0060 7B68     		ldr	r3, [r7, #4]
 1381 0062 1A80     		strh	r2, [r3]	@ movhi
 1382 0064 07E0     		b	.L69
 1383              	.L72:
 617:App/STM32F4-Discovery/Libraries/STM32F4xx_StdPeriph_Driver/src/stm32f4xx_spi.c ****   }
 618:App/STM32F4-Discovery/Libraries/STM32F4xx_StdPeriph_Driver/src/stm32f4xx_spi.c ****   else
 619:App/STM32F4-Discovery/Libraries/STM32F4xx_StdPeriph_Driver/src/stm32f4xx_spi.c ****   {
 620:App/STM32F4-Discovery/Libraries/STM32F4xx_StdPeriph_Driver/src/stm32f4xx_spi.c ****     /* Reset NSS pin internally by software */
 621:App/STM32F4-Discovery/Libraries/STM32F4xx_StdPeriph_Driver/src/stm32f4xx_spi.c ****     SPIx->CR1 &= SPI_NSSInternalSoft_Reset;
 1384              		.loc 1 621 0
 1385 0066 7B68     		ldr	r3, [r7, #4]
 1386 0068 1B88     		ldrh	r3, [r3]	@ movhi
 1387 006a 9BB2     		uxth	r3, r3
 1388 006c 23F48073 		bic	r3, r3, #256
 1389 0070 9AB2     		uxth	r2, r3
 1390 0072 7B68     		ldr	r3, [r7, #4]
 1391 0074 1A80     		strh	r2, [r3]	@ movhi
 1392              	.L69:
 622:App/STM32F4-Discovery/Libraries/STM32F4xx_StdPeriph_Driver/src/stm32f4xx_spi.c ****   }
 623:App/STM32F4-Discovery/Libraries/STM32F4xx_StdPeriph_Driver/src/stm32f4xx_spi.c **** }
 1393              		.loc 1 623 0
 1394 0076 0837     		adds	r7, r7, #8
 1395 0078 BD46     		mov	sp, r7
 1396              		@ sp needed
 1397 007a 80BD     		pop	{r7, pc}
 1398              	.L75:
 1399              		.align	2
 1400              	.L74:
 1401 007c 00300140 		.word	1073819648
 1402 0080 00380040 		.word	1073756160
 1403 0084 003C0040 		.word	1073757184
 1404 0088 00000000 		.word	.LC0
 1405              		.cfi_endproc
 1406              	.LFE119:
 1408              		.section	.text.SPI_SSOutputCmd,"ax",%progbits
 1409              		.align	2
 1410              		.global	SPI_SSOutputCmd
 1411              		.thumb
 1412              		.thumb_func
 1414              	SPI_SSOutputCmd:
 1415              	.LFB120:
 624:App/STM32F4-Discovery/Libraries/STM32F4xx_StdPeriph_Driver/src/stm32f4xx_spi.c **** 
 625:App/STM32F4-Discovery/Libraries/STM32F4xx_StdPeriph_Driver/src/stm32f4xx_spi.c **** /**
 626:App/STM32F4-Discovery/Libraries/STM32F4xx_StdPeriph_Driver/src/stm32f4xx_spi.c ****   * @brief  Enables or disables the SS output for the selected SPI.
 627:App/STM32F4-Discovery/Libraries/STM32F4xx_StdPeriph_Driver/src/stm32f4xx_spi.c ****   * @param  SPIx: where x can be 1, 2 or 3 to select the SPI peripheral.
 628:App/STM32F4-Discovery/Libraries/STM32F4xx_StdPeriph_Driver/src/stm32f4xx_spi.c ****   * @param  NewState: new state of the SPIx SS output. 
 629:App/STM32F4-Discovery/Libraries/STM32F4xx_StdPeriph_Driver/src/stm32f4xx_spi.c ****   *          This parameter can be: ENABLE or DISABLE.
 630:App/STM32F4-Discovery/Libraries/STM32F4xx_StdPeriph_Driver/src/stm32f4xx_spi.c ****   * @retval None
 631:App/STM32F4-Discovery/Libraries/STM32F4xx_StdPeriph_Driver/src/stm32f4xx_spi.c ****   */
 632:App/STM32F4-Discovery/Libraries/STM32F4xx_StdPeriph_Driver/src/stm32f4xx_spi.c **** void SPI_SSOutputCmd(SPI_TypeDef* SPIx, FunctionalState NewState)
 633:App/STM32F4-Discovery/Libraries/STM32F4xx_StdPeriph_Driver/src/stm32f4xx_spi.c **** {
 1416              		.loc 1 633 0
 1417              		.cfi_startproc
 1418              		@ args = 0, pretend = 0, frame = 8
 1419              		@ frame_needed = 1, uses_anonymous_args = 0
 1420 0000 80B5     		push	{r7, lr}
 1421              	.LCFI30:
 1422              		.cfi_def_cfa_offset 8
 1423              		.cfi_offset 7, -8
 1424              		.cfi_offset 14, -4
 1425 0002 82B0     		sub	sp, sp, #8
 1426              	.LCFI31:
 1427              		.cfi_def_cfa_offset 16
 1428 0004 00AF     		add	r7, sp, #0
 1429              	.LCFI32:
 1430              		.cfi_def_cfa_register 7
 1431 0006 7860     		str	r0, [r7, #4]
 1432 0008 0B46     		mov	r3, r1
 1433 000a FB70     		strb	r3, [r7, #3]
 634:App/STM32F4-Discovery/Libraries/STM32F4xx_StdPeriph_Driver/src/stm32f4xx_spi.c ****   /* Check the parameters */
 635:App/STM32F4-Discovery/Libraries/STM32F4xx_StdPeriph_Driver/src/stm32f4xx_spi.c ****   assert_param(IS_SPI_ALL_PERIPH(SPIx));
 1434              		.loc 1 635 0
 1435 000c 7A68     		ldr	r2, [r7, #4]
 1436 000e 194B     		ldr	r3, .L81
 1437 0010 9A42     		cmp	r2, r3
 1438 0012 0CD0     		beq	.L77
 1439              		.loc 1 635 0 is_stmt 0 discriminator 1
 1440 0014 7A68     		ldr	r2, [r7, #4]
 1441 0016 184B     		ldr	r3, .L81+4
 1442 0018 9A42     		cmp	r2, r3
 1443 001a 08D0     		beq	.L77
 1444 001c 7A68     		ldr	r2, [r7, #4]
 1445 001e 174B     		ldr	r3, .L81+8
 1446 0020 9A42     		cmp	r2, r3
 1447 0022 04D0     		beq	.L77
 1448 0024 1648     		ldr	r0, .L81+12
 1449 0026 40F27B21 		movw	r1, #635
 1450 002a FFF7FEFF 		bl	assert_failed
 1451              	.L77:
 636:App/STM32F4-Discovery/Libraries/STM32F4xx_StdPeriph_Driver/src/stm32f4xx_spi.c ****   assert_param(IS_FUNCTIONAL_STATE(NewState));
 1452              		.loc 1 636 0 is_stmt 1
 1453 002e FB78     		ldrb	r3, [r7, #3]	@ zero_extendqisi2
 1454 0030 002B     		cmp	r3, #0
 1455 0032 07D0     		beq	.L78
 1456              		.loc 1 636 0 is_stmt 0 discriminator 1
 1457 0034 FB78     		ldrb	r3, [r7, #3]	@ zero_extendqisi2
 1458 0036 012B     		cmp	r3, #1
 1459 0038 04D0     		beq	.L78
 1460 003a 1148     		ldr	r0, .L81+12
 1461 003c 4FF41F71 		mov	r1, #636
 1462 0040 FFF7FEFF 		bl	assert_failed
 1463              	.L78:
 637:App/STM32F4-Discovery/Libraries/STM32F4xx_StdPeriph_Driver/src/stm32f4xx_spi.c ****   if (NewState != DISABLE)
 1464              		.loc 1 637 0 is_stmt 1
 1465 0044 FB78     		ldrb	r3, [r7, #3]	@ zero_extendqisi2
 1466 0046 002B     		cmp	r3, #0
 1467 0048 08D0     		beq	.L79
 638:App/STM32F4-Discovery/Libraries/STM32F4xx_StdPeriph_Driver/src/stm32f4xx_spi.c ****   {
 639:App/STM32F4-Discovery/Libraries/STM32F4xx_StdPeriph_Driver/src/stm32f4xx_spi.c ****     /* Enable the selected SPI SS output */
 640:App/STM32F4-Discovery/Libraries/STM32F4xx_StdPeriph_Driver/src/stm32f4xx_spi.c ****     SPIx->CR2 |= (uint16_t)SPI_CR2_SSOE;
 1468              		.loc 1 640 0
 1469 004a 7B68     		ldr	r3, [r7, #4]
 1470 004c 9B88     		ldrh	r3, [r3, #4]	@ movhi
 1471 004e 9BB2     		uxth	r3, r3
 1472 0050 43F00403 		orr	r3, r3, #4
 1473 0054 9AB2     		uxth	r2, r3
 1474 0056 7B68     		ldr	r3, [r7, #4]
 1475 0058 9A80     		strh	r2, [r3, #4]	@ movhi
 1476 005a 07E0     		b	.L76
 1477              	.L79:
 641:App/STM32F4-Discovery/Libraries/STM32F4xx_StdPeriph_Driver/src/stm32f4xx_spi.c ****   }
 642:App/STM32F4-Discovery/Libraries/STM32F4xx_StdPeriph_Driver/src/stm32f4xx_spi.c ****   else
 643:App/STM32F4-Discovery/Libraries/STM32F4xx_StdPeriph_Driver/src/stm32f4xx_spi.c ****   {
 644:App/STM32F4-Discovery/Libraries/STM32F4xx_StdPeriph_Driver/src/stm32f4xx_spi.c ****     /* Disable the selected SPI SS output */
 645:App/STM32F4-Discovery/Libraries/STM32F4xx_StdPeriph_Driver/src/stm32f4xx_spi.c ****     SPIx->CR2 &= (uint16_t)~((uint16_t)SPI_CR2_SSOE);
 1478              		.loc 1 645 0
 1479 005c 7B68     		ldr	r3, [r7, #4]
 1480 005e 9B88     		ldrh	r3, [r3, #4]	@ movhi
 1481 0060 9BB2     		uxth	r3, r3
 1482 0062 23F00403 		bic	r3, r3, #4
 1483 0066 9AB2     		uxth	r2, r3
 1484 0068 7B68     		ldr	r3, [r7, #4]
 1485 006a 9A80     		strh	r2, [r3, #4]	@ movhi
 1486              	.L76:
 646:App/STM32F4-Discovery/Libraries/STM32F4xx_StdPeriph_Driver/src/stm32f4xx_spi.c ****   }
 647:App/STM32F4-Discovery/Libraries/STM32F4xx_StdPeriph_Driver/src/stm32f4xx_spi.c **** }
 1487              		.loc 1 647 0
 1488 006c 0837     		adds	r7, r7, #8
 1489 006e BD46     		mov	sp, r7
 1490              		@ sp needed
 1491 0070 80BD     		pop	{r7, pc}
 1492              	.L82:
 1493 0072 00BF     		.align	2
 1494              	.L81:
 1495 0074 00300140 		.word	1073819648
 1496 0078 00380040 		.word	1073756160
 1497 007c 003C0040 		.word	1073757184
 1498 0080 00000000 		.word	.LC0
 1499              		.cfi_endproc
 1500              	.LFE120:
 1502              		.section	.text.SPI_TIModeCmd,"ax",%progbits
 1503              		.align	2
 1504              		.global	SPI_TIModeCmd
 1505              		.thumb
 1506              		.thumb_func
 1508              	SPI_TIModeCmd:
 1509              	.LFB121:
 648:App/STM32F4-Discovery/Libraries/STM32F4xx_StdPeriph_Driver/src/stm32f4xx_spi.c **** 
 649:App/STM32F4-Discovery/Libraries/STM32F4xx_StdPeriph_Driver/src/stm32f4xx_spi.c **** /**
 650:App/STM32F4-Discovery/Libraries/STM32F4xx_StdPeriph_Driver/src/stm32f4xx_spi.c ****   * @brief  Enables or disables the SPIx/I2Sx DMA interface.
 651:App/STM32F4-Discovery/Libraries/STM32F4xx_StdPeriph_Driver/src/stm32f4xx_spi.c ****   *   
 652:App/STM32F4-Discovery/Libraries/STM32F4xx_StdPeriph_Driver/src/stm32f4xx_spi.c ****   * @note   This function can be called only after the SPI_Init() function has 
 653:App/STM32F4-Discovery/Libraries/STM32F4xx_StdPeriph_Driver/src/stm32f4xx_spi.c ****   *         been called. 
 654:App/STM32F4-Discovery/Libraries/STM32F4xx_StdPeriph_Driver/src/stm32f4xx_spi.c ****   * @note   When TI mode is selected, the control bits SSM, SSI, CPOL and CPHA 
 655:App/STM32F4-Discovery/Libraries/STM32F4xx_StdPeriph_Driver/src/stm32f4xx_spi.c ****   *         are not taken into consideration and are configured by hardware
 656:App/STM32F4-Discovery/Libraries/STM32F4xx_StdPeriph_Driver/src/stm32f4xx_spi.c ****   *         respectively to the TI mode requirements.  
 657:App/STM32F4-Discovery/Libraries/STM32F4xx_StdPeriph_Driver/src/stm32f4xx_spi.c ****   * 
 658:App/STM32F4-Discovery/Libraries/STM32F4xx_StdPeriph_Driver/src/stm32f4xx_spi.c ****   * @param  SPIx: where x can be 1, 2 or 3 
 659:App/STM32F4-Discovery/Libraries/STM32F4xx_StdPeriph_Driver/src/stm32f4xx_spi.c ****   * @param  NewState: new state of the selected SPI TI communication mode.
 660:App/STM32F4-Discovery/Libraries/STM32F4xx_StdPeriph_Driver/src/stm32f4xx_spi.c ****   *          This parameter can be: ENABLE or DISABLE.
 661:App/STM32F4-Discovery/Libraries/STM32F4xx_StdPeriph_Driver/src/stm32f4xx_spi.c ****   * @retval None
 662:App/STM32F4-Discovery/Libraries/STM32F4xx_StdPeriph_Driver/src/stm32f4xx_spi.c ****   */
 663:App/STM32F4-Discovery/Libraries/STM32F4xx_StdPeriph_Driver/src/stm32f4xx_spi.c **** void SPI_TIModeCmd(SPI_TypeDef* SPIx, FunctionalState NewState)
 664:App/STM32F4-Discovery/Libraries/STM32F4xx_StdPeriph_Driver/src/stm32f4xx_spi.c **** {
 1510              		.loc 1 664 0
 1511              		.cfi_startproc
 1512              		@ args = 0, pretend = 0, frame = 8
 1513              		@ frame_needed = 1, uses_anonymous_args = 0
 1514 0000 80B5     		push	{r7, lr}
 1515              	.LCFI33:
 1516              		.cfi_def_cfa_offset 8
 1517              		.cfi_offset 7, -8
 1518              		.cfi_offset 14, -4
 1519 0002 82B0     		sub	sp, sp, #8
 1520              	.LCFI34:
 1521              		.cfi_def_cfa_offset 16
 1522 0004 00AF     		add	r7, sp, #0
 1523              	.LCFI35:
 1524              		.cfi_def_cfa_register 7
 1525 0006 7860     		str	r0, [r7, #4]
 1526 0008 0B46     		mov	r3, r1
 1527 000a FB70     		strb	r3, [r7, #3]
 665:App/STM32F4-Discovery/Libraries/STM32F4xx_StdPeriph_Driver/src/stm32f4xx_spi.c ****   /* Check the parameters */
 666:App/STM32F4-Discovery/Libraries/STM32F4xx_StdPeriph_Driver/src/stm32f4xx_spi.c ****   assert_param(IS_SPI_ALL_PERIPH(SPIx));
 1528              		.loc 1 666 0
 1529 000c 7A68     		ldr	r2, [r7, #4]
 1530 000e 194B     		ldr	r3, .L88
 1531 0010 9A42     		cmp	r2, r3
 1532 0012 0CD0     		beq	.L84
 1533              		.loc 1 666 0 is_stmt 0 discriminator 1
 1534 0014 7A68     		ldr	r2, [r7, #4]
 1535 0016 184B     		ldr	r3, .L88+4
 1536 0018 9A42     		cmp	r2, r3
 1537 001a 08D0     		beq	.L84
 1538 001c 7A68     		ldr	r2, [r7, #4]
 1539 001e 174B     		ldr	r3, .L88+8
 1540 0020 9A42     		cmp	r2, r3
 1541 0022 04D0     		beq	.L84
 1542 0024 1648     		ldr	r0, .L88+12
 1543 0026 40F29A21 		movw	r1, #666
 1544 002a FFF7FEFF 		bl	assert_failed
 1545              	.L84:
 667:App/STM32F4-Discovery/Libraries/STM32F4xx_StdPeriph_Driver/src/stm32f4xx_spi.c ****   assert_param(IS_FUNCTIONAL_STATE(NewState));
 1546              		.loc 1 667 0 is_stmt 1
 1547 002e FB78     		ldrb	r3, [r7, #3]	@ zero_extendqisi2
 1548 0030 002B     		cmp	r3, #0
 1549 0032 07D0     		beq	.L85
 1550              		.loc 1 667 0 is_stmt 0 discriminator 1
 1551 0034 FB78     		ldrb	r3, [r7, #3]	@ zero_extendqisi2
 1552 0036 012B     		cmp	r3, #1
 1553 0038 04D0     		beq	.L85
 1554 003a 1148     		ldr	r0, .L88+12
 1555 003c 40F29B21 		movw	r1, #667
 1556 0040 FFF7FEFF 		bl	assert_failed
 1557              	.L85:
 668:App/STM32F4-Discovery/Libraries/STM32F4xx_StdPeriph_Driver/src/stm32f4xx_spi.c **** 
 669:App/STM32F4-Discovery/Libraries/STM32F4xx_StdPeriph_Driver/src/stm32f4xx_spi.c ****   if (NewState != DISABLE)
 1558              		.loc 1 669 0 is_stmt 1
 1559 0044 FB78     		ldrb	r3, [r7, #3]	@ zero_extendqisi2
 1560 0046 002B     		cmp	r3, #0
 1561 0048 08D0     		beq	.L86
 670:App/STM32F4-Discovery/Libraries/STM32F4xx_StdPeriph_Driver/src/stm32f4xx_spi.c ****   {
 671:App/STM32F4-Discovery/Libraries/STM32F4xx_StdPeriph_Driver/src/stm32f4xx_spi.c ****     /* Enable the TI mode for the selected SPI peripheral */
 672:App/STM32F4-Discovery/Libraries/STM32F4xx_StdPeriph_Driver/src/stm32f4xx_spi.c ****     SPIx->CR2 |= SPI_CR2_FRF;
 1562              		.loc 1 672 0
 1563 004a 7B68     		ldr	r3, [r7, #4]
 1564 004c 9B88     		ldrh	r3, [r3, #4]	@ movhi
 1565 004e 9BB2     		uxth	r3, r3
 1566 0050 43F01003 		orr	r3, r3, #16
 1567 0054 9AB2     		uxth	r2, r3
 1568 0056 7B68     		ldr	r3, [r7, #4]
 1569 0058 9A80     		strh	r2, [r3, #4]	@ movhi
 1570 005a 07E0     		b	.L83
 1571              	.L86:
 673:App/STM32F4-Discovery/Libraries/STM32F4xx_StdPeriph_Driver/src/stm32f4xx_spi.c ****   }
 674:App/STM32F4-Discovery/Libraries/STM32F4xx_StdPeriph_Driver/src/stm32f4xx_spi.c ****   else
 675:App/STM32F4-Discovery/Libraries/STM32F4xx_StdPeriph_Driver/src/stm32f4xx_spi.c ****   {
 676:App/STM32F4-Discovery/Libraries/STM32F4xx_StdPeriph_Driver/src/stm32f4xx_spi.c ****     /* Disable the TI mode for the selected SPI peripheral */
 677:App/STM32F4-Discovery/Libraries/STM32F4xx_StdPeriph_Driver/src/stm32f4xx_spi.c ****     SPIx->CR2 &= (uint16_t)~SPI_CR2_FRF;
 1572              		.loc 1 677 0
 1573 005c 7B68     		ldr	r3, [r7, #4]
 1574 005e 9B88     		ldrh	r3, [r3, #4]	@ movhi
 1575 0060 9BB2     		uxth	r3, r3
 1576 0062 23F01003 		bic	r3, r3, #16
 1577 0066 9AB2     		uxth	r2, r3
 1578 0068 7B68     		ldr	r3, [r7, #4]
 1579 006a 9A80     		strh	r2, [r3, #4]	@ movhi
 1580              	.L83:
 678:App/STM32F4-Discovery/Libraries/STM32F4xx_StdPeriph_Driver/src/stm32f4xx_spi.c ****   }
 679:App/STM32F4-Discovery/Libraries/STM32F4xx_StdPeriph_Driver/src/stm32f4xx_spi.c **** }
 1581              		.loc 1 679 0
 1582 006c 0837     		adds	r7, r7, #8
 1583 006e BD46     		mov	sp, r7
 1584              		@ sp needed
 1585 0070 80BD     		pop	{r7, pc}
 1586              	.L89:
 1587 0072 00BF     		.align	2
 1588              	.L88:
 1589 0074 00300140 		.word	1073819648
 1590 0078 00380040 		.word	1073756160
 1591 007c 003C0040 		.word	1073757184
 1592 0080 00000000 		.word	.LC0
 1593              		.cfi_endproc
 1594              	.LFE121:
 1596              		.section	.text.I2S_FullDuplexConfig,"ax",%progbits
 1597              		.align	2
 1598              		.global	I2S_FullDuplexConfig
 1599              		.thumb
 1600              		.thumb_func
 1602              	I2S_FullDuplexConfig:
 1603              	.LFB122:
 680:App/STM32F4-Discovery/Libraries/STM32F4xx_StdPeriph_Driver/src/stm32f4xx_spi.c **** 
 681:App/STM32F4-Discovery/Libraries/STM32F4xx_StdPeriph_Driver/src/stm32f4xx_spi.c **** /**
 682:App/STM32F4-Discovery/Libraries/STM32F4xx_StdPeriph_Driver/src/stm32f4xx_spi.c ****   * @brief  Configures the full duplex mode for the I2Sx peripheral using its
 683:App/STM32F4-Discovery/Libraries/STM32F4xx_StdPeriph_Driver/src/stm32f4xx_spi.c ****   *         extension I2Sxext according to the specified parameters in the 
 684:App/STM32F4-Discovery/Libraries/STM32F4xx_StdPeriph_Driver/src/stm32f4xx_spi.c ****   *         I2S_InitStruct.
 685:App/STM32F4-Discovery/Libraries/STM32F4xx_StdPeriph_Driver/src/stm32f4xx_spi.c ****   * @param  I2Sxext: where x can be  2 or 3 to select the I2S peripheral extension block.
 686:App/STM32F4-Discovery/Libraries/STM32F4xx_StdPeriph_Driver/src/stm32f4xx_spi.c ****   * @param  I2S_InitStruct: pointer to an I2S_InitTypeDef structure that
 687:App/STM32F4-Discovery/Libraries/STM32F4xx_StdPeriph_Driver/src/stm32f4xx_spi.c ****   *         contains the configuration information for the specified I2S peripheral
 688:App/STM32F4-Discovery/Libraries/STM32F4xx_StdPeriph_Driver/src/stm32f4xx_spi.c ****   *         extension.
 689:App/STM32F4-Discovery/Libraries/STM32F4xx_StdPeriph_Driver/src/stm32f4xx_spi.c ****   * 
 690:App/STM32F4-Discovery/Libraries/STM32F4xx_StdPeriph_Driver/src/stm32f4xx_spi.c ****   * @note   The structure pointed by I2S_InitStruct parameter should be the same
 691:App/STM32F4-Discovery/Libraries/STM32F4xx_StdPeriph_Driver/src/stm32f4xx_spi.c ****   *         used for the master I2S peripheral. In this case, if the master is 
 692:App/STM32F4-Discovery/Libraries/STM32F4xx_StdPeriph_Driver/src/stm32f4xx_spi.c ****   *         configured as transmitter, the slave will be receiver and vice versa.
 693:App/STM32F4-Discovery/Libraries/STM32F4xx_StdPeriph_Driver/src/stm32f4xx_spi.c ****   *         Or you can force a different mode by modifying the field I2S_Mode to the
 694:App/STM32F4-Discovery/Libraries/STM32F4xx_StdPeriph_Driver/src/stm32f4xx_spi.c ****   *         value I2S_SlaveRx or I2S_SlaveTx indepedently of the master configuration.    
 695:App/STM32F4-Discovery/Libraries/STM32F4xx_StdPeriph_Driver/src/stm32f4xx_spi.c ****   *         
 696:App/STM32F4-Discovery/Libraries/STM32F4xx_StdPeriph_Driver/src/stm32f4xx_spi.c ****   * @note   The I2S full duplex extension can be configured in slave mode only.    
 697:App/STM32F4-Discovery/Libraries/STM32F4xx_StdPeriph_Driver/src/stm32f4xx_spi.c ****   *  
 698:App/STM32F4-Discovery/Libraries/STM32F4xx_StdPeriph_Driver/src/stm32f4xx_spi.c ****   * @retval None
 699:App/STM32F4-Discovery/Libraries/STM32F4xx_StdPeriph_Driver/src/stm32f4xx_spi.c ****   */
 700:App/STM32F4-Discovery/Libraries/STM32F4xx_StdPeriph_Driver/src/stm32f4xx_spi.c **** void I2S_FullDuplexConfig(SPI_TypeDef* I2Sxext, I2S_InitTypeDef* I2S_InitStruct)
 701:App/STM32F4-Discovery/Libraries/STM32F4xx_StdPeriph_Driver/src/stm32f4xx_spi.c **** {
 1604              		.loc 1 701 0
 1605              		.cfi_startproc
 1606              		@ args = 0, pretend = 0, frame = 16
 1607              		@ frame_needed = 1, uses_anonymous_args = 0
 1608 0000 80B5     		push	{r7, lr}
 1609              	.LCFI36:
 1610              		.cfi_def_cfa_offset 8
 1611              		.cfi_offset 7, -8
 1612              		.cfi_offset 14, -4
 1613 0002 84B0     		sub	sp, sp, #16
 1614              	.LCFI37:
 1615              		.cfi_def_cfa_offset 24
 1616 0004 00AF     		add	r7, sp, #0
 1617              	.LCFI38:
 1618              		.cfi_def_cfa_register 7
 1619 0006 7860     		str	r0, [r7, #4]
 1620 0008 3960     		str	r1, [r7]
 702:App/STM32F4-Discovery/Libraries/STM32F4xx_StdPeriph_Driver/src/stm32f4xx_spi.c ****   uint16_t tmpreg = 0, tmp = 0;
 1621              		.loc 1 702 0
 1622 000a 0023     		movs	r3, #0
 1623 000c BB81     		strh	r3, [r7, #12]	@ movhi
 1624 000e 0023     		movs	r3, #0
 1625 0010 FB81     		strh	r3, [r7, #14]	@ movhi
 703:App/STM32F4-Discovery/Libraries/STM32F4xx_StdPeriph_Driver/src/stm32f4xx_spi.c ****   
 704:App/STM32F4-Discovery/Libraries/STM32F4xx_StdPeriph_Driver/src/stm32f4xx_spi.c ****   /* Check the I2S parameters */
 705:App/STM32F4-Discovery/Libraries/STM32F4xx_StdPeriph_Driver/src/stm32f4xx_spi.c ****   assert_param(IS_I2S_EXT_PERIPH(I2Sxext));
 1626              		.loc 1 705 0
 1627 0012 7A68     		ldr	r2, [r7, #4]
 1628 0014 504B     		ldr	r3, .L100
 1629 0016 9A42     		cmp	r2, r3
 1630 0018 08D0     		beq	.L91
 1631              		.loc 1 705 0 is_stmt 0 discriminator 1
 1632 001a 7B68     		ldr	r3, [r7, #4]
 1633 001c B3F1402F 		cmp	r3, #1073758208
 1634 0020 04D0     		beq	.L91
 1635 0022 4E48     		ldr	r0, .L100+4
 1636 0024 40F2C121 		movw	r1, #705
 1637 0028 FFF7FEFF 		bl	assert_failed
 1638              	.L91:
 706:App/STM32F4-Discovery/Libraries/STM32F4xx_StdPeriph_Driver/src/stm32f4xx_spi.c ****   assert_param(IS_I2S_MODE(I2S_InitStruct->I2S_Mode));
 1639              		.loc 1 706 0 is_stmt 1
 1640 002c 3B68     		ldr	r3, [r7]
 1641 002e 1B88     		ldrh	r3, [r3]
 1642 0030 002B     		cmp	r3, #0
 1643 0032 13D0     		beq	.L92
 1644              		.loc 1 706 0 is_stmt 0 discriminator 1
 1645 0034 3B68     		ldr	r3, [r7]
 1646 0036 1B88     		ldrh	r3, [r3]
 1647 0038 B3F5807F 		cmp	r3, #256
 1648 003c 0ED0     		beq	.L92
 1649 003e 3B68     		ldr	r3, [r7]
 1650 0040 1B88     		ldrh	r3, [r3]
 1651 0042 B3F5007F 		cmp	r3, #512
 1652 0046 09D0     		beq	.L92
 1653 0048 3B68     		ldr	r3, [r7]
 1654 004a 1B88     		ldrh	r3, [r3]
 1655 004c B3F5407F 		cmp	r3, #768
 1656 0050 04D0     		beq	.L92
 1657 0052 4248     		ldr	r0, .L100+4
 1658 0054 40F2C221 		movw	r1, #706
 1659 0058 FFF7FEFF 		bl	assert_failed
 1660              	.L92:
 707:App/STM32F4-Discovery/Libraries/STM32F4xx_StdPeriph_Driver/src/stm32f4xx_spi.c ****   assert_param(IS_I2S_STANDARD(I2S_InitStruct->I2S_Standard));
 1661              		.loc 1 707 0 is_stmt 1
 1662 005c 3B68     		ldr	r3, [r7]
 1663 005e 5B88     		ldrh	r3, [r3, #2]
 1664 0060 002B     		cmp	r3, #0
 1665 0062 14D0     		beq	.L93
 1666              		.loc 1 707 0 is_stmt 0 discriminator 1
 1667 0064 3B68     		ldr	r3, [r7]
 1668 0066 5B88     		ldrh	r3, [r3, #2]
 1669 0068 102B     		cmp	r3, #16
 1670 006a 10D0     		beq	.L93
 1671 006c 3B68     		ldr	r3, [r7]
 1672 006e 5B88     		ldrh	r3, [r3, #2]
 1673 0070 202B     		cmp	r3, #32
 1674 0072 0CD0     		beq	.L93
 1675 0074 3B68     		ldr	r3, [r7]
 1676 0076 5B88     		ldrh	r3, [r3, #2]
 1677 0078 302B     		cmp	r3, #48
 1678 007a 08D0     		beq	.L93
 1679 007c 3B68     		ldr	r3, [r7]
 1680 007e 5B88     		ldrh	r3, [r3, #2]
 1681 0080 B02B     		cmp	r3, #176
 1682 0082 04D0     		beq	.L93
 1683 0084 3548     		ldr	r0, .L100+4
 1684 0086 40F2C321 		movw	r1, #707
 1685 008a FFF7FEFF 		bl	assert_failed
 1686              	.L93:
 708:App/STM32F4-Discovery/Libraries/STM32F4xx_StdPeriph_Driver/src/stm32f4xx_spi.c ****   assert_param(IS_I2S_DATA_FORMAT(I2S_InitStruct->I2S_DataFormat));
 1687              		.loc 1 708 0 is_stmt 1
 1688 008e 3B68     		ldr	r3, [r7]
 1689 0090 9B88     		ldrh	r3, [r3, #4]
 1690 0092 002B     		cmp	r3, #0
 1691 0094 10D0     		beq	.L94
 1692              		.loc 1 708 0 is_stmt 0 discriminator 1
 1693 0096 3B68     		ldr	r3, [r7]
 1694 0098 9B88     		ldrh	r3, [r3, #4]
 1695 009a 012B     		cmp	r3, #1
 1696 009c 0CD0     		beq	.L94
 1697 009e 3B68     		ldr	r3, [r7]
 1698 00a0 9B88     		ldrh	r3, [r3, #4]
 1699 00a2 032B     		cmp	r3, #3
 1700 00a4 08D0     		beq	.L94
 1701 00a6 3B68     		ldr	r3, [r7]
 1702 00a8 9B88     		ldrh	r3, [r3, #4]
 1703 00aa 052B     		cmp	r3, #5
 1704 00ac 04D0     		beq	.L94
 1705 00ae 2B48     		ldr	r0, .L100+4
 1706 00b0 4FF43171 		mov	r1, #708
 1707 00b4 FFF7FEFF 		bl	assert_failed
 1708              	.L94:
 709:App/STM32F4-Discovery/Libraries/STM32F4xx_StdPeriph_Driver/src/stm32f4xx_spi.c ****   assert_param(IS_I2S_CPOL(I2S_InitStruct->I2S_CPOL));  
 1709              		.loc 1 709 0 is_stmt 1
 1710 00b8 3B68     		ldr	r3, [r7]
 1711 00ba 9B89     		ldrh	r3, [r3, #12]
 1712 00bc 002B     		cmp	r3, #0
 1713 00be 08D0     		beq	.L95
 1714              		.loc 1 709 0 is_stmt 0 discriminator 1
 1715 00c0 3B68     		ldr	r3, [r7]
 1716 00c2 9B89     		ldrh	r3, [r3, #12]
 1717 00c4 082B     		cmp	r3, #8
 1718 00c6 04D0     		beq	.L95
 1719 00c8 2448     		ldr	r0, .L100+4
 1720 00ca 40F2C521 		movw	r1, #709
 1721 00ce FFF7FEFF 		bl	assert_failed
 1722              	.L95:
 710:App/STM32F4-Discovery/Libraries/STM32F4xx_StdPeriph_Driver/src/stm32f4xx_spi.c **** 
 711:App/STM32F4-Discovery/Libraries/STM32F4xx_StdPeriph_Driver/src/stm32f4xx_spi.c **** /*----------------------- SPIx I2SCFGR & I2SPR Configuration -----------------*/
 712:App/STM32F4-Discovery/Libraries/STM32F4xx_StdPeriph_Driver/src/stm32f4xx_spi.c ****   /* Clear I2SMOD, I2SE, I2SCFG, PCMSYNC, I2SSTD, CKPOL, DATLEN and CHLEN bits */
 713:App/STM32F4-Discovery/Libraries/STM32F4xx_StdPeriph_Driver/src/stm32f4xx_spi.c ****   I2Sxext->I2SCFGR &= I2SCFGR_CLEAR_MASK; 
 1723              		.loc 1 713 0 is_stmt 1
 1724 00d2 7B68     		ldr	r3, [r7, #4]
 1725 00d4 9B8B     		ldrh	r3, [r3, #28]	@ movhi
 1726 00d6 9BB2     		uxth	r3, r3
 1727 00d8 23F47B63 		bic	r3, r3, #4016
 1728 00dc 23F00F03 		bic	r3, r3, #15
 1729 00e0 9AB2     		uxth	r2, r3
 1730 00e2 7B68     		ldr	r3, [r7, #4]
 1731 00e4 9A83     		strh	r2, [r3, #28]	@ movhi
 714:App/STM32F4-Discovery/Libraries/STM32F4xx_StdPeriph_Driver/src/stm32f4xx_spi.c ****   I2Sxext->I2SPR = 0x0002;
 1732              		.loc 1 714 0
 1733 00e6 7B68     		ldr	r3, [r7, #4]
 1734 00e8 0222     		movs	r2, #2
 1735 00ea 1A84     		strh	r2, [r3, #32]	@ movhi
 715:App/STM32F4-Discovery/Libraries/STM32F4xx_StdPeriph_Driver/src/stm32f4xx_spi.c ****   
 716:App/STM32F4-Discovery/Libraries/STM32F4xx_StdPeriph_Driver/src/stm32f4xx_spi.c ****   /* Get the I2SCFGR register value */
 717:App/STM32F4-Discovery/Libraries/STM32F4xx_StdPeriph_Driver/src/stm32f4xx_spi.c ****   tmpreg = I2Sxext->I2SCFGR;
 1736              		.loc 1 717 0
 1737 00ec 7B68     		ldr	r3, [r7, #4]
 1738 00ee 9B8B     		ldrh	r3, [r3, #28]	@ movhi
 1739 00f0 BB81     		strh	r3, [r7, #12]	@ movhi
 718:App/STM32F4-Discovery/Libraries/STM32F4xx_StdPeriph_Driver/src/stm32f4xx_spi.c ****   
 719:App/STM32F4-Discovery/Libraries/STM32F4xx_StdPeriph_Driver/src/stm32f4xx_spi.c ****   /* Get the mode to be configured for the extended I2S */
 720:App/STM32F4-Discovery/Libraries/STM32F4xx_StdPeriph_Driver/src/stm32f4xx_spi.c ****   if ((I2S_InitStruct->I2S_Mode == I2S_Mode_MasterTx) || (I2S_InitStruct->I2S_Mode == I2S_Mode_Slav
 1740              		.loc 1 720 0
 1741 00f2 3B68     		ldr	r3, [r7]
 1742 00f4 1B88     		ldrh	r3, [r3]
 1743 00f6 B3F5007F 		cmp	r3, #512
 1744 00fa 03D0     		beq	.L96
 1745              		.loc 1 720 0 is_stmt 0 discriminator 1
 1746 00fc 3B68     		ldr	r3, [r7]
 1747 00fe 1B88     		ldrh	r3, [r3]
 1748 0100 002B     		cmp	r3, #0
 1749 0102 03D1     		bne	.L97
 1750              	.L96:
 721:App/STM32F4-Discovery/Libraries/STM32F4xx_StdPeriph_Driver/src/stm32f4xx_spi.c ****   {
 722:App/STM32F4-Discovery/Libraries/STM32F4xx_StdPeriph_Driver/src/stm32f4xx_spi.c ****     tmp = I2S_Mode_SlaveRx;
 1751              		.loc 1 722 0 is_stmt 1
 1752 0104 4FF48073 		mov	r3, #256
 1753 0108 FB81     		strh	r3, [r7, #14]	@ movhi
 1754 010a 0BE0     		b	.L98
 1755              	.L97:
 723:App/STM32F4-Discovery/Libraries/STM32F4xx_StdPeriph_Driver/src/stm32f4xx_spi.c ****   }
 724:App/STM32F4-Discovery/Libraries/STM32F4xx_StdPeriph_Driver/src/stm32f4xx_spi.c ****   else
 725:App/STM32F4-Discovery/Libraries/STM32F4xx_StdPeriph_Driver/src/stm32f4xx_spi.c ****   {
 726:App/STM32F4-Discovery/Libraries/STM32F4xx_StdPeriph_Driver/src/stm32f4xx_spi.c ****     if ((I2S_InitStruct->I2S_Mode == I2S_Mode_MasterRx) || (I2S_InitStruct->I2S_Mode == I2S_Mode_Sl
 1756              		.loc 1 726 0
 1757 010c 3B68     		ldr	r3, [r7]
 1758 010e 1B88     		ldrh	r3, [r3]
 1759 0110 B3F5407F 		cmp	r3, #768
 1760 0114 04D0     		beq	.L99
 1761              		.loc 1 726 0 is_stmt 0 discriminator 1
 1762 0116 3B68     		ldr	r3, [r7]
 1763 0118 1B88     		ldrh	r3, [r3]
 1764 011a B3F5807F 		cmp	r3, #256
 1765 011e 01D1     		bne	.L98
 1766              	.L99:
 727:App/STM32F4-Discovery/Libraries/STM32F4xx_StdPeriph_Driver/src/stm32f4xx_spi.c ****     {
 728:App/STM32F4-Discovery/Libraries/STM32F4xx_StdPeriph_Driver/src/stm32f4xx_spi.c ****       tmp = I2S_Mode_SlaveTx;
 1767              		.loc 1 728 0 is_stmt 1
 1768 0120 0023     		movs	r3, #0
 1769 0122 FB81     		strh	r3, [r7, #14]	@ movhi
 1770              	.L98:
 729:App/STM32F4-Discovery/Libraries/STM32F4xx_StdPeriph_Driver/src/stm32f4xx_spi.c ****     }
 730:App/STM32F4-Discovery/Libraries/STM32F4xx_StdPeriph_Driver/src/stm32f4xx_spi.c ****   }
 731:App/STM32F4-Discovery/Libraries/STM32F4xx_StdPeriph_Driver/src/stm32f4xx_spi.c **** 
 732:App/STM32F4-Discovery/Libraries/STM32F4xx_StdPeriph_Driver/src/stm32f4xx_spi.c ****  
 733:App/STM32F4-Discovery/Libraries/STM32F4xx_StdPeriph_Driver/src/stm32f4xx_spi.c ****   /* Configure the I2S with the SPI_InitStruct values */
 734:App/STM32F4-Discovery/Libraries/STM32F4xx_StdPeriph_Driver/src/stm32f4xx_spi.c ****   tmpreg |= (uint16_t)((uint16_t)SPI_I2SCFGR_I2SMOD | (uint16_t)(tmp | \
 735:App/STM32F4-Discovery/Libraries/STM32F4xx_StdPeriph_Driver/src/stm32f4xx_spi.c ****                   (uint16_t)(I2S_InitStruct->I2S_Standard | (uint16_t)(I2S_InitStruct->I2S_DataForm
 1771              		.loc 1 735 0
 1772 0124 3B68     		ldr	r3, [r7]
 1773 0126 5A88     		ldrh	r2, [r3, #2]
 1774 0128 3B68     		ldr	r3, [r7]
 1775 012a 9988     		ldrh	r1, [r3, #4]
 736:App/STM32F4-Discovery/Libraries/STM32F4xx_StdPeriph_Driver/src/stm32f4xx_spi.c ****                   (uint16_t)I2S_InitStruct->I2S_CPOL))));
 1776              		.loc 1 736 0
 1777 012c 3B68     		ldr	r3, [r7]
 1778 012e 9B89     		ldrh	r3, [r3, #12]
 735:App/STM32F4-Discovery/Libraries/STM32F4xx_StdPeriph_Driver/src/stm32f4xx_spi.c ****                   (uint16_t)(I2S_InitStruct->I2S_Standard | (uint16_t)(I2S_InitStruct->I2S_DataForm
 1779              		.loc 1 735 0
 1780 0130 0B43     		orrs	r3, r3, r1
 1781 0132 9BB2     		uxth	r3, r3
 1782 0134 1343     		orrs	r3, r3, r2
 1783 0136 9AB2     		uxth	r2, r3
 734:App/STM32F4-Discovery/Libraries/STM32F4xx_StdPeriph_Driver/src/stm32f4xx_spi.c ****   tmpreg |= (uint16_t)((uint16_t)SPI_I2SCFGR_I2SMOD | (uint16_t)(tmp | \
 1784              		.loc 1 734 0
 1785 0138 FB89     		ldrh	r3, [r7, #14]	@ movhi
 1786 013a 1343     		orrs	r3, r3, r2
 1787 013c 9AB2     		uxth	r2, r3
 1788 013e BB89     		ldrh	r3, [r7, #12]	@ movhi
 1789 0140 1343     		orrs	r3, r3, r2
 1790 0142 9BB2     		uxth	r3, r3
 1791 0144 43F40063 		orr	r3, r3, #2048
 1792 0148 BB81     		strh	r3, [r7, #12]	@ movhi
 737:App/STM32F4-Discovery/Libraries/STM32F4xx_StdPeriph_Driver/src/stm32f4xx_spi.c ****  
 738:App/STM32F4-Discovery/Libraries/STM32F4xx_StdPeriph_Driver/src/stm32f4xx_spi.c ****   /* Write to SPIx I2SCFGR */  
 739:App/STM32F4-Discovery/Libraries/STM32F4xx_StdPeriph_Driver/src/stm32f4xx_spi.c ****   I2Sxext->I2SCFGR = tmpreg;
 1793              		.loc 1 739 0
 1794 014a 7B68     		ldr	r3, [r7, #4]
 1795 014c BA89     		ldrh	r2, [r7, #12]	@ movhi
 1796 014e 9A83     		strh	r2, [r3, #28]	@ movhi
 740:App/STM32F4-Discovery/Libraries/STM32F4xx_StdPeriph_Driver/src/stm32f4xx_spi.c **** }
 1797              		.loc 1 740 0
 1798 0150 1037     		adds	r7, r7, #16
 1799 0152 BD46     		mov	sp, r7
 1800              		@ sp needed
 1801 0154 80BD     		pop	{r7, pc}
 1802              	.L101:
 1803 0156 00BF     		.align	2
 1804              	.L100:
 1805 0158 00340040 		.word	1073755136
 1806 015c 00000000 		.word	.LC0
 1807              		.cfi_endproc
 1808              	.LFE122:
 1810              		.section	.text.SPI_I2S_ReceiveData,"ax",%progbits
 1811              		.align	2
 1812              		.global	SPI_I2S_ReceiveData
 1813              		.thumb
 1814              		.thumb_func
 1816              	SPI_I2S_ReceiveData:
 1817              	.LFB123:
 741:App/STM32F4-Discovery/Libraries/STM32F4xx_StdPeriph_Driver/src/stm32f4xx_spi.c **** 
 742:App/STM32F4-Discovery/Libraries/STM32F4xx_StdPeriph_Driver/src/stm32f4xx_spi.c **** /**
 743:App/STM32F4-Discovery/Libraries/STM32F4xx_StdPeriph_Driver/src/stm32f4xx_spi.c ****   * @}
 744:App/STM32F4-Discovery/Libraries/STM32F4xx_StdPeriph_Driver/src/stm32f4xx_spi.c ****   */
 745:App/STM32F4-Discovery/Libraries/STM32F4xx_StdPeriph_Driver/src/stm32f4xx_spi.c **** 
 746:App/STM32F4-Discovery/Libraries/STM32F4xx_StdPeriph_Driver/src/stm32f4xx_spi.c **** /** @defgroup SPI_Group2 Data transfers functions
 747:App/STM32F4-Discovery/Libraries/STM32F4xx_StdPeriph_Driver/src/stm32f4xx_spi.c ****  *  @brief   Data transfers functions
 748:App/STM32F4-Discovery/Libraries/STM32F4xx_StdPeriph_Driver/src/stm32f4xx_spi.c ****  *
 749:App/STM32F4-Discovery/Libraries/STM32F4xx_StdPeriph_Driver/src/stm32f4xx_spi.c **** @verbatim   
 750:App/STM32F4-Discovery/Libraries/STM32F4xx_StdPeriph_Driver/src/stm32f4xx_spi.c ****  ===============================================================================
 751:App/STM32F4-Discovery/Libraries/STM32F4xx_StdPeriph_Driver/src/stm32f4xx_spi.c ****                          Data transfers functions
 752:App/STM32F4-Discovery/Libraries/STM32F4xx_StdPeriph_Driver/src/stm32f4xx_spi.c ****  ===============================================================================  
 753:App/STM32F4-Discovery/Libraries/STM32F4xx_StdPeriph_Driver/src/stm32f4xx_spi.c **** 
 754:App/STM32F4-Discovery/Libraries/STM32F4xx_StdPeriph_Driver/src/stm32f4xx_spi.c ****   This section provides a set of functions allowing to manage the SPI data transfers
 755:App/STM32F4-Discovery/Libraries/STM32F4xx_StdPeriph_Driver/src/stm32f4xx_spi.c ****   
 756:App/STM32F4-Discovery/Libraries/STM32F4xx_StdPeriph_Driver/src/stm32f4xx_spi.c ****   In reception, data are received and then stored into an internal Rx buffer while 
 757:App/STM32F4-Discovery/Libraries/STM32F4xx_StdPeriph_Driver/src/stm32f4xx_spi.c ****   In transmission, data are first stored into an internal Tx buffer before being 
 758:App/STM32F4-Discovery/Libraries/STM32F4xx_StdPeriph_Driver/src/stm32f4xx_spi.c ****   transmitted.
 759:App/STM32F4-Discovery/Libraries/STM32F4xx_StdPeriph_Driver/src/stm32f4xx_spi.c **** 
 760:App/STM32F4-Discovery/Libraries/STM32F4xx_StdPeriph_Driver/src/stm32f4xx_spi.c ****   The read access of the SPI_DR register can be done using the SPI_I2S_ReceiveData()
 761:App/STM32F4-Discovery/Libraries/STM32F4xx_StdPeriph_Driver/src/stm32f4xx_spi.c ****   function and returns the Rx buffered value. Whereas a write access to the SPI_DR 
 762:App/STM32F4-Discovery/Libraries/STM32F4xx_StdPeriph_Driver/src/stm32f4xx_spi.c ****   can be done using SPI_I2S_SendData() function and stores the written data into 
 763:App/STM32F4-Discovery/Libraries/STM32F4xx_StdPeriph_Driver/src/stm32f4xx_spi.c ****   Tx buffer.
 764:App/STM32F4-Discovery/Libraries/STM32F4xx_StdPeriph_Driver/src/stm32f4xx_spi.c **** 
 765:App/STM32F4-Discovery/Libraries/STM32F4xx_StdPeriph_Driver/src/stm32f4xx_spi.c **** @endverbatim
 766:App/STM32F4-Discovery/Libraries/STM32F4xx_StdPeriph_Driver/src/stm32f4xx_spi.c ****   * @{
 767:App/STM32F4-Discovery/Libraries/STM32F4xx_StdPeriph_Driver/src/stm32f4xx_spi.c ****   */
 768:App/STM32F4-Discovery/Libraries/STM32F4xx_StdPeriph_Driver/src/stm32f4xx_spi.c **** 
 769:App/STM32F4-Discovery/Libraries/STM32F4xx_StdPeriph_Driver/src/stm32f4xx_spi.c **** /**
 770:App/STM32F4-Discovery/Libraries/STM32F4xx_StdPeriph_Driver/src/stm32f4xx_spi.c ****   * @brief  Returns the most recent received data by the SPIx/I2Sx peripheral. 
 771:App/STM32F4-Discovery/Libraries/STM32F4xx_StdPeriph_Driver/src/stm32f4xx_spi.c ****   * @param  SPIx: To select the SPIx/I2Sx peripheral, where x can be: 1, 2 or 3 
 772:App/STM32F4-Discovery/Libraries/STM32F4xx_StdPeriph_Driver/src/stm32f4xx_spi.c ****   *         in SPI mode or 2 or 3 in I2S mode or I2Sxext for I2S full duplex mode. 
 773:App/STM32F4-Discovery/Libraries/STM32F4xx_StdPeriph_Driver/src/stm32f4xx_spi.c ****   * @retval The value of the received data.
 774:App/STM32F4-Discovery/Libraries/STM32F4xx_StdPeriph_Driver/src/stm32f4xx_spi.c ****   */
 775:App/STM32F4-Discovery/Libraries/STM32F4xx_StdPeriph_Driver/src/stm32f4xx_spi.c **** uint16_t SPI_I2S_ReceiveData(SPI_TypeDef* SPIx)
 776:App/STM32F4-Discovery/Libraries/STM32F4xx_StdPeriph_Driver/src/stm32f4xx_spi.c **** {
 1818              		.loc 1 776 0
 1819              		.cfi_startproc
 1820              		@ args = 0, pretend = 0, frame = 8
 1821              		@ frame_needed = 1, uses_anonymous_args = 0
 1822 0000 80B5     		push	{r7, lr}
 1823              	.LCFI39:
 1824              		.cfi_def_cfa_offset 8
 1825              		.cfi_offset 7, -8
 1826              		.cfi_offset 14, -4
 1827 0002 82B0     		sub	sp, sp, #8
 1828              	.LCFI40:
 1829              		.cfi_def_cfa_offset 16
 1830 0004 00AF     		add	r7, sp, #0
 1831              	.LCFI41:
 1832              		.cfi_def_cfa_register 7
 1833 0006 7860     		str	r0, [r7, #4]
 777:App/STM32F4-Discovery/Libraries/STM32F4xx_StdPeriph_Driver/src/stm32f4xx_spi.c ****   /* Check the parameters */
 778:App/STM32F4-Discovery/Libraries/STM32F4xx_StdPeriph_Driver/src/stm32f4xx_spi.c ****   assert_param(IS_SPI_ALL_PERIPH_EXT(SPIx));
 1834              		.loc 1 778 0
 1835 0008 7A68     		ldr	r2, [r7, #4]
 1836 000a 0F4B     		ldr	r3, .L105
 1837 000c 9A42     		cmp	r2, r3
 1838 000e 14D0     		beq	.L103
 1839              		.loc 1 778 0 is_stmt 0 discriminator 1
 1840 0010 7A68     		ldr	r2, [r7, #4]
 1841 0012 0E4B     		ldr	r3, .L105+4
 1842 0014 9A42     		cmp	r2, r3
 1843 0016 10D0     		beq	.L103
 1844 0018 7A68     		ldr	r2, [r7, #4]
 1845 001a 0D4B     		ldr	r3, .L105+8
 1846 001c 9A42     		cmp	r2, r3
 1847 001e 0CD0     		beq	.L103
 1848 0020 7A68     		ldr	r2, [r7, #4]
 1849 0022 0C4B     		ldr	r3, .L105+12
 1850 0024 9A42     		cmp	r2, r3
 1851 0026 08D0     		beq	.L103
 1852 0028 7B68     		ldr	r3, [r7, #4]
 1853 002a B3F1402F 		cmp	r3, #1073758208
 1854 002e 04D0     		beq	.L103
 1855 0030 0948     		ldr	r0, .L105+16
 1856 0032 40F20A31 		movw	r1, #778
 1857 0036 FFF7FEFF 		bl	assert_failed
 1858              	.L103:
 779:App/STM32F4-Discovery/Libraries/STM32F4xx_StdPeriph_Driver/src/stm32f4xx_spi.c ****   
 780:App/STM32F4-Discovery/Libraries/STM32F4xx_StdPeriph_Driver/src/stm32f4xx_spi.c ****   /* Return the data in the DR register */
 781:App/STM32F4-Discovery/Libraries/STM32F4xx_StdPeriph_Driver/src/stm32f4xx_spi.c ****   return SPIx->DR;
 1859              		.loc 1 781 0 is_stmt 1
 1860 003a 7B68     		ldr	r3, [r7, #4]
 1861 003c 9B89     		ldrh	r3, [r3, #12]	@ movhi
 1862 003e 9BB2     		uxth	r3, r3
 782:App/STM32F4-Discovery/Libraries/STM32F4xx_StdPeriph_Driver/src/stm32f4xx_spi.c **** }
 1863              		.loc 1 782 0
 1864 0040 1846     		mov	r0, r3
 1865 0042 0837     		adds	r7, r7, #8
 1866 0044 BD46     		mov	sp, r7
 1867              		@ sp needed
 1868 0046 80BD     		pop	{r7, pc}
 1869              	.L106:
 1870              		.align	2
 1871              	.L105:
 1872 0048 00300140 		.word	1073819648
 1873 004c 00380040 		.word	1073756160
 1874 0050 003C0040 		.word	1073757184
 1875 0054 00340040 		.word	1073755136
 1876 0058 00000000 		.word	.LC0
 1877              		.cfi_endproc
 1878              	.LFE123:
 1880              		.section	.text.SPI_I2S_SendData,"ax",%progbits
 1881              		.align	2
 1882              		.global	SPI_I2S_SendData
 1883              		.thumb
 1884              		.thumb_func
 1886              	SPI_I2S_SendData:
 1887              	.LFB124:
 783:App/STM32F4-Discovery/Libraries/STM32F4xx_StdPeriph_Driver/src/stm32f4xx_spi.c **** 
 784:App/STM32F4-Discovery/Libraries/STM32F4xx_StdPeriph_Driver/src/stm32f4xx_spi.c **** /**
 785:App/STM32F4-Discovery/Libraries/STM32F4xx_StdPeriph_Driver/src/stm32f4xx_spi.c ****   * @brief  Transmits a Data through the SPIx/I2Sx peripheral.
 786:App/STM32F4-Discovery/Libraries/STM32F4xx_StdPeriph_Driver/src/stm32f4xx_spi.c ****   * @param  SPIx: To select the SPIx/I2Sx peripheral, where x can be: 1, 2 or 3 
 787:App/STM32F4-Discovery/Libraries/STM32F4xx_StdPeriph_Driver/src/stm32f4xx_spi.c ****   *         in SPI mode or 2 or 3 in I2S mode or I2Sxext for I2S full duplex mode.     
 788:App/STM32F4-Discovery/Libraries/STM32F4xx_StdPeriph_Driver/src/stm32f4xx_spi.c ****   * @param  Data: Data to be transmitted.
 789:App/STM32F4-Discovery/Libraries/STM32F4xx_StdPeriph_Driver/src/stm32f4xx_spi.c ****   * @retval None
 790:App/STM32F4-Discovery/Libraries/STM32F4xx_StdPeriph_Driver/src/stm32f4xx_spi.c ****   */
 791:App/STM32F4-Discovery/Libraries/STM32F4xx_StdPeriph_Driver/src/stm32f4xx_spi.c **** void SPI_I2S_SendData(SPI_TypeDef* SPIx, uint16_t Data)
 792:App/STM32F4-Discovery/Libraries/STM32F4xx_StdPeriph_Driver/src/stm32f4xx_spi.c **** {
 1888              		.loc 1 792 0
 1889              		.cfi_startproc
 1890              		@ args = 0, pretend = 0, frame = 8
 1891              		@ frame_needed = 1, uses_anonymous_args = 0
 1892 0000 80B5     		push	{r7, lr}
 1893              	.LCFI42:
 1894              		.cfi_def_cfa_offset 8
 1895              		.cfi_offset 7, -8
 1896              		.cfi_offset 14, -4
 1897 0002 82B0     		sub	sp, sp, #8
 1898              	.LCFI43:
 1899              		.cfi_def_cfa_offset 16
 1900 0004 00AF     		add	r7, sp, #0
 1901              	.LCFI44:
 1902              		.cfi_def_cfa_register 7
 1903 0006 7860     		str	r0, [r7, #4]
 1904 0008 0B46     		mov	r3, r1
 1905 000a 7B80     		strh	r3, [r7, #2]	@ movhi
 793:App/STM32F4-Discovery/Libraries/STM32F4xx_StdPeriph_Driver/src/stm32f4xx_spi.c ****   /* Check the parameters */
 794:App/STM32F4-Discovery/Libraries/STM32F4xx_StdPeriph_Driver/src/stm32f4xx_spi.c ****   assert_param(IS_SPI_ALL_PERIPH_EXT(SPIx));
 1906              		.loc 1 794 0
 1907 000c 7A68     		ldr	r2, [r7, #4]
 1908 000e 0F4B     		ldr	r3, .L109
 1909 0010 9A42     		cmp	r2, r3
 1910 0012 14D0     		beq	.L108
 1911              		.loc 1 794 0 is_stmt 0 discriminator 1
 1912 0014 7A68     		ldr	r2, [r7, #4]
 1913 0016 0E4B     		ldr	r3, .L109+4
 1914 0018 9A42     		cmp	r2, r3
 1915 001a 10D0     		beq	.L108
 1916 001c 7A68     		ldr	r2, [r7, #4]
 1917 001e 0D4B     		ldr	r3, .L109+8
 1918 0020 9A42     		cmp	r2, r3
 1919 0022 0CD0     		beq	.L108
 1920 0024 7A68     		ldr	r2, [r7, #4]
 1921 0026 0C4B     		ldr	r3, .L109+12
 1922 0028 9A42     		cmp	r2, r3
 1923 002a 08D0     		beq	.L108
 1924 002c 7B68     		ldr	r3, [r7, #4]
 1925 002e B3F1402F 		cmp	r3, #1073758208
 1926 0032 04D0     		beq	.L108
 1927 0034 0948     		ldr	r0, .L109+16
 1928 0036 40F21A31 		movw	r1, #794
 1929 003a FFF7FEFF 		bl	assert_failed
 1930              	.L108:
 795:App/STM32F4-Discovery/Libraries/STM32F4xx_StdPeriph_Driver/src/stm32f4xx_spi.c ****   
 796:App/STM32F4-Discovery/Libraries/STM32F4xx_StdPeriph_Driver/src/stm32f4xx_spi.c ****   /* Write in the DR register the data to be sent */
 797:App/STM32F4-Discovery/Libraries/STM32F4xx_StdPeriph_Driver/src/stm32f4xx_spi.c ****   SPIx->DR = Data;
 1931              		.loc 1 797 0 is_stmt 1
 1932 003e 7B68     		ldr	r3, [r7, #4]
 1933 0040 7A88     		ldrh	r2, [r7, #2]	@ movhi
 1934 0042 9A81     		strh	r2, [r3, #12]	@ movhi
 798:App/STM32F4-Discovery/Libraries/STM32F4xx_StdPeriph_Driver/src/stm32f4xx_spi.c **** }
 1935              		.loc 1 798 0
 1936 0044 0837     		adds	r7, r7, #8
 1937 0046 BD46     		mov	sp, r7
 1938              		@ sp needed
 1939 0048 80BD     		pop	{r7, pc}
 1940              	.L110:
 1941 004a 00BF     		.align	2
 1942              	.L109:
 1943 004c 00300140 		.word	1073819648
 1944 0050 00380040 		.word	1073756160
 1945 0054 003C0040 		.word	1073757184
 1946 0058 00340040 		.word	1073755136
 1947 005c 00000000 		.word	.LC0
 1948              		.cfi_endproc
 1949              	.LFE124:
 1951              		.section	.text.SPI_CalculateCRC,"ax",%progbits
 1952              		.align	2
 1953              		.global	SPI_CalculateCRC
 1954              		.thumb
 1955              		.thumb_func
 1957              	SPI_CalculateCRC:
 1958              	.LFB125:
 799:App/STM32F4-Discovery/Libraries/STM32F4xx_StdPeriph_Driver/src/stm32f4xx_spi.c **** 
 800:App/STM32F4-Discovery/Libraries/STM32F4xx_StdPeriph_Driver/src/stm32f4xx_spi.c **** /**
 801:App/STM32F4-Discovery/Libraries/STM32F4xx_StdPeriph_Driver/src/stm32f4xx_spi.c ****   * @}
 802:App/STM32F4-Discovery/Libraries/STM32F4xx_StdPeriph_Driver/src/stm32f4xx_spi.c ****   */
 803:App/STM32F4-Discovery/Libraries/STM32F4xx_StdPeriph_Driver/src/stm32f4xx_spi.c **** 
 804:App/STM32F4-Discovery/Libraries/STM32F4xx_StdPeriph_Driver/src/stm32f4xx_spi.c **** /** @defgroup SPI_Group3 Hardware CRC Calculation functions
 805:App/STM32F4-Discovery/Libraries/STM32F4xx_StdPeriph_Driver/src/stm32f4xx_spi.c ****  *  @brief   Hardware CRC Calculation functions
 806:App/STM32F4-Discovery/Libraries/STM32F4xx_StdPeriph_Driver/src/stm32f4xx_spi.c ****  *
 807:App/STM32F4-Discovery/Libraries/STM32F4xx_StdPeriph_Driver/src/stm32f4xx_spi.c **** @verbatim   
 808:App/STM32F4-Discovery/Libraries/STM32F4xx_StdPeriph_Driver/src/stm32f4xx_spi.c ****  ===============================================================================
 809:App/STM32F4-Discovery/Libraries/STM32F4xx_StdPeriph_Driver/src/stm32f4xx_spi.c ****                          Hardware CRC Calculation functions
 810:App/STM32F4-Discovery/Libraries/STM32F4xx_StdPeriph_Driver/src/stm32f4xx_spi.c ****  ===============================================================================  
 811:App/STM32F4-Discovery/Libraries/STM32F4xx_StdPeriph_Driver/src/stm32f4xx_spi.c **** 
 812:App/STM32F4-Discovery/Libraries/STM32F4xx_StdPeriph_Driver/src/stm32f4xx_spi.c ****   This section provides a set of functions allowing to manage the SPI CRC hardware 
 813:App/STM32F4-Discovery/Libraries/STM32F4xx_StdPeriph_Driver/src/stm32f4xx_spi.c ****   calculation
 814:App/STM32F4-Discovery/Libraries/STM32F4xx_StdPeriph_Driver/src/stm32f4xx_spi.c **** 
 815:App/STM32F4-Discovery/Libraries/STM32F4xx_StdPeriph_Driver/src/stm32f4xx_spi.c ****   SPI communication using CRC is possible through the following procedure:
 816:App/STM32F4-Discovery/Libraries/STM32F4xx_StdPeriph_Driver/src/stm32f4xx_spi.c ****      1. Program the Data direction, Polarity, Phase, First Data, Baud Rate Prescaler, 
 817:App/STM32F4-Discovery/Libraries/STM32F4xx_StdPeriph_Driver/src/stm32f4xx_spi.c ****         Slave Management, Peripheral Mode and CRC Polynomial values using the SPI_Init()
 818:App/STM32F4-Discovery/Libraries/STM32F4xx_StdPeriph_Driver/src/stm32f4xx_spi.c ****         function.
 819:App/STM32F4-Discovery/Libraries/STM32F4xx_StdPeriph_Driver/src/stm32f4xx_spi.c ****      2. Enable the CRC calculation using the SPI_CalculateCRC() function.
 820:App/STM32F4-Discovery/Libraries/STM32F4xx_StdPeriph_Driver/src/stm32f4xx_spi.c ****      3. Enable the SPI using the SPI_Cmd() function
 821:App/STM32F4-Discovery/Libraries/STM32F4xx_StdPeriph_Driver/src/stm32f4xx_spi.c ****      4. Before writing the last data to the TX buffer, set the CRCNext bit using the 
 822:App/STM32F4-Discovery/Libraries/STM32F4xx_StdPeriph_Driver/src/stm32f4xx_spi.c ****       SPI_TransmitCRC() function to indicate that after transmission of the last 
 823:App/STM32F4-Discovery/Libraries/STM32F4xx_StdPeriph_Driver/src/stm32f4xx_spi.c ****       data, the CRC should be transmitted.
 824:App/STM32F4-Discovery/Libraries/STM32F4xx_StdPeriph_Driver/src/stm32f4xx_spi.c ****      5. After transmitting the last data, the SPI transmits the CRC. The SPI_CR1_CRCNEXT
 825:App/STM32F4-Discovery/Libraries/STM32F4xx_StdPeriph_Driver/src/stm32f4xx_spi.c ****         bit is reset. The CRC is also received and compared against the SPI_RXCRCR 
 826:App/STM32F4-Discovery/Libraries/STM32F4xx_StdPeriph_Driver/src/stm32f4xx_spi.c ****         value. 
 827:App/STM32F4-Discovery/Libraries/STM32F4xx_StdPeriph_Driver/src/stm32f4xx_spi.c ****         If the value does not match, the SPI_FLAG_CRCERR flag is set and an interrupt
 828:App/STM32F4-Discovery/Libraries/STM32F4xx_StdPeriph_Driver/src/stm32f4xx_spi.c ****         can be generated when the SPI_I2S_IT_ERR interrupt is enabled.
 829:App/STM32F4-Discovery/Libraries/STM32F4xx_StdPeriph_Driver/src/stm32f4xx_spi.c **** 
 830:App/STM32F4-Discovery/Libraries/STM32F4xx_StdPeriph_Driver/src/stm32f4xx_spi.c **** @note It is advised not to read the calculated CRC values during the communication.
 831:App/STM32F4-Discovery/Libraries/STM32F4xx_StdPeriph_Driver/src/stm32f4xx_spi.c **** 
 832:App/STM32F4-Discovery/Libraries/STM32F4xx_StdPeriph_Driver/src/stm32f4xx_spi.c **** @note When the SPI is in slave mode, be careful to enable CRC calculation only 
 833:App/STM32F4-Discovery/Libraries/STM32F4xx_StdPeriph_Driver/src/stm32f4xx_spi.c ****       when the clock is stable, that is, when the clock is in the steady state. 
 834:App/STM32F4-Discovery/Libraries/STM32F4xx_StdPeriph_Driver/src/stm32f4xx_spi.c ****       If not, a wrong CRC calculation may be done. In fact, the CRC is sensitive 
 835:App/STM32F4-Discovery/Libraries/STM32F4xx_StdPeriph_Driver/src/stm32f4xx_spi.c ****       to the SCK slave input clock as soon as CRCEN is set, and this, whatever 
 836:App/STM32F4-Discovery/Libraries/STM32F4xx_StdPeriph_Driver/src/stm32f4xx_spi.c ****       the value of the SPE bit.
 837:App/STM32F4-Discovery/Libraries/STM32F4xx_StdPeriph_Driver/src/stm32f4xx_spi.c **** 
 838:App/STM32F4-Discovery/Libraries/STM32F4xx_StdPeriph_Driver/src/stm32f4xx_spi.c **** @note With high bitrate frequencies, be careful when transmitting the CRC.
 839:App/STM32F4-Discovery/Libraries/STM32F4xx_StdPeriph_Driver/src/stm32f4xx_spi.c ****       As the number of used CPU cycles has to be as low as possible in the CRC 
 840:App/STM32F4-Discovery/Libraries/STM32F4xx_StdPeriph_Driver/src/stm32f4xx_spi.c ****       transfer phase, it is forbidden to call software functions in the CRC 
 841:App/STM32F4-Discovery/Libraries/STM32F4xx_StdPeriph_Driver/src/stm32f4xx_spi.c ****       transmission sequence to avoid errors in the last data and CRC reception. 
 842:App/STM32F4-Discovery/Libraries/STM32F4xx_StdPeriph_Driver/src/stm32f4xx_spi.c ****       In fact, CRCNEXT bit has to be written before the end of the transmission/reception 
 843:App/STM32F4-Discovery/Libraries/STM32F4xx_StdPeriph_Driver/src/stm32f4xx_spi.c ****       of the last data.
 844:App/STM32F4-Discovery/Libraries/STM32F4xx_StdPeriph_Driver/src/stm32f4xx_spi.c **** 
 845:App/STM32F4-Discovery/Libraries/STM32F4xx_StdPeriph_Driver/src/stm32f4xx_spi.c **** @note For high bit rate frequencies, it is advised to use the DMA mode to avoid the
 846:App/STM32F4-Discovery/Libraries/STM32F4xx_StdPeriph_Driver/src/stm32f4xx_spi.c ****       degradation of the SPI speed performance due to CPU accesses impacting the 
 847:App/STM32F4-Discovery/Libraries/STM32F4xx_StdPeriph_Driver/src/stm32f4xx_spi.c ****       SPI bandwidth.
 848:App/STM32F4-Discovery/Libraries/STM32F4xx_StdPeriph_Driver/src/stm32f4xx_spi.c **** 
 849:App/STM32F4-Discovery/Libraries/STM32F4xx_StdPeriph_Driver/src/stm32f4xx_spi.c **** @note When the STM32F4xx is configured as slave and the NSS hardware mode is 
 850:App/STM32F4-Discovery/Libraries/STM32F4xx_StdPeriph_Driver/src/stm32f4xx_spi.c ****       used, the NSS pin needs to be kept low between the data phase and the CRC 
 851:App/STM32F4-Discovery/Libraries/STM32F4xx_StdPeriph_Driver/src/stm32f4xx_spi.c ****       phase.
 852:App/STM32F4-Discovery/Libraries/STM32F4xx_StdPeriph_Driver/src/stm32f4xx_spi.c **** 
 853:App/STM32F4-Discovery/Libraries/STM32F4xx_StdPeriph_Driver/src/stm32f4xx_spi.c **** @note When the SPI is configured in slave mode with the CRC feature enabled, CRC
 854:App/STM32F4-Discovery/Libraries/STM32F4xx_StdPeriph_Driver/src/stm32f4xx_spi.c ****       calculation takes place even if a high level is applied on the NSS pin. 
 855:App/STM32F4-Discovery/Libraries/STM32F4xx_StdPeriph_Driver/src/stm32f4xx_spi.c ****       This may happen for example in case of a multi-slave environment where the 
 856:App/STM32F4-Discovery/Libraries/STM32F4xx_StdPeriph_Driver/src/stm32f4xx_spi.c ****       communication master addresses slaves alternately.
 857:App/STM32F4-Discovery/Libraries/STM32F4xx_StdPeriph_Driver/src/stm32f4xx_spi.c **** 
 858:App/STM32F4-Discovery/Libraries/STM32F4xx_StdPeriph_Driver/src/stm32f4xx_spi.c **** @note Between a slave de-selection (high level on NSS) and a new slave selection 
 859:App/STM32F4-Discovery/Libraries/STM32F4xx_StdPeriph_Driver/src/stm32f4xx_spi.c ****       (low level on NSS), the CRC value should be cleared on both master and slave
 860:App/STM32F4-Discovery/Libraries/STM32F4xx_StdPeriph_Driver/src/stm32f4xx_spi.c ****       sides in order to resynchronize the master and slave for their respective 
 861:App/STM32F4-Discovery/Libraries/STM32F4xx_StdPeriph_Driver/src/stm32f4xx_spi.c ****       CRC calculation.
 862:App/STM32F4-Discovery/Libraries/STM32F4xx_StdPeriph_Driver/src/stm32f4xx_spi.c **** 
 863:App/STM32F4-Discovery/Libraries/STM32F4xx_StdPeriph_Driver/src/stm32f4xx_spi.c **** @note To clear the CRC, follow the procedure below:
 864:App/STM32F4-Discovery/Libraries/STM32F4xx_StdPeriph_Driver/src/stm32f4xx_spi.c ****         1. Disable SPI using the SPI_Cmd() function
 865:App/STM32F4-Discovery/Libraries/STM32F4xx_StdPeriph_Driver/src/stm32f4xx_spi.c ****         2. Disable the CRC calculation using the SPI_CalculateCRC() function.
 866:App/STM32F4-Discovery/Libraries/STM32F4xx_StdPeriph_Driver/src/stm32f4xx_spi.c ****         3. Enable the CRC calculation using the SPI_CalculateCRC() function.
 867:App/STM32F4-Discovery/Libraries/STM32F4xx_StdPeriph_Driver/src/stm32f4xx_spi.c ****         4. Enable SPI using the SPI_Cmd() function.
 868:App/STM32F4-Discovery/Libraries/STM32F4xx_StdPeriph_Driver/src/stm32f4xx_spi.c **** 
 869:App/STM32F4-Discovery/Libraries/STM32F4xx_StdPeriph_Driver/src/stm32f4xx_spi.c **** @endverbatim
 870:App/STM32F4-Discovery/Libraries/STM32F4xx_StdPeriph_Driver/src/stm32f4xx_spi.c ****   * @{
 871:App/STM32F4-Discovery/Libraries/STM32F4xx_StdPeriph_Driver/src/stm32f4xx_spi.c ****   */
 872:App/STM32F4-Discovery/Libraries/STM32F4xx_StdPeriph_Driver/src/stm32f4xx_spi.c **** 
 873:App/STM32F4-Discovery/Libraries/STM32F4xx_StdPeriph_Driver/src/stm32f4xx_spi.c **** /**
 874:App/STM32F4-Discovery/Libraries/STM32F4xx_StdPeriph_Driver/src/stm32f4xx_spi.c ****   * @brief  Enables or disables the CRC value calculation of the transferred bytes.
 875:App/STM32F4-Discovery/Libraries/STM32F4xx_StdPeriph_Driver/src/stm32f4xx_spi.c ****   * @param  SPIx: where x can be 1, 2 or 3 to select the SPI peripheral.
 876:App/STM32F4-Discovery/Libraries/STM32F4xx_StdPeriph_Driver/src/stm32f4xx_spi.c ****   * @param  NewState: new state of the SPIx CRC value calculation.
 877:App/STM32F4-Discovery/Libraries/STM32F4xx_StdPeriph_Driver/src/stm32f4xx_spi.c ****   *          This parameter can be: ENABLE or DISABLE.
 878:App/STM32F4-Discovery/Libraries/STM32F4xx_StdPeriph_Driver/src/stm32f4xx_spi.c ****   * @retval None
 879:App/STM32F4-Discovery/Libraries/STM32F4xx_StdPeriph_Driver/src/stm32f4xx_spi.c ****   */
 880:App/STM32F4-Discovery/Libraries/STM32F4xx_StdPeriph_Driver/src/stm32f4xx_spi.c **** void SPI_CalculateCRC(SPI_TypeDef* SPIx, FunctionalState NewState)
 881:App/STM32F4-Discovery/Libraries/STM32F4xx_StdPeriph_Driver/src/stm32f4xx_spi.c **** {
 1959              		.loc 1 881 0
 1960              		.cfi_startproc
 1961              		@ args = 0, pretend = 0, frame = 8
 1962              		@ frame_needed = 1, uses_anonymous_args = 0
 1963 0000 80B5     		push	{r7, lr}
 1964              	.LCFI45:
 1965              		.cfi_def_cfa_offset 8
 1966              		.cfi_offset 7, -8
 1967              		.cfi_offset 14, -4
 1968 0002 82B0     		sub	sp, sp, #8
 1969              	.LCFI46:
 1970              		.cfi_def_cfa_offset 16
 1971 0004 00AF     		add	r7, sp, #0
 1972              	.LCFI47:
 1973              		.cfi_def_cfa_register 7
 1974 0006 7860     		str	r0, [r7, #4]
 1975 0008 0B46     		mov	r3, r1
 1976 000a FB70     		strb	r3, [r7, #3]
 882:App/STM32F4-Discovery/Libraries/STM32F4xx_StdPeriph_Driver/src/stm32f4xx_spi.c ****   /* Check the parameters */
 883:App/STM32F4-Discovery/Libraries/STM32F4xx_StdPeriph_Driver/src/stm32f4xx_spi.c ****   assert_param(IS_SPI_ALL_PERIPH(SPIx));
 1977              		.loc 1 883 0
 1978 000c 7A68     		ldr	r2, [r7, #4]
 1979 000e 194B     		ldr	r3, .L116
 1980 0010 9A42     		cmp	r2, r3
 1981 0012 0CD0     		beq	.L112
 1982              		.loc 1 883 0 is_stmt 0 discriminator 1
 1983 0014 7A68     		ldr	r2, [r7, #4]
 1984 0016 184B     		ldr	r3, .L116+4
 1985 0018 9A42     		cmp	r2, r3
 1986 001a 08D0     		beq	.L112
 1987 001c 7A68     		ldr	r2, [r7, #4]
 1988 001e 174B     		ldr	r3, .L116+8
 1989 0020 9A42     		cmp	r2, r3
 1990 0022 04D0     		beq	.L112
 1991 0024 1648     		ldr	r0, .L116+12
 1992 0026 40F27331 		movw	r1, #883
 1993 002a FFF7FEFF 		bl	assert_failed
 1994              	.L112:
 884:App/STM32F4-Discovery/Libraries/STM32F4xx_StdPeriph_Driver/src/stm32f4xx_spi.c ****   assert_param(IS_FUNCTIONAL_STATE(NewState));
 1995              		.loc 1 884 0 is_stmt 1
 1996 002e FB78     		ldrb	r3, [r7, #3]	@ zero_extendqisi2
 1997 0030 002B     		cmp	r3, #0
 1998 0032 07D0     		beq	.L113
 1999              		.loc 1 884 0 is_stmt 0 discriminator 1
 2000 0034 FB78     		ldrb	r3, [r7, #3]	@ zero_extendqisi2
 2001 0036 012B     		cmp	r3, #1
 2002 0038 04D0     		beq	.L113
 2003 003a 1148     		ldr	r0, .L116+12
 2004 003c 4FF45D71 		mov	r1, #884
 2005 0040 FFF7FEFF 		bl	assert_failed
 2006              	.L113:
 885:App/STM32F4-Discovery/Libraries/STM32F4xx_StdPeriph_Driver/src/stm32f4xx_spi.c ****   if (NewState != DISABLE)
 2007              		.loc 1 885 0 is_stmt 1
 2008 0044 FB78     		ldrb	r3, [r7, #3]	@ zero_extendqisi2
 2009 0046 002B     		cmp	r3, #0
 2010 0048 08D0     		beq	.L114
 886:App/STM32F4-Discovery/Libraries/STM32F4xx_StdPeriph_Driver/src/stm32f4xx_spi.c ****   {
 887:App/STM32F4-Discovery/Libraries/STM32F4xx_StdPeriph_Driver/src/stm32f4xx_spi.c ****     /* Enable the selected SPI CRC calculation */
 888:App/STM32F4-Discovery/Libraries/STM32F4xx_StdPeriph_Driver/src/stm32f4xx_spi.c ****     SPIx->CR1 |= SPI_CR1_CRCEN;
 2011              		.loc 1 888 0
 2012 004a 7B68     		ldr	r3, [r7, #4]
 2013 004c 1B88     		ldrh	r3, [r3]	@ movhi
 2014 004e 9BB2     		uxth	r3, r3
 2015 0050 43F40053 		orr	r3, r3, #8192
 2016 0054 9AB2     		uxth	r2, r3
 2017 0056 7B68     		ldr	r3, [r7, #4]
 2018 0058 1A80     		strh	r2, [r3]	@ movhi
 2019 005a 07E0     		b	.L111
 2020              	.L114:
 889:App/STM32F4-Discovery/Libraries/STM32F4xx_StdPeriph_Driver/src/stm32f4xx_spi.c ****   }
 890:App/STM32F4-Discovery/Libraries/STM32F4xx_StdPeriph_Driver/src/stm32f4xx_spi.c ****   else
 891:App/STM32F4-Discovery/Libraries/STM32F4xx_StdPeriph_Driver/src/stm32f4xx_spi.c ****   {
 892:App/STM32F4-Discovery/Libraries/STM32F4xx_StdPeriph_Driver/src/stm32f4xx_spi.c ****     /* Disable the selected SPI CRC calculation */
 893:App/STM32F4-Discovery/Libraries/STM32F4xx_StdPeriph_Driver/src/stm32f4xx_spi.c ****     SPIx->CR1 &= (uint16_t)~((uint16_t)SPI_CR1_CRCEN);
 2021              		.loc 1 893 0
 2022 005c 7B68     		ldr	r3, [r7, #4]
 2023 005e 1B88     		ldrh	r3, [r3]	@ movhi
 2024 0060 9BB2     		uxth	r3, r3
 2025 0062 23F40053 		bic	r3, r3, #8192
 2026 0066 9AB2     		uxth	r2, r3
 2027 0068 7B68     		ldr	r3, [r7, #4]
 2028 006a 1A80     		strh	r2, [r3]	@ movhi
 2029              	.L111:
 894:App/STM32F4-Discovery/Libraries/STM32F4xx_StdPeriph_Driver/src/stm32f4xx_spi.c ****   }
 895:App/STM32F4-Discovery/Libraries/STM32F4xx_StdPeriph_Driver/src/stm32f4xx_spi.c **** }
 2030              		.loc 1 895 0
 2031 006c 0837     		adds	r7, r7, #8
 2032 006e BD46     		mov	sp, r7
 2033              		@ sp needed
 2034 0070 80BD     		pop	{r7, pc}
 2035              	.L117:
 2036 0072 00BF     		.align	2
 2037              	.L116:
 2038 0074 00300140 		.word	1073819648
 2039 0078 00380040 		.word	1073756160
 2040 007c 003C0040 		.word	1073757184
 2041 0080 00000000 		.word	.LC0
 2042              		.cfi_endproc
 2043              	.LFE125:
 2045              		.section	.text.SPI_TransmitCRC,"ax",%progbits
 2046              		.align	2
 2047              		.global	SPI_TransmitCRC
 2048              		.thumb
 2049              		.thumb_func
 2051              	SPI_TransmitCRC:
 2052              	.LFB126:
 896:App/STM32F4-Discovery/Libraries/STM32F4xx_StdPeriph_Driver/src/stm32f4xx_spi.c **** 
 897:App/STM32F4-Discovery/Libraries/STM32F4xx_StdPeriph_Driver/src/stm32f4xx_spi.c **** /**
 898:App/STM32F4-Discovery/Libraries/STM32F4xx_StdPeriph_Driver/src/stm32f4xx_spi.c ****   * @brief  Transmit the SPIx CRC value.
 899:App/STM32F4-Discovery/Libraries/STM32F4xx_StdPeriph_Driver/src/stm32f4xx_spi.c ****   * @param  SPIx: where x can be 1, 2 or 3 to select the SPI peripheral.
 900:App/STM32F4-Discovery/Libraries/STM32F4xx_StdPeriph_Driver/src/stm32f4xx_spi.c ****   * @retval None
 901:App/STM32F4-Discovery/Libraries/STM32F4xx_StdPeriph_Driver/src/stm32f4xx_spi.c ****   */
 902:App/STM32F4-Discovery/Libraries/STM32F4xx_StdPeriph_Driver/src/stm32f4xx_spi.c **** void SPI_TransmitCRC(SPI_TypeDef* SPIx)
 903:App/STM32F4-Discovery/Libraries/STM32F4xx_StdPeriph_Driver/src/stm32f4xx_spi.c **** {
 2053              		.loc 1 903 0
 2054              		.cfi_startproc
 2055              		@ args = 0, pretend = 0, frame = 8
 2056              		@ frame_needed = 1, uses_anonymous_args = 0
 2057 0000 80B5     		push	{r7, lr}
 2058              	.LCFI48:
 2059              		.cfi_def_cfa_offset 8
 2060              		.cfi_offset 7, -8
 2061              		.cfi_offset 14, -4
 2062 0002 82B0     		sub	sp, sp, #8
 2063              	.LCFI49:
 2064              		.cfi_def_cfa_offset 16
 2065 0004 00AF     		add	r7, sp, #0
 2066              	.LCFI50:
 2067              		.cfi_def_cfa_register 7
 2068 0006 7860     		str	r0, [r7, #4]
 904:App/STM32F4-Discovery/Libraries/STM32F4xx_StdPeriph_Driver/src/stm32f4xx_spi.c ****   /* Check the parameters */
 905:App/STM32F4-Discovery/Libraries/STM32F4xx_StdPeriph_Driver/src/stm32f4xx_spi.c ****   assert_param(IS_SPI_ALL_PERIPH(SPIx));
 2069              		.loc 1 905 0
 2070 0008 7A68     		ldr	r2, [r7, #4]
 2071 000a 0D4B     		ldr	r3, .L120
 2072 000c 9A42     		cmp	r2, r3
 2073 000e 0CD0     		beq	.L119
 2074              		.loc 1 905 0 is_stmt 0 discriminator 1
 2075 0010 7A68     		ldr	r2, [r7, #4]
 2076 0012 0C4B     		ldr	r3, .L120+4
 2077 0014 9A42     		cmp	r2, r3
 2078 0016 08D0     		beq	.L119
 2079 0018 7A68     		ldr	r2, [r7, #4]
 2080 001a 0B4B     		ldr	r3, .L120+8
 2081 001c 9A42     		cmp	r2, r3
 2082 001e 04D0     		beq	.L119
 2083 0020 0A48     		ldr	r0, .L120+12
 2084 0022 40F28931 		movw	r1, #905
 2085 0026 FFF7FEFF 		bl	assert_failed
 2086              	.L119:
 906:App/STM32F4-Discovery/Libraries/STM32F4xx_StdPeriph_Driver/src/stm32f4xx_spi.c ****   
 907:App/STM32F4-Discovery/Libraries/STM32F4xx_StdPeriph_Driver/src/stm32f4xx_spi.c ****   /* Enable the selected SPI CRC transmission */
 908:App/STM32F4-Discovery/Libraries/STM32F4xx_StdPeriph_Driver/src/stm32f4xx_spi.c ****   SPIx->CR1 |= SPI_CR1_CRCNEXT;
 2087              		.loc 1 908 0 is_stmt 1
 2088 002a 7B68     		ldr	r3, [r7, #4]
 2089 002c 1B88     		ldrh	r3, [r3]	@ movhi
 2090 002e 9BB2     		uxth	r3, r3
 2091 0030 43F48053 		orr	r3, r3, #4096
 2092 0034 9AB2     		uxth	r2, r3
 2093 0036 7B68     		ldr	r3, [r7, #4]
 2094 0038 1A80     		strh	r2, [r3]	@ movhi
 909:App/STM32F4-Discovery/Libraries/STM32F4xx_StdPeriph_Driver/src/stm32f4xx_spi.c **** }
 2095              		.loc 1 909 0
 2096 003a 0837     		adds	r7, r7, #8
 2097 003c BD46     		mov	sp, r7
 2098              		@ sp needed
 2099 003e 80BD     		pop	{r7, pc}
 2100              	.L121:
 2101              		.align	2
 2102              	.L120:
 2103 0040 00300140 		.word	1073819648
 2104 0044 00380040 		.word	1073756160
 2105 0048 003C0040 		.word	1073757184
 2106 004c 00000000 		.word	.LC0
 2107              		.cfi_endproc
 2108              	.LFE126:
 2110              		.section	.text.SPI_GetCRC,"ax",%progbits
 2111              		.align	2
 2112              		.global	SPI_GetCRC
 2113              		.thumb
 2114              		.thumb_func
 2116              	SPI_GetCRC:
 2117              	.LFB127:
 910:App/STM32F4-Discovery/Libraries/STM32F4xx_StdPeriph_Driver/src/stm32f4xx_spi.c **** 
 911:App/STM32F4-Discovery/Libraries/STM32F4xx_StdPeriph_Driver/src/stm32f4xx_spi.c **** /**
 912:App/STM32F4-Discovery/Libraries/STM32F4xx_StdPeriph_Driver/src/stm32f4xx_spi.c ****   * @brief  Returns the transmit or the receive CRC register value for the specified SPI.
 913:App/STM32F4-Discovery/Libraries/STM32F4xx_StdPeriph_Driver/src/stm32f4xx_spi.c ****   * @param  SPIx: where x can be 1, 2 or 3 to select the SPI peripheral.
 914:App/STM32F4-Discovery/Libraries/STM32F4xx_StdPeriph_Driver/src/stm32f4xx_spi.c ****   * @param  SPI_CRC: specifies the CRC register to be read.
 915:App/STM32F4-Discovery/Libraries/STM32F4xx_StdPeriph_Driver/src/stm32f4xx_spi.c ****   *          This parameter can be one of the following values:
 916:App/STM32F4-Discovery/Libraries/STM32F4xx_StdPeriph_Driver/src/stm32f4xx_spi.c ****   *            @arg SPI_CRC_Tx: Selects Tx CRC register
 917:App/STM32F4-Discovery/Libraries/STM32F4xx_StdPeriph_Driver/src/stm32f4xx_spi.c ****   *            @arg SPI_CRC_Rx: Selects Rx CRC register
 918:App/STM32F4-Discovery/Libraries/STM32F4xx_StdPeriph_Driver/src/stm32f4xx_spi.c ****   * @retval The selected CRC register value..
 919:App/STM32F4-Discovery/Libraries/STM32F4xx_StdPeriph_Driver/src/stm32f4xx_spi.c ****   */
 920:App/STM32F4-Discovery/Libraries/STM32F4xx_StdPeriph_Driver/src/stm32f4xx_spi.c **** uint16_t SPI_GetCRC(SPI_TypeDef* SPIx, uint8_t SPI_CRC)
 921:App/STM32F4-Discovery/Libraries/STM32F4xx_StdPeriph_Driver/src/stm32f4xx_spi.c **** {
 2118              		.loc 1 921 0
 2119              		.cfi_startproc
 2120              		@ args = 0, pretend = 0, frame = 16
 2121              		@ frame_needed = 1, uses_anonymous_args = 0
 2122 0000 80B5     		push	{r7, lr}
 2123              	.LCFI51:
 2124              		.cfi_def_cfa_offset 8
 2125              		.cfi_offset 7, -8
 2126              		.cfi_offset 14, -4
 2127 0002 84B0     		sub	sp, sp, #16
 2128              	.LCFI52:
 2129              		.cfi_def_cfa_offset 24
 2130 0004 00AF     		add	r7, sp, #0
 2131              	.LCFI53:
 2132              		.cfi_def_cfa_register 7
 2133 0006 7860     		str	r0, [r7, #4]
 2134 0008 0B46     		mov	r3, r1
 2135 000a FB70     		strb	r3, [r7, #3]
 922:App/STM32F4-Discovery/Libraries/STM32F4xx_StdPeriph_Driver/src/stm32f4xx_spi.c ****   uint16_t crcreg = 0;
 2136              		.loc 1 922 0
 2137 000c 0023     		movs	r3, #0
 2138 000e FB81     		strh	r3, [r7, #14]	@ movhi
 923:App/STM32F4-Discovery/Libraries/STM32F4xx_StdPeriph_Driver/src/stm32f4xx_spi.c ****   /* Check the parameters */
 924:App/STM32F4-Discovery/Libraries/STM32F4xx_StdPeriph_Driver/src/stm32f4xx_spi.c ****   assert_param(IS_SPI_ALL_PERIPH(SPIx));
 2139              		.loc 1 924 0
 2140 0010 7A68     		ldr	r2, [r7, #4]
 2141 0012 154B     		ldr	r3, .L128
 2142 0014 9A42     		cmp	r2, r3
 2143 0016 0CD0     		beq	.L123
 2144              		.loc 1 924 0 is_stmt 0 discriminator 1
 2145 0018 7A68     		ldr	r2, [r7, #4]
 2146 001a 144B     		ldr	r3, .L128+4
 2147 001c 9A42     		cmp	r2, r3
 2148 001e 08D0     		beq	.L123
 2149 0020 7A68     		ldr	r2, [r7, #4]
 2150 0022 134B     		ldr	r3, .L128+8
 2151 0024 9A42     		cmp	r2, r3
 2152 0026 04D0     		beq	.L123
 2153 0028 1248     		ldr	r0, .L128+12
 2154 002a 4FF46771 		mov	r1, #924
 2155 002e FFF7FEFF 		bl	assert_failed
 2156              	.L123:
 925:App/STM32F4-Discovery/Libraries/STM32F4xx_StdPeriph_Driver/src/stm32f4xx_spi.c ****   assert_param(IS_SPI_CRC(SPI_CRC));
 2157              		.loc 1 925 0 is_stmt 1
 2158 0032 FB78     		ldrb	r3, [r7, #3]	@ zero_extendqisi2
 2159 0034 002B     		cmp	r3, #0
 2160 0036 07D0     		beq	.L124
 2161              		.loc 1 925 0 is_stmt 0 discriminator 1
 2162 0038 FB78     		ldrb	r3, [r7, #3]	@ zero_extendqisi2
 2163 003a 012B     		cmp	r3, #1
 2164 003c 04D0     		beq	.L124
 2165 003e 0D48     		ldr	r0, .L128+12
 2166 0040 40F29D31 		movw	r1, #925
 2167 0044 FFF7FEFF 		bl	assert_failed
 2168              	.L124:
 926:App/STM32F4-Discovery/Libraries/STM32F4xx_StdPeriph_Driver/src/stm32f4xx_spi.c ****   if (SPI_CRC != SPI_CRC_Rx)
 2169              		.loc 1 926 0 is_stmt 1
 2170 0048 FB78     		ldrb	r3, [r7, #3]	@ zero_extendqisi2
 2171 004a 012B     		cmp	r3, #1
 2172 004c 03D0     		beq	.L125
 927:App/STM32F4-Discovery/Libraries/STM32F4xx_StdPeriph_Driver/src/stm32f4xx_spi.c ****   {
 928:App/STM32F4-Discovery/Libraries/STM32F4xx_StdPeriph_Driver/src/stm32f4xx_spi.c ****     /* Get the Tx CRC register */
 929:App/STM32F4-Discovery/Libraries/STM32F4xx_StdPeriph_Driver/src/stm32f4xx_spi.c ****     crcreg = SPIx->TXCRCR;
 2173              		.loc 1 929 0
 2174 004e 7B68     		ldr	r3, [r7, #4]
 2175 0050 1B8B     		ldrh	r3, [r3, #24]	@ movhi
 2176 0052 FB81     		strh	r3, [r7, #14]	@ movhi
 2177 0054 02E0     		b	.L126
 2178              	.L125:
 930:App/STM32F4-Discovery/Libraries/STM32F4xx_StdPeriph_Driver/src/stm32f4xx_spi.c ****   }
 931:App/STM32F4-Discovery/Libraries/STM32F4xx_StdPeriph_Driver/src/stm32f4xx_spi.c ****   else
 932:App/STM32F4-Discovery/Libraries/STM32F4xx_StdPeriph_Driver/src/stm32f4xx_spi.c ****   {
 933:App/STM32F4-Discovery/Libraries/STM32F4xx_StdPeriph_Driver/src/stm32f4xx_spi.c ****     /* Get the Rx CRC register */
 934:App/STM32F4-Discovery/Libraries/STM32F4xx_StdPeriph_Driver/src/stm32f4xx_spi.c ****     crcreg = SPIx->RXCRCR;
 2179              		.loc 1 934 0
 2180 0056 7B68     		ldr	r3, [r7, #4]
 2181 0058 9B8A     		ldrh	r3, [r3, #20]	@ movhi
 2182 005a FB81     		strh	r3, [r7, #14]	@ movhi
 2183              	.L126:
 935:App/STM32F4-Discovery/Libraries/STM32F4xx_StdPeriph_Driver/src/stm32f4xx_spi.c ****   }
 936:App/STM32F4-Discovery/Libraries/STM32F4xx_StdPeriph_Driver/src/stm32f4xx_spi.c ****   /* Return the selected CRC register */
 937:App/STM32F4-Discovery/Libraries/STM32F4xx_StdPeriph_Driver/src/stm32f4xx_spi.c ****   return crcreg;
 2184              		.loc 1 937 0
 2185 005c FB89     		ldrh	r3, [r7, #14]
 938:App/STM32F4-Discovery/Libraries/STM32F4xx_StdPeriph_Driver/src/stm32f4xx_spi.c **** }
 2186              		.loc 1 938 0
 2187 005e 1846     		mov	r0, r3
 2188 0060 1037     		adds	r7, r7, #16
 2189 0062 BD46     		mov	sp, r7
 2190              		@ sp needed
 2191 0064 80BD     		pop	{r7, pc}
 2192              	.L129:
 2193 0066 00BF     		.align	2
 2194              	.L128:
 2195 0068 00300140 		.word	1073819648
 2196 006c 00380040 		.word	1073756160
 2197 0070 003C0040 		.word	1073757184
 2198 0074 00000000 		.word	.LC0
 2199              		.cfi_endproc
 2200              	.LFE127:
 2202              		.section	.text.SPI_GetCRCPolynomial,"ax",%progbits
 2203              		.align	2
 2204              		.global	SPI_GetCRCPolynomial
 2205              		.thumb
 2206              		.thumb_func
 2208              	SPI_GetCRCPolynomial:
 2209              	.LFB128:
 939:App/STM32F4-Discovery/Libraries/STM32F4xx_StdPeriph_Driver/src/stm32f4xx_spi.c **** 
 940:App/STM32F4-Discovery/Libraries/STM32F4xx_StdPeriph_Driver/src/stm32f4xx_spi.c **** /**
 941:App/STM32F4-Discovery/Libraries/STM32F4xx_StdPeriph_Driver/src/stm32f4xx_spi.c ****   * @brief  Returns the CRC Polynomial register value for the specified SPI.
 942:App/STM32F4-Discovery/Libraries/STM32F4xx_StdPeriph_Driver/src/stm32f4xx_spi.c ****   * @param  SPIx: where x can be 1, 2 or 3 to select the SPI peripheral.
 943:App/STM32F4-Discovery/Libraries/STM32F4xx_StdPeriph_Driver/src/stm32f4xx_spi.c ****   * @retval The CRC Polynomial register value.
 944:App/STM32F4-Discovery/Libraries/STM32F4xx_StdPeriph_Driver/src/stm32f4xx_spi.c ****   */
 945:App/STM32F4-Discovery/Libraries/STM32F4xx_StdPeriph_Driver/src/stm32f4xx_spi.c **** uint16_t SPI_GetCRCPolynomial(SPI_TypeDef* SPIx)
 946:App/STM32F4-Discovery/Libraries/STM32F4xx_StdPeriph_Driver/src/stm32f4xx_spi.c **** {
 2210              		.loc 1 946 0
 2211              		.cfi_startproc
 2212              		@ args = 0, pretend = 0, frame = 8
 2213              		@ frame_needed = 1, uses_anonymous_args = 0
 2214 0000 80B5     		push	{r7, lr}
 2215              	.LCFI54:
 2216              		.cfi_def_cfa_offset 8
 2217              		.cfi_offset 7, -8
 2218              		.cfi_offset 14, -4
 2219 0002 82B0     		sub	sp, sp, #8
 2220              	.LCFI55:
 2221              		.cfi_def_cfa_offset 16
 2222 0004 00AF     		add	r7, sp, #0
 2223              	.LCFI56:
 2224              		.cfi_def_cfa_register 7
 2225 0006 7860     		str	r0, [r7, #4]
 947:App/STM32F4-Discovery/Libraries/STM32F4xx_StdPeriph_Driver/src/stm32f4xx_spi.c ****   /* Check the parameters */
 948:App/STM32F4-Discovery/Libraries/STM32F4xx_StdPeriph_Driver/src/stm32f4xx_spi.c ****   assert_param(IS_SPI_ALL_PERIPH(SPIx));
 2226              		.loc 1 948 0
 2227 0008 7A68     		ldr	r2, [r7, #4]
 2228 000a 0B4B     		ldr	r3, .L133
 2229 000c 9A42     		cmp	r2, r3
 2230 000e 0CD0     		beq	.L131
 2231              		.loc 1 948 0 is_stmt 0 discriminator 1
 2232 0010 7A68     		ldr	r2, [r7, #4]
 2233 0012 0A4B     		ldr	r3, .L133+4
 2234 0014 9A42     		cmp	r2, r3
 2235 0016 08D0     		beq	.L131
 2236 0018 7A68     		ldr	r2, [r7, #4]
 2237 001a 094B     		ldr	r3, .L133+8
 2238 001c 9A42     		cmp	r2, r3
 2239 001e 04D0     		beq	.L131
 2240 0020 0848     		ldr	r0, .L133+12
 2241 0022 4FF46D71 		mov	r1, #948
 2242 0026 FFF7FEFF 		bl	assert_failed
 2243              	.L131:
 949:App/STM32F4-Discovery/Libraries/STM32F4xx_StdPeriph_Driver/src/stm32f4xx_spi.c ****   
 950:App/STM32F4-Discovery/Libraries/STM32F4xx_StdPeriph_Driver/src/stm32f4xx_spi.c ****   /* Return the CRC polynomial register */
 951:App/STM32F4-Discovery/Libraries/STM32F4xx_StdPeriph_Driver/src/stm32f4xx_spi.c ****   return SPIx->CRCPR;
 2244              		.loc 1 951 0 is_stmt 1
 2245 002a 7B68     		ldr	r3, [r7, #4]
 2246 002c 1B8A     		ldrh	r3, [r3, #16]	@ movhi
 2247 002e 9BB2     		uxth	r3, r3
 952:App/STM32F4-Discovery/Libraries/STM32F4xx_StdPeriph_Driver/src/stm32f4xx_spi.c **** }
 2248              		.loc 1 952 0
 2249 0030 1846     		mov	r0, r3
 2250 0032 0837     		adds	r7, r7, #8
 2251 0034 BD46     		mov	sp, r7
 2252              		@ sp needed
 2253 0036 80BD     		pop	{r7, pc}
 2254              	.L134:
 2255              		.align	2
 2256              	.L133:
 2257 0038 00300140 		.word	1073819648
 2258 003c 00380040 		.word	1073756160
 2259 0040 003C0040 		.word	1073757184
 2260 0044 00000000 		.word	.LC0
 2261              		.cfi_endproc
 2262              	.LFE128:
 2264              		.section	.text.SPI_I2S_DMACmd,"ax",%progbits
 2265              		.align	2
 2266              		.global	SPI_I2S_DMACmd
 2267              		.thumb
 2268              		.thumb_func
 2270              	SPI_I2S_DMACmd:
 2271              	.LFB129:
 953:App/STM32F4-Discovery/Libraries/STM32F4xx_StdPeriph_Driver/src/stm32f4xx_spi.c **** 
 954:App/STM32F4-Discovery/Libraries/STM32F4xx_StdPeriph_Driver/src/stm32f4xx_spi.c **** /**
 955:App/STM32F4-Discovery/Libraries/STM32F4xx_StdPeriph_Driver/src/stm32f4xx_spi.c ****   * @}
 956:App/STM32F4-Discovery/Libraries/STM32F4xx_StdPeriph_Driver/src/stm32f4xx_spi.c ****   */
 957:App/STM32F4-Discovery/Libraries/STM32F4xx_StdPeriph_Driver/src/stm32f4xx_spi.c **** 
 958:App/STM32F4-Discovery/Libraries/STM32F4xx_StdPeriph_Driver/src/stm32f4xx_spi.c **** /** @defgroup SPI_Group4 DMA transfers management functions
 959:App/STM32F4-Discovery/Libraries/STM32F4xx_StdPeriph_Driver/src/stm32f4xx_spi.c ****  *  @brief   DMA transfers management functions
 960:App/STM32F4-Discovery/Libraries/STM32F4xx_StdPeriph_Driver/src/stm32f4xx_spi.c ****   *
 961:App/STM32F4-Discovery/Libraries/STM32F4xx_StdPeriph_Driver/src/stm32f4xx_spi.c **** @verbatim   
 962:App/STM32F4-Discovery/Libraries/STM32F4xx_StdPeriph_Driver/src/stm32f4xx_spi.c ****  ===============================================================================
 963:App/STM32F4-Discovery/Libraries/STM32F4xx_StdPeriph_Driver/src/stm32f4xx_spi.c ****                          DMA transfers management functions
 964:App/STM32F4-Discovery/Libraries/STM32F4xx_StdPeriph_Driver/src/stm32f4xx_spi.c ****  ===============================================================================  
 965:App/STM32F4-Discovery/Libraries/STM32F4xx_StdPeriph_Driver/src/stm32f4xx_spi.c **** 
 966:App/STM32F4-Discovery/Libraries/STM32F4xx_StdPeriph_Driver/src/stm32f4xx_spi.c **** @endverbatim
 967:App/STM32F4-Discovery/Libraries/STM32F4xx_StdPeriph_Driver/src/stm32f4xx_spi.c ****   * @{
 968:App/STM32F4-Discovery/Libraries/STM32F4xx_StdPeriph_Driver/src/stm32f4xx_spi.c ****   */
 969:App/STM32F4-Discovery/Libraries/STM32F4xx_StdPeriph_Driver/src/stm32f4xx_spi.c **** 
 970:App/STM32F4-Discovery/Libraries/STM32F4xx_StdPeriph_Driver/src/stm32f4xx_spi.c **** /**
 971:App/STM32F4-Discovery/Libraries/STM32F4xx_StdPeriph_Driver/src/stm32f4xx_spi.c ****   * @brief  Enables or disables the SPIx/I2Sx DMA interface.
 972:App/STM32F4-Discovery/Libraries/STM32F4xx_StdPeriph_Driver/src/stm32f4xx_spi.c ****   * @param  SPIx: To select the SPIx/I2Sx peripheral, where x can be: 1, 2 or 3 
 973:App/STM32F4-Discovery/Libraries/STM32F4xx_StdPeriph_Driver/src/stm32f4xx_spi.c ****   *         in SPI mode or 2 or 3 in I2S mode or I2Sxext for I2S full duplex mode. 
 974:App/STM32F4-Discovery/Libraries/STM32F4xx_StdPeriph_Driver/src/stm32f4xx_spi.c ****   * @param  SPI_I2S_DMAReq: specifies the SPI DMA transfer request to be enabled or disabled. 
 975:App/STM32F4-Discovery/Libraries/STM32F4xx_StdPeriph_Driver/src/stm32f4xx_spi.c ****   *          This parameter can be any combination of the following values:
 976:App/STM32F4-Discovery/Libraries/STM32F4xx_StdPeriph_Driver/src/stm32f4xx_spi.c ****   *            @arg SPI_I2S_DMAReq_Tx: Tx buffer DMA transfer request
 977:App/STM32F4-Discovery/Libraries/STM32F4xx_StdPeriph_Driver/src/stm32f4xx_spi.c ****   *            @arg SPI_I2S_DMAReq_Rx: Rx buffer DMA transfer request
 978:App/STM32F4-Discovery/Libraries/STM32F4xx_StdPeriph_Driver/src/stm32f4xx_spi.c ****   * @param  NewState: new state of the selected SPI DMA transfer request.
 979:App/STM32F4-Discovery/Libraries/STM32F4xx_StdPeriph_Driver/src/stm32f4xx_spi.c ****   *          This parameter can be: ENABLE or DISABLE.
 980:App/STM32F4-Discovery/Libraries/STM32F4xx_StdPeriph_Driver/src/stm32f4xx_spi.c ****   * @retval None
 981:App/STM32F4-Discovery/Libraries/STM32F4xx_StdPeriph_Driver/src/stm32f4xx_spi.c ****   */
 982:App/STM32F4-Discovery/Libraries/STM32F4xx_StdPeriph_Driver/src/stm32f4xx_spi.c **** void SPI_I2S_DMACmd(SPI_TypeDef* SPIx, uint16_t SPI_I2S_DMAReq, FunctionalState NewState)
 983:App/STM32F4-Discovery/Libraries/STM32F4xx_StdPeriph_Driver/src/stm32f4xx_spi.c **** {
 2272              		.loc 1 983 0
 2273              		.cfi_startproc
 2274              		@ args = 0, pretend = 0, frame = 8
 2275              		@ frame_needed = 1, uses_anonymous_args = 0
 2276 0000 80B5     		push	{r7, lr}
 2277              	.LCFI57:
 2278              		.cfi_def_cfa_offset 8
 2279              		.cfi_offset 7, -8
 2280              		.cfi_offset 14, -4
 2281 0002 82B0     		sub	sp, sp, #8
 2282              	.LCFI58:
 2283              		.cfi_def_cfa_offset 16
 2284 0004 00AF     		add	r7, sp, #0
 2285              	.LCFI59:
 2286              		.cfi_def_cfa_register 7
 2287 0006 7860     		str	r0, [r7, #4]
 2288 0008 1346     		mov	r3, r2
 2289 000a 0A46     		mov	r2, r1	@ movhi
 2290 000c 7A80     		strh	r2, [r7, #2]	@ movhi
 2291 000e 7B70     		strb	r3, [r7, #1]
 984:App/STM32F4-Discovery/Libraries/STM32F4xx_StdPeriph_Driver/src/stm32f4xx_spi.c ****   /* Check the parameters */
 985:App/STM32F4-Discovery/Libraries/STM32F4xx_StdPeriph_Driver/src/stm32f4xx_spi.c ****   assert_param(IS_SPI_ALL_PERIPH_EXT(SPIx));
 2292              		.loc 1 985 0
 2293 0010 7A68     		ldr	r2, [r7, #4]
 2294 0012 254B     		ldr	r3, .L142
 2295 0014 9A42     		cmp	r2, r3
 2296 0016 14D0     		beq	.L136
 2297              		.loc 1 985 0 is_stmt 0 discriminator 1
 2298 0018 7A68     		ldr	r2, [r7, #4]
 2299 001a 244B     		ldr	r3, .L142+4
 2300 001c 9A42     		cmp	r2, r3
 2301 001e 10D0     		beq	.L136
 2302 0020 7A68     		ldr	r2, [r7, #4]
 2303 0022 234B     		ldr	r3, .L142+8
 2304 0024 9A42     		cmp	r2, r3
 2305 0026 0CD0     		beq	.L136
 2306 0028 7A68     		ldr	r2, [r7, #4]
 2307 002a 224B     		ldr	r3, .L142+12
 2308 002c 9A42     		cmp	r2, r3
 2309 002e 08D0     		beq	.L136
 2310 0030 7B68     		ldr	r3, [r7, #4]
 2311 0032 B3F1402F 		cmp	r3, #1073758208
 2312 0036 04D0     		beq	.L136
 2313 0038 1F48     		ldr	r0, .L142+16
 2314 003a 40F2D931 		movw	r1, #985
 2315 003e FFF7FEFF 		bl	assert_failed
 2316              	.L136:
 986:App/STM32F4-Discovery/Libraries/STM32F4xx_StdPeriph_Driver/src/stm32f4xx_spi.c ****   assert_param(IS_FUNCTIONAL_STATE(NewState));
 2317              		.loc 1 986 0 is_stmt 1
 2318 0042 7B78     		ldrb	r3, [r7, #1]	@ zero_extendqisi2
 2319 0044 002B     		cmp	r3, #0
 2320 0046 07D0     		beq	.L137
 2321              		.loc 1 986 0 is_stmt 0 discriminator 1
 2322 0048 7B78     		ldrb	r3, [r7, #1]	@ zero_extendqisi2
 2323 004a 012B     		cmp	r3, #1
 2324 004c 04D0     		beq	.L137
 2325 004e 1A48     		ldr	r0, .L142+16
 2326 0050 40F2DA31 		movw	r1, #986
 2327 0054 FFF7FEFF 		bl	assert_failed
 2328              	.L137:
 987:App/STM32F4-Discovery/Libraries/STM32F4xx_StdPeriph_Driver/src/stm32f4xx_spi.c ****   assert_param(IS_SPI_I2S_DMAREQ(SPI_I2S_DMAReq));
 2329              		.loc 1 987 0 is_stmt 1
 2330 0058 7A88     		ldrh	r2, [r7, #2]
 2331 005a 4FF6FC73 		movw	r3, #65532
 2332 005e 1340     		ands	r3, r3, r2
 2333 0060 002B     		cmp	r3, #0
 2334 0062 02D1     		bne	.L138
 2335              		.loc 1 987 0 is_stmt 0 discriminator 2
 2336 0064 7B88     		ldrh	r3, [r7, #2]
 2337 0066 002B     		cmp	r3, #0
 2338 0068 04D1     		bne	.L139
 2339              	.L138:
 2340              		.loc 1 987 0 discriminator 1
 2341 006a 1348     		ldr	r0, .L142+16
 2342 006c 40F2DB31 		movw	r1, #987
 2343 0070 FFF7FEFF 		bl	assert_failed
 2344              	.L139:
 988:App/STM32F4-Discovery/Libraries/STM32F4xx_StdPeriph_Driver/src/stm32f4xx_spi.c **** 
 989:App/STM32F4-Discovery/Libraries/STM32F4xx_StdPeriph_Driver/src/stm32f4xx_spi.c ****   if (NewState != DISABLE)
 2345              		.loc 1 989 0 is_stmt 1
 2346 0074 7B78     		ldrb	r3, [r7, #1]	@ zero_extendqisi2
 2347 0076 002B     		cmp	r3, #0
 2348 0078 08D0     		beq	.L140
 990:App/STM32F4-Discovery/Libraries/STM32F4xx_StdPeriph_Driver/src/stm32f4xx_spi.c ****   {
 991:App/STM32F4-Discovery/Libraries/STM32F4xx_StdPeriph_Driver/src/stm32f4xx_spi.c ****     /* Enable the selected SPI DMA requests */
 992:App/STM32F4-Discovery/Libraries/STM32F4xx_StdPeriph_Driver/src/stm32f4xx_spi.c ****     SPIx->CR2 |= SPI_I2S_DMAReq;
 2349              		.loc 1 992 0
 2350 007a 7B68     		ldr	r3, [r7, #4]
 2351 007c 9B88     		ldrh	r3, [r3, #4]	@ movhi
 2352 007e 9AB2     		uxth	r2, r3
 2353 0080 7B88     		ldrh	r3, [r7, #2]	@ movhi
 2354 0082 1343     		orrs	r3, r3, r2
 2355 0084 9AB2     		uxth	r2, r3
 2356 0086 7B68     		ldr	r3, [r7, #4]
 2357 0088 9A80     		strh	r2, [r3, #4]	@ movhi
 2358 008a 09E0     		b	.L135
 2359              	.L140:
 993:App/STM32F4-Discovery/Libraries/STM32F4xx_StdPeriph_Driver/src/stm32f4xx_spi.c ****   }
 994:App/STM32F4-Discovery/Libraries/STM32F4xx_StdPeriph_Driver/src/stm32f4xx_spi.c ****   else
 995:App/STM32F4-Discovery/Libraries/STM32F4xx_StdPeriph_Driver/src/stm32f4xx_spi.c ****   {
 996:App/STM32F4-Discovery/Libraries/STM32F4xx_StdPeriph_Driver/src/stm32f4xx_spi.c ****     /* Disable the selected SPI DMA requests */
 997:App/STM32F4-Discovery/Libraries/STM32F4xx_StdPeriph_Driver/src/stm32f4xx_spi.c ****     SPIx->CR2 &= (uint16_t)~SPI_I2S_DMAReq;
 2360              		.loc 1 997 0
 2361 008c 7B68     		ldr	r3, [r7, #4]
 2362 008e 9B88     		ldrh	r3, [r3, #4]	@ movhi
 2363 0090 9AB2     		uxth	r2, r3
 2364 0092 7B88     		ldrh	r3, [r7, #2]	@ movhi
 2365 0094 DB43     		mvns	r3, r3
 2366 0096 9BB2     		uxth	r3, r3
 2367 0098 1340     		ands	r3, r3, r2
 2368 009a 9AB2     		uxth	r2, r3
 2369 009c 7B68     		ldr	r3, [r7, #4]
 2370 009e 9A80     		strh	r2, [r3, #4]	@ movhi
 2371              	.L135:
 998:App/STM32F4-Discovery/Libraries/STM32F4xx_StdPeriph_Driver/src/stm32f4xx_spi.c ****   }
 999:App/STM32F4-Discovery/Libraries/STM32F4xx_StdPeriph_Driver/src/stm32f4xx_spi.c **** }
 2372              		.loc 1 999 0
 2373 00a0 0837     		adds	r7, r7, #8
 2374 00a2 BD46     		mov	sp, r7
 2375              		@ sp needed
 2376 00a4 80BD     		pop	{r7, pc}
 2377              	.L143:
 2378 00a6 00BF     		.align	2
 2379              	.L142:
 2380 00a8 00300140 		.word	1073819648
 2381 00ac 00380040 		.word	1073756160
 2382 00b0 003C0040 		.word	1073757184
 2383 00b4 00340040 		.word	1073755136
 2384 00b8 00000000 		.word	.LC0
 2385              		.cfi_endproc
 2386              	.LFE129:
 2388              		.section	.text.SPI_I2S_ITConfig,"ax",%progbits
 2389              		.align	2
 2390              		.global	SPI_I2S_ITConfig
 2391              		.thumb
 2392              		.thumb_func
 2394              	SPI_I2S_ITConfig:
 2395              	.LFB130:
1000:App/STM32F4-Discovery/Libraries/STM32F4xx_StdPeriph_Driver/src/stm32f4xx_spi.c **** 
1001:App/STM32F4-Discovery/Libraries/STM32F4xx_StdPeriph_Driver/src/stm32f4xx_spi.c **** /**
1002:App/STM32F4-Discovery/Libraries/STM32F4xx_StdPeriph_Driver/src/stm32f4xx_spi.c ****   * @}
1003:App/STM32F4-Discovery/Libraries/STM32F4xx_StdPeriph_Driver/src/stm32f4xx_spi.c ****   */
1004:App/STM32F4-Discovery/Libraries/STM32F4xx_StdPeriph_Driver/src/stm32f4xx_spi.c **** 
1005:App/STM32F4-Discovery/Libraries/STM32F4xx_StdPeriph_Driver/src/stm32f4xx_spi.c **** /** @defgroup SPI_Group5 Interrupts and flags management functions
1006:App/STM32F4-Discovery/Libraries/STM32F4xx_StdPeriph_Driver/src/stm32f4xx_spi.c ****  *  @brief   Interrupts and flags management functions
1007:App/STM32F4-Discovery/Libraries/STM32F4xx_StdPeriph_Driver/src/stm32f4xx_spi.c ****   *
1008:App/STM32F4-Discovery/Libraries/STM32F4xx_StdPeriph_Driver/src/stm32f4xx_spi.c **** @verbatim   
1009:App/STM32F4-Discovery/Libraries/STM32F4xx_StdPeriph_Driver/src/stm32f4xx_spi.c ****  ===============================================================================
1010:App/STM32F4-Discovery/Libraries/STM32F4xx_StdPeriph_Driver/src/stm32f4xx_spi.c ****                          Interrupts and flags management functions
1011:App/STM32F4-Discovery/Libraries/STM32F4xx_StdPeriph_Driver/src/stm32f4xx_spi.c ****  ===============================================================================  
1012:App/STM32F4-Discovery/Libraries/STM32F4xx_StdPeriph_Driver/src/stm32f4xx_spi.c **** 
1013:App/STM32F4-Discovery/Libraries/STM32F4xx_StdPeriph_Driver/src/stm32f4xx_spi.c ****   This section provides a set of functions allowing to configure the SPI Interrupts 
1014:App/STM32F4-Discovery/Libraries/STM32F4xx_StdPeriph_Driver/src/stm32f4xx_spi.c ****   sources and check or clear the flags or pending bits status.
1015:App/STM32F4-Discovery/Libraries/STM32F4xx_StdPeriph_Driver/src/stm32f4xx_spi.c ****   The user should identify which mode will be used in his application to manage 
1016:App/STM32F4-Discovery/Libraries/STM32F4xx_StdPeriph_Driver/src/stm32f4xx_spi.c ****   the communication: Polling mode, Interrupt mode or DMA mode. 
1017:App/STM32F4-Discovery/Libraries/STM32F4xx_StdPeriph_Driver/src/stm32f4xx_spi.c ****     
1018:App/STM32F4-Discovery/Libraries/STM32F4xx_StdPeriph_Driver/src/stm32f4xx_spi.c ****   Polling Mode
1019:App/STM32F4-Discovery/Libraries/STM32F4xx_StdPeriph_Driver/src/stm32f4xx_spi.c ****   =============
1020:App/STM32F4-Discovery/Libraries/STM32F4xx_StdPeriph_Driver/src/stm32f4xx_spi.c ****   In Polling Mode, the SPI/I2S communication can be managed by 9 flags:
1021:App/STM32F4-Discovery/Libraries/STM32F4xx_StdPeriph_Driver/src/stm32f4xx_spi.c ****      1. SPI_I2S_FLAG_TXE : to indicate the status of the transmit buffer register
1022:App/STM32F4-Discovery/Libraries/STM32F4xx_StdPeriph_Driver/src/stm32f4xx_spi.c ****      2. SPI_I2S_FLAG_RXNE : to indicate the status of the receive buffer register
1023:App/STM32F4-Discovery/Libraries/STM32F4xx_StdPeriph_Driver/src/stm32f4xx_spi.c ****      3. SPI_I2S_FLAG_BSY : to indicate the state of the communication layer of the SPI.
1024:App/STM32F4-Discovery/Libraries/STM32F4xx_StdPeriph_Driver/src/stm32f4xx_spi.c ****      4. SPI_FLAG_CRCERR : to indicate if a CRC Calculation error occur              
1025:App/STM32F4-Discovery/Libraries/STM32F4xx_StdPeriph_Driver/src/stm32f4xx_spi.c ****      5. SPI_FLAG_MODF : to indicate if a Mode Fault error occur
1026:App/STM32F4-Discovery/Libraries/STM32F4xx_StdPeriph_Driver/src/stm32f4xx_spi.c ****      6. SPI_I2S_FLAG_OVR : to indicate if an Overrun error occur
1027:App/STM32F4-Discovery/Libraries/STM32F4xx_StdPeriph_Driver/src/stm32f4xx_spi.c ****      7. I2S_FLAG_TIFRFE: to indicate a Frame Format error occurs.
1028:App/STM32F4-Discovery/Libraries/STM32F4xx_StdPeriph_Driver/src/stm32f4xx_spi.c ****      8. I2S_FLAG_UDR: to indicate an Underrun error occurs.
1029:App/STM32F4-Discovery/Libraries/STM32F4xx_StdPeriph_Driver/src/stm32f4xx_spi.c ****      9. I2S_FLAG_CHSIDE: to indicate Channel Side.
1030:App/STM32F4-Discovery/Libraries/STM32F4xx_StdPeriph_Driver/src/stm32f4xx_spi.c **** 
1031:App/STM32F4-Discovery/Libraries/STM32F4xx_StdPeriph_Driver/src/stm32f4xx_spi.c **** @note Do not use the BSY flag to handle each data transmission or reception.  It is
1032:App/STM32F4-Discovery/Libraries/STM32F4xx_StdPeriph_Driver/src/stm32f4xx_spi.c ****       better to use the TXE and RXNE flags instead.
1033:App/STM32F4-Discovery/Libraries/STM32F4xx_StdPeriph_Driver/src/stm32f4xx_spi.c **** 
1034:App/STM32F4-Discovery/Libraries/STM32F4xx_StdPeriph_Driver/src/stm32f4xx_spi.c ****   In this Mode it is advised to use the following functions:
1035:App/STM32F4-Discovery/Libraries/STM32F4xx_StdPeriph_Driver/src/stm32f4xx_spi.c ****      - FlagStatus SPI_I2S_GetFlagStatus(SPI_TypeDef* SPIx, uint16_t SPI_I2S_FLAG);
1036:App/STM32F4-Discovery/Libraries/STM32F4xx_StdPeriph_Driver/src/stm32f4xx_spi.c ****      - void SPI_I2S_ClearFlag(SPI_TypeDef* SPIx, uint16_t SPI_I2S_FLAG);
1037:App/STM32F4-Discovery/Libraries/STM32F4xx_StdPeriph_Driver/src/stm32f4xx_spi.c **** 
1038:App/STM32F4-Discovery/Libraries/STM32F4xx_StdPeriph_Driver/src/stm32f4xx_spi.c ****   Interrupt Mode
1039:App/STM32F4-Discovery/Libraries/STM32F4xx_StdPeriph_Driver/src/stm32f4xx_spi.c ****   ===============
1040:App/STM32F4-Discovery/Libraries/STM32F4xx_StdPeriph_Driver/src/stm32f4xx_spi.c ****   In Interrupt Mode, the SPI communication can be managed by 3 interrupt sources
1041:App/STM32F4-Discovery/Libraries/STM32F4xx_StdPeriph_Driver/src/stm32f4xx_spi.c ****   and 7 pending bits: 
1042:App/STM32F4-Discovery/Libraries/STM32F4xx_StdPeriph_Driver/src/stm32f4xx_spi.c ****   Pending Bits:
1043:App/STM32F4-Discovery/Libraries/STM32F4xx_StdPeriph_Driver/src/stm32f4xx_spi.c ****   ------------- 
1044:App/STM32F4-Discovery/Libraries/STM32F4xx_StdPeriph_Driver/src/stm32f4xx_spi.c ****      1. SPI_I2S_IT_TXE : to indicate the status of the transmit buffer register
1045:App/STM32F4-Discovery/Libraries/STM32F4xx_StdPeriph_Driver/src/stm32f4xx_spi.c ****      2. SPI_I2S_IT_RXNE : to indicate the status of the receive buffer register
1046:App/STM32F4-Discovery/Libraries/STM32F4xx_StdPeriph_Driver/src/stm32f4xx_spi.c ****      3. SPI_IT_CRCERR : to indicate if a CRC Calculation error occur (available in SPI mode only)  
1047:App/STM32F4-Discovery/Libraries/STM32F4xx_StdPeriph_Driver/src/stm32f4xx_spi.c ****      4. SPI_IT_MODF : to indicate if a Mode Fault error occur (available in SPI mode only)
1048:App/STM32F4-Discovery/Libraries/STM32F4xx_StdPeriph_Driver/src/stm32f4xx_spi.c ****      5. SPI_I2S_IT_OVR : to indicate if an Overrun error occur
1049:App/STM32F4-Discovery/Libraries/STM32F4xx_StdPeriph_Driver/src/stm32f4xx_spi.c ****      6. I2S_IT_UDR : to indicate an Underrun Error occurs (available in I2S mode only).
1050:App/STM32F4-Discovery/Libraries/STM32F4xx_StdPeriph_Driver/src/stm32f4xx_spi.c ****      7. I2S_FLAG_TIFRFE : to indicate a Frame Format error occurs (available in TI mode only).
1051:App/STM32F4-Discovery/Libraries/STM32F4xx_StdPeriph_Driver/src/stm32f4xx_spi.c **** 
1052:App/STM32F4-Discovery/Libraries/STM32F4xx_StdPeriph_Driver/src/stm32f4xx_spi.c ****   Interrupt Source:
1053:App/STM32F4-Discovery/Libraries/STM32F4xx_StdPeriph_Driver/src/stm32f4xx_spi.c ****   -----------------
1054:App/STM32F4-Discovery/Libraries/STM32F4xx_StdPeriph_Driver/src/stm32f4xx_spi.c ****      1. SPI_I2S_IT_TXE: specifies the interrupt source for the Tx buffer empty 
1055:App/STM32F4-Discovery/Libraries/STM32F4xx_StdPeriph_Driver/src/stm32f4xx_spi.c ****                         interrupt.  
1056:App/STM32F4-Discovery/Libraries/STM32F4xx_StdPeriph_Driver/src/stm32f4xx_spi.c ****      2. SPI_I2S_IT_RXNE : specifies the interrupt source for the Rx buffer not 
1057:App/STM32F4-Discovery/Libraries/STM32F4xx_StdPeriph_Driver/src/stm32f4xx_spi.c ****                           empty interrupt.
1058:App/STM32F4-Discovery/Libraries/STM32F4xx_StdPeriph_Driver/src/stm32f4xx_spi.c ****      3. SPI_I2S_IT_ERR : specifies the interrupt source for the errors interrupt.
1059:App/STM32F4-Discovery/Libraries/STM32F4xx_StdPeriph_Driver/src/stm32f4xx_spi.c **** 
1060:App/STM32F4-Discovery/Libraries/STM32F4xx_StdPeriph_Driver/src/stm32f4xx_spi.c ****   In this Mode it is advised to use the following functions:
1061:App/STM32F4-Discovery/Libraries/STM32F4xx_StdPeriph_Driver/src/stm32f4xx_spi.c ****      - void SPI_I2S_ITConfig(SPI_TypeDef* SPIx, uint8_t SPI_I2S_IT, FunctionalState NewState);
1062:App/STM32F4-Discovery/Libraries/STM32F4xx_StdPeriph_Driver/src/stm32f4xx_spi.c ****      - ITStatus SPI_I2S_GetITStatus(SPI_TypeDef* SPIx, uint8_t SPI_I2S_IT);
1063:App/STM32F4-Discovery/Libraries/STM32F4xx_StdPeriph_Driver/src/stm32f4xx_spi.c ****      - void SPI_I2S_ClearITPendingBit(SPI_TypeDef* SPIx, uint8_t SPI_I2S_IT);
1064:App/STM32F4-Discovery/Libraries/STM32F4xx_StdPeriph_Driver/src/stm32f4xx_spi.c **** 
1065:App/STM32F4-Discovery/Libraries/STM32F4xx_StdPeriph_Driver/src/stm32f4xx_spi.c ****   DMA Mode
1066:App/STM32F4-Discovery/Libraries/STM32F4xx_StdPeriph_Driver/src/stm32f4xx_spi.c ****   ========
1067:App/STM32F4-Discovery/Libraries/STM32F4xx_StdPeriph_Driver/src/stm32f4xx_spi.c ****   In DMA Mode, the SPI communication can be managed by 2 DMA Channel requests:
1068:App/STM32F4-Discovery/Libraries/STM32F4xx_StdPeriph_Driver/src/stm32f4xx_spi.c ****      1. SPI_I2S_DMAReq_Tx: specifies the Tx buffer DMA transfer request
1069:App/STM32F4-Discovery/Libraries/STM32F4xx_StdPeriph_Driver/src/stm32f4xx_spi.c ****      2. SPI_I2S_DMAReq_Rx: specifies the Rx buffer DMA transfer request
1070:App/STM32F4-Discovery/Libraries/STM32F4xx_StdPeriph_Driver/src/stm32f4xx_spi.c **** 
1071:App/STM32F4-Discovery/Libraries/STM32F4xx_StdPeriph_Driver/src/stm32f4xx_spi.c ****   In this Mode it is advised to use the following function:
1072:App/STM32F4-Discovery/Libraries/STM32F4xx_StdPeriph_Driver/src/stm32f4xx_spi.c ****     - void SPI_I2S_DMACmd(SPI_TypeDef* SPIx, uint16_t SPI_I2S_DMAReq, FunctionalState NewState);
1073:App/STM32F4-Discovery/Libraries/STM32F4xx_StdPeriph_Driver/src/stm32f4xx_spi.c **** 
1074:App/STM32F4-Discovery/Libraries/STM32F4xx_StdPeriph_Driver/src/stm32f4xx_spi.c **** @endverbatim
1075:App/STM32F4-Discovery/Libraries/STM32F4xx_StdPeriph_Driver/src/stm32f4xx_spi.c ****   * @{
1076:App/STM32F4-Discovery/Libraries/STM32F4xx_StdPeriph_Driver/src/stm32f4xx_spi.c ****   */
1077:App/STM32F4-Discovery/Libraries/STM32F4xx_StdPeriph_Driver/src/stm32f4xx_spi.c **** 
1078:App/STM32F4-Discovery/Libraries/STM32F4xx_StdPeriph_Driver/src/stm32f4xx_spi.c **** /**
1079:App/STM32F4-Discovery/Libraries/STM32F4xx_StdPeriph_Driver/src/stm32f4xx_spi.c ****   * @brief  Enables or disables the specified SPI/I2S interrupts.
1080:App/STM32F4-Discovery/Libraries/STM32F4xx_StdPeriph_Driver/src/stm32f4xx_spi.c ****   * @param  SPIx: To select the SPIx/I2Sx peripheral, where x can be: 1, 2 or 3 
1081:App/STM32F4-Discovery/Libraries/STM32F4xx_StdPeriph_Driver/src/stm32f4xx_spi.c ****   *         in SPI mode or 2 or 3 in I2S mode or I2Sxext for I2S full duplex mode. 
1082:App/STM32F4-Discovery/Libraries/STM32F4xx_StdPeriph_Driver/src/stm32f4xx_spi.c ****   * @param  SPI_I2S_IT: specifies the SPI interrupt source to be enabled or disabled. 
1083:App/STM32F4-Discovery/Libraries/STM32F4xx_StdPeriph_Driver/src/stm32f4xx_spi.c ****   *          This parameter can be one of the following values:
1084:App/STM32F4-Discovery/Libraries/STM32F4xx_StdPeriph_Driver/src/stm32f4xx_spi.c ****   *            @arg SPI_I2S_IT_TXE: Tx buffer empty interrupt mask
1085:App/STM32F4-Discovery/Libraries/STM32F4xx_StdPeriph_Driver/src/stm32f4xx_spi.c ****   *            @arg SPI_I2S_IT_RXNE: Rx buffer not empty interrupt mask
1086:App/STM32F4-Discovery/Libraries/STM32F4xx_StdPeriph_Driver/src/stm32f4xx_spi.c ****   *            @arg SPI_I2S_IT_ERR: Error interrupt mask
1087:App/STM32F4-Discovery/Libraries/STM32F4xx_StdPeriph_Driver/src/stm32f4xx_spi.c ****   * @param  NewState: new state of the specified SPI interrupt.
1088:App/STM32F4-Discovery/Libraries/STM32F4xx_StdPeriph_Driver/src/stm32f4xx_spi.c ****   *          This parameter can be: ENABLE or DISABLE.
1089:App/STM32F4-Discovery/Libraries/STM32F4xx_StdPeriph_Driver/src/stm32f4xx_spi.c ****   * @retval None
1090:App/STM32F4-Discovery/Libraries/STM32F4xx_StdPeriph_Driver/src/stm32f4xx_spi.c ****   */
1091:App/STM32F4-Discovery/Libraries/STM32F4xx_StdPeriph_Driver/src/stm32f4xx_spi.c **** void SPI_I2S_ITConfig(SPI_TypeDef* SPIx, uint8_t SPI_I2S_IT, FunctionalState NewState)
1092:App/STM32F4-Discovery/Libraries/STM32F4xx_StdPeriph_Driver/src/stm32f4xx_spi.c **** {
 2396              		.loc 1 1092 0
 2397              		.cfi_startproc
 2398              		@ args = 0, pretend = 0, frame = 16
 2399              		@ frame_needed = 1, uses_anonymous_args = 0
 2400 0000 80B5     		push	{r7, lr}
 2401              	.LCFI60:
 2402              		.cfi_def_cfa_offset 8
 2403              		.cfi_offset 7, -8
 2404              		.cfi_offset 14, -4
 2405 0002 84B0     		sub	sp, sp, #16
 2406              	.LCFI61:
 2407              		.cfi_def_cfa_offset 24
 2408 0004 00AF     		add	r7, sp, #0
 2409              	.LCFI62:
 2410              		.cfi_def_cfa_register 7
 2411 0006 7860     		str	r0, [r7, #4]
 2412 0008 1346     		mov	r3, r2
 2413 000a 0A46     		mov	r2, r1
 2414 000c FA70     		strb	r2, [r7, #3]
 2415 000e BB70     		strb	r3, [r7, #2]
1093:App/STM32F4-Discovery/Libraries/STM32F4xx_StdPeriph_Driver/src/stm32f4xx_spi.c ****   uint16_t itpos = 0, itmask = 0 ;
 2416              		.loc 1 1093 0
 2417 0010 0023     		movs	r3, #0
 2418 0012 FB81     		strh	r3, [r7, #14]	@ movhi
 2419 0014 0023     		movs	r3, #0
 2420 0016 BB81     		strh	r3, [r7, #12]	@ movhi
1094:App/STM32F4-Discovery/Libraries/STM32F4xx_StdPeriph_Driver/src/stm32f4xx_spi.c ****   
1095:App/STM32F4-Discovery/Libraries/STM32F4xx_StdPeriph_Driver/src/stm32f4xx_spi.c ****   /* Check the parameters */
1096:App/STM32F4-Discovery/Libraries/STM32F4xx_StdPeriph_Driver/src/stm32f4xx_spi.c ****   assert_param(IS_SPI_ALL_PERIPH_EXT(SPIx));
 2421              		.loc 1 1096 0
 2422 0018 7A68     		ldr	r2, [r7, #4]
 2423 001a 294B     		ldr	r3, .L150
 2424 001c 9A42     		cmp	r2, r3
 2425 001e 14D0     		beq	.L145
 2426              		.loc 1 1096 0 is_stmt 0 discriminator 1
 2427 0020 7A68     		ldr	r2, [r7, #4]
 2428 0022 284B     		ldr	r3, .L150+4
 2429 0024 9A42     		cmp	r2, r3
 2430 0026 10D0     		beq	.L145
 2431 0028 7A68     		ldr	r2, [r7, #4]
 2432 002a 274B     		ldr	r3, .L150+8
 2433 002c 9A42     		cmp	r2, r3
 2434 002e 0CD0     		beq	.L145
 2435 0030 7A68     		ldr	r2, [r7, #4]
 2436 0032 264B     		ldr	r3, .L150+12
 2437 0034 9A42     		cmp	r2, r3
 2438 0036 08D0     		beq	.L145
 2439 0038 7B68     		ldr	r3, [r7, #4]
 2440 003a B3F1402F 		cmp	r3, #1073758208
 2441 003e 04D0     		beq	.L145
 2442 0040 2348     		ldr	r0, .L150+16
 2443 0042 4FF48961 		mov	r1, #1096
 2444 0046 FFF7FEFF 		bl	assert_failed
 2445              	.L145:
1097:App/STM32F4-Discovery/Libraries/STM32F4xx_StdPeriph_Driver/src/stm32f4xx_spi.c ****   assert_param(IS_FUNCTIONAL_STATE(NewState));
 2446              		.loc 1 1097 0 is_stmt 1
 2447 004a BB78     		ldrb	r3, [r7, #2]	@ zero_extendqisi2
 2448 004c 002B     		cmp	r3, #0
 2449 004e 07D0     		beq	.L146
 2450              		.loc 1 1097 0 is_stmt 0 discriminator 1
 2451 0050 BB78     		ldrb	r3, [r7, #2]	@ zero_extendqisi2
 2452 0052 012B     		cmp	r3, #1
 2453 0054 04D0     		beq	.L146
 2454 0056 1E48     		ldr	r0, .L150+16
 2455 0058 40F24941 		movw	r1, #1097
 2456 005c FFF7FEFF 		bl	assert_failed
 2457              	.L146:
1098:App/STM32F4-Discovery/Libraries/STM32F4xx_StdPeriph_Driver/src/stm32f4xx_spi.c ****   assert_param(IS_SPI_I2S_CONFIG_IT(SPI_I2S_IT));
 2458              		.loc 1 1098 0 is_stmt 1
 2459 0060 FB78     		ldrb	r3, [r7, #3]	@ zero_extendqisi2
 2460 0062 712B     		cmp	r3, #113
 2461 0064 0AD0     		beq	.L147
 2462              		.loc 1 1098 0 is_stmt 0 discriminator 1
 2463 0066 FB78     		ldrb	r3, [r7, #3]	@ zero_extendqisi2
 2464 0068 602B     		cmp	r3, #96
 2465 006a 07D0     		beq	.L147
 2466 006c FB78     		ldrb	r3, [r7, #3]	@ zero_extendqisi2
 2467 006e 502B     		cmp	r3, #80
 2468 0070 04D0     		beq	.L147
 2469 0072 1748     		ldr	r0, .L150+16
 2470 0074 40F24A41 		movw	r1, #1098
 2471 0078 FFF7FEFF 		bl	assert_failed
 2472              	.L147:
1099:App/STM32F4-Discovery/Libraries/STM32F4xx_StdPeriph_Driver/src/stm32f4xx_spi.c **** 
1100:App/STM32F4-Discovery/Libraries/STM32F4xx_StdPeriph_Driver/src/stm32f4xx_spi.c ****   /* Get the SPI IT index */
1101:App/STM32F4-Discovery/Libraries/STM32F4xx_StdPeriph_Driver/src/stm32f4xx_spi.c ****   itpos = SPI_I2S_IT >> 4;
 2473              		.loc 1 1101 0 is_stmt 1
 2474 007c FB78     		ldrb	r3, [r7, #3]	@ zero_extendqisi2
 2475 007e 1B09     		lsrs	r3, r3, #4
 2476 0080 DBB2     		uxtb	r3, r3
 2477 0082 FB81     		strh	r3, [r7, #14]	@ movhi
1102:App/STM32F4-Discovery/Libraries/STM32F4xx_StdPeriph_Driver/src/stm32f4xx_spi.c **** 
1103:App/STM32F4-Discovery/Libraries/STM32F4xx_StdPeriph_Driver/src/stm32f4xx_spi.c ****   /* Set the IT mask */
1104:App/STM32F4-Discovery/Libraries/STM32F4xx_StdPeriph_Driver/src/stm32f4xx_spi.c ****   itmask = (uint16_t)1 << (uint16_t)itpos;
 2478              		.loc 1 1104 0
 2479 0084 FB89     		ldrh	r3, [r7, #14]
 2480 0086 0122     		movs	r2, #1
 2481 0088 02FA03F3 		lsl	r3, r2, r3
 2482 008c BB81     		strh	r3, [r7, #12]	@ movhi
1105:App/STM32F4-Discovery/Libraries/STM32F4xx_StdPeriph_Driver/src/stm32f4xx_spi.c **** 
1106:App/STM32F4-Discovery/Libraries/STM32F4xx_StdPeriph_Driver/src/stm32f4xx_spi.c ****   if (NewState != DISABLE)
 2483              		.loc 1 1106 0
 2484 008e BB78     		ldrb	r3, [r7, #2]	@ zero_extendqisi2
 2485 0090 002B     		cmp	r3, #0
 2486 0092 08D0     		beq	.L148
1107:App/STM32F4-Discovery/Libraries/STM32F4xx_StdPeriph_Driver/src/stm32f4xx_spi.c ****   {
1108:App/STM32F4-Discovery/Libraries/STM32F4xx_StdPeriph_Driver/src/stm32f4xx_spi.c ****     /* Enable the selected SPI interrupt */
1109:App/STM32F4-Discovery/Libraries/STM32F4xx_StdPeriph_Driver/src/stm32f4xx_spi.c ****     SPIx->CR2 |= itmask;
 2487              		.loc 1 1109 0
 2488 0094 7B68     		ldr	r3, [r7, #4]
 2489 0096 9B88     		ldrh	r3, [r3, #4]	@ movhi
 2490 0098 9AB2     		uxth	r2, r3
 2491 009a BB89     		ldrh	r3, [r7, #12]	@ movhi
 2492 009c 1343     		orrs	r3, r3, r2
 2493 009e 9AB2     		uxth	r2, r3
 2494 00a0 7B68     		ldr	r3, [r7, #4]
 2495 00a2 9A80     		strh	r2, [r3, #4]	@ movhi
 2496 00a4 09E0     		b	.L144
 2497              	.L148:
1110:App/STM32F4-Discovery/Libraries/STM32F4xx_StdPeriph_Driver/src/stm32f4xx_spi.c ****   }
1111:App/STM32F4-Discovery/Libraries/STM32F4xx_StdPeriph_Driver/src/stm32f4xx_spi.c ****   else
1112:App/STM32F4-Discovery/Libraries/STM32F4xx_StdPeriph_Driver/src/stm32f4xx_spi.c ****   {
1113:App/STM32F4-Discovery/Libraries/STM32F4xx_StdPeriph_Driver/src/stm32f4xx_spi.c ****     /* Disable the selected SPI interrupt */
1114:App/STM32F4-Discovery/Libraries/STM32F4xx_StdPeriph_Driver/src/stm32f4xx_spi.c ****     SPIx->CR2 &= (uint16_t)~itmask;
 2498              		.loc 1 1114 0
 2499 00a6 7B68     		ldr	r3, [r7, #4]
 2500 00a8 9B88     		ldrh	r3, [r3, #4]	@ movhi
 2501 00aa 9AB2     		uxth	r2, r3
 2502 00ac BB89     		ldrh	r3, [r7, #12]	@ movhi
 2503 00ae DB43     		mvns	r3, r3
 2504 00b0 9BB2     		uxth	r3, r3
 2505 00b2 1340     		ands	r3, r3, r2
 2506 00b4 9AB2     		uxth	r2, r3
 2507 00b6 7B68     		ldr	r3, [r7, #4]
 2508 00b8 9A80     		strh	r2, [r3, #4]	@ movhi
 2509              	.L144:
1115:App/STM32F4-Discovery/Libraries/STM32F4xx_StdPeriph_Driver/src/stm32f4xx_spi.c ****   }
1116:App/STM32F4-Discovery/Libraries/STM32F4xx_StdPeriph_Driver/src/stm32f4xx_spi.c **** }
 2510              		.loc 1 1116 0
 2511 00ba 1037     		adds	r7, r7, #16
 2512 00bc BD46     		mov	sp, r7
 2513              		@ sp needed
 2514 00be 80BD     		pop	{r7, pc}
 2515              	.L151:
 2516              		.align	2
 2517              	.L150:
 2518 00c0 00300140 		.word	1073819648
 2519 00c4 00380040 		.word	1073756160
 2520 00c8 003C0040 		.word	1073757184
 2521 00cc 00340040 		.word	1073755136
 2522 00d0 00000000 		.word	.LC0
 2523              		.cfi_endproc
 2524              	.LFE130:
 2526              		.section	.text.SPI_I2S_GetFlagStatus,"ax",%progbits
 2527              		.align	2
 2528              		.global	SPI_I2S_GetFlagStatus
 2529              		.thumb
 2530              		.thumb_func
 2532              	SPI_I2S_GetFlagStatus:
 2533              	.LFB131:
1117:App/STM32F4-Discovery/Libraries/STM32F4xx_StdPeriph_Driver/src/stm32f4xx_spi.c **** 
1118:App/STM32F4-Discovery/Libraries/STM32F4xx_StdPeriph_Driver/src/stm32f4xx_spi.c **** /**
1119:App/STM32F4-Discovery/Libraries/STM32F4xx_StdPeriph_Driver/src/stm32f4xx_spi.c ****   * @brief  Checks whether the specified SPIx/I2Sx flag is set or not.
1120:App/STM32F4-Discovery/Libraries/STM32F4xx_StdPeriph_Driver/src/stm32f4xx_spi.c ****   * @param  SPIx: To select the SPIx/I2Sx peripheral, where x can be: 1, 2 or 3 
1121:App/STM32F4-Discovery/Libraries/STM32F4xx_StdPeriph_Driver/src/stm32f4xx_spi.c ****   *         in SPI mode or 2 or 3 in I2S mode or I2Sxext for I2S full duplex mode. 
1122:App/STM32F4-Discovery/Libraries/STM32F4xx_StdPeriph_Driver/src/stm32f4xx_spi.c ****   * @param  SPI_I2S_FLAG: specifies the SPI flag to check. 
1123:App/STM32F4-Discovery/Libraries/STM32F4xx_StdPeriph_Driver/src/stm32f4xx_spi.c ****   *          This parameter can be one of the following values:
1124:App/STM32F4-Discovery/Libraries/STM32F4xx_StdPeriph_Driver/src/stm32f4xx_spi.c ****   *            @arg SPI_I2S_FLAG_TXE: Transmit buffer empty flag.
1125:App/STM32F4-Discovery/Libraries/STM32F4xx_StdPeriph_Driver/src/stm32f4xx_spi.c ****   *            @arg SPI_I2S_FLAG_RXNE: Receive buffer not empty flag.
1126:App/STM32F4-Discovery/Libraries/STM32F4xx_StdPeriph_Driver/src/stm32f4xx_spi.c ****   *            @arg SPI_I2S_FLAG_BSY: Busy flag.
1127:App/STM32F4-Discovery/Libraries/STM32F4xx_StdPeriph_Driver/src/stm32f4xx_spi.c ****   *            @arg SPI_I2S_FLAG_OVR: Overrun flag.
1128:App/STM32F4-Discovery/Libraries/STM32F4xx_StdPeriph_Driver/src/stm32f4xx_spi.c ****   *            @arg SPI_FLAG_MODF: Mode Fault flag.
1129:App/STM32F4-Discovery/Libraries/STM32F4xx_StdPeriph_Driver/src/stm32f4xx_spi.c ****   *            @arg SPI_FLAG_CRCERR: CRC Error flag.
1130:App/STM32F4-Discovery/Libraries/STM32F4xx_StdPeriph_Driver/src/stm32f4xx_spi.c ****   *            @arg SPI_I2S_FLAG_TIFRFE: Format Error.
1131:App/STM32F4-Discovery/Libraries/STM32F4xx_StdPeriph_Driver/src/stm32f4xx_spi.c ****   *            @arg I2S_FLAG_UDR: Underrun Error flag.
1132:App/STM32F4-Discovery/Libraries/STM32F4xx_StdPeriph_Driver/src/stm32f4xx_spi.c ****   *            @arg I2S_FLAG_CHSIDE: Channel Side flag.  
1133:App/STM32F4-Discovery/Libraries/STM32F4xx_StdPeriph_Driver/src/stm32f4xx_spi.c ****   * @retval The new state of SPI_I2S_FLAG (SET or RESET).
1134:App/STM32F4-Discovery/Libraries/STM32F4xx_StdPeriph_Driver/src/stm32f4xx_spi.c ****   */
1135:App/STM32F4-Discovery/Libraries/STM32F4xx_StdPeriph_Driver/src/stm32f4xx_spi.c **** FlagStatus SPI_I2S_GetFlagStatus(SPI_TypeDef* SPIx, uint16_t SPI_I2S_FLAG)
1136:App/STM32F4-Discovery/Libraries/STM32F4xx_StdPeriph_Driver/src/stm32f4xx_spi.c **** {
 2534              		.loc 1 1136 0
 2535              		.cfi_startproc
 2536              		@ args = 0, pretend = 0, frame = 16
 2537              		@ frame_needed = 1, uses_anonymous_args = 0
 2538 0000 80B5     		push	{r7, lr}
 2539              	.LCFI63:
 2540              		.cfi_def_cfa_offset 8
 2541              		.cfi_offset 7, -8
 2542              		.cfi_offset 14, -4
 2543 0002 84B0     		sub	sp, sp, #16
 2544              	.LCFI64:
 2545              		.cfi_def_cfa_offset 24
 2546 0004 00AF     		add	r7, sp, #0
 2547              	.LCFI65:
 2548              		.cfi_def_cfa_register 7
 2549 0006 7860     		str	r0, [r7, #4]
 2550 0008 0B46     		mov	r3, r1
 2551 000a 7B80     		strh	r3, [r7, #2]	@ movhi
1137:App/STM32F4-Discovery/Libraries/STM32F4xx_StdPeriph_Driver/src/stm32f4xx_spi.c ****   FlagStatus bitstatus = RESET;
 2552              		.loc 1 1137 0
 2553 000c 0023     		movs	r3, #0
 2554 000e FB73     		strb	r3, [r7, #15]
1138:App/STM32F4-Discovery/Libraries/STM32F4xx_StdPeriph_Driver/src/stm32f4xx_spi.c ****   /* Check the parameters */
1139:App/STM32F4-Discovery/Libraries/STM32F4xx_StdPeriph_Driver/src/stm32f4xx_spi.c ****   assert_param(IS_SPI_ALL_PERIPH_EXT(SPIx));
 2555              		.loc 1 1139 0
 2556 0010 7A68     		ldr	r2, [r7, #4]
 2557 0012 254B     		ldr	r3, .L158
 2558 0014 9A42     		cmp	r2, r3
 2559 0016 14D0     		beq	.L153
 2560              		.loc 1 1139 0 is_stmt 0 discriminator 1
 2561 0018 7A68     		ldr	r2, [r7, #4]
 2562 001a 244B     		ldr	r3, .L158+4
 2563 001c 9A42     		cmp	r2, r3
 2564 001e 10D0     		beq	.L153
 2565 0020 7A68     		ldr	r2, [r7, #4]
 2566 0022 234B     		ldr	r3, .L158+8
 2567 0024 9A42     		cmp	r2, r3
 2568 0026 0CD0     		beq	.L153
 2569 0028 7A68     		ldr	r2, [r7, #4]
 2570 002a 224B     		ldr	r3, .L158+12
 2571 002c 9A42     		cmp	r2, r3
 2572 002e 08D0     		beq	.L153
 2573 0030 7B68     		ldr	r3, [r7, #4]
 2574 0032 B3F1402F 		cmp	r3, #1073758208
 2575 0036 04D0     		beq	.L153
 2576 0038 1F48     		ldr	r0, .L158+16
 2577 003a 40F27341 		movw	r1, #1139
 2578 003e FFF7FEFF 		bl	assert_failed
 2579              	.L153:
1140:App/STM32F4-Discovery/Libraries/STM32F4xx_StdPeriph_Driver/src/stm32f4xx_spi.c ****   assert_param(IS_SPI_I2S_GET_FLAG(SPI_I2S_FLAG));
 2580              		.loc 1 1140 0 is_stmt 1
 2581 0042 7B88     		ldrh	r3, [r7, #2]
 2582 0044 802B     		cmp	r3, #128
 2583 0046 1DD0     		beq	.L154
 2584              		.loc 1 1140 0 is_stmt 0 discriminator 1
 2585 0048 7B88     		ldrh	r3, [r7, #2]
 2586 004a 402B     		cmp	r3, #64
 2587 004c 1AD0     		beq	.L154
 2588 004e 7B88     		ldrh	r3, [r7, #2]
 2589 0050 202B     		cmp	r3, #32
 2590 0052 17D0     		beq	.L154
 2591 0054 7B88     		ldrh	r3, [r7, #2]
 2592 0056 102B     		cmp	r3, #16
 2593 0058 14D0     		beq	.L154
 2594 005a 7B88     		ldrh	r3, [r7, #2]
 2595 005c 082B     		cmp	r3, #8
 2596 005e 11D0     		beq	.L154
 2597 0060 7B88     		ldrh	r3, [r7, #2]
 2598 0062 042B     		cmp	r3, #4
 2599 0064 0ED0     		beq	.L154
 2600 0066 7B88     		ldrh	r3, [r7, #2]
 2601 0068 022B     		cmp	r3, #2
 2602 006a 0BD0     		beq	.L154
 2603 006c 7B88     		ldrh	r3, [r7, #2]
 2604 006e 012B     		cmp	r3, #1
 2605 0070 08D0     		beq	.L154
 2606 0072 7B88     		ldrh	r3, [r7, #2]
 2607 0074 B3F5807F 		cmp	r3, #256
 2608 0078 04D0     		beq	.L154
 2609 007a 0F48     		ldr	r0, .L158+16
 2610 007c 40F27441 		movw	r1, #1140
 2611 0080 FFF7FEFF 		bl	assert_failed
 2612              	.L154:
1141:App/STM32F4-Discovery/Libraries/STM32F4xx_StdPeriph_Driver/src/stm32f4xx_spi.c ****   
1142:App/STM32F4-Discovery/Libraries/STM32F4xx_StdPeriph_Driver/src/stm32f4xx_spi.c ****   /* Check the status of the specified SPI flag */
1143:App/STM32F4-Discovery/Libraries/STM32F4xx_StdPeriph_Driver/src/stm32f4xx_spi.c ****   if ((SPIx->SR & SPI_I2S_FLAG) != (uint16_t)RESET)
 2613              		.loc 1 1143 0 is_stmt 1
 2614 0084 7B68     		ldr	r3, [r7, #4]
 2615 0086 1B89     		ldrh	r3, [r3, #8]	@ movhi
 2616 0088 9AB2     		uxth	r2, r3
 2617 008a 7B88     		ldrh	r3, [r7, #2]	@ movhi
 2618 008c 1340     		ands	r3, r3, r2
 2619 008e 9BB2     		uxth	r3, r3
 2620 0090 002B     		cmp	r3, #0
 2621 0092 02D0     		beq	.L155
1144:App/STM32F4-Discovery/Libraries/STM32F4xx_StdPeriph_Driver/src/stm32f4xx_spi.c ****   {
1145:App/STM32F4-Discovery/Libraries/STM32F4xx_StdPeriph_Driver/src/stm32f4xx_spi.c ****     /* SPI_I2S_FLAG is set */
1146:App/STM32F4-Discovery/Libraries/STM32F4xx_StdPeriph_Driver/src/stm32f4xx_spi.c ****     bitstatus = SET;
 2622              		.loc 1 1146 0
 2623 0094 0123     		movs	r3, #1
 2624 0096 FB73     		strb	r3, [r7, #15]
 2625 0098 01E0     		b	.L156
 2626              	.L155:
1147:App/STM32F4-Discovery/Libraries/STM32F4xx_StdPeriph_Driver/src/stm32f4xx_spi.c ****   }
1148:App/STM32F4-Discovery/Libraries/STM32F4xx_StdPeriph_Driver/src/stm32f4xx_spi.c ****   else
1149:App/STM32F4-Discovery/Libraries/STM32F4xx_StdPeriph_Driver/src/stm32f4xx_spi.c ****   {
1150:App/STM32F4-Discovery/Libraries/STM32F4xx_StdPeriph_Driver/src/stm32f4xx_spi.c ****     /* SPI_I2S_FLAG is reset */
1151:App/STM32F4-Discovery/Libraries/STM32F4xx_StdPeriph_Driver/src/stm32f4xx_spi.c ****     bitstatus = RESET;
 2627              		.loc 1 1151 0
 2628 009a 0023     		movs	r3, #0
 2629 009c FB73     		strb	r3, [r7, #15]
 2630              	.L156:
1152:App/STM32F4-Discovery/Libraries/STM32F4xx_StdPeriph_Driver/src/stm32f4xx_spi.c ****   }
1153:App/STM32F4-Discovery/Libraries/STM32F4xx_StdPeriph_Driver/src/stm32f4xx_spi.c ****   /* Return the SPI_I2S_FLAG status */
1154:App/STM32F4-Discovery/Libraries/STM32F4xx_StdPeriph_Driver/src/stm32f4xx_spi.c ****   return  bitstatus;
 2631              		.loc 1 1154 0
 2632 009e FB7B     		ldrb	r3, [r7, #15]	@ zero_extendqisi2
1155:App/STM32F4-Discovery/Libraries/STM32F4xx_StdPeriph_Driver/src/stm32f4xx_spi.c **** }
 2633              		.loc 1 1155 0
 2634 00a0 1846     		mov	r0, r3
 2635 00a2 1037     		adds	r7, r7, #16
 2636 00a4 BD46     		mov	sp, r7
 2637              		@ sp needed
 2638 00a6 80BD     		pop	{r7, pc}
 2639              	.L159:
 2640              		.align	2
 2641              	.L158:
 2642 00a8 00300140 		.word	1073819648
 2643 00ac 00380040 		.word	1073756160
 2644 00b0 003C0040 		.word	1073757184
 2645 00b4 00340040 		.word	1073755136
 2646 00b8 00000000 		.word	.LC0
 2647              		.cfi_endproc
 2648              	.LFE131:
 2650              		.section	.text.SPI_I2S_ClearFlag,"ax",%progbits
 2651              		.align	2
 2652              		.global	SPI_I2S_ClearFlag
 2653              		.thumb
 2654              		.thumb_func
 2656              	SPI_I2S_ClearFlag:
 2657              	.LFB132:
1156:App/STM32F4-Discovery/Libraries/STM32F4xx_StdPeriph_Driver/src/stm32f4xx_spi.c **** 
1157:App/STM32F4-Discovery/Libraries/STM32F4xx_StdPeriph_Driver/src/stm32f4xx_spi.c **** /**
1158:App/STM32F4-Discovery/Libraries/STM32F4xx_StdPeriph_Driver/src/stm32f4xx_spi.c ****   * @brief  Clears the SPIx CRC Error (CRCERR) flag.
1159:App/STM32F4-Discovery/Libraries/STM32F4xx_StdPeriph_Driver/src/stm32f4xx_spi.c ****   * @param  SPIx: To select the SPIx/I2Sx peripheral, where x can be: 1, 2 or 3 
1160:App/STM32F4-Discovery/Libraries/STM32F4xx_StdPeriph_Driver/src/stm32f4xx_spi.c ****   *         in SPI mode or 2 or 3 in I2S mode or I2Sxext for I2S full duplex mode. 
1161:App/STM32F4-Discovery/Libraries/STM32F4xx_StdPeriph_Driver/src/stm32f4xx_spi.c ****   * @param  SPI_I2S_FLAG: specifies the SPI flag to clear. 
1162:App/STM32F4-Discovery/Libraries/STM32F4xx_StdPeriph_Driver/src/stm32f4xx_spi.c ****   *          This function clears only CRCERR flag.
1163:App/STM32F4-Discovery/Libraries/STM32F4xx_StdPeriph_Driver/src/stm32f4xx_spi.c ****   *            @arg SPI_FLAG_CRCERR: CRC Error flag.  
1164:App/STM32F4-Discovery/Libraries/STM32F4xx_StdPeriph_Driver/src/stm32f4xx_spi.c ****   *  
1165:App/STM32F4-Discovery/Libraries/STM32F4xx_StdPeriph_Driver/src/stm32f4xx_spi.c ****   * @note   OVR (OverRun error) flag is cleared by software sequence: a read 
1166:App/STM32F4-Discovery/Libraries/STM32F4xx_StdPeriph_Driver/src/stm32f4xx_spi.c ****   *          operation to SPI_DR register (SPI_I2S_ReceiveData()) followed by a read 
1167:App/STM32F4-Discovery/Libraries/STM32F4xx_StdPeriph_Driver/src/stm32f4xx_spi.c ****   *          operation to SPI_SR register (SPI_I2S_GetFlagStatus()).
1168:App/STM32F4-Discovery/Libraries/STM32F4xx_StdPeriph_Driver/src/stm32f4xx_spi.c ****   * @note   UDR (UnderRun error) flag is cleared by a read operation to 
1169:App/STM32F4-Discovery/Libraries/STM32F4xx_StdPeriph_Driver/src/stm32f4xx_spi.c ****   *          SPI_SR register (SPI_I2S_GetFlagStatus()).   
1170:App/STM32F4-Discovery/Libraries/STM32F4xx_StdPeriph_Driver/src/stm32f4xx_spi.c ****   * @note   MODF (Mode Fault) flag is cleared by software sequence: a read/write 
1171:App/STM32F4-Discovery/Libraries/STM32F4xx_StdPeriph_Driver/src/stm32f4xx_spi.c ****   *          operation to SPI_SR register (SPI_I2S_GetFlagStatus()) followed by a 
1172:App/STM32F4-Discovery/Libraries/STM32F4xx_StdPeriph_Driver/src/stm32f4xx_spi.c ****   *          write operation to SPI_CR1 register (SPI_Cmd() to enable the SPI).
