   1              		.syntax unified
   2              		.cpu cortex-m4
   3              		.eabi_attribute 27, 3
   4              		.fpu fpv4-sp-d16
   5              		.eabi_attribute 20, 1
   6              		.eabi_attribute 21, 1
   7              		.eabi_attribute 23, 3
   8              		.eabi_attribute 24, 1
   9              		.eabi_attribute 25, 1
  10              		.eabi_attribute 26, 1
  11              		.eabi_attribute 30, 6
  12              		.eabi_attribute 34, 1
  13              		.eabi_attribute 18, 4
  14              		.thumb
  15              		.file	"stm32f4xx_rtc.c"
  16              		.text
  17              	.Ltext0:
  18              		.cfi_sections	.debug_frame
  19              		.section	.text.RTC_DeInit,"ax",%progbits
  20              		.align	2
  21              		.global	RTC_DeInit
  22              		.thumb
  23              		.thumb_func
  25              	RTC_DeInit:
  26              	.LFB110:
  27              		.file 1 "App/STM32F4-Discovery/Libraries/STM32F4xx_StdPeriph_Driver/src/stm32f4xx_rtc.c"
   1:App/STM32F4-Discovery/Libraries/STM32F4xx_StdPeriph_Driver/src/stm32f4xx_rtc.c **** /**
   2:App/STM32F4-Discovery/Libraries/STM32F4xx_StdPeriph_Driver/src/stm32f4xx_rtc.c ****   ******************************************************************************
   3:App/STM32F4-Discovery/Libraries/STM32F4xx_StdPeriph_Driver/src/stm32f4xx_rtc.c ****   * @file    stm32f4xx_rtc.c
   4:App/STM32F4-Discovery/Libraries/STM32F4xx_StdPeriph_Driver/src/stm32f4xx_rtc.c ****   * @author  MCD Application Team
   5:App/STM32F4-Discovery/Libraries/STM32F4xx_StdPeriph_Driver/src/stm32f4xx_rtc.c ****   * @version V1.0.0
   6:App/STM32F4-Discovery/Libraries/STM32F4xx_StdPeriph_Driver/src/stm32f4xx_rtc.c ****   * @date    30-September-2011
   7:App/STM32F4-Discovery/Libraries/STM32F4xx_StdPeriph_Driver/src/stm32f4xx_rtc.c ****   * @brief   This file provides firmware functions to manage the following 
   8:App/STM32F4-Discovery/Libraries/STM32F4xx_StdPeriph_Driver/src/stm32f4xx_rtc.c ****   *          functionalities of the Real-Time Clock (RTC) peripheral:
   9:App/STM32F4-Discovery/Libraries/STM32F4xx_StdPeriph_Driver/src/stm32f4xx_rtc.c ****   *           - Initialization
  10:App/STM32F4-Discovery/Libraries/STM32F4xx_StdPeriph_Driver/src/stm32f4xx_rtc.c ****   *           - Calendar (Time and Date) configuration
  11:App/STM32F4-Discovery/Libraries/STM32F4xx_StdPeriph_Driver/src/stm32f4xx_rtc.c ****   *           - Alarms (Alarm A and Alarm B) configuration
  12:App/STM32F4-Discovery/Libraries/STM32F4xx_StdPeriph_Driver/src/stm32f4xx_rtc.c ****   *           - WakeUp Timer configuration
  13:App/STM32F4-Discovery/Libraries/STM32F4xx_StdPeriph_Driver/src/stm32f4xx_rtc.c ****   *           - Daylight Saving configuration
  14:App/STM32F4-Discovery/Libraries/STM32F4xx_StdPeriph_Driver/src/stm32f4xx_rtc.c ****   *           - Output pin Configuration
  15:App/STM32F4-Discovery/Libraries/STM32F4xx_StdPeriph_Driver/src/stm32f4xx_rtc.c ****   *           - Coarse digital Calibration configuration
  16:App/STM32F4-Discovery/Libraries/STM32F4xx_StdPeriph_Driver/src/stm32f4xx_rtc.c ****   *           - Smooth digital Calibration configuration
  17:App/STM32F4-Discovery/Libraries/STM32F4xx_StdPeriph_Driver/src/stm32f4xx_rtc.c ****   *           - TimeStamp configuration
  18:App/STM32F4-Discovery/Libraries/STM32F4xx_StdPeriph_Driver/src/stm32f4xx_rtc.c ****   *           - Tampers configuration
  19:App/STM32F4-Discovery/Libraries/STM32F4xx_StdPeriph_Driver/src/stm32f4xx_rtc.c ****   *           - Backup Data Registers configuration
  20:App/STM32F4-Discovery/Libraries/STM32F4xx_StdPeriph_Driver/src/stm32f4xx_rtc.c ****   *           - Shift control synchronisation    
  21:App/STM32F4-Discovery/Libraries/STM32F4xx_StdPeriph_Driver/src/stm32f4xx_rtc.c ****   *           - RTC Tamper and TimeStamp Pins Selection and Output Type Config configuration
  22:App/STM32F4-Discovery/Libraries/STM32F4xx_StdPeriph_Driver/src/stm32f4xx_rtc.c ****   *           - Interrupts and flags management
  23:App/STM32F4-Discovery/Libraries/STM32F4xx_StdPeriph_Driver/src/stm32f4xx_rtc.c ****   *
  24:App/STM32F4-Discovery/Libraries/STM32F4xx_StdPeriph_Driver/src/stm32f4xx_rtc.c ****   *  @verbatim
  25:App/STM32F4-Discovery/Libraries/STM32F4xx_StdPeriph_Driver/src/stm32f4xx_rtc.c ****   *
  26:App/STM32F4-Discovery/Libraries/STM32F4xx_StdPeriph_Driver/src/stm32f4xx_rtc.c ****   *          ===================================================================
  27:App/STM32F4-Discovery/Libraries/STM32F4xx_StdPeriph_Driver/src/stm32f4xx_rtc.c ****   *                               Backup Domain Operating Condition
  28:App/STM32F4-Discovery/Libraries/STM32F4xx_StdPeriph_Driver/src/stm32f4xx_rtc.c ****   *          ===================================================================
  29:App/STM32F4-Discovery/Libraries/STM32F4xx_StdPeriph_Driver/src/stm32f4xx_rtc.c ****   *          The real-time clock (RTC), the RTC backup registers, and the backup 
  30:App/STM32F4-Discovery/Libraries/STM32F4xx_StdPeriph_Driver/src/stm32f4xx_rtc.c ****   *          SRAM (BKP SRAM) can be powered from the VBAT voltage when the main 
  31:App/STM32F4-Discovery/Libraries/STM32F4xx_StdPeriph_Driver/src/stm32f4xx_rtc.c ****   *          VDD supply is powered off.
  32:App/STM32F4-Discovery/Libraries/STM32F4xx_StdPeriph_Driver/src/stm32f4xx_rtc.c ****   *          To retain the content of the RTC backup registers, backup SRAM, 
  33:App/STM32F4-Discovery/Libraries/STM32F4xx_StdPeriph_Driver/src/stm32f4xx_rtc.c ****   *          and supply the RTC when VDD is turned off, VBAT pin can be connected 
  34:App/STM32F4-Discovery/Libraries/STM32F4xx_StdPeriph_Driver/src/stm32f4xx_rtc.c ****   *          to an optional standby voltage supplied by a battery or by another 
  35:App/STM32F4-Discovery/Libraries/STM32F4xx_StdPeriph_Driver/src/stm32f4xx_rtc.c ****   *          source.
  36:App/STM32F4-Discovery/Libraries/STM32F4xx_StdPeriph_Driver/src/stm32f4xx_rtc.c ****   *
  37:App/STM32F4-Discovery/Libraries/STM32F4xx_StdPeriph_Driver/src/stm32f4xx_rtc.c ****   *          To allow the RTC to operate even when the main digital supply (VDD) 
  38:App/STM32F4-Discovery/Libraries/STM32F4xx_StdPeriph_Driver/src/stm32f4xx_rtc.c ****   *          is turned off, the VBAT pin powers the following blocks:
  39:App/STM32F4-Discovery/Libraries/STM32F4xx_StdPeriph_Driver/src/stm32f4xx_rtc.c ****   *            1 - The RTC
  40:App/STM32F4-Discovery/Libraries/STM32F4xx_StdPeriph_Driver/src/stm32f4xx_rtc.c ****   *            2 - The LSE oscillator
  41:App/STM32F4-Discovery/Libraries/STM32F4xx_StdPeriph_Driver/src/stm32f4xx_rtc.c ****   *            3 - The backup SRAM when the low power backup regulator is enabled
  42:App/STM32F4-Discovery/Libraries/STM32F4xx_StdPeriph_Driver/src/stm32f4xx_rtc.c ****   *            4 - PC13 to PC15 I/Os, plus PI8 I/O (when available)
  43:App/STM32F4-Discovery/Libraries/STM32F4xx_StdPeriph_Driver/src/stm32f4xx_rtc.c ****   *
  44:App/STM32F4-Discovery/Libraries/STM32F4xx_StdPeriph_Driver/src/stm32f4xx_rtc.c ****   *          When the backup domain is supplied by VDD (analog switch connected 
  45:App/STM32F4-Discovery/Libraries/STM32F4xx_StdPeriph_Driver/src/stm32f4xx_rtc.c ****   *          to VDD), the following functions are available:
  46:App/STM32F4-Discovery/Libraries/STM32F4xx_StdPeriph_Driver/src/stm32f4xx_rtc.c ****   *            1 - PC14 and PC15 can be used as either GPIO or LSE pins
  47:App/STM32F4-Discovery/Libraries/STM32F4xx_StdPeriph_Driver/src/stm32f4xx_rtc.c ****   *            2 - PC13 can be used as a GPIO or as the RTC_AF1 pin
  48:App/STM32F4-Discovery/Libraries/STM32F4xx_StdPeriph_Driver/src/stm32f4xx_rtc.c ****   *            3 - PI8 can be used as a GPIO or as the RTC_AF2 pin
  49:App/STM32F4-Discovery/Libraries/STM32F4xx_StdPeriph_Driver/src/stm32f4xx_rtc.c ****   *
  50:App/STM32F4-Discovery/Libraries/STM32F4xx_StdPeriph_Driver/src/stm32f4xx_rtc.c ****   *          When the backup domain is supplied by VBAT (analog switch connected 
  51:App/STM32F4-Discovery/Libraries/STM32F4xx_StdPeriph_Driver/src/stm32f4xx_rtc.c ****   *          to VBAT because VDD is not present), the following functions are available:
  52:App/STM32F4-Discovery/Libraries/STM32F4xx_StdPeriph_Driver/src/stm32f4xx_rtc.c ****   *            1 - PC14 and PC15 can be used as LSE pins only
  53:App/STM32F4-Discovery/Libraries/STM32F4xx_StdPeriph_Driver/src/stm32f4xx_rtc.c ****   *            2 - PC13 can be used as the RTC_AF1 pin 
  54:App/STM32F4-Discovery/Libraries/STM32F4xx_StdPeriph_Driver/src/stm32f4xx_rtc.c ****   *            3 - PI8 can be used as the RTC_AF2 pin
  55:App/STM32F4-Discovery/Libraries/STM32F4xx_StdPeriph_Driver/src/stm32f4xx_rtc.c ****   *
  56:App/STM32F4-Discovery/Libraries/STM32F4xx_StdPeriph_Driver/src/stm32f4xx_rtc.c ****   *          ===================================================================
  57:App/STM32F4-Discovery/Libraries/STM32F4xx_StdPeriph_Driver/src/stm32f4xx_rtc.c ****   *                                    Backup Domain Reset
  58:App/STM32F4-Discovery/Libraries/STM32F4xx_StdPeriph_Driver/src/stm32f4xx_rtc.c ****   *          ===================================================================
  59:App/STM32F4-Discovery/Libraries/STM32F4xx_StdPeriph_Driver/src/stm32f4xx_rtc.c ****   *          The backup domain reset sets all RTC registers and the RCC_BDCR 
  60:App/STM32F4-Discovery/Libraries/STM32F4xx_StdPeriph_Driver/src/stm32f4xx_rtc.c ****   *          register to their reset values. The BKPSRAM is not affected by this
  61:App/STM32F4-Discovery/Libraries/STM32F4xx_StdPeriph_Driver/src/stm32f4xx_rtc.c ****   *          reset. The only way of resetting the BKPSRAM is through the Flash 
  62:App/STM32F4-Discovery/Libraries/STM32F4xx_StdPeriph_Driver/src/stm32f4xx_rtc.c ****   *          interface by requesting a protection level change from 1 to 0.
  63:App/STM32F4-Discovery/Libraries/STM32F4xx_StdPeriph_Driver/src/stm32f4xx_rtc.c ****   *          A backup domain reset is generated when one of the following events
  64:App/STM32F4-Discovery/Libraries/STM32F4xx_StdPeriph_Driver/src/stm32f4xx_rtc.c ****   *          occurs:
  65:App/STM32F4-Discovery/Libraries/STM32F4xx_StdPeriph_Driver/src/stm32f4xx_rtc.c ****   *            1 - Software reset, triggered by setting the BDRST bit in the 
  66:App/STM32F4-Discovery/Libraries/STM32F4xx_StdPeriph_Driver/src/stm32f4xx_rtc.c ****   *                RCC Backup domain control register (RCC_BDCR). You can use the
  67:App/STM32F4-Discovery/Libraries/STM32F4xx_StdPeriph_Driver/src/stm32f4xx_rtc.c ****   *                RCC_BackupResetCmd().
  68:App/STM32F4-Discovery/Libraries/STM32F4xx_StdPeriph_Driver/src/stm32f4xx_rtc.c ****   *            2 - VDD or VBAT power on, if both supplies have previously been
  69:App/STM32F4-Discovery/Libraries/STM32F4xx_StdPeriph_Driver/src/stm32f4xx_rtc.c ****   *                powered off.
  70:App/STM32F4-Discovery/Libraries/STM32F4xx_StdPeriph_Driver/src/stm32f4xx_rtc.c ****   *
  71:App/STM32F4-Discovery/Libraries/STM32F4xx_StdPeriph_Driver/src/stm32f4xx_rtc.c ****   *          ===================================================================
  72:App/STM32F4-Discovery/Libraries/STM32F4xx_StdPeriph_Driver/src/stm32f4xx_rtc.c ****   *                                   Backup Domain Access
  73:App/STM32F4-Discovery/Libraries/STM32F4xx_StdPeriph_Driver/src/stm32f4xx_rtc.c ****   *          ===================================================================
  74:App/STM32F4-Discovery/Libraries/STM32F4xx_StdPeriph_Driver/src/stm32f4xx_rtc.c ****   *          After reset, the backup domain (RTC registers, RTC backup data 
  75:App/STM32F4-Discovery/Libraries/STM32F4xx_StdPeriph_Driver/src/stm32f4xx_rtc.c ****   *          registers and backup SRAM) is protected against possible unwanted 
  76:App/STM32F4-Discovery/Libraries/STM32F4xx_StdPeriph_Driver/src/stm32f4xx_rtc.c ****   *          write accesses. 
  77:App/STM32F4-Discovery/Libraries/STM32F4xx_StdPeriph_Driver/src/stm32f4xx_rtc.c ****   *          To enable access to the RTC Domain and RTC registers, proceed as follows:
  78:App/STM32F4-Discovery/Libraries/STM32F4xx_StdPeriph_Driver/src/stm32f4xx_rtc.c ****   *            - Enable the Power Controller (PWR) APB1 interface clock using the
  79:App/STM32F4-Discovery/Libraries/STM32F4xx_StdPeriph_Driver/src/stm32f4xx_rtc.c ****   *              RCC_APB1PeriphClockCmd() function.
  80:App/STM32F4-Discovery/Libraries/STM32F4xx_StdPeriph_Driver/src/stm32f4xx_rtc.c ****   *            - Enable access to RTC domain using the PWR_BackupAccessCmd() function.
  81:App/STM32F4-Discovery/Libraries/STM32F4xx_StdPeriph_Driver/src/stm32f4xx_rtc.c ****   *            - Select the RTC clock source using the RCC_RTCCLKConfig() function.
  82:App/STM32F4-Discovery/Libraries/STM32F4xx_StdPeriph_Driver/src/stm32f4xx_rtc.c ****   *            - Enable RTC Clock using the RCC_RTCCLKCmd() function.
  83:App/STM32F4-Discovery/Libraries/STM32F4xx_StdPeriph_Driver/src/stm32f4xx_rtc.c ****   *
  84:App/STM32F4-Discovery/Libraries/STM32F4xx_StdPeriph_Driver/src/stm32f4xx_rtc.c ****   *          ===================================================================
  85:App/STM32F4-Discovery/Libraries/STM32F4xx_StdPeriph_Driver/src/stm32f4xx_rtc.c ****   *                                   RTC Driver: how to use it
  86:App/STM32F4-Discovery/Libraries/STM32F4xx_StdPeriph_Driver/src/stm32f4xx_rtc.c ****   *          ===================================================================
  87:App/STM32F4-Discovery/Libraries/STM32F4xx_StdPeriph_Driver/src/stm32f4xx_rtc.c ****   *            - Enable the RTC domain access (see description in the section above)
  88:App/STM32F4-Discovery/Libraries/STM32F4xx_StdPeriph_Driver/src/stm32f4xx_rtc.c ****   *            - Configure the RTC Prescaler (Asynchronous and Synchronous) and
  89:App/STM32F4-Discovery/Libraries/STM32F4xx_StdPeriph_Driver/src/stm32f4xx_rtc.c ****   *              RTC hour format using the RTC_Init() function.
  90:App/STM32F4-Discovery/Libraries/STM32F4xx_StdPeriph_Driver/src/stm32f4xx_rtc.c ****   *
  91:App/STM32F4-Discovery/Libraries/STM32F4xx_StdPeriph_Driver/src/stm32f4xx_rtc.c ****   *          Time and Date configuration
  92:App/STM32F4-Discovery/Libraries/STM32F4xx_StdPeriph_Driver/src/stm32f4xx_rtc.c ****   *          ===========================
  93:App/STM32F4-Discovery/Libraries/STM32F4xx_StdPeriph_Driver/src/stm32f4xx_rtc.c ****   *            - To configure the RTC Calendar (Time and Date) use the RTC_SetTime()
  94:App/STM32F4-Discovery/Libraries/STM32F4xx_StdPeriph_Driver/src/stm32f4xx_rtc.c ****   *              and RTC_SetDate() functions.
  95:App/STM32F4-Discovery/Libraries/STM32F4xx_StdPeriph_Driver/src/stm32f4xx_rtc.c ****   *            - To read the RTC Calendar, use the RTC_GetTime() and RTC_GetDate()
  96:App/STM32F4-Discovery/Libraries/STM32F4xx_StdPeriph_Driver/src/stm32f4xx_rtc.c ****   *              functions.
  97:App/STM32F4-Discovery/Libraries/STM32F4xx_StdPeriph_Driver/src/stm32f4xx_rtc.c ****   *            - Use the RTC_DayLightSavingConfig() function to add or sub one
  98:App/STM32F4-Discovery/Libraries/STM32F4xx_StdPeriph_Driver/src/stm32f4xx_rtc.c ****   *              hour to the RTC Calendar.    
  99:App/STM32F4-Discovery/Libraries/STM32F4xx_StdPeriph_Driver/src/stm32f4xx_rtc.c ****   *
 100:App/STM32F4-Discovery/Libraries/STM32F4xx_StdPeriph_Driver/src/stm32f4xx_rtc.c ****   *          Alarm configuration
 101:App/STM32F4-Discovery/Libraries/STM32F4xx_StdPeriph_Driver/src/stm32f4xx_rtc.c ****   *          ===================
 102:App/STM32F4-Discovery/Libraries/STM32F4xx_StdPeriph_Driver/src/stm32f4xx_rtc.c ****   *            - To configure the RTC Alarm use the RTC_SetAlarm() function.
 103:App/STM32F4-Discovery/Libraries/STM32F4xx_StdPeriph_Driver/src/stm32f4xx_rtc.c ****   *            - Enable the selected RTC Alarm using the RTC_AlarmCmd() function
 104:App/STM32F4-Discovery/Libraries/STM32F4xx_StdPeriph_Driver/src/stm32f4xx_rtc.c ****   *            - To read the RTC Alarm, use the RTC_GetAlarm() function.
 105:App/STM32F4-Discovery/Libraries/STM32F4xx_StdPeriph_Driver/src/stm32f4xx_rtc.c ****   *            - To read the RTC alarm SubSecond, use the RTC_GetAlarmSubSecond() function.
 106:App/STM32F4-Discovery/Libraries/STM32F4xx_StdPeriph_Driver/src/stm32f4xx_rtc.c ****   *
 107:App/STM32F4-Discovery/Libraries/STM32F4xx_StdPeriph_Driver/src/stm32f4xx_rtc.c ****   *          RTC Wakeup configuration
 108:App/STM32F4-Discovery/Libraries/STM32F4xx_StdPeriph_Driver/src/stm32f4xx_rtc.c ****   *          ========================
 109:App/STM32F4-Discovery/Libraries/STM32F4xx_StdPeriph_Driver/src/stm32f4xx_rtc.c ****   *            - Configure the RTC Wakeup Clock source use the RTC_WakeUpClockConfig()
 110:App/STM32F4-Discovery/Libraries/STM32F4xx_StdPeriph_Driver/src/stm32f4xx_rtc.c ****   *              function.
 111:App/STM32F4-Discovery/Libraries/STM32F4xx_StdPeriph_Driver/src/stm32f4xx_rtc.c ****   *            - Configure the RTC WakeUp Counter using the RTC_SetWakeUpCounter() 
 112:App/STM32F4-Discovery/Libraries/STM32F4xx_StdPeriph_Driver/src/stm32f4xx_rtc.c ****   *              function  
 113:App/STM32F4-Discovery/Libraries/STM32F4xx_StdPeriph_Driver/src/stm32f4xx_rtc.c ****   *            - Enable the RTC WakeUp using the RTC_WakeUpCmd() function  
 114:App/STM32F4-Discovery/Libraries/STM32F4xx_StdPeriph_Driver/src/stm32f4xx_rtc.c ****   *            - To read the RTC WakeUp Counter register, use the RTC_GetWakeUpCounter() 
 115:App/STM32F4-Discovery/Libraries/STM32F4xx_StdPeriph_Driver/src/stm32f4xx_rtc.c ****   *              function.
 116:App/STM32F4-Discovery/Libraries/STM32F4xx_StdPeriph_Driver/src/stm32f4xx_rtc.c ****   *
 117:App/STM32F4-Discovery/Libraries/STM32F4xx_StdPeriph_Driver/src/stm32f4xx_rtc.c ****   *          Outputs configuration
 118:App/STM32F4-Discovery/Libraries/STM32F4xx_StdPeriph_Driver/src/stm32f4xx_rtc.c ****   *          =====================
 119:App/STM32F4-Discovery/Libraries/STM32F4xx_StdPeriph_Driver/src/stm32f4xx_rtc.c ****   *          The RTC has 2 different outputs:
 120:App/STM32F4-Discovery/Libraries/STM32F4xx_StdPeriph_Driver/src/stm32f4xx_rtc.c ****   *            - AFO_ALARM: this output is used to manage the RTC Alarm A, Alarm B
 121:App/STM32F4-Discovery/Libraries/STM32F4xx_StdPeriph_Driver/src/stm32f4xx_rtc.c ****   *              and WaKeUp signals.          
 122:App/STM32F4-Discovery/Libraries/STM32F4xx_StdPeriph_Driver/src/stm32f4xx_rtc.c ****   *              To output the selected RTC signal on RTC_AF1 pin, use the 
 123:App/STM32F4-Discovery/Libraries/STM32F4xx_StdPeriph_Driver/src/stm32f4xx_rtc.c ****   *              RTC_OutputConfig() function.                
 124:App/STM32F4-Discovery/Libraries/STM32F4xx_StdPeriph_Driver/src/stm32f4xx_rtc.c ****   *            - AFO_CALIB: this output is 512Hz signal or 1Hz .  
 125:App/STM32F4-Discovery/Libraries/STM32F4xx_StdPeriph_Driver/src/stm32f4xx_rtc.c ****   *              To output the RTC Clock on RTC_AF1 pin, use the RTC_CalibOutputCmd()
 126:App/STM32F4-Discovery/Libraries/STM32F4xx_StdPeriph_Driver/src/stm32f4xx_rtc.c ****   *              function.
 127:App/STM32F4-Discovery/Libraries/STM32F4xx_StdPeriph_Driver/src/stm32f4xx_rtc.c ****   *
 128:App/STM32F4-Discovery/Libraries/STM32F4xx_StdPeriph_Driver/src/stm32f4xx_rtc.c ****   *          Smooth digital Calibration configuration
 129:App/STM32F4-Discovery/Libraries/STM32F4xx_StdPeriph_Driver/src/stm32f4xx_rtc.c ****   *          =================================    
 130:App/STM32F4-Discovery/Libraries/STM32F4xx_StdPeriph_Driver/src/stm32f4xx_rtc.c ****   *            - Configure the RTC Original Digital Calibration Value and the corresponding
 131:App/STM32F4-Discovery/Libraries/STM32F4xx_StdPeriph_Driver/src/stm32f4xx_rtc.c ****   *              calibration cycle period (32s,16s and 8s) using the RTC_SmoothCalibConfig() 
 132:App/STM32F4-Discovery/Libraries/STM32F4xx_StdPeriph_Driver/src/stm32f4xx_rtc.c ****   *              function.
 133:App/STM32F4-Discovery/Libraries/STM32F4xx_StdPeriph_Driver/src/stm32f4xx_rtc.c ****   *
 134:App/STM32F4-Discovery/Libraries/STM32F4xx_StdPeriph_Driver/src/stm32f4xx_rtc.c ****   *          Coarse digital Calibration configuration
 135:App/STM32F4-Discovery/Libraries/STM32F4xx_StdPeriph_Driver/src/stm32f4xx_rtc.c ****   *          =================================
 136:App/STM32F4-Discovery/Libraries/STM32F4xx_StdPeriph_Driver/src/stm32f4xx_rtc.c ****   *            - Configure the RTC Coarse Calibration Value and the corresponding
 137:App/STM32F4-Discovery/Libraries/STM32F4xx_StdPeriph_Driver/src/stm32f4xx_rtc.c ****   *              sign using the RTC_CoarseCalibConfig() function.
 138:App/STM32F4-Discovery/Libraries/STM32F4xx_StdPeriph_Driver/src/stm32f4xx_rtc.c ****   *            - Enable the RTC Coarse Calibration using the RTC_CoarseCalibCmd() 
 139:App/STM32F4-Discovery/Libraries/STM32F4xx_StdPeriph_Driver/src/stm32f4xx_rtc.c ****   *              function  
 140:App/STM32F4-Discovery/Libraries/STM32F4xx_StdPeriph_Driver/src/stm32f4xx_rtc.c ****   *
 141:App/STM32F4-Discovery/Libraries/STM32F4xx_StdPeriph_Driver/src/stm32f4xx_rtc.c ****   *          TimeStamp configuration
 142:App/STM32F4-Discovery/Libraries/STM32F4xx_StdPeriph_Driver/src/stm32f4xx_rtc.c ****   *          =======================
 143:App/STM32F4-Discovery/Libraries/STM32F4xx_StdPeriph_Driver/src/stm32f4xx_rtc.c ****   *            - Configure the RTC_AF1 trigger and enables the RTC TimeStamp 
 144:App/STM32F4-Discovery/Libraries/STM32F4xx_StdPeriph_Driver/src/stm32f4xx_rtc.c ****   *              using the RTC_TimeStampCmd() function.
 145:App/STM32F4-Discovery/Libraries/STM32F4xx_StdPeriph_Driver/src/stm32f4xx_rtc.c ****   *            - To read the RTC TimeStamp Time and Date register, use the 
 146:App/STM32F4-Discovery/Libraries/STM32F4xx_StdPeriph_Driver/src/stm32f4xx_rtc.c ****   *              RTC_GetTimeStamp() function.
 147:App/STM32F4-Discovery/Libraries/STM32F4xx_StdPeriph_Driver/src/stm32f4xx_rtc.c ****   *            - To read the RTC TimeStamp SubSecond register, use the 
 148:App/STM32F4-Discovery/Libraries/STM32F4xx_StdPeriph_Driver/src/stm32f4xx_rtc.c ****   *              RTC_GetTimeStampSubSecond() function.
 149:App/STM32F4-Discovery/Libraries/STM32F4xx_StdPeriph_Driver/src/stm32f4xx_rtc.c ****   *            - The TAMPER1 alternate function can be mapped either to RTC_AF1(PC13)
 150:App/STM32F4-Discovery/Libraries/STM32F4xx_StdPeriph_Driver/src/stm32f4xx_rtc.c ****   *              or RTC_AF2 (PI8) depending on the value of TAMP1INSEL bit in 
 151:App/STM32F4-Discovery/Libraries/STM32F4xx_StdPeriph_Driver/src/stm32f4xx_rtc.c ****   *              RTC_TAFCR register. You can use the  RTC_TamperPinSelection()
 152:App/STM32F4-Discovery/Libraries/STM32F4xx_StdPeriph_Driver/src/stm32f4xx_rtc.c ****   *              function to select the corresponding pin.     
 153:App/STM32F4-Discovery/Libraries/STM32F4xx_StdPeriph_Driver/src/stm32f4xx_rtc.c ****   *
 154:App/STM32F4-Discovery/Libraries/STM32F4xx_StdPeriph_Driver/src/stm32f4xx_rtc.c ****   *          Tamper configuration
 155:App/STM32F4-Discovery/Libraries/STM32F4xx_StdPeriph_Driver/src/stm32f4xx_rtc.c ****   *          ====================
 156:App/STM32F4-Discovery/Libraries/STM32F4xx_StdPeriph_Driver/src/stm32f4xx_rtc.c ****   *            - Enable the RTC Tamper using the RTC_TamperCmd() function.
 157:App/STM32F4-Discovery/Libraries/STM32F4xx_StdPeriph_Driver/src/stm32f4xx_rtc.c ****   *             - Configure the Tamper filter count using RTC_TamperFilterConfig()
 158:App/STM32F4-Discovery/Libraries/STM32F4xx_StdPeriph_Driver/src/stm32f4xx_rtc.c ****   *              function. 
 159:App/STM32F4-Discovery/Libraries/STM32F4xx_StdPeriph_Driver/src/stm32f4xx_rtc.c ****   *            - Configure the RTC Tamper trigger Edge or Level according to the Tamper 
 160:App/STM32F4-Discovery/Libraries/STM32F4xx_StdPeriph_Driver/src/stm32f4xx_rtc.c ****   *              filter (if equal to 0 Edge else Level) value using the RTC_TamperConfig() function
 161:App/STM32F4-Discovery/Libraries/STM32F4xx_StdPeriph_Driver/src/stm32f4xx_rtc.c ****   *            - Configure the Tamper sampling frequency using RTC_TamperSamplingFreqConfig()
 162:App/STM32F4-Discovery/Libraries/STM32F4xx_StdPeriph_Driver/src/stm32f4xx_rtc.c ****   *              function.
 163:App/STM32F4-Discovery/Libraries/STM32F4xx_StdPeriph_Driver/src/stm32f4xx_rtc.c ****   *            - Configure the Tamper precharge or discharge duration using 
 164:App/STM32F4-Discovery/Libraries/STM32F4xx_StdPeriph_Driver/src/stm32f4xx_rtc.c ****   *              RTC_TamperPinsPrechargeDuration() function.
 165:App/STM32F4-Discovery/Libraries/STM32F4xx_StdPeriph_Driver/src/stm32f4xx_rtc.c ****   *            - Enable the Tamper Pull-UP using RTC_TamperPullUpDisableCmd() function.
 166:App/STM32F4-Discovery/Libraries/STM32F4xx_StdPeriph_Driver/src/stm32f4xx_rtc.c ****   *            - Enable the Time stamp on Tamper detection event using  
 167:App/STM32F4-Discovery/Libraries/STM32F4xx_StdPeriph_Driver/src/stm32f4xx_rtc.c ****   *              RTC_TSOnTamperDetecCmd() function.
 168:App/STM32F4-Discovery/Libraries/STM32F4xx_StdPeriph_Driver/src/stm32f4xx_rtc.c ****   *            - The TIMESTAMP alternate function can be mapped to either RTC_AF1 
 169:App/STM32F4-Discovery/Libraries/STM32F4xx_StdPeriph_Driver/src/stm32f4xx_rtc.c ****   *              or RTC_AF2 depending on the value of the TSINSEL bit in the 
 170:App/STM32F4-Discovery/Libraries/STM32F4xx_StdPeriph_Driver/src/stm32f4xx_rtc.c ****   *              RTC_TAFCR register. You can use the  RTC_TimeStampPinSelection()
 171:App/STM32F4-Discovery/Libraries/STM32F4xx_StdPeriph_Driver/src/stm32f4xx_rtc.c ****   *              function to select the corresponding pin. 
 172:App/STM32F4-Discovery/Libraries/STM32F4xx_StdPeriph_Driver/src/stm32f4xx_rtc.c ****   *
 173:App/STM32F4-Discovery/Libraries/STM32F4xx_StdPeriph_Driver/src/stm32f4xx_rtc.c ****   *          Backup Data Registers configuration
 174:App/STM32F4-Discovery/Libraries/STM32F4xx_StdPeriph_Driver/src/stm32f4xx_rtc.c ****   *          ===================================
 175:App/STM32F4-Discovery/Libraries/STM32F4xx_StdPeriph_Driver/src/stm32f4xx_rtc.c ****   *            - To write to the RTC Backup Data registers, use the RTC_WriteBackupRegister()
 176:App/STM32F4-Discovery/Libraries/STM32F4xx_StdPeriph_Driver/src/stm32f4xx_rtc.c ****   *              function.  
 177:App/STM32F4-Discovery/Libraries/STM32F4xx_StdPeriph_Driver/src/stm32f4xx_rtc.c ****   *            - To read the RTC Backup Data registers, use the RTC_ReadBackupRegister()
 178:App/STM32F4-Discovery/Libraries/STM32F4xx_StdPeriph_Driver/src/stm32f4xx_rtc.c ****   *              function.
 179:App/STM32F4-Discovery/Libraries/STM32F4xx_StdPeriph_Driver/src/stm32f4xx_rtc.c ****   * 
 180:App/STM32F4-Discovery/Libraries/STM32F4xx_StdPeriph_Driver/src/stm32f4xx_rtc.c ****   *          ===================================================================
 181:App/STM32F4-Discovery/Libraries/STM32F4xx_StdPeriph_Driver/src/stm32f4xx_rtc.c ****   *                                  RTC and low power modes
 182:App/STM32F4-Discovery/Libraries/STM32F4xx_StdPeriph_Driver/src/stm32f4xx_rtc.c ****   *          ===================================================================
 183:App/STM32F4-Discovery/Libraries/STM32F4xx_StdPeriph_Driver/src/stm32f4xx_rtc.c ****   *           The MCU can be woken up from a low power mode by an RTC alternate 
 184:App/STM32F4-Discovery/Libraries/STM32F4xx_StdPeriph_Driver/src/stm32f4xx_rtc.c ****   *           function.
 185:App/STM32F4-Discovery/Libraries/STM32F4xx_StdPeriph_Driver/src/stm32f4xx_rtc.c ****   *           The RTC alternate functions are the RTC alarms (Alarm A and Alarm B), 
 186:App/STM32F4-Discovery/Libraries/STM32F4xx_StdPeriph_Driver/src/stm32f4xx_rtc.c ****   *           RTC wakeup, RTC tamper event detection and RTC time stamp event detection.
 187:App/STM32F4-Discovery/Libraries/STM32F4xx_StdPeriph_Driver/src/stm32f4xx_rtc.c ****   *           These RTC alternate functions can wake up the system from the Stop 
 188:App/STM32F4-Discovery/Libraries/STM32F4xx_StdPeriph_Driver/src/stm32f4xx_rtc.c ****   *           and Standby lowpower modes.
 189:App/STM32F4-Discovery/Libraries/STM32F4xx_StdPeriph_Driver/src/stm32f4xx_rtc.c ****   *           The system can also wake up from low power modes without depending 
 190:App/STM32F4-Discovery/Libraries/STM32F4xx_StdPeriph_Driver/src/stm32f4xx_rtc.c ****   *           on an external interrupt (Auto-wakeup mode), by using the RTC alarm 
 191:App/STM32F4-Discovery/Libraries/STM32F4xx_StdPeriph_Driver/src/stm32f4xx_rtc.c ****   *           or the RTC wakeup events.
 192:App/STM32F4-Discovery/Libraries/STM32F4xx_StdPeriph_Driver/src/stm32f4xx_rtc.c ****   *           The RTC provides a programmable time base for waking up from the 
 193:App/STM32F4-Discovery/Libraries/STM32F4xx_StdPeriph_Driver/src/stm32f4xx_rtc.c ****   *           Stop or Standby mode at regular intervals.
 194:App/STM32F4-Discovery/Libraries/STM32F4xx_StdPeriph_Driver/src/stm32f4xx_rtc.c ****   *           Wakeup from STOP and Standby modes is possible only when the RTC 
 195:App/STM32F4-Discovery/Libraries/STM32F4xx_StdPeriph_Driver/src/stm32f4xx_rtc.c ****   *           clock source is LSE or LSI.
 196:App/STM32F4-Discovery/Libraries/STM32F4xx_StdPeriph_Driver/src/stm32f4xx_rtc.c ****   *
 197:App/STM32F4-Discovery/Libraries/STM32F4xx_StdPeriph_Driver/src/stm32f4xx_rtc.c ****   *          ===================================================================
 198:App/STM32F4-Discovery/Libraries/STM32F4xx_StdPeriph_Driver/src/stm32f4xx_rtc.c ****   *                            Selection of RTC_AF1 alternate functions
 199:App/STM32F4-Discovery/Libraries/STM32F4xx_StdPeriph_Driver/src/stm32f4xx_rtc.c ****   *          ===================================================================
 200:App/STM32F4-Discovery/Libraries/STM32F4xx_StdPeriph_Driver/src/stm32f4xx_rtc.c ****   *          The RTC_AF1 pin (PC13) can be used for the following purposes:
 201:App/STM32F4-Discovery/Libraries/STM32F4xx_StdPeriph_Driver/src/stm32f4xx_rtc.c ****   *            - AFO_ALARM output
 202:App/STM32F4-Discovery/Libraries/STM32F4xx_StdPeriph_Driver/src/stm32f4xx_rtc.c ****   *            - AFO_CALIB output
 203:App/STM32F4-Discovery/Libraries/STM32F4xx_StdPeriph_Driver/src/stm32f4xx_rtc.c ****   *            - AFI_TAMPER
 204:App/STM32F4-Discovery/Libraries/STM32F4xx_StdPeriph_Driver/src/stm32f4xx_rtc.c ****   *            - AFI_TIMESTAMP
 205:App/STM32F4-Discovery/Libraries/STM32F4xx_StdPeriph_Driver/src/stm32f4xx_rtc.c ****   *
 206:App/STM32F4-Discovery/Libraries/STM32F4xx_StdPeriph_Driver/src/stm32f4xx_rtc.c ****   * +----------------------------------------------------------------------------------------------
 207:App/STM32F4-Discovery/Libraries/STM32F4xx_StdPeriph_Driver/src/stm32f4xx_rtc.c ****   * |     Pin         |AFO_ALARM |AFO_CALIB |AFI_TAMPER |AFI_TIMESTAMP | TAMP1INSEL |   TSINSEL    
 208:App/STM32F4-Discovery/Libraries/STM32F4xx_StdPeriph_Driver/src/stm32f4xx_rtc.c ****   * |  configuration  | ENABLED  | ENABLED  |  ENABLED  |   ENABLED    |TAMPER1 pin |TIMESTAMP pin 
 209:App/STM32F4-Discovery/Libraries/STM32F4xx_StdPeriph_Driver/src/stm32f4xx_rtc.c ****   * |  and function   |          |          |           |              | selection  |  selection   
 210:App/STM32F4-Discovery/Libraries/STM32F4xx_StdPeriph_Driver/src/stm32f4xx_rtc.c ****   * |-----------------|----------|----------|-----------|--------------|------------|--------------
 211:App/STM32F4-Discovery/Libraries/STM32F4xx_StdPeriph_Driver/src/stm32f4xx_rtc.c ****   * |   Alarm out     |          |          |           |              |    Don't   |     Don't    
 212:App/STM32F4-Discovery/Libraries/STM32F4xx_StdPeriph_Driver/src/stm32f4xx_rtc.c ****   * |   output OD     |     1    |Don't care|Don't care | Don't care   |    care    |     care     
 213:App/STM32F4-Discovery/Libraries/STM32F4xx_StdPeriph_Driver/src/stm32f4xx_rtc.c ****   * |-----------------|----------|----------|-----------|--------------|------------|--------------
 214:App/STM32F4-Discovery/Libraries/STM32F4xx_StdPeriph_Driver/src/stm32f4xx_rtc.c ****   * |   Alarm out     |          |          |           |              |    Don't   |     Don't    
 215:App/STM32F4-Discovery/Libraries/STM32F4xx_StdPeriph_Driver/src/stm32f4xx_rtc.c ****   * |   output PP     |     1    |Don't care|Don't care | Don't care   |    care    |     care     
 216:App/STM32F4-Discovery/Libraries/STM32F4xx_StdPeriph_Driver/src/stm32f4xx_rtc.c ****   * |-----------------|----------|----------|-----------|--------------|------------|--------------
 217:App/STM32F4-Discovery/Libraries/STM32F4xx_StdPeriph_Driver/src/stm32f4xx_rtc.c ****   * | Calibration out |          |          |           |              |    Don't   |     Don't    
 218:App/STM32F4-Discovery/Libraries/STM32F4xx_StdPeriph_Driver/src/stm32f4xx_rtc.c ****   * |   output PP     |     0    |    1     |Don't care | Don't care   |    care    |     care     
 219:App/STM32F4-Discovery/Libraries/STM32F4xx_StdPeriph_Driver/src/stm32f4xx_rtc.c ****   * |-----------------|----------|----------|-----------|--------------|------------|--------------
 220:App/STM32F4-Discovery/Libraries/STM32F4xx_StdPeriph_Driver/src/stm32f4xx_rtc.c ****   * |  TAMPER input   |          |          |           |              |            |     Don't    
 221:App/STM32F4-Discovery/Libraries/STM32F4xx_StdPeriph_Driver/src/stm32f4xx_rtc.c ****   * |   floating      |     0    |    0     |     1     |      0       |      0     |     care     
 222:App/STM32F4-Discovery/Libraries/STM32F4xx_StdPeriph_Driver/src/stm32f4xx_rtc.c ****   * |-----------------|----------|----------|-----------|--------------|------------|--------------
 223:App/STM32F4-Discovery/Libraries/STM32F4xx_StdPeriph_Driver/src/stm32f4xx_rtc.c ****   * |  TIMESTAMP and  |          |          |           |              |            |              
 224:App/STM32F4-Discovery/Libraries/STM32F4xx_StdPeriph_Driver/src/stm32f4xx_rtc.c ****   * |  TAMPER input   |     0    |    0     |     1     |      1       |      0     |      0       
 225:App/STM32F4-Discovery/Libraries/STM32F4xx_StdPeriph_Driver/src/stm32f4xx_rtc.c ****   * |   floating      |          |          |           |              |            |              
 226:App/STM32F4-Discovery/Libraries/STM32F4xx_StdPeriph_Driver/src/stm32f4xx_rtc.c ****   * |-----------------|----------|----------|-----------|--------------|------------|--------------
 227:App/STM32F4-Discovery/Libraries/STM32F4xx_StdPeriph_Driver/src/stm32f4xx_rtc.c ****   * | TIMESTAMP input |          |          |           |              |    Don't   |              
 228:App/STM32F4-Discovery/Libraries/STM32F4xx_StdPeriph_Driver/src/stm32f4xx_rtc.c ****   * |    floating     |     0    |    0     |     0     |      1       |    care    |      0       
 229:App/STM32F4-Discovery/Libraries/STM32F4xx_StdPeriph_Driver/src/stm32f4xx_rtc.c ****   * |-----------------|----------|----------|-----------|--------------|------------|--------------
 230:App/STM32F4-Discovery/Libraries/STM32F4xx_StdPeriph_Driver/src/stm32f4xx_rtc.c ****   * |  Standard GPIO  |     0    |    0     |     0     |      0       | Don't care |  Don't care  
 231:App/STM32F4-Discovery/Libraries/STM32F4xx_StdPeriph_Driver/src/stm32f4xx_rtc.c ****   * +----------------------------------------------------------------------------------------------
 232:App/STM32F4-Discovery/Libraries/STM32F4xx_StdPeriph_Driver/src/stm32f4xx_rtc.c ****   *
 233:App/STM32F4-Discovery/Libraries/STM32F4xx_StdPeriph_Driver/src/stm32f4xx_rtc.c ****   *
 234:App/STM32F4-Discovery/Libraries/STM32F4xx_StdPeriph_Driver/src/stm32f4xx_rtc.c ****   *          ===================================================================
 235:App/STM32F4-Discovery/Libraries/STM32F4xx_StdPeriph_Driver/src/stm32f4xx_rtc.c ****   *                            Selection of RTC_AF2 alternate functions
 236:App/STM32F4-Discovery/Libraries/STM32F4xx_StdPeriph_Driver/src/stm32f4xx_rtc.c ****   *          ===================================================================
 237:App/STM32F4-Discovery/Libraries/STM32F4xx_StdPeriph_Driver/src/stm32f4xx_rtc.c ****   *          The RTC_AF2 pin (PI8) can be used for the following purposes:
 238:App/STM32F4-Discovery/Libraries/STM32F4xx_StdPeriph_Driver/src/stm32f4xx_rtc.c ****   *            - AFI_TAMPER
 239:App/STM32F4-Discovery/Libraries/STM32F4xx_StdPeriph_Driver/src/stm32f4xx_rtc.c ****   *            - AFI_TIMESTAMP
 240:App/STM32F4-Discovery/Libraries/STM32F4xx_StdPeriph_Driver/src/stm32f4xx_rtc.c ****   *
 241:App/STM32F4-Discovery/Libraries/STM32F4xx_StdPeriph_Driver/src/stm32f4xx_rtc.c ****   * +---------------------------------------------------------------------------------------+
 242:App/STM32F4-Discovery/Libraries/STM32F4xx_StdPeriph_Driver/src/stm32f4xx_rtc.c ****   * |     Pin         |AFI_TAMPER |AFI_TIMESTAMP | TAMP1INSEL |   TSINSEL    |ALARMOUTTYPE  |
 243:App/STM32F4-Discovery/Libraries/STM32F4xx_StdPeriph_Driver/src/stm32f4xx_rtc.c ****   * |  configuration  |  ENABLED  |   ENABLED    |TAMPER1 pin |TIMESTAMP pin |  AFO_ALARM   |
 244:App/STM32F4-Discovery/Libraries/STM32F4xx_StdPeriph_Driver/src/stm32f4xx_rtc.c ****   * |  and function   |           |              | selection  |  selection   |Configuration |
 245:App/STM32F4-Discovery/Libraries/STM32F4xx_StdPeriph_Driver/src/stm32f4xx_rtc.c ****   * |-----------------|-----------|--------------|------------|--------------|--------------|
 246:App/STM32F4-Discovery/Libraries/STM32F4xx_StdPeriph_Driver/src/stm32f4xx_rtc.c ****   * |  TAMPER input   |           |              |            |     Don't    |              |
 247:App/STM32F4-Discovery/Libraries/STM32F4xx_StdPeriph_Driver/src/stm32f4xx_rtc.c ****   * |   floating      |     1     |      0       |      1     |     care     |  Don't care  |
 248:App/STM32F4-Discovery/Libraries/STM32F4xx_StdPeriph_Driver/src/stm32f4xx_rtc.c ****   * |-----------------|-----------|--------------|------------|--------------|--------------|
 249:App/STM32F4-Discovery/Libraries/STM32F4xx_StdPeriph_Driver/src/stm32f4xx_rtc.c ****   * |  TIMESTAMP and  |           |              |            |              |              |
 250:App/STM32F4-Discovery/Libraries/STM32F4xx_StdPeriph_Driver/src/stm32f4xx_rtc.c ****   * |  TAMPER input   |     1     |      1       |      1     |      1       |  Don't care  |
 251:App/STM32F4-Discovery/Libraries/STM32F4xx_StdPeriph_Driver/src/stm32f4xx_rtc.c ****   * |   floating      |           |              |            |              |              |
 252:App/STM32F4-Discovery/Libraries/STM32F4xx_StdPeriph_Driver/src/stm32f4xx_rtc.c ****   * |-----------------|-----------|--------------|------------|--------------|--------------|
 253:App/STM32F4-Discovery/Libraries/STM32F4xx_StdPeriph_Driver/src/stm32f4xx_rtc.c ****   * | TIMESTAMP input |           |              |    Don't   |              |              |
 254:App/STM32F4-Discovery/Libraries/STM32F4xx_StdPeriph_Driver/src/stm32f4xx_rtc.c ****   * |    floating     |     0     |      1       |    care    |      1       |  Don't care  |
 255:App/STM32F4-Discovery/Libraries/STM32F4xx_StdPeriph_Driver/src/stm32f4xx_rtc.c ****   * |-----------------|-----------|--------------|------------|--------------|--------------|
 256:App/STM32F4-Discovery/Libraries/STM32F4xx_StdPeriph_Driver/src/stm32f4xx_rtc.c ****   * |  Standard GPIO  |     0     |      0       | Don't care |  Don't care  |  Don't care  |
 257:App/STM32F4-Discovery/Libraries/STM32F4xx_StdPeriph_Driver/src/stm32f4xx_rtc.c ****   * +---------------------------------------------------------------------------------------+
 258:App/STM32F4-Discovery/Libraries/STM32F4xx_StdPeriph_Driver/src/stm32f4xx_rtc.c ****   * 
 259:App/STM32F4-Discovery/Libraries/STM32F4xx_StdPeriph_Driver/src/stm32f4xx_rtc.c ****   *
 260:App/STM32F4-Discovery/Libraries/STM32F4xx_StdPeriph_Driver/src/stm32f4xx_rtc.c ****   *  @endverbatim
 261:App/STM32F4-Discovery/Libraries/STM32F4xx_StdPeriph_Driver/src/stm32f4xx_rtc.c ****   *
 262:App/STM32F4-Discovery/Libraries/STM32F4xx_StdPeriph_Driver/src/stm32f4xx_rtc.c ****   ******************************************************************************
 263:App/STM32F4-Discovery/Libraries/STM32F4xx_StdPeriph_Driver/src/stm32f4xx_rtc.c ****   * @attention
 264:App/STM32F4-Discovery/Libraries/STM32F4xx_StdPeriph_Driver/src/stm32f4xx_rtc.c ****   *
 265:App/STM32F4-Discovery/Libraries/STM32F4xx_StdPeriph_Driver/src/stm32f4xx_rtc.c ****   * THE PRESENT FIRMWARE WHICH IS FOR GUIDANCE ONLY AIMS AT PROVIDING CUSTOMERS
 266:App/STM32F4-Discovery/Libraries/STM32F4xx_StdPeriph_Driver/src/stm32f4xx_rtc.c ****   * WITH CODING INFORMATION REGARDING THEIR PRODUCTS IN ORDER FOR THEM TO SAVE
 267:App/STM32F4-Discovery/Libraries/STM32F4xx_StdPeriph_Driver/src/stm32f4xx_rtc.c ****   * TIME. AS A RESULT, STMICROELECTRONICS SHALL NOT BE HELD LIABLE FOR ANY
 268:App/STM32F4-Discovery/Libraries/STM32F4xx_StdPeriph_Driver/src/stm32f4xx_rtc.c ****   * DIRECT, INDIRECT OR CONSEQUENTIAL DAMAGES WITH RESPECT TO ANY CLAIMS ARISING
 269:App/STM32F4-Discovery/Libraries/STM32F4xx_StdPeriph_Driver/src/stm32f4xx_rtc.c ****   * FROM THE CONTENT OF SUCH FIRMWARE AND/OR THE USE MADE BY CUSTOMERS OF THE
 270:App/STM32F4-Discovery/Libraries/STM32F4xx_StdPeriph_Driver/src/stm32f4xx_rtc.c ****   * CODING INFORMATION CONTAINED HEREIN IN CONNECTION WITH THEIR PRODUCTS.
 271:App/STM32F4-Discovery/Libraries/STM32F4xx_StdPeriph_Driver/src/stm32f4xx_rtc.c ****   *
 272:App/STM32F4-Discovery/Libraries/STM32F4xx_StdPeriph_Driver/src/stm32f4xx_rtc.c ****   * <h2><center>&copy; COPYRIGHT 2011 STMicroelectronics</center></h2>
 273:App/STM32F4-Discovery/Libraries/STM32F4xx_StdPeriph_Driver/src/stm32f4xx_rtc.c ****   ******************************************************************************
 274:App/STM32F4-Discovery/Libraries/STM32F4xx_StdPeriph_Driver/src/stm32f4xx_rtc.c ****   */ 
 275:App/STM32F4-Discovery/Libraries/STM32F4xx_StdPeriph_Driver/src/stm32f4xx_rtc.c **** 
 276:App/STM32F4-Discovery/Libraries/STM32F4xx_StdPeriph_Driver/src/stm32f4xx_rtc.c **** /* Includes ------------------------------------------------------------------*/
 277:App/STM32F4-Discovery/Libraries/STM32F4xx_StdPeriph_Driver/src/stm32f4xx_rtc.c **** #include "stm32f4xx_rtc.h"
 278:App/STM32F4-Discovery/Libraries/STM32F4xx_StdPeriph_Driver/src/stm32f4xx_rtc.c **** #include "stm32f4xx_rcc.h"
 279:App/STM32F4-Discovery/Libraries/STM32F4xx_StdPeriph_Driver/src/stm32f4xx_rtc.c **** 
 280:App/STM32F4-Discovery/Libraries/STM32F4xx_StdPeriph_Driver/src/stm32f4xx_rtc.c **** /** @addtogroup STM32F4xx_StdPeriph_Driver
 281:App/STM32F4-Discovery/Libraries/STM32F4xx_StdPeriph_Driver/src/stm32f4xx_rtc.c ****   * @{
 282:App/STM32F4-Discovery/Libraries/STM32F4xx_StdPeriph_Driver/src/stm32f4xx_rtc.c ****   */
 283:App/STM32F4-Discovery/Libraries/STM32F4xx_StdPeriph_Driver/src/stm32f4xx_rtc.c **** 
 284:App/STM32F4-Discovery/Libraries/STM32F4xx_StdPeriph_Driver/src/stm32f4xx_rtc.c **** /** @defgroup RTC 
 285:App/STM32F4-Discovery/Libraries/STM32F4xx_StdPeriph_Driver/src/stm32f4xx_rtc.c ****   * @brief RTC driver modules
 286:App/STM32F4-Discovery/Libraries/STM32F4xx_StdPeriph_Driver/src/stm32f4xx_rtc.c ****   * @{
 287:App/STM32F4-Discovery/Libraries/STM32F4xx_StdPeriph_Driver/src/stm32f4xx_rtc.c ****   */
 288:App/STM32F4-Discovery/Libraries/STM32F4xx_StdPeriph_Driver/src/stm32f4xx_rtc.c **** 
 289:App/STM32F4-Discovery/Libraries/STM32F4xx_StdPeriph_Driver/src/stm32f4xx_rtc.c **** /* Private typedef -----------------------------------------------------------*/
 290:App/STM32F4-Discovery/Libraries/STM32F4xx_StdPeriph_Driver/src/stm32f4xx_rtc.c **** /* Private define ------------------------------------------------------------*/
 291:App/STM32F4-Discovery/Libraries/STM32F4xx_StdPeriph_Driver/src/stm32f4xx_rtc.c **** 
 292:App/STM32F4-Discovery/Libraries/STM32F4xx_StdPeriph_Driver/src/stm32f4xx_rtc.c **** /* Masks Definition */
 293:App/STM32F4-Discovery/Libraries/STM32F4xx_StdPeriph_Driver/src/stm32f4xx_rtc.c **** #define RTC_TR_RESERVED_MASK    ((uint32_t)0x007F7F7F)
 294:App/STM32F4-Discovery/Libraries/STM32F4xx_StdPeriph_Driver/src/stm32f4xx_rtc.c **** #define RTC_DR_RESERVED_MASK    ((uint32_t)0x00FFFF3F) 
 295:App/STM32F4-Discovery/Libraries/STM32F4xx_StdPeriph_Driver/src/stm32f4xx_rtc.c **** #define RTC_INIT_MASK           ((uint32_t)0xFFFFFFFF)  
 296:App/STM32F4-Discovery/Libraries/STM32F4xx_StdPeriph_Driver/src/stm32f4xx_rtc.c **** #define RTC_RSF_MASK            ((uint32_t)0xFFFFFF5F)
 297:App/STM32F4-Discovery/Libraries/STM32F4xx_StdPeriph_Driver/src/stm32f4xx_rtc.c **** #define RTC_FLAGS_MASK          ((uint32_t)(RTC_FLAG_TSOVF | RTC_FLAG_TSF | RTC_FLAG_WUTF | \
 298:App/STM32F4-Discovery/Libraries/STM32F4xx_StdPeriph_Driver/src/stm32f4xx_rtc.c ****                                             RTC_FLAG_ALRBF | RTC_FLAG_ALRAF | RTC_FLAG_INITF | \
 299:App/STM32F4-Discovery/Libraries/STM32F4xx_StdPeriph_Driver/src/stm32f4xx_rtc.c ****                                             RTC_FLAG_RSF | RTC_FLAG_INITS | RTC_FLAG_WUTWF | \
 300:App/STM32F4-Discovery/Libraries/STM32F4xx_StdPeriph_Driver/src/stm32f4xx_rtc.c ****                                             RTC_FLAG_ALRBWF | RTC_FLAG_ALRAWF | RTC_FLAG_TAMP1F ))
 301:App/STM32F4-Discovery/Libraries/STM32F4xx_StdPeriph_Driver/src/stm32f4xx_rtc.c **** 
 302:App/STM32F4-Discovery/Libraries/STM32F4xx_StdPeriph_Driver/src/stm32f4xx_rtc.c **** #define INITMODE_TIMEOUT         ((uint32_t) 0x00010000)
 303:App/STM32F4-Discovery/Libraries/STM32F4xx_StdPeriph_Driver/src/stm32f4xx_rtc.c **** #define SYNCHRO_TIMEOUT          ((uint32_t) 0x00020000)
 304:App/STM32F4-Discovery/Libraries/STM32F4xx_StdPeriph_Driver/src/stm32f4xx_rtc.c **** #define RECALPF_TIMEOUT          ((uint32_t) 0x00020000)
 305:App/STM32F4-Discovery/Libraries/STM32F4xx_StdPeriph_Driver/src/stm32f4xx_rtc.c **** #define SHPF_TIMEOUT             ((uint32_t) 0x00001000)
 306:App/STM32F4-Discovery/Libraries/STM32F4xx_StdPeriph_Driver/src/stm32f4xx_rtc.c **** 
 307:App/STM32F4-Discovery/Libraries/STM32F4xx_StdPeriph_Driver/src/stm32f4xx_rtc.c **** /* Private macro -------------------------------------------------------------*/
 308:App/STM32F4-Discovery/Libraries/STM32F4xx_StdPeriph_Driver/src/stm32f4xx_rtc.c **** /* Private variables ---------------------------------------------------------*/
 309:App/STM32F4-Discovery/Libraries/STM32F4xx_StdPeriph_Driver/src/stm32f4xx_rtc.c **** /* Private function prototypes -----------------------------------------------*/
 310:App/STM32F4-Discovery/Libraries/STM32F4xx_StdPeriph_Driver/src/stm32f4xx_rtc.c **** static uint8_t RTC_ByteToBcd2(uint8_t Value);
 311:App/STM32F4-Discovery/Libraries/STM32F4xx_StdPeriph_Driver/src/stm32f4xx_rtc.c **** static uint8_t RTC_Bcd2ToByte(uint8_t Value);
 312:App/STM32F4-Discovery/Libraries/STM32F4xx_StdPeriph_Driver/src/stm32f4xx_rtc.c **** 
 313:App/STM32F4-Discovery/Libraries/STM32F4xx_StdPeriph_Driver/src/stm32f4xx_rtc.c **** /* Private functions ---------------------------------------------------------*/
 314:App/STM32F4-Discovery/Libraries/STM32F4xx_StdPeriph_Driver/src/stm32f4xx_rtc.c **** 
 315:App/STM32F4-Discovery/Libraries/STM32F4xx_StdPeriph_Driver/src/stm32f4xx_rtc.c **** /** @defgroup RTC_Private_Functions
 316:App/STM32F4-Discovery/Libraries/STM32F4xx_StdPeriph_Driver/src/stm32f4xx_rtc.c ****   * @{
 317:App/STM32F4-Discovery/Libraries/STM32F4xx_StdPeriph_Driver/src/stm32f4xx_rtc.c ****   */ 
 318:App/STM32F4-Discovery/Libraries/STM32F4xx_StdPeriph_Driver/src/stm32f4xx_rtc.c **** 
 319:App/STM32F4-Discovery/Libraries/STM32F4xx_StdPeriph_Driver/src/stm32f4xx_rtc.c **** /** @defgroup RTC_Group1 Initialization and Configuration functions
 320:App/STM32F4-Discovery/Libraries/STM32F4xx_StdPeriph_Driver/src/stm32f4xx_rtc.c ****  *  @brief   Initialization and Configuration functions 
 321:App/STM32F4-Discovery/Libraries/STM32F4xx_StdPeriph_Driver/src/stm32f4xx_rtc.c ****  *
 322:App/STM32F4-Discovery/Libraries/STM32F4xx_StdPeriph_Driver/src/stm32f4xx_rtc.c **** @verbatim   
 323:App/STM32F4-Discovery/Libraries/STM32F4xx_StdPeriph_Driver/src/stm32f4xx_rtc.c ****  ===============================================================================
 324:App/STM32F4-Discovery/Libraries/STM32F4xx_StdPeriph_Driver/src/stm32f4xx_rtc.c ****                  Initialization and Configuration functions
 325:App/STM32F4-Discovery/Libraries/STM32F4xx_StdPeriph_Driver/src/stm32f4xx_rtc.c ****  ===============================================================================
 326:App/STM32F4-Discovery/Libraries/STM32F4xx_StdPeriph_Driver/src/stm32f4xx_rtc.c **** 
 327:App/STM32F4-Discovery/Libraries/STM32F4xx_StdPeriph_Driver/src/stm32f4xx_rtc.c ****   This section provide functions allowing to initialize and configure the RTC
 328:App/STM32F4-Discovery/Libraries/STM32F4xx_StdPeriph_Driver/src/stm32f4xx_rtc.c ****   Prescaler (Synchronous and Asynchronous), RTC Hour format, disable RTC registers
 329:App/STM32F4-Discovery/Libraries/STM32F4xx_StdPeriph_Driver/src/stm32f4xx_rtc.c ****   Write protection, enter and exit the RTC initialization mode, RTC registers
 330:App/STM32F4-Discovery/Libraries/STM32F4xx_StdPeriph_Driver/src/stm32f4xx_rtc.c ****   synchronization check and reference clock detection enable.
 331:App/STM32F4-Discovery/Libraries/STM32F4xx_StdPeriph_Driver/src/stm32f4xx_rtc.c ****   
 332:App/STM32F4-Discovery/Libraries/STM32F4xx_StdPeriph_Driver/src/stm32f4xx_rtc.c ****   1. The RTC Prescaler is programmed to generate the RTC 1Hz time base. It is
 333:App/STM32F4-Discovery/Libraries/STM32F4xx_StdPeriph_Driver/src/stm32f4xx_rtc.c ****      split into 2 programmable prescalers to minimize power consumption.
 334:App/STM32F4-Discovery/Libraries/STM32F4xx_StdPeriph_Driver/src/stm32f4xx_rtc.c ****      - A 7-bit asynchronous prescaler and A 13-bit synchronous prescaler.
 335:App/STM32F4-Discovery/Libraries/STM32F4xx_StdPeriph_Driver/src/stm32f4xx_rtc.c ****      - When both prescalers are used, it is recommended to configure the asynchronous
 336:App/STM32F4-Discovery/Libraries/STM32F4xx_StdPeriph_Driver/src/stm32f4xx_rtc.c ****        prescaler to a high value to minimize consumption.
 337:App/STM32F4-Discovery/Libraries/STM32F4xx_StdPeriph_Driver/src/stm32f4xx_rtc.c **** 
 338:App/STM32F4-Discovery/Libraries/STM32F4xx_StdPeriph_Driver/src/stm32f4xx_rtc.c ****   2. All RTC registers are Write protected. Writing to the RTC registers
 339:App/STM32F4-Discovery/Libraries/STM32F4xx_StdPeriph_Driver/src/stm32f4xx_rtc.c ****      is enabled by writing a key into the Write Protection register, RTC_WPR.
 340:App/STM32F4-Discovery/Libraries/STM32F4xx_StdPeriph_Driver/src/stm32f4xx_rtc.c **** 
 341:App/STM32F4-Discovery/Libraries/STM32F4xx_StdPeriph_Driver/src/stm32f4xx_rtc.c ****   3. To Configure the RTC Calendar, user application should enter initialization
 342:App/STM32F4-Discovery/Libraries/STM32F4xx_StdPeriph_Driver/src/stm32f4xx_rtc.c ****      mode. In this mode, the calendar counter is stopped and its value can be 
 343:App/STM32F4-Discovery/Libraries/STM32F4xx_StdPeriph_Driver/src/stm32f4xx_rtc.c ****      updated. When the initialization sequence is complete, the calendar restarts 
 344:App/STM32F4-Discovery/Libraries/STM32F4xx_StdPeriph_Driver/src/stm32f4xx_rtc.c ****      counting after 4 RTCCLK cycles.
 345:App/STM32F4-Discovery/Libraries/STM32F4xx_StdPeriph_Driver/src/stm32f4xx_rtc.c **** 
 346:App/STM32F4-Discovery/Libraries/STM32F4xx_StdPeriph_Driver/src/stm32f4xx_rtc.c ****   4. To read the calendar through the shadow registers after Calendar initialization,
 347:App/STM32F4-Discovery/Libraries/STM32F4xx_StdPeriph_Driver/src/stm32f4xx_rtc.c ****      calendar update or after wakeup from low power modes the software must first 
 348:App/STM32F4-Discovery/Libraries/STM32F4xx_StdPeriph_Driver/src/stm32f4xx_rtc.c ****      clear the RSF flag. The software must then wait until it is set again before 
 349:App/STM32F4-Discovery/Libraries/STM32F4xx_StdPeriph_Driver/src/stm32f4xx_rtc.c ****      reading the calendar, which means that the calendar registers have been 
 350:App/STM32F4-Discovery/Libraries/STM32F4xx_StdPeriph_Driver/src/stm32f4xx_rtc.c ****      correctly copied into the RTC_TR and RTC_DR shadow registers.
 351:App/STM32F4-Discovery/Libraries/STM32F4xx_StdPeriph_Driver/src/stm32f4xx_rtc.c ****      The RTC_WaitForSynchro() function implements the above software sequence 
 352:App/STM32F4-Discovery/Libraries/STM32F4xx_StdPeriph_Driver/src/stm32f4xx_rtc.c ****      (RSF clear and RSF check).
 353:App/STM32F4-Discovery/Libraries/STM32F4xx_StdPeriph_Driver/src/stm32f4xx_rtc.c **** 
 354:App/STM32F4-Discovery/Libraries/STM32F4xx_StdPeriph_Driver/src/stm32f4xx_rtc.c **** @endverbatim
 355:App/STM32F4-Discovery/Libraries/STM32F4xx_StdPeriph_Driver/src/stm32f4xx_rtc.c ****   * @{
 356:App/STM32F4-Discovery/Libraries/STM32F4xx_StdPeriph_Driver/src/stm32f4xx_rtc.c ****   */
 357:App/STM32F4-Discovery/Libraries/STM32F4xx_StdPeriph_Driver/src/stm32f4xx_rtc.c **** 
 358:App/STM32F4-Discovery/Libraries/STM32F4xx_StdPeriph_Driver/src/stm32f4xx_rtc.c **** /**
 359:App/STM32F4-Discovery/Libraries/STM32F4xx_StdPeriph_Driver/src/stm32f4xx_rtc.c ****   * @brief  Deinitializes the RTC registers to their default reset values.
 360:App/STM32F4-Discovery/Libraries/STM32F4xx_StdPeriph_Driver/src/stm32f4xx_rtc.c ****   * @note   This function doesn't reset the RTC Clock source and RTC Backup Data
 361:App/STM32F4-Discovery/Libraries/STM32F4xx_StdPeriph_Driver/src/stm32f4xx_rtc.c ****   *         registers.       
 362:App/STM32F4-Discovery/Libraries/STM32F4xx_StdPeriph_Driver/src/stm32f4xx_rtc.c ****   * @param  None
 363:App/STM32F4-Discovery/Libraries/STM32F4xx_StdPeriph_Driver/src/stm32f4xx_rtc.c ****   * @retval An ErrorStatus enumeration value:
 364:App/STM32F4-Discovery/Libraries/STM32F4xx_StdPeriph_Driver/src/stm32f4xx_rtc.c ****   *          - SUCCESS: RTC registers are deinitialized
 365:App/STM32F4-Discovery/Libraries/STM32F4xx_StdPeriph_Driver/src/stm32f4xx_rtc.c ****   *          - ERROR: RTC registers are not deinitialized
 366:App/STM32F4-Discovery/Libraries/STM32F4xx_StdPeriph_Driver/src/stm32f4xx_rtc.c ****   */
 367:App/STM32F4-Discovery/Libraries/STM32F4xx_StdPeriph_Driver/src/stm32f4xx_rtc.c **** ErrorStatus RTC_DeInit(void)
 368:App/STM32F4-Discovery/Libraries/STM32F4xx_StdPeriph_Driver/src/stm32f4xx_rtc.c **** {
  28              		.loc 1 368 0
  29              		.cfi_startproc
  30              		@ args = 0, pretend = 0, frame = 16
  31              		@ frame_needed = 1, uses_anonymous_args = 0
  32 0000 80B5     		push	{r7, lr}
  33              	.LCFI0:
  34              		.cfi_def_cfa_offset 8
  35              		.cfi_offset 7, -8
  36              		.cfi_offset 14, -4
  37 0002 84B0     		sub	sp, sp, #16
  38              	.LCFI1:
  39              		.cfi_def_cfa_offset 24
  40 0004 00AF     		add	r7, sp, #0
  41              	.LCFI2:
  42              		.cfi_def_cfa_register 7
 369:App/STM32F4-Discovery/Libraries/STM32F4xx_StdPeriph_Driver/src/stm32f4xx_rtc.c ****   __IO uint32_t wutcounter = 0x00;
  43              		.loc 1 369 0
  44 0006 0023     		movs	r3, #0
  45 0008 7B60     		str	r3, [r7, #4]
 370:App/STM32F4-Discovery/Libraries/STM32F4xx_StdPeriph_Driver/src/stm32f4xx_rtc.c ****   uint32_t wutwfstatus = 0x00;
  46              		.loc 1 370 0
  47 000a 0023     		movs	r3, #0
  48 000c BB60     		str	r3, [r7, #8]
 371:App/STM32F4-Discovery/Libraries/STM32F4xx_StdPeriph_Driver/src/stm32f4xx_rtc.c ****   ErrorStatus status = ERROR;
  49              		.loc 1 371 0
  50 000e 0023     		movs	r3, #0
  51 0010 FB73     		strb	r3, [r7, #15]
 372:App/STM32F4-Discovery/Libraries/STM32F4xx_StdPeriph_Driver/src/stm32f4xx_rtc.c ****   
 373:App/STM32F4-Discovery/Libraries/STM32F4xx_StdPeriph_Driver/src/stm32f4xx_rtc.c ****   /* Disable the write protection for RTC registers */
 374:App/STM32F4-Discovery/Libraries/STM32F4xx_StdPeriph_Driver/src/stm32f4xx_rtc.c ****   RTC->WPR = 0xCA;
  52              		.loc 1 374 0
  53 0012 304B     		ldr	r3, .L9
  54 0014 CA22     		movs	r2, #202
  55 0016 5A62     		str	r2, [r3, #36]
 375:App/STM32F4-Discovery/Libraries/STM32F4xx_StdPeriph_Driver/src/stm32f4xx_rtc.c ****   RTC->WPR = 0x53;
  56              		.loc 1 375 0
  57 0018 2E4B     		ldr	r3, .L9
  58 001a 5322     		movs	r2, #83
  59 001c 5A62     		str	r2, [r3, #36]
 376:App/STM32F4-Discovery/Libraries/STM32F4xx_StdPeriph_Driver/src/stm32f4xx_rtc.c **** 
 377:App/STM32F4-Discovery/Libraries/STM32F4xx_StdPeriph_Driver/src/stm32f4xx_rtc.c ****   /* Set Initialization mode */
 378:App/STM32F4-Discovery/Libraries/STM32F4xx_StdPeriph_Driver/src/stm32f4xx_rtc.c ****   if (RTC_EnterInitMode() == ERROR)
  60              		.loc 1 378 0
  61 001e FFF7FEFF 		bl	RTC_EnterInitMode
  62 0022 0346     		mov	r3, r0
  63 0024 002B     		cmp	r3, #0
  64 0026 02D1     		bne	.L2
 379:App/STM32F4-Discovery/Libraries/STM32F4xx_StdPeriph_Driver/src/stm32f4xx_rtc.c ****   {
 380:App/STM32F4-Discovery/Libraries/STM32F4xx_StdPeriph_Driver/src/stm32f4xx_rtc.c ****     status = ERROR;
  65              		.loc 1 380 0
  66 0028 0023     		movs	r3, #0
  67 002a FB73     		strb	r3, [r7, #15]
  68 002c 49E0     		b	.L3
  69              	.L2:
 381:App/STM32F4-Discovery/Libraries/STM32F4xx_StdPeriph_Driver/src/stm32f4xx_rtc.c ****   }  
 382:App/STM32F4-Discovery/Libraries/STM32F4xx_StdPeriph_Driver/src/stm32f4xx_rtc.c ****   else
 383:App/STM32F4-Discovery/Libraries/STM32F4xx_StdPeriph_Driver/src/stm32f4xx_rtc.c ****   {
 384:App/STM32F4-Discovery/Libraries/STM32F4xx_StdPeriph_Driver/src/stm32f4xx_rtc.c ****     /* Reset TR, DR and CR registers */
 385:App/STM32F4-Discovery/Libraries/STM32F4xx_StdPeriph_Driver/src/stm32f4xx_rtc.c ****     RTC->TR = (uint32_t)0x00000000;
  70              		.loc 1 385 0
  71 002e 294B     		ldr	r3, .L9
  72 0030 0022     		movs	r2, #0
  73 0032 1A60     		str	r2, [r3]
 386:App/STM32F4-Discovery/Libraries/STM32F4xx_StdPeriph_Driver/src/stm32f4xx_rtc.c ****     RTC->DR = (uint32_t)0x00002101;
  74              		.loc 1 386 0
  75 0034 274B     		ldr	r3, .L9
  76 0036 42F20112 		movw	r2, #8449
  77 003a 5A60     		str	r2, [r3, #4]
 387:App/STM32F4-Discovery/Libraries/STM32F4xx_StdPeriph_Driver/src/stm32f4xx_rtc.c ****     /* Reset All CR bits except CR[2:0] */
 388:App/STM32F4-Discovery/Libraries/STM32F4xx_StdPeriph_Driver/src/stm32f4xx_rtc.c ****     RTC->CR &= (uint32_t)0x00000007;
  78              		.loc 1 388 0
  79 003c 254B     		ldr	r3, .L9
  80 003e 254A     		ldr	r2, .L9
  81 0040 9268     		ldr	r2, [r2, #8]
  82 0042 02F00702 		and	r2, r2, #7
  83 0046 9A60     		str	r2, [r3, #8]
  84              	.L5:
 389:App/STM32F4-Discovery/Libraries/STM32F4xx_StdPeriph_Driver/src/stm32f4xx_rtc.c ****   
 390:App/STM32F4-Discovery/Libraries/STM32F4xx_StdPeriph_Driver/src/stm32f4xx_rtc.c ****     /* Wait till RTC WUTWF flag is set and if Time out is reached exit */
 391:App/STM32F4-Discovery/Libraries/STM32F4xx_StdPeriph_Driver/src/stm32f4xx_rtc.c ****     do
 392:App/STM32F4-Discovery/Libraries/STM32F4xx_StdPeriph_Driver/src/stm32f4xx_rtc.c ****     {
 393:App/STM32F4-Discovery/Libraries/STM32F4xx_StdPeriph_Driver/src/stm32f4xx_rtc.c ****       wutwfstatus = RTC->ISR & RTC_ISR_WUTWF;
  85              		.loc 1 393 0 discriminator 1
  86 0048 224B     		ldr	r3, .L9
  87 004a DB68     		ldr	r3, [r3, #12]
  88 004c 03F00403 		and	r3, r3, #4
  89 0050 BB60     		str	r3, [r7, #8]
 394:App/STM32F4-Discovery/Libraries/STM32F4xx_StdPeriph_Driver/src/stm32f4xx_rtc.c ****       wutcounter++;  
  90              		.loc 1 394 0 discriminator 1
  91 0052 7B68     		ldr	r3, [r7, #4]
  92 0054 0133     		adds	r3, r3, #1
  93 0056 7B60     		str	r3, [r7, #4]
 395:App/STM32F4-Discovery/Libraries/STM32F4xx_StdPeriph_Driver/src/stm32f4xx_rtc.c ****     } while((wutcounter != INITMODE_TIMEOUT) && (wutwfstatus == 0x00));
  94              		.loc 1 395 0 discriminator 1
  95 0058 7B68     		ldr	r3, [r7, #4]
  96 005a B3F5803F 		cmp	r3, #65536
  97 005e 02D0     		beq	.L4
  98 0060 BB68     		ldr	r3, [r7, #8]
  99 0062 002B     		cmp	r3, #0
 100 0064 F0D0     		beq	.L5
 101              	.L4:
 396:App/STM32F4-Discovery/Libraries/STM32F4xx_StdPeriph_Driver/src/stm32f4xx_rtc.c ****     
 397:App/STM32F4-Discovery/Libraries/STM32F4xx_StdPeriph_Driver/src/stm32f4xx_rtc.c ****     if ((RTC->ISR & RTC_ISR_WUTWF) == RESET)
 102              		.loc 1 397 0
 103 0066 1B4B     		ldr	r3, .L9
 104 0068 DB68     		ldr	r3, [r3, #12]
 105 006a 03F00403 		and	r3, r3, #4
 106 006e 002B     		cmp	r3, #0
 107 0070 02D1     		bne	.L6
 398:App/STM32F4-Discovery/Libraries/STM32F4xx_StdPeriph_Driver/src/stm32f4xx_rtc.c ****     {
 399:App/STM32F4-Discovery/Libraries/STM32F4xx_StdPeriph_Driver/src/stm32f4xx_rtc.c ****       status = ERROR;
 108              		.loc 1 399 0
 109 0072 0023     		movs	r3, #0
 110 0074 FB73     		strb	r3, [r7, #15]
 111 0076 24E0     		b	.L3
 112              	.L6:
 400:App/STM32F4-Discovery/Libraries/STM32F4xx_StdPeriph_Driver/src/stm32f4xx_rtc.c ****     }
 401:App/STM32F4-Discovery/Libraries/STM32F4xx_StdPeriph_Driver/src/stm32f4xx_rtc.c ****     else
 402:App/STM32F4-Discovery/Libraries/STM32F4xx_StdPeriph_Driver/src/stm32f4xx_rtc.c ****     {
 403:App/STM32F4-Discovery/Libraries/STM32F4xx_StdPeriph_Driver/src/stm32f4xx_rtc.c ****       /* Reset all RTC CR register bits */
 404:App/STM32F4-Discovery/Libraries/STM32F4xx_StdPeriph_Driver/src/stm32f4xx_rtc.c ****       RTC->CR &= (uint32_t)0x00000000;
 113              		.loc 1 404 0
 114 0078 164B     		ldr	r3, .L9
 115 007a 9B68     		ldr	r3, [r3, #8]
 116 007c 154B     		ldr	r3, .L9
 117 007e 0022     		movs	r2, #0
 118 0080 9A60     		str	r2, [r3, #8]
 405:App/STM32F4-Discovery/Libraries/STM32F4xx_StdPeriph_Driver/src/stm32f4xx_rtc.c ****       RTC->WUTR = (uint32_t)0x0000FFFF;
 119              		.loc 1 405 0
 120 0082 144B     		ldr	r3, .L9
 121 0084 4FF6FF72 		movw	r2, #65535
 122 0088 5A61     		str	r2, [r3, #20]
 406:App/STM32F4-Discovery/Libraries/STM32F4xx_StdPeriph_Driver/src/stm32f4xx_rtc.c ****       RTC->PRER = (uint32_t)0x007F00FF;
 123              		.loc 1 406 0
 124 008a 124B     		ldr	r3, .L9
 125 008c 124A     		ldr	r2, .L9+4
 126 008e 1A61     		str	r2, [r3, #16]
 407:App/STM32F4-Discovery/Libraries/STM32F4xx_StdPeriph_Driver/src/stm32f4xx_rtc.c ****       RTC->CALIBR = (uint32_t)0x00000000;
 127              		.loc 1 407 0
 128 0090 104B     		ldr	r3, .L9
 129 0092 0022     		movs	r2, #0
 130 0094 9A61     		str	r2, [r3, #24]
 408:App/STM32F4-Discovery/Libraries/STM32F4xx_StdPeriph_Driver/src/stm32f4xx_rtc.c ****       RTC->ALRMAR = (uint32_t)0x00000000;        
 131              		.loc 1 408 0
 132 0096 0F4B     		ldr	r3, .L9
 133 0098 0022     		movs	r2, #0
 134 009a DA61     		str	r2, [r3, #28]
 409:App/STM32F4-Discovery/Libraries/STM32F4xx_StdPeriph_Driver/src/stm32f4xx_rtc.c ****       RTC->ALRMBR = (uint32_t)0x00000000;
 135              		.loc 1 409 0
 136 009c 0D4B     		ldr	r3, .L9
 137 009e 0022     		movs	r2, #0
 138 00a0 1A62     		str	r2, [r3, #32]
 410:App/STM32F4-Discovery/Libraries/STM32F4xx_StdPeriph_Driver/src/stm32f4xx_rtc.c ****       
 411:App/STM32F4-Discovery/Libraries/STM32F4xx_StdPeriph_Driver/src/stm32f4xx_rtc.c ****       /* Reset ISR register and exit initialization mode */
 412:App/STM32F4-Discovery/Libraries/STM32F4xx_StdPeriph_Driver/src/stm32f4xx_rtc.c ****       RTC->ISR = (uint32_t)0x00000000;
 139              		.loc 1 412 0
 140 00a2 0C4B     		ldr	r3, .L9
 141 00a4 0022     		movs	r2, #0
 142 00a6 DA60     		str	r2, [r3, #12]
 413:App/STM32F4-Discovery/Libraries/STM32F4xx_StdPeriph_Driver/src/stm32f4xx_rtc.c ****       
 414:App/STM32F4-Discovery/Libraries/STM32F4xx_StdPeriph_Driver/src/stm32f4xx_rtc.c ****       /* Reset Tamper and alternate functions configuration register */
 415:App/STM32F4-Discovery/Libraries/STM32F4xx_StdPeriph_Driver/src/stm32f4xx_rtc.c ****       RTC->TAFCR = 0x00000000;
 143              		.loc 1 415 0
 144 00a8 0A4B     		ldr	r3, .L9
 145 00aa 0022     		movs	r2, #0
 146 00ac 1A64     		str	r2, [r3, #64]
 416:App/STM32F4-Discovery/Libraries/STM32F4xx_StdPeriph_Driver/src/stm32f4xx_rtc.c ****   
 417:App/STM32F4-Discovery/Libraries/STM32F4xx_StdPeriph_Driver/src/stm32f4xx_rtc.c ****       if(RTC_WaitForSynchro() == ERROR)
 147              		.loc 1 417 0
 148 00ae FFF7FEFF 		bl	RTC_WaitForSynchro
 149 00b2 0346     		mov	r3, r0
 150 00b4 002B     		cmp	r3, #0
 151 00b6 02D1     		bne	.L7
 418:App/STM32F4-Discovery/Libraries/STM32F4xx_StdPeriph_Driver/src/stm32f4xx_rtc.c ****       {
 419:App/STM32F4-Discovery/Libraries/STM32F4xx_StdPeriph_Driver/src/stm32f4xx_rtc.c ****         status = ERROR;
 152              		.loc 1 419 0
 153 00b8 0023     		movs	r3, #0
 154 00ba FB73     		strb	r3, [r7, #15]
 155 00bc 01E0     		b	.L3
 156              	.L7:
 420:App/STM32F4-Discovery/Libraries/STM32F4xx_StdPeriph_Driver/src/stm32f4xx_rtc.c ****       }
 421:App/STM32F4-Discovery/Libraries/STM32F4xx_StdPeriph_Driver/src/stm32f4xx_rtc.c ****       else
 422:App/STM32F4-Discovery/Libraries/STM32F4xx_StdPeriph_Driver/src/stm32f4xx_rtc.c ****       {
 423:App/STM32F4-Discovery/Libraries/STM32F4xx_StdPeriph_Driver/src/stm32f4xx_rtc.c ****         status = SUCCESS;      
 157              		.loc 1 423 0
 158 00be 0123     		movs	r3, #1
 159 00c0 FB73     		strb	r3, [r7, #15]
 160              	.L3:
 424:App/STM32F4-Discovery/Libraries/STM32F4xx_StdPeriph_Driver/src/stm32f4xx_rtc.c ****       }
 425:App/STM32F4-Discovery/Libraries/STM32F4xx_StdPeriph_Driver/src/stm32f4xx_rtc.c ****     }
 426:App/STM32F4-Discovery/Libraries/STM32F4xx_StdPeriph_Driver/src/stm32f4xx_rtc.c ****   }
 427:App/STM32F4-Discovery/Libraries/STM32F4xx_StdPeriph_Driver/src/stm32f4xx_rtc.c ****   
 428:App/STM32F4-Discovery/Libraries/STM32F4xx_StdPeriph_Driver/src/stm32f4xx_rtc.c ****   /* Enable the write protection for RTC registers */
 429:App/STM32F4-Discovery/Libraries/STM32F4xx_StdPeriph_Driver/src/stm32f4xx_rtc.c ****   RTC->WPR = 0xFF;  
 161              		.loc 1 429 0
 162 00c2 044B     		ldr	r3, .L9
 163 00c4 FF22     		movs	r2, #255
 164 00c6 5A62     		str	r2, [r3, #36]
 430:App/STM32F4-Discovery/Libraries/STM32F4xx_StdPeriph_Driver/src/stm32f4xx_rtc.c ****   
 431:App/STM32F4-Discovery/Libraries/STM32F4xx_StdPeriph_Driver/src/stm32f4xx_rtc.c ****   return status;
 165              		.loc 1 431 0
 166 00c8 FB7B     		ldrb	r3, [r7, #15]	@ zero_extendqisi2
 432:App/STM32F4-Discovery/Libraries/STM32F4xx_StdPeriph_Driver/src/stm32f4xx_rtc.c **** }
 167              		.loc 1 432 0
 168 00ca 1846     		mov	r0, r3
 169 00cc 1037     		adds	r7, r7, #16
 170 00ce BD46     		mov	sp, r7
 171              		@ sp needed
 172 00d0 80BD     		pop	{r7, pc}
 173              	.L10:
 174 00d2 00BF     		.align	2
 175              	.L9:
 176 00d4 00280040 		.word	1073752064
 177 00d8 FF007F00 		.word	8323327
 178              		.cfi_endproc
 179              	.LFE110:
 181              		.section	.rodata
 182              		.align	2
 183              	.LC0:
 184 0000 4170702F 		.ascii	"App/STM32F4-Discovery/Libraries/STM32F4xx_StdPeriph"
 184      53544D33 
 184      3246342D 
 184      44697363 
 184      6F766572 
 185 0033 5F447269 		.ascii	"_Driver/src/stm32f4xx_rtc.c\000"
 185      7665722F 
 185      7372632F 
 185      73746D33 
 185      32663478 
 186 004f 00       		.section	.text.RTC_Init,"ax",%progbits
 187              		.align	2
 188              		.global	RTC_Init
 189              		.thumb
 190              		.thumb_func
 192              	RTC_Init:
 193              	.LFB111:
 433:App/STM32F4-Discovery/Libraries/STM32F4xx_StdPeriph_Driver/src/stm32f4xx_rtc.c **** 
 434:App/STM32F4-Discovery/Libraries/STM32F4xx_StdPeriph_Driver/src/stm32f4xx_rtc.c **** /**
 435:App/STM32F4-Discovery/Libraries/STM32F4xx_StdPeriph_Driver/src/stm32f4xx_rtc.c ****   * @brief  Initializes the RTC registers according to the specified parameters 
 436:App/STM32F4-Discovery/Libraries/STM32F4xx_StdPeriph_Driver/src/stm32f4xx_rtc.c ****   *         in RTC_InitStruct.
 437:App/STM32F4-Discovery/Libraries/STM32F4xx_StdPeriph_Driver/src/stm32f4xx_rtc.c ****   * @param  RTC_InitStruct: pointer to a RTC_InitTypeDef structure that contains 
 438:App/STM32F4-Discovery/Libraries/STM32F4xx_StdPeriph_Driver/src/stm32f4xx_rtc.c ****   *         the configuration information for the RTC peripheral.
 439:App/STM32F4-Discovery/Libraries/STM32F4xx_StdPeriph_Driver/src/stm32f4xx_rtc.c ****   * @note   The RTC Prescaler register is write protected and can be written in 
 440:App/STM32F4-Discovery/Libraries/STM32F4xx_StdPeriph_Driver/src/stm32f4xx_rtc.c ****   *         initialization mode only.  
 441:App/STM32F4-Discovery/Libraries/STM32F4xx_StdPeriph_Driver/src/stm32f4xx_rtc.c ****   * @retval An ErrorStatus enumeration value:
 442:App/STM32F4-Discovery/Libraries/STM32F4xx_StdPeriph_Driver/src/stm32f4xx_rtc.c ****   *          - SUCCESS: RTC registers are initialized
 443:App/STM32F4-Discovery/Libraries/STM32F4xx_StdPeriph_Driver/src/stm32f4xx_rtc.c ****   *          - ERROR: RTC registers are not initialized  
 444:App/STM32F4-Discovery/Libraries/STM32F4xx_StdPeriph_Driver/src/stm32f4xx_rtc.c ****   */
 445:App/STM32F4-Discovery/Libraries/STM32F4xx_StdPeriph_Driver/src/stm32f4xx_rtc.c **** ErrorStatus RTC_Init(RTC_InitTypeDef* RTC_InitStruct)
 446:App/STM32F4-Discovery/Libraries/STM32F4xx_StdPeriph_Driver/src/stm32f4xx_rtc.c **** {
 194              		.loc 1 446 0
 195              		.cfi_startproc
 196              		@ args = 0, pretend = 0, frame = 16
 197              		@ frame_needed = 1, uses_anonymous_args = 0
 198 0000 80B5     		push	{r7, lr}
 199              	.LCFI3:
 200              		.cfi_def_cfa_offset 8
 201              		.cfi_offset 7, -8
 202              		.cfi_offset 14, -4
 203 0002 84B0     		sub	sp, sp, #16
 204              	.LCFI4:
 205              		.cfi_def_cfa_offset 24
 206 0004 00AF     		add	r7, sp, #0
 207              	.LCFI5:
 208              		.cfi_def_cfa_register 7
 209 0006 7860     		str	r0, [r7, #4]
 447:App/STM32F4-Discovery/Libraries/STM32F4xx_StdPeriph_Driver/src/stm32f4xx_rtc.c ****   ErrorStatus status = ERROR;
 210              		.loc 1 447 0
 211 0008 0023     		movs	r3, #0
 212 000a FB73     		strb	r3, [r7, #15]
 448:App/STM32F4-Discovery/Libraries/STM32F4xx_StdPeriph_Driver/src/stm32f4xx_rtc.c ****   
 449:App/STM32F4-Discovery/Libraries/STM32F4xx_StdPeriph_Driver/src/stm32f4xx_rtc.c ****   /* Check the parameters */
 450:App/STM32F4-Discovery/Libraries/STM32F4xx_StdPeriph_Driver/src/stm32f4xx_rtc.c ****   assert_param(IS_RTC_HOUR_FORMAT(RTC_InitStruct->RTC_HourFormat));
 213              		.loc 1 450 0
 214 000c 7B68     		ldr	r3, [r7, #4]
 215 000e 1B68     		ldr	r3, [r3]
 216 0010 402B     		cmp	r3, #64
 217 0012 08D0     		beq	.L12
 218              		.loc 1 450 0 is_stmt 0 discriminator 1
 219 0014 7B68     		ldr	r3, [r7, #4]
 220 0016 1B68     		ldr	r3, [r3]
 221 0018 002B     		cmp	r3, #0
 222 001a 04D0     		beq	.L12
 223 001c 2548     		ldr	r0, .L18
 224 001e 4FF4E171 		mov	r1, #450
 225 0022 FFF7FEFF 		bl	assert_failed
 226              	.L12:
 451:App/STM32F4-Discovery/Libraries/STM32F4xx_StdPeriph_Driver/src/stm32f4xx_rtc.c ****   assert_param(IS_RTC_ASYNCH_PREDIV(RTC_InitStruct->RTC_AsynchPrediv));
 227              		.loc 1 451 0 is_stmt 1
 228 0026 7B68     		ldr	r3, [r7, #4]
 229 0028 5B68     		ldr	r3, [r3, #4]
 230 002a 7F2B     		cmp	r3, #127
 231 002c 04D9     		bls	.L13
 232              		.loc 1 451 0 is_stmt 0 discriminator 1
 233 002e 2148     		ldr	r0, .L18
 234 0030 40F2C311 		movw	r1, #451
 235 0034 FFF7FEFF 		bl	assert_failed
 236              	.L13:
 452:App/STM32F4-Discovery/Libraries/STM32F4xx_StdPeriph_Driver/src/stm32f4xx_rtc.c ****   assert_param(IS_RTC_SYNCH_PREDIV(RTC_InitStruct->RTC_SynchPrediv));
 237              		.loc 1 452 0 is_stmt 1
 238 0038 7B68     		ldr	r3, [r7, #4]
 239 003a 9B68     		ldr	r3, [r3, #8]
 240 003c B3F5004F 		cmp	r3, #32768
 241 0040 04D3     		bcc	.L14
 242              		.loc 1 452 0 is_stmt 0 discriminator 1
 243 0042 1C48     		ldr	r0, .L18
 244 0044 4FF4E271 		mov	r1, #452
 245 0048 FFF7FEFF 		bl	assert_failed
 246              	.L14:
 453:App/STM32F4-Discovery/Libraries/STM32F4xx_StdPeriph_Driver/src/stm32f4xx_rtc.c **** 
 454:App/STM32F4-Discovery/Libraries/STM32F4xx_StdPeriph_Driver/src/stm32f4xx_rtc.c ****   /* Disable the write protection for RTC registers */
 455:App/STM32F4-Discovery/Libraries/STM32F4xx_StdPeriph_Driver/src/stm32f4xx_rtc.c ****   RTC->WPR = 0xCA;
 247              		.loc 1 455 0 is_stmt 1
 248 004c 1A4B     		ldr	r3, .L18+4
 249 004e CA22     		movs	r2, #202
 250 0050 5A62     		str	r2, [r3, #36]
 456:App/STM32F4-Discovery/Libraries/STM32F4xx_StdPeriph_Driver/src/stm32f4xx_rtc.c ****   RTC->WPR = 0x53;
 251              		.loc 1 456 0
 252 0052 194B     		ldr	r3, .L18+4
 253 0054 5322     		movs	r2, #83
 254 0056 5A62     		str	r2, [r3, #36]
 457:App/STM32F4-Discovery/Libraries/STM32F4xx_StdPeriph_Driver/src/stm32f4xx_rtc.c **** 
 458:App/STM32F4-Discovery/Libraries/STM32F4xx_StdPeriph_Driver/src/stm32f4xx_rtc.c ****   /* Set Initialization mode */
 459:App/STM32F4-Discovery/Libraries/STM32F4xx_StdPeriph_Driver/src/stm32f4xx_rtc.c ****   if (RTC_EnterInitMode() == ERROR)
 255              		.loc 1 459 0
 256 0058 FFF7FEFF 		bl	RTC_EnterInitMode
 257 005c 0346     		mov	r3, r0
 258 005e 002B     		cmp	r3, #0
 259 0060 02D1     		bne	.L15
 460:App/STM32F4-Discovery/Libraries/STM32F4xx_StdPeriph_Driver/src/stm32f4xx_rtc.c ****   {
 461:App/STM32F4-Discovery/Libraries/STM32F4xx_StdPeriph_Driver/src/stm32f4xx_rtc.c ****     status = ERROR;
 260              		.loc 1 461 0
 261 0062 0023     		movs	r3, #0
 262 0064 FB73     		strb	r3, [r7, #15]
 263 0066 1CE0     		b	.L16
 264              	.L15:
 462:App/STM32F4-Discovery/Libraries/STM32F4xx_StdPeriph_Driver/src/stm32f4xx_rtc.c ****   } 
 463:App/STM32F4-Discovery/Libraries/STM32F4xx_StdPeriph_Driver/src/stm32f4xx_rtc.c ****   else
 464:App/STM32F4-Discovery/Libraries/STM32F4xx_StdPeriph_Driver/src/stm32f4xx_rtc.c ****   {
 465:App/STM32F4-Discovery/Libraries/STM32F4xx_StdPeriph_Driver/src/stm32f4xx_rtc.c ****     /* Clear RTC CR FMT Bit */
 466:App/STM32F4-Discovery/Libraries/STM32F4xx_StdPeriph_Driver/src/stm32f4xx_rtc.c ****     RTC->CR &= ((uint32_t)~(RTC_CR_FMT));
 265              		.loc 1 466 0
 266 0068 134B     		ldr	r3, .L18+4
 267 006a 134A     		ldr	r2, .L18+4
 268 006c 9268     		ldr	r2, [r2, #8]
 269 006e 22F04002 		bic	r2, r2, #64
 270 0072 9A60     		str	r2, [r3, #8]
 467:App/STM32F4-Discovery/Libraries/STM32F4xx_StdPeriph_Driver/src/stm32f4xx_rtc.c ****     /* Set RTC_CR register */
 468:App/STM32F4-Discovery/Libraries/STM32F4xx_StdPeriph_Driver/src/stm32f4xx_rtc.c ****     RTC->CR |=  ((uint32_t)(RTC_InitStruct->RTC_HourFormat));
 271              		.loc 1 468 0
 272 0074 104B     		ldr	r3, .L18+4
 273 0076 104A     		ldr	r2, .L18+4
 274 0078 9168     		ldr	r1, [r2, #8]
 275 007a 7A68     		ldr	r2, [r7, #4]
 276 007c 1268     		ldr	r2, [r2]
 277 007e 0A43     		orrs	r2, r2, r1
 278 0080 9A60     		str	r2, [r3, #8]
 469:App/STM32F4-Discovery/Libraries/STM32F4xx_StdPeriph_Driver/src/stm32f4xx_rtc.c ****   
 470:App/STM32F4-Discovery/Libraries/STM32F4xx_StdPeriph_Driver/src/stm32f4xx_rtc.c ****     /* Configure the RTC PRER */
 471:App/STM32F4-Discovery/Libraries/STM32F4xx_StdPeriph_Driver/src/stm32f4xx_rtc.c ****     RTC->PRER = (uint32_t)(RTC_InitStruct->RTC_SynchPrediv);
 279              		.loc 1 471 0
 280 0082 0D4B     		ldr	r3, .L18+4
 281 0084 7A68     		ldr	r2, [r7, #4]
 282 0086 9268     		ldr	r2, [r2, #8]
 283 0088 1A61     		str	r2, [r3, #16]
 472:App/STM32F4-Discovery/Libraries/STM32F4xx_StdPeriph_Driver/src/stm32f4xx_rtc.c ****     RTC->PRER |= (uint32_t)(RTC_InitStruct->RTC_AsynchPrediv << 16);
 284              		.loc 1 472 0
 285 008a 0B4B     		ldr	r3, .L18+4
 286 008c 0A4A     		ldr	r2, .L18+4
 287 008e 1169     		ldr	r1, [r2, #16]
 288 0090 7A68     		ldr	r2, [r7, #4]
 289 0092 5268     		ldr	r2, [r2, #4]
 290 0094 1204     		lsls	r2, r2, #16
 291 0096 0A43     		orrs	r2, r2, r1
 292 0098 1A61     		str	r2, [r3, #16]
 473:App/STM32F4-Discovery/Libraries/STM32F4xx_StdPeriph_Driver/src/stm32f4xx_rtc.c **** 
 474:App/STM32F4-Discovery/Libraries/STM32F4xx_StdPeriph_Driver/src/stm32f4xx_rtc.c ****     /* Exit Initialization mode */
 475:App/STM32F4-Discovery/Libraries/STM32F4xx_StdPeriph_Driver/src/stm32f4xx_rtc.c ****     RTC_ExitInitMode();
 293              		.loc 1 475 0
 294 009a FFF7FEFF 		bl	RTC_ExitInitMode
 476:App/STM32F4-Discovery/Libraries/STM32F4xx_StdPeriph_Driver/src/stm32f4xx_rtc.c **** 
 477:App/STM32F4-Discovery/Libraries/STM32F4xx_StdPeriph_Driver/src/stm32f4xx_rtc.c ****     status = SUCCESS;    
 295              		.loc 1 477 0
 296 009e 0123     		movs	r3, #1
 297 00a0 FB73     		strb	r3, [r7, #15]
 298              	.L16:
 478:App/STM32F4-Discovery/Libraries/STM32F4xx_StdPeriph_Driver/src/stm32f4xx_rtc.c ****   }
 479:App/STM32F4-Discovery/Libraries/STM32F4xx_StdPeriph_Driver/src/stm32f4xx_rtc.c ****   /* Enable the write protection for RTC registers */
 480:App/STM32F4-Discovery/Libraries/STM32F4xx_StdPeriph_Driver/src/stm32f4xx_rtc.c ****   RTC->WPR = 0xFF; 
 299              		.loc 1 480 0
 300 00a2 054B     		ldr	r3, .L18+4
 301 00a4 FF22     		movs	r2, #255
 302 00a6 5A62     		str	r2, [r3, #36]
 481:App/STM32F4-Discovery/Libraries/STM32F4xx_StdPeriph_Driver/src/stm32f4xx_rtc.c ****   
 482:App/STM32F4-Discovery/Libraries/STM32F4xx_StdPeriph_Driver/src/stm32f4xx_rtc.c ****   return status;
 303              		.loc 1 482 0
 304 00a8 FB7B     		ldrb	r3, [r7, #15]	@ zero_extendqisi2
 483:App/STM32F4-Discovery/Libraries/STM32F4xx_StdPeriph_Driver/src/stm32f4xx_rtc.c **** }
 305              		.loc 1 483 0
 306 00aa 1846     		mov	r0, r3
 307 00ac 1037     		adds	r7, r7, #16
 308 00ae BD46     		mov	sp, r7
 309              		@ sp needed
 310 00b0 80BD     		pop	{r7, pc}
 311              	.L19:
 312 00b2 00BF     		.align	2
 313              	.L18:
 314 00b4 00000000 		.word	.LC0
 315 00b8 00280040 		.word	1073752064
 316              		.cfi_endproc
 317              	.LFE111:
 319              		.section	.text.RTC_StructInit,"ax",%progbits
 320              		.align	2
 321              		.global	RTC_StructInit
 322              		.thumb
 323              		.thumb_func
 325              	RTC_StructInit:
 326              	.LFB112:
 484:App/STM32F4-Discovery/Libraries/STM32F4xx_StdPeriph_Driver/src/stm32f4xx_rtc.c **** 
 485:App/STM32F4-Discovery/Libraries/STM32F4xx_StdPeriph_Driver/src/stm32f4xx_rtc.c **** /**
 486:App/STM32F4-Discovery/Libraries/STM32F4xx_StdPeriph_Driver/src/stm32f4xx_rtc.c ****   * @brief  Fills each RTC_InitStruct member with its default value.
 487:App/STM32F4-Discovery/Libraries/STM32F4xx_StdPeriph_Driver/src/stm32f4xx_rtc.c ****   * @param  RTC_InitStruct: pointer to a RTC_InitTypeDef structure which will be 
 488:App/STM32F4-Discovery/Libraries/STM32F4xx_StdPeriph_Driver/src/stm32f4xx_rtc.c ****   *         initialized.
 489:App/STM32F4-Discovery/Libraries/STM32F4xx_StdPeriph_Driver/src/stm32f4xx_rtc.c ****   * @retval None
 490:App/STM32F4-Discovery/Libraries/STM32F4xx_StdPeriph_Driver/src/stm32f4xx_rtc.c ****   */
 491:App/STM32F4-Discovery/Libraries/STM32F4xx_StdPeriph_Driver/src/stm32f4xx_rtc.c **** void RTC_StructInit(RTC_InitTypeDef* RTC_InitStruct)
 492:App/STM32F4-Discovery/Libraries/STM32F4xx_StdPeriph_Driver/src/stm32f4xx_rtc.c **** {
 327              		.loc 1 492 0
 328              		.cfi_startproc
 329              		@ args = 0, pretend = 0, frame = 8
 330              		@ frame_needed = 1, uses_anonymous_args = 0
 331              		@ link register save eliminated.
 332 0000 80B4     		push	{r7}
 333              	.LCFI6:
 334              		.cfi_def_cfa_offset 4
 335              		.cfi_offset 7, -4
 336 0002 83B0     		sub	sp, sp, #12
 337              	.LCFI7:
 338              		.cfi_def_cfa_offset 16
 339 0004 00AF     		add	r7, sp, #0
 340              	.LCFI8:
 341              		.cfi_def_cfa_register 7
 342 0006 7860     		str	r0, [r7, #4]
 493:App/STM32F4-Discovery/Libraries/STM32F4xx_StdPeriph_Driver/src/stm32f4xx_rtc.c ****   /* Initialize the RTC_HourFormat member */
 494:App/STM32F4-Discovery/Libraries/STM32F4xx_StdPeriph_Driver/src/stm32f4xx_rtc.c ****   RTC_InitStruct->RTC_HourFormat = RTC_HourFormat_24;
 343              		.loc 1 494 0
 344 0008 7B68     		ldr	r3, [r7, #4]
 345 000a 0022     		movs	r2, #0
 346 000c 1A60     		str	r2, [r3]
 495:App/STM32F4-Discovery/Libraries/STM32F4xx_StdPeriph_Driver/src/stm32f4xx_rtc.c ****     
 496:App/STM32F4-Discovery/Libraries/STM32F4xx_StdPeriph_Driver/src/stm32f4xx_rtc.c ****   /* Initialize the RTC_AsynchPrediv member */
 497:App/STM32F4-Discovery/Libraries/STM32F4xx_StdPeriph_Driver/src/stm32f4xx_rtc.c ****   RTC_InitStruct->RTC_AsynchPrediv = (uint32_t)0x7F;
 347              		.loc 1 497 0
 348 000e 7B68     		ldr	r3, [r7, #4]
 349 0010 7F22     		movs	r2, #127
 350 0012 5A60     		str	r2, [r3, #4]
 498:App/STM32F4-Discovery/Libraries/STM32F4xx_StdPeriph_Driver/src/stm32f4xx_rtc.c **** 
 499:App/STM32F4-Discovery/Libraries/STM32F4xx_StdPeriph_Driver/src/stm32f4xx_rtc.c ****   /* Initialize the RTC_SynchPrediv member */
 500:App/STM32F4-Discovery/Libraries/STM32F4xx_StdPeriph_Driver/src/stm32f4xx_rtc.c ****   RTC_InitStruct->RTC_SynchPrediv = (uint32_t)0xFF; 
 351              		.loc 1 500 0
 352 0014 7B68     		ldr	r3, [r7, #4]
 353 0016 FF22     		movs	r2, #255
 354 0018 9A60     		str	r2, [r3, #8]
 501:App/STM32F4-Discovery/Libraries/STM32F4xx_StdPeriph_Driver/src/stm32f4xx_rtc.c **** }
 355              		.loc 1 501 0
 356 001a 0C37     		adds	r7, r7, #12
 357 001c BD46     		mov	sp, r7
 358              		@ sp needed
 359 001e 5DF8047B 		ldr	r7, [sp], #4
 360 0022 7047     		bx	lr
 361              		.cfi_endproc
 362              	.LFE112:
 364              		.section	.text.RTC_WriteProtectionCmd,"ax",%progbits
 365              		.align	2
 366              		.global	RTC_WriteProtectionCmd
 367              		.thumb
 368              		.thumb_func
 370              	RTC_WriteProtectionCmd:
 371              	.LFB113:
 502:App/STM32F4-Discovery/Libraries/STM32F4xx_StdPeriph_Driver/src/stm32f4xx_rtc.c **** 
 503:App/STM32F4-Discovery/Libraries/STM32F4xx_StdPeriph_Driver/src/stm32f4xx_rtc.c **** /**
 504:App/STM32F4-Discovery/Libraries/STM32F4xx_StdPeriph_Driver/src/stm32f4xx_rtc.c ****   * @brief  Enables or disables the RTC registers write protection.
 505:App/STM32F4-Discovery/Libraries/STM32F4xx_StdPeriph_Driver/src/stm32f4xx_rtc.c ****   * @note   All the RTC registers are write protected except for RTC_ISR[13:8], 
 506:App/STM32F4-Discovery/Libraries/STM32F4xx_StdPeriph_Driver/src/stm32f4xx_rtc.c ****   *         RTC_TAFCR and RTC_BKPxR.
 507:App/STM32F4-Discovery/Libraries/STM32F4xx_StdPeriph_Driver/src/stm32f4xx_rtc.c ****   * @note   Writing a wrong key reactivates the write protection.
 508:App/STM32F4-Discovery/Libraries/STM32F4xx_StdPeriph_Driver/src/stm32f4xx_rtc.c ****   * @note   The protection mechanism is not affected by system reset.  
 509:App/STM32F4-Discovery/Libraries/STM32F4xx_StdPeriph_Driver/src/stm32f4xx_rtc.c ****   * @param  NewState: new state of the write protection.
 510:App/STM32F4-Discovery/Libraries/STM32F4xx_StdPeriph_Driver/src/stm32f4xx_rtc.c ****   *          This parameter can be: ENABLE or DISABLE.
 511:App/STM32F4-Discovery/Libraries/STM32F4xx_StdPeriph_Driver/src/stm32f4xx_rtc.c ****   * @retval None
 512:App/STM32F4-Discovery/Libraries/STM32F4xx_StdPeriph_Driver/src/stm32f4xx_rtc.c ****   */
 513:App/STM32F4-Discovery/Libraries/STM32F4xx_StdPeriph_Driver/src/stm32f4xx_rtc.c **** void RTC_WriteProtectionCmd(FunctionalState NewState)
 514:App/STM32F4-Discovery/Libraries/STM32F4xx_StdPeriph_Driver/src/stm32f4xx_rtc.c **** {
 372              		.loc 1 514 0
 373              		.cfi_startproc
 374              		@ args = 0, pretend = 0, frame = 8
 375              		@ frame_needed = 1, uses_anonymous_args = 0
 376 0000 80B5     		push	{r7, lr}
 377              	.LCFI9:
 378              		.cfi_def_cfa_offset 8
 379              		.cfi_offset 7, -8
 380              		.cfi_offset 14, -4
 381 0002 82B0     		sub	sp, sp, #8
 382              	.LCFI10:
 383              		.cfi_def_cfa_offset 16
 384 0004 00AF     		add	r7, sp, #0
 385              	.LCFI11:
 386              		.cfi_def_cfa_register 7
 387 0006 0346     		mov	r3, r0
 388 0008 FB71     		strb	r3, [r7, #7]
 515:App/STM32F4-Discovery/Libraries/STM32F4xx_StdPeriph_Driver/src/stm32f4xx_rtc.c ****   /* Check the parameters */
 516:App/STM32F4-Discovery/Libraries/STM32F4xx_StdPeriph_Driver/src/stm32f4xx_rtc.c ****   assert_param(IS_FUNCTIONAL_STATE(NewState));
 389              		.loc 1 516 0
 390 000a FB79     		ldrb	r3, [r7, #7]	@ zero_extendqisi2
 391 000c 002B     		cmp	r3, #0
 392 000e 07D0     		beq	.L22
 393              		.loc 1 516 0 is_stmt 0 discriminator 1
 394 0010 FB79     		ldrb	r3, [r7, #7]	@ zero_extendqisi2
 395 0012 012B     		cmp	r3, #1
 396 0014 04D0     		beq	.L22
 397 0016 0A48     		ldr	r0, .L25
 398 0018 4FF40171 		mov	r1, #516
 399 001c FFF7FEFF 		bl	assert_failed
 400              	.L22:
 517:App/STM32F4-Discovery/Libraries/STM32F4xx_StdPeriph_Driver/src/stm32f4xx_rtc.c ****     
 518:App/STM32F4-Discovery/Libraries/STM32F4xx_StdPeriph_Driver/src/stm32f4xx_rtc.c ****   if (NewState != DISABLE)
 401              		.loc 1 518 0 is_stmt 1
 402 0020 FB79     		ldrb	r3, [r7, #7]	@ zero_extendqisi2
 403 0022 002B     		cmp	r3, #0
 404 0024 03D0     		beq	.L23
 519:App/STM32F4-Discovery/Libraries/STM32F4xx_StdPeriph_Driver/src/stm32f4xx_rtc.c ****   {
 520:App/STM32F4-Discovery/Libraries/STM32F4xx_StdPeriph_Driver/src/stm32f4xx_rtc.c ****     /* Enable the write protection for RTC registers */
 521:App/STM32F4-Discovery/Libraries/STM32F4xx_StdPeriph_Driver/src/stm32f4xx_rtc.c ****     RTC->WPR = 0xFF;   
 405              		.loc 1 521 0
 406 0026 074B     		ldr	r3, .L25+4
 407 0028 FF22     		movs	r2, #255
 408 002a 5A62     		str	r2, [r3, #36]
 409 002c 05E0     		b	.L21
 410              	.L23:
 522:App/STM32F4-Discovery/Libraries/STM32F4xx_StdPeriph_Driver/src/stm32f4xx_rtc.c ****   }
 523:App/STM32F4-Discovery/Libraries/STM32F4xx_StdPeriph_Driver/src/stm32f4xx_rtc.c ****   else
 524:App/STM32F4-Discovery/Libraries/STM32F4xx_StdPeriph_Driver/src/stm32f4xx_rtc.c ****   {
 525:App/STM32F4-Discovery/Libraries/STM32F4xx_StdPeriph_Driver/src/stm32f4xx_rtc.c ****     /* Disable the write protection for RTC registers */
 526:App/STM32F4-Discovery/Libraries/STM32F4xx_StdPeriph_Driver/src/stm32f4xx_rtc.c ****     RTC->WPR = 0xCA;
 411              		.loc 1 526 0
 412 002e 054B     		ldr	r3, .L25+4
 413 0030 CA22     		movs	r2, #202
 414 0032 5A62     		str	r2, [r3, #36]
 527:App/STM32F4-Discovery/Libraries/STM32F4xx_StdPeriph_Driver/src/stm32f4xx_rtc.c ****     RTC->WPR = 0x53;    
 415              		.loc 1 527 0
 416 0034 034B     		ldr	r3, .L25+4
 417 0036 5322     		movs	r2, #83
 418 0038 5A62     		str	r2, [r3, #36]
 419              	.L21:
 528:App/STM32F4-Discovery/Libraries/STM32F4xx_StdPeriph_Driver/src/stm32f4xx_rtc.c ****   }
 529:App/STM32F4-Discovery/Libraries/STM32F4xx_StdPeriph_Driver/src/stm32f4xx_rtc.c **** }
 420              		.loc 1 529 0
 421 003a 0837     		adds	r7, r7, #8
 422 003c BD46     		mov	sp, r7
 423              		@ sp needed
 424 003e 80BD     		pop	{r7, pc}
 425              	.L26:
 426              		.align	2
 427              	.L25:
 428 0040 00000000 		.word	.LC0
 429 0044 00280040 		.word	1073752064
 430              		.cfi_endproc
 431              	.LFE113:
 433              		.section	.text.RTC_EnterInitMode,"ax",%progbits
 434              		.align	2
 435              		.global	RTC_EnterInitMode
 436              		.thumb
 437              		.thumb_func
 439              	RTC_EnterInitMode:
 440              	.LFB114:
 530:App/STM32F4-Discovery/Libraries/STM32F4xx_StdPeriph_Driver/src/stm32f4xx_rtc.c **** 
 531:App/STM32F4-Discovery/Libraries/STM32F4xx_StdPeriph_Driver/src/stm32f4xx_rtc.c **** /**
 532:App/STM32F4-Discovery/Libraries/STM32F4xx_StdPeriph_Driver/src/stm32f4xx_rtc.c ****   * @brief  Enters the RTC Initialization mode.
 533:App/STM32F4-Discovery/Libraries/STM32F4xx_StdPeriph_Driver/src/stm32f4xx_rtc.c ****   * @note   The RTC Initialization mode is write protected, use the 
 534:App/STM32F4-Discovery/Libraries/STM32F4xx_StdPeriph_Driver/src/stm32f4xx_rtc.c ****   *         RTC_WriteProtectionCmd(DISABLE) before calling this function.    
 535:App/STM32F4-Discovery/Libraries/STM32F4xx_StdPeriph_Driver/src/stm32f4xx_rtc.c ****   * @param  None
 536:App/STM32F4-Discovery/Libraries/STM32F4xx_StdPeriph_Driver/src/stm32f4xx_rtc.c ****   * @retval An ErrorStatus enumeration value:
 537:App/STM32F4-Discovery/Libraries/STM32F4xx_StdPeriph_Driver/src/stm32f4xx_rtc.c ****   *          - SUCCESS: RTC is in Init mode
 538:App/STM32F4-Discovery/Libraries/STM32F4xx_StdPeriph_Driver/src/stm32f4xx_rtc.c ****   *          - ERROR: RTC is not in Init mode  
 539:App/STM32F4-Discovery/Libraries/STM32F4xx_StdPeriph_Driver/src/stm32f4xx_rtc.c ****   */
 540:App/STM32F4-Discovery/Libraries/STM32F4xx_StdPeriph_Driver/src/stm32f4xx_rtc.c **** ErrorStatus RTC_EnterInitMode(void)
 541:App/STM32F4-Discovery/Libraries/STM32F4xx_StdPeriph_Driver/src/stm32f4xx_rtc.c **** {
 441              		.loc 1 541 0
 442              		.cfi_startproc
 443              		@ args = 0, pretend = 0, frame = 16
 444              		@ frame_needed = 1, uses_anonymous_args = 0
 445              		@ link register save eliminated.
 446 0000 80B4     		push	{r7}
 447              	.LCFI12:
 448              		.cfi_def_cfa_offset 4
 449              		.cfi_offset 7, -4
 450 0002 85B0     		sub	sp, sp, #20
 451              	.LCFI13:
 452              		.cfi_def_cfa_offset 24
 453 0004 00AF     		add	r7, sp, #0
 454              	.LCFI14:
 455              		.cfi_def_cfa_register 7
 542:App/STM32F4-Discovery/Libraries/STM32F4xx_StdPeriph_Driver/src/stm32f4xx_rtc.c ****   __IO uint32_t initcounter = 0x00;
 456              		.loc 1 542 0
 457 0006 0023     		movs	r3, #0
 458 0008 7B60     		str	r3, [r7, #4]
 543:App/STM32F4-Discovery/Libraries/STM32F4xx_StdPeriph_Driver/src/stm32f4xx_rtc.c ****   ErrorStatus status = ERROR;
 459              		.loc 1 543 0
 460 000a 0023     		movs	r3, #0
 461 000c FB73     		strb	r3, [r7, #15]
 544:App/STM32F4-Discovery/Libraries/STM32F4xx_StdPeriph_Driver/src/stm32f4xx_rtc.c ****   uint32_t initstatus = 0x00;
 462              		.loc 1 544 0
 463 000e 0023     		movs	r3, #0
 464 0010 BB60     		str	r3, [r7, #8]
 545:App/STM32F4-Discovery/Libraries/STM32F4xx_StdPeriph_Driver/src/stm32f4xx_rtc.c ****      
 546:App/STM32F4-Discovery/Libraries/STM32F4xx_StdPeriph_Driver/src/stm32f4xx_rtc.c ****   /* Check if the Initialization mode is set */
 547:App/STM32F4-Discovery/Libraries/STM32F4xx_StdPeriph_Driver/src/stm32f4xx_rtc.c ****   if ((RTC->ISR & RTC_ISR_INITF) == (uint32_t)RESET)
 465              		.loc 1 547 0
 466 0012 174B     		ldr	r3, .L35
 467 0014 DB68     		ldr	r3, [r3, #12]
 468 0016 03F04003 		and	r3, r3, #64
 469 001a 002B     		cmp	r3, #0
 470 001c 1ED1     		bne	.L28
 548:App/STM32F4-Discovery/Libraries/STM32F4xx_StdPeriph_Driver/src/stm32f4xx_rtc.c ****   {
 549:App/STM32F4-Discovery/Libraries/STM32F4xx_StdPeriph_Driver/src/stm32f4xx_rtc.c ****     /* Set the Initialization mode */
 550:App/STM32F4-Discovery/Libraries/STM32F4xx_StdPeriph_Driver/src/stm32f4xx_rtc.c ****     RTC->ISR = (uint32_t)RTC_INIT_MASK;
 471              		.loc 1 550 0
 472 001e 144B     		ldr	r3, .L35
 473 0020 4FF0FF32 		mov	r2, #-1
 474 0024 DA60     		str	r2, [r3, #12]
 475              	.L30:
 551:App/STM32F4-Discovery/Libraries/STM32F4xx_StdPeriph_Driver/src/stm32f4xx_rtc.c ****     
 552:App/STM32F4-Discovery/Libraries/STM32F4xx_StdPeriph_Driver/src/stm32f4xx_rtc.c ****     /* Wait till RTC is in INIT state and if Time out is reached exit */
 553:App/STM32F4-Discovery/Libraries/STM32F4xx_StdPeriph_Driver/src/stm32f4xx_rtc.c ****     do
 554:App/STM32F4-Discovery/Libraries/STM32F4xx_StdPeriph_Driver/src/stm32f4xx_rtc.c ****     {
 555:App/STM32F4-Discovery/Libraries/STM32F4xx_StdPeriph_Driver/src/stm32f4xx_rtc.c ****       initstatus = RTC->ISR & RTC_ISR_INITF;
 476              		.loc 1 555 0 discriminator 1
 477 0026 124B     		ldr	r3, .L35
 478 0028 DB68     		ldr	r3, [r3, #12]
 479 002a 03F04003 		and	r3, r3, #64
 480 002e BB60     		str	r3, [r7, #8]
 556:App/STM32F4-Discovery/Libraries/STM32F4xx_StdPeriph_Driver/src/stm32f4xx_rtc.c ****       initcounter++;  
 481              		.loc 1 556 0 discriminator 1
 482 0030 7B68     		ldr	r3, [r7, #4]
 483 0032 0133     		adds	r3, r3, #1
 484 0034 7B60     		str	r3, [r7, #4]
 557:App/STM32F4-Discovery/Libraries/STM32F4xx_StdPeriph_Driver/src/stm32f4xx_rtc.c ****     } while((initcounter != INITMODE_TIMEOUT) && (initstatus == 0x00));
 485              		.loc 1 557 0 discriminator 1
 486 0036 7B68     		ldr	r3, [r7, #4]
 487 0038 B3F5803F 		cmp	r3, #65536
 488 003c 02D0     		beq	.L29
 489 003e BB68     		ldr	r3, [r7, #8]
 490 0040 002B     		cmp	r3, #0
 491 0042 F0D0     		beq	.L30
 492              	.L29:
 558:App/STM32F4-Discovery/Libraries/STM32F4xx_StdPeriph_Driver/src/stm32f4xx_rtc.c ****     
 559:App/STM32F4-Discovery/Libraries/STM32F4xx_StdPeriph_Driver/src/stm32f4xx_rtc.c ****     if ((RTC->ISR & RTC_ISR_INITF) != RESET)
 493              		.loc 1 559 0
 494 0044 0A4B     		ldr	r3, .L35
 495 0046 DB68     		ldr	r3, [r3, #12]
 496 0048 03F04003 		and	r3, r3, #64
 497 004c 002B     		cmp	r3, #0
 498 004e 02D0     		beq	.L31
 560:App/STM32F4-Discovery/Libraries/STM32F4xx_StdPeriph_Driver/src/stm32f4xx_rtc.c ****     {
 561:App/STM32F4-Discovery/Libraries/STM32F4xx_StdPeriph_Driver/src/stm32f4xx_rtc.c ****       status = SUCCESS;
 499              		.loc 1 561 0
 500 0050 0123     		movs	r3, #1
 501 0052 FB73     		strb	r3, [r7, #15]
 502 0054 04E0     		b	.L33
 503              	.L31:
 562:App/STM32F4-Discovery/Libraries/STM32F4xx_StdPeriph_Driver/src/stm32f4xx_rtc.c ****     }
 563:App/STM32F4-Discovery/Libraries/STM32F4xx_StdPeriph_Driver/src/stm32f4xx_rtc.c ****     else
 564:App/STM32F4-Discovery/Libraries/STM32F4xx_StdPeriph_Driver/src/stm32f4xx_rtc.c ****     {
 565:App/STM32F4-Discovery/Libraries/STM32F4xx_StdPeriph_Driver/src/stm32f4xx_rtc.c ****       status = ERROR;
 504              		.loc 1 565 0
 505 0056 0023     		movs	r3, #0
 506 0058 FB73     		strb	r3, [r7, #15]
 507 005a 01E0     		b	.L33
 508              	.L28:
 566:App/STM32F4-Discovery/Libraries/STM32F4xx_StdPeriph_Driver/src/stm32f4xx_rtc.c ****     }        
 567:App/STM32F4-Discovery/Libraries/STM32F4xx_StdPeriph_Driver/src/stm32f4xx_rtc.c ****   }
 568:App/STM32F4-Discovery/Libraries/STM32F4xx_StdPeriph_Driver/src/stm32f4xx_rtc.c ****   else
 569:App/STM32F4-Discovery/Libraries/STM32F4xx_StdPeriph_Driver/src/stm32f4xx_rtc.c ****   {
 570:App/STM32F4-Discovery/Libraries/STM32F4xx_StdPeriph_Driver/src/stm32f4xx_rtc.c ****     status = SUCCESS;  
 509              		.loc 1 570 0
 510 005c 0123     		movs	r3, #1
 511 005e FB73     		strb	r3, [r7, #15]
 512              	.L33:
 571:App/STM32F4-Discovery/Libraries/STM32F4xx_StdPeriph_Driver/src/stm32f4xx_rtc.c ****   } 
 572:App/STM32F4-Discovery/Libraries/STM32F4xx_StdPeriph_Driver/src/stm32f4xx_rtc.c ****     
 573:App/STM32F4-Discovery/Libraries/STM32F4xx_StdPeriph_Driver/src/stm32f4xx_rtc.c ****   return (status);  
 513              		.loc 1 573 0
 514 0060 FB7B     		ldrb	r3, [r7, #15]	@ zero_extendqisi2
 574:App/STM32F4-Discovery/Libraries/STM32F4xx_StdPeriph_Driver/src/stm32f4xx_rtc.c **** }
 515              		.loc 1 574 0
 516 0062 1846     		mov	r0, r3
 517 0064 1437     		adds	r7, r7, #20
 518 0066 BD46     		mov	sp, r7
 519              		@ sp needed
 520 0068 5DF8047B 		ldr	r7, [sp], #4
 521 006c 7047     		bx	lr
 522              	.L36:
 523 006e 00BF     		.align	2
 524              	.L35:
 525 0070 00280040 		.word	1073752064
 526              		.cfi_endproc
 527              	.LFE114:
 529              		.section	.text.RTC_ExitInitMode,"ax",%progbits
 530              		.align	2
 531              		.global	RTC_ExitInitMode
 532              		.thumb
 533              		.thumb_func
 535              	RTC_ExitInitMode:
 536              	.LFB115:
 575:App/STM32F4-Discovery/Libraries/STM32F4xx_StdPeriph_Driver/src/stm32f4xx_rtc.c **** 
 576:App/STM32F4-Discovery/Libraries/STM32F4xx_StdPeriph_Driver/src/stm32f4xx_rtc.c **** /**
 577:App/STM32F4-Discovery/Libraries/STM32F4xx_StdPeriph_Driver/src/stm32f4xx_rtc.c ****   * @brief  Exits the RTC Initialization mode.
 578:App/STM32F4-Discovery/Libraries/STM32F4xx_StdPeriph_Driver/src/stm32f4xx_rtc.c ****   * @note   When the initialization sequence is complete, the calendar restarts 
 579:App/STM32F4-Discovery/Libraries/STM32F4xx_StdPeriph_Driver/src/stm32f4xx_rtc.c ****   *         counting after 4 RTCCLK cycles.  
 580:App/STM32F4-Discovery/Libraries/STM32F4xx_StdPeriph_Driver/src/stm32f4xx_rtc.c ****   * @note   The RTC Initialization mode is write protected, use the 
 581:App/STM32F4-Discovery/Libraries/STM32F4xx_StdPeriph_Driver/src/stm32f4xx_rtc.c ****   *         RTC_WriteProtectionCmd(DISABLE) before calling this function.      
 582:App/STM32F4-Discovery/Libraries/STM32F4xx_StdPeriph_Driver/src/stm32f4xx_rtc.c ****   * @param  None
 583:App/STM32F4-Discovery/Libraries/STM32F4xx_StdPeriph_Driver/src/stm32f4xx_rtc.c ****   * @retval None
 584:App/STM32F4-Discovery/Libraries/STM32F4xx_StdPeriph_Driver/src/stm32f4xx_rtc.c ****   */
 585:App/STM32F4-Discovery/Libraries/STM32F4xx_StdPeriph_Driver/src/stm32f4xx_rtc.c **** void RTC_ExitInitMode(void)
 586:App/STM32F4-Discovery/Libraries/STM32F4xx_StdPeriph_Driver/src/stm32f4xx_rtc.c **** { 
 537              		.loc 1 586 0
 538              		.cfi_startproc
 539              		@ args = 0, pretend = 0, frame = 0
 540              		@ frame_needed = 1, uses_anonymous_args = 0
 541              		@ link register save eliminated.
 542 0000 80B4     		push	{r7}
 543              	.LCFI15:
 544              		.cfi_def_cfa_offset 4
 545              		.cfi_offset 7, -4
 546 0002 00AF     		add	r7, sp, #0
 547              	.LCFI16:
 548              		.cfi_def_cfa_register 7
 587:App/STM32F4-Discovery/Libraries/STM32F4xx_StdPeriph_Driver/src/stm32f4xx_rtc.c ****   /* Exit Initialization mode */
 588:App/STM32F4-Discovery/Libraries/STM32F4xx_StdPeriph_Driver/src/stm32f4xx_rtc.c ****   RTC->ISR &= (uint32_t)~RTC_ISR_INIT;  
 549              		.loc 1 588 0
 550 0004 044B     		ldr	r3, .L38
 551 0006 044A     		ldr	r2, .L38
 552 0008 D268     		ldr	r2, [r2, #12]
 553 000a 22F08002 		bic	r2, r2, #128
 554 000e DA60     		str	r2, [r3, #12]
 589:App/STM32F4-Discovery/Libraries/STM32F4xx_StdPeriph_Driver/src/stm32f4xx_rtc.c **** }
 555              		.loc 1 589 0
 556 0010 BD46     		mov	sp, r7
 557              		@ sp needed
 558 0012 5DF8047B 		ldr	r7, [sp], #4
 559 0016 7047     		bx	lr
 560              	.L39:
 561              		.align	2
 562              	.L38:
 563 0018 00280040 		.word	1073752064
 564              		.cfi_endproc
 565              	.LFE115:
 567              		.section	.text.RTC_WaitForSynchro,"ax",%progbits
 568              		.align	2
 569              		.global	RTC_WaitForSynchro
 570              		.thumb
 571              		.thumb_func
 573              	RTC_WaitForSynchro:
 574              	.LFB116:
 590:App/STM32F4-Discovery/Libraries/STM32F4xx_StdPeriph_Driver/src/stm32f4xx_rtc.c **** 
 591:App/STM32F4-Discovery/Libraries/STM32F4xx_StdPeriph_Driver/src/stm32f4xx_rtc.c **** /**
 592:App/STM32F4-Discovery/Libraries/STM32F4xx_StdPeriph_Driver/src/stm32f4xx_rtc.c ****   * @brief  Waits until the RTC Time and Date registers (RTC_TR and RTC_DR) are 
 593:App/STM32F4-Discovery/Libraries/STM32F4xx_StdPeriph_Driver/src/stm32f4xx_rtc.c ****   *         synchronized with RTC APB clock.
 594:App/STM32F4-Discovery/Libraries/STM32F4xx_StdPeriph_Driver/src/stm32f4xx_rtc.c ****   * @note   The RTC Resynchronization mode is write protected, use the 
 595:App/STM32F4-Discovery/Libraries/STM32F4xx_StdPeriph_Driver/src/stm32f4xx_rtc.c ****   *         RTC_WriteProtectionCmd(DISABLE) before calling this function. 
 596:App/STM32F4-Discovery/Libraries/STM32F4xx_StdPeriph_Driver/src/stm32f4xx_rtc.c ****   * @note   To read the calendar through the shadow registers after Calendar 
 597:App/STM32F4-Discovery/Libraries/STM32F4xx_StdPeriph_Driver/src/stm32f4xx_rtc.c ****   *         initialization, calendar update or after wakeup from low power modes 
 598:App/STM32F4-Discovery/Libraries/STM32F4xx_StdPeriph_Driver/src/stm32f4xx_rtc.c ****   *         the software must first clear the RSF flag. 
 599:App/STM32F4-Discovery/Libraries/STM32F4xx_StdPeriph_Driver/src/stm32f4xx_rtc.c ****   *         The software must then wait until it is set again before reading 
 600:App/STM32F4-Discovery/Libraries/STM32F4xx_StdPeriph_Driver/src/stm32f4xx_rtc.c ****   *         the calendar, which means that the calendar registers have been 
 601:App/STM32F4-Discovery/Libraries/STM32F4xx_StdPeriph_Driver/src/stm32f4xx_rtc.c ****   *         correctly copied into the RTC_TR and RTC_DR shadow registers.   
 602:App/STM32F4-Discovery/Libraries/STM32F4xx_StdPeriph_Driver/src/stm32f4xx_rtc.c ****   * @param  None
 603:App/STM32F4-Discovery/Libraries/STM32F4xx_StdPeriph_Driver/src/stm32f4xx_rtc.c ****   * @retval An ErrorStatus enumeration value:
 604:App/STM32F4-Discovery/Libraries/STM32F4xx_StdPeriph_Driver/src/stm32f4xx_rtc.c ****   *          - SUCCESS: RTC registers are synchronised
 605:App/STM32F4-Discovery/Libraries/STM32F4xx_StdPeriph_Driver/src/stm32f4xx_rtc.c ****   *          - ERROR: RTC registers are not synchronised
 606:App/STM32F4-Discovery/Libraries/STM32F4xx_StdPeriph_Driver/src/stm32f4xx_rtc.c ****   */
 607:App/STM32F4-Discovery/Libraries/STM32F4xx_StdPeriph_Driver/src/stm32f4xx_rtc.c **** ErrorStatus RTC_WaitForSynchro(void)
 608:App/STM32F4-Discovery/Libraries/STM32F4xx_StdPeriph_Driver/src/stm32f4xx_rtc.c **** {
 575              		.loc 1 608 0
 576              		.cfi_startproc
 577              		@ args = 0, pretend = 0, frame = 16
 578              		@ frame_needed = 1, uses_anonymous_args = 0
 579              		@ link register save eliminated.
 580 0000 80B4     		push	{r7}
 581              	.LCFI17:
 582              		.cfi_def_cfa_offset 4
 583              		.cfi_offset 7, -4
 584 0002 85B0     		sub	sp, sp, #20
 585              	.LCFI18:
 586              		.cfi_def_cfa_offset 24
 587 0004 00AF     		add	r7, sp, #0
 588              	.LCFI19:
 589              		.cfi_def_cfa_register 7
 609:App/STM32F4-Discovery/Libraries/STM32F4xx_StdPeriph_Driver/src/stm32f4xx_rtc.c ****   __IO uint32_t synchrocounter = 0;
 590              		.loc 1 609 0
 591 0006 0023     		movs	r3, #0
 592 0008 7B60     		str	r3, [r7, #4]
 610:App/STM32F4-Discovery/Libraries/STM32F4xx_StdPeriph_Driver/src/stm32f4xx_rtc.c ****   ErrorStatus status = ERROR;
 593              		.loc 1 610 0
 594 000a 0023     		movs	r3, #0
 595 000c FB73     		strb	r3, [r7, #15]
 611:App/STM32F4-Discovery/Libraries/STM32F4xx_StdPeriph_Driver/src/stm32f4xx_rtc.c ****   uint32_t synchrostatus = 0x00;
 596              		.loc 1 611 0
 597 000e 0023     		movs	r3, #0
 598 0010 BB60     		str	r3, [r7, #8]
 612:App/STM32F4-Discovery/Libraries/STM32F4xx_StdPeriph_Driver/src/stm32f4xx_rtc.c **** 
 613:App/STM32F4-Discovery/Libraries/STM32F4xx_StdPeriph_Driver/src/stm32f4xx_rtc.c ****   /* Disable the write protection for RTC registers */
 614:App/STM32F4-Discovery/Libraries/STM32F4xx_StdPeriph_Driver/src/stm32f4xx_rtc.c ****   RTC->WPR = 0xCA;
 599              		.loc 1 614 0
 600 0012 184B     		ldr	r3, .L46
 601 0014 CA22     		movs	r2, #202
 602 0016 5A62     		str	r2, [r3, #36]
 615:App/STM32F4-Discovery/Libraries/STM32F4xx_StdPeriph_Driver/src/stm32f4xx_rtc.c ****   RTC->WPR = 0x53;
 603              		.loc 1 615 0
 604 0018 164B     		ldr	r3, .L46
 605 001a 5322     		movs	r2, #83
 606 001c 5A62     		str	r2, [r3, #36]
 616:App/STM32F4-Discovery/Libraries/STM32F4xx_StdPeriph_Driver/src/stm32f4xx_rtc.c ****     
 617:App/STM32F4-Discovery/Libraries/STM32F4xx_StdPeriph_Driver/src/stm32f4xx_rtc.c ****   /* Clear RSF flag */
 618:App/STM32F4-Discovery/Libraries/STM32F4xx_StdPeriph_Driver/src/stm32f4xx_rtc.c ****   RTC->ISR &= (uint32_t)RTC_RSF_MASK;
 607              		.loc 1 618 0
 608 001e 154B     		ldr	r3, .L46
 609 0020 144A     		ldr	r2, .L46
 610 0022 D268     		ldr	r2, [r2, #12]
 611 0024 22F0A002 		bic	r2, r2, #160
 612 0028 DA60     		str	r2, [r3, #12]
 613              	.L42:
 619:App/STM32F4-Discovery/Libraries/STM32F4xx_StdPeriph_Driver/src/stm32f4xx_rtc.c ****     
 620:App/STM32F4-Discovery/Libraries/STM32F4xx_StdPeriph_Driver/src/stm32f4xx_rtc.c ****   /* Wait the registers to be synchronised */
 621:App/STM32F4-Discovery/Libraries/STM32F4xx_StdPeriph_Driver/src/stm32f4xx_rtc.c ****   do
 622:App/STM32F4-Discovery/Libraries/STM32F4xx_StdPeriph_Driver/src/stm32f4xx_rtc.c ****   {
 623:App/STM32F4-Discovery/Libraries/STM32F4xx_StdPeriph_Driver/src/stm32f4xx_rtc.c ****     synchrostatus = RTC->ISR & RTC_ISR_RSF;
 614              		.loc 1 623 0 discriminator 1
 615 002a 124B     		ldr	r3, .L46
 616 002c DB68     		ldr	r3, [r3, #12]
 617 002e 03F02003 		and	r3, r3, #32
 618 0032 BB60     		str	r3, [r7, #8]
 624:App/STM32F4-Discovery/Libraries/STM32F4xx_StdPeriph_Driver/src/stm32f4xx_rtc.c ****     synchrocounter++;  
 619              		.loc 1 624 0 discriminator 1
 620 0034 7B68     		ldr	r3, [r7, #4]
 621 0036 0133     		adds	r3, r3, #1
 622 0038 7B60     		str	r3, [r7, #4]
 625:App/STM32F4-Discovery/Libraries/STM32F4xx_StdPeriph_Driver/src/stm32f4xx_rtc.c ****   } while((synchrocounter != SYNCHRO_TIMEOUT) && (synchrostatus == 0x00));
 623              		.loc 1 625 0 discriminator 1
 624 003a 7B68     		ldr	r3, [r7, #4]
 625 003c B3F5003F 		cmp	r3, #131072
 626 0040 02D0     		beq	.L41
 627 0042 BB68     		ldr	r3, [r7, #8]
 628 0044 002B     		cmp	r3, #0
 629 0046 F0D0     		beq	.L42
 630              	.L41:
 626:App/STM32F4-Discovery/Libraries/STM32F4xx_StdPeriph_Driver/src/stm32f4xx_rtc.c ****     
 627:App/STM32F4-Discovery/Libraries/STM32F4xx_StdPeriph_Driver/src/stm32f4xx_rtc.c ****   if ((RTC->ISR & RTC_ISR_RSF) != RESET)
 631              		.loc 1 627 0
 632 0048 0A4B     		ldr	r3, .L46
 633 004a DB68     		ldr	r3, [r3, #12]
 634 004c 03F02003 		and	r3, r3, #32
 635 0050 002B     		cmp	r3, #0
 636 0052 02D0     		beq	.L43
 628:App/STM32F4-Discovery/Libraries/STM32F4xx_StdPeriph_Driver/src/stm32f4xx_rtc.c ****   {
 629:App/STM32F4-Discovery/Libraries/STM32F4xx_StdPeriph_Driver/src/stm32f4xx_rtc.c ****     status = SUCCESS;
 637              		.loc 1 629 0
 638 0054 0123     		movs	r3, #1
 639 0056 FB73     		strb	r3, [r7, #15]
 640 0058 01E0     		b	.L44
 641              	.L43:
 630:App/STM32F4-Discovery/Libraries/STM32F4xx_StdPeriph_Driver/src/stm32f4xx_rtc.c ****   }
 631:App/STM32F4-Discovery/Libraries/STM32F4xx_StdPeriph_Driver/src/stm32f4xx_rtc.c ****   else
 632:App/STM32F4-Discovery/Libraries/STM32F4xx_StdPeriph_Driver/src/stm32f4xx_rtc.c ****   {
 633:App/STM32F4-Discovery/Libraries/STM32F4xx_StdPeriph_Driver/src/stm32f4xx_rtc.c ****     status = ERROR;
 642              		.loc 1 633 0
 643 005a 0023     		movs	r3, #0
 644 005c FB73     		strb	r3, [r7, #15]
 645              	.L44:
 634:App/STM32F4-Discovery/Libraries/STM32F4xx_StdPeriph_Driver/src/stm32f4xx_rtc.c ****   }        
 635:App/STM32F4-Discovery/Libraries/STM32F4xx_StdPeriph_Driver/src/stm32f4xx_rtc.c **** 
 636:App/STM32F4-Discovery/Libraries/STM32F4xx_StdPeriph_Driver/src/stm32f4xx_rtc.c ****   /* Enable the write protection for RTC registers */
 637:App/STM32F4-Discovery/Libraries/STM32F4xx_StdPeriph_Driver/src/stm32f4xx_rtc.c ****   RTC->WPR = 0xFF; 
 646              		.loc 1 637 0
 647 005e 054B     		ldr	r3, .L46
 648 0060 FF22     		movs	r2, #255
 649 0062 5A62     		str	r2, [r3, #36]
 638:App/STM32F4-Discovery/Libraries/STM32F4xx_StdPeriph_Driver/src/stm32f4xx_rtc.c ****     
 639:App/STM32F4-Discovery/Libraries/STM32F4xx_StdPeriph_Driver/src/stm32f4xx_rtc.c ****   return (status); 
 650              		.loc 1 639 0
 651 0064 FB7B     		ldrb	r3, [r7, #15]	@ zero_extendqisi2
 640:App/STM32F4-Discovery/Libraries/STM32F4xx_StdPeriph_Driver/src/stm32f4xx_rtc.c **** }
 652              		.loc 1 640 0
 653 0066 1846     		mov	r0, r3
 654 0068 1437     		adds	r7, r7, #20
 655 006a BD46     		mov	sp, r7
 656              		@ sp needed
 657 006c 5DF8047B 		ldr	r7, [sp], #4
 658 0070 7047     		bx	lr
 659              	.L47:
 660 0072 00BF     		.align	2
 661              	.L46:
 662 0074 00280040 		.word	1073752064
 663              		.cfi_endproc
 664              	.LFE116:
 666              		.section	.text.RTC_RefClockCmd,"ax",%progbits
 667              		.align	2
 668              		.global	RTC_RefClockCmd
 669              		.thumb
 670              		.thumb_func
 672              	RTC_RefClockCmd:
 673              	.LFB117:
 641:App/STM32F4-Discovery/Libraries/STM32F4xx_StdPeriph_Driver/src/stm32f4xx_rtc.c **** 
 642:App/STM32F4-Discovery/Libraries/STM32F4xx_StdPeriph_Driver/src/stm32f4xx_rtc.c **** /**
 643:App/STM32F4-Discovery/Libraries/STM32F4xx_StdPeriph_Driver/src/stm32f4xx_rtc.c ****   * @brief  Enables or disables the RTC reference clock detection.
 644:App/STM32F4-Discovery/Libraries/STM32F4xx_StdPeriph_Driver/src/stm32f4xx_rtc.c ****   * @param  NewState: new state of the RTC reference clock.
 645:App/STM32F4-Discovery/Libraries/STM32F4xx_StdPeriph_Driver/src/stm32f4xx_rtc.c ****   *          This parameter can be: ENABLE or DISABLE.
 646:App/STM32F4-Discovery/Libraries/STM32F4xx_StdPeriph_Driver/src/stm32f4xx_rtc.c ****   * @retval An ErrorStatus enumeration value:
 647:App/STM32F4-Discovery/Libraries/STM32F4xx_StdPeriph_Driver/src/stm32f4xx_rtc.c ****   *          - SUCCESS: RTC reference clock detection is enabled
 648:App/STM32F4-Discovery/Libraries/STM32F4xx_StdPeriph_Driver/src/stm32f4xx_rtc.c ****   *          - ERROR: RTC reference clock detection is disabled  
 649:App/STM32F4-Discovery/Libraries/STM32F4xx_StdPeriph_Driver/src/stm32f4xx_rtc.c ****   */
 650:App/STM32F4-Discovery/Libraries/STM32F4xx_StdPeriph_Driver/src/stm32f4xx_rtc.c **** ErrorStatus RTC_RefClockCmd(FunctionalState NewState)
 651:App/STM32F4-Discovery/Libraries/STM32F4xx_StdPeriph_Driver/src/stm32f4xx_rtc.c **** { 
 674              		.loc 1 651 0
 675              		.cfi_startproc
 676              		@ args = 0, pretend = 0, frame = 16
 677              		@ frame_needed = 1, uses_anonymous_args = 0
 678 0000 80B5     		push	{r7, lr}
 679              	.LCFI20:
 680              		.cfi_def_cfa_offset 8
 681              		.cfi_offset 7, -8
 682              		.cfi_offset 14, -4
 683 0002 84B0     		sub	sp, sp, #16
 684              	.LCFI21:
 685              		.cfi_def_cfa_offset 24
 686 0004 00AF     		add	r7, sp, #0
 687              	.LCFI22:
 688              		.cfi_def_cfa_register 7
 689 0006 0346     		mov	r3, r0
 690 0008 FB71     		strb	r3, [r7, #7]
 652:App/STM32F4-Discovery/Libraries/STM32F4xx_StdPeriph_Driver/src/stm32f4xx_rtc.c ****   ErrorStatus status = ERROR;
 691              		.loc 1 652 0
 692 000a 0023     		movs	r3, #0
 693 000c FB73     		strb	r3, [r7, #15]
 653:App/STM32F4-Discovery/Libraries/STM32F4xx_StdPeriph_Driver/src/stm32f4xx_rtc.c ****   
 654:App/STM32F4-Discovery/Libraries/STM32F4xx_StdPeriph_Driver/src/stm32f4xx_rtc.c ****   /* Check the parameters */
 655:App/STM32F4-Discovery/Libraries/STM32F4xx_StdPeriph_Driver/src/stm32f4xx_rtc.c ****   assert_param(IS_FUNCTIONAL_STATE(NewState));
 694              		.loc 1 655 0
 695 000e FB79     		ldrb	r3, [r7, #7]	@ zero_extendqisi2
 696 0010 002B     		cmp	r3, #0
 697 0012 07D0     		beq	.L49
 698              		.loc 1 655 0 is_stmt 0 discriminator 1
 699 0014 FB79     		ldrb	r3, [r7, #7]	@ zero_extendqisi2
 700 0016 012B     		cmp	r3, #1
 701 0018 04D0     		beq	.L49
 702 001a 1748     		ldr	r0, .L55
 703 001c 40F28F21 		movw	r1, #655
 704 0020 FFF7FEFF 		bl	assert_failed
 705              	.L49:
 656:App/STM32F4-Discovery/Libraries/STM32F4xx_StdPeriph_Driver/src/stm32f4xx_rtc.c ****   
 657:App/STM32F4-Discovery/Libraries/STM32F4xx_StdPeriph_Driver/src/stm32f4xx_rtc.c ****   /* Disable the write protection for RTC registers */
 658:App/STM32F4-Discovery/Libraries/STM32F4xx_StdPeriph_Driver/src/stm32f4xx_rtc.c ****   RTC->WPR = 0xCA;
 706              		.loc 1 658 0 is_stmt 1
 707 0024 154B     		ldr	r3, .L55+4
 708 0026 CA22     		movs	r2, #202
 709 0028 5A62     		str	r2, [r3, #36]
 659:App/STM32F4-Discovery/Libraries/STM32F4xx_StdPeriph_Driver/src/stm32f4xx_rtc.c ****   RTC->WPR = 0x53;
 710              		.loc 1 659 0
 711 002a 144B     		ldr	r3, .L55+4
 712 002c 5322     		movs	r2, #83
 713 002e 5A62     		str	r2, [r3, #36]
 660:App/STM32F4-Discovery/Libraries/STM32F4xx_StdPeriph_Driver/src/stm32f4xx_rtc.c ****     
 661:App/STM32F4-Discovery/Libraries/STM32F4xx_StdPeriph_Driver/src/stm32f4xx_rtc.c ****   /* Set Initialization mode */
 662:App/STM32F4-Discovery/Libraries/STM32F4xx_StdPeriph_Driver/src/stm32f4xx_rtc.c ****   if (RTC_EnterInitMode() == ERROR)
 714              		.loc 1 662 0
 715 0030 FFF7FEFF 		bl	RTC_EnterInitMode
 716 0034 0346     		mov	r3, r0
 717 0036 002B     		cmp	r3, #0
 718 0038 02D1     		bne	.L50
 663:App/STM32F4-Discovery/Libraries/STM32F4xx_StdPeriph_Driver/src/stm32f4xx_rtc.c ****   {
 664:App/STM32F4-Discovery/Libraries/STM32F4xx_StdPeriph_Driver/src/stm32f4xx_rtc.c ****     status = ERROR;
 719              		.loc 1 664 0
 720 003a 0023     		movs	r3, #0
 721 003c FB73     		strb	r3, [r7, #15]
 722 003e 13E0     		b	.L51
 723              	.L50:
 665:App/STM32F4-Discovery/Libraries/STM32F4xx_StdPeriph_Driver/src/stm32f4xx_rtc.c ****   } 
 666:App/STM32F4-Discovery/Libraries/STM32F4xx_StdPeriph_Driver/src/stm32f4xx_rtc.c ****   else
 667:App/STM32F4-Discovery/Libraries/STM32F4xx_StdPeriph_Driver/src/stm32f4xx_rtc.c ****   {  
 668:App/STM32F4-Discovery/Libraries/STM32F4xx_StdPeriph_Driver/src/stm32f4xx_rtc.c ****     if (NewState != DISABLE)
 724              		.loc 1 668 0
 725 0040 FB79     		ldrb	r3, [r7, #7]	@ zero_extendqisi2
 726 0042 002B     		cmp	r3, #0
 727 0044 06D0     		beq	.L52
 669:App/STM32F4-Discovery/Libraries/STM32F4xx_StdPeriph_Driver/src/stm32f4xx_rtc.c ****     {
 670:App/STM32F4-Discovery/Libraries/STM32F4xx_StdPeriph_Driver/src/stm32f4xx_rtc.c ****       /* Enable the RTC reference clock detection */
 671:App/STM32F4-Discovery/Libraries/STM32F4xx_StdPeriph_Driver/src/stm32f4xx_rtc.c ****       RTC->CR |= RTC_CR_REFCKON;   
 728              		.loc 1 671 0
 729 0046 0D4B     		ldr	r3, .L55+4
 730 0048 0C4A     		ldr	r2, .L55+4
 731 004a 9268     		ldr	r2, [r2, #8]
 732 004c 42F01002 		orr	r2, r2, #16
 733 0050 9A60     		str	r2, [r3, #8]
 734 0052 05E0     		b	.L53
 735              	.L52:
 672:App/STM32F4-Discovery/Libraries/STM32F4xx_StdPeriph_Driver/src/stm32f4xx_rtc.c ****     }
 673:App/STM32F4-Discovery/Libraries/STM32F4xx_StdPeriph_Driver/src/stm32f4xx_rtc.c ****     else
 674:App/STM32F4-Discovery/Libraries/STM32F4xx_StdPeriph_Driver/src/stm32f4xx_rtc.c ****     {
 675:App/STM32F4-Discovery/Libraries/STM32F4xx_StdPeriph_Driver/src/stm32f4xx_rtc.c ****       /* Disable the RTC reference clock detection */
 676:App/STM32F4-Discovery/Libraries/STM32F4xx_StdPeriph_Driver/src/stm32f4xx_rtc.c ****       RTC->CR &= ~RTC_CR_REFCKON;    
 736              		.loc 1 676 0
 737 0054 094B     		ldr	r3, .L55+4
 738 0056 094A     		ldr	r2, .L55+4
 739 0058 9268     		ldr	r2, [r2, #8]
 740 005a 22F01002 		bic	r2, r2, #16
 741 005e 9A60     		str	r2, [r3, #8]
 742              	.L53:
 677:App/STM32F4-Discovery/Libraries/STM32F4xx_StdPeriph_Driver/src/stm32f4xx_rtc.c ****     }
 678:App/STM32F4-Discovery/Libraries/STM32F4xx_StdPeriph_Driver/src/stm32f4xx_rtc.c ****     /* Exit Initialization mode */
 679:App/STM32F4-Discovery/Libraries/STM32F4xx_StdPeriph_Driver/src/stm32f4xx_rtc.c ****     RTC_ExitInitMode();
 743              		.loc 1 679 0
 744 0060 FFF7FEFF 		bl	RTC_ExitInitMode
 680:App/STM32F4-Discovery/Libraries/STM32F4xx_StdPeriph_Driver/src/stm32f4xx_rtc.c ****     
 681:App/STM32F4-Discovery/Libraries/STM32F4xx_StdPeriph_Driver/src/stm32f4xx_rtc.c ****     status = SUCCESS;
 745              		.loc 1 681 0
 746 0064 0123     		movs	r3, #1
 747 0066 FB73     		strb	r3, [r7, #15]
 748              	.L51:
 682:App/STM32F4-Discovery/Libraries/STM32F4xx_StdPeriph_Driver/src/stm32f4xx_rtc.c ****   }
 683:App/STM32F4-Discovery/Libraries/STM32F4xx_StdPeriph_Driver/src/stm32f4xx_rtc.c ****   
 684:App/STM32F4-Discovery/Libraries/STM32F4xx_StdPeriph_Driver/src/stm32f4xx_rtc.c ****   /* Enable the write protection for RTC registers */
 685:App/STM32F4-Discovery/Libraries/STM32F4xx_StdPeriph_Driver/src/stm32f4xx_rtc.c ****   RTC->WPR = 0xFF;  
 749              		.loc 1 685 0
 750 0068 044B     		ldr	r3, .L55+4
 751 006a FF22     		movs	r2, #255
 752 006c 5A62     		str	r2, [r3, #36]
 686:App/STM32F4-Discovery/Libraries/STM32F4xx_StdPeriph_Driver/src/stm32f4xx_rtc.c ****   
 687:App/STM32F4-Discovery/Libraries/STM32F4xx_StdPeriph_Driver/src/stm32f4xx_rtc.c ****   return status; 
 753              		.loc 1 687 0
 754 006e FB7B     		ldrb	r3, [r7, #15]	@ zero_extendqisi2
 688:App/STM32F4-Discovery/Libraries/STM32F4xx_StdPeriph_Driver/src/stm32f4xx_rtc.c **** }
 755              		.loc 1 688 0
 756 0070 1846     		mov	r0, r3
 757 0072 1037     		adds	r7, r7, #16
 758 0074 BD46     		mov	sp, r7
 759              		@ sp needed
 760 0076 80BD     		pop	{r7, pc}
 761              	.L56:
 762              		.align	2
 763              	.L55:
 764 0078 00000000 		.word	.LC0
 765 007c 00280040 		.word	1073752064
 766              		.cfi_endproc
 767              	.LFE117:
 769              		.section	.text.RTC_BypassShadowCmd,"ax",%progbits
 770              		.align	2
 771              		.global	RTC_BypassShadowCmd
 772              		.thumb
 773              		.thumb_func
 775              	RTC_BypassShadowCmd:
 776              	.LFB118:
 689:App/STM32F4-Discovery/Libraries/STM32F4xx_StdPeriph_Driver/src/stm32f4xx_rtc.c **** 
 690:App/STM32F4-Discovery/Libraries/STM32F4xx_StdPeriph_Driver/src/stm32f4xx_rtc.c **** /**
 691:App/STM32F4-Discovery/Libraries/STM32F4xx_StdPeriph_Driver/src/stm32f4xx_rtc.c ****   * @brief  Enables or Disables the Bypass Shadow feature.
 692:App/STM32F4-Discovery/Libraries/STM32F4xx_StdPeriph_Driver/src/stm32f4xx_rtc.c ****   * @note   When the Bypass Shadow is enabled the calendar value are taken 
 693:App/STM32F4-Discovery/Libraries/STM32F4xx_StdPeriph_Driver/src/stm32f4xx_rtc.c ****   *         directly from the Calendar counter.
 694:App/STM32F4-Discovery/Libraries/STM32F4xx_StdPeriph_Driver/src/stm32f4xx_rtc.c ****   * @param  NewState: new state of the Bypass Shadow feature.
 695:App/STM32F4-Discovery/Libraries/STM32F4xx_StdPeriph_Driver/src/stm32f4xx_rtc.c ****   *         This parameter can be: ENABLE or DISABLE.
 696:App/STM32F4-Discovery/Libraries/STM32F4xx_StdPeriph_Driver/src/stm32f4xx_rtc.c ****   * @retval None
 697:App/STM32F4-Discovery/Libraries/STM32F4xx_StdPeriph_Driver/src/stm32f4xx_rtc.c **** */
 698:App/STM32F4-Discovery/Libraries/STM32F4xx_StdPeriph_Driver/src/stm32f4xx_rtc.c **** void RTC_BypassShadowCmd(FunctionalState NewState)
 699:App/STM32F4-Discovery/Libraries/STM32F4xx_StdPeriph_Driver/src/stm32f4xx_rtc.c **** {
 777              		.loc 1 699 0
 778              		.cfi_startproc
 779              		@ args = 0, pretend = 0, frame = 8
 780              		@ frame_needed = 1, uses_anonymous_args = 0
 781 0000 80B5     		push	{r7, lr}
 782              	.LCFI23:
 783              		.cfi_def_cfa_offset 8
 784              		.cfi_offset 7, -8
 785              		.cfi_offset 14, -4
 786 0002 82B0     		sub	sp, sp, #8
 787              	.LCFI24:
 788              		.cfi_def_cfa_offset 16
 789 0004 00AF     		add	r7, sp, #0
 790              	.LCFI25:
 791              		.cfi_def_cfa_register 7
 792 0006 0346     		mov	r3, r0
 793 0008 FB71     		strb	r3, [r7, #7]
 700:App/STM32F4-Discovery/Libraries/STM32F4xx_StdPeriph_Driver/src/stm32f4xx_rtc.c ****   /* Check the parameters */
 701:App/STM32F4-Discovery/Libraries/STM32F4xx_StdPeriph_Driver/src/stm32f4xx_rtc.c ****   assert_param(IS_FUNCTIONAL_STATE(NewState));
 794              		.loc 1 701 0
 795 000a FB79     		ldrb	r3, [r7, #7]	@ zero_extendqisi2
 796 000c 002B     		cmp	r3, #0
 797 000e 07D0     		beq	.L58
 798              		.loc 1 701 0 is_stmt 0 discriminator 1
 799 0010 FB79     		ldrb	r3, [r7, #7]	@ zero_extendqisi2
 800 0012 012B     		cmp	r3, #1
 801 0014 04D0     		beq	.L58
 802 0016 1048     		ldr	r0, .L61
 803 0018 40F2BD21 		movw	r1, #701
 804 001c FFF7FEFF 		bl	assert_failed
 805              	.L58:
 702:App/STM32F4-Discovery/Libraries/STM32F4xx_StdPeriph_Driver/src/stm32f4xx_rtc.c **** 
 703:App/STM32F4-Discovery/Libraries/STM32F4xx_StdPeriph_Driver/src/stm32f4xx_rtc.c ****   /* Disable the write protection for RTC registers */
 704:App/STM32F4-Discovery/Libraries/STM32F4xx_StdPeriph_Driver/src/stm32f4xx_rtc.c ****   RTC->WPR = 0xCA;
 806              		.loc 1 704 0 is_stmt 1
 807 0020 0E4B     		ldr	r3, .L61+4
 808 0022 CA22     		movs	r2, #202
 809 0024 5A62     		str	r2, [r3, #36]
 705:App/STM32F4-Discovery/Libraries/STM32F4xx_StdPeriph_Driver/src/stm32f4xx_rtc.c ****   RTC->WPR = 0x53;
 810              		.loc 1 705 0
 811 0026 0D4B     		ldr	r3, .L61+4
 812 0028 5322     		movs	r2, #83
 813 002a 5A62     		str	r2, [r3, #36]
 706:App/STM32F4-Discovery/Libraries/STM32F4xx_StdPeriph_Driver/src/stm32f4xx_rtc.c ****   
 707:App/STM32F4-Discovery/Libraries/STM32F4xx_StdPeriph_Driver/src/stm32f4xx_rtc.c ****   if (NewState != DISABLE)
 814              		.loc 1 707 0
 815 002c FB79     		ldrb	r3, [r7, #7]	@ zero_extendqisi2
 816 002e 002B     		cmp	r3, #0
 817 0030 06D0     		beq	.L59
 708:App/STM32F4-Discovery/Libraries/STM32F4xx_StdPeriph_Driver/src/stm32f4xx_rtc.c ****   {
 709:App/STM32F4-Discovery/Libraries/STM32F4xx_StdPeriph_Driver/src/stm32f4xx_rtc.c ****     /* Set the BYPSHAD bit */
 710:App/STM32F4-Discovery/Libraries/STM32F4xx_StdPeriph_Driver/src/stm32f4xx_rtc.c ****     RTC->CR |= (uint8_t)RTC_CR_BYPSHAD;
 818              		.loc 1 710 0
 819 0032 0A4B     		ldr	r3, .L61+4
 820 0034 094A     		ldr	r2, .L61+4
 821 0036 9268     		ldr	r2, [r2, #8]
 822 0038 42F02002 		orr	r2, r2, #32
 823 003c 9A60     		str	r2, [r3, #8]
 824 003e 05E0     		b	.L60
 825              	.L59:
 711:App/STM32F4-Discovery/Libraries/STM32F4xx_StdPeriph_Driver/src/stm32f4xx_rtc.c ****   }
 712:App/STM32F4-Discovery/Libraries/STM32F4xx_StdPeriph_Driver/src/stm32f4xx_rtc.c ****   else
 713:App/STM32F4-Discovery/Libraries/STM32F4xx_StdPeriph_Driver/src/stm32f4xx_rtc.c ****   {
 714:App/STM32F4-Discovery/Libraries/STM32F4xx_StdPeriph_Driver/src/stm32f4xx_rtc.c ****     /* Reset the BYPSHAD bit */
 715:App/STM32F4-Discovery/Libraries/STM32F4xx_StdPeriph_Driver/src/stm32f4xx_rtc.c ****     RTC->CR &= (uint8_t)~RTC_CR_BYPSHAD;
 826              		.loc 1 715 0
 827 0040 064B     		ldr	r3, .L61+4
 828 0042 064A     		ldr	r2, .L61+4
 829 0044 9268     		ldr	r2, [r2, #8]
 830 0046 02F0DF02 		and	r2, r2, #223
 831 004a 9A60     		str	r2, [r3, #8]
 832              	.L60:
 716:App/STM32F4-Discovery/Libraries/STM32F4xx_StdPeriph_Driver/src/stm32f4xx_rtc.c ****   }
 717:App/STM32F4-Discovery/Libraries/STM32F4xx_StdPeriph_Driver/src/stm32f4xx_rtc.c **** 
 718:App/STM32F4-Discovery/Libraries/STM32F4xx_StdPeriph_Driver/src/stm32f4xx_rtc.c ****   /* Enable the write protection for RTC registers */
 719:App/STM32F4-Discovery/Libraries/STM32F4xx_StdPeriph_Driver/src/stm32f4xx_rtc.c ****   RTC->WPR = 0xFF;
 833              		.loc 1 719 0
 834 004c 034B     		ldr	r3, .L61+4
 835 004e FF22     		movs	r2, #255
 836 0050 5A62     		str	r2, [r3, #36]
 720:App/STM32F4-Discovery/Libraries/STM32F4xx_StdPeriph_Driver/src/stm32f4xx_rtc.c **** }
 837              		.loc 1 720 0
 838 0052 0837     		adds	r7, r7, #8
 839 0054 BD46     		mov	sp, r7
 840              		@ sp needed
 841 0056 80BD     		pop	{r7, pc}
 842              	.L62:
 843              		.align	2
 844              	.L61:
 845 0058 00000000 		.word	.LC0
 846 005c 00280040 		.word	1073752064
 847              		.cfi_endproc
 848              	.LFE118:
 850              		.section	.text.RTC_SetTime,"ax",%progbits
 851              		.align	2
 852              		.global	RTC_SetTime
 853              		.thumb
 854              		.thumb_func
 856              	RTC_SetTime:
 857              	.LFB119:
 721:App/STM32F4-Discovery/Libraries/STM32F4xx_StdPeriph_Driver/src/stm32f4xx_rtc.c **** 
 722:App/STM32F4-Discovery/Libraries/STM32F4xx_StdPeriph_Driver/src/stm32f4xx_rtc.c **** /**
 723:App/STM32F4-Discovery/Libraries/STM32F4xx_StdPeriph_Driver/src/stm32f4xx_rtc.c ****   * @}
 724:App/STM32F4-Discovery/Libraries/STM32F4xx_StdPeriph_Driver/src/stm32f4xx_rtc.c ****   */
 725:App/STM32F4-Discovery/Libraries/STM32F4xx_StdPeriph_Driver/src/stm32f4xx_rtc.c **** 
 726:App/STM32F4-Discovery/Libraries/STM32F4xx_StdPeriph_Driver/src/stm32f4xx_rtc.c **** /** @defgroup RTC_Group2 Time and Date configuration functions
 727:App/STM32F4-Discovery/Libraries/STM32F4xx_StdPeriph_Driver/src/stm32f4xx_rtc.c ****  *  @brief   Time and Date configuration functions 
 728:App/STM32F4-Discovery/Libraries/STM32F4xx_StdPeriph_Driver/src/stm32f4xx_rtc.c ****  *
 729:App/STM32F4-Discovery/Libraries/STM32F4xx_StdPeriph_Driver/src/stm32f4xx_rtc.c **** @verbatim   
 730:App/STM32F4-Discovery/Libraries/STM32F4xx_StdPeriph_Driver/src/stm32f4xx_rtc.c ****  ===============================================================================
 731:App/STM32F4-Discovery/Libraries/STM32F4xx_StdPeriph_Driver/src/stm32f4xx_rtc.c ****                    Time and Date configuration functions
 732:App/STM32F4-Discovery/Libraries/STM32F4xx_StdPeriph_Driver/src/stm32f4xx_rtc.c ****  ===============================================================================  
 733:App/STM32F4-Discovery/Libraries/STM32F4xx_StdPeriph_Driver/src/stm32f4xx_rtc.c **** 
 734:App/STM32F4-Discovery/Libraries/STM32F4xx_StdPeriph_Driver/src/stm32f4xx_rtc.c ****   This section provide functions allowing to program and read the RTC Calendar
 735:App/STM32F4-Discovery/Libraries/STM32F4xx_StdPeriph_Driver/src/stm32f4xx_rtc.c ****   (Time and Date).
 736:App/STM32F4-Discovery/Libraries/STM32F4xx_StdPeriph_Driver/src/stm32f4xx_rtc.c **** 
 737:App/STM32F4-Discovery/Libraries/STM32F4xx_StdPeriph_Driver/src/stm32f4xx_rtc.c **** @endverbatim
 738:App/STM32F4-Discovery/Libraries/STM32F4xx_StdPeriph_Driver/src/stm32f4xx_rtc.c ****   * @{
 739:App/STM32F4-Discovery/Libraries/STM32F4xx_StdPeriph_Driver/src/stm32f4xx_rtc.c ****   */
 740:App/STM32F4-Discovery/Libraries/STM32F4xx_StdPeriph_Driver/src/stm32f4xx_rtc.c **** 
 741:App/STM32F4-Discovery/Libraries/STM32F4xx_StdPeriph_Driver/src/stm32f4xx_rtc.c **** /**
 742:App/STM32F4-Discovery/Libraries/STM32F4xx_StdPeriph_Driver/src/stm32f4xx_rtc.c ****   * @brief  Set the RTC current time.
 743:App/STM32F4-Discovery/Libraries/STM32F4xx_StdPeriph_Driver/src/stm32f4xx_rtc.c ****   * @param  RTC_Format: specifies the format of the entered parameters.
 744:App/STM32F4-Discovery/Libraries/STM32F4xx_StdPeriph_Driver/src/stm32f4xx_rtc.c ****   *          This parameter can be  one of the following values:
 745:App/STM32F4-Discovery/Libraries/STM32F4xx_StdPeriph_Driver/src/stm32f4xx_rtc.c ****   *            @arg RTC_Format_BIN:  Binary data format 
 746:App/STM32F4-Discovery/Libraries/STM32F4xx_StdPeriph_Driver/src/stm32f4xx_rtc.c ****   *            @arg RTC_Format_BCD:  BCD data format
 747:App/STM32F4-Discovery/Libraries/STM32F4xx_StdPeriph_Driver/src/stm32f4xx_rtc.c ****   * @param  RTC_TimeStruct: pointer to a RTC_TimeTypeDef structure that contains 
 748:App/STM32F4-Discovery/Libraries/STM32F4xx_StdPeriph_Driver/src/stm32f4xx_rtc.c ****   *                        the time configuration information for the RTC.     
 749:App/STM32F4-Discovery/Libraries/STM32F4xx_StdPeriph_Driver/src/stm32f4xx_rtc.c ****   * @retval An ErrorStatus enumeration value:
 750:App/STM32F4-Discovery/Libraries/STM32F4xx_StdPeriph_Driver/src/stm32f4xx_rtc.c ****   *          - SUCCESS: RTC Time register is configured
 751:App/STM32F4-Discovery/Libraries/STM32F4xx_StdPeriph_Driver/src/stm32f4xx_rtc.c ****   *          - ERROR: RTC Time register is not configured
 752:App/STM32F4-Discovery/Libraries/STM32F4xx_StdPeriph_Driver/src/stm32f4xx_rtc.c ****   */
 753:App/STM32F4-Discovery/Libraries/STM32F4xx_StdPeriph_Driver/src/stm32f4xx_rtc.c **** ErrorStatus RTC_SetTime(uint32_t RTC_Format, RTC_TimeTypeDef* RTC_TimeStruct)
 754:App/STM32F4-Discovery/Libraries/STM32F4xx_StdPeriph_Driver/src/stm32f4xx_rtc.c **** {
 858              		.loc 1 754 0
 859              		.cfi_startproc
 860              		@ args = 0, pretend = 0, frame = 16
 861              		@ frame_needed = 1, uses_anonymous_args = 0
 862 0000 90B5     		push	{r4, r7, lr}
 863              	.LCFI26:
 864              		.cfi_def_cfa_offset 12
 865              		.cfi_offset 4, -12
 866              		.cfi_offset 7, -8
 867              		.cfi_offset 14, -4
 868 0002 85B0     		sub	sp, sp, #20
 869              	.LCFI27:
 870              		.cfi_def_cfa_offset 32
 871 0004 00AF     		add	r7, sp, #0
 872              	.LCFI28:
 873              		.cfi_def_cfa_register 7
 874 0006 7860     		str	r0, [r7, #4]
 875 0008 3960     		str	r1, [r7]
 755:App/STM32F4-Discovery/Libraries/STM32F4xx_StdPeriph_Driver/src/stm32f4xx_rtc.c ****   uint32_t tmpreg = 0;
 876              		.loc 1 755 0
 877 000a 0023     		movs	r3, #0
 878 000c FB60     		str	r3, [r7, #12]
 756:App/STM32F4-Discovery/Libraries/STM32F4xx_StdPeriph_Driver/src/stm32f4xx_rtc.c ****   ErrorStatus status = ERROR;
 879              		.loc 1 756 0
 880 000e 0023     		movs	r3, #0
 881 0010 FB72     		strb	r3, [r7, #11]
 757:App/STM32F4-Discovery/Libraries/STM32F4xx_StdPeriph_Driver/src/stm32f4xx_rtc.c ****     
 758:App/STM32F4-Discovery/Libraries/STM32F4xx_StdPeriph_Driver/src/stm32f4xx_rtc.c ****   /* Check the parameters */
 759:App/STM32F4-Discovery/Libraries/STM32F4xx_StdPeriph_Driver/src/stm32f4xx_rtc.c ****   assert_param(IS_RTC_FORMAT(RTC_Format));
 882              		.loc 1 759 0
 883 0012 7B68     		ldr	r3, [r7, #4]
 884 0014 002B     		cmp	r3, #0
 885 0016 07D0     		beq	.L64
 886              		.loc 1 759 0 is_stmt 0 discriminator 1
 887 0018 7B68     		ldr	r3, [r7, #4]
 888 001a 012B     		cmp	r3, #1
 889 001c 04D0     		beq	.L64
 890 001e 7848     		ldr	r0, .L83
 891 0020 40F2F721 		movw	r1, #759
 892 0024 FFF7FEFF 		bl	assert_failed
 893              	.L64:
 760:App/STM32F4-Discovery/Libraries/STM32F4xx_StdPeriph_Driver/src/stm32f4xx_rtc.c ****   
 761:App/STM32F4-Discovery/Libraries/STM32F4xx_StdPeriph_Driver/src/stm32f4xx_rtc.c ****   if (RTC_Format == RTC_Format_BIN)
 894              		.loc 1 761 0 is_stmt 1
 895 0028 7B68     		ldr	r3, [r7, #4]
 896 002a 002B     		cmp	r3, #0
 897 002c 3FD1     		bne	.L65
 762:App/STM32F4-Discovery/Libraries/STM32F4xx_StdPeriph_Driver/src/stm32f4xx_rtc.c ****   {
 763:App/STM32F4-Discovery/Libraries/STM32F4xx_StdPeriph_Driver/src/stm32f4xx_rtc.c ****     if ((RTC->CR & RTC_CR_FMT) != (uint32_t)RESET)
 898              		.loc 1 763 0
 899 002e 754B     		ldr	r3, .L83+4
 900 0030 9B68     		ldr	r3, [r3, #8]
 901 0032 03F04003 		and	r3, r3, #64
 902 0036 002B     		cmp	r3, #0
 903 0038 1AD0     		beq	.L66
 764:App/STM32F4-Discovery/Libraries/STM32F4xx_StdPeriph_Driver/src/stm32f4xx_rtc.c ****     {
 765:App/STM32F4-Discovery/Libraries/STM32F4xx_StdPeriph_Driver/src/stm32f4xx_rtc.c ****       assert_param(IS_RTC_HOUR12(RTC_TimeStruct->RTC_Hours));
 904              		.loc 1 765 0
 905 003a 3B68     		ldr	r3, [r7]
 906 003c 1B78     		ldrb	r3, [r3]	@ zero_extendqisi2
 907 003e 002B     		cmp	r3, #0
 908 0040 03D0     		beq	.L67
 909              		.loc 1 765 0 is_stmt 0 discriminator 2
 910 0042 3B68     		ldr	r3, [r7]
 911 0044 1B78     		ldrb	r3, [r3]	@ zero_extendqisi2
 912 0046 0C2B     		cmp	r3, #12
 913 0048 04D9     		bls	.L68
 914              	.L67:
 915              		.loc 1 765 0 discriminator 1
 916 004a 6D48     		ldr	r0, .L83
 917 004c 40F2FD21 		movw	r1, #765
 918 0050 FFF7FEFF 		bl	assert_failed
 919              	.L68:
 766:App/STM32F4-Discovery/Libraries/STM32F4xx_StdPeriph_Driver/src/stm32f4xx_rtc.c ****       assert_param(IS_RTC_H12(RTC_TimeStruct->RTC_H12));
 920              		.loc 1 766 0 is_stmt 1
 921 0054 3B68     		ldr	r3, [r7]
 922 0056 DB78     		ldrb	r3, [r3, #3]	@ zero_extendqisi2
 923 0058 002B     		cmp	r3, #0
 924 005a 15D0     		beq	.L69
 925              		.loc 1 766 0 is_stmt 0 discriminator 1
 926 005c 3B68     		ldr	r3, [r7]
 927 005e DB78     		ldrb	r3, [r3, #3]	@ zero_extendqisi2
 928 0060 402B     		cmp	r3, #64
 929 0062 11D0     		beq	.L69
 930 0064 6648     		ldr	r0, .L83
 931 0066 40F2FE21 		movw	r1, #766
 932 006a FFF7FEFF 		bl	assert_failed
 933 006e 0BE0     		b	.L69
 934              	.L66:
 767:App/STM32F4-Discovery/Libraries/STM32F4xx_StdPeriph_Driver/src/stm32f4xx_rtc.c ****     } 
 768:App/STM32F4-Discovery/Libraries/STM32F4xx_StdPeriph_Driver/src/stm32f4xx_rtc.c ****     else
 769:App/STM32F4-Discovery/Libraries/STM32F4xx_StdPeriph_Driver/src/stm32f4xx_rtc.c ****     {
 770:App/STM32F4-Discovery/Libraries/STM32F4xx_StdPeriph_Driver/src/stm32f4xx_rtc.c ****       RTC_TimeStruct->RTC_H12 = 0x00;
 935              		.loc 1 770 0 is_stmt 1
 936 0070 3B68     		ldr	r3, [r7]
 937 0072 0022     		movs	r2, #0
 938 0074 DA70     		strb	r2, [r3, #3]
 771:App/STM32F4-Discovery/Libraries/STM32F4xx_StdPeriph_Driver/src/stm32f4xx_rtc.c ****       assert_param(IS_RTC_HOUR24(RTC_TimeStruct->RTC_Hours));
 939              		.loc 1 771 0
 940 0076 3B68     		ldr	r3, [r7]
 941 0078 1B78     		ldrb	r3, [r3]	@ zero_extendqisi2
 942 007a 172B     		cmp	r3, #23
 943 007c 04D9     		bls	.L69
 944              		.loc 1 771 0 is_stmt 0 discriminator 1
 945 007e 6048     		ldr	r0, .L83
 946 0080 40F20331 		movw	r1, #771
 947 0084 FFF7FEFF 		bl	assert_failed
 948              	.L69:
 772:App/STM32F4-Discovery/Libraries/STM32F4xx_StdPeriph_Driver/src/stm32f4xx_rtc.c ****     }
 773:App/STM32F4-Discovery/Libraries/STM32F4xx_StdPeriph_Driver/src/stm32f4xx_rtc.c ****     assert_param(IS_RTC_MINUTES(RTC_TimeStruct->RTC_Minutes));
 949              		.loc 1 773 0 is_stmt 1
 950 0088 3B68     		ldr	r3, [r7]
 951 008a 5B78     		ldrb	r3, [r3, #1]	@ zero_extendqisi2
 952 008c 3B2B     		cmp	r3, #59
 953 008e 04D9     		bls	.L70
 954              		.loc 1 773 0 is_stmt 0 discriminator 1
 955 0090 5B48     		ldr	r0, .L83
 956 0092 40F20531 		movw	r1, #773
 957 0096 FFF7FEFF 		bl	assert_failed
 958              	.L70:
 774:App/STM32F4-Discovery/Libraries/STM32F4xx_StdPeriph_Driver/src/stm32f4xx_rtc.c ****     assert_param(IS_RTC_SECONDS(RTC_TimeStruct->RTC_Seconds));
 959              		.loc 1 774 0 is_stmt 1
 960 009a 3B68     		ldr	r3, [r7]
 961 009c 9B78     		ldrb	r3, [r3, #2]	@ zero_extendqisi2
 962 009e 3B2B     		cmp	r3, #59
 963 00a0 55D9     		bls	.L71
 964              		.loc 1 774 0 is_stmt 0 discriminator 1
 965 00a2 5748     		ldr	r0, .L83
 966 00a4 40F20631 		movw	r1, #774
 967 00a8 FFF7FEFF 		bl	assert_failed
 968 00ac 4FE0     		b	.L71
 969              	.L65:
 775:App/STM32F4-Discovery/Libraries/STM32F4xx_StdPeriph_Driver/src/stm32f4xx_rtc.c ****   }
 776:App/STM32F4-Discovery/Libraries/STM32F4xx_StdPeriph_Driver/src/stm32f4xx_rtc.c ****   else
 777:App/STM32F4-Discovery/Libraries/STM32F4xx_StdPeriph_Driver/src/stm32f4xx_rtc.c ****   {
 778:App/STM32F4-Discovery/Libraries/STM32F4xx_StdPeriph_Driver/src/stm32f4xx_rtc.c ****     if ((RTC->CR & RTC_CR_FMT) != (uint32_t)RESET)
 970              		.loc 1 778 0 is_stmt 1
 971 00ae 554B     		ldr	r3, .L83+4
 972 00b0 9B68     		ldr	r3, [r3, #8]
 973 00b2 03F04003 		and	r3, r3, #64
 974 00b6 002B     		cmp	r3, #0
 975 00b8 1FD0     		beq	.L72
 779:App/STM32F4-Discovery/Libraries/STM32F4xx_StdPeriph_Driver/src/stm32f4xx_rtc.c ****     {
 780:App/STM32F4-Discovery/Libraries/STM32F4xx_StdPeriph_Driver/src/stm32f4xx_rtc.c ****       tmpreg = RTC_Bcd2ToByte(RTC_TimeStruct->RTC_Hours);
 976              		.loc 1 780 0
 977 00ba 3B68     		ldr	r3, [r7]
 978 00bc 1B78     		ldrb	r3, [r3]	@ zero_extendqisi2
 979 00be 1846     		mov	r0, r3
 980 00c0 FFF7FEFF 		bl	RTC_Bcd2ToByte
 981 00c4 0346     		mov	r3, r0
 982 00c6 FB60     		str	r3, [r7, #12]
 781:App/STM32F4-Discovery/Libraries/STM32F4xx_StdPeriph_Driver/src/stm32f4xx_rtc.c ****       assert_param(IS_RTC_HOUR12(tmpreg));
 983              		.loc 1 781 0
 984 00c8 FB68     		ldr	r3, [r7, #12]
 985 00ca 002B     		cmp	r3, #0
 986 00cc 02D0     		beq	.L73
 987              		.loc 1 781 0 is_stmt 0 discriminator 2
 988 00ce FB68     		ldr	r3, [r7, #12]
 989 00d0 0C2B     		cmp	r3, #12
 990 00d2 04D9     		bls	.L74
 991              	.L73:
 992              		.loc 1 781 0 discriminator 1
 993 00d4 4A48     		ldr	r0, .L83
 994 00d6 40F20D31 		movw	r1, #781
 995 00da FFF7FEFF 		bl	assert_failed
 996              	.L74:
 782:App/STM32F4-Discovery/Libraries/STM32F4xx_StdPeriph_Driver/src/stm32f4xx_rtc.c ****       assert_param(IS_RTC_H12(RTC_TimeStruct->RTC_H12)); 
 997              		.loc 1 782 0 is_stmt 1
 998 00de 3B68     		ldr	r3, [r7]
 999 00e0 DB78     		ldrb	r3, [r3, #3]	@ zero_extendqisi2
 1000 00e2 002B     		cmp	r3, #0
 1001 00e4 19D0     		beq	.L75
 1002              		.loc 1 782 0 is_stmt 0 discriminator 1
 1003 00e6 3B68     		ldr	r3, [r7]
 1004 00e8 DB78     		ldrb	r3, [r3, #3]	@ zero_extendqisi2
 1005 00ea 402B     		cmp	r3, #64
 1006 00ec 15D0     		beq	.L75
 1007 00ee 4448     		ldr	r0, .L83
 1008 00f0 40F20E31 		movw	r1, #782
 1009 00f4 FFF7FEFF 		bl	assert_failed
 1010 00f8 0FE0     		b	.L75
 1011              	.L72:
 783:App/STM32F4-Discovery/Libraries/STM32F4xx_StdPeriph_Driver/src/stm32f4xx_rtc.c ****     } 
 784:App/STM32F4-Discovery/Libraries/STM32F4xx_StdPeriph_Driver/src/stm32f4xx_rtc.c ****     else
 785:App/STM32F4-Discovery/Libraries/STM32F4xx_StdPeriph_Driver/src/stm32f4xx_rtc.c ****     {
 786:App/STM32F4-Discovery/Libraries/STM32F4xx_StdPeriph_Driver/src/stm32f4xx_rtc.c ****       RTC_TimeStruct->RTC_H12 = 0x00;
 1012              		.loc 1 786 0 is_stmt 1
 1013 00fa 3B68     		ldr	r3, [r7]
 1014 00fc 0022     		movs	r2, #0
 1015 00fe DA70     		strb	r2, [r3, #3]
 787:App/STM32F4-Discovery/Libraries/STM32F4xx_StdPeriph_Driver/src/stm32f4xx_rtc.c ****       assert_param(IS_RTC_HOUR24(RTC_Bcd2ToByte(RTC_TimeStruct->RTC_Hours)));
 1016              		.loc 1 787 0
 1017 0100 3B68     		ldr	r3, [r7]
 1018 0102 1B78     		ldrb	r3, [r3]	@ zero_extendqisi2
 1019 0104 1846     		mov	r0, r3
 1020 0106 FFF7FEFF 		bl	RTC_Bcd2ToByte
 1021 010a 0346     		mov	r3, r0
 1022 010c 172B     		cmp	r3, #23
 1023 010e 04D9     		bls	.L75
 1024              		.loc 1 787 0 is_stmt 0 discriminator 1
 1025 0110 3B48     		ldr	r0, .L83
 1026 0112 40F21331 		movw	r1, #787
 1027 0116 FFF7FEFF 		bl	assert_failed
 1028              	.L75:
 788:App/STM32F4-Discovery/Libraries/STM32F4xx_StdPeriph_Driver/src/stm32f4xx_rtc.c ****     }
 789:App/STM32F4-Discovery/Libraries/STM32F4xx_StdPeriph_Driver/src/stm32f4xx_rtc.c ****     assert_param(IS_RTC_MINUTES(RTC_Bcd2ToByte(RTC_TimeStruct->RTC_Minutes)));
 1029              		.loc 1 789 0 is_stmt 1
 1030 011a 3B68     		ldr	r3, [r7]
 1031 011c 5B78     		ldrb	r3, [r3, #1]	@ zero_extendqisi2
 1032 011e 1846     		mov	r0, r3
 1033 0120 FFF7FEFF 		bl	RTC_Bcd2ToByte
 1034 0124 0346     		mov	r3, r0
 1035 0126 3B2B     		cmp	r3, #59
 1036 0128 04D9     		bls	.L76
 1037              		.loc 1 789 0 is_stmt 0 discriminator 1
 1038 012a 3548     		ldr	r0, .L83
 1039 012c 40F21531 		movw	r1, #789
 1040 0130 FFF7FEFF 		bl	assert_failed
 1041              	.L76:
 790:App/STM32F4-Discovery/Libraries/STM32F4xx_StdPeriph_Driver/src/stm32f4xx_rtc.c ****     assert_param(IS_RTC_SECONDS(RTC_Bcd2ToByte(RTC_TimeStruct->RTC_Seconds)));
 1042              		.loc 1 790 0 is_stmt 1
 1043 0134 3B68     		ldr	r3, [r7]
 1044 0136 9B78     		ldrb	r3, [r3, #2]	@ zero_extendqisi2
 1045 0138 1846     		mov	r0, r3
 1046 013a FFF7FEFF 		bl	RTC_Bcd2ToByte
 1047 013e 0346     		mov	r3, r0
 1048 0140 3B2B     		cmp	r3, #59
 1049 0142 04D9     		bls	.L71
 1050              		.loc 1 790 0 is_stmt 0 discriminator 1
 1051 0144 2E48     		ldr	r0, .L83
 1052 0146 40F21631 		movw	r1, #790
 1053 014a FFF7FEFF 		bl	assert_failed
 1054              	.L71:
 791:App/STM32F4-Discovery/Libraries/STM32F4xx_StdPeriph_Driver/src/stm32f4xx_rtc.c ****   }
 792:App/STM32F4-Discovery/Libraries/STM32F4xx_StdPeriph_Driver/src/stm32f4xx_rtc.c ****   
 793:App/STM32F4-Discovery/Libraries/STM32F4xx_StdPeriph_Driver/src/stm32f4xx_rtc.c ****   /* Check the input parameters format */
 794:App/STM32F4-Discovery/Libraries/STM32F4xx_StdPeriph_Driver/src/stm32f4xx_rtc.c ****   if (RTC_Format != RTC_Format_BIN)
 1055              		.loc 1 794 0 is_stmt 1
 1056 014e 7B68     		ldr	r3, [r7, #4]
 1057 0150 002B     		cmp	r3, #0
 1058 0152 0FD0     		beq	.L77
 795:App/STM32F4-Discovery/Libraries/STM32F4xx_StdPeriph_Driver/src/stm32f4xx_rtc.c ****   {
 796:App/STM32F4-Discovery/Libraries/STM32F4xx_StdPeriph_Driver/src/stm32f4xx_rtc.c ****     tmpreg = (((uint32_t)(RTC_TimeStruct->RTC_Hours) << 16) | \
 1059              		.loc 1 796 0
 1060 0154 3B68     		ldr	r3, [r7]
 1061 0156 1B78     		ldrb	r3, [r3]	@ zero_extendqisi2
 1062 0158 1A04     		lsls	r2, r3, #16
 797:App/STM32F4-Discovery/Libraries/STM32F4xx_StdPeriph_Driver/src/stm32f4xx_rtc.c ****              ((uint32_t)(RTC_TimeStruct->RTC_Minutes) << 8) | \
 1063              		.loc 1 797 0
 1064 015a 3B68     		ldr	r3, [r7]
 1065 015c 5B78     		ldrb	r3, [r3, #1]	@ zero_extendqisi2
 1066 015e 1B02     		lsls	r3, r3, #8
 796:App/STM32F4-Discovery/Libraries/STM32F4xx_StdPeriph_Driver/src/stm32f4xx_rtc.c ****     tmpreg = (((uint32_t)(RTC_TimeStruct->RTC_Hours) << 16) | \
 1067              		.loc 1 796 0
 1068 0160 1A43     		orrs	r2, r2, r3
 798:App/STM32F4-Discovery/Libraries/STM32F4xx_StdPeriph_Driver/src/stm32f4xx_rtc.c ****              ((uint32_t)RTC_TimeStruct->RTC_Seconds) | \
 1069              		.loc 1 798 0
 1070 0162 3B68     		ldr	r3, [r7]
 1071 0164 9B78     		ldrb	r3, [r3, #2]	@ zero_extendqisi2
 797:App/STM32F4-Discovery/Libraries/STM32F4xx_StdPeriph_Driver/src/stm32f4xx_rtc.c ****              ((uint32_t)(RTC_TimeStruct->RTC_Minutes) << 8) | \
 1072              		.loc 1 797 0
 1073 0166 1A43     		orrs	r2, r2, r3
 799:App/STM32F4-Discovery/Libraries/STM32F4xx_StdPeriph_Driver/src/stm32f4xx_rtc.c ****              ((uint32_t)(RTC_TimeStruct->RTC_H12) << 16)); 
 1074              		.loc 1 799 0
 1075 0168 3B68     		ldr	r3, [r7]
 1076 016a DB78     		ldrb	r3, [r3, #3]	@ zero_extendqisi2
 1077 016c 1B04     		lsls	r3, r3, #16
 796:App/STM32F4-Discovery/Libraries/STM32F4xx_StdPeriph_Driver/src/stm32f4xx_rtc.c ****     tmpreg = (((uint32_t)(RTC_TimeStruct->RTC_Hours) << 16) | \
 1078              		.loc 1 796 0
 1079 016e 1343     		orrs	r3, r3, r2
 1080 0170 FB60     		str	r3, [r7, #12]
 1081 0172 1BE0     		b	.L78
 1082              	.L77:
 800:App/STM32F4-Discovery/Libraries/STM32F4xx_StdPeriph_Driver/src/stm32f4xx_rtc.c ****   }  
 801:App/STM32F4-Discovery/Libraries/STM32F4xx_StdPeriph_Driver/src/stm32f4xx_rtc.c ****   else
 802:App/STM32F4-Discovery/Libraries/STM32F4xx_StdPeriph_Driver/src/stm32f4xx_rtc.c ****   {
 803:App/STM32F4-Discovery/Libraries/STM32F4xx_StdPeriph_Driver/src/stm32f4xx_rtc.c ****     tmpreg = (uint32_t)(((uint32_t)RTC_ByteToBcd2(RTC_TimeStruct->RTC_Hours) << 16) | \
 1083              		.loc 1 803 0
 1084 0174 3B68     		ldr	r3, [r7]
 1085 0176 1B78     		ldrb	r3, [r3]	@ zero_extendqisi2
 1086 0178 1846     		mov	r0, r3
 1087 017a FFF7FEFF 		bl	RTC_ByteToBcd2
 1088 017e 0346     		mov	r3, r0
 1089 0180 1C04     		lsls	r4, r3, #16
 804:App/STM32F4-Discovery/Libraries/STM32F4xx_StdPeriph_Driver/src/stm32f4xx_rtc.c ****                    ((uint32_t)RTC_ByteToBcd2(RTC_TimeStruct->RTC_Minutes) << 8) | \
 1090              		.loc 1 804 0
 1091 0182 3B68     		ldr	r3, [r7]
 1092 0184 5B78     		ldrb	r3, [r3, #1]	@ zero_extendqisi2
 1093 0186 1846     		mov	r0, r3
 1094 0188 FFF7FEFF 		bl	RTC_ByteToBcd2
 1095 018c 0346     		mov	r3, r0
 1096 018e 1B02     		lsls	r3, r3, #8
 803:App/STM32F4-Discovery/Libraries/STM32F4xx_StdPeriph_Driver/src/stm32f4xx_rtc.c ****     tmpreg = (uint32_t)(((uint32_t)RTC_ByteToBcd2(RTC_TimeStruct->RTC_Hours) << 16) | \
 1097              		.loc 1 803 0
 1098 0190 1C43     		orrs	r4, r4, r3
 805:App/STM32F4-Discovery/Libraries/STM32F4xx_StdPeriph_Driver/src/stm32f4xx_rtc.c ****                    ((uint32_t)RTC_ByteToBcd2(RTC_TimeStruct->RTC_Seconds)) | \
 1099              		.loc 1 805 0
 1100 0192 3B68     		ldr	r3, [r7]
 1101 0194 9B78     		ldrb	r3, [r3, #2]	@ zero_extendqisi2
 1102 0196 1846     		mov	r0, r3
 1103 0198 FFF7FEFF 		bl	RTC_ByteToBcd2
 1104 019c 0346     		mov	r3, r0
 804:App/STM32F4-Discovery/Libraries/STM32F4xx_StdPeriph_Driver/src/stm32f4xx_rtc.c ****                    ((uint32_t)RTC_ByteToBcd2(RTC_TimeStruct->RTC_Minutes) << 8) | \
 1105              		.loc 1 804 0
 1106 019e 44EA0302 		orr	r2, r4, r3
 806:App/STM32F4-Discovery/Libraries/STM32F4xx_StdPeriph_Driver/src/stm32f4xx_rtc.c ****                    (((uint32_t)RTC_TimeStruct->RTC_H12) << 16));
 1107              		.loc 1 806 0
 1108 01a2 3B68     		ldr	r3, [r7]
 1109 01a4 DB78     		ldrb	r3, [r3, #3]	@ zero_extendqisi2
 1110 01a6 1B04     		lsls	r3, r3, #16
 803:App/STM32F4-Discovery/Libraries/STM32F4xx_StdPeriph_Driver/src/stm32f4xx_rtc.c ****     tmpreg = (uint32_t)(((uint32_t)RTC_ByteToBcd2(RTC_TimeStruct->RTC_Hours) << 16) | \
 1111              		.loc 1 803 0
 1112 01a8 1343     		orrs	r3, r3, r2
 1113 01aa FB60     		str	r3, [r7, #12]
 1114              	.L78:
 807:App/STM32F4-Discovery/Libraries/STM32F4xx_StdPeriph_Driver/src/stm32f4xx_rtc.c ****   }  
 808:App/STM32F4-Discovery/Libraries/STM32F4xx_StdPeriph_Driver/src/stm32f4xx_rtc.c **** 
 809:App/STM32F4-Discovery/Libraries/STM32F4xx_StdPeriph_Driver/src/stm32f4xx_rtc.c ****   /* Disable the write protection for RTC registers */
 810:App/STM32F4-Discovery/Libraries/STM32F4xx_StdPeriph_Driver/src/stm32f4xx_rtc.c ****   RTC->WPR = 0xCA;
 1115              		.loc 1 810 0
 1116 01ac 154B     		ldr	r3, .L83+4
 1117 01ae CA22     		movs	r2, #202
 1118 01b0 5A62     		str	r2, [r3, #36]
 811:App/STM32F4-Discovery/Libraries/STM32F4xx_StdPeriph_Driver/src/stm32f4xx_rtc.c ****   RTC->WPR = 0x53;
 1119              		.loc 1 811 0
 1120 01b2 144B     		ldr	r3, .L83+4
 1121 01b4 5322     		movs	r2, #83
 1122 01b6 5A62     		str	r2, [r3, #36]
 812:App/STM32F4-Discovery/Libraries/STM32F4xx_StdPeriph_Driver/src/stm32f4xx_rtc.c **** 
 813:App/STM32F4-Discovery/Libraries/STM32F4xx_StdPeriph_Driver/src/stm32f4xx_rtc.c ****   /* Set Initialization mode */
 814:App/STM32F4-Discovery/Libraries/STM32F4xx_StdPeriph_Driver/src/stm32f4xx_rtc.c ****   if (RTC_EnterInitMode() == ERROR)
 1123              		.loc 1 814 0
 1124 01b8 FFF7FEFF 		bl	RTC_EnterInitMode
 1125 01bc 0346     		mov	r3, r0
 1126 01be 002B     		cmp	r3, #0
 1127 01c0 02D1     		bne	.L79
 815:App/STM32F4-Discovery/Libraries/STM32F4xx_StdPeriph_Driver/src/stm32f4xx_rtc.c ****   {
 816:App/STM32F4-Discovery/Libraries/STM32F4xx_StdPeriph_Driver/src/stm32f4xx_rtc.c ****     status = ERROR;
 1128              		.loc 1 816 0
 1129 01c2 0023     		movs	r3, #0
 1130 01c4 FB72     		strb	r3, [r7, #11]
 1131 01c6 12E0     		b	.L80
 1132              	.L79:
 817:App/STM32F4-Discovery/Libraries/STM32F4xx_StdPeriph_Driver/src/stm32f4xx_rtc.c ****   } 
 818:App/STM32F4-Discovery/Libraries/STM32F4xx_StdPeriph_Driver/src/stm32f4xx_rtc.c ****   else
 819:App/STM32F4-Discovery/Libraries/STM32F4xx_StdPeriph_Driver/src/stm32f4xx_rtc.c ****   {
 820:App/STM32F4-Discovery/Libraries/STM32F4xx_StdPeriph_Driver/src/stm32f4xx_rtc.c ****     /* Set the RTC_TR register */
 821:App/STM32F4-Discovery/Libraries/STM32F4xx_StdPeriph_Driver/src/stm32f4xx_rtc.c ****     RTC->TR = (uint32_t)(tmpreg & RTC_TR_RESERVED_MASK);
 1133              		.loc 1 821 0
 1134 01c8 0E4A     		ldr	r2, .L83+4
 1135 01ca FB68     		ldr	r3, [r7, #12]
 1136 01cc 03F07F33 		and	r3, r3, #2139062143
 1137 01d0 23F0FE43 		bic	r3, r3, #2130706432
 1138 01d4 1360     		str	r3, [r2]
 822:App/STM32F4-Discovery/Libraries/STM32F4xx_StdPeriph_Driver/src/stm32f4xx_rtc.c **** 
 823:App/STM32F4-Discovery/Libraries/STM32F4xx_StdPeriph_Driver/src/stm32f4xx_rtc.c ****     /* Exit Initialization mode */
 824:App/STM32F4-Discovery/Libraries/STM32F4xx_StdPeriph_Driver/src/stm32f4xx_rtc.c ****     RTC_ExitInitMode(); 
 1139              		.loc 1 824 0
 1140 01d6 FFF7FEFF 		bl	RTC_ExitInitMode
 825:App/STM32F4-Discovery/Libraries/STM32F4xx_StdPeriph_Driver/src/stm32f4xx_rtc.c **** 
 826:App/STM32F4-Discovery/Libraries/STM32F4xx_StdPeriph_Driver/src/stm32f4xx_rtc.c ****     if(RTC_WaitForSynchro() == ERROR)
 1141              		.loc 1 826 0
 1142 01da FFF7FEFF 		bl	RTC_WaitForSynchro
 1143 01de 0346     		mov	r3, r0
 1144 01e0 002B     		cmp	r3, #0
 1145 01e2 02D1     		bne	.L81
 827:App/STM32F4-Discovery/Libraries/STM32F4xx_StdPeriph_Driver/src/stm32f4xx_rtc.c ****     {
 828:App/STM32F4-Discovery/Libraries/STM32F4xx_StdPeriph_Driver/src/stm32f4xx_rtc.c ****       status = ERROR;
 1146              		.loc 1 828 0
 1147 01e4 0023     		movs	r3, #0
 1148 01e6 FB72     		strb	r3, [r7, #11]
 1149 01e8 01E0     		b	.L80
 1150              	.L81:
 829:App/STM32F4-Discovery/Libraries/STM32F4xx_StdPeriph_Driver/src/stm32f4xx_rtc.c ****     }
 830:App/STM32F4-Discovery/Libraries/STM32F4xx_StdPeriph_Driver/src/stm32f4xx_rtc.c ****     else
 831:App/STM32F4-Discovery/Libraries/STM32F4xx_StdPeriph_Driver/src/stm32f4xx_rtc.c ****     {
 832:App/STM32F4-Discovery/Libraries/STM32F4xx_StdPeriph_Driver/src/stm32f4xx_rtc.c ****       status = SUCCESS;
 1151              		.loc 1 832 0
 1152 01ea 0123     		movs	r3, #1
 1153 01ec FB72     		strb	r3, [r7, #11]
 1154              	.L80:
 833:App/STM32F4-Discovery/Libraries/STM32F4xx_StdPeriph_Driver/src/stm32f4xx_rtc.c ****     }
 834:App/STM32F4-Discovery/Libraries/STM32F4xx_StdPeriph_Driver/src/stm32f4xx_rtc.c ****   
 835:App/STM32F4-Discovery/Libraries/STM32F4xx_StdPeriph_Driver/src/stm32f4xx_rtc.c ****   }
 836:App/STM32F4-Discovery/Libraries/STM32F4xx_StdPeriph_Driver/src/stm32f4xx_rtc.c ****   /* Enable the write protection for RTC registers */
 837:App/STM32F4-Discovery/Libraries/STM32F4xx_StdPeriph_Driver/src/stm32f4xx_rtc.c ****   RTC->WPR = 0xFF; 
 1155              		.loc 1 837 0
 1156 01ee 054B     		ldr	r3, .L83+4
 1157 01f0 FF22     		movs	r2, #255
 1158 01f2 5A62     		str	r2, [r3, #36]
 838:App/STM32F4-Discovery/Libraries/STM32F4xx_StdPeriph_Driver/src/stm32f4xx_rtc.c ****     
 839:App/STM32F4-Discovery/Libraries/STM32F4xx_StdPeriph_Driver/src/stm32f4xx_rtc.c ****   return status;
 1159              		.loc 1 839 0
 1160 01f4 FB7A     		ldrb	r3, [r7, #11]	@ zero_extendqisi2
 840:App/STM32F4-Discovery/Libraries/STM32F4xx_StdPeriph_Driver/src/stm32f4xx_rtc.c **** }
 1161              		.loc 1 840 0
 1162 01f6 1846     		mov	r0, r3
 1163 01f8 1437     		adds	r7, r7, #20
 1164 01fa BD46     		mov	sp, r7
 1165              		@ sp needed
 1166 01fc 90BD     		pop	{r4, r7, pc}
 1167              	.L84:
 1168 01fe 00BF     		.align	2
 1169              	.L83:
 1170 0200 00000000 		.word	.LC0
 1171 0204 00280040 		.word	1073752064
 1172              		.cfi_endproc
 1173              	.LFE119:
 1175              		.section	.text.RTC_TimeStructInit,"ax",%progbits
 1176              		.align	2
 1177              		.global	RTC_TimeStructInit
 1178              		.thumb
 1179              		.thumb_func
 1181              	RTC_TimeStructInit:
 1182              	.LFB120:
 841:App/STM32F4-Discovery/Libraries/STM32F4xx_StdPeriph_Driver/src/stm32f4xx_rtc.c **** 
 842:App/STM32F4-Discovery/Libraries/STM32F4xx_StdPeriph_Driver/src/stm32f4xx_rtc.c **** /**
 843:App/STM32F4-Discovery/Libraries/STM32F4xx_StdPeriph_Driver/src/stm32f4xx_rtc.c ****   * @brief  Fills each RTC_TimeStruct member with its default value
 844:App/STM32F4-Discovery/Libraries/STM32F4xx_StdPeriph_Driver/src/stm32f4xx_rtc.c ****   *         (Time = 00h:00min:00sec).
 845:App/STM32F4-Discovery/Libraries/STM32F4xx_StdPeriph_Driver/src/stm32f4xx_rtc.c ****   * @param  RTC_TimeStruct: pointer to a RTC_TimeTypeDef structure which will be 
 846:App/STM32F4-Discovery/Libraries/STM32F4xx_StdPeriph_Driver/src/stm32f4xx_rtc.c ****   *         initialized.
 847:App/STM32F4-Discovery/Libraries/STM32F4xx_StdPeriph_Driver/src/stm32f4xx_rtc.c ****   * @retval None
 848:App/STM32F4-Discovery/Libraries/STM32F4xx_StdPeriph_Driver/src/stm32f4xx_rtc.c ****   */
 849:App/STM32F4-Discovery/Libraries/STM32F4xx_StdPeriph_Driver/src/stm32f4xx_rtc.c **** void RTC_TimeStructInit(RTC_TimeTypeDef* RTC_TimeStruct)
 850:App/STM32F4-Discovery/Libraries/STM32F4xx_StdPeriph_Driver/src/stm32f4xx_rtc.c **** {
 1183              		.loc 1 850 0
 1184              		.cfi_startproc
 1185              		@ args = 0, pretend = 0, frame = 8
 1186              		@ frame_needed = 1, uses_anonymous_args = 0
 1187              		@ link register save eliminated.
 1188 0000 80B4     		push	{r7}
 1189              	.LCFI29:
 1190              		.cfi_def_cfa_offset 4
 1191              		.cfi_offset 7, -4
 1192 0002 83B0     		sub	sp, sp, #12
 1193              	.LCFI30:
 1194              		.cfi_def_cfa_offset 16
 1195 0004 00AF     		add	r7, sp, #0
 1196              	.LCFI31:
 1197              		.cfi_def_cfa_register 7
 1198 0006 7860     		str	r0, [r7, #4]
 851:App/STM32F4-Discovery/Libraries/STM32F4xx_StdPeriph_Driver/src/stm32f4xx_rtc.c ****   /* Time = 00h:00min:00sec */
 852:App/STM32F4-Discovery/Libraries/STM32F4xx_StdPeriph_Driver/src/stm32f4xx_rtc.c ****   RTC_TimeStruct->RTC_H12 = RTC_H12_AM;
 1199              		.loc 1 852 0
 1200 0008 7B68     		ldr	r3, [r7, #4]
 1201 000a 0022     		movs	r2, #0
 1202 000c DA70     		strb	r2, [r3, #3]
 853:App/STM32F4-Discovery/Libraries/STM32F4xx_StdPeriph_Driver/src/stm32f4xx_rtc.c ****   RTC_TimeStruct->RTC_Hours = 0;
 1203              		.loc 1 853 0
 1204 000e 7B68     		ldr	r3, [r7, #4]
 1205 0010 0022     		movs	r2, #0
 1206 0012 1A70     		strb	r2, [r3]
 854:App/STM32F4-Discovery/Libraries/STM32F4xx_StdPeriph_Driver/src/stm32f4xx_rtc.c ****   RTC_TimeStruct->RTC_Minutes = 0;
 1207              		.loc 1 854 0
 1208 0014 7B68     		ldr	r3, [r7, #4]
 1209 0016 0022     		movs	r2, #0
 1210 0018 5A70     		strb	r2, [r3, #1]
 855:App/STM32F4-Discovery/Libraries/STM32F4xx_StdPeriph_Driver/src/stm32f4xx_rtc.c ****   RTC_TimeStruct->RTC_Seconds = 0; 
 1211              		.loc 1 855 0
 1212 001a 7B68     		ldr	r3, [r7, #4]
 1213 001c 0022     		movs	r2, #0
 1214 001e 9A70     		strb	r2, [r3, #2]
 856:App/STM32F4-Discovery/Libraries/STM32F4xx_StdPeriph_Driver/src/stm32f4xx_rtc.c **** }
 1215              		.loc 1 856 0
 1216 0020 0C37     		adds	r7, r7, #12
 1217 0022 BD46     		mov	sp, r7
 1218              		@ sp needed
 1219 0024 5DF8047B 		ldr	r7, [sp], #4
 1220 0028 7047     		bx	lr
 1221              		.cfi_endproc
 1222              	.LFE120:
 1224 002a 00BF     		.section	.text.RTC_GetTime,"ax",%progbits
 1225              		.align	2
 1226              		.global	RTC_GetTime
 1227              		.thumb
 1228              		.thumb_func
 1230              	RTC_GetTime:
 1231              	.LFB121:
 857:App/STM32F4-Discovery/Libraries/STM32F4xx_StdPeriph_Driver/src/stm32f4xx_rtc.c **** 
 858:App/STM32F4-Discovery/Libraries/STM32F4xx_StdPeriph_Driver/src/stm32f4xx_rtc.c **** /**
 859:App/STM32F4-Discovery/Libraries/STM32F4xx_StdPeriph_Driver/src/stm32f4xx_rtc.c ****   * @brief  Get the RTC current Time.
 860:App/STM32F4-Discovery/Libraries/STM32F4xx_StdPeriph_Driver/src/stm32f4xx_rtc.c ****   * @param  RTC_Format: specifies the format of the returned parameters.
 861:App/STM32F4-Discovery/Libraries/STM32F4xx_StdPeriph_Driver/src/stm32f4xx_rtc.c ****   *          This parameter can be  one of the following values:
 862:App/STM32F4-Discovery/Libraries/STM32F4xx_StdPeriph_Driver/src/stm32f4xx_rtc.c ****   *            @arg RTC_Format_BIN:  Binary data format 
 863:App/STM32F4-Discovery/Libraries/STM32F4xx_StdPeriph_Driver/src/stm32f4xx_rtc.c ****   *            @arg RTC_Format_BCD:  BCD data format
 864:App/STM32F4-Discovery/Libraries/STM32F4xx_StdPeriph_Driver/src/stm32f4xx_rtc.c ****   * @param  RTC_TimeStruct: pointer to a RTC_TimeTypeDef structure that will 
 865:App/STM32F4-Discovery/Libraries/STM32F4xx_StdPeriph_Driver/src/stm32f4xx_rtc.c ****   *                        contain the returned current time configuration.     
 866:App/STM32F4-Discovery/Libraries/STM32F4xx_StdPeriph_Driver/src/stm32f4xx_rtc.c ****   * @retval None
 867:App/STM32F4-Discovery/Libraries/STM32F4xx_StdPeriph_Driver/src/stm32f4xx_rtc.c ****   */
 868:App/STM32F4-Discovery/Libraries/STM32F4xx_StdPeriph_Driver/src/stm32f4xx_rtc.c **** void RTC_GetTime(uint32_t RTC_Format, RTC_TimeTypeDef* RTC_TimeStruct)
 869:App/STM32F4-Discovery/Libraries/STM32F4xx_StdPeriph_Driver/src/stm32f4xx_rtc.c **** {
 1232              		.loc 1 869 0
 1233              		.cfi_startproc
 1234              		@ args = 0, pretend = 0, frame = 16
 1235              		@ frame_needed = 1, uses_anonymous_args = 0
 1236 0000 80B5     		push	{r7, lr}
 1237              	.LCFI32:
 1238              		.cfi_def_cfa_offset 8
 1239              		.cfi_offset 7, -8
 1240              		.cfi_offset 14, -4
 1241 0002 84B0     		sub	sp, sp, #16
 1242              	.LCFI33:
 1243              		.cfi_def_cfa_offset 24
 1244 0004 00AF     		add	r7, sp, #0
 1245              	.LCFI34:
 1246              		.cfi_def_cfa_register 7
 1247 0006 7860     		str	r0, [r7, #4]
 1248 0008 3960     		str	r1, [r7]
 870:App/STM32F4-Discovery/Libraries/STM32F4xx_StdPeriph_Driver/src/stm32f4xx_rtc.c ****   uint32_t tmpreg = 0;
 1249              		.loc 1 870 0
 1250 000a 0023     		movs	r3, #0
 1251 000c FB60     		str	r3, [r7, #12]
 871:App/STM32F4-Discovery/Libraries/STM32F4xx_StdPeriph_Driver/src/stm32f4xx_rtc.c **** 
 872:App/STM32F4-Discovery/Libraries/STM32F4xx_StdPeriph_Driver/src/stm32f4xx_rtc.c ****   /* Check the parameters */
 873:App/STM32F4-Discovery/Libraries/STM32F4xx_StdPeriph_Driver/src/stm32f4xx_rtc.c ****   assert_param(IS_RTC_FORMAT(RTC_Format));
 1252              		.loc 1 873 0
 1253 000e 7B68     		ldr	r3, [r7, #4]
 1254 0010 002B     		cmp	r3, #0
 1255 0012 07D0     		beq	.L87
 1256              		.loc 1 873 0 is_stmt 0 discriminator 1
 1257 0014 7B68     		ldr	r3, [r7, #4]
 1258 0016 012B     		cmp	r3, #1
 1259 0018 04D0     		beq	.L87
 1260 001a 2448     		ldr	r0, .L89
 1261 001c 40F26931 		movw	r1, #873
 1262 0020 FFF7FEFF 		bl	assert_failed
 1263              	.L87:
 874:App/STM32F4-Discovery/Libraries/STM32F4xx_StdPeriph_Driver/src/stm32f4xx_rtc.c **** 
 875:App/STM32F4-Discovery/Libraries/STM32F4xx_StdPeriph_Driver/src/stm32f4xx_rtc.c ****   /* Get the RTC_TR register */
 876:App/STM32F4-Discovery/Libraries/STM32F4xx_StdPeriph_Driver/src/stm32f4xx_rtc.c ****   tmpreg = (uint32_t)(RTC->TR & RTC_TR_RESERVED_MASK); 
 1264              		.loc 1 876 0 is_stmt 1
 1265 0024 224B     		ldr	r3, .L89+4
 1266 0026 1B68     		ldr	r3, [r3]
 1267 0028 03F07F33 		and	r3, r3, #2139062143
 1268 002c 23F0FE43 		bic	r3, r3, #2130706432
 1269 0030 FB60     		str	r3, [r7, #12]
 877:App/STM32F4-Discovery/Libraries/STM32F4xx_StdPeriph_Driver/src/stm32f4xx_rtc.c ****   
 878:App/STM32F4-Discovery/Libraries/STM32F4xx_StdPeriph_Driver/src/stm32f4xx_rtc.c ****   /* Fill the structure fields with the read parameters */
 879:App/STM32F4-Discovery/Libraries/STM32F4xx_StdPeriph_Driver/src/stm32f4xx_rtc.c ****   RTC_TimeStruct->RTC_Hours = (uint8_t)((tmpreg & (RTC_TR_HT | RTC_TR_HU)) >> 16);
 1270              		.loc 1 879 0
 1271 0032 FB68     		ldr	r3, [r7, #12]
 1272 0034 03F47C13 		and	r3, r3, #4128768
 1273 0038 1B0C     		lsrs	r3, r3, #16
 1274 003a DAB2     		uxtb	r2, r3
 1275 003c 3B68     		ldr	r3, [r7]
 1276 003e 1A70     		strb	r2, [r3]
 880:App/STM32F4-Discovery/Libraries/STM32F4xx_StdPeriph_Driver/src/stm32f4xx_rtc.c ****   RTC_TimeStruct->RTC_Minutes = (uint8_t)((tmpreg & (RTC_TR_MNT | RTC_TR_MNU)) >>8);
 1277              		.loc 1 880 0
 1278 0040 FB68     		ldr	r3, [r7, #12]
 1279 0042 03F4FE43 		and	r3, r3, #32512
 1280 0046 1B0A     		lsrs	r3, r3, #8
 1281 0048 DAB2     		uxtb	r2, r3
 1282 004a 3B68     		ldr	r3, [r7]
 1283 004c 5A70     		strb	r2, [r3, #1]
 881:App/STM32F4-Discovery/Libraries/STM32F4xx_StdPeriph_Driver/src/stm32f4xx_rtc.c ****   RTC_TimeStruct->RTC_Seconds = (uint8_t)(tmpreg & (RTC_TR_ST | RTC_TR_SU));
 1284              		.loc 1 881 0
 1285 004e FB68     		ldr	r3, [r7, #12]
 1286 0050 DBB2     		uxtb	r3, r3
 1287 0052 03F07F03 		and	r3, r3, #127
 1288 0056 DAB2     		uxtb	r2, r3
 1289 0058 3B68     		ldr	r3, [r7]
 1290 005a 9A70     		strb	r2, [r3, #2]
 882:App/STM32F4-Discovery/Libraries/STM32F4xx_StdPeriph_Driver/src/stm32f4xx_rtc.c ****   RTC_TimeStruct->RTC_H12 = (uint8_t)((tmpreg & (RTC_TR_PM)) >> 16);  
 1291              		.loc 1 882 0
 1292 005c FB68     		ldr	r3, [r7, #12]
 1293 005e 03F48003 		and	r3, r3, #4194304
 1294 0062 1B0C     		lsrs	r3, r3, #16
 1295 0064 DAB2     		uxtb	r2, r3
 1296 0066 3B68     		ldr	r3, [r7]
 1297 0068 DA70     		strb	r2, [r3, #3]
 883:App/STM32F4-Discovery/Libraries/STM32F4xx_StdPeriph_Driver/src/stm32f4xx_rtc.c **** 
 884:App/STM32F4-Discovery/Libraries/STM32F4xx_StdPeriph_Driver/src/stm32f4xx_rtc.c ****   /* Check the input parameters format */
 885:App/STM32F4-Discovery/Libraries/STM32F4xx_StdPeriph_Driver/src/stm32f4xx_rtc.c ****   if (RTC_Format == RTC_Format_BIN)
 1298              		.loc 1 885 0
 1299 006a 7B68     		ldr	r3, [r7, #4]
 1300 006c 002B     		cmp	r3, #0
 1301 006e 1AD1     		bne	.L86
 886:App/STM32F4-Discovery/Libraries/STM32F4xx_StdPeriph_Driver/src/stm32f4xx_rtc.c ****   {
 887:App/STM32F4-Discovery/Libraries/STM32F4xx_StdPeriph_Driver/src/stm32f4xx_rtc.c ****     /* Convert the structure parameters to Binary format */
 888:App/STM32F4-Discovery/Libraries/STM32F4xx_StdPeriph_Driver/src/stm32f4xx_rtc.c ****     RTC_TimeStruct->RTC_Hours = (uint8_t)RTC_Bcd2ToByte(RTC_TimeStruct->RTC_Hours);
 1302              		.loc 1 888 0
 1303 0070 3B68     		ldr	r3, [r7]
 1304 0072 1B78     		ldrb	r3, [r3]	@ zero_extendqisi2
 1305 0074 1846     		mov	r0, r3
 1306 0076 FFF7FEFF 		bl	RTC_Bcd2ToByte
 1307 007a 0346     		mov	r3, r0
 1308 007c 1A46     		mov	r2, r3
 1309 007e 3B68     		ldr	r3, [r7]
 1310 0080 1A70     		strb	r2, [r3]
 889:App/STM32F4-Discovery/Libraries/STM32F4xx_StdPeriph_Driver/src/stm32f4xx_rtc.c ****     RTC_TimeStruct->RTC_Minutes = (uint8_t)RTC_Bcd2ToByte(RTC_TimeStruct->RTC_Minutes);
 1311              		.loc 1 889 0
 1312 0082 3B68     		ldr	r3, [r7]
 1313 0084 5B78     		ldrb	r3, [r3, #1]	@ zero_extendqisi2
 1314 0086 1846     		mov	r0, r3
 1315 0088 FFF7FEFF 		bl	RTC_Bcd2ToByte
 1316 008c 0346     		mov	r3, r0
 1317 008e 1A46     		mov	r2, r3
 1318 0090 3B68     		ldr	r3, [r7]
 1319 0092 5A70     		strb	r2, [r3, #1]
 890:App/STM32F4-Discovery/Libraries/STM32F4xx_StdPeriph_Driver/src/stm32f4xx_rtc.c ****     RTC_TimeStruct->RTC_Seconds = (uint8_t)RTC_Bcd2ToByte(RTC_TimeStruct->RTC_Seconds);   
 1320              		.loc 1 890 0
 1321 0094 3B68     		ldr	r3, [r7]
 1322 0096 9B78     		ldrb	r3, [r3, #2]	@ zero_extendqisi2
 1323 0098 1846     		mov	r0, r3
 1324 009a FFF7FEFF 		bl	RTC_Bcd2ToByte
 1325 009e 0346     		mov	r3, r0
 1326 00a0 1A46     		mov	r2, r3
 1327 00a2 3B68     		ldr	r3, [r7]
 1328 00a4 9A70     		strb	r2, [r3, #2]
 1329              	.L86:
 891:App/STM32F4-Discovery/Libraries/STM32F4xx_StdPeriph_Driver/src/stm32f4xx_rtc.c ****   }
 892:App/STM32F4-Discovery/Libraries/STM32F4xx_StdPeriph_Driver/src/stm32f4xx_rtc.c **** }
 1330              		.loc 1 892 0
 1331 00a6 1037     		adds	r7, r7, #16
 1332 00a8 BD46     		mov	sp, r7
 1333              		@ sp needed
 1334 00aa 80BD     		pop	{r7, pc}
 1335              	.L90:
 1336              		.align	2
 1337              	.L89:
 1338 00ac 00000000 		.word	.LC0
 1339 00b0 00280040 		.word	1073752064
 1340              		.cfi_endproc
 1341              	.LFE121:
 1343              		.section	.text.RTC_GetSubSecond,"ax",%progbits
 1344              		.align	2
 1345              		.global	RTC_GetSubSecond
 1346              		.thumb
 1347              		.thumb_func
 1349              	RTC_GetSubSecond:
 1350              	.LFB122:
 893:App/STM32F4-Discovery/Libraries/STM32F4xx_StdPeriph_Driver/src/stm32f4xx_rtc.c **** 
 894:App/STM32F4-Discovery/Libraries/STM32F4xx_StdPeriph_Driver/src/stm32f4xx_rtc.c **** /**
 895:App/STM32F4-Discovery/Libraries/STM32F4xx_StdPeriph_Driver/src/stm32f4xx_rtc.c ****   * @brief  Gets the RTC current Calendar Subseconds value.
 896:App/STM32F4-Discovery/Libraries/STM32F4xx_StdPeriph_Driver/src/stm32f4xx_rtc.c ****   * @note   This function freeze the Time and Date registers after reading the 
 897:App/STM32F4-Discovery/Libraries/STM32F4xx_StdPeriph_Driver/src/stm32f4xx_rtc.c ****   *         SSR register.
 898:App/STM32F4-Discovery/Libraries/STM32F4xx_StdPeriph_Driver/src/stm32f4xx_rtc.c ****   * @param  None
 899:App/STM32F4-Discovery/Libraries/STM32F4xx_StdPeriph_Driver/src/stm32f4xx_rtc.c ****   * @retval RTC current Calendar Subseconds value.
 900:App/STM32F4-Discovery/Libraries/STM32F4xx_StdPeriph_Driver/src/stm32f4xx_rtc.c ****   */
 901:App/STM32F4-Discovery/Libraries/STM32F4xx_StdPeriph_Driver/src/stm32f4xx_rtc.c **** uint32_t RTC_GetSubSecond(void)
 902:App/STM32F4-Discovery/Libraries/STM32F4xx_StdPeriph_Driver/src/stm32f4xx_rtc.c **** {
 1351              		.loc 1 902 0
 1352              		.cfi_startproc
 1353              		@ args = 0, pretend = 0, frame = 8
 1354              		@ frame_needed = 1, uses_anonymous_args = 0
 1355              		@ link register save eliminated.
 1356 0000 80B4     		push	{r7}
 1357              	.LCFI35:
 1358              		.cfi_def_cfa_offset 4
 1359              		.cfi_offset 7, -4
 1360 0002 83B0     		sub	sp, sp, #12
 1361              	.LCFI36:
 1362              		.cfi_def_cfa_offset 16
 1363 0004 00AF     		add	r7, sp, #0
 1364              	.LCFI37:
 1365              		.cfi_def_cfa_register 7
 903:App/STM32F4-Discovery/Libraries/STM32F4xx_StdPeriph_Driver/src/stm32f4xx_rtc.c ****   uint32_t tmpreg = 0;
 1366              		.loc 1 903 0
 1367 0006 0023     		movs	r3, #0
 1368 0008 7B60     		str	r3, [r7, #4]
 904:App/STM32F4-Discovery/Libraries/STM32F4xx_StdPeriph_Driver/src/stm32f4xx_rtc.c ****   
 905:App/STM32F4-Discovery/Libraries/STM32F4xx_StdPeriph_Driver/src/stm32f4xx_rtc.c ****   /* Get subseconds values from the correspondent registers*/
 906:App/STM32F4-Discovery/Libraries/STM32F4xx_StdPeriph_Driver/src/stm32f4xx_rtc.c ****   tmpreg = (uint32_t)(RTC->SSR);
 1369              		.loc 1 906 0
 1370 000a 064B     		ldr	r3, .L93
 1371 000c 9B6A     		ldr	r3, [r3, #40]
 1372 000e 7B60     		str	r3, [r7, #4]
 907:App/STM32F4-Discovery/Libraries/STM32F4xx_StdPeriph_Driver/src/stm32f4xx_rtc.c ****   
 908:App/STM32F4-Discovery/Libraries/STM32F4xx_StdPeriph_Driver/src/stm32f4xx_rtc.c ****   /* Read DR register to unfroze calendar registers */
 909:App/STM32F4-Discovery/Libraries/STM32F4xx_StdPeriph_Driver/src/stm32f4xx_rtc.c ****   (void) (RTC->DR);
 1373              		.loc 1 909 0
 1374 0010 044B     		ldr	r3, .L93
 1375 0012 5B68     		ldr	r3, [r3, #4]
 910:App/STM32F4-Discovery/Libraries/STM32F4xx_StdPeriph_Driver/src/stm32f4xx_rtc.c ****   
 911:App/STM32F4-Discovery/Libraries/STM32F4xx_StdPeriph_Driver/src/stm32f4xx_rtc.c ****   return (tmpreg);
 1376              		.loc 1 911 0
 1377 0014 7B68     		ldr	r3, [r7, #4]
 912:App/STM32F4-Discovery/Libraries/STM32F4xx_StdPeriph_Driver/src/stm32f4xx_rtc.c **** }
 1378              		.loc 1 912 0
 1379 0016 1846     		mov	r0, r3
 1380 0018 0C37     		adds	r7, r7, #12
 1381 001a BD46     		mov	sp, r7
 1382              		@ sp needed
 1383 001c 5DF8047B 		ldr	r7, [sp], #4
 1384 0020 7047     		bx	lr
 1385              	.L94:
 1386 0022 00BF     		.align	2
 1387              	.L93:
 1388 0024 00280040 		.word	1073752064
 1389              		.cfi_endproc
 1390              	.LFE122:
 1392              		.section	.text.RTC_SetDate,"ax",%progbits
 1393              		.align	2
 1394              		.global	RTC_SetDate
 1395              		.thumb
 1396              		.thumb_func
 1398              	RTC_SetDate:
 1399              	.LFB123:
 913:App/STM32F4-Discovery/Libraries/STM32F4xx_StdPeriph_Driver/src/stm32f4xx_rtc.c **** 
 914:App/STM32F4-Discovery/Libraries/STM32F4xx_StdPeriph_Driver/src/stm32f4xx_rtc.c **** /**
 915:App/STM32F4-Discovery/Libraries/STM32F4xx_StdPeriph_Driver/src/stm32f4xx_rtc.c ****   * @brief  Set the RTC current date.
 916:App/STM32F4-Discovery/Libraries/STM32F4xx_StdPeriph_Driver/src/stm32f4xx_rtc.c ****   * @param  RTC_Format: specifies the format of the entered parameters.
 917:App/STM32F4-Discovery/Libraries/STM32F4xx_StdPeriph_Driver/src/stm32f4xx_rtc.c ****   *          This parameter can be  one of the following values:
 918:App/STM32F4-Discovery/Libraries/STM32F4xx_StdPeriph_Driver/src/stm32f4xx_rtc.c ****   *            @arg RTC_Format_BIN:  Binary data format 
 919:App/STM32F4-Discovery/Libraries/STM32F4xx_StdPeriph_Driver/src/stm32f4xx_rtc.c ****   *            @arg RTC_Format_BCD:  BCD data format
 920:App/STM32F4-Discovery/Libraries/STM32F4xx_StdPeriph_Driver/src/stm32f4xx_rtc.c ****   * @param  RTC_DateStruct: pointer to a RTC_DateTypeDef structure that contains 
 921:App/STM32F4-Discovery/Libraries/STM32F4xx_StdPeriph_Driver/src/stm32f4xx_rtc.c ****   *                         the date configuration information for the RTC.
 922:App/STM32F4-Discovery/Libraries/STM32F4xx_StdPeriph_Driver/src/stm32f4xx_rtc.c ****   * @retval An ErrorStatus enumeration value:
 923:App/STM32F4-Discovery/Libraries/STM32F4xx_StdPeriph_Driver/src/stm32f4xx_rtc.c ****   *          - SUCCESS: RTC Date register is configured
 924:App/STM32F4-Discovery/Libraries/STM32F4xx_StdPeriph_Driver/src/stm32f4xx_rtc.c ****   *          - ERROR: RTC Date register is not configured
 925:App/STM32F4-Discovery/Libraries/STM32F4xx_StdPeriph_Driver/src/stm32f4xx_rtc.c ****   */
 926:App/STM32F4-Discovery/Libraries/STM32F4xx_StdPeriph_Driver/src/stm32f4xx_rtc.c **** ErrorStatus RTC_SetDate(uint32_t RTC_Format, RTC_DateTypeDef* RTC_DateStruct)
 927:App/STM32F4-Discovery/Libraries/STM32F4xx_StdPeriph_Driver/src/stm32f4xx_rtc.c **** {
 1400              		.loc 1 927 0
 1401              		.cfi_startproc
 1402              		@ args = 0, pretend = 0, frame = 16
 1403              		@ frame_needed = 1, uses_anonymous_args = 0
 1404 0000 90B5     		push	{r4, r7, lr}
 1405              	.LCFI38:
 1406              		.cfi_def_cfa_offset 12
 1407              		.cfi_offset 4, -12
 1408              		.cfi_offset 7, -8
 1409              		.cfi_offset 14, -4
 1410 0002 85B0     		sub	sp, sp, #20
 1411              	.LCFI39:
 1412              		.cfi_def_cfa_offset 32
 1413 0004 00AF     		add	r7, sp, #0
 1414              	.LCFI40:
 1415              		.cfi_def_cfa_register 7
 1416 0006 7860     		str	r0, [r7, #4]
 1417 0008 3960     		str	r1, [r7]
 928:App/STM32F4-Discovery/Libraries/STM32F4xx_StdPeriph_Driver/src/stm32f4xx_rtc.c ****   uint32_t tmpreg = 0;
 1418              		.loc 1 928 0
 1419 000a 0023     		movs	r3, #0
 1420 000c FB60     		str	r3, [r7, #12]
 929:App/STM32F4-Discovery/Libraries/STM32F4xx_StdPeriph_Driver/src/stm32f4xx_rtc.c ****   ErrorStatus status = ERROR;
 1421              		.loc 1 929 0
 1422 000e 0023     		movs	r3, #0
 1423 0010 FB72     		strb	r3, [r7, #11]
 930:App/STM32F4-Discovery/Libraries/STM32F4xx_StdPeriph_Driver/src/stm32f4xx_rtc.c ****   
 931:App/STM32F4-Discovery/Libraries/STM32F4xx_StdPeriph_Driver/src/stm32f4xx_rtc.c ****   /* Check the parameters */
 932:App/STM32F4-Discovery/Libraries/STM32F4xx_StdPeriph_Driver/src/stm32f4xx_rtc.c ****   assert_param(IS_RTC_FORMAT(RTC_Format));
 1424              		.loc 1 932 0
 1425 0012 7B68     		ldr	r3, [r7, #4]
 1426 0014 002B     		cmp	r3, #0
 1427 0016 07D0     		beq	.L96
 1428              		.loc 1 932 0 is_stmt 0 discriminator 1
 1429 0018 7B68     		ldr	r3, [r7, #4]
 1430 001a 012B     		cmp	r3, #1
 1431 001c 04D0     		beq	.L96
 1432 001e 7448     		ldr	r0, .L116
 1433 0020 4FF46971 		mov	r1, #932
 1434 0024 FFF7FEFF 		bl	assert_failed
 1435              	.L96:
 933:App/STM32F4-Discovery/Libraries/STM32F4xx_StdPeriph_Driver/src/stm32f4xx_rtc.c **** 
 934:App/STM32F4-Discovery/Libraries/STM32F4xx_StdPeriph_Driver/src/stm32f4xx_rtc.c ****   if ((RTC_Format == RTC_Format_BIN) && ((RTC_DateStruct->RTC_Month & 0x10) == 0x10))
 1436              		.loc 1 934 0 is_stmt 1
 1437 0028 7B68     		ldr	r3, [r7, #4]
 1438 002a 002B     		cmp	r3, #0
 1439 002c 0ED1     		bne	.L97
 1440              		.loc 1 934 0 is_stmt 0 discriminator 1
 1441 002e 3B68     		ldr	r3, [r7]
 1442 0030 5B78     		ldrb	r3, [r3, #1]	@ zero_extendqisi2
 1443 0032 03F01003 		and	r3, r3, #16
 1444 0036 002B     		cmp	r3, #0
 1445 0038 08D0     		beq	.L97
 935:App/STM32F4-Discovery/Libraries/STM32F4xx_StdPeriph_Driver/src/stm32f4xx_rtc.c ****   {
 936:App/STM32F4-Discovery/Libraries/STM32F4xx_StdPeriph_Driver/src/stm32f4xx_rtc.c ****     RTC_DateStruct->RTC_Month = (RTC_DateStruct->RTC_Month & (uint32_t)~(0x10)) + 0x0A;
 1446              		.loc 1 936 0 is_stmt 1
 1447 003a 3B68     		ldr	r3, [r7]
 1448 003c 5B78     		ldrb	r3, [r3, #1]	@ zero_extendqisi2
 1449 003e 23F01003 		bic	r3, r3, #16
 1450 0042 DBB2     		uxtb	r3, r3
 1451 0044 0A33     		adds	r3, r3, #10
 1452 0046 DAB2     		uxtb	r2, r3
 1453 0048 3B68     		ldr	r3, [r7]
 1454 004a 5A70     		strb	r2, [r3, #1]
 1455              	.L97:
 937:App/STM32F4-Discovery/Libraries/STM32F4xx_StdPeriph_Driver/src/stm32f4xx_rtc.c ****   }  
 938:App/STM32F4-Discovery/Libraries/STM32F4xx_StdPeriph_Driver/src/stm32f4xx_rtc.c ****   if (RTC_Format == RTC_Format_BIN)
 1456              		.loc 1 938 0
 1457 004c 7B68     		ldr	r3, [r7, #4]
 1458 004e 002B     		cmp	r3, #0
 1459 0050 23D1     		bne	.L98
 939:App/STM32F4-Discovery/Libraries/STM32F4xx_StdPeriph_Driver/src/stm32f4xx_rtc.c ****   {
 940:App/STM32F4-Discovery/Libraries/STM32F4xx_StdPeriph_Driver/src/stm32f4xx_rtc.c ****     assert_param(IS_RTC_YEAR(RTC_DateStruct->RTC_Year));
 1460              		.loc 1 940 0
 1461 0052 3B68     		ldr	r3, [r7]
 1462 0054 DB78     		ldrb	r3, [r3, #3]	@ zero_extendqisi2
 1463 0056 632B     		cmp	r3, #99
 1464 0058 04D9     		bls	.L99
 1465              		.loc 1 940 0 is_stmt 0 discriminator 1
 1466 005a 6548     		ldr	r0, .L116
 1467 005c 4FF46B71 		mov	r1, #940
 1468 0060 FFF7FEFF 		bl	assert_failed
 1469              	.L99:
 941:App/STM32F4-Discovery/Libraries/STM32F4xx_StdPeriph_Driver/src/stm32f4xx_rtc.c ****     assert_param(IS_RTC_MONTH(RTC_DateStruct->RTC_Month));
 1470              		.loc 1 941 0 is_stmt 1
 1471 0064 3B68     		ldr	r3, [r7]
 1472 0066 5B78     		ldrb	r3, [r3, #1]	@ zero_extendqisi2
 1473 0068 002B     		cmp	r3, #0
 1474 006a 03D0     		beq	.L100
 1475              		.loc 1 941 0 is_stmt 0 discriminator 2
 1476 006c 3B68     		ldr	r3, [r7]
 1477 006e 5B78     		ldrb	r3, [r3, #1]	@ zero_extendqisi2
 1478 0070 0C2B     		cmp	r3, #12
 1479 0072 04D9     		bls	.L101
 1480              	.L100:
 1481              		.loc 1 941 0 discriminator 1
 1482 0074 5E48     		ldr	r0, .L116
 1483 0076 40F2AD31 		movw	r1, #941
 1484 007a FFF7FEFF 		bl	assert_failed
 1485              	.L101:
 942:App/STM32F4-Discovery/Libraries/STM32F4xx_StdPeriph_Driver/src/stm32f4xx_rtc.c ****     assert_param(IS_RTC_DATE(RTC_DateStruct->RTC_Date));
 1486              		.loc 1 942 0 is_stmt 1
 1487 007e 3B68     		ldr	r3, [r7]
 1488 0080 9B78     		ldrb	r3, [r3, #2]	@ zero_extendqisi2
 1489 0082 002B     		cmp	r3, #0
 1490 0084 03D0     		beq	.L102
 1491              		.loc 1 942 0 is_stmt 0 discriminator 2
 1492 0086 3B68     		ldr	r3, [r7]
 1493 0088 9B78     		ldrb	r3, [r3, #2]	@ zero_extendqisi2
 1494 008a 1F2B     		cmp	r3, #31
 1495 008c 36D9     		bls	.L104
 1496              	.L102:
 1497              		.loc 1 942 0 discriminator 1
 1498 008e 5848     		ldr	r0, .L116
 1499 0090 40F2AE31 		movw	r1, #942
 1500 0094 FFF7FEFF 		bl	assert_failed
 1501 0098 30E0     		b	.L104
 1502              	.L98:
 943:App/STM32F4-Discovery/Libraries/STM32F4xx_StdPeriph_Driver/src/stm32f4xx_rtc.c ****   }
 944:App/STM32F4-Discovery/Libraries/STM32F4xx_StdPeriph_Driver/src/stm32f4xx_rtc.c ****   else
 945:App/STM32F4-Discovery/Libraries/STM32F4xx_StdPeriph_Driver/src/stm32f4xx_rtc.c ****   {
 946:App/STM32F4-Discovery/Libraries/STM32F4xx_StdPeriph_Driver/src/stm32f4xx_rtc.c ****     assert_param(IS_RTC_YEAR(RTC_Bcd2ToByte(RTC_DateStruct->RTC_Year)));
 1503              		.loc 1 946 0 is_stmt 1
 1504 009a 3B68     		ldr	r3, [r7]
 1505 009c DB78     		ldrb	r3, [r3, #3]	@ zero_extendqisi2
 1506 009e 1846     		mov	r0, r3
 1507 00a0 FFF7FEFF 		bl	RTC_Bcd2ToByte
 1508 00a4 0346     		mov	r3, r0
 1509 00a6 632B     		cmp	r3, #99
 1510 00a8 04D9     		bls	.L105
 1511              		.loc 1 946 0 is_stmt 0 discriminator 1
 1512 00aa 5148     		ldr	r0, .L116
 1513 00ac 40F2B231 		movw	r1, #946
 1514 00b0 FFF7FEFF 		bl	assert_failed
 1515              	.L105:
 947:App/STM32F4-Discovery/Libraries/STM32F4xx_StdPeriph_Driver/src/stm32f4xx_rtc.c ****     tmpreg = RTC_Bcd2ToByte(RTC_DateStruct->RTC_Month);
 1516              		.loc 1 947 0 is_stmt 1
 1517 00b4 3B68     		ldr	r3, [r7]
 1518 00b6 5B78     		ldrb	r3, [r3, #1]	@ zero_extendqisi2
 1519 00b8 1846     		mov	r0, r3
 1520 00ba FFF7FEFF 		bl	RTC_Bcd2ToByte
 1521 00be 0346     		mov	r3, r0
 1522 00c0 FB60     		str	r3, [r7, #12]
 948:App/STM32F4-Discovery/Libraries/STM32F4xx_StdPeriph_Driver/src/stm32f4xx_rtc.c ****     assert_param(IS_RTC_MONTH(tmpreg));
 1523              		.loc 1 948 0
 1524 00c2 FB68     		ldr	r3, [r7, #12]
 1525 00c4 002B     		cmp	r3, #0
 1526 00c6 02D0     		beq	.L106
 1527              		.loc 1 948 0 is_stmt 0 discriminator 2
 1528 00c8 FB68     		ldr	r3, [r7, #12]
 1529 00ca 0C2B     		cmp	r3, #12
 1530 00cc 04D9     		bls	.L107
 1531              	.L106:
 1532              		.loc 1 948 0 discriminator 1
 1533 00ce 4848     		ldr	r0, .L116
 1534 00d0 4FF46D71 		mov	r1, #948
 1535 00d4 FFF7FEFF 		bl	assert_failed
 1536              	.L107:
 949:App/STM32F4-Discovery/Libraries/STM32F4xx_StdPeriph_Driver/src/stm32f4xx_rtc.c ****     tmpreg = RTC_Bcd2ToByte(RTC_DateStruct->RTC_Date);
 1537              		.loc 1 949 0 is_stmt 1
 1538 00d8 3B68     		ldr	r3, [r7]
 1539 00da 9B78     		ldrb	r3, [r3, #2]	@ zero_extendqisi2
 1540 00dc 1846     		mov	r0, r3
 1541 00de FFF7FEFF 		bl	RTC_Bcd2ToByte
 1542 00e2 0346     		mov	r3, r0
 1543 00e4 FB60     		str	r3, [r7, #12]
 950:App/STM32F4-Discovery/Libraries/STM32F4xx_StdPeriph_Driver/src/stm32f4xx_rtc.c ****     assert_param(IS_RTC_DATE(tmpreg));
 1544              		.loc 1 950 0
 1545 00e6 FB68     		ldr	r3, [r7, #12]
 1546 00e8 002B     		cmp	r3, #0
 1547 00ea 02D0     		beq	.L108
 1548              		.loc 1 950 0 is_stmt 0 discriminator 2
 1549 00ec FB68     		ldr	r3, [r7, #12]
 1550 00ee 1F2B     		cmp	r3, #31
 1551 00f0 04D9     		bls	.L104
 1552              	.L108:
 1553              		.loc 1 950 0 discriminator 1
 1554 00f2 3F48     		ldr	r0, .L116
 1555 00f4 40F2B631 		movw	r1, #950
 1556 00f8 FFF7FEFF 		bl	assert_failed
 1557              	.L104:
 951:App/STM32F4-Discovery/Libraries/STM32F4xx_StdPeriph_Driver/src/stm32f4xx_rtc.c ****   }
 952:App/STM32F4-Discovery/Libraries/STM32F4xx_StdPeriph_Driver/src/stm32f4xx_rtc.c ****   assert_param(IS_RTC_WEEKDAY(RTC_DateStruct->RTC_WeekDay));
 1558              		.loc 1 952 0 is_stmt 1
 1559 00fc 3B68     		ldr	r3, [r7]
 1560 00fe 1B78     		ldrb	r3, [r3]	@ zero_extendqisi2
 1561 0100 012B     		cmp	r3, #1
 1562 0102 1CD0     		beq	.L109
 1563              		.loc 1 952 0 is_stmt 0 discriminator 1
 1564 0104 3B68     		ldr	r3, [r7]
 1565 0106 1B78     		ldrb	r3, [r3]	@ zero_extendqisi2
 1566 0108 022B     		cmp	r3, #2
 1567 010a 18D0     		beq	.L109
 1568 010c 3B68     		ldr	r3, [r7]
 1569 010e 1B78     		ldrb	r3, [r3]	@ zero_extendqisi2
 1570 0110 032B     		cmp	r3, #3
 1571 0112 14D0     		beq	.L109
 1572 0114 3B68     		ldr	r3, [r7]
 1573 0116 1B78     		ldrb	r3, [r3]	@ zero_extendqisi2
 1574 0118 042B     		cmp	r3, #4
 1575 011a 10D0     		beq	.L109
 1576 011c 3B68     		ldr	r3, [r7]
 1577 011e 1B78     		ldrb	r3, [r3]	@ zero_extendqisi2
 1578 0120 052B     		cmp	r3, #5
 1579 0122 0CD0     		beq	.L109
 1580 0124 3B68     		ldr	r3, [r7]
 1581 0126 1B78     		ldrb	r3, [r3]	@ zero_extendqisi2
 1582 0128 062B     		cmp	r3, #6
 1583 012a 08D0     		beq	.L109
 1584 012c 3B68     		ldr	r3, [r7]
 1585 012e 1B78     		ldrb	r3, [r3]	@ zero_extendqisi2
 1586 0130 072B     		cmp	r3, #7
 1587 0132 04D0     		beq	.L109
 1588 0134 2E48     		ldr	r0, .L116
 1589 0136 4FF46E71 		mov	r1, #952
 1590 013a FFF7FEFF 		bl	assert_failed
 1591              	.L109:
 953:App/STM32F4-Discovery/Libraries/STM32F4xx_StdPeriph_Driver/src/stm32f4xx_rtc.c **** 
 954:App/STM32F4-Discovery/Libraries/STM32F4xx_StdPeriph_Driver/src/stm32f4xx_rtc.c ****   /* Check the input parameters format */
 955:App/STM32F4-Discovery/Libraries/STM32F4xx_StdPeriph_Driver/src/stm32f4xx_rtc.c ****   if (RTC_Format != RTC_Format_BIN)
 1592              		.loc 1 955 0 is_stmt 1
 1593 013e 7B68     		ldr	r3, [r7, #4]
 1594 0140 002B     		cmp	r3, #0
 1595 0142 0FD0     		beq	.L110
 956:App/STM32F4-Discovery/Libraries/STM32F4xx_StdPeriph_Driver/src/stm32f4xx_rtc.c ****   {
 957:App/STM32F4-Discovery/Libraries/STM32F4xx_StdPeriph_Driver/src/stm32f4xx_rtc.c ****     tmpreg = ((((uint32_t)RTC_DateStruct->RTC_Year) << 16) | \
 1596              		.loc 1 957 0
 1597 0144 3B68     		ldr	r3, [r7]
 1598 0146 DB78     		ldrb	r3, [r3, #3]	@ zero_extendqisi2
 1599 0148 1A04     		lsls	r2, r3, #16
 958:App/STM32F4-Discovery/Libraries/STM32F4xx_StdPeriph_Driver/src/stm32f4xx_rtc.c ****               (((uint32_t)RTC_DateStruct->RTC_Month) << 8) | \
 1600              		.loc 1 958 0
 1601 014a 3B68     		ldr	r3, [r7]
 1602 014c 5B78     		ldrb	r3, [r3, #1]	@ zero_extendqisi2
 1603 014e 1B02     		lsls	r3, r3, #8
 957:App/STM32F4-Discovery/Libraries/STM32F4xx_StdPeriph_Driver/src/stm32f4xx_rtc.c ****     tmpreg = ((((uint32_t)RTC_DateStruct->RTC_Year) << 16) | \
 1604              		.loc 1 957 0
 1605 0150 1A43     		orrs	r2, r2, r3
 959:App/STM32F4-Discovery/Libraries/STM32F4xx_StdPeriph_Driver/src/stm32f4xx_rtc.c ****               ((uint32_t)RTC_DateStruct->RTC_Date) | \
 1606              		.loc 1 959 0
 1607 0152 3B68     		ldr	r3, [r7]
 1608 0154 9B78     		ldrb	r3, [r3, #2]	@ zero_extendqisi2
 958:App/STM32F4-Discovery/Libraries/STM32F4xx_StdPeriph_Driver/src/stm32f4xx_rtc.c ****               (((uint32_t)RTC_DateStruct->RTC_Month) << 8) | \
 1609              		.loc 1 958 0
 1610 0156 1A43     		orrs	r2, r2, r3
 960:App/STM32F4-Discovery/Libraries/STM32F4xx_StdPeriph_Driver/src/stm32f4xx_rtc.c ****               (((uint32_t)RTC_DateStruct->RTC_WeekDay) << 13)); 
 1611              		.loc 1 960 0
 1612 0158 3B68     		ldr	r3, [r7]
 1613 015a 1B78     		ldrb	r3, [r3]	@ zero_extendqisi2
 1614 015c 5B03     		lsls	r3, r3, #13
 957:App/STM32F4-Discovery/Libraries/STM32F4xx_StdPeriph_Driver/src/stm32f4xx_rtc.c ****     tmpreg = ((((uint32_t)RTC_DateStruct->RTC_Year) << 16) | \
 1615              		.loc 1 957 0
 1616 015e 1343     		orrs	r3, r3, r2
 1617 0160 FB60     		str	r3, [r7, #12]
 1618 0162 1BE0     		b	.L111
 1619              	.L110:
 961:App/STM32F4-Discovery/Libraries/STM32F4xx_StdPeriph_Driver/src/stm32f4xx_rtc.c ****   }  
 962:App/STM32F4-Discovery/Libraries/STM32F4xx_StdPeriph_Driver/src/stm32f4xx_rtc.c ****   else
 963:App/STM32F4-Discovery/Libraries/STM32F4xx_StdPeriph_Driver/src/stm32f4xx_rtc.c ****   {
 964:App/STM32F4-Discovery/Libraries/STM32F4xx_StdPeriph_Driver/src/stm32f4xx_rtc.c ****     tmpreg = (((uint32_t)RTC_ByteToBcd2(RTC_DateStruct->RTC_Year) << 16) | \
 1620              		.loc 1 964 0
 1621 0164 3B68     		ldr	r3, [r7]
 1622 0166 DB78     		ldrb	r3, [r3, #3]	@ zero_extendqisi2
 1623 0168 1846     		mov	r0, r3
 1624 016a FFF7FEFF 		bl	RTC_ByteToBcd2
 1625 016e 0346     		mov	r3, r0
 1626 0170 1C04     		lsls	r4, r3, #16
 965:App/STM32F4-Discovery/Libraries/STM32F4xx_StdPeriph_Driver/src/stm32f4xx_rtc.c ****               ((uint32_t)RTC_ByteToBcd2(RTC_DateStruct->RTC_Month) << 8) | \
 1627              		.loc 1 965 0
 1628 0172 3B68     		ldr	r3, [r7]
 1629 0174 5B78     		ldrb	r3, [r3, #1]	@ zero_extendqisi2
 1630 0176 1846     		mov	r0, r3
 1631 0178 FFF7FEFF 		bl	RTC_ByteToBcd2
 1632 017c 0346     		mov	r3, r0
 1633 017e 1B02     		lsls	r3, r3, #8
 964:App/STM32F4-Discovery/Libraries/STM32F4xx_StdPeriph_Driver/src/stm32f4xx_rtc.c ****     tmpreg = (((uint32_t)RTC_ByteToBcd2(RTC_DateStruct->RTC_Year) << 16) | \
 1634              		.loc 1 964 0
 1635 0180 1C43     		orrs	r4, r4, r3
 966:App/STM32F4-Discovery/Libraries/STM32F4xx_StdPeriph_Driver/src/stm32f4xx_rtc.c ****               ((uint32_t)RTC_ByteToBcd2(RTC_DateStruct->RTC_Date)) | \
 1636              		.loc 1 966 0
 1637 0182 3B68     		ldr	r3, [r7]
 1638 0184 9B78     		ldrb	r3, [r3, #2]	@ zero_extendqisi2
 1639 0186 1846     		mov	r0, r3
 1640 0188 FFF7FEFF 		bl	RTC_ByteToBcd2
 1641 018c 0346     		mov	r3, r0
 965:App/STM32F4-Discovery/Libraries/STM32F4xx_StdPeriph_Driver/src/stm32f4xx_rtc.c ****               ((uint32_t)RTC_ByteToBcd2(RTC_DateStruct->RTC_Month) << 8) | \
 1642              		.loc 1 965 0
 1643 018e 44EA0302 		orr	r2, r4, r3
 967:App/STM32F4-Discovery/Libraries/STM32F4xx_StdPeriph_Driver/src/stm32f4xx_rtc.c ****               ((uint32_t)RTC_DateStruct->RTC_WeekDay << 13));
 1644              		.loc 1 967 0
 1645 0192 3B68     		ldr	r3, [r7]
 1646 0194 1B78     		ldrb	r3, [r3]	@ zero_extendqisi2
 1647 0196 5B03     		lsls	r3, r3, #13
 964:App/STM32F4-Discovery/Libraries/STM32F4xx_StdPeriph_Driver/src/stm32f4xx_rtc.c ****     tmpreg = (((uint32_t)RTC_ByteToBcd2(RTC_DateStruct->RTC_Year) << 16) | \
 1648              		.loc 1 964 0
 1649 0198 1343     		orrs	r3, r3, r2
 1650 019a FB60     		str	r3, [r7, #12]
 1651              	.L111:
 968:App/STM32F4-Discovery/Libraries/STM32F4xx_StdPeriph_Driver/src/stm32f4xx_rtc.c ****   }
 969:App/STM32F4-Discovery/Libraries/STM32F4xx_StdPeriph_Driver/src/stm32f4xx_rtc.c **** 
 970:App/STM32F4-Discovery/Libraries/STM32F4xx_StdPeriph_Driver/src/stm32f4xx_rtc.c ****   /* Disable the write protection for RTC registers */
 971:App/STM32F4-Discovery/Libraries/STM32F4xx_StdPeriph_Driver/src/stm32f4xx_rtc.c ****   RTC->WPR = 0xCA;
 1652              		.loc 1 971 0
 1653 019c 154B     		ldr	r3, .L116+4
 1654 019e CA22     		movs	r2, #202
 1655 01a0 5A62     		str	r2, [r3, #36]
 972:App/STM32F4-Discovery/Libraries/STM32F4xx_StdPeriph_Driver/src/stm32f4xx_rtc.c ****   RTC->WPR = 0x53;
 1656              		.loc 1 972 0
 1657 01a2 144B     		ldr	r3, .L116+4
 1658 01a4 5322     		movs	r2, #83
 1659 01a6 5A62     		str	r2, [r3, #36]
 973:App/STM32F4-Discovery/Libraries/STM32F4xx_StdPeriph_Driver/src/stm32f4xx_rtc.c **** 
 974:App/STM32F4-Discovery/Libraries/STM32F4xx_StdPeriph_Driver/src/stm32f4xx_rtc.c ****   /* Set Initialization mode */
 975:App/STM32F4-Discovery/Libraries/STM32F4xx_StdPeriph_Driver/src/stm32f4xx_rtc.c ****   if (RTC_EnterInitMode() == ERROR)
 1660              		.loc 1 975 0
 1661 01a8 FFF7FEFF 		bl	RTC_EnterInitMode
 1662 01ac 0346     		mov	r3, r0
 1663 01ae 002B     		cmp	r3, #0
 1664 01b0 02D1     		bne	.L112
 976:App/STM32F4-Discovery/Libraries/STM32F4xx_StdPeriph_Driver/src/stm32f4xx_rtc.c ****   {
 977:App/STM32F4-Discovery/Libraries/STM32F4xx_StdPeriph_Driver/src/stm32f4xx_rtc.c ****     status = ERROR;
 1665              		.loc 1 977 0
 1666 01b2 0023     		movs	r3, #0
 1667 01b4 FB72     		strb	r3, [r7, #11]
 1668 01b6 12E0     		b	.L113
 1669              	.L112:
 978:App/STM32F4-Discovery/Libraries/STM32F4xx_StdPeriph_Driver/src/stm32f4xx_rtc.c ****   } 
 979:App/STM32F4-Discovery/Libraries/STM32F4xx_StdPeriph_Driver/src/stm32f4xx_rtc.c ****   else
 980:App/STM32F4-Discovery/Libraries/STM32F4xx_StdPeriph_Driver/src/stm32f4xx_rtc.c ****   {
 981:App/STM32F4-Discovery/Libraries/STM32F4xx_StdPeriph_Driver/src/stm32f4xx_rtc.c ****     /* Set the RTC_DR register */
 982:App/STM32F4-Discovery/Libraries/STM32F4xx_StdPeriph_Driver/src/stm32f4xx_rtc.c ****     RTC->DR = (uint32_t)(tmpreg & RTC_DR_RESERVED_MASK);
 1670              		.loc 1 982 0
 1671 01b8 0E4A     		ldr	r2, .L116+4
 1672 01ba FB68     		ldr	r3, [r7, #12]
 1673 01bc 23F07F43 		bic	r3, r3, #-16777216
 1674 01c0 23F0C003 		bic	r3, r3, #192
 1675 01c4 5360     		str	r3, [r2, #4]
 983:App/STM32F4-Discovery/Libraries/STM32F4xx_StdPeriph_Driver/src/stm32f4xx_rtc.c **** 
 984:App/STM32F4-Discovery/Libraries/STM32F4xx_StdPeriph_Driver/src/stm32f4xx_rtc.c ****     /* Exit Initialization mode */
 985:App/STM32F4-Discovery/Libraries/STM32F4xx_StdPeriph_Driver/src/stm32f4xx_rtc.c ****     RTC_ExitInitMode(); 
 1676              		.loc 1 985 0
 1677 01c6 FFF7FEFF 		bl	RTC_ExitInitMode
 986:App/STM32F4-Discovery/Libraries/STM32F4xx_StdPeriph_Driver/src/stm32f4xx_rtc.c **** 
 987:App/STM32F4-Discovery/Libraries/STM32F4xx_StdPeriph_Driver/src/stm32f4xx_rtc.c ****     if(RTC_WaitForSynchro() == ERROR)
 1678              		.loc 1 987 0
 1679 01ca FFF7FEFF 		bl	RTC_WaitForSynchro
 1680 01ce 0346     		mov	r3, r0
 1681 01d0 002B     		cmp	r3, #0
 1682 01d2 02D1     		bne	.L114
 988:App/STM32F4-Discovery/Libraries/STM32F4xx_StdPeriph_Driver/src/stm32f4xx_rtc.c ****     {
 989:App/STM32F4-Discovery/Libraries/STM32F4xx_StdPeriph_Driver/src/stm32f4xx_rtc.c ****       status = ERROR;
 1683              		.loc 1 989 0
 1684 01d4 0023     		movs	r3, #0
 1685 01d6 FB72     		strb	r3, [r7, #11]
 1686 01d8 01E0     		b	.L113
 1687              	.L114:
 990:App/STM32F4-Discovery/Libraries/STM32F4xx_StdPeriph_Driver/src/stm32f4xx_rtc.c ****     }
 991:App/STM32F4-Discovery/Libraries/STM32F4xx_StdPeriph_Driver/src/stm32f4xx_rtc.c ****     else
 992:App/STM32F4-Discovery/Libraries/STM32F4xx_StdPeriph_Driver/src/stm32f4xx_rtc.c ****     {
 993:App/STM32F4-Discovery/Libraries/STM32F4xx_StdPeriph_Driver/src/stm32f4xx_rtc.c ****       status = SUCCESS;
 1688              		.loc 1 993 0
 1689 01da 0123     		movs	r3, #1
 1690 01dc FB72     		strb	r3, [r7, #11]
 1691              	.L113:
 994:App/STM32F4-Discovery/Libraries/STM32F4xx_StdPeriph_Driver/src/stm32f4xx_rtc.c ****     }
 995:App/STM32F4-Discovery/Libraries/STM32F4xx_StdPeriph_Driver/src/stm32f4xx_rtc.c ****   }
 996:App/STM32F4-Discovery/Libraries/STM32F4xx_StdPeriph_Driver/src/stm32f4xx_rtc.c ****   /* Enable the write protection for RTC registers */
 997:App/STM32F4-Discovery/Libraries/STM32F4xx_StdPeriph_Driver/src/stm32f4xx_rtc.c ****   RTC->WPR = 0xFF;   
 1692              		.loc 1 997 0
 1693 01de 054B     		ldr	r3, .L116+4
 1694 01e0 FF22     		movs	r2, #255
 1695 01e2 5A62     		str	r2, [r3, #36]
 998:App/STM32F4-Discovery/Libraries/STM32F4xx_StdPeriph_Driver/src/stm32f4xx_rtc.c ****   
 999:App/STM32F4-Discovery/Libraries/STM32F4xx_StdPeriph_Driver/src/stm32f4xx_rtc.c ****   return status;
 1696              		.loc 1 999 0
 1697 01e4 FB7A     		ldrb	r3, [r7, #11]	@ zero_extendqisi2
1000:App/STM32F4-Discovery/Libraries/STM32F4xx_StdPeriph_Driver/src/stm32f4xx_rtc.c **** }
 1698              		.loc 1 1000 0
 1699 01e6 1846     		mov	r0, r3
 1700 01e8 1437     		adds	r7, r7, #20
 1701 01ea BD46     		mov	sp, r7
 1702              		@ sp needed
 1703 01ec 90BD     		pop	{r4, r7, pc}
 1704              	.L117:
 1705 01ee 00BF     		.align	2
 1706              	.L116:
 1707 01f0 00000000 		.word	.LC0
 1708 01f4 00280040 		.word	1073752064
 1709              		.cfi_endproc
 1710              	.LFE123:
 1712              		.section	.text.RTC_DateStructInit,"ax",%progbits
 1713              		.align	2
 1714              		.global	RTC_DateStructInit
 1715              		.thumb
 1716              		.thumb_func
 1718              	RTC_DateStructInit:
 1719              	.LFB124:
1001:App/STM32F4-Discovery/Libraries/STM32F4xx_StdPeriph_Driver/src/stm32f4xx_rtc.c **** 
1002:App/STM32F4-Discovery/Libraries/STM32F4xx_StdPeriph_Driver/src/stm32f4xx_rtc.c **** /**
1003:App/STM32F4-Discovery/Libraries/STM32F4xx_StdPeriph_Driver/src/stm32f4xx_rtc.c ****   * @brief  Fills each RTC_DateStruct member with its default value
1004:App/STM32F4-Discovery/Libraries/STM32F4xx_StdPeriph_Driver/src/stm32f4xx_rtc.c ****   *         (Monday, January 01 xx00).
1005:App/STM32F4-Discovery/Libraries/STM32F4xx_StdPeriph_Driver/src/stm32f4xx_rtc.c ****   * @param  RTC_DateStruct: pointer to a RTC_DateTypeDef structure which will be 
1006:App/STM32F4-Discovery/Libraries/STM32F4xx_StdPeriph_Driver/src/stm32f4xx_rtc.c ****   *         initialized.
1007:App/STM32F4-Discovery/Libraries/STM32F4xx_StdPeriph_Driver/src/stm32f4xx_rtc.c ****   * @retval None
1008:App/STM32F4-Discovery/Libraries/STM32F4xx_StdPeriph_Driver/src/stm32f4xx_rtc.c ****   */
1009:App/STM32F4-Discovery/Libraries/STM32F4xx_StdPeriph_Driver/src/stm32f4xx_rtc.c **** void RTC_DateStructInit(RTC_DateTypeDef* RTC_DateStruct)
1010:App/STM32F4-Discovery/Libraries/STM32F4xx_StdPeriph_Driver/src/stm32f4xx_rtc.c **** {
 1720              		.loc 1 1010 0
 1721              		.cfi_startproc
 1722              		@ args = 0, pretend = 0, frame = 8
 1723              		@ frame_needed = 1, uses_anonymous_args = 0
 1724              		@ link register save eliminated.
 1725 0000 80B4     		push	{r7}
 1726              	.LCFI41:
 1727              		.cfi_def_cfa_offset 4
 1728              		.cfi_offset 7, -4
 1729 0002 83B0     		sub	sp, sp, #12
 1730              	.LCFI42:
 1731              		.cfi_def_cfa_offset 16
 1732 0004 00AF     		add	r7, sp, #0
 1733              	.LCFI43:
 1734              		.cfi_def_cfa_register 7
 1735 0006 7860     		str	r0, [r7, #4]
1011:App/STM32F4-Discovery/Libraries/STM32F4xx_StdPeriph_Driver/src/stm32f4xx_rtc.c ****   /* Monday, January 01 xx00 */
1012:App/STM32F4-Discovery/Libraries/STM32F4xx_StdPeriph_Driver/src/stm32f4xx_rtc.c ****   RTC_DateStruct->RTC_WeekDay = RTC_Weekday_Monday;
 1736              		.loc 1 1012 0
 1737 0008 7B68     		ldr	r3, [r7, #4]
 1738 000a 0122     		movs	r2, #1
 1739 000c 1A70     		strb	r2, [r3]
1013:App/STM32F4-Discovery/Libraries/STM32F4xx_StdPeriph_Driver/src/stm32f4xx_rtc.c ****   RTC_DateStruct->RTC_Date = 1;
 1740              		.loc 1 1013 0
 1741 000e 7B68     		ldr	r3, [r7, #4]
 1742 0010 0122     		movs	r2, #1
 1743 0012 9A70     		strb	r2, [r3, #2]
1014:App/STM32F4-Discovery/Libraries/STM32F4xx_StdPeriph_Driver/src/stm32f4xx_rtc.c ****   RTC_DateStruct->RTC_Month = RTC_Month_January;
 1744              		.loc 1 1014 0
 1745 0014 7B68     		ldr	r3, [r7, #4]
 1746 0016 0122     		movs	r2, #1
 1747 0018 5A70     		strb	r2, [r3, #1]
1015:App/STM32F4-Discovery/Libraries/STM32F4xx_StdPeriph_Driver/src/stm32f4xx_rtc.c ****   RTC_DateStruct->RTC_Year = 0;
 1748              		.loc 1 1015 0
 1749 001a 7B68     		ldr	r3, [r7, #4]
 1750 001c 0022     		movs	r2, #0
 1751 001e DA70     		strb	r2, [r3, #3]
1016:App/STM32F4-Discovery/Libraries/STM32F4xx_StdPeriph_Driver/src/stm32f4xx_rtc.c **** }
 1752              		.loc 1 1016 0
 1753 0020 0C37     		adds	r7, r7, #12
 1754 0022 BD46     		mov	sp, r7
 1755              		@ sp needed
 1756 0024 5DF8047B 		ldr	r7, [sp], #4
 1757 0028 7047     		bx	lr
 1758              		.cfi_endproc
 1759              	.LFE124:
 1761 002a 00BF     		.section	.text.RTC_GetDate,"ax",%progbits
 1762              		.align	2
 1763              		.global	RTC_GetDate
 1764              		.thumb
 1765              		.thumb_func
 1767              	RTC_GetDate:
 1768              	.LFB125:
1017:App/STM32F4-Discovery/Libraries/STM32F4xx_StdPeriph_Driver/src/stm32f4xx_rtc.c **** 
1018:App/STM32F4-Discovery/Libraries/STM32F4xx_StdPeriph_Driver/src/stm32f4xx_rtc.c **** /**
1019:App/STM32F4-Discovery/Libraries/STM32F4xx_StdPeriph_Driver/src/stm32f4xx_rtc.c ****   * @brief  Get the RTC current date. 
1020:App/STM32F4-Discovery/Libraries/STM32F4xx_StdPeriph_Driver/src/stm32f4xx_rtc.c ****   * @param  RTC_Format: specifies the format of the returned parameters.
1021:App/STM32F4-Discovery/Libraries/STM32F4xx_StdPeriph_Driver/src/stm32f4xx_rtc.c ****   *          This parameter can be one of the following values:
1022:App/STM32F4-Discovery/Libraries/STM32F4xx_StdPeriph_Driver/src/stm32f4xx_rtc.c ****   *            @arg RTC_Format_BIN: Binary data format 
1023:App/STM32F4-Discovery/Libraries/STM32F4xx_StdPeriph_Driver/src/stm32f4xx_rtc.c ****   *            @arg RTC_Format_BCD: BCD data format
1024:App/STM32F4-Discovery/Libraries/STM32F4xx_StdPeriph_Driver/src/stm32f4xx_rtc.c ****   * @param RTC_DateStruct: pointer to a RTC_DateTypeDef structure that will 
1025:App/STM32F4-Discovery/Libraries/STM32F4xx_StdPeriph_Driver/src/stm32f4xx_rtc.c ****   *                        contain the returned current date configuration.     
1026:App/STM32F4-Discovery/Libraries/STM32F4xx_StdPeriph_Driver/src/stm32f4xx_rtc.c ****   * @retval None
1027:App/STM32F4-Discovery/Libraries/STM32F4xx_StdPeriph_Driver/src/stm32f4xx_rtc.c ****   */
1028:App/STM32F4-Discovery/Libraries/STM32F4xx_StdPeriph_Driver/src/stm32f4xx_rtc.c **** void RTC_GetDate(uint32_t RTC_Format, RTC_DateTypeDef* RTC_DateStruct)
1029:App/STM32F4-Discovery/Libraries/STM32F4xx_StdPeriph_Driver/src/stm32f4xx_rtc.c **** {
 1769              		.loc 1 1029 0
 1770              		.cfi_startproc
 1771              		@ args = 0, pretend = 0, frame = 16
 1772              		@ frame_needed = 1, uses_anonymous_args = 0
 1773 0000 80B5     		push	{r7, lr}
 1774              	.LCFI44:
 1775              		.cfi_def_cfa_offset 8
 1776              		.cfi_offset 7, -8
 1777              		.cfi_offset 14, -4
 1778 0002 84B0     		sub	sp, sp, #16
 1779              	.LCFI45:
 1780              		.cfi_def_cfa_offset 24
 1781 0004 00AF     		add	r7, sp, #0
 1782              	.LCFI46:
 1783              		.cfi_def_cfa_register 7
 1784 0006 7860     		str	r0, [r7, #4]
 1785 0008 3960     		str	r1, [r7]
1030:App/STM32F4-Discovery/Libraries/STM32F4xx_StdPeriph_Driver/src/stm32f4xx_rtc.c ****   uint32_t tmpreg = 0;
 1786              		.loc 1 1030 0
 1787 000a 0023     		movs	r3, #0
 1788 000c FB60     		str	r3, [r7, #12]
1031:App/STM32F4-Discovery/Libraries/STM32F4xx_StdPeriph_Driver/src/stm32f4xx_rtc.c **** 
1032:App/STM32F4-Discovery/Libraries/STM32F4xx_StdPeriph_Driver/src/stm32f4xx_rtc.c ****   /* Check the parameters */
1033:App/STM32F4-Discovery/Libraries/STM32F4xx_StdPeriph_Driver/src/stm32f4xx_rtc.c ****   assert_param(IS_RTC_FORMAT(RTC_Format));
 1789              		.loc 1 1033 0
 1790 000e 7B68     		ldr	r3, [r7, #4]
 1791 0010 002B     		cmp	r3, #0
 1792 0012 07D0     		beq	.L120
 1793              		.loc 1 1033 0 is_stmt 0 discriminator 1
 1794 0014 7B68     		ldr	r3, [r7, #4]
 1795 0016 012B     		cmp	r3, #1
 1796 0018 04D0     		beq	.L120
 1797 001a 2448     		ldr	r0, .L122
 1798 001c 40F20941 		movw	r1, #1033
 1799 0020 FFF7FEFF 		bl	assert_failed
 1800              	.L120:
1034:App/STM32F4-Discovery/Libraries/STM32F4xx_StdPeriph_Driver/src/stm32f4xx_rtc.c ****   
1035:App/STM32F4-Discovery/Libraries/STM32F4xx_StdPeriph_Driver/src/stm32f4xx_rtc.c ****   /* Get the RTC_TR register */
1036:App/STM32F4-Discovery/Libraries/STM32F4xx_StdPeriph_Driver/src/stm32f4xx_rtc.c ****   tmpreg = (uint32_t)(RTC->DR & RTC_DR_RESERVED_MASK); 
 1801              		.loc 1 1036 0 is_stmt 1
 1802 0024 224B     		ldr	r3, .L122+4
 1803 0026 5B68     		ldr	r3, [r3, #4]
 1804 0028 23F07F43 		bic	r3, r3, #-16777216
 1805 002c 23F0C003 		bic	r3, r3, #192
 1806 0030 FB60     		str	r3, [r7, #12]
1037:App/STM32F4-Discovery/Libraries/STM32F4xx_StdPeriph_Driver/src/stm32f4xx_rtc.c **** 
1038:App/STM32F4-Discovery/Libraries/STM32F4xx_StdPeriph_Driver/src/stm32f4xx_rtc.c ****   /* Fill the structure fields with the read parameters */
1039:App/STM32F4-Discovery/Libraries/STM32F4xx_StdPeriph_Driver/src/stm32f4xx_rtc.c ****   RTC_DateStruct->RTC_Year = (uint8_t)((tmpreg & (RTC_DR_YT | RTC_DR_YU)) >> 16);
 1807              		.loc 1 1039 0
 1808 0032 FB68     		ldr	r3, [r7, #12]
 1809 0034 03F47F03 		and	r3, r3, #16711680
 1810 0038 1B0C     		lsrs	r3, r3, #16
 1811 003a DAB2     		uxtb	r2, r3
 1812 003c 3B68     		ldr	r3, [r7]
 1813 003e DA70     		strb	r2, [r3, #3]
1040:App/STM32F4-Discovery/Libraries/STM32F4xx_StdPeriph_Driver/src/stm32f4xx_rtc.c ****   RTC_DateStruct->RTC_Month = (uint8_t)((tmpreg & (RTC_DR_MT | RTC_DR_MU)) >> 8);
 1814              		.loc 1 1040 0
 1815 0040 FB68     		ldr	r3, [r7, #12]
 1816 0042 03F4F853 		and	r3, r3, #7936
 1817 0046 1B0A     		lsrs	r3, r3, #8
 1818 0048 DAB2     		uxtb	r2, r3
 1819 004a 3B68     		ldr	r3, [r7]
 1820 004c 5A70     		strb	r2, [r3, #1]
1041:App/STM32F4-Discovery/Libraries/STM32F4xx_StdPeriph_Driver/src/stm32f4xx_rtc.c ****   RTC_DateStruct->RTC_Date = (uint8_t)(tmpreg & (RTC_DR_DT | RTC_DR_DU));
 1821              		.loc 1 1041 0
 1822 004e FB68     		ldr	r3, [r7, #12]
 1823 0050 DBB2     		uxtb	r3, r3
 1824 0052 03F03F03 		and	r3, r3, #63
 1825 0056 DAB2     		uxtb	r2, r3
 1826 0058 3B68     		ldr	r3, [r7]
 1827 005a 9A70     		strb	r2, [r3, #2]
1042:App/STM32F4-Discovery/Libraries/STM32F4xx_StdPeriph_Driver/src/stm32f4xx_rtc.c ****   RTC_DateStruct->RTC_WeekDay = (uint8_t)((tmpreg & (RTC_DR_WDU)) >> 13);
 1828              		.loc 1 1042 0
 1829 005c FB68     		ldr	r3, [r7, #12]
 1830 005e 03F46043 		and	r3, r3, #57344
 1831 0062 5B0B     		lsrs	r3, r3, #13
 1832 0064 DAB2     		uxtb	r2, r3
 1833 0066 3B68     		ldr	r3, [r7]
 1834 0068 1A70     		strb	r2, [r3]
1043:App/STM32F4-Discovery/Libraries/STM32F4xx_StdPeriph_Driver/src/stm32f4xx_rtc.c **** 
1044:App/STM32F4-Discovery/Libraries/STM32F4xx_StdPeriph_Driver/src/stm32f4xx_rtc.c ****   /* Check the input parameters format */
1045:App/STM32F4-Discovery/Libraries/STM32F4xx_StdPeriph_Driver/src/stm32f4xx_rtc.c ****   if (RTC_Format == RTC_Format_BIN)
 1835              		.loc 1 1045 0
 1836 006a 7B68     		ldr	r3, [r7, #4]
 1837 006c 002B     		cmp	r3, #0
 1838 006e 1AD1     		bne	.L119
1046:App/STM32F4-Discovery/Libraries/STM32F4xx_StdPeriph_Driver/src/stm32f4xx_rtc.c ****   {
1047:App/STM32F4-Discovery/Libraries/STM32F4xx_StdPeriph_Driver/src/stm32f4xx_rtc.c ****     /* Convert the structure parameters to Binary format */
1048:App/STM32F4-Discovery/Libraries/STM32F4xx_StdPeriph_Driver/src/stm32f4xx_rtc.c ****     RTC_DateStruct->RTC_Year = (uint8_t)RTC_Bcd2ToByte(RTC_DateStruct->RTC_Year);
 1839              		.loc 1 1048 0
 1840 0070 3B68     		ldr	r3, [r7]
 1841 0072 DB78     		ldrb	r3, [r3, #3]	@ zero_extendqisi2
 1842 0074 1846     		mov	r0, r3
 1843 0076 FFF7FEFF 		bl	RTC_Bcd2ToByte
 1844 007a 0346     		mov	r3, r0
 1845 007c 1A46     		mov	r2, r3
 1846 007e 3B68     		ldr	r3, [r7]
 1847 0080 DA70     		strb	r2, [r3, #3]
1049:App/STM32F4-Discovery/Libraries/STM32F4xx_StdPeriph_Driver/src/stm32f4xx_rtc.c ****     RTC_DateStruct->RTC_Month = (uint8_t)RTC_Bcd2ToByte(RTC_DateStruct->RTC_Month);
 1848              		.loc 1 1049 0
 1849 0082 3B68     		ldr	r3, [r7]
 1850 0084 5B78     		ldrb	r3, [r3, #1]	@ zero_extendqisi2
 1851 0086 1846     		mov	r0, r3
 1852 0088 FFF7FEFF 		bl	RTC_Bcd2ToByte
 1853 008c 0346     		mov	r3, r0
 1854 008e 1A46     		mov	r2, r3
 1855 0090 3B68     		ldr	r3, [r7]
 1856 0092 5A70     		strb	r2, [r3, #1]
1050:App/STM32F4-Discovery/Libraries/STM32F4xx_StdPeriph_Driver/src/stm32f4xx_rtc.c ****     RTC_DateStruct->RTC_Date = (uint8_t)RTC_Bcd2ToByte(RTC_DateStruct->RTC_Date);
 1857              		.loc 1 1050 0
 1858 0094 3B68     		ldr	r3, [r7]
 1859 0096 9B78     		ldrb	r3, [r3, #2]	@ zero_extendqisi2
 1860 0098 1846     		mov	r0, r3
 1861 009a FFF7FEFF 		bl	RTC_Bcd2ToByte
 1862 009e 0346     		mov	r3, r0
 1863 00a0 1A46     		mov	r2, r3
 1864 00a2 3B68     		ldr	r3, [r7]
 1865 00a4 9A70     		strb	r2, [r3, #2]
 1866              	.L119:
1051:App/STM32F4-Discovery/Libraries/STM32F4xx_StdPeriph_Driver/src/stm32f4xx_rtc.c ****   }
1052:App/STM32F4-Discovery/Libraries/STM32F4xx_StdPeriph_Driver/src/stm32f4xx_rtc.c **** }
 1867              		.loc 1 1052 0
 1868 00a6 1037     		adds	r7, r7, #16
 1869 00a8 BD46     		mov	sp, r7
 1870              		@ sp needed
 1871 00aa 80BD     		pop	{r7, pc}
 1872              	.L123:
 1873              		.align	2
 1874              	.L122:
 1875 00ac 00000000 		.word	.LC0
 1876 00b0 00280040 		.word	1073752064
 1877              		.cfi_endproc
 1878              	.LFE125:
 1880              		.section	.text.RTC_SetAlarm,"ax",%progbits
 1881              		.align	2
 1882              		.global	RTC_SetAlarm
 1883              		.thumb
 1884              		.thumb_func
 1886              	RTC_SetAlarm:
 1887              	.LFB126:
1053:App/STM32F4-Discovery/Libraries/STM32F4xx_StdPeriph_Driver/src/stm32f4xx_rtc.c **** 
1054:App/STM32F4-Discovery/Libraries/STM32F4xx_StdPeriph_Driver/src/stm32f4xx_rtc.c **** /**
1055:App/STM32F4-Discovery/Libraries/STM32F4xx_StdPeriph_Driver/src/stm32f4xx_rtc.c ****   * @}
1056:App/STM32F4-Discovery/Libraries/STM32F4xx_StdPeriph_Driver/src/stm32f4xx_rtc.c ****   */
1057:App/STM32F4-Discovery/Libraries/STM32F4xx_StdPeriph_Driver/src/stm32f4xx_rtc.c **** 
1058:App/STM32F4-Discovery/Libraries/STM32F4xx_StdPeriph_Driver/src/stm32f4xx_rtc.c **** /** @defgroup RTC_Group3 Alarms configuration functions
1059:App/STM32F4-Discovery/Libraries/STM32F4xx_StdPeriph_Driver/src/stm32f4xx_rtc.c ****  *  @brief   Alarms (Alarm A and Alarm B) configuration functions 
1060:App/STM32F4-Discovery/Libraries/STM32F4xx_StdPeriph_Driver/src/stm32f4xx_rtc.c ****  *
1061:App/STM32F4-Discovery/Libraries/STM32F4xx_StdPeriph_Driver/src/stm32f4xx_rtc.c **** @verbatim   
1062:App/STM32F4-Discovery/Libraries/STM32F4xx_StdPeriph_Driver/src/stm32f4xx_rtc.c ****  ===============================================================================
1063:App/STM32F4-Discovery/Libraries/STM32F4xx_StdPeriph_Driver/src/stm32f4xx_rtc.c ****               Alarms (Alarm A and Alarm B) configuration functions
1064:App/STM32F4-Discovery/Libraries/STM32F4xx_StdPeriph_Driver/src/stm32f4xx_rtc.c ****  ===============================================================================  
1065:App/STM32F4-Discovery/Libraries/STM32F4xx_StdPeriph_Driver/src/stm32f4xx_rtc.c **** 
1066:App/STM32F4-Discovery/Libraries/STM32F4xx_StdPeriph_Driver/src/stm32f4xx_rtc.c ****   This section provide functions allowing to program and read the RTC Alarms.
1067:App/STM32F4-Discovery/Libraries/STM32F4xx_StdPeriph_Driver/src/stm32f4xx_rtc.c **** 
1068:App/STM32F4-Discovery/Libraries/STM32F4xx_StdPeriph_Driver/src/stm32f4xx_rtc.c **** @endverbatim
1069:App/STM32F4-Discovery/Libraries/STM32F4xx_StdPeriph_Driver/src/stm32f4xx_rtc.c ****   * @{
1070:App/STM32F4-Discovery/Libraries/STM32F4xx_StdPeriph_Driver/src/stm32f4xx_rtc.c ****   */
1071:App/STM32F4-Discovery/Libraries/STM32F4xx_StdPeriph_Driver/src/stm32f4xx_rtc.c **** 
1072:App/STM32F4-Discovery/Libraries/STM32F4xx_StdPeriph_Driver/src/stm32f4xx_rtc.c **** /**
1073:App/STM32F4-Discovery/Libraries/STM32F4xx_StdPeriph_Driver/src/stm32f4xx_rtc.c ****   * @brief  Set the specified RTC Alarm.
1074:App/STM32F4-Discovery/Libraries/STM32F4xx_StdPeriph_Driver/src/stm32f4xx_rtc.c ****   * @note   The Alarm register can only be written when the corresponding Alarm
1075:App/STM32F4-Discovery/Libraries/STM32F4xx_StdPeriph_Driver/src/stm32f4xx_rtc.c ****   *         is disabled (Use the RTC_AlarmCmd(DISABLE)).    
1076:App/STM32F4-Discovery/Libraries/STM32F4xx_StdPeriph_Driver/src/stm32f4xx_rtc.c ****   * @param  RTC_Format: specifies the format of the returned parameters.
1077:App/STM32F4-Discovery/Libraries/STM32F4xx_StdPeriph_Driver/src/stm32f4xx_rtc.c ****   *          This parameter can be one of the following values:
1078:App/STM32F4-Discovery/Libraries/STM32F4xx_StdPeriph_Driver/src/stm32f4xx_rtc.c ****   *            @arg RTC_Format_BIN: Binary data format 
1079:App/STM32F4-Discovery/Libraries/STM32F4xx_StdPeriph_Driver/src/stm32f4xx_rtc.c ****   *            @arg RTC_Format_BCD: BCD data format
1080:App/STM32F4-Discovery/Libraries/STM32F4xx_StdPeriph_Driver/src/stm32f4xx_rtc.c ****   * @param  RTC_Alarm: specifies the alarm to be configured.
1081:App/STM32F4-Discovery/Libraries/STM32F4xx_StdPeriph_Driver/src/stm32f4xx_rtc.c ****   *          This parameter can be one of the following values:
1082:App/STM32F4-Discovery/Libraries/STM32F4xx_StdPeriph_Driver/src/stm32f4xx_rtc.c ****   *            @arg RTC_Alarm_A: to select Alarm A
1083:App/STM32F4-Discovery/Libraries/STM32F4xx_StdPeriph_Driver/src/stm32f4xx_rtc.c ****   *            @arg RTC_Alarm_B: to select Alarm B  
1084:App/STM32F4-Discovery/Libraries/STM32F4xx_StdPeriph_Driver/src/stm32f4xx_rtc.c ****   * @param  RTC_AlarmStruct: pointer to a RTC_AlarmTypeDef structure that 
1085:App/STM32F4-Discovery/Libraries/STM32F4xx_StdPeriph_Driver/src/stm32f4xx_rtc.c ****   *                          contains the alarm configuration parameters.     
1086:App/STM32F4-Discovery/Libraries/STM32F4xx_StdPeriph_Driver/src/stm32f4xx_rtc.c ****   * @retval None
1087:App/STM32F4-Discovery/Libraries/STM32F4xx_StdPeriph_Driver/src/stm32f4xx_rtc.c ****   */
1088:App/STM32F4-Discovery/Libraries/STM32F4xx_StdPeriph_Driver/src/stm32f4xx_rtc.c **** void RTC_SetAlarm(uint32_t RTC_Format, uint32_t RTC_Alarm, RTC_AlarmTypeDef* RTC_AlarmStruct)
1089:App/STM32F4-Discovery/Libraries/STM32F4xx_StdPeriph_Driver/src/stm32f4xx_rtc.c **** {
 1888              		.loc 1 1089 0
 1889              		.cfi_startproc
 1890              		@ args = 0, pretend = 0, frame = 24
 1891              		@ frame_needed = 1, uses_anonymous_args = 0
 1892 0000 90B5     		push	{r4, r7, lr}
 1893              	.LCFI47:
 1894              		.cfi_def_cfa_offset 12
 1895              		.cfi_offset 4, -12
 1896              		.cfi_offset 7, -8
 1897              		.cfi_offset 14, -4
 1898 0002 87B0     		sub	sp, sp, #28
 1899              	.LCFI48:
 1900              		.cfi_def_cfa_offset 40
 1901 0004 00AF     		add	r7, sp, #0
 1902              	.LCFI49:
 1903              		.cfi_def_cfa_register 7
 1904 0006 F860     		str	r0, [r7, #12]
 1905 0008 B960     		str	r1, [r7, #8]
 1906 000a 7A60     		str	r2, [r7, #4]
1090:App/STM32F4-Discovery/Libraries/STM32F4xx_StdPeriph_Driver/src/stm32f4xx_rtc.c ****   uint32_t tmpreg = 0;
 1907              		.loc 1 1090 0
 1908 000c 0023     		movs	r3, #0
 1909 000e 7B61     		str	r3, [r7, #20]
1091:App/STM32F4-Discovery/Libraries/STM32F4xx_StdPeriph_Driver/src/stm32f4xx_rtc.c ****   
1092:App/STM32F4-Discovery/Libraries/STM32F4xx_StdPeriph_Driver/src/stm32f4xx_rtc.c ****   /* Check the parameters */
1093:App/STM32F4-Discovery/Libraries/STM32F4xx_StdPeriph_Driver/src/stm32f4xx_rtc.c ****   assert_param(IS_RTC_FORMAT(RTC_Format));
 1910              		.loc 1 1093 0
 1911 0010 FB68     		ldr	r3, [r7, #12]
 1912 0012 002B     		cmp	r3, #0
 1913 0014 07D0     		beq	.L125
 1914              		.loc 1 1093 0 is_stmt 0 discriminator 1
 1915 0016 FB68     		ldr	r3, [r7, #12]
 1916 0018 012B     		cmp	r3, #1
 1917 001a 04D0     		beq	.L125
 1918 001c A648     		ldr	r0, .L153
 1919 001e 40F24541 		movw	r1, #1093
 1920 0022 FFF7FEFF 		bl	assert_failed
 1921              	.L125:
1094:App/STM32F4-Discovery/Libraries/STM32F4xx_StdPeriph_Driver/src/stm32f4xx_rtc.c ****   assert_param(IS_RTC_ALARM(RTC_Alarm));
 1922              		.loc 1 1094 0 is_stmt 1
 1923 0026 BB68     		ldr	r3, [r7, #8]
 1924 0028 B3F5807F 		cmp	r3, #256
 1925 002c 08D0     		beq	.L126
 1926              		.loc 1 1094 0 is_stmt 0 discriminator 1
 1927 002e BB68     		ldr	r3, [r7, #8]
 1928 0030 B3F5007F 		cmp	r3, #512
 1929 0034 04D0     		beq	.L126
 1930 0036 A048     		ldr	r0, .L153
 1931 0038 40F24641 		movw	r1, #1094
 1932 003c FFF7FEFF 		bl	assert_failed
 1933              	.L126:
1095:App/STM32F4-Discovery/Libraries/STM32F4xx_StdPeriph_Driver/src/stm32f4xx_rtc.c ****   assert_param(IS_ALARM_MASK(RTC_AlarmStruct->RTC_AlarmMask));
 1934              		.loc 1 1095 0 is_stmt 1
 1935 0040 7B68     		ldr	r3, [r7, #4]
 1936 0042 5B68     		ldr	r3, [r3, #4]
 1937 0044 03F07F33 		and	r3, r3, #2139062143
 1938 0048 002B     		cmp	r3, #0
 1939 004a 04D0     		beq	.L127
 1940              		.loc 1 1095 0 is_stmt 0 discriminator 1
 1941 004c 9A48     		ldr	r0, .L153
 1942 004e 40F24741 		movw	r1, #1095
 1943 0052 FFF7FEFF 		bl	assert_failed
 1944              	.L127:
1096:App/STM32F4-Discovery/Libraries/STM32F4xx_StdPeriph_Driver/src/stm32f4xx_rtc.c ****   assert_param(IS_RTC_ALARM_DATE_WEEKDAY_SEL(RTC_AlarmStruct->RTC_AlarmDateWeekDaySel));
 1945              		.loc 1 1096 0 is_stmt 1
 1946 0056 7B68     		ldr	r3, [r7, #4]
 1947 0058 9B68     		ldr	r3, [r3, #8]
 1948 005a 002B     		cmp	r3, #0
 1949 005c 09D0     		beq	.L128
 1950              		.loc 1 1096 0 is_stmt 0 discriminator 1
 1951 005e 7B68     		ldr	r3, [r7, #4]
 1952 0060 9B68     		ldr	r3, [r3, #8]
 1953 0062 B3F1804F 		cmp	r3, #1073741824
 1954 0066 04D0     		beq	.L128
 1955 0068 9348     		ldr	r0, .L153
 1956 006a 4FF48961 		mov	r1, #1096
 1957 006e FFF7FEFF 		bl	assert_failed
 1958              	.L128:
1097:App/STM32F4-Discovery/Libraries/STM32F4xx_StdPeriph_Driver/src/stm32f4xx_rtc.c **** 
1098:App/STM32F4-Discovery/Libraries/STM32F4xx_StdPeriph_Driver/src/stm32f4xx_rtc.c ****   if (RTC_Format == RTC_Format_BIN)
 1959              		.loc 1 1098 0 is_stmt 1
 1960 0072 FB68     		ldr	r3, [r7, #12]
 1961 0074 002B     		cmp	r3, #0
 1962 0076 7AD1     		bne	.L129
1099:App/STM32F4-Discovery/Libraries/STM32F4xx_StdPeriph_Driver/src/stm32f4xx_rtc.c ****   {
1100:App/STM32F4-Discovery/Libraries/STM32F4xx_StdPeriph_Driver/src/stm32f4xx_rtc.c ****     if ((RTC->CR & RTC_CR_FMT) != (uint32_t)RESET)
 1963              		.loc 1 1100 0
 1964 0078 904B     		ldr	r3, .L153+4
 1965 007a 9B68     		ldr	r3, [r3, #8]
 1966 007c 03F04003 		and	r3, r3, #64
 1967 0080 002B     		cmp	r3, #0
 1968 0082 1AD0     		beq	.L130
1101:App/STM32F4-Discovery/Libraries/STM32F4xx_StdPeriph_Driver/src/stm32f4xx_rtc.c ****     {
1102:App/STM32F4-Discovery/Libraries/STM32F4xx_StdPeriph_Driver/src/stm32f4xx_rtc.c ****       assert_param(IS_RTC_HOUR12(RTC_AlarmStruct->RTC_AlarmTime.RTC_Hours));
 1969              		.loc 1 1102 0
 1970 0084 7B68     		ldr	r3, [r7, #4]
 1971 0086 1B78     		ldrb	r3, [r3]	@ zero_extendqisi2
 1972 0088 002B     		cmp	r3, #0
 1973 008a 03D0     		beq	.L131
 1974              		.loc 1 1102 0 is_stmt 0 discriminator 2
 1975 008c 7B68     		ldr	r3, [r7, #4]
 1976 008e 1B78     		ldrb	r3, [r3]	@ zero_extendqisi2
 1977 0090 0C2B     		cmp	r3, #12
 1978 0092 04D9     		bls	.L132
 1979              	.L131:
 1980              		.loc 1 1102 0 discriminator 1
 1981 0094 8848     		ldr	r0, .L153
 1982 0096 40F24E41 		movw	r1, #1102
 1983 009a FFF7FEFF 		bl	assert_failed
 1984              	.L132:
1103:App/STM32F4-Discovery/Libraries/STM32F4xx_StdPeriph_Driver/src/stm32f4xx_rtc.c ****       assert_param(IS_RTC_H12(RTC_AlarmStruct->RTC_AlarmTime.RTC_H12));
 1985              		.loc 1 1103 0 is_stmt 1
 1986 009e 7B68     		ldr	r3, [r7, #4]
 1987 00a0 DB78     		ldrb	r3, [r3, #3]	@ zero_extendqisi2
 1988 00a2 002B     		cmp	r3, #0
 1989 00a4 15D0     		beq	.L133
 1990              		.loc 1 1103 0 is_stmt 0 discriminator 1
 1991 00a6 7B68     		ldr	r3, [r7, #4]
 1992 00a8 DB78     		ldrb	r3, [r3, #3]	@ zero_extendqisi2
 1993 00aa 402B     		cmp	r3, #64
 1994 00ac 11D0     		beq	.L133
 1995 00ae 8248     		ldr	r0, .L153
 1996 00b0 40F24F41 		movw	r1, #1103
 1997 00b4 FFF7FEFF 		bl	assert_failed
 1998 00b8 0BE0     		b	.L133
 1999              	.L130:
1104:App/STM32F4-Discovery/Libraries/STM32F4xx_StdPeriph_Driver/src/stm32f4xx_rtc.c ****     } 
1105:App/STM32F4-Discovery/Libraries/STM32F4xx_StdPeriph_Driver/src/stm32f4xx_rtc.c ****     else
1106:App/STM32F4-Discovery/Libraries/STM32F4xx_StdPeriph_Driver/src/stm32f4xx_rtc.c ****     {
1107:App/STM32F4-Discovery/Libraries/STM32F4xx_StdPeriph_Driver/src/stm32f4xx_rtc.c ****       RTC_AlarmStruct->RTC_AlarmTime.RTC_H12 = 0x00;
 2000              		.loc 1 1107 0 is_stmt 1
 2001 00ba 7B68     		ldr	r3, [r7, #4]
 2002 00bc 0022     		movs	r2, #0
 2003 00be DA70     		strb	r2, [r3, #3]
1108:App/STM32F4-Discovery/Libraries/STM32F4xx_StdPeriph_Driver/src/stm32f4xx_rtc.c ****       assert_param(IS_RTC_HOUR24(RTC_AlarmStruct->RTC_AlarmTime.RTC_Hours));
 2004              		.loc 1 1108 0
 2005 00c0 7B68     		ldr	r3, [r7, #4]
 2006 00c2 1B78     		ldrb	r3, [r3]	@ zero_extendqisi2
 2007 00c4 172B     		cmp	r3, #23
 2008 00c6 04D9     		bls	.L133
 2009              		.loc 1 1108 0 is_stmt 0 discriminator 1
 2010 00c8 7B48     		ldr	r0, .L153
 2011 00ca 40F25441 		movw	r1, #1108
 2012 00ce FFF7FEFF 		bl	assert_failed
 2013              	.L133:
1109:App/STM32F4-Discovery/Libraries/STM32F4xx_StdPeriph_Driver/src/stm32f4xx_rtc.c ****     }
1110:App/STM32F4-Discovery/Libraries/STM32F4xx_StdPeriph_Driver/src/stm32f4xx_rtc.c ****     assert_param(IS_RTC_MINUTES(RTC_AlarmStruct->RTC_AlarmTime.RTC_Minutes));
 2014              		.loc 1 1110 0 is_stmt 1
 2015 00d2 7B68     		ldr	r3, [r7, #4]
 2016 00d4 5B78     		ldrb	r3, [r3, #1]	@ zero_extendqisi2
 2017 00d6 3B2B     		cmp	r3, #59
 2018 00d8 04D9     		bls	.L134
 2019              		.loc 1 1110 0 is_stmt 0 discriminator 1
 2020 00da 7748     		ldr	r0, .L153
 2021 00dc 40F25641 		movw	r1, #1110
 2022 00e0 FFF7FEFF 		bl	assert_failed
 2023              	.L134:
1111:App/STM32F4-Discovery/Libraries/STM32F4xx_StdPeriph_Driver/src/stm32f4xx_rtc.c ****     assert_param(IS_RTC_SECONDS(RTC_AlarmStruct->RTC_AlarmTime.RTC_Seconds));
 2024              		.loc 1 1111 0 is_stmt 1
 2025 00e4 7B68     		ldr	r3, [r7, #4]
 2026 00e6 9B78     		ldrb	r3, [r3, #2]	@ zero_extendqisi2
 2027 00e8 3B2B     		cmp	r3, #59
 2028 00ea 04D9     		bls	.L135
 2029              		.loc 1 1111 0 is_stmt 0 discriminator 1
 2030 00ec 7248     		ldr	r0, .L153
 2031 00ee 40F25741 		movw	r1, #1111
 2032 00f2 FFF7FEFF 		bl	assert_failed
 2033              	.L135:
1112:App/STM32F4-Discovery/Libraries/STM32F4xx_StdPeriph_Driver/src/stm32f4xx_rtc.c ****     
1113:App/STM32F4-Discovery/Libraries/STM32F4xx_StdPeriph_Driver/src/stm32f4xx_rtc.c ****     if(RTC_AlarmStruct->RTC_AlarmDateWeekDaySel == RTC_AlarmDateWeekDaySel_Date)
 2034              		.loc 1 1113 0 is_stmt 1
 2035 00f6 7B68     		ldr	r3, [r7, #4]
 2036 00f8 9B68     		ldr	r3, [r3, #8]
 2037 00fa 002B     		cmp	r3, #0
 2038 00fc 0ED1     		bne	.L136
1114:App/STM32F4-Discovery/Libraries/STM32F4xx_StdPeriph_Driver/src/stm32f4xx_rtc.c ****     {
1115:App/STM32F4-Discovery/Libraries/STM32F4xx_StdPeriph_Driver/src/stm32f4xx_rtc.c ****       assert_param(IS_RTC_ALARM_DATE_WEEKDAY_DATE(RTC_AlarmStruct->RTC_AlarmDateWeekDay));
 2039              		.loc 1 1115 0
 2040 00fe 7B68     		ldr	r3, [r7, #4]
 2041 0100 1B7B     		ldrb	r3, [r3, #12]	@ zero_extendqisi2
 2042 0102 002B     		cmp	r3, #0
 2043 0104 04D0     		beq	.L137
 2044              		.loc 1 1115 0 is_stmt 0 discriminator 2
 2045 0106 7B68     		ldr	r3, [r7, #4]
 2046 0108 1B7B     		ldrb	r3, [r3, #12]	@ zero_extendqisi2
 2047 010a 1F2B     		cmp	r3, #31
 2048 010c 40F2B780 		bls	.L139
 2049              	.L137:
 2050              		.loc 1 1115 0 discriminator 1
 2051 0110 6948     		ldr	r0, .L153
 2052 0112 40F25B41 		movw	r1, #1115
 2053 0116 FFF7FEFF 		bl	assert_failed
 2054 011a B0E0     		b	.L139
 2055              	.L136:
1116:App/STM32F4-Discovery/Libraries/STM32F4xx_StdPeriph_Driver/src/stm32f4xx_rtc.c ****     }
1117:App/STM32F4-Discovery/Libraries/STM32F4xx_StdPeriph_Driver/src/stm32f4xx_rtc.c ****     else
1118:App/STM32F4-Discovery/Libraries/STM32F4xx_StdPeriph_Driver/src/stm32f4xx_rtc.c ****     {
1119:App/STM32F4-Discovery/Libraries/STM32F4xx_StdPeriph_Driver/src/stm32f4xx_rtc.c ****       assert_param(IS_RTC_ALARM_DATE_WEEKDAY_WEEKDAY(RTC_AlarmStruct->RTC_AlarmDateWeekDay));
 2056              		.loc 1 1119 0 is_stmt 1
 2057 011c 7B68     		ldr	r3, [r7, #4]
 2058 011e 1B7B     		ldrb	r3, [r3, #12]	@ zero_extendqisi2
 2059 0120 012B     		cmp	r3, #1
 2060 0122 00F0AC80 		beq	.L139
 2061              		.loc 1 1119 0 is_stmt 0 discriminator 1
 2062 0126 7B68     		ldr	r3, [r7, #4]
 2063 0128 1B7B     		ldrb	r3, [r3, #12]	@ zero_extendqisi2
 2064 012a 022B     		cmp	r3, #2
 2065 012c 00F0A780 		beq	.L139
 2066 0130 7B68     		ldr	r3, [r7, #4]
 2067 0132 1B7B     		ldrb	r3, [r3, #12]	@ zero_extendqisi2
 2068 0134 032B     		cmp	r3, #3
 2069 0136 00F0A280 		beq	.L139
 2070 013a 7B68     		ldr	r3, [r7, #4]
 2071 013c 1B7B     		ldrb	r3, [r3, #12]	@ zero_extendqisi2
 2072 013e 042B     		cmp	r3, #4
 2073 0140 00F09D80 		beq	.L139
 2074 0144 7B68     		ldr	r3, [r7, #4]
 2075 0146 1B7B     		ldrb	r3, [r3, #12]	@ zero_extendqisi2
 2076 0148 052B     		cmp	r3, #5
 2077 014a 00F09880 		beq	.L139
 2078 014e 7B68     		ldr	r3, [r7, #4]
 2079 0150 1B7B     		ldrb	r3, [r3, #12]	@ zero_extendqisi2
 2080 0152 062B     		cmp	r3, #6
 2081 0154 00F09380 		beq	.L139
 2082 0158 7B68     		ldr	r3, [r7, #4]
 2083 015a 1B7B     		ldrb	r3, [r3, #12]	@ zero_extendqisi2
 2084 015c 072B     		cmp	r3, #7
 2085 015e 00F08E80 		beq	.L139
 2086 0162 5548     		ldr	r0, .L153
 2087 0164 40F25F41 		movw	r1, #1119
 2088 0168 FFF7FEFF 		bl	assert_failed
 2089 016c 87E0     		b	.L139
 2090              	.L129:
1120:App/STM32F4-Discovery/Libraries/STM32F4xx_StdPeriph_Driver/src/stm32f4xx_rtc.c ****     }
1121:App/STM32F4-Discovery/Libraries/STM32F4xx_StdPeriph_Driver/src/stm32f4xx_rtc.c ****   }
1122:App/STM32F4-Discovery/Libraries/STM32F4xx_StdPeriph_Driver/src/stm32f4xx_rtc.c ****   else
1123:App/STM32F4-Discovery/Libraries/STM32F4xx_StdPeriph_Driver/src/stm32f4xx_rtc.c ****   {
1124:App/STM32F4-Discovery/Libraries/STM32F4xx_StdPeriph_Driver/src/stm32f4xx_rtc.c ****     if ((RTC->CR & RTC_CR_FMT) != (uint32_t)RESET)
 2091              		.loc 1 1124 0 is_stmt 1
 2092 016e 534B     		ldr	r3, .L153+4
 2093 0170 9B68     		ldr	r3, [r3, #8]
 2094 0172 03F04003 		and	r3, r3, #64
 2095 0176 002B     		cmp	r3, #0
 2096 0178 1FD0     		beq	.L140
1125:App/STM32F4-Discovery/Libraries/STM32F4xx_StdPeriph_Driver/src/stm32f4xx_rtc.c ****     {
1126:App/STM32F4-Discovery/Libraries/STM32F4xx_StdPeriph_Driver/src/stm32f4xx_rtc.c ****       tmpreg = RTC_Bcd2ToByte(RTC_AlarmStruct->RTC_AlarmTime.RTC_Hours);
 2097              		.loc 1 1126 0
 2098 017a 7B68     		ldr	r3, [r7, #4]
 2099 017c 1B78     		ldrb	r3, [r3]	@ zero_extendqisi2
 2100 017e 1846     		mov	r0, r3
 2101 0180 FFF7FEFF 		bl	RTC_Bcd2ToByte
 2102 0184 0346     		mov	r3, r0
 2103 0186 7B61     		str	r3, [r7, #20]
1127:App/STM32F4-Discovery/Libraries/STM32F4xx_StdPeriph_Driver/src/stm32f4xx_rtc.c ****       assert_param(IS_RTC_HOUR12(tmpreg));
 2104              		.loc 1 1127 0
 2105 0188 7B69     		ldr	r3, [r7, #20]
 2106 018a 002B     		cmp	r3, #0
 2107 018c 02D0     		beq	.L141
 2108              		.loc 1 1127 0 is_stmt 0 discriminator 2
 2109 018e 7B69     		ldr	r3, [r7, #20]
 2110 0190 0C2B     		cmp	r3, #12
 2111 0192 04D9     		bls	.L142
 2112              	.L141:
 2113              		.loc 1 1127 0 discriminator 1
 2114 0194 4848     		ldr	r0, .L153
 2115 0196 40F26741 		movw	r1, #1127
 2116 019a FFF7FEFF 		bl	assert_failed
 2117              	.L142:
1128:App/STM32F4-Discovery/Libraries/STM32F4xx_StdPeriph_Driver/src/stm32f4xx_rtc.c ****       assert_param(IS_RTC_H12(RTC_AlarmStruct->RTC_AlarmTime.RTC_H12));
 2118              		.loc 1 1128 0 is_stmt 1
 2119 019e 7B68     		ldr	r3, [r7, #4]
 2120 01a0 DB78     		ldrb	r3, [r3, #3]	@ zero_extendqisi2
 2121 01a2 002B     		cmp	r3, #0
 2122 01a4 19D0     		beq	.L143
 2123              		.loc 1 1128 0 is_stmt 0 discriminator 1
 2124 01a6 7B68     		ldr	r3, [r7, #4]
 2125 01a8 DB78     		ldrb	r3, [r3, #3]	@ zero_extendqisi2
 2126 01aa 402B     		cmp	r3, #64
 2127 01ac 15D0     		beq	.L143
 2128 01ae 4248     		ldr	r0, .L153
 2129 01b0 4FF48D61 		mov	r1, #1128
 2130 01b4 FFF7FEFF 		bl	assert_failed
 2131 01b8 0FE0     		b	.L143
 2132              	.L140:
1129:App/STM32F4-Discovery/Libraries/STM32F4xx_StdPeriph_Driver/src/stm32f4xx_rtc.c ****     } 
1130:App/STM32F4-Discovery/Libraries/STM32F4xx_StdPeriph_Driver/src/stm32f4xx_rtc.c ****     else
1131:App/STM32F4-Discovery/Libraries/STM32F4xx_StdPeriph_Driver/src/stm32f4xx_rtc.c ****     {
1132:App/STM32F4-Discovery/Libraries/STM32F4xx_StdPeriph_Driver/src/stm32f4xx_rtc.c ****       RTC_AlarmStruct->RTC_AlarmTime.RTC_H12 = 0x00;
 2133              		.loc 1 1132 0 is_stmt 1
 2134 01ba 7B68     		ldr	r3, [r7, #4]
 2135 01bc 0022     		movs	r2, #0
 2136 01be DA70     		strb	r2, [r3, #3]
1133:App/STM32F4-Discovery/Libraries/STM32F4xx_StdPeriph_Driver/src/stm32f4xx_rtc.c ****       assert_param(IS_RTC_HOUR24(RTC_Bcd2ToByte(RTC_AlarmStruct->RTC_AlarmTime.RTC_Hours)));
 2137              		.loc 1 1133 0
 2138 01c0 7B68     		ldr	r3, [r7, #4]
 2139 01c2 1B78     		ldrb	r3, [r3]	@ zero_extendqisi2
 2140 01c4 1846     		mov	r0, r3
 2141 01c6 FFF7FEFF 		bl	RTC_Bcd2ToByte
 2142 01ca 0346     		mov	r3, r0
 2143 01cc 172B     		cmp	r3, #23
 2144 01ce 04D9     		bls	.L143
 2145              		.loc 1 1133 0 is_stmt 0 discriminator 1
 2146 01d0 3948     		ldr	r0, .L153
 2147 01d2 40F26D41 		movw	r1, #1133
 2148 01d6 FFF7FEFF 		bl	assert_failed
 2149              	.L143:
1134:App/STM32F4-Discovery/Libraries/STM32F4xx_StdPeriph_Driver/src/stm32f4xx_rtc.c ****     }
1135:App/STM32F4-Discovery/Libraries/STM32F4xx_StdPeriph_Driver/src/stm32f4xx_rtc.c ****     
1136:App/STM32F4-Discovery/Libraries/STM32F4xx_StdPeriph_Driver/src/stm32f4xx_rtc.c ****     assert_param(IS_RTC_MINUTES(RTC_Bcd2ToByte(RTC_AlarmStruct->RTC_AlarmTime.RTC_Minutes)));
 2150              		.loc 1 1136 0 is_stmt 1
 2151 01da 7B68     		ldr	r3, [r7, #4]
 2152 01dc 5B78     		ldrb	r3, [r3, #1]	@ zero_extendqisi2
 2153 01de 1846     		mov	r0, r3
 2154 01e0 FFF7FEFF 		bl	RTC_Bcd2ToByte
 2155 01e4 0346     		mov	r3, r0
 2156 01e6 3B2B     		cmp	r3, #59
 2157 01e8 04D9     		bls	.L144
 2158              		.loc 1 1136 0 is_stmt 0 discriminator 1
 2159 01ea 3348     		ldr	r0, .L153
 2160 01ec 4FF48E61 		mov	r1, #1136
 2161 01f0 FFF7FEFF 		bl	assert_failed
 2162              	.L144:
1137:App/STM32F4-Discovery/Libraries/STM32F4xx_StdPeriph_Driver/src/stm32f4xx_rtc.c ****     assert_param(IS_RTC_SECONDS(RTC_Bcd2ToByte(RTC_AlarmStruct->RTC_AlarmTime.RTC_Seconds)));
 2163              		.loc 1 1137 0 is_stmt 1
 2164 01f4 7B68     		ldr	r3, [r7, #4]
 2165 01f6 9B78     		ldrb	r3, [r3, #2]	@ zero_extendqisi2
 2166 01f8 1846     		mov	r0, r3
 2167 01fa FFF7FEFF 		bl	RTC_Bcd2ToByte
 2168 01fe 0346     		mov	r3, r0
 2169 0200 3B2B     		cmp	r3, #59
 2170 0202 04D9     		bls	.L145
 2171              		.loc 1 1137 0 is_stmt 0 discriminator 1
 2172 0204 2C48     		ldr	r0, .L153
 2173 0206 40F27141 		movw	r1, #1137
 2174 020a FFF7FEFF 		bl	assert_failed
 2175              	.L145:
1138:App/STM32F4-Discovery/Libraries/STM32F4xx_StdPeriph_Driver/src/stm32f4xx_rtc.c ****     
1139:App/STM32F4-Discovery/Libraries/STM32F4xx_StdPeriph_Driver/src/stm32f4xx_rtc.c ****     if(RTC_AlarmStruct->RTC_AlarmDateWeekDaySel == RTC_AlarmDateWeekDaySel_Date)
 2176              		.loc 1 1139 0 is_stmt 1
 2177 020e 7B68     		ldr	r3, [r7, #4]
 2178 0210 9B68     		ldr	r3, [r3, #8]
 2179 0212 002B     		cmp	r3, #0
 2180 0214 12D1     		bne	.L146
1140:App/STM32F4-Discovery/Libraries/STM32F4xx_StdPeriph_Driver/src/stm32f4xx_rtc.c ****     {
1141:App/STM32F4-Discovery/Libraries/STM32F4xx_StdPeriph_Driver/src/stm32f4xx_rtc.c ****       tmpreg = RTC_Bcd2ToByte(RTC_AlarmStruct->RTC_AlarmDateWeekDay);
 2181              		.loc 1 1141 0
 2182 0216 7B68     		ldr	r3, [r7, #4]
 2183 0218 1B7B     		ldrb	r3, [r3, #12]	@ zero_extendqisi2
 2184 021a 1846     		mov	r0, r3
 2185 021c FFF7FEFF 		bl	RTC_Bcd2ToByte
 2186 0220 0346     		mov	r3, r0
 2187 0222 7B61     		str	r3, [r7, #20]
1142:App/STM32F4-Discovery/Libraries/STM32F4xx_StdPeriph_Driver/src/stm32f4xx_rtc.c ****       assert_param(IS_RTC_ALARM_DATE_WEEKDAY_DATE(tmpreg));    
 2188              		.loc 1 1142 0
 2189 0224 7B69     		ldr	r3, [r7, #20]
 2190 0226 002B     		cmp	r3, #0
 2191 0228 02D0     		beq	.L147
 2192              		.loc 1 1142 0 is_stmt 0 discriminator 2
 2193 022a 7B69     		ldr	r3, [r7, #20]
 2194 022c 1F2B     		cmp	r3, #31
 2195 022e 26D9     		bls	.L139
 2196              	.L147:
 2197              		.loc 1 1142 0 discriminator 1
 2198 0230 2148     		ldr	r0, .L153
 2199 0232 40F27641 		movw	r1, #1142
 2200 0236 FFF7FEFF 		bl	assert_failed
 2201 023a 20E0     		b	.L139
 2202              	.L146:
1143:App/STM32F4-Discovery/Libraries/STM32F4xx_StdPeriph_Driver/src/stm32f4xx_rtc.c ****     }
1144:App/STM32F4-Discovery/Libraries/STM32F4xx_StdPeriph_Driver/src/stm32f4xx_rtc.c ****     else
1145:App/STM32F4-Discovery/Libraries/STM32F4xx_StdPeriph_Driver/src/stm32f4xx_rtc.c ****     {
1146:App/STM32F4-Discovery/Libraries/STM32F4xx_StdPeriph_Driver/src/stm32f4xx_rtc.c ****       tmpreg = RTC_Bcd2ToByte(RTC_AlarmStruct->RTC_AlarmDateWeekDay);
 2203              		.loc 1 1146 0 is_stmt 1
 2204 023c 7B68     		ldr	r3, [r7, #4]
 2205 023e 1B7B     		ldrb	r3, [r3, #12]	@ zero_extendqisi2
 2206 0240 1846     		mov	r0, r3
 2207 0242 FFF7FEFF 		bl	RTC_Bcd2ToByte
 2208 0246 0346     		mov	r3, r0
 2209 0248 7B61     		str	r3, [r7, #20]
1147:App/STM32F4-Discovery/Libraries/STM32F4xx_StdPeriph_Driver/src/stm32f4xx_rtc.c ****       assert_param(IS_RTC_ALARM_DATE_WEEKDAY_WEEKDAY(tmpreg));      
 2210              		.loc 1 1147 0
 2211 024a 7B69     		ldr	r3, [r7, #20]
 2212 024c 012B     		cmp	r3, #1
 2213 024e 16D0     		beq	.L139
 2214              		.loc 1 1147 0 is_stmt 0 discriminator 1
 2215 0250 7B69     		ldr	r3, [r7, #20]
 2216 0252 022B     		cmp	r3, #2
 2217 0254 13D0     		beq	.L139
 2218 0256 7B69     		ldr	r3, [r7, #20]
 2219 0258 032B     		cmp	r3, #3
 2220 025a 10D0     		beq	.L139
 2221 025c 7B69     		ldr	r3, [r7, #20]
 2222 025e 042B     		cmp	r3, #4
 2223 0260 0DD0     		beq	.L139
 2224 0262 7B69     		ldr	r3, [r7, #20]
 2225 0264 052B     		cmp	r3, #5
 2226 0266 0AD0     		beq	.L139
 2227 0268 7B69     		ldr	r3, [r7, #20]
 2228 026a 062B     		cmp	r3, #6
 2229 026c 07D0     		beq	.L139
 2230 026e 7B69     		ldr	r3, [r7, #20]
 2231 0270 072B     		cmp	r3, #7
 2232 0272 04D0     		beq	.L139
 2233 0274 1048     		ldr	r0, .L153
 2234 0276 40F27B41 		movw	r1, #1147
 2235 027a FFF7FEFF 		bl	assert_failed
 2236              	.L139:
1148:App/STM32F4-Discovery/Libraries/STM32F4xx_StdPeriph_Driver/src/stm32f4xx_rtc.c ****     }    
1149:App/STM32F4-Discovery/Libraries/STM32F4xx_StdPeriph_Driver/src/stm32f4xx_rtc.c ****   }
1150:App/STM32F4-Discovery/Libraries/STM32F4xx_StdPeriph_Driver/src/stm32f4xx_rtc.c **** 
1151:App/STM32F4-Discovery/Libraries/STM32F4xx_StdPeriph_Driver/src/stm32f4xx_rtc.c ****   /* Check the input parameters format */
1152:App/STM32F4-Discovery/Libraries/STM32F4xx_StdPeriph_Driver/src/stm32f4xx_rtc.c ****   if (RTC_Format != RTC_Format_BIN)
 2237              		.loc 1 1152 0 is_stmt 1
 2238 027e FB68     		ldr	r3, [r7, #12]
 2239 0280 002B     		cmp	r3, #0
 2240 0282 1DD0     		beq	.L149
1153:App/STM32F4-Discovery/Libraries/STM32F4xx_StdPeriph_Driver/src/stm32f4xx_rtc.c ****   {
1154:App/STM32F4-Discovery/Libraries/STM32F4xx_StdPeriph_Driver/src/stm32f4xx_rtc.c ****     tmpreg = (((uint32_t)(RTC_AlarmStruct->RTC_AlarmTime.RTC_Hours) << 16) | \
 2241              		.loc 1 1154 0
 2242 0284 7B68     		ldr	r3, [r7, #4]
 2243 0286 1B78     		ldrb	r3, [r3]	@ zero_extendqisi2
 2244 0288 1A04     		lsls	r2, r3, #16
1155:App/STM32F4-Discovery/Libraries/STM32F4xx_StdPeriph_Driver/src/stm32f4xx_rtc.c ****               ((uint32_t)(RTC_AlarmStruct->RTC_AlarmTime.RTC_Minutes) << 8) | \
 2245              		.loc 1 1155 0
 2246 028a 7B68     		ldr	r3, [r7, #4]
 2247 028c 5B78     		ldrb	r3, [r3, #1]	@ zero_extendqisi2
 2248 028e 1B02     		lsls	r3, r3, #8
1154:App/STM32F4-Discovery/Libraries/STM32F4xx_StdPeriph_Driver/src/stm32f4xx_rtc.c ****     tmpreg = (((uint32_t)(RTC_AlarmStruct->RTC_AlarmTime.RTC_Hours) << 16) | \
 2249              		.loc 1 1154 0
 2250 0290 1A43     		orrs	r2, r2, r3
1156:App/STM32F4-Discovery/Libraries/STM32F4xx_StdPeriph_Driver/src/stm32f4xx_rtc.c ****               ((uint32_t)RTC_AlarmStruct->RTC_AlarmTime.RTC_Seconds) | \
 2251              		.loc 1 1156 0
 2252 0292 7B68     		ldr	r3, [r7, #4]
 2253 0294 9B78     		ldrb	r3, [r3, #2]	@ zero_extendqisi2
1155:App/STM32F4-Discovery/Libraries/STM32F4xx_StdPeriph_Driver/src/stm32f4xx_rtc.c ****               ((uint32_t)(RTC_AlarmStruct->RTC_AlarmTime.RTC_Minutes) << 8) | \
 2254              		.loc 1 1155 0
 2255 0296 1A43     		orrs	r2, r2, r3
1157:App/STM32F4-Discovery/Libraries/STM32F4xx_StdPeriph_Driver/src/stm32f4xx_rtc.c ****               ((uint32_t)(RTC_AlarmStruct->RTC_AlarmTime.RTC_H12) << 16) | \
 2256              		.loc 1 1157 0
 2257 0298 7B68     		ldr	r3, [r7, #4]
 2258 029a DB78     		ldrb	r3, [r3, #3]	@ zero_extendqisi2
 2259 029c 1B04     		lsls	r3, r3, #16
1156:App/STM32F4-Discovery/Libraries/STM32F4xx_StdPeriph_Driver/src/stm32f4xx_rtc.c ****               ((uint32_t)RTC_AlarmStruct->RTC_AlarmTime.RTC_Seconds) | \
 2260              		.loc 1 1156 0
 2261 029e 1A43     		orrs	r2, r2, r3
1158:App/STM32F4-Discovery/Libraries/STM32F4xx_StdPeriph_Driver/src/stm32f4xx_rtc.c ****               ((uint32_t)(RTC_AlarmStruct->RTC_AlarmDateWeekDay) << 24) | \
 2262              		.loc 1 1158 0
 2263 02a0 7B68     		ldr	r3, [r7, #4]
 2264 02a2 1B7B     		ldrb	r3, [r3, #12]	@ zero_extendqisi2
 2265 02a4 1B06     		lsls	r3, r3, #24
1157:App/STM32F4-Discovery/Libraries/STM32F4xx_StdPeriph_Driver/src/stm32f4xx_rtc.c ****               ((uint32_t)(RTC_AlarmStruct->RTC_AlarmTime.RTC_H12) << 16) | \
 2266              		.loc 1 1157 0
 2267 02a6 1A43     		orrs	r2, r2, r3
1159:App/STM32F4-Discovery/Libraries/STM32F4xx_StdPeriph_Driver/src/stm32f4xx_rtc.c ****               ((uint32_t)RTC_AlarmStruct->RTC_AlarmDateWeekDaySel) | \
 2268              		.loc 1 1159 0
 2269 02a8 7B68     		ldr	r3, [r7, #4]
 2270 02aa 9B68     		ldr	r3, [r3, #8]
1158:App/STM32F4-Discovery/Libraries/STM32F4xx_StdPeriph_Driver/src/stm32f4xx_rtc.c ****               ((uint32_t)(RTC_AlarmStruct->RTC_AlarmDateWeekDay) << 24) | \
 2271              		.loc 1 1158 0
 2272 02ac 1A43     		orrs	r2, r2, r3
1160:App/STM32F4-Discovery/Libraries/STM32F4xx_StdPeriph_Driver/src/stm32f4xx_rtc.c ****               ((uint32_t)RTC_AlarmStruct->RTC_AlarmMask)); 
 2273              		.loc 1 1160 0
 2274 02ae 7B68     		ldr	r3, [r7, #4]
 2275 02b0 5B68     		ldr	r3, [r3, #4]
1154:App/STM32F4-Discovery/Libraries/STM32F4xx_StdPeriph_Driver/src/stm32f4xx_rtc.c ****     tmpreg = (((uint32_t)(RTC_AlarmStruct->RTC_AlarmTime.RTC_Hours) << 16) | \
 2276              		.loc 1 1154 0
 2277 02b2 1343     		orrs	r3, r3, r2
 2278 02b4 7B61     		str	r3, [r7, #20]
 2279 02b6 2FE0     		b	.L150
 2280              	.L154:
 2281              		.align	2
 2282              	.L153:
 2283 02b8 00000000 		.word	.LC0
 2284 02bc 00280040 		.word	1073752064
 2285              	.L149:
1161:App/STM32F4-Discovery/Libraries/STM32F4xx_StdPeriph_Driver/src/stm32f4xx_rtc.c ****   }  
1162:App/STM32F4-Discovery/Libraries/STM32F4xx_StdPeriph_Driver/src/stm32f4xx_rtc.c ****   else
1163:App/STM32F4-Discovery/Libraries/STM32F4xx_StdPeriph_Driver/src/stm32f4xx_rtc.c ****   {
1164:App/STM32F4-Discovery/Libraries/STM32F4xx_StdPeriph_Driver/src/stm32f4xx_rtc.c ****     tmpreg = (((uint32_t)RTC_ByteToBcd2(RTC_AlarmStruct->RTC_AlarmTime.RTC_Hours) << 16) | \
 2286              		.loc 1 1164 0
 2287 02c0 7B68     		ldr	r3, [r7, #4]
 2288 02c2 1B78     		ldrb	r3, [r3]	@ zero_extendqisi2
 2289 02c4 1846     		mov	r0, r3
 2290 02c6 FFF7FEFF 		bl	RTC_ByteToBcd2
 2291 02ca 0346     		mov	r3, r0
 2292 02cc 1C04     		lsls	r4, r3, #16
1165:App/STM32F4-Discovery/Libraries/STM32F4xx_StdPeriph_Driver/src/stm32f4xx_rtc.c ****               ((uint32_t)RTC_ByteToBcd2(RTC_AlarmStruct->RTC_AlarmTime.RTC_Minutes) << 8) | \
 2293              		.loc 1 1165 0
 2294 02ce 7B68     		ldr	r3, [r7, #4]
 2295 02d0 5B78     		ldrb	r3, [r3, #1]	@ zero_extendqisi2
 2296 02d2 1846     		mov	r0, r3
 2297 02d4 FFF7FEFF 		bl	RTC_ByteToBcd2
 2298 02d8 0346     		mov	r3, r0
 2299 02da 1B02     		lsls	r3, r3, #8
1164:App/STM32F4-Discovery/Libraries/STM32F4xx_StdPeriph_Driver/src/stm32f4xx_rtc.c ****     tmpreg = (((uint32_t)RTC_ByteToBcd2(RTC_AlarmStruct->RTC_AlarmTime.RTC_Hours) << 16) | \
 2300              		.loc 1 1164 0
 2301 02dc 1C43     		orrs	r4, r4, r3
1166:App/STM32F4-Discovery/Libraries/STM32F4xx_StdPeriph_Driver/src/stm32f4xx_rtc.c ****               ((uint32_t)RTC_ByteToBcd2(RTC_AlarmStruct->RTC_AlarmTime.RTC_Seconds)) | \
 2302              		.loc 1 1166 0
 2303 02de 7B68     		ldr	r3, [r7, #4]
 2304 02e0 9B78     		ldrb	r3, [r3, #2]	@ zero_extendqisi2
 2305 02e2 1846     		mov	r0, r3
 2306 02e4 FFF7FEFF 		bl	RTC_ByteToBcd2
 2307 02e8 0346     		mov	r3, r0
1165:App/STM32F4-Discovery/Libraries/STM32F4xx_StdPeriph_Driver/src/stm32f4xx_rtc.c ****               ((uint32_t)RTC_ByteToBcd2(RTC_AlarmStruct->RTC_AlarmTime.RTC_Minutes) << 8) | \
 2308              		.loc 1 1165 0
 2309 02ea 44EA0302 		orr	r2, r4, r3
1167:App/STM32F4-Discovery/Libraries/STM32F4xx_StdPeriph_Driver/src/stm32f4xx_rtc.c ****               ((uint32_t)(RTC_AlarmStruct->RTC_AlarmTime.RTC_H12) << 16) | \
 2310              		.loc 1 1167 0
 2311 02ee 7B68     		ldr	r3, [r7, #4]
 2312 02f0 DB78     		ldrb	r3, [r3, #3]	@ zero_extendqisi2
 2313 02f2 1B04     		lsls	r3, r3, #16
1166:App/STM32F4-Discovery/Libraries/STM32F4xx_StdPeriph_Driver/src/stm32f4xx_rtc.c ****               ((uint32_t)RTC_ByteToBcd2(RTC_AlarmStruct->RTC_AlarmTime.RTC_Seconds)) | \
 2314              		.loc 1 1166 0
 2315 02f4 42EA0304 		orr	r4, r2, r3
1168:App/STM32F4-Discovery/Libraries/STM32F4xx_StdPeriph_Driver/src/stm32f4xx_rtc.c ****               ((uint32_t)RTC_ByteToBcd2(RTC_AlarmStruct->RTC_AlarmDateWeekDay) << 24) | \
 2316              		.loc 1 1168 0
 2317 02f8 7B68     		ldr	r3, [r7, #4]
 2318 02fa 1B7B     		ldrb	r3, [r3, #12]	@ zero_extendqisi2
 2319 02fc 1846     		mov	r0, r3
 2320 02fe FFF7FEFF 		bl	RTC_ByteToBcd2
 2321 0302 0346     		mov	r3, r0
 2322 0304 1B06     		lsls	r3, r3, #24
1167:App/STM32F4-Discovery/Libraries/STM32F4xx_StdPeriph_Driver/src/stm32f4xx_rtc.c ****               ((uint32_t)(RTC_AlarmStruct->RTC_AlarmTime.RTC_H12) << 16) | \
 2323              		.loc 1 1167 0
 2324 0306 44EA0302 		orr	r2, r4, r3
1169:App/STM32F4-Discovery/Libraries/STM32F4xx_StdPeriph_Driver/src/stm32f4xx_rtc.c ****               ((uint32_t)RTC_AlarmStruct->RTC_AlarmDateWeekDaySel) | \
 2325              		.loc 1 1169 0
 2326 030a 7B68     		ldr	r3, [r7, #4]
 2327 030c 9B68     		ldr	r3, [r3, #8]
1168:App/STM32F4-Discovery/Libraries/STM32F4xx_StdPeriph_Driver/src/stm32f4xx_rtc.c ****               ((uint32_t)RTC_ByteToBcd2(RTC_AlarmStruct->RTC_AlarmDateWeekDay) << 24) | \
 2328              		.loc 1 1168 0
 2329 030e 1A43     		orrs	r2, r2, r3
1170:App/STM32F4-Discovery/Libraries/STM32F4xx_StdPeriph_Driver/src/stm32f4xx_rtc.c ****               ((uint32_t)RTC_AlarmStruct->RTC_AlarmMask)); 
 2330              		.loc 1 1170 0
 2331 0310 7B68     		ldr	r3, [r7, #4]
 2332 0312 5B68     		ldr	r3, [r3, #4]
1164:App/STM32F4-Discovery/Libraries/STM32F4xx_StdPeriph_Driver/src/stm32f4xx_rtc.c ****     tmpreg = (((uint32_t)RTC_ByteToBcd2(RTC_AlarmStruct->RTC_AlarmTime.RTC_Hours) << 16) | \
 2333              		.loc 1 1164 0
 2334 0314 1343     		orrs	r3, r3, r2
 2335 0316 7B61     		str	r3, [r7, #20]
 2336              	.L150:
1171:App/STM32F4-Discovery/Libraries/STM32F4xx_StdPeriph_Driver/src/stm32f4xx_rtc.c ****   } 
1172:App/STM32F4-Discovery/Libraries/STM32F4xx_StdPeriph_Driver/src/stm32f4xx_rtc.c **** 
1173:App/STM32F4-Discovery/Libraries/STM32F4xx_StdPeriph_Driver/src/stm32f4xx_rtc.c ****   /* Disable the write protection for RTC registers */
1174:App/STM32F4-Discovery/Libraries/STM32F4xx_StdPeriph_Driver/src/stm32f4xx_rtc.c ****   RTC->WPR = 0xCA;
 2337              		.loc 1 1174 0
 2338 0318 0B4B     		ldr	r3, .L155
 2339 031a CA22     		movs	r2, #202
 2340 031c 5A62     		str	r2, [r3, #36]
1175:App/STM32F4-Discovery/Libraries/STM32F4xx_StdPeriph_Driver/src/stm32f4xx_rtc.c ****   RTC->WPR = 0x53;
 2341              		.loc 1 1175 0
 2342 031e 0A4B     		ldr	r3, .L155
 2343 0320 5322     		movs	r2, #83
 2344 0322 5A62     		str	r2, [r3, #36]
1176:App/STM32F4-Discovery/Libraries/STM32F4xx_StdPeriph_Driver/src/stm32f4xx_rtc.c **** 
1177:App/STM32F4-Discovery/Libraries/STM32F4xx_StdPeriph_Driver/src/stm32f4xx_rtc.c ****   /* Configure the Alarm register */
1178:App/STM32F4-Discovery/Libraries/STM32F4xx_StdPeriph_Driver/src/stm32f4xx_rtc.c ****   if (RTC_Alarm == RTC_Alarm_A)
 2345              		.loc 1 1178 0
 2346 0324 BB68     		ldr	r3, [r7, #8]
 2347 0326 B3F5807F 		cmp	r3, #256
 2348 032a 03D1     		bne	.L151
1179:App/STM32F4-Discovery/Libraries/STM32F4xx_StdPeriph_Driver/src/stm32f4xx_rtc.c ****   {
1180:App/STM32F4-Discovery/Libraries/STM32F4xx_StdPeriph_Driver/src/stm32f4xx_rtc.c ****     RTC->ALRMAR = (uint32_t)tmpreg;
 2349              		.loc 1 1180 0
 2350 032c 064B     		ldr	r3, .L155
 2351 032e 7A69     		ldr	r2, [r7, #20]
 2352 0330 DA61     		str	r2, [r3, #28]
 2353 0332 02E0     		b	.L152
 2354              	.L151:
1181:App/STM32F4-Discovery/Libraries/STM32F4xx_StdPeriph_Driver/src/stm32f4xx_rtc.c ****   }
1182:App/STM32F4-Discovery/Libraries/STM32F4xx_StdPeriph_Driver/src/stm32f4xx_rtc.c ****   else
1183:App/STM32F4-Discovery/Libraries/STM32F4xx_StdPeriph_Driver/src/stm32f4xx_rtc.c ****   {
1184:App/STM32F4-Discovery/Libraries/STM32F4xx_StdPeriph_Driver/src/stm32f4xx_rtc.c ****     RTC->ALRMBR = (uint32_t)tmpreg;
 2355              		.loc 1 1184 0
 2356 0334 044B     		ldr	r3, .L155
 2357 0336 7A69     		ldr	r2, [r7, #20]
 2358 0338 1A62     		str	r2, [r3, #32]
 2359              	.L152:
1185:App/STM32F4-Discovery/Libraries/STM32F4xx_StdPeriph_Driver/src/stm32f4xx_rtc.c ****   }
1186:App/STM32F4-Discovery/Libraries/STM32F4xx_StdPeriph_Driver/src/stm32f4xx_rtc.c **** 
1187:App/STM32F4-Discovery/Libraries/STM32F4xx_StdPeriph_Driver/src/stm32f4xx_rtc.c ****   /* Enable the write protection for RTC registers */
1188:App/STM32F4-Discovery/Libraries/STM32F4xx_StdPeriph_Driver/src/stm32f4xx_rtc.c ****   RTC->WPR = 0xFF;   
 2360              		.loc 1 1188 0
 2361 033a 034B     		ldr	r3, .L155
 2362 033c FF22     		movs	r2, #255
 2363 033e 5A62     		str	r2, [r3, #36]
1189:App/STM32F4-Discovery/Libraries/STM32F4xx_StdPeriph_Driver/src/stm32f4xx_rtc.c **** }
 2364              		.loc 1 1189 0
 2365 0340 1C37     		adds	r7, r7, #28
 2366 0342 BD46     		mov	sp, r7
 2367              		@ sp needed
 2368 0344 90BD     		pop	{r4, r7, pc}
 2369              	.L156:
 2370 0346 00BF     		.align	2
 2371              	.L155:
 2372 0348 00280040 		.word	1073752064
 2373              		.cfi_endproc
 2374              	.LFE126:
 2376              		.section	.text.RTC_AlarmStructInit,"ax",%progbits
 2377              		.align	2
 2378              		.global	RTC_AlarmStructInit
 2379              		.thumb
 2380              		.thumb_func
 2382              	RTC_AlarmStructInit:
 2383              	.LFB127:
1190:App/STM32F4-Discovery/Libraries/STM32F4xx_StdPeriph_Driver/src/stm32f4xx_rtc.c **** 
1191:App/STM32F4-Discovery/Libraries/STM32F4xx_StdPeriph_Driver/src/stm32f4xx_rtc.c **** /**
1192:App/STM32F4-Discovery/Libraries/STM32F4xx_StdPeriph_Driver/src/stm32f4xx_rtc.c ****   * @brief  Fills each RTC_AlarmStruct member with its default value
1193:App/STM32F4-Discovery/Libraries/STM32F4xx_StdPeriph_Driver/src/stm32f4xx_rtc.c ****   *         (Time = 00h:00mn:00sec / Date = 1st day of the month/Mask =
1194:App/STM32F4-Discovery/Libraries/STM32F4xx_StdPeriph_Driver/src/stm32f4xx_rtc.c ****   *         all fields are masked).
1195:App/STM32F4-Discovery/Libraries/STM32F4xx_StdPeriph_Driver/src/stm32f4xx_rtc.c ****   * @param  RTC_AlarmStruct: pointer to a @ref RTC_AlarmTypeDef structure which
1196:App/STM32F4-Discovery/Libraries/STM32F4xx_StdPeriph_Driver/src/stm32f4xx_rtc.c ****   *         will be initialized.
1197:App/STM32F4-Discovery/Libraries/STM32F4xx_StdPeriph_Driver/src/stm32f4xx_rtc.c ****   * @retval None
1198:App/STM32F4-Discovery/Libraries/STM32F4xx_StdPeriph_Driver/src/stm32f4xx_rtc.c ****   */
1199:App/STM32F4-Discovery/Libraries/STM32F4xx_StdPeriph_Driver/src/stm32f4xx_rtc.c **** void RTC_AlarmStructInit(RTC_AlarmTypeDef* RTC_AlarmStruct)
1200:App/STM32F4-Discovery/Libraries/STM32F4xx_StdPeriph_Driver/src/stm32f4xx_rtc.c **** {
 2384              		.loc 1 1200 0
 2385              		.cfi_startproc
 2386              		@ args = 0, pretend = 0, frame = 8
 2387              		@ frame_needed = 1, uses_anonymous_args = 0
 2388              		@ link register save eliminated.
 2389 0000 80B4     		push	{r7}
 2390              	.LCFI50:
 2391              		.cfi_def_cfa_offset 4
 2392              		.cfi_offset 7, -4
 2393 0002 83B0     		sub	sp, sp, #12
 2394              	.LCFI51:
 2395              		.cfi_def_cfa_offset 16
 2396 0004 00AF     		add	r7, sp, #0
 2397              	.LCFI52:
 2398              		.cfi_def_cfa_register 7
 2399 0006 7860     		str	r0, [r7, #4]
1201:App/STM32F4-Discovery/Libraries/STM32F4xx_StdPeriph_Driver/src/stm32f4xx_rtc.c ****   /* Alarm Time Settings : Time = 00h:00mn:00sec */
1202:App/STM32F4-Discovery/Libraries/STM32F4xx_StdPeriph_Driver/src/stm32f4xx_rtc.c ****   RTC_AlarmStruct->RTC_AlarmTime.RTC_H12 = RTC_H12_AM;
 2400              		.loc 1 1202 0
 2401 0008 7B68     		ldr	r3, [r7, #4]
 2402 000a 0022     		movs	r2, #0
 2403 000c DA70     		strb	r2, [r3, #3]
1203:App/STM32F4-Discovery/Libraries/STM32F4xx_StdPeriph_Driver/src/stm32f4xx_rtc.c ****   RTC_AlarmStruct->RTC_AlarmTime.RTC_Hours = 0;
 2404              		.loc 1 1203 0
 2405 000e 7B68     		ldr	r3, [r7, #4]
 2406 0010 0022     		movs	r2, #0
 2407 0012 1A70     		strb	r2, [r3]
1204:App/STM32F4-Discovery/Libraries/STM32F4xx_StdPeriph_Driver/src/stm32f4xx_rtc.c ****   RTC_AlarmStruct->RTC_AlarmTime.RTC_Minutes = 0;
 2408              		.loc 1 1204 0
 2409 0014 7B68     		ldr	r3, [r7, #4]
 2410 0016 0022     		movs	r2, #0
 2411 0018 5A70     		strb	r2, [r3, #1]
1205:App/STM32F4-Discovery/Libraries/STM32F4xx_StdPeriph_Driver/src/stm32f4xx_rtc.c ****   RTC_AlarmStruct->RTC_AlarmTime.RTC_Seconds = 0;
 2412              		.loc 1 1205 0
 2413 001a 7B68     		ldr	r3, [r7, #4]
 2414 001c 0022     		movs	r2, #0
 2415 001e 9A70     		strb	r2, [r3, #2]
1206:App/STM32F4-Discovery/Libraries/STM32F4xx_StdPeriph_Driver/src/stm32f4xx_rtc.c **** 
1207:App/STM32F4-Discovery/Libraries/STM32F4xx_StdPeriph_Driver/src/stm32f4xx_rtc.c ****   /* Alarm Date Settings : Date = 1st day of the month */
1208:App/STM32F4-Discovery/Libraries/STM32F4xx_StdPeriph_Driver/src/stm32f4xx_rtc.c ****   RTC_AlarmStruct->RTC_AlarmDateWeekDaySel = RTC_AlarmDateWeekDaySel_Date;
 2416              		.loc 1 1208 0
 2417 0020 7B68     		ldr	r3, [r7, #4]
 2418 0022 0022     		movs	r2, #0
 2419 0024 9A60     		str	r2, [r3, #8]
1209:App/STM32F4-Discovery/Libraries/STM32F4xx_StdPeriph_Driver/src/stm32f4xx_rtc.c ****   RTC_AlarmStruct->RTC_AlarmDateWeekDay = 1;
 2420              		.loc 1 1209 0
 2421 0026 7B68     		ldr	r3, [r7, #4]
 2422 0028 0122     		movs	r2, #1
 2423 002a 1A73     		strb	r2, [r3, #12]
1210:App/STM32F4-Discovery/Libraries/STM32F4xx_StdPeriph_Driver/src/stm32f4xx_rtc.c **** 
1211:App/STM32F4-Discovery/Libraries/STM32F4xx_StdPeriph_Driver/src/stm32f4xx_rtc.c ****   /* Alarm Masks Settings : Mask =  all fields are not masked */
1212:App/STM32F4-Discovery/Libraries/STM32F4xx_StdPeriph_Driver/src/stm32f4xx_rtc.c ****   RTC_AlarmStruct->RTC_AlarmMask = RTC_AlarmMask_None;
 2424              		.loc 1 1212 0
 2425 002c 7B68     		ldr	r3, [r7, #4]
 2426 002e 0022     		movs	r2, #0
 2427 0030 5A60     		str	r2, [r3, #4]
1213:App/STM32F4-Discovery/Libraries/STM32F4xx_StdPeriph_Driver/src/stm32f4xx_rtc.c **** }
 2428              		.loc 1 1213 0
 2429 0032 0C37     		adds	r7, r7, #12
 2430 0034 BD46     		mov	sp, r7
 2431              		@ sp needed
 2432 0036 5DF8047B 		ldr	r7, [sp], #4
 2433 003a 7047     		bx	lr
 2434              		.cfi_endproc
 2435              	.LFE127:
 2437              		.section	.text.RTC_GetAlarm,"ax",%progbits
 2438              		.align	2
 2439              		.global	RTC_GetAlarm
 2440              		.thumb
 2441              		.thumb_func
 2443              	RTC_GetAlarm:
 2444              	.LFB128:
1214:App/STM32F4-Discovery/Libraries/STM32F4xx_StdPeriph_Driver/src/stm32f4xx_rtc.c **** 
1215:App/STM32F4-Discovery/Libraries/STM32F4xx_StdPeriph_Driver/src/stm32f4xx_rtc.c **** /**
1216:App/STM32F4-Discovery/Libraries/STM32F4xx_StdPeriph_Driver/src/stm32f4xx_rtc.c ****   * @brief  Get the RTC Alarm value and masks.
