   1              		.syntax unified
   2              		.cpu cortex-m4
   3              		.eabi_attribute 27, 3
   4              		.fpu fpv4-sp-d16
   5              		.eabi_attribute 20, 1
   6              		.eabi_attribute 21, 1
   7              		.eabi_attribute 23, 3
   8              		.eabi_attribute 24, 1
   9              		.eabi_attribute 25, 1
  10              		.eabi_attribute 26, 1
  11              		.eabi_attribute 30, 6
  12              		.eabi_attribute 34, 1
  13              		.eabi_attribute 18, 4
  14              		.thumb
  15              		.file	"stm32f4xx_sdio.c"
  16              		.text
  17              	.Ltext0:
  18              		.cfi_sections	.debug_frame
  19              		.section	.text.SDIO_DeInit,"ax",%progbits
  20              		.align	2
  21              		.global	SDIO_DeInit
  22              		.thumb
  23              		.thumb_func
  25              	SDIO_DeInit:
  26              	.LFB110:
  27              		.file 1 "App/STM32F4-Discovery/Libraries/STM32F4xx_StdPeriph_Driver/src/stm32f4xx_sdio.c"
   1:App/STM32F4-Discovery/Libraries/STM32F4xx_StdPeriph_Driver/src/stm32f4xx_sdio.c **** /**
   2:App/STM32F4-Discovery/Libraries/STM32F4xx_StdPeriph_Driver/src/stm32f4xx_sdio.c ****   ******************************************************************************
   3:App/STM32F4-Discovery/Libraries/STM32F4xx_StdPeriph_Driver/src/stm32f4xx_sdio.c ****   * @file    stm32f4xx_sdio.c
   4:App/STM32F4-Discovery/Libraries/STM32F4xx_StdPeriph_Driver/src/stm32f4xx_sdio.c ****   * @author  MCD Application Team
   5:App/STM32F4-Discovery/Libraries/STM32F4xx_StdPeriph_Driver/src/stm32f4xx_sdio.c ****   * @version V1.0.0
   6:App/STM32F4-Discovery/Libraries/STM32F4xx_StdPeriph_Driver/src/stm32f4xx_sdio.c ****   * @date    30-September-2011
   7:App/STM32F4-Discovery/Libraries/STM32F4xx_StdPeriph_Driver/src/stm32f4xx_sdio.c ****   * @brief   This file provides firmware functions to manage the following 
   8:App/STM32F4-Discovery/Libraries/STM32F4xx_StdPeriph_Driver/src/stm32f4xx_sdio.c ****   *          functionalities of the Secure digital input/output interface (SDIO) 
   9:App/STM32F4-Discovery/Libraries/STM32F4xx_StdPeriph_Driver/src/stm32f4xx_sdio.c ****   *          peripheral:
  10:App/STM32F4-Discovery/Libraries/STM32F4xx_StdPeriph_Driver/src/stm32f4xx_sdio.c ****   *           - Initialization and Configuration
  11:App/STM32F4-Discovery/Libraries/STM32F4xx_StdPeriph_Driver/src/stm32f4xx_sdio.c ****   *           - Command path state machine (CPSM) management
  12:App/STM32F4-Discovery/Libraries/STM32F4xx_StdPeriph_Driver/src/stm32f4xx_sdio.c ****   *           - Data path state machine (DPSM) management
  13:App/STM32F4-Discovery/Libraries/STM32F4xx_StdPeriph_Driver/src/stm32f4xx_sdio.c ****   *           - SDIO IO Cards mode management
  14:App/STM32F4-Discovery/Libraries/STM32F4xx_StdPeriph_Driver/src/stm32f4xx_sdio.c ****   *           - CE-ATA mode management
  15:App/STM32F4-Discovery/Libraries/STM32F4xx_StdPeriph_Driver/src/stm32f4xx_sdio.c ****   *           - DMA transfers management
  16:App/STM32F4-Discovery/Libraries/STM32F4xx_StdPeriph_Driver/src/stm32f4xx_sdio.c ****   *           - Interrupts and flags management
  17:App/STM32F4-Discovery/Libraries/STM32F4xx_StdPeriph_Driver/src/stm32f4xx_sdio.c ****   *
  18:App/STM32F4-Discovery/Libraries/STM32F4xx_StdPeriph_Driver/src/stm32f4xx_sdio.c ****   *  @verbatim
  19:App/STM32F4-Discovery/Libraries/STM32F4xx_StdPeriph_Driver/src/stm32f4xx_sdio.c ****   *
  20:App/STM32F4-Discovery/Libraries/STM32F4xx_StdPeriph_Driver/src/stm32f4xx_sdio.c ****   *
  21:App/STM32F4-Discovery/Libraries/STM32F4xx_StdPeriph_Driver/src/stm32f4xx_sdio.c ****   *          ===================================================================
  22:App/STM32F4-Discovery/Libraries/STM32F4xx_StdPeriph_Driver/src/stm32f4xx_sdio.c ****   *                                 How to use this driver
  23:App/STM32F4-Discovery/Libraries/STM32F4xx_StdPeriph_Driver/src/stm32f4xx_sdio.c ****   *          ===================================================================
  24:App/STM32F4-Discovery/Libraries/STM32F4xx_StdPeriph_Driver/src/stm32f4xx_sdio.c ****   *          1. The SDIO clock (SDIOCLK = 48 MHz) is coming from a specific output
  25:App/STM32F4-Discovery/Libraries/STM32F4xx_StdPeriph_Driver/src/stm32f4xx_sdio.c ****   *             of PLL (PLL48CLK). Before to start working with SDIO peripheral
  26:App/STM32F4-Discovery/Libraries/STM32F4xx_StdPeriph_Driver/src/stm32f4xx_sdio.c ****   *             make sure that the PLL is well configured.
  27:App/STM32F4-Discovery/Libraries/STM32F4xx_StdPeriph_Driver/src/stm32f4xx_sdio.c ****   *          The SDIO peripheral uses two clock signals:
  28:App/STM32F4-Discovery/Libraries/STM32F4xx_StdPeriph_Driver/src/stm32f4xx_sdio.c ****   *              - SDIO adapter clock (SDIOCLK = 48 MHz)
  29:App/STM32F4-Discovery/Libraries/STM32F4xx_StdPeriph_Driver/src/stm32f4xx_sdio.c ****   *              - APB2 bus clock (PCLK2)
  30:App/STM32F4-Discovery/Libraries/STM32F4xx_StdPeriph_Driver/src/stm32f4xx_sdio.c ****   *          PCLK2 and SDIO_CK clock frequencies must respect the following condition:
  31:App/STM32F4-Discovery/Libraries/STM32F4xx_StdPeriph_Driver/src/stm32f4xx_sdio.c ****   *                   Frequenc(PCLK2) >= (3 / 8 x Frequency(SDIO_CK))
  32:App/STM32F4-Discovery/Libraries/STM32F4xx_StdPeriph_Driver/src/stm32f4xx_sdio.c ****   *
  33:App/STM32F4-Discovery/Libraries/STM32F4xx_StdPeriph_Driver/src/stm32f4xx_sdio.c ****   *          2. Enable peripheral clock using RCC_APB2PeriphClockCmd(RCC_APB2Periph_SDIO, ENABLE).
  34:App/STM32F4-Discovery/Libraries/STM32F4xx_StdPeriph_Driver/src/stm32f4xx_sdio.c ****   *
  35:App/STM32F4-Discovery/Libraries/STM32F4xx_StdPeriph_Driver/src/stm32f4xx_sdio.c ****   *          3.  According to the SDIO mode, enable the GPIO clocks using 
  36:App/STM32F4-Discovery/Libraries/STM32F4xx_StdPeriph_Driver/src/stm32f4xx_sdio.c ****   *              RCC_AHB1PeriphClockCmd() function. 
  37:App/STM32F4-Discovery/Libraries/STM32F4xx_StdPeriph_Driver/src/stm32f4xx_sdio.c ****   *              The I/O can be one of the following configurations:
  38:App/STM32F4-Discovery/Libraries/STM32F4xx_StdPeriph_Driver/src/stm32f4xx_sdio.c ****   *                 - 1-bit data length: SDIO_CMD, SDIO_CK and D0.
  39:App/STM32F4-Discovery/Libraries/STM32F4xx_StdPeriph_Driver/src/stm32f4xx_sdio.c ****   *                 - 4-bit data length: SDIO_CMD, SDIO_CK and D[3:0].
  40:App/STM32F4-Discovery/Libraries/STM32F4xx_StdPeriph_Driver/src/stm32f4xx_sdio.c ****   *                 - 8-bit data length: SDIO_CMD, SDIO_CK and D[7:0].      
  41:App/STM32F4-Discovery/Libraries/STM32F4xx_StdPeriph_Driver/src/stm32f4xx_sdio.c ****   *
  42:App/STM32F4-Discovery/Libraries/STM32F4xx_StdPeriph_Driver/src/stm32f4xx_sdio.c ****   *          4. Peripheral's alternate function: 
  43:App/STM32F4-Discovery/Libraries/STM32F4xx_StdPeriph_Driver/src/stm32f4xx_sdio.c ****   *                 - Connect the pin to the desired peripherals' Alternate 
  44:App/STM32F4-Discovery/Libraries/STM32F4xx_StdPeriph_Driver/src/stm32f4xx_sdio.c ****   *                   Function (AF) using GPIO_PinAFConfig() function
  45:App/STM32F4-Discovery/Libraries/STM32F4xx_StdPeriph_Driver/src/stm32f4xx_sdio.c ****   *                 - Configure the desired pin in alternate function by:
  46:App/STM32F4-Discovery/Libraries/STM32F4xx_StdPeriph_Driver/src/stm32f4xx_sdio.c ****   *                   GPIO_InitStruct->GPIO_Mode = GPIO_Mode_AF
  47:App/STM32F4-Discovery/Libraries/STM32F4xx_StdPeriph_Driver/src/stm32f4xx_sdio.c ****   *                 - Select the type, pull-up/pull-down and output speed via 
  48:App/STM32F4-Discovery/Libraries/STM32F4xx_StdPeriph_Driver/src/stm32f4xx_sdio.c ****   *                   GPIO_PuPd, GPIO_OType and GPIO_Speed members
  49:App/STM32F4-Discovery/Libraries/STM32F4xx_StdPeriph_Driver/src/stm32f4xx_sdio.c ****   *                 - Call GPIO_Init() function
  50:App/STM32F4-Discovery/Libraries/STM32F4xx_StdPeriph_Driver/src/stm32f4xx_sdio.c ****   *
  51:App/STM32F4-Discovery/Libraries/STM32F4xx_StdPeriph_Driver/src/stm32f4xx_sdio.c ****   *          5. Program the Clock Edge, Clock Bypass, Clock Power Save, Bus Wide, 
  52:App/STM32F4-Discovery/Libraries/STM32F4xx_StdPeriph_Driver/src/stm32f4xx_sdio.c ****   *             hardware, flow control and the Clock Divider using the SDIO_Init()
  53:App/STM32F4-Discovery/Libraries/STM32F4xx_StdPeriph_Driver/src/stm32f4xx_sdio.c ****   *             function.
  54:App/STM32F4-Discovery/Libraries/STM32F4xx_StdPeriph_Driver/src/stm32f4xx_sdio.c ****   *
  55:App/STM32F4-Discovery/Libraries/STM32F4xx_StdPeriph_Driver/src/stm32f4xx_sdio.c ****   *          6. Enable the Power ON State using the SDIO_SetPowerState(SDIO_PowerState_ON) 
  56:App/STM32F4-Discovery/Libraries/STM32F4xx_StdPeriph_Driver/src/stm32f4xx_sdio.c ****   *             function.
  57:App/STM32F4-Discovery/Libraries/STM32F4xx_StdPeriph_Driver/src/stm32f4xx_sdio.c ****   *              
  58:App/STM32F4-Discovery/Libraries/STM32F4xx_StdPeriph_Driver/src/stm32f4xx_sdio.c ****   *          7. Enable the clock using the SDIO_ClockCmd() function.
  59:App/STM32F4-Discovery/Libraries/STM32F4xx_StdPeriph_Driver/src/stm32f4xx_sdio.c ****   *
  60:App/STM32F4-Discovery/Libraries/STM32F4xx_StdPeriph_Driver/src/stm32f4xx_sdio.c ****   *          8. Enable the NVIC and the corresponding interrupt using the function 
  61:App/STM32F4-Discovery/Libraries/STM32F4xx_StdPeriph_Driver/src/stm32f4xx_sdio.c ****   *             SDIO_ITConfig() if you need to use interrupt mode. 
  62:App/STM32F4-Discovery/Libraries/STM32F4xx_StdPeriph_Driver/src/stm32f4xx_sdio.c ****   *
  63:App/STM32F4-Discovery/Libraries/STM32F4xx_StdPeriph_Driver/src/stm32f4xx_sdio.c ****   *          9. When using the DMA mode 
  64:App/STM32F4-Discovery/Libraries/STM32F4xx_StdPeriph_Driver/src/stm32f4xx_sdio.c ****   *                   - Configure the DMA using DMA_Init() function
  65:App/STM32F4-Discovery/Libraries/STM32F4xx_StdPeriph_Driver/src/stm32f4xx_sdio.c ****   *                   - Active the needed channel Request using SDIO_DMACmd() function
  66:App/STM32F4-Discovery/Libraries/STM32F4xx_StdPeriph_Driver/src/stm32f4xx_sdio.c ****   *
  67:App/STM32F4-Discovery/Libraries/STM32F4xx_StdPeriph_Driver/src/stm32f4xx_sdio.c ****   *          10. Enable the DMA using the DMA_Cmd() function, when using DMA mode. 
  68:App/STM32F4-Discovery/Libraries/STM32F4xx_StdPeriph_Driver/src/stm32f4xx_sdio.c ****   *
  69:App/STM32F4-Discovery/Libraries/STM32F4xx_StdPeriph_Driver/src/stm32f4xx_sdio.c ****   *          11. To control the CPSM (Command Path State Machine) and send 
  70:App/STM32F4-Discovery/Libraries/STM32F4xx_StdPeriph_Driver/src/stm32f4xx_sdio.c ****   *              commands to the card use the SDIO_SendCommand(), 
  71:App/STM32F4-Discovery/Libraries/STM32F4xx_StdPeriph_Driver/src/stm32f4xx_sdio.c ****   *              SDIO_GetCommandResponse() and SDIO_GetResponse() functions.     
  72:App/STM32F4-Discovery/Libraries/STM32F4xx_StdPeriph_Driver/src/stm32f4xx_sdio.c ****   *              First, user has to fill the command structure (pointer to
  73:App/STM32F4-Discovery/Libraries/STM32F4xx_StdPeriph_Driver/src/stm32f4xx_sdio.c ****   *              SDIO_CmdInitTypeDef) according to the selected command to be sent.
  74:App/STM32F4-Discovery/Libraries/STM32F4xx_StdPeriph_Driver/src/stm32f4xx_sdio.c ****   *                 The parameters that should be filled are:
  75:App/STM32F4-Discovery/Libraries/STM32F4xx_StdPeriph_Driver/src/stm32f4xx_sdio.c ****   *                   - Command Argument
  76:App/STM32F4-Discovery/Libraries/STM32F4xx_StdPeriph_Driver/src/stm32f4xx_sdio.c ****   *                   - Command Index
  77:App/STM32F4-Discovery/Libraries/STM32F4xx_StdPeriph_Driver/src/stm32f4xx_sdio.c ****   *                   - Command Response type
  78:App/STM32F4-Discovery/Libraries/STM32F4xx_StdPeriph_Driver/src/stm32f4xx_sdio.c ****   *                   - Command Wait
  79:App/STM32F4-Discovery/Libraries/STM32F4xx_StdPeriph_Driver/src/stm32f4xx_sdio.c ****   *                   - CPSM Status (Enable or Disable)
  80:App/STM32F4-Discovery/Libraries/STM32F4xx_StdPeriph_Driver/src/stm32f4xx_sdio.c ****   *
  81:App/STM32F4-Discovery/Libraries/STM32F4xx_StdPeriph_Driver/src/stm32f4xx_sdio.c ****   *              To check if the command is well received, read the SDIO_CMDRESP
  82:App/STM32F4-Discovery/Libraries/STM32F4xx_StdPeriph_Driver/src/stm32f4xx_sdio.c ****   *              register using the SDIO_GetCommandResponse().
  83:App/STM32F4-Discovery/Libraries/STM32F4xx_StdPeriph_Driver/src/stm32f4xx_sdio.c ****   *              The SDIO responses registers (SDIO_RESP1 to SDIO_RESP2), use the
  84:App/STM32F4-Discovery/Libraries/STM32F4xx_StdPeriph_Driver/src/stm32f4xx_sdio.c ****   *              SDIO_GetResponse() function.
  85:App/STM32F4-Discovery/Libraries/STM32F4xx_StdPeriph_Driver/src/stm32f4xx_sdio.c ****   *
  86:App/STM32F4-Discovery/Libraries/STM32F4xx_StdPeriph_Driver/src/stm32f4xx_sdio.c ****   *          12. To control the DPSM (Data Path State Machine) and send/receive 
  87:App/STM32F4-Discovery/Libraries/STM32F4xx_StdPeriph_Driver/src/stm32f4xx_sdio.c ****   *              data to/from the card use the SDIO_DataConfig(), SDIO_GetDataCounter(), 
  88:App/STM32F4-Discovery/Libraries/STM32F4xx_StdPeriph_Driver/src/stm32f4xx_sdio.c ****   *              SDIO_ReadData(), SDIO_WriteData() and SDIO_GetFIFOCount() functions.
  89:App/STM32F4-Discovery/Libraries/STM32F4xx_StdPeriph_Driver/src/stm32f4xx_sdio.c ****   *
  90:App/STM32F4-Discovery/Libraries/STM32F4xx_StdPeriph_Driver/src/stm32f4xx_sdio.c ****   *              Read Operations
  91:App/STM32F4-Discovery/Libraries/STM32F4xx_StdPeriph_Driver/src/stm32f4xx_sdio.c ****   *              ---------------
  92:App/STM32F4-Discovery/Libraries/STM32F4xx_StdPeriph_Driver/src/stm32f4xx_sdio.c ****   *              a) First, user has to fill the data structure (pointer to
  93:App/STM32F4-Discovery/Libraries/STM32F4xx_StdPeriph_Driver/src/stm32f4xx_sdio.c ****   *                 SDIO_DataInitTypeDef) according to the selected data type to
  94:App/STM32F4-Discovery/Libraries/STM32F4xx_StdPeriph_Driver/src/stm32f4xx_sdio.c ****   *                 be received.
  95:App/STM32F4-Discovery/Libraries/STM32F4xx_StdPeriph_Driver/src/stm32f4xx_sdio.c ****   *                 The parameters that should be filled are:
  96:App/STM32F4-Discovery/Libraries/STM32F4xx_StdPeriph_Driver/src/stm32f4xx_sdio.c ****   *                   - Data TimeOut
  97:App/STM32F4-Discovery/Libraries/STM32F4xx_StdPeriph_Driver/src/stm32f4xx_sdio.c ****   *                   - Data Length
  98:App/STM32F4-Discovery/Libraries/STM32F4xx_StdPeriph_Driver/src/stm32f4xx_sdio.c ****   *                   - Data Block size
  99:App/STM32F4-Discovery/Libraries/STM32F4xx_StdPeriph_Driver/src/stm32f4xx_sdio.c ****   *                   - Data Transfer direction: should be from card (To SDIO)
 100:App/STM32F4-Discovery/Libraries/STM32F4xx_StdPeriph_Driver/src/stm32f4xx_sdio.c ****   *                   - Data Transfer mode
 101:App/STM32F4-Discovery/Libraries/STM32F4xx_StdPeriph_Driver/src/stm32f4xx_sdio.c ****   *                   - DPSM Status (Enable or Disable)
 102:App/STM32F4-Discovery/Libraries/STM32F4xx_StdPeriph_Driver/src/stm32f4xx_sdio.c ****   *                                   
 103:App/STM32F4-Discovery/Libraries/STM32F4xx_StdPeriph_Driver/src/stm32f4xx_sdio.c ****   *              b) Configure the SDIO resources to receive the data from the card
 104:App/STM32F4-Discovery/Libraries/STM32F4xx_StdPeriph_Driver/src/stm32f4xx_sdio.c ****   *                 according to selected transfer mode (Refer to Step 8, 9 and 10).
 105:App/STM32F4-Discovery/Libraries/STM32F4xx_StdPeriph_Driver/src/stm32f4xx_sdio.c ****   *
 106:App/STM32F4-Discovery/Libraries/STM32F4xx_StdPeriph_Driver/src/stm32f4xx_sdio.c ****   *              c) Send the selected Read command (refer to step 11).
 107:App/STM32F4-Discovery/Libraries/STM32F4xx_StdPeriph_Driver/src/stm32f4xx_sdio.c ****   *                  
 108:App/STM32F4-Discovery/Libraries/STM32F4xx_StdPeriph_Driver/src/stm32f4xx_sdio.c ****   *              d) Use the SDIO flags/interrupts to check the transfer status.
 109:App/STM32F4-Discovery/Libraries/STM32F4xx_StdPeriph_Driver/src/stm32f4xx_sdio.c ****   *
 110:App/STM32F4-Discovery/Libraries/STM32F4xx_StdPeriph_Driver/src/stm32f4xx_sdio.c ****   *              Write Operations
 111:App/STM32F4-Discovery/Libraries/STM32F4xx_StdPeriph_Driver/src/stm32f4xx_sdio.c ****   *              ---------------
 112:App/STM32F4-Discovery/Libraries/STM32F4xx_StdPeriph_Driver/src/stm32f4xx_sdio.c ****   *              a) First, user has to fill the data structure (pointer to
 113:App/STM32F4-Discovery/Libraries/STM32F4xx_StdPeriph_Driver/src/stm32f4xx_sdio.c ****   *                 SDIO_DataInitTypeDef) according to the selected data type to
 114:App/STM32F4-Discovery/Libraries/STM32F4xx_StdPeriph_Driver/src/stm32f4xx_sdio.c ****   *                 be received.
 115:App/STM32F4-Discovery/Libraries/STM32F4xx_StdPeriph_Driver/src/stm32f4xx_sdio.c ****   *                 The parameters that should be filled are:
 116:App/STM32F4-Discovery/Libraries/STM32F4xx_StdPeriph_Driver/src/stm32f4xx_sdio.c ****   *                   - Data TimeOut
 117:App/STM32F4-Discovery/Libraries/STM32F4xx_StdPeriph_Driver/src/stm32f4xx_sdio.c ****   *                   - Data Length
 118:App/STM32F4-Discovery/Libraries/STM32F4xx_StdPeriph_Driver/src/stm32f4xx_sdio.c ****   *                   - Data Block size
 119:App/STM32F4-Discovery/Libraries/STM32F4xx_StdPeriph_Driver/src/stm32f4xx_sdio.c ****   *                   - Data Transfer direction:  should be to card (To CARD)
 120:App/STM32F4-Discovery/Libraries/STM32F4xx_StdPeriph_Driver/src/stm32f4xx_sdio.c ****   *                   - Data Transfer mode
 121:App/STM32F4-Discovery/Libraries/STM32F4xx_StdPeriph_Driver/src/stm32f4xx_sdio.c ****   *                   - DPSM Status (Enable or Disable)
 122:App/STM32F4-Discovery/Libraries/STM32F4xx_StdPeriph_Driver/src/stm32f4xx_sdio.c ****   *
 123:App/STM32F4-Discovery/Libraries/STM32F4xx_StdPeriph_Driver/src/stm32f4xx_sdio.c ****   *              b) Configure the SDIO resources to send the data to the card
 124:App/STM32F4-Discovery/Libraries/STM32F4xx_StdPeriph_Driver/src/stm32f4xx_sdio.c ****   *                 according to selected transfer mode (Refer to Step 8, 9 and 10).
 125:App/STM32F4-Discovery/Libraries/STM32F4xx_StdPeriph_Driver/src/stm32f4xx_sdio.c ****   *                   
 126:App/STM32F4-Discovery/Libraries/STM32F4xx_StdPeriph_Driver/src/stm32f4xx_sdio.c ****   *              c) Send the selected Write command (refer to step 11).
 127:App/STM32F4-Discovery/Libraries/STM32F4xx_StdPeriph_Driver/src/stm32f4xx_sdio.c ****   *                  
 128:App/STM32F4-Discovery/Libraries/STM32F4xx_StdPeriph_Driver/src/stm32f4xx_sdio.c ****   *              d) Use the SDIO flags/interrupts to check the transfer status.
 129:App/STM32F4-Discovery/Libraries/STM32F4xx_StdPeriph_Driver/src/stm32f4xx_sdio.c ****   *
 130:App/STM32F4-Discovery/Libraries/STM32F4xx_StdPeriph_Driver/src/stm32f4xx_sdio.c ****   *
 131:App/STM32F4-Discovery/Libraries/STM32F4xx_StdPeriph_Driver/src/stm32f4xx_sdio.c ****   *  @endverbatim
 132:App/STM32F4-Discovery/Libraries/STM32F4xx_StdPeriph_Driver/src/stm32f4xx_sdio.c ****   *
 133:App/STM32F4-Discovery/Libraries/STM32F4xx_StdPeriph_Driver/src/stm32f4xx_sdio.c ****   *
 134:App/STM32F4-Discovery/Libraries/STM32F4xx_StdPeriph_Driver/src/stm32f4xx_sdio.c ****   ******************************************************************************
 135:App/STM32F4-Discovery/Libraries/STM32F4xx_StdPeriph_Driver/src/stm32f4xx_sdio.c ****   * @attention
 136:App/STM32F4-Discovery/Libraries/STM32F4xx_StdPeriph_Driver/src/stm32f4xx_sdio.c ****   *
 137:App/STM32F4-Discovery/Libraries/STM32F4xx_StdPeriph_Driver/src/stm32f4xx_sdio.c ****   * THE PRESENT FIRMWARE WHICH IS FOR GUIDANCE ONLY AIMS AT PROVIDING CUSTOMERS
 138:App/STM32F4-Discovery/Libraries/STM32F4xx_StdPeriph_Driver/src/stm32f4xx_sdio.c ****   * WITH CODING INFORMATION REGARDING THEIR PRODUCTS IN ORDER FOR THEM TO SAVE
 139:App/STM32F4-Discovery/Libraries/STM32F4xx_StdPeriph_Driver/src/stm32f4xx_sdio.c ****   * TIME. AS A RESULT, STMICROELECTRONICS SHALL NOT BE HELD LIABLE FOR ANY
 140:App/STM32F4-Discovery/Libraries/STM32F4xx_StdPeriph_Driver/src/stm32f4xx_sdio.c ****   * DIRECT, INDIRECT OR CONSEQUENTIAL DAMAGES WITH RESPECT TO ANY CLAIMS ARISING
 141:App/STM32F4-Discovery/Libraries/STM32F4xx_StdPeriph_Driver/src/stm32f4xx_sdio.c ****   * FROM THE CONTENT OF SUCH FIRMWARE AND/OR THE USE MADE BY CUSTOMERS OF THE
 142:App/STM32F4-Discovery/Libraries/STM32F4xx_StdPeriph_Driver/src/stm32f4xx_sdio.c ****   * CODING INFORMATION CONTAINED HEREIN IN CONNECTION WITH THEIR PRODUCTS.
 143:App/STM32F4-Discovery/Libraries/STM32F4xx_StdPeriph_Driver/src/stm32f4xx_sdio.c ****   *
 144:App/STM32F4-Discovery/Libraries/STM32F4xx_StdPeriph_Driver/src/stm32f4xx_sdio.c ****   * <h2><center>&copy; COPYRIGHT 2011 STMicroelectronics</center></h2>
 145:App/STM32F4-Discovery/Libraries/STM32F4xx_StdPeriph_Driver/src/stm32f4xx_sdio.c ****   ******************************************************************************
 146:App/STM32F4-Discovery/Libraries/STM32F4xx_StdPeriph_Driver/src/stm32f4xx_sdio.c ****   */
 147:App/STM32F4-Discovery/Libraries/STM32F4xx_StdPeriph_Driver/src/stm32f4xx_sdio.c **** 
 148:App/STM32F4-Discovery/Libraries/STM32F4xx_StdPeriph_Driver/src/stm32f4xx_sdio.c **** /* Includes ------------------------------------------------------------------*/
 149:App/STM32F4-Discovery/Libraries/STM32F4xx_StdPeriph_Driver/src/stm32f4xx_sdio.c **** #include "stm32f4xx_sdio.h"
 150:App/STM32F4-Discovery/Libraries/STM32F4xx_StdPeriph_Driver/src/stm32f4xx_sdio.c **** #include "stm32f4xx_rcc.h"
 151:App/STM32F4-Discovery/Libraries/STM32F4xx_StdPeriph_Driver/src/stm32f4xx_sdio.c **** 
 152:App/STM32F4-Discovery/Libraries/STM32F4xx_StdPeriph_Driver/src/stm32f4xx_sdio.c **** /** @addtogroup STM32F4xx_StdPeriph_Driver
 153:App/STM32F4-Discovery/Libraries/STM32F4xx_StdPeriph_Driver/src/stm32f4xx_sdio.c ****   * @{
 154:App/STM32F4-Discovery/Libraries/STM32F4xx_StdPeriph_Driver/src/stm32f4xx_sdio.c ****   */
 155:App/STM32F4-Discovery/Libraries/STM32F4xx_StdPeriph_Driver/src/stm32f4xx_sdio.c **** 
 156:App/STM32F4-Discovery/Libraries/STM32F4xx_StdPeriph_Driver/src/stm32f4xx_sdio.c **** /** @defgroup SDIO 
 157:App/STM32F4-Discovery/Libraries/STM32F4xx_StdPeriph_Driver/src/stm32f4xx_sdio.c ****   * @brief SDIO driver modules
 158:App/STM32F4-Discovery/Libraries/STM32F4xx_StdPeriph_Driver/src/stm32f4xx_sdio.c ****   * @{
 159:App/STM32F4-Discovery/Libraries/STM32F4xx_StdPeriph_Driver/src/stm32f4xx_sdio.c ****   */ 
 160:App/STM32F4-Discovery/Libraries/STM32F4xx_StdPeriph_Driver/src/stm32f4xx_sdio.c **** 
 161:App/STM32F4-Discovery/Libraries/STM32F4xx_StdPeriph_Driver/src/stm32f4xx_sdio.c **** /* Private typedef -----------------------------------------------------------*/
 162:App/STM32F4-Discovery/Libraries/STM32F4xx_StdPeriph_Driver/src/stm32f4xx_sdio.c **** /* Private define ------------------------------------------------------------*/
 163:App/STM32F4-Discovery/Libraries/STM32F4xx_StdPeriph_Driver/src/stm32f4xx_sdio.c **** 
 164:App/STM32F4-Discovery/Libraries/STM32F4xx_StdPeriph_Driver/src/stm32f4xx_sdio.c **** /* ------------ SDIO registers bit address in the alias region ----------- */
 165:App/STM32F4-Discovery/Libraries/STM32F4xx_StdPeriph_Driver/src/stm32f4xx_sdio.c **** #define SDIO_OFFSET                (SDIO_BASE - PERIPH_BASE)
 166:App/STM32F4-Discovery/Libraries/STM32F4xx_StdPeriph_Driver/src/stm32f4xx_sdio.c **** 
 167:App/STM32F4-Discovery/Libraries/STM32F4xx_StdPeriph_Driver/src/stm32f4xx_sdio.c **** /* --- CLKCR Register ---*/
 168:App/STM32F4-Discovery/Libraries/STM32F4xx_StdPeriph_Driver/src/stm32f4xx_sdio.c **** /* Alias word address of CLKEN bit */
 169:App/STM32F4-Discovery/Libraries/STM32F4xx_StdPeriph_Driver/src/stm32f4xx_sdio.c **** #define CLKCR_OFFSET              (SDIO_OFFSET + 0x04)
 170:App/STM32F4-Discovery/Libraries/STM32F4xx_StdPeriph_Driver/src/stm32f4xx_sdio.c **** #define CLKEN_BitNumber           0x08
 171:App/STM32F4-Discovery/Libraries/STM32F4xx_StdPeriph_Driver/src/stm32f4xx_sdio.c **** #define CLKCR_CLKEN_BB            (PERIPH_BB_BASE + (CLKCR_OFFSET * 32) + (CLKEN_BitNumber * 4))
 172:App/STM32F4-Discovery/Libraries/STM32F4xx_StdPeriph_Driver/src/stm32f4xx_sdio.c **** 
 173:App/STM32F4-Discovery/Libraries/STM32F4xx_StdPeriph_Driver/src/stm32f4xx_sdio.c **** /* --- CMD Register ---*/
 174:App/STM32F4-Discovery/Libraries/STM32F4xx_StdPeriph_Driver/src/stm32f4xx_sdio.c **** /* Alias word address of SDIOSUSPEND bit */
 175:App/STM32F4-Discovery/Libraries/STM32F4xx_StdPeriph_Driver/src/stm32f4xx_sdio.c **** #define CMD_OFFSET                (SDIO_OFFSET + 0x0C)
 176:App/STM32F4-Discovery/Libraries/STM32F4xx_StdPeriph_Driver/src/stm32f4xx_sdio.c **** #define SDIOSUSPEND_BitNumber     0x0B
 177:App/STM32F4-Discovery/Libraries/STM32F4xx_StdPeriph_Driver/src/stm32f4xx_sdio.c **** #define CMD_SDIOSUSPEND_BB        (PERIPH_BB_BASE + (CMD_OFFSET * 32) + (SDIOSUSPEND_BitNumber * 4)
 178:App/STM32F4-Discovery/Libraries/STM32F4xx_StdPeriph_Driver/src/stm32f4xx_sdio.c **** 
 179:App/STM32F4-Discovery/Libraries/STM32F4xx_StdPeriph_Driver/src/stm32f4xx_sdio.c **** /* Alias word address of ENCMDCOMPL bit */
 180:App/STM32F4-Discovery/Libraries/STM32F4xx_StdPeriph_Driver/src/stm32f4xx_sdio.c **** #define ENCMDCOMPL_BitNumber      0x0C
 181:App/STM32F4-Discovery/Libraries/STM32F4xx_StdPeriph_Driver/src/stm32f4xx_sdio.c **** #define CMD_ENCMDCOMPL_BB         (PERIPH_BB_BASE + (CMD_OFFSET * 32) + (ENCMDCOMPL_BitNumber * 4))
 182:App/STM32F4-Discovery/Libraries/STM32F4xx_StdPeriph_Driver/src/stm32f4xx_sdio.c **** 
 183:App/STM32F4-Discovery/Libraries/STM32F4xx_StdPeriph_Driver/src/stm32f4xx_sdio.c **** /* Alias word address of NIEN bit */
 184:App/STM32F4-Discovery/Libraries/STM32F4xx_StdPeriph_Driver/src/stm32f4xx_sdio.c **** #define NIEN_BitNumber            0x0D
 185:App/STM32F4-Discovery/Libraries/STM32F4xx_StdPeriph_Driver/src/stm32f4xx_sdio.c **** #define CMD_NIEN_BB               (PERIPH_BB_BASE + (CMD_OFFSET * 32) + (NIEN_BitNumber * 4))
 186:App/STM32F4-Discovery/Libraries/STM32F4xx_StdPeriph_Driver/src/stm32f4xx_sdio.c **** 
 187:App/STM32F4-Discovery/Libraries/STM32F4xx_StdPeriph_Driver/src/stm32f4xx_sdio.c **** /* Alias word address of ATACMD bit */
 188:App/STM32F4-Discovery/Libraries/STM32F4xx_StdPeriph_Driver/src/stm32f4xx_sdio.c **** #define ATACMD_BitNumber          0x0E
 189:App/STM32F4-Discovery/Libraries/STM32F4xx_StdPeriph_Driver/src/stm32f4xx_sdio.c **** #define CMD_ATACMD_BB             (PERIPH_BB_BASE + (CMD_OFFSET * 32) + (ATACMD_BitNumber * 4))
 190:App/STM32F4-Discovery/Libraries/STM32F4xx_StdPeriph_Driver/src/stm32f4xx_sdio.c **** 
 191:App/STM32F4-Discovery/Libraries/STM32F4xx_StdPeriph_Driver/src/stm32f4xx_sdio.c **** /* --- DCTRL Register ---*/
 192:App/STM32F4-Discovery/Libraries/STM32F4xx_StdPeriph_Driver/src/stm32f4xx_sdio.c **** /* Alias word address of DMAEN bit */
 193:App/STM32F4-Discovery/Libraries/STM32F4xx_StdPeriph_Driver/src/stm32f4xx_sdio.c **** #define DCTRL_OFFSET              (SDIO_OFFSET + 0x2C)
 194:App/STM32F4-Discovery/Libraries/STM32F4xx_StdPeriph_Driver/src/stm32f4xx_sdio.c **** #define DMAEN_BitNumber           0x03
 195:App/STM32F4-Discovery/Libraries/STM32F4xx_StdPeriph_Driver/src/stm32f4xx_sdio.c **** #define DCTRL_DMAEN_BB            (PERIPH_BB_BASE + (DCTRL_OFFSET * 32) + (DMAEN_BitNumber * 4))
 196:App/STM32F4-Discovery/Libraries/STM32F4xx_StdPeriph_Driver/src/stm32f4xx_sdio.c **** 
 197:App/STM32F4-Discovery/Libraries/STM32F4xx_StdPeriph_Driver/src/stm32f4xx_sdio.c **** /* Alias word address of RWSTART bit */
 198:App/STM32F4-Discovery/Libraries/STM32F4xx_StdPeriph_Driver/src/stm32f4xx_sdio.c **** #define RWSTART_BitNumber         0x08
 199:App/STM32F4-Discovery/Libraries/STM32F4xx_StdPeriph_Driver/src/stm32f4xx_sdio.c **** #define DCTRL_RWSTART_BB          (PERIPH_BB_BASE + (DCTRL_OFFSET * 32) + (RWSTART_BitNumber * 4))
 200:App/STM32F4-Discovery/Libraries/STM32F4xx_StdPeriph_Driver/src/stm32f4xx_sdio.c **** 
 201:App/STM32F4-Discovery/Libraries/STM32F4xx_StdPeriph_Driver/src/stm32f4xx_sdio.c **** /* Alias word address of RWSTOP bit */
 202:App/STM32F4-Discovery/Libraries/STM32F4xx_StdPeriph_Driver/src/stm32f4xx_sdio.c **** #define RWSTOP_BitNumber          0x09
 203:App/STM32F4-Discovery/Libraries/STM32F4xx_StdPeriph_Driver/src/stm32f4xx_sdio.c **** #define DCTRL_RWSTOP_BB           (PERIPH_BB_BASE + (DCTRL_OFFSET * 32) + (RWSTOP_BitNumber * 4))
 204:App/STM32F4-Discovery/Libraries/STM32F4xx_StdPeriph_Driver/src/stm32f4xx_sdio.c **** 
 205:App/STM32F4-Discovery/Libraries/STM32F4xx_StdPeriph_Driver/src/stm32f4xx_sdio.c **** /* Alias word address of RWMOD bit */
 206:App/STM32F4-Discovery/Libraries/STM32F4xx_StdPeriph_Driver/src/stm32f4xx_sdio.c **** #define RWMOD_BitNumber           0x0A
 207:App/STM32F4-Discovery/Libraries/STM32F4xx_StdPeriph_Driver/src/stm32f4xx_sdio.c **** #define DCTRL_RWMOD_BB            (PERIPH_BB_BASE + (DCTRL_OFFSET * 32) + (RWMOD_BitNumber * 4))
 208:App/STM32F4-Discovery/Libraries/STM32F4xx_StdPeriph_Driver/src/stm32f4xx_sdio.c **** 
 209:App/STM32F4-Discovery/Libraries/STM32F4xx_StdPeriph_Driver/src/stm32f4xx_sdio.c **** /* Alias word address of SDIOEN bit */
 210:App/STM32F4-Discovery/Libraries/STM32F4xx_StdPeriph_Driver/src/stm32f4xx_sdio.c **** #define SDIOEN_BitNumber          0x0B
 211:App/STM32F4-Discovery/Libraries/STM32F4xx_StdPeriph_Driver/src/stm32f4xx_sdio.c **** #define DCTRL_SDIOEN_BB           (PERIPH_BB_BASE + (DCTRL_OFFSET * 32) + (SDIOEN_BitNumber * 4))
 212:App/STM32F4-Discovery/Libraries/STM32F4xx_StdPeriph_Driver/src/stm32f4xx_sdio.c **** 
 213:App/STM32F4-Discovery/Libraries/STM32F4xx_StdPeriph_Driver/src/stm32f4xx_sdio.c **** /* ---------------------- SDIO registers bit mask ------------------------ */
 214:App/STM32F4-Discovery/Libraries/STM32F4xx_StdPeriph_Driver/src/stm32f4xx_sdio.c **** /* --- CLKCR Register ---*/
 215:App/STM32F4-Discovery/Libraries/STM32F4xx_StdPeriph_Driver/src/stm32f4xx_sdio.c **** /* CLKCR register clear mask */
 216:App/STM32F4-Discovery/Libraries/STM32F4xx_StdPeriph_Driver/src/stm32f4xx_sdio.c **** #define CLKCR_CLEAR_MASK         ((uint32_t)0xFFFF8100) 
 217:App/STM32F4-Discovery/Libraries/STM32F4xx_StdPeriph_Driver/src/stm32f4xx_sdio.c **** 
 218:App/STM32F4-Discovery/Libraries/STM32F4xx_StdPeriph_Driver/src/stm32f4xx_sdio.c **** /* --- PWRCTRL Register ---*/
 219:App/STM32F4-Discovery/Libraries/STM32F4xx_StdPeriph_Driver/src/stm32f4xx_sdio.c **** /* SDIO PWRCTRL Mask */
 220:App/STM32F4-Discovery/Libraries/STM32F4xx_StdPeriph_Driver/src/stm32f4xx_sdio.c **** #define PWR_PWRCTRL_MASK         ((uint32_t)0xFFFFFFFC)
 221:App/STM32F4-Discovery/Libraries/STM32F4xx_StdPeriph_Driver/src/stm32f4xx_sdio.c **** 
 222:App/STM32F4-Discovery/Libraries/STM32F4xx_StdPeriph_Driver/src/stm32f4xx_sdio.c **** /* --- DCTRL Register ---*/
 223:App/STM32F4-Discovery/Libraries/STM32F4xx_StdPeriph_Driver/src/stm32f4xx_sdio.c **** /* SDIO DCTRL Clear Mask */
 224:App/STM32F4-Discovery/Libraries/STM32F4xx_StdPeriph_Driver/src/stm32f4xx_sdio.c **** #define DCTRL_CLEAR_MASK         ((uint32_t)0xFFFFFF08)
 225:App/STM32F4-Discovery/Libraries/STM32F4xx_StdPeriph_Driver/src/stm32f4xx_sdio.c **** 
 226:App/STM32F4-Discovery/Libraries/STM32F4xx_StdPeriph_Driver/src/stm32f4xx_sdio.c **** /* --- CMD Register ---*/
 227:App/STM32F4-Discovery/Libraries/STM32F4xx_StdPeriph_Driver/src/stm32f4xx_sdio.c **** /* CMD Register clear mask */
 228:App/STM32F4-Discovery/Libraries/STM32F4xx_StdPeriph_Driver/src/stm32f4xx_sdio.c **** #define CMD_CLEAR_MASK           ((uint32_t)0xFFFFF800)
 229:App/STM32F4-Discovery/Libraries/STM32F4xx_StdPeriph_Driver/src/stm32f4xx_sdio.c **** 
 230:App/STM32F4-Discovery/Libraries/STM32F4xx_StdPeriph_Driver/src/stm32f4xx_sdio.c **** /* SDIO RESP Registers Address */
 231:App/STM32F4-Discovery/Libraries/STM32F4xx_StdPeriph_Driver/src/stm32f4xx_sdio.c **** #define SDIO_RESP_ADDR           ((uint32_t)(SDIO_BASE + 0x14))
 232:App/STM32F4-Discovery/Libraries/STM32F4xx_StdPeriph_Driver/src/stm32f4xx_sdio.c **** 
 233:App/STM32F4-Discovery/Libraries/STM32F4xx_StdPeriph_Driver/src/stm32f4xx_sdio.c **** /* Private macro -------------------------------------------------------------*/
 234:App/STM32F4-Discovery/Libraries/STM32F4xx_StdPeriph_Driver/src/stm32f4xx_sdio.c **** /* Private variables ---------------------------------------------------------*/
 235:App/STM32F4-Discovery/Libraries/STM32F4xx_StdPeriph_Driver/src/stm32f4xx_sdio.c **** /* Private function prototypes -----------------------------------------------*/
 236:App/STM32F4-Discovery/Libraries/STM32F4xx_StdPeriph_Driver/src/stm32f4xx_sdio.c **** /* Private functions ---------------------------------------------------------*/
 237:App/STM32F4-Discovery/Libraries/STM32F4xx_StdPeriph_Driver/src/stm32f4xx_sdio.c **** 
 238:App/STM32F4-Discovery/Libraries/STM32F4xx_StdPeriph_Driver/src/stm32f4xx_sdio.c **** /** @defgroup SDIO_Private_Functions
 239:App/STM32F4-Discovery/Libraries/STM32F4xx_StdPeriph_Driver/src/stm32f4xx_sdio.c ****   * @{
 240:App/STM32F4-Discovery/Libraries/STM32F4xx_StdPeriph_Driver/src/stm32f4xx_sdio.c ****   */
 241:App/STM32F4-Discovery/Libraries/STM32F4xx_StdPeriph_Driver/src/stm32f4xx_sdio.c **** 
 242:App/STM32F4-Discovery/Libraries/STM32F4xx_StdPeriph_Driver/src/stm32f4xx_sdio.c **** /** @defgroup SDIO_Group1 Initialization and Configuration functions
 243:App/STM32F4-Discovery/Libraries/STM32F4xx_StdPeriph_Driver/src/stm32f4xx_sdio.c ****  *  @brief   Initialization and Configuration functions 
 244:App/STM32F4-Discovery/Libraries/STM32F4xx_StdPeriph_Driver/src/stm32f4xx_sdio.c ****  *
 245:App/STM32F4-Discovery/Libraries/STM32F4xx_StdPeriph_Driver/src/stm32f4xx_sdio.c **** @verbatim   
 246:App/STM32F4-Discovery/Libraries/STM32F4xx_StdPeriph_Driver/src/stm32f4xx_sdio.c ****  ===============================================================================
 247:App/STM32F4-Discovery/Libraries/STM32F4xx_StdPeriph_Driver/src/stm32f4xx_sdio.c ****                  Initialization and Configuration functions
 248:App/STM32F4-Discovery/Libraries/STM32F4xx_StdPeriph_Driver/src/stm32f4xx_sdio.c ****  ===============================================================================
 249:App/STM32F4-Discovery/Libraries/STM32F4xx_StdPeriph_Driver/src/stm32f4xx_sdio.c **** 
 250:App/STM32F4-Discovery/Libraries/STM32F4xx_StdPeriph_Driver/src/stm32f4xx_sdio.c **** @endverbatim
 251:App/STM32F4-Discovery/Libraries/STM32F4xx_StdPeriph_Driver/src/stm32f4xx_sdio.c ****   * @{
 252:App/STM32F4-Discovery/Libraries/STM32F4xx_StdPeriph_Driver/src/stm32f4xx_sdio.c ****   */
 253:App/STM32F4-Discovery/Libraries/STM32F4xx_StdPeriph_Driver/src/stm32f4xx_sdio.c **** 
 254:App/STM32F4-Discovery/Libraries/STM32F4xx_StdPeriph_Driver/src/stm32f4xx_sdio.c **** /**
 255:App/STM32F4-Discovery/Libraries/STM32F4xx_StdPeriph_Driver/src/stm32f4xx_sdio.c ****   * @brief  Deinitializes the SDIO peripheral registers to their default reset values.
 256:App/STM32F4-Discovery/Libraries/STM32F4xx_StdPeriph_Driver/src/stm32f4xx_sdio.c ****   * @param  None
 257:App/STM32F4-Discovery/Libraries/STM32F4xx_StdPeriph_Driver/src/stm32f4xx_sdio.c ****   * @retval None
 258:App/STM32F4-Discovery/Libraries/STM32F4xx_StdPeriph_Driver/src/stm32f4xx_sdio.c ****   */
 259:App/STM32F4-Discovery/Libraries/STM32F4xx_StdPeriph_Driver/src/stm32f4xx_sdio.c **** void SDIO_DeInit(void)
 260:App/STM32F4-Discovery/Libraries/STM32F4xx_StdPeriph_Driver/src/stm32f4xx_sdio.c **** {
  28              		.loc 1 260 0
  29              		.cfi_startproc
  30              		@ args = 0, pretend = 0, frame = 0
  31              		@ frame_needed = 1, uses_anonymous_args = 0
  32 0000 80B5     		push	{r7, lr}
  33              	.LCFI0:
  34              		.cfi_def_cfa_offset 8
  35              		.cfi_offset 7, -8
  36              		.cfi_offset 14, -4
  37 0002 00AF     		add	r7, sp, #0
  38              	.LCFI1:
  39              		.cfi_def_cfa_register 7
 261:App/STM32F4-Discovery/Libraries/STM32F4xx_StdPeriph_Driver/src/stm32f4xx_sdio.c ****   RCC_APB2PeriphResetCmd(RCC_APB2Periph_SDIO, ENABLE);
  40              		.loc 1 261 0
  41 0004 4FF40060 		mov	r0, #2048
  42 0008 0121     		movs	r1, #1
  43 000a FFF7FEFF 		bl	RCC_APB2PeriphResetCmd
 262:App/STM32F4-Discovery/Libraries/STM32F4xx_StdPeriph_Driver/src/stm32f4xx_sdio.c ****   RCC_APB2PeriphResetCmd(RCC_APB2Periph_SDIO, DISABLE);
  44              		.loc 1 262 0
  45 000e 4FF40060 		mov	r0, #2048
  46 0012 0021     		movs	r1, #0
  47 0014 FFF7FEFF 		bl	RCC_APB2PeriphResetCmd
 263:App/STM32F4-Discovery/Libraries/STM32F4xx_StdPeriph_Driver/src/stm32f4xx_sdio.c **** }
  48              		.loc 1 263 0
  49 0018 80BD     		pop	{r7, pc}
  50              		.cfi_endproc
  51              	.LFE110:
  53 001a 00BF     		.section	.rodata
  54              		.align	2
  55              	.LC0:
  56 0000 4170702F 		.ascii	"App/STM32F4-Discovery/Libraries/STM32F4xx_StdPeriph"
  56      53544D33 
  56      3246342D 
  56      44697363 
  56      6F766572 
  57 0033 5F447269 		.ascii	"_Driver/src/stm32f4xx_sdio.c\000"
  57      7665722F 
  57      7372632F 
  57      73746D33 
  57      32663478 
  58              		.section	.text.SDIO_Init,"ax",%progbits
  59              		.align	2
  60              		.global	SDIO_Init
  61              		.thumb
  62              		.thumb_func
  64              	SDIO_Init:
  65              	.LFB111:
 264:App/STM32F4-Discovery/Libraries/STM32F4xx_StdPeriph_Driver/src/stm32f4xx_sdio.c **** 
 265:App/STM32F4-Discovery/Libraries/STM32F4xx_StdPeriph_Driver/src/stm32f4xx_sdio.c **** /**
 266:App/STM32F4-Discovery/Libraries/STM32F4xx_StdPeriph_Driver/src/stm32f4xx_sdio.c ****   * @brief  Initializes the SDIO peripheral according to the specified 
 267:App/STM32F4-Discovery/Libraries/STM32F4xx_StdPeriph_Driver/src/stm32f4xx_sdio.c ****   *         parameters in the SDIO_InitStruct.
 268:App/STM32F4-Discovery/Libraries/STM32F4xx_StdPeriph_Driver/src/stm32f4xx_sdio.c ****   * @param  SDIO_InitStruct : pointer to a SDIO_InitTypeDef structure 
 269:App/STM32F4-Discovery/Libraries/STM32F4xx_StdPeriph_Driver/src/stm32f4xx_sdio.c ****   *         that contains the configuration information for the SDIO peripheral.
 270:App/STM32F4-Discovery/Libraries/STM32F4xx_StdPeriph_Driver/src/stm32f4xx_sdio.c ****   * @retval None
 271:App/STM32F4-Discovery/Libraries/STM32F4xx_StdPeriph_Driver/src/stm32f4xx_sdio.c ****   */
 272:App/STM32F4-Discovery/Libraries/STM32F4xx_StdPeriph_Driver/src/stm32f4xx_sdio.c **** void SDIO_Init(SDIO_InitTypeDef* SDIO_InitStruct)
 273:App/STM32F4-Discovery/Libraries/STM32F4xx_StdPeriph_Driver/src/stm32f4xx_sdio.c **** {
  66              		.loc 1 273 0
  67              		.cfi_startproc
  68              		@ args = 0, pretend = 0, frame = 16
  69              		@ frame_needed = 1, uses_anonymous_args = 0
  70 0000 80B5     		push	{r7, lr}
  71              	.LCFI2:
  72              		.cfi_def_cfa_offset 8
  73              		.cfi_offset 7, -8
  74              		.cfi_offset 14, -4
  75 0002 84B0     		sub	sp, sp, #16
  76              	.LCFI3:
  77              		.cfi_def_cfa_offset 24
  78 0004 00AF     		add	r7, sp, #0
  79              	.LCFI4:
  80              		.cfi_def_cfa_register 7
  81 0006 7860     		str	r0, [r7, #4]
 274:App/STM32F4-Discovery/Libraries/STM32F4xx_StdPeriph_Driver/src/stm32f4xx_sdio.c ****   uint32_t tmpreg = 0;
  82              		.loc 1 274 0
  83 0008 0023     		movs	r3, #0
  84 000a FB60     		str	r3, [r7, #12]
 275:App/STM32F4-Discovery/Libraries/STM32F4xx_StdPeriph_Driver/src/stm32f4xx_sdio.c ****     
 276:App/STM32F4-Discovery/Libraries/STM32F4xx_StdPeriph_Driver/src/stm32f4xx_sdio.c ****   /* Check the parameters */
 277:App/STM32F4-Discovery/Libraries/STM32F4xx_StdPeriph_Driver/src/stm32f4xx_sdio.c ****   assert_param(IS_SDIO_CLOCK_EDGE(SDIO_InitStruct->SDIO_ClockEdge));
  85              		.loc 1 277 0
  86 000c 7B68     		ldr	r3, [r7, #4]
  87 000e 1B68     		ldr	r3, [r3]
  88 0010 002B     		cmp	r3, #0
  89 0012 09D0     		beq	.L3
  90              		.loc 1 277 0 is_stmt 0 discriminator 1
  91 0014 7B68     		ldr	r3, [r7, #4]
  92 0016 1B68     		ldr	r3, [r3]
  93 0018 B3F5005F 		cmp	r3, #8192
  94 001c 04D0     		beq	.L3
  95 001e 3348     		ldr	r0, .L8
  96 0020 40F21511 		movw	r1, #277
  97 0024 FFF7FEFF 		bl	assert_failed
  98              	.L3:
 278:App/STM32F4-Discovery/Libraries/STM32F4xx_StdPeriph_Driver/src/stm32f4xx_sdio.c ****   assert_param(IS_SDIO_CLOCK_BYPASS(SDIO_InitStruct->SDIO_ClockBypass));
  99              		.loc 1 278 0 is_stmt 1
 100 0028 7B68     		ldr	r3, [r7, #4]
 101 002a 5B68     		ldr	r3, [r3, #4]
 102 002c 002B     		cmp	r3, #0
 103 002e 09D0     		beq	.L4
 104              		.loc 1 278 0 is_stmt 0 discriminator 1
 105 0030 7B68     		ldr	r3, [r7, #4]
 106 0032 5B68     		ldr	r3, [r3, #4]
 107 0034 B3F5806F 		cmp	r3, #1024
 108 0038 04D0     		beq	.L4
 109 003a 2C48     		ldr	r0, .L8
 110 003c 4FF48B71 		mov	r1, #278
 111 0040 FFF7FEFF 		bl	assert_failed
 112              	.L4:
 279:App/STM32F4-Discovery/Libraries/STM32F4xx_StdPeriph_Driver/src/stm32f4xx_sdio.c ****   assert_param(IS_SDIO_CLOCK_POWER_SAVE(SDIO_InitStruct->SDIO_ClockPowerSave));
 113              		.loc 1 279 0 is_stmt 1
 114 0044 7B68     		ldr	r3, [r7, #4]
 115 0046 9B68     		ldr	r3, [r3, #8]
 116 0048 002B     		cmp	r3, #0
 117 004a 09D0     		beq	.L5
 118              		.loc 1 279 0 is_stmt 0 discriminator 1
 119 004c 7B68     		ldr	r3, [r7, #4]
 120 004e 9B68     		ldr	r3, [r3, #8]
 121 0050 B3F5007F 		cmp	r3, #512
 122 0054 04D0     		beq	.L5
 123 0056 2548     		ldr	r0, .L8
 124 0058 40F21711 		movw	r1, #279
 125 005c FFF7FEFF 		bl	assert_failed
 126              	.L5:
 280:App/STM32F4-Discovery/Libraries/STM32F4xx_StdPeriph_Driver/src/stm32f4xx_sdio.c ****   assert_param(IS_SDIO_BUS_WIDE(SDIO_InitStruct->SDIO_BusWide));
 127              		.loc 1 280 0 is_stmt 1
 128 0060 7B68     		ldr	r3, [r7, #4]
 129 0062 DB68     		ldr	r3, [r3, #12]
 130 0064 002B     		cmp	r3, #0
 131 0066 0ED0     		beq	.L6
 132              		.loc 1 280 0 is_stmt 0 discriminator 1
 133 0068 7B68     		ldr	r3, [r7, #4]
 134 006a DB68     		ldr	r3, [r3, #12]
 135 006c B3F5006F 		cmp	r3, #2048
 136 0070 09D0     		beq	.L6
 137 0072 7B68     		ldr	r3, [r7, #4]
 138 0074 DB68     		ldr	r3, [r3, #12]
 139 0076 B3F5805F 		cmp	r3, #4096
 140 007a 04D0     		beq	.L6
 141 007c 1B48     		ldr	r0, .L8
 142 007e 4FF48C71 		mov	r1, #280
 143 0082 FFF7FEFF 		bl	assert_failed
 144              	.L6:
 281:App/STM32F4-Discovery/Libraries/STM32F4xx_StdPeriph_Driver/src/stm32f4xx_sdio.c ****   assert_param(IS_SDIO_HARDWARE_FLOW_CONTROL(SDIO_InitStruct->SDIO_HardwareFlowControl)); 
 145              		.loc 1 281 0 is_stmt 1
 146 0086 7B68     		ldr	r3, [r7, #4]
 147 0088 1B69     		ldr	r3, [r3, #16]
 148 008a 002B     		cmp	r3, #0
 149 008c 09D0     		beq	.L7
 150              		.loc 1 281 0 is_stmt 0 discriminator 1
 151 008e 7B68     		ldr	r3, [r7, #4]
 152 0090 1B69     		ldr	r3, [r3, #16]
 153 0092 B3F5804F 		cmp	r3, #16384
 154 0096 04D0     		beq	.L7
 155 0098 1448     		ldr	r0, .L8
 156 009a 40F21911 		movw	r1, #281
 157 009e FFF7FEFF 		bl	assert_failed
 158              	.L7:
 282:App/STM32F4-Discovery/Libraries/STM32F4xx_StdPeriph_Driver/src/stm32f4xx_sdio.c ****    
 283:App/STM32F4-Discovery/Libraries/STM32F4xx_StdPeriph_Driver/src/stm32f4xx_sdio.c **** /*---------------------------- SDIO CLKCR Configuration ------------------------*/  
 284:App/STM32F4-Discovery/Libraries/STM32F4xx_StdPeriph_Driver/src/stm32f4xx_sdio.c ****   /* Get the SDIO CLKCR value */
 285:App/STM32F4-Discovery/Libraries/STM32F4xx_StdPeriph_Driver/src/stm32f4xx_sdio.c ****   tmpreg = SDIO->CLKCR;
 159              		.loc 1 285 0 is_stmt 1
 160 00a2 134B     		ldr	r3, .L8+4
 161 00a4 5B68     		ldr	r3, [r3, #4]
 162 00a6 FB60     		str	r3, [r7, #12]
 286:App/STM32F4-Discovery/Libraries/STM32F4xx_StdPeriph_Driver/src/stm32f4xx_sdio.c ****   
 287:App/STM32F4-Discovery/Libraries/STM32F4xx_StdPeriph_Driver/src/stm32f4xx_sdio.c ****   /* Clear CLKDIV, PWRSAV, BYPASS, WIDBUS, NEGEDGE, HWFC_EN bits */
 288:App/STM32F4-Discovery/Libraries/STM32F4xx_StdPeriph_Driver/src/stm32f4xx_sdio.c ****   tmpreg &= CLKCR_CLEAR_MASK;
 163              		.loc 1 288 0
 164 00a8 FB68     		ldr	r3, [r7, #12]
 165 00aa 23F4FD43 		bic	r3, r3, #32384
 166 00ae 23F07F03 		bic	r3, r3, #127
 167 00b2 FB60     		str	r3, [r7, #12]
 289:App/STM32F4-Discovery/Libraries/STM32F4xx_StdPeriph_Driver/src/stm32f4xx_sdio.c ****   
 290:App/STM32F4-Discovery/Libraries/STM32F4xx_StdPeriph_Driver/src/stm32f4xx_sdio.c ****   /* Set CLKDIV bits according to SDIO_ClockDiv value */
 291:App/STM32F4-Discovery/Libraries/STM32F4xx_StdPeriph_Driver/src/stm32f4xx_sdio.c ****   /* Set PWRSAV bit according to SDIO_ClockPowerSave value */
 292:App/STM32F4-Discovery/Libraries/STM32F4xx_StdPeriph_Driver/src/stm32f4xx_sdio.c ****   /* Set BYPASS bit according to SDIO_ClockBypass value */
 293:App/STM32F4-Discovery/Libraries/STM32F4xx_StdPeriph_Driver/src/stm32f4xx_sdio.c ****   /* Set WIDBUS bits according to SDIO_BusWide value */
 294:App/STM32F4-Discovery/Libraries/STM32F4xx_StdPeriph_Driver/src/stm32f4xx_sdio.c ****   /* Set NEGEDGE bits according to SDIO_ClockEdge value */
 295:App/STM32F4-Discovery/Libraries/STM32F4xx_StdPeriph_Driver/src/stm32f4xx_sdio.c ****   /* Set HWFC_EN bits according to SDIO_HardwareFlowControl value */
 296:App/STM32F4-Discovery/Libraries/STM32F4xx_StdPeriph_Driver/src/stm32f4xx_sdio.c ****   tmpreg |= (SDIO_InitStruct->SDIO_ClockDiv  | SDIO_InitStruct->SDIO_ClockPowerSave |
 168              		.loc 1 296 0
 169 00b4 7B68     		ldr	r3, [r7, #4]
 170 00b6 1B7D     		ldrb	r3, [r3, #20]	@ zero_extendqisi2
 171 00b8 1A46     		mov	r2, r3
 172 00ba 7B68     		ldr	r3, [r7, #4]
 173 00bc 9B68     		ldr	r3, [r3, #8]
 174 00be 1A43     		orrs	r2, r2, r3
 297:App/STM32F4-Discovery/Libraries/STM32F4xx_StdPeriph_Driver/src/stm32f4xx_sdio.c ****              SDIO_InitStruct->SDIO_ClockBypass | SDIO_InitStruct->SDIO_BusWide |
 175              		.loc 1 297 0
 176 00c0 7B68     		ldr	r3, [r7, #4]
 177 00c2 5B68     		ldr	r3, [r3, #4]
 296:App/STM32F4-Discovery/Libraries/STM32F4xx_StdPeriph_Driver/src/stm32f4xx_sdio.c ****   tmpreg |= (SDIO_InitStruct->SDIO_ClockDiv  | SDIO_InitStruct->SDIO_ClockPowerSave |
 178              		.loc 1 296 0
 179 00c4 1A43     		orrs	r2, r2, r3
 180              		.loc 1 297 0
 181 00c6 7B68     		ldr	r3, [r7, #4]
 182 00c8 DB68     		ldr	r3, [r3, #12]
 183 00ca 1A43     		orrs	r2, r2, r3
 298:App/STM32F4-Discovery/Libraries/STM32F4xx_StdPeriph_Driver/src/stm32f4xx_sdio.c ****              SDIO_InitStruct->SDIO_ClockEdge | SDIO_InitStruct->SDIO_HardwareFlowControl); 
 184              		.loc 1 298 0
 185 00cc 7B68     		ldr	r3, [r7, #4]
 186 00ce 1B68     		ldr	r3, [r3]
 297:App/STM32F4-Discovery/Libraries/STM32F4xx_StdPeriph_Driver/src/stm32f4xx_sdio.c ****              SDIO_InitStruct->SDIO_ClockBypass | SDIO_InitStruct->SDIO_BusWide |
 187              		.loc 1 297 0
 188 00d0 1A43     		orrs	r2, r2, r3
 189              		.loc 1 298 0
 190 00d2 7B68     		ldr	r3, [r7, #4]
 191 00d4 1B69     		ldr	r3, [r3, #16]
 192 00d6 1343     		orrs	r3, r3, r2
 296:App/STM32F4-Discovery/Libraries/STM32F4xx_StdPeriph_Driver/src/stm32f4xx_sdio.c ****   tmpreg |= (SDIO_InitStruct->SDIO_ClockDiv  | SDIO_InitStruct->SDIO_ClockPowerSave |
 193              		.loc 1 296 0
 194 00d8 FA68     		ldr	r2, [r7, #12]
 195 00da 1343     		orrs	r3, r3, r2
 196 00dc FB60     		str	r3, [r7, #12]
 299:App/STM32F4-Discovery/Libraries/STM32F4xx_StdPeriph_Driver/src/stm32f4xx_sdio.c ****   
 300:App/STM32F4-Discovery/Libraries/STM32F4xx_StdPeriph_Driver/src/stm32f4xx_sdio.c ****   /* Write to SDIO CLKCR */
 301:App/STM32F4-Discovery/Libraries/STM32F4xx_StdPeriph_Driver/src/stm32f4xx_sdio.c ****   SDIO->CLKCR = tmpreg;
 197              		.loc 1 301 0
 198 00de 044B     		ldr	r3, .L8+4
 199 00e0 FA68     		ldr	r2, [r7, #12]
 200 00e2 5A60     		str	r2, [r3, #4]
 302:App/STM32F4-Discovery/Libraries/STM32F4xx_StdPeriph_Driver/src/stm32f4xx_sdio.c **** }
 201              		.loc 1 302 0
 202 00e4 1037     		adds	r7, r7, #16
 203 00e6 BD46     		mov	sp, r7
 204              		@ sp needed
 205 00e8 80BD     		pop	{r7, pc}
 206              	.L9:
 207 00ea 00BF     		.align	2
 208              	.L8:
 209 00ec 00000000 		.word	.LC0
 210 00f0 002C0140 		.word	1073818624
 211              		.cfi_endproc
 212              	.LFE111:
 214              		.section	.text.SDIO_StructInit,"ax",%progbits
 215              		.align	2
 216              		.global	SDIO_StructInit
 217              		.thumb
 218              		.thumb_func
 220              	SDIO_StructInit:
 221              	.LFB112:
 303:App/STM32F4-Discovery/Libraries/STM32F4xx_StdPeriph_Driver/src/stm32f4xx_sdio.c **** 
 304:App/STM32F4-Discovery/Libraries/STM32F4xx_StdPeriph_Driver/src/stm32f4xx_sdio.c **** /**
 305:App/STM32F4-Discovery/Libraries/STM32F4xx_StdPeriph_Driver/src/stm32f4xx_sdio.c ****   * @brief  Fills each SDIO_InitStruct member with its default value.
 306:App/STM32F4-Discovery/Libraries/STM32F4xx_StdPeriph_Driver/src/stm32f4xx_sdio.c ****   * @param  SDIO_InitStruct: pointer to an SDIO_InitTypeDef structure which 
 307:App/STM32F4-Discovery/Libraries/STM32F4xx_StdPeriph_Driver/src/stm32f4xx_sdio.c ****   *         will be initialized.
 308:App/STM32F4-Discovery/Libraries/STM32F4xx_StdPeriph_Driver/src/stm32f4xx_sdio.c ****   * @retval None
 309:App/STM32F4-Discovery/Libraries/STM32F4xx_StdPeriph_Driver/src/stm32f4xx_sdio.c ****   */
 310:App/STM32F4-Discovery/Libraries/STM32F4xx_StdPeriph_Driver/src/stm32f4xx_sdio.c **** void SDIO_StructInit(SDIO_InitTypeDef* SDIO_InitStruct)
 311:App/STM32F4-Discovery/Libraries/STM32F4xx_StdPeriph_Driver/src/stm32f4xx_sdio.c **** {
 222              		.loc 1 311 0
 223              		.cfi_startproc
 224              		@ args = 0, pretend = 0, frame = 8
 225              		@ frame_needed = 1, uses_anonymous_args = 0
 226              		@ link register save eliminated.
 227 0000 80B4     		push	{r7}
 228              	.LCFI5:
 229              		.cfi_def_cfa_offset 4
 230              		.cfi_offset 7, -4
 231 0002 83B0     		sub	sp, sp, #12
 232              	.LCFI6:
 233              		.cfi_def_cfa_offset 16
 234 0004 00AF     		add	r7, sp, #0
 235              	.LCFI7:
 236              		.cfi_def_cfa_register 7
 237 0006 7860     		str	r0, [r7, #4]
 312:App/STM32F4-Discovery/Libraries/STM32F4xx_StdPeriph_Driver/src/stm32f4xx_sdio.c ****   /* SDIO_InitStruct members default value */
 313:App/STM32F4-Discovery/Libraries/STM32F4xx_StdPeriph_Driver/src/stm32f4xx_sdio.c ****   SDIO_InitStruct->SDIO_ClockDiv = 0x00;
 238              		.loc 1 313 0
 239 0008 7B68     		ldr	r3, [r7, #4]
 240 000a 0022     		movs	r2, #0
 241 000c 1A75     		strb	r2, [r3, #20]
 314:App/STM32F4-Discovery/Libraries/STM32F4xx_StdPeriph_Driver/src/stm32f4xx_sdio.c ****   SDIO_InitStruct->SDIO_ClockEdge = SDIO_ClockEdge_Rising;
 242              		.loc 1 314 0
 243 000e 7B68     		ldr	r3, [r7, #4]
 244 0010 0022     		movs	r2, #0
 245 0012 1A60     		str	r2, [r3]
 315:App/STM32F4-Discovery/Libraries/STM32F4xx_StdPeriph_Driver/src/stm32f4xx_sdio.c ****   SDIO_InitStruct->SDIO_ClockBypass = SDIO_ClockBypass_Disable;
 246              		.loc 1 315 0
 247 0014 7B68     		ldr	r3, [r7, #4]
 248 0016 0022     		movs	r2, #0
 249 0018 5A60     		str	r2, [r3, #4]
 316:App/STM32F4-Discovery/Libraries/STM32F4xx_StdPeriph_Driver/src/stm32f4xx_sdio.c ****   SDIO_InitStruct->SDIO_ClockPowerSave = SDIO_ClockPowerSave_Disable;
 250              		.loc 1 316 0
 251 001a 7B68     		ldr	r3, [r7, #4]
 252 001c 0022     		movs	r2, #0
 253 001e 9A60     		str	r2, [r3, #8]
 317:App/STM32F4-Discovery/Libraries/STM32F4xx_StdPeriph_Driver/src/stm32f4xx_sdio.c ****   SDIO_InitStruct->SDIO_BusWide = SDIO_BusWide_1b;
 254              		.loc 1 317 0
 255 0020 7B68     		ldr	r3, [r7, #4]
 256 0022 0022     		movs	r2, #0
 257 0024 DA60     		str	r2, [r3, #12]
 318:App/STM32F4-Discovery/Libraries/STM32F4xx_StdPeriph_Driver/src/stm32f4xx_sdio.c ****   SDIO_InitStruct->SDIO_HardwareFlowControl = SDIO_HardwareFlowControl_Disable;
 258              		.loc 1 318 0
 259 0026 7B68     		ldr	r3, [r7, #4]
 260 0028 0022     		movs	r2, #0
 261 002a 1A61     		str	r2, [r3, #16]
 319:App/STM32F4-Discovery/Libraries/STM32F4xx_StdPeriph_Driver/src/stm32f4xx_sdio.c **** }
 262              		.loc 1 319 0
 263 002c 0C37     		adds	r7, r7, #12
 264 002e BD46     		mov	sp, r7
 265              		@ sp needed
 266 0030 5DF8047B 		ldr	r7, [sp], #4
 267 0034 7047     		bx	lr
 268              		.cfi_endproc
 269              	.LFE112:
 271 0036 00BF     		.section	.text.SDIO_ClockCmd,"ax",%progbits
 272              		.align	2
 273              		.global	SDIO_ClockCmd
 274              		.thumb
 275              		.thumb_func
 277              	SDIO_ClockCmd:
 278              	.LFB113:
 320:App/STM32F4-Discovery/Libraries/STM32F4xx_StdPeriph_Driver/src/stm32f4xx_sdio.c **** 
 321:App/STM32F4-Discovery/Libraries/STM32F4xx_StdPeriph_Driver/src/stm32f4xx_sdio.c **** /**
 322:App/STM32F4-Discovery/Libraries/STM32F4xx_StdPeriph_Driver/src/stm32f4xx_sdio.c ****   * @brief  Enables or disables the SDIO Clock.
 323:App/STM32F4-Discovery/Libraries/STM32F4xx_StdPeriph_Driver/src/stm32f4xx_sdio.c ****   * @param  NewState: new state of the SDIO Clock. 
 324:App/STM32F4-Discovery/Libraries/STM32F4xx_StdPeriph_Driver/src/stm32f4xx_sdio.c ****   *         This parameter can be: ENABLE or DISABLE.
 325:App/STM32F4-Discovery/Libraries/STM32F4xx_StdPeriph_Driver/src/stm32f4xx_sdio.c ****   * @retval None
 326:App/STM32F4-Discovery/Libraries/STM32F4xx_StdPeriph_Driver/src/stm32f4xx_sdio.c ****   */
 327:App/STM32F4-Discovery/Libraries/STM32F4xx_StdPeriph_Driver/src/stm32f4xx_sdio.c **** void SDIO_ClockCmd(FunctionalState NewState)
 328:App/STM32F4-Discovery/Libraries/STM32F4xx_StdPeriph_Driver/src/stm32f4xx_sdio.c **** {
 279              		.loc 1 328 0
 280              		.cfi_startproc
 281              		@ args = 0, pretend = 0, frame = 8
 282              		@ frame_needed = 1, uses_anonymous_args = 0
 283 0000 80B5     		push	{r7, lr}
 284              	.LCFI8:
 285              		.cfi_def_cfa_offset 8
 286              		.cfi_offset 7, -8
 287              		.cfi_offset 14, -4
 288 0002 82B0     		sub	sp, sp, #8
 289              	.LCFI9:
 290              		.cfi_def_cfa_offset 16
 291 0004 00AF     		add	r7, sp, #0
 292              	.LCFI10:
 293              		.cfi_def_cfa_register 7
 294 0006 0346     		mov	r3, r0
 295 0008 FB71     		strb	r3, [r7, #7]
 329:App/STM32F4-Discovery/Libraries/STM32F4xx_StdPeriph_Driver/src/stm32f4xx_sdio.c ****   /* Check the parameters */
 330:App/STM32F4-Discovery/Libraries/STM32F4xx_StdPeriph_Driver/src/stm32f4xx_sdio.c ****   assert_param(IS_FUNCTIONAL_STATE(NewState));
 296              		.loc 1 330 0
 297 000a FB79     		ldrb	r3, [r7, #7]	@ zero_extendqisi2
 298 000c 002B     		cmp	r3, #0
 299 000e 07D0     		beq	.L12
 300              		.loc 1 330 0 is_stmt 0 discriminator 1
 301 0010 FB79     		ldrb	r3, [r7, #7]	@ zero_extendqisi2
 302 0012 012B     		cmp	r3, #1
 303 0014 04D0     		beq	.L12
 304 0016 0548     		ldr	r0, .L13
 305 0018 4FF4A571 		mov	r1, #330
 306 001c FFF7FEFF 		bl	assert_failed
 307              	.L12:
 331:App/STM32F4-Discovery/Libraries/STM32F4xx_StdPeriph_Driver/src/stm32f4xx_sdio.c ****   
 332:App/STM32F4-Discovery/Libraries/STM32F4xx_StdPeriph_Driver/src/stm32f4xx_sdio.c ****   *(__IO uint32_t *) CLKCR_CLKEN_BB = (uint32_t)NewState;
 308              		.loc 1 332 0 is_stmt 1
 309 0020 034B     		ldr	r3, .L13+4
 310 0022 FA79     		ldrb	r2, [r7, #7]	@ zero_extendqisi2
 311 0024 1A60     		str	r2, [r3]
 333:App/STM32F4-Discovery/Libraries/STM32F4xx_StdPeriph_Driver/src/stm32f4xx_sdio.c **** }
 312              		.loc 1 333 0
 313 0026 0837     		adds	r7, r7, #8
 314 0028 BD46     		mov	sp, r7
 315              		@ sp needed
 316 002a 80BD     		pop	{r7, pc}
 317              	.L14:
 318              		.align	2
 319              	.L13:
 320 002c 00000000 		.word	.LC0
 321 0030 A0802542 		.word	1109754016
 322              		.cfi_endproc
 323              	.LFE113:
 325              		.section	.text.SDIO_SetPowerState,"ax",%progbits
 326              		.align	2
 327              		.global	SDIO_SetPowerState
 328              		.thumb
 329              		.thumb_func
 331              	SDIO_SetPowerState:
 332              	.LFB114:
 334:App/STM32F4-Discovery/Libraries/STM32F4xx_StdPeriph_Driver/src/stm32f4xx_sdio.c **** 
 335:App/STM32F4-Discovery/Libraries/STM32F4xx_StdPeriph_Driver/src/stm32f4xx_sdio.c **** /**
 336:App/STM32F4-Discovery/Libraries/STM32F4xx_StdPeriph_Driver/src/stm32f4xx_sdio.c ****   * @brief  Sets the power status of the controller.
 337:App/STM32F4-Discovery/Libraries/STM32F4xx_StdPeriph_Driver/src/stm32f4xx_sdio.c ****   * @param  SDIO_PowerState: new state of the Power state. 
 338:App/STM32F4-Discovery/Libraries/STM32F4xx_StdPeriph_Driver/src/stm32f4xx_sdio.c ****   *          This parameter can be one of the following values:
 339:App/STM32F4-Discovery/Libraries/STM32F4xx_StdPeriph_Driver/src/stm32f4xx_sdio.c ****   *            @arg SDIO_PowerState_OFF: SDIO Power OFF
 340:App/STM32F4-Discovery/Libraries/STM32F4xx_StdPeriph_Driver/src/stm32f4xx_sdio.c ****   *            @arg SDIO_PowerState_ON: SDIO Power ON
 341:App/STM32F4-Discovery/Libraries/STM32F4xx_StdPeriph_Driver/src/stm32f4xx_sdio.c ****   * @retval None
 342:App/STM32F4-Discovery/Libraries/STM32F4xx_StdPeriph_Driver/src/stm32f4xx_sdio.c ****   */
 343:App/STM32F4-Discovery/Libraries/STM32F4xx_StdPeriph_Driver/src/stm32f4xx_sdio.c **** void SDIO_SetPowerState(uint32_t SDIO_PowerState)
 344:App/STM32F4-Discovery/Libraries/STM32F4xx_StdPeriph_Driver/src/stm32f4xx_sdio.c **** {
 333              		.loc 1 344 0
 334              		.cfi_startproc
 335              		@ args = 0, pretend = 0, frame = 8
 336              		@ frame_needed = 1, uses_anonymous_args = 0
 337 0000 80B5     		push	{r7, lr}
 338              	.LCFI11:
 339              		.cfi_def_cfa_offset 8
 340              		.cfi_offset 7, -8
 341              		.cfi_offset 14, -4
 342 0002 82B0     		sub	sp, sp, #8
 343              	.LCFI12:
 344              		.cfi_def_cfa_offset 16
 345 0004 00AF     		add	r7, sp, #0
 346              	.LCFI13:
 347              		.cfi_def_cfa_register 7
 348 0006 7860     		str	r0, [r7, #4]
 345:App/STM32F4-Discovery/Libraries/STM32F4xx_StdPeriph_Driver/src/stm32f4xx_sdio.c ****   /* Check the parameters */
 346:App/STM32F4-Discovery/Libraries/STM32F4xx_StdPeriph_Driver/src/stm32f4xx_sdio.c ****   assert_param(IS_SDIO_POWER_STATE(SDIO_PowerState));
 349              		.loc 1 346 0
 350 0008 7B68     		ldr	r3, [r7, #4]
 351 000a 002B     		cmp	r3, #0
 352 000c 07D0     		beq	.L16
 353              		.loc 1 346 0 is_stmt 0 discriminator 1
 354 000e 7B68     		ldr	r3, [r7, #4]
 355 0010 032B     		cmp	r3, #3
 356 0012 04D0     		beq	.L16
 357 0014 0548     		ldr	r0, .L17
 358 0016 4FF4AD71 		mov	r1, #346
 359 001a FFF7FEFF 		bl	assert_failed
 360              	.L16:
 347:App/STM32F4-Discovery/Libraries/STM32F4xx_StdPeriph_Driver/src/stm32f4xx_sdio.c ****   
 348:App/STM32F4-Discovery/Libraries/STM32F4xx_StdPeriph_Driver/src/stm32f4xx_sdio.c ****   SDIO->POWER = SDIO_PowerState;
 361              		.loc 1 348 0 is_stmt 1
 362 001e 044B     		ldr	r3, .L17+4
 363 0020 7A68     		ldr	r2, [r7, #4]
 364 0022 1A60     		str	r2, [r3]
 349:App/STM32F4-Discovery/Libraries/STM32F4xx_StdPeriph_Driver/src/stm32f4xx_sdio.c **** }
 365              		.loc 1 349 0
 366 0024 0837     		adds	r7, r7, #8
 367 0026 BD46     		mov	sp, r7
 368              		@ sp needed
 369 0028 80BD     		pop	{r7, pc}
 370              	.L18:
 371 002a 00BF     		.align	2
 372              	.L17:
 373 002c 00000000 		.word	.LC0
 374 0030 002C0140 		.word	1073818624
 375              		.cfi_endproc
 376              	.LFE114:
 378              		.section	.text.SDIO_GetPowerState,"ax",%progbits
 379              		.align	2
 380              		.global	SDIO_GetPowerState
 381              		.thumb
 382              		.thumb_func
 384              	SDIO_GetPowerState:
 385              	.LFB115:
 350:App/STM32F4-Discovery/Libraries/STM32F4xx_StdPeriph_Driver/src/stm32f4xx_sdio.c **** 
 351:App/STM32F4-Discovery/Libraries/STM32F4xx_StdPeriph_Driver/src/stm32f4xx_sdio.c **** /**
 352:App/STM32F4-Discovery/Libraries/STM32F4xx_StdPeriph_Driver/src/stm32f4xx_sdio.c ****   * @brief  Gets the power status of the controller.
 353:App/STM32F4-Discovery/Libraries/STM32F4xx_StdPeriph_Driver/src/stm32f4xx_sdio.c ****   * @param  None
 354:App/STM32F4-Discovery/Libraries/STM32F4xx_StdPeriph_Driver/src/stm32f4xx_sdio.c ****   * @retval Power status of the controller. The returned value can be one of the 
 355:App/STM32F4-Discovery/Libraries/STM32F4xx_StdPeriph_Driver/src/stm32f4xx_sdio.c ****   *         following values:
 356:App/STM32F4-Discovery/Libraries/STM32F4xx_StdPeriph_Driver/src/stm32f4xx_sdio.c ****   *            - 0x00: Power OFF
 357:App/STM32F4-Discovery/Libraries/STM32F4xx_StdPeriph_Driver/src/stm32f4xx_sdio.c ****   *            - 0x02: Power UP
 358:App/STM32F4-Discovery/Libraries/STM32F4xx_StdPeriph_Driver/src/stm32f4xx_sdio.c ****   *            - 0x03: Power ON 
 359:App/STM32F4-Discovery/Libraries/STM32F4xx_StdPeriph_Driver/src/stm32f4xx_sdio.c ****   */
 360:App/STM32F4-Discovery/Libraries/STM32F4xx_StdPeriph_Driver/src/stm32f4xx_sdio.c **** uint32_t SDIO_GetPowerState(void)
 361:App/STM32F4-Discovery/Libraries/STM32F4xx_StdPeriph_Driver/src/stm32f4xx_sdio.c **** {
 386              		.loc 1 361 0
 387              		.cfi_startproc
 388              		@ args = 0, pretend = 0, frame = 0
 389              		@ frame_needed = 1, uses_anonymous_args = 0
 390              		@ link register save eliminated.
 391 0000 80B4     		push	{r7}
 392              	.LCFI14:
 393              		.cfi_def_cfa_offset 4
 394              		.cfi_offset 7, -4
 395 0002 00AF     		add	r7, sp, #0
 396              	.LCFI15:
 397              		.cfi_def_cfa_register 7
 362:App/STM32F4-Discovery/Libraries/STM32F4xx_StdPeriph_Driver/src/stm32f4xx_sdio.c ****   return (SDIO->POWER & (~PWR_PWRCTRL_MASK));
 398              		.loc 1 362 0
 399 0004 044B     		ldr	r3, .L21
 400 0006 1B68     		ldr	r3, [r3]
 401 0008 03F00303 		and	r3, r3, #3
 363:App/STM32F4-Discovery/Libraries/STM32F4xx_StdPeriph_Driver/src/stm32f4xx_sdio.c **** }
 402              		.loc 1 363 0
 403 000c 1846     		mov	r0, r3
 404 000e BD46     		mov	sp, r7
 405              		@ sp needed
 406 0010 5DF8047B 		ldr	r7, [sp], #4
 407 0014 7047     		bx	lr
 408              	.L22:
 409 0016 00BF     		.align	2
 410              	.L21:
 411 0018 002C0140 		.word	1073818624
 412              		.cfi_endproc
 413              	.LFE115:
 415              		.section	.text.SDIO_SendCommand,"ax",%progbits
 416              		.align	2
 417              		.global	SDIO_SendCommand
 418              		.thumb
 419              		.thumb_func
 421              	SDIO_SendCommand:
 422              	.LFB116:
 364:App/STM32F4-Discovery/Libraries/STM32F4xx_StdPeriph_Driver/src/stm32f4xx_sdio.c **** 
 365:App/STM32F4-Discovery/Libraries/STM32F4xx_StdPeriph_Driver/src/stm32f4xx_sdio.c **** /**
 366:App/STM32F4-Discovery/Libraries/STM32F4xx_StdPeriph_Driver/src/stm32f4xx_sdio.c ****   * @}
 367:App/STM32F4-Discovery/Libraries/STM32F4xx_StdPeriph_Driver/src/stm32f4xx_sdio.c ****   */
 368:App/STM32F4-Discovery/Libraries/STM32F4xx_StdPeriph_Driver/src/stm32f4xx_sdio.c **** 
 369:App/STM32F4-Discovery/Libraries/STM32F4xx_StdPeriph_Driver/src/stm32f4xx_sdio.c **** /** @defgroup SDIO_Group2 Command path state machine (CPSM) management functions
 370:App/STM32F4-Discovery/Libraries/STM32F4xx_StdPeriph_Driver/src/stm32f4xx_sdio.c ****  *  @brief   Command path state machine (CPSM) management functions 
 371:App/STM32F4-Discovery/Libraries/STM32F4xx_StdPeriph_Driver/src/stm32f4xx_sdio.c ****  *
 372:App/STM32F4-Discovery/Libraries/STM32F4xx_StdPeriph_Driver/src/stm32f4xx_sdio.c **** @verbatim   
 373:App/STM32F4-Discovery/Libraries/STM32F4xx_StdPeriph_Driver/src/stm32f4xx_sdio.c ****  ===============================================================================
 374:App/STM32F4-Discovery/Libraries/STM32F4xx_StdPeriph_Driver/src/stm32f4xx_sdio.c ****               Command path state machine (CPSM) management functions
 375:App/STM32F4-Discovery/Libraries/STM32F4xx_StdPeriph_Driver/src/stm32f4xx_sdio.c ****  ===============================================================================  
 376:App/STM32F4-Discovery/Libraries/STM32F4xx_StdPeriph_Driver/src/stm32f4xx_sdio.c **** 
 377:App/STM32F4-Discovery/Libraries/STM32F4xx_StdPeriph_Driver/src/stm32f4xx_sdio.c ****   This section provide functions allowing to program and read the Command path 
 378:App/STM32F4-Discovery/Libraries/STM32F4xx_StdPeriph_Driver/src/stm32f4xx_sdio.c ****   state machine (CPSM).
 379:App/STM32F4-Discovery/Libraries/STM32F4xx_StdPeriph_Driver/src/stm32f4xx_sdio.c **** 
 380:App/STM32F4-Discovery/Libraries/STM32F4xx_StdPeriph_Driver/src/stm32f4xx_sdio.c **** @endverbatim
 381:App/STM32F4-Discovery/Libraries/STM32F4xx_StdPeriph_Driver/src/stm32f4xx_sdio.c ****   * @{
 382:App/STM32F4-Discovery/Libraries/STM32F4xx_StdPeriph_Driver/src/stm32f4xx_sdio.c ****   */
 383:App/STM32F4-Discovery/Libraries/STM32F4xx_StdPeriph_Driver/src/stm32f4xx_sdio.c **** 
 384:App/STM32F4-Discovery/Libraries/STM32F4xx_StdPeriph_Driver/src/stm32f4xx_sdio.c **** /**
 385:App/STM32F4-Discovery/Libraries/STM32F4xx_StdPeriph_Driver/src/stm32f4xx_sdio.c ****   * @brief  Initializes the SDIO Command according to the specified 
 386:App/STM32F4-Discovery/Libraries/STM32F4xx_StdPeriph_Driver/src/stm32f4xx_sdio.c ****   *         parameters in the SDIO_CmdInitStruct and send the command.
 387:App/STM32F4-Discovery/Libraries/STM32F4xx_StdPeriph_Driver/src/stm32f4xx_sdio.c ****   * @param  SDIO_CmdInitStruct : pointer to a SDIO_CmdInitTypeDef 
 388:App/STM32F4-Discovery/Libraries/STM32F4xx_StdPeriph_Driver/src/stm32f4xx_sdio.c ****   *         structure that contains the configuration information for the SDIO 
 389:App/STM32F4-Discovery/Libraries/STM32F4xx_StdPeriph_Driver/src/stm32f4xx_sdio.c ****   *         command.
 390:App/STM32F4-Discovery/Libraries/STM32F4xx_StdPeriph_Driver/src/stm32f4xx_sdio.c ****   * @retval None
 391:App/STM32F4-Discovery/Libraries/STM32F4xx_StdPeriph_Driver/src/stm32f4xx_sdio.c ****   */
 392:App/STM32F4-Discovery/Libraries/STM32F4xx_StdPeriph_Driver/src/stm32f4xx_sdio.c **** void SDIO_SendCommand(SDIO_CmdInitTypeDef *SDIO_CmdInitStruct)
 393:App/STM32F4-Discovery/Libraries/STM32F4xx_StdPeriph_Driver/src/stm32f4xx_sdio.c **** {
 423              		.loc 1 393 0
 424              		.cfi_startproc
 425              		@ args = 0, pretend = 0, frame = 16
 426              		@ frame_needed = 1, uses_anonymous_args = 0
 427 0000 80B5     		push	{r7, lr}
 428              	.LCFI16:
 429              		.cfi_def_cfa_offset 8
 430              		.cfi_offset 7, -8
 431              		.cfi_offset 14, -4
 432 0002 84B0     		sub	sp, sp, #16
 433              	.LCFI17:
 434              		.cfi_def_cfa_offset 24
 435 0004 00AF     		add	r7, sp, #0
 436              	.LCFI18:
 437              		.cfi_def_cfa_register 7
 438 0006 7860     		str	r0, [r7, #4]
 394:App/STM32F4-Discovery/Libraries/STM32F4xx_StdPeriph_Driver/src/stm32f4xx_sdio.c ****   uint32_t tmpreg = 0;
 439              		.loc 1 394 0
 440 0008 0023     		movs	r3, #0
 441 000a FB60     		str	r3, [r7, #12]
 395:App/STM32F4-Discovery/Libraries/STM32F4xx_StdPeriph_Driver/src/stm32f4xx_sdio.c ****   
 396:App/STM32F4-Discovery/Libraries/STM32F4xx_StdPeriph_Driver/src/stm32f4xx_sdio.c ****   /* Check the parameters */
 397:App/STM32F4-Discovery/Libraries/STM32F4xx_StdPeriph_Driver/src/stm32f4xx_sdio.c ****   assert_param(IS_SDIO_CMD_INDEX(SDIO_CmdInitStruct->SDIO_CmdIndex));
 442              		.loc 1 397 0
 443 000c 7B68     		ldr	r3, [r7, #4]
 444 000e 5B68     		ldr	r3, [r3, #4]
 445 0010 3F2B     		cmp	r3, #63
 446 0012 04D9     		bls	.L24
 447              		.loc 1 397 0 is_stmt 0 discriminator 1
 448 0014 2B48     		ldr	r0, .L28
 449 0016 40F28D11 		movw	r1, #397
 450 001a FFF7FEFF 		bl	assert_failed
 451              	.L24:
 398:App/STM32F4-Discovery/Libraries/STM32F4xx_StdPeriph_Driver/src/stm32f4xx_sdio.c ****   assert_param(IS_SDIO_RESPONSE(SDIO_CmdInitStruct->SDIO_Response));
 452              		.loc 1 398 0 is_stmt 1
 453 001e 7B68     		ldr	r3, [r7, #4]
 454 0020 9B68     		ldr	r3, [r3, #8]
 455 0022 002B     		cmp	r3, #0
 456 0024 0CD0     		beq	.L25
 457              		.loc 1 398 0 is_stmt 0 discriminator 1
 458 0026 7B68     		ldr	r3, [r7, #4]
 459 0028 9B68     		ldr	r3, [r3, #8]
 460 002a 402B     		cmp	r3, #64
 461 002c 08D0     		beq	.L25
 462 002e 7B68     		ldr	r3, [r7, #4]
 463 0030 9B68     		ldr	r3, [r3, #8]
 464 0032 C02B     		cmp	r3, #192
 465 0034 04D0     		beq	.L25
 466 0036 2348     		ldr	r0, .L28
 467 0038 4FF4C771 		mov	r1, #398
 468 003c FFF7FEFF 		bl	assert_failed
 469              	.L25:
 399:App/STM32F4-Discovery/Libraries/STM32F4xx_StdPeriph_Driver/src/stm32f4xx_sdio.c ****   assert_param(IS_SDIO_WAIT(SDIO_CmdInitStruct->SDIO_Wait));
 470              		.loc 1 399 0 is_stmt 1
 471 0040 7B68     		ldr	r3, [r7, #4]
 472 0042 DB68     		ldr	r3, [r3, #12]
 473 0044 002B     		cmp	r3, #0
 474 0046 0ED0     		beq	.L26
 475              		.loc 1 399 0 is_stmt 0 discriminator 1
 476 0048 7B68     		ldr	r3, [r7, #4]
 477 004a DB68     		ldr	r3, [r3, #12]
 478 004c B3F5807F 		cmp	r3, #256
 479 0050 09D0     		beq	.L26
 480 0052 7B68     		ldr	r3, [r7, #4]
 481 0054 DB68     		ldr	r3, [r3, #12]
 482 0056 B3F5007F 		cmp	r3, #512
 483 005a 04D0     		beq	.L26
 484 005c 1948     		ldr	r0, .L28
 485 005e 40F28F11 		movw	r1, #399
 486 0062 FFF7FEFF 		bl	assert_failed
 487              	.L26:
 400:App/STM32F4-Discovery/Libraries/STM32F4xx_StdPeriph_Driver/src/stm32f4xx_sdio.c ****   assert_param(IS_SDIO_CPSM(SDIO_CmdInitStruct->SDIO_CPSM));
 488              		.loc 1 400 0 is_stmt 1
 489 0066 7B68     		ldr	r3, [r7, #4]
 490 0068 1B69     		ldr	r3, [r3, #16]
 491 006a B3F5806F 		cmp	r3, #1024
 492 006e 08D0     		beq	.L27
 493              		.loc 1 400 0 is_stmt 0 discriminator 1
 494 0070 7B68     		ldr	r3, [r7, #4]
 495 0072 1B69     		ldr	r3, [r3, #16]
 496 0074 002B     		cmp	r3, #0
 497 0076 04D0     		beq	.L27
 498 0078 1248     		ldr	r0, .L28
 499 007a 4FF4C871 		mov	r1, #400
 500 007e FFF7FEFF 		bl	assert_failed
 501              	.L27:
 401:App/STM32F4-Discovery/Libraries/STM32F4xx_StdPeriph_Driver/src/stm32f4xx_sdio.c ****   
 402:App/STM32F4-Discovery/Libraries/STM32F4xx_StdPeriph_Driver/src/stm32f4xx_sdio.c **** /*---------------------------- SDIO ARG Configuration ------------------------*/
 403:App/STM32F4-Discovery/Libraries/STM32F4xx_StdPeriph_Driver/src/stm32f4xx_sdio.c ****   /* Set the SDIO Argument value */
 404:App/STM32F4-Discovery/Libraries/STM32F4xx_StdPeriph_Driver/src/stm32f4xx_sdio.c ****   SDIO->ARG = SDIO_CmdInitStruct->SDIO_Argument;
 502              		.loc 1 404 0 is_stmt 1
 503 0082 114B     		ldr	r3, .L28+4
 504 0084 7A68     		ldr	r2, [r7, #4]
 505 0086 1268     		ldr	r2, [r2]
 506 0088 9A60     		str	r2, [r3, #8]
 405:App/STM32F4-Discovery/Libraries/STM32F4xx_StdPeriph_Driver/src/stm32f4xx_sdio.c ****   
 406:App/STM32F4-Discovery/Libraries/STM32F4xx_StdPeriph_Driver/src/stm32f4xx_sdio.c **** /*---------------------------- SDIO CMD Configuration ------------------------*/  
 407:App/STM32F4-Discovery/Libraries/STM32F4xx_StdPeriph_Driver/src/stm32f4xx_sdio.c ****   /* Get the SDIO CMD value */
 408:App/STM32F4-Discovery/Libraries/STM32F4xx_StdPeriph_Driver/src/stm32f4xx_sdio.c ****   tmpreg = SDIO->CMD;
 507              		.loc 1 408 0
 508 008a 0F4B     		ldr	r3, .L28+4
 509 008c DB68     		ldr	r3, [r3, #12]
 510 008e FB60     		str	r3, [r7, #12]
 409:App/STM32F4-Discovery/Libraries/STM32F4xx_StdPeriph_Driver/src/stm32f4xx_sdio.c ****   /* Clear CMDINDEX, WAITRESP, WAITINT, WAITPEND, CPSMEN bits */
 410:App/STM32F4-Discovery/Libraries/STM32F4xx_StdPeriph_Driver/src/stm32f4xx_sdio.c ****   tmpreg &= CMD_CLEAR_MASK;
 511              		.loc 1 410 0
 512 0090 FB68     		ldr	r3, [r7, #12]
 513 0092 23F4FF63 		bic	r3, r3, #2040
 514 0096 23F00703 		bic	r3, r3, #7
 515 009a FB60     		str	r3, [r7, #12]
 411:App/STM32F4-Discovery/Libraries/STM32F4xx_StdPeriph_Driver/src/stm32f4xx_sdio.c ****   /* Set CMDINDEX bits according to SDIO_CmdIndex value */
 412:App/STM32F4-Discovery/Libraries/STM32F4xx_StdPeriph_Driver/src/stm32f4xx_sdio.c ****   /* Set WAITRESP bits according to SDIO_Response value */
 413:App/STM32F4-Discovery/Libraries/STM32F4xx_StdPeriph_Driver/src/stm32f4xx_sdio.c ****   /* Set WAITINT and WAITPEND bits according to SDIO_Wait value */
 414:App/STM32F4-Discovery/Libraries/STM32F4xx_StdPeriph_Driver/src/stm32f4xx_sdio.c ****   /* Set CPSMEN bits according to SDIO_CPSM value */
 415:App/STM32F4-Discovery/Libraries/STM32F4xx_StdPeriph_Driver/src/stm32f4xx_sdio.c ****   tmpreg |= (uint32_t)SDIO_CmdInitStruct->SDIO_CmdIndex | SDIO_CmdInitStruct->SDIO_Response
 516              		.loc 1 415 0
 517 009c 7B68     		ldr	r3, [r7, #4]
 518 009e 5A68     		ldr	r2, [r3, #4]
 519 00a0 7B68     		ldr	r3, [r7, #4]
 520 00a2 9B68     		ldr	r3, [r3, #8]
 521 00a4 1A43     		orrs	r2, r2, r3
 416:App/STM32F4-Discovery/Libraries/STM32F4xx_StdPeriph_Driver/src/stm32f4xx_sdio.c ****            | SDIO_CmdInitStruct->SDIO_Wait | SDIO_CmdInitStruct->SDIO_CPSM;
 522              		.loc 1 416 0
 523 00a6 7B68     		ldr	r3, [r7, #4]
 524 00a8 DB68     		ldr	r3, [r3, #12]
 525 00aa 1A43     		orrs	r2, r2, r3
 526 00ac 7B68     		ldr	r3, [r7, #4]
 527 00ae 1B69     		ldr	r3, [r3, #16]
 528 00b0 1343     		orrs	r3, r3, r2
 415:App/STM32F4-Discovery/Libraries/STM32F4xx_StdPeriph_Driver/src/stm32f4xx_sdio.c ****   tmpreg |= (uint32_t)SDIO_CmdInitStruct->SDIO_CmdIndex | SDIO_CmdInitStruct->SDIO_Response
 529              		.loc 1 415 0
 530 00b2 FA68     		ldr	r2, [r7, #12]
 531 00b4 1343     		orrs	r3, r3, r2
 532 00b6 FB60     		str	r3, [r7, #12]
 417:App/STM32F4-Discovery/Libraries/STM32F4xx_StdPeriph_Driver/src/stm32f4xx_sdio.c ****   
 418:App/STM32F4-Discovery/Libraries/STM32F4xx_StdPeriph_Driver/src/stm32f4xx_sdio.c ****   /* Write to SDIO CMD */
 419:App/STM32F4-Discovery/Libraries/STM32F4xx_StdPeriph_Driver/src/stm32f4xx_sdio.c ****   SDIO->CMD = tmpreg;
 533              		.loc 1 419 0
 534 00b8 034B     		ldr	r3, .L28+4
 535 00ba FA68     		ldr	r2, [r7, #12]
 536 00bc DA60     		str	r2, [r3, #12]
 420:App/STM32F4-Discovery/Libraries/STM32F4xx_StdPeriph_Driver/src/stm32f4xx_sdio.c **** }
 537              		.loc 1 420 0
 538 00be 1037     		adds	r7, r7, #16
 539 00c0 BD46     		mov	sp, r7
 540              		@ sp needed
 541 00c2 80BD     		pop	{r7, pc}
 542              	.L29:
 543              		.align	2
 544              	.L28:
 545 00c4 00000000 		.word	.LC0
 546 00c8 002C0140 		.word	1073818624
 547              		.cfi_endproc
 548              	.LFE116:
 550              		.section	.text.SDIO_CmdStructInit,"ax",%progbits
 551              		.align	2
 552              		.global	SDIO_CmdStructInit
 553              		.thumb
 554              		.thumb_func
 556              	SDIO_CmdStructInit:
 557              	.LFB117:
 421:App/STM32F4-Discovery/Libraries/STM32F4xx_StdPeriph_Driver/src/stm32f4xx_sdio.c **** 
 422:App/STM32F4-Discovery/Libraries/STM32F4xx_StdPeriph_Driver/src/stm32f4xx_sdio.c **** /**
 423:App/STM32F4-Discovery/Libraries/STM32F4xx_StdPeriph_Driver/src/stm32f4xx_sdio.c ****   * @brief  Fills each SDIO_CmdInitStruct member with its default value.
 424:App/STM32F4-Discovery/Libraries/STM32F4xx_StdPeriph_Driver/src/stm32f4xx_sdio.c ****   * @param  SDIO_CmdInitStruct: pointer to an SDIO_CmdInitTypeDef 
 425:App/STM32F4-Discovery/Libraries/STM32F4xx_StdPeriph_Driver/src/stm32f4xx_sdio.c ****   *         structure which will be initialized.
 426:App/STM32F4-Discovery/Libraries/STM32F4xx_StdPeriph_Driver/src/stm32f4xx_sdio.c ****   * @retval None
 427:App/STM32F4-Discovery/Libraries/STM32F4xx_StdPeriph_Driver/src/stm32f4xx_sdio.c ****   */
 428:App/STM32F4-Discovery/Libraries/STM32F4xx_StdPeriph_Driver/src/stm32f4xx_sdio.c **** void SDIO_CmdStructInit(SDIO_CmdInitTypeDef* SDIO_CmdInitStruct)
 429:App/STM32F4-Discovery/Libraries/STM32F4xx_StdPeriph_Driver/src/stm32f4xx_sdio.c **** {
 558              		.loc 1 429 0
 559              		.cfi_startproc
 560              		@ args = 0, pretend = 0, frame = 8
 561              		@ frame_needed = 1, uses_anonymous_args = 0
 562              		@ link register save eliminated.
 563 0000 80B4     		push	{r7}
 564              	.LCFI19:
 565              		.cfi_def_cfa_offset 4
 566              		.cfi_offset 7, -4
 567 0002 83B0     		sub	sp, sp, #12
 568              	.LCFI20:
 569              		.cfi_def_cfa_offset 16
 570 0004 00AF     		add	r7, sp, #0
 571              	.LCFI21:
 572              		.cfi_def_cfa_register 7
 573 0006 7860     		str	r0, [r7, #4]
 430:App/STM32F4-Discovery/Libraries/STM32F4xx_StdPeriph_Driver/src/stm32f4xx_sdio.c ****   /* SDIO_CmdInitStruct members default value */
 431:App/STM32F4-Discovery/Libraries/STM32F4xx_StdPeriph_Driver/src/stm32f4xx_sdio.c ****   SDIO_CmdInitStruct->SDIO_Argument = 0x00;
 574              		.loc 1 431 0
 575 0008 7B68     		ldr	r3, [r7, #4]
 576 000a 0022     		movs	r2, #0
 577 000c 1A60     		str	r2, [r3]
 432:App/STM32F4-Discovery/Libraries/STM32F4xx_StdPeriph_Driver/src/stm32f4xx_sdio.c ****   SDIO_CmdInitStruct->SDIO_CmdIndex = 0x00;
 578              		.loc 1 432 0
 579 000e 7B68     		ldr	r3, [r7, #4]
 580 0010 0022     		movs	r2, #0
 581 0012 5A60     		str	r2, [r3, #4]
 433:App/STM32F4-Discovery/Libraries/STM32F4xx_StdPeriph_Driver/src/stm32f4xx_sdio.c ****   SDIO_CmdInitStruct->SDIO_Response = SDIO_Response_No;
 582              		.loc 1 433 0
 583 0014 7B68     		ldr	r3, [r7, #4]
 584 0016 0022     		movs	r2, #0
 585 0018 9A60     		str	r2, [r3, #8]
 434:App/STM32F4-Discovery/Libraries/STM32F4xx_StdPeriph_Driver/src/stm32f4xx_sdio.c ****   SDIO_CmdInitStruct->SDIO_Wait = SDIO_Wait_No;
 586              		.loc 1 434 0
 587 001a 7B68     		ldr	r3, [r7, #4]
 588 001c 0022     		movs	r2, #0
 589 001e DA60     		str	r2, [r3, #12]
 435:App/STM32F4-Discovery/Libraries/STM32F4xx_StdPeriph_Driver/src/stm32f4xx_sdio.c ****   SDIO_CmdInitStruct->SDIO_CPSM = SDIO_CPSM_Disable;
 590              		.loc 1 435 0
 591 0020 7B68     		ldr	r3, [r7, #4]
 592 0022 0022     		movs	r2, #0
 593 0024 1A61     		str	r2, [r3, #16]
 436:App/STM32F4-Discovery/Libraries/STM32F4xx_StdPeriph_Driver/src/stm32f4xx_sdio.c **** }
 594              		.loc 1 436 0
 595 0026 0C37     		adds	r7, r7, #12
 596 0028 BD46     		mov	sp, r7
 597              		@ sp needed
 598 002a 5DF8047B 		ldr	r7, [sp], #4
 599 002e 7047     		bx	lr
 600              		.cfi_endproc
 601              	.LFE117:
 603              		.section	.text.SDIO_GetCommandResponse,"ax",%progbits
 604              		.align	2
 605              		.global	SDIO_GetCommandResponse
 606              		.thumb
 607              		.thumb_func
 609              	SDIO_GetCommandResponse:
 610              	.LFB118:
 437:App/STM32F4-Discovery/Libraries/STM32F4xx_StdPeriph_Driver/src/stm32f4xx_sdio.c **** 
 438:App/STM32F4-Discovery/Libraries/STM32F4xx_StdPeriph_Driver/src/stm32f4xx_sdio.c **** /**
 439:App/STM32F4-Discovery/Libraries/STM32F4xx_StdPeriph_Driver/src/stm32f4xx_sdio.c ****   * @brief  Returns command index of last command for which response received.
 440:App/STM32F4-Discovery/Libraries/STM32F4xx_StdPeriph_Driver/src/stm32f4xx_sdio.c ****   * @param  None
 441:App/STM32F4-Discovery/Libraries/STM32F4xx_StdPeriph_Driver/src/stm32f4xx_sdio.c ****   * @retval Returns the command index of the last command response received.
 442:App/STM32F4-Discovery/Libraries/STM32F4xx_StdPeriph_Driver/src/stm32f4xx_sdio.c ****   */
 443:App/STM32F4-Discovery/Libraries/STM32F4xx_StdPeriph_Driver/src/stm32f4xx_sdio.c **** uint8_t SDIO_GetCommandResponse(void)
 444:App/STM32F4-Discovery/Libraries/STM32F4xx_StdPeriph_Driver/src/stm32f4xx_sdio.c **** {
 611              		.loc 1 444 0
 612              		.cfi_startproc
 613              		@ args = 0, pretend = 0, frame = 0
 614              		@ frame_needed = 1, uses_anonymous_args = 0
 615              		@ link register save eliminated.
 616 0000 80B4     		push	{r7}
 617              	.LCFI22:
 618              		.cfi_def_cfa_offset 4
 619              		.cfi_offset 7, -4
 620 0002 00AF     		add	r7, sp, #0
 621              	.LCFI23:
 622              		.cfi_def_cfa_register 7
 445:App/STM32F4-Discovery/Libraries/STM32F4xx_StdPeriph_Driver/src/stm32f4xx_sdio.c ****   return (uint8_t)(SDIO->RESPCMD);
 623              		.loc 1 445 0
 624 0004 034B     		ldr	r3, .L33
 625 0006 1B69     		ldr	r3, [r3, #16]
 626 0008 DBB2     		uxtb	r3, r3
 446:App/STM32F4-Discovery/Libraries/STM32F4xx_StdPeriph_Driver/src/stm32f4xx_sdio.c **** }
 627              		.loc 1 446 0
 628 000a 1846     		mov	r0, r3
 629 000c BD46     		mov	sp, r7
 630              		@ sp needed
 631 000e 5DF8047B 		ldr	r7, [sp], #4
 632 0012 7047     		bx	lr
 633              	.L34:
 634              		.align	2
 635              	.L33:
 636 0014 002C0140 		.word	1073818624
 637              		.cfi_endproc
 638              	.LFE118:
 640              		.section	.text.SDIO_GetResponse,"ax",%progbits
 641              		.align	2
 642              		.global	SDIO_GetResponse
 643              		.thumb
 644              		.thumb_func
 646              	SDIO_GetResponse:
 647              	.LFB119:
 447:App/STM32F4-Discovery/Libraries/STM32F4xx_StdPeriph_Driver/src/stm32f4xx_sdio.c **** 
 448:App/STM32F4-Discovery/Libraries/STM32F4xx_StdPeriph_Driver/src/stm32f4xx_sdio.c **** /**
 449:App/STM32F4-Discovery/Libraries/STM32F4xx_StdPeriph_Driver/src/stm32f4xx_sdio.c ****   * @brief  Returns response received from the card for the last command.
 450:App/STM32F4-Discovery/Libraries/STM32F4xx_StdPeriph_Driver/src/stm32f4xx_sdio.c ****   * @param  SDIO_RESP: Specifies the SDIO response register. 
 451:App/STM32F4-Discovery/Libraries/STM32F4xx_StdPeriph_Driver/src/stm32f4xx_sdio.c ****   *          This parameter can be one of the following values:
 452:App/STM32F4-Discovery/Libraries/STM32F4xx_StdPeriph_Driver/src/stm32f4xx_sdio.c ****   *            @arg SDIO_RESP1: Response Register 1
 453:App/STM32F4-Discovery/Libraries/STM32F4xx_StdPeriph_Driver/src/stm32f4xx_sdio.c ****   *            @arg SDIO_RESP2: Response Register 2
 454:App/STM32F4-Discovery/Libraries/STM32F4xx_StdPeriph_Driver/src/stm32f4xx_sdio.c ****   *            @arg SDIO_RESP3: Response Register 3
 455:App/STM32F4-Discovery/Libraries/STM32F4xx_StdPeriph_Driver/src/stm32f4xx_sdio.c ****   *            @arg SDIO_RESP4: Response Register 4
 456:App/STM32F4-Discovery/Libraries/STM32F4xx_StdPeriph_Driver/src/stm32f4xx_sdio.c ****   * @retval The Corresponding response register value.
 457:App/STM32F4-Discovery/Libraries/STM32F4xx_StdPeriph_Driver/src/stm32f4xx_sdio.c ****   */
 458:App/STM32F4-Discovery/Libraries/STM32F4xx_StdPeriph_Driver/src/stm32f4xx_sdio.c **** uint32_t SDIO_GetResponse(uint32_t SDIO_RESP)
 459:App/STM32F4-Discovery/Libraries/STM32F4xx_StdPeriph_Driver/src/stm32f4xx_sdio.c **** {
 648              		.loc 1 459 0
 649              		.cfi_startproc
 650              		@ args = 0, pretend = 0, frame = 16
 651              		@ frame_needed = 1, uses_anonymous_args = 0
 652 0000 80B5     		push	{r7, lr}
 653              	.LCFI24:
 654              		.cfi_def_cfa_offset 8
 655              		.cfi_offset 7, -8
 656              		.cfi_offset 14, -4
 657 0002 84B0     		sub	sp, sp, #16
 658              	.LCFI25:
 659              		.cfi_def_cfa_offset 24
 660 0004 00AF     		add	r7, sp, #0
 661              	.LCFI26:
 662              		.cfi_def_cfa_register 7
 663 0006 7860     		str	r0, [r7, #4]
 460:App/STM32F4-Discovery/Libraries/STM32F4xx_StdPeriph_Driver/src/stm32f4xx_sdio.c ****   __IO uint32_t tmp = 0;
 664              		.loc 1 460 0
 665 0008 0023     		movs	r3, #0
 666 000a FB60     		str	r3, [r7, #12]
 461:App/STM32F4-Discovery/Libraries/STM32F4xx_StdPeriph_Driver/src/stm32f4xx_sdio.c **** 
 462:App/STM32F4-Discovery/Libraries/STM32F4xx_StdPeriph_Driver/src/stm32f4xx_sdio.c ****   /* Check the parameters */
 463:App/STM32F4-Discovery/Libraries/STM32F4xx_StdPeriph_Driver/src/stm32f4xx_sdio.c ****   assert_param(IS_SDIO_RESP(SDIO_RESP));
 667              		.loc 1 463 0
 668 000c 7B68     		ldr	r3, [r7, #4]
 669 000e 002B     		cmp	r3, #0
 670 0010 0DD0     		beq	.L36
 671              		.loc 1 463 0 is_stmt 0 discriminator 1
 672 0012 7B68     		ldr	r3, [r7, #4]
 673 0014 042B     		cmp	r3, #4
 674 0016 0AD0     		beq	.L36
 675 0018 7B68     		ldr	r3, [r7, #4]
 676 001a 082B     		cmp	r3, #8
 677 001c 07D0     		beq	.L36
 678 001e 7B68     		ldr	r3, [r7, #4]
 679 0020 0C2B     		cmp	r3, #12
 680 0022 04D0     		beq	.L36
 681 0024 0748     		ldr	r0, .L38
 682 0026 40F2CF11 		movw	r1, #463
 683 002a FFF7FEFF 		bl	assert_failed
 684              	.L36:
 464:App/STM32F4-Discovery/Libraries/STM32F4xx_StdPeriph_Driver/src/stm32f4xx_sdio.c **** 
 465:App/STM32F4-Discovery/Libraries/STM32F4xx_StdPeriph_Driver/src/stm32f4xx_sdio.c ****   tmp = SDIO_RESP_ADDR + SDIO_RESP;
 685              		.loc 1 465 0 is_stmt 1
 686 002e 7A68     		ldr	r2, [r7, #4]
 687 0030 054B     		ldr	r3, .L38+4
 688 0032 1344     		add	r3, r3, r2
 689 0034 FB60     		str	r3, [r7, #12]
 466:App/STM32F4-Discovery/Libraries/STM32F4xx_StdPeriph_Driver/src/stm32f4xx_sdio.c ****   
 467:App/STM32F4-Discovery/Libraries/STM32F4xx_StdPeriph_Driver/src/stm32f4xx_sdio.c ****   return (*(__IO uint32_t *) tmp); 
 690              		.loc 1 467 0
 691 0036 FB68     		ldr	r3, [r7, #12]
 692 0038 1B68     		ldr	r3, [r3]
 468:App/STM32F4-Discovery/Libraries/STM32F4xx_StdPeriph_Driver/src/stm32f4xx_sdio.c **** }
 693              		.loc 1 468 0
 694 003a 1846     		mov	r0, r3
 695 003c 1037     		adds	r7, r7, #16
 696 003e BD46     		mov	sp, r7
 697              		@ sp needed
 698 0040 80BD     		pop	{r7, pc}
 699              	.L39:
 700 0042 00BF     		.align	2
 701              	.L38:
 702 0044 00000000 		.word	.LC0
 703 0048 142C0140 		.word	1073818644
 704              		.cfi_endproc
 705              	.LFE119:
 707              		.section	.text.SDIO_DataConfig,"ax",%progbits
 708              		.align	2
 709              		.global	SDIO_DataConfig
 710              		.thumb
 711              		.thumb_func
 713              	SDIO_DataConfig:
 714              	.LFB120:
 469:App/STM32F4-Discovery/Libraries/STM32F4xx_StdPeriph_Driver/src/stm32f4xx_sdio.c **** 
 470:App/STM32F4-Discovery/Libraries/STM32F4xx_StdPeriph_Driver/src/stm32f4xx_sdio.c **** /**
 471:App/STM32F4-Discovery/Libraries/STM32F4xx_StdPeriph_Driver/src/stm32f4xx_sdio.c ****   * @}
 472:App/STM32F4-Discovery/Libraries/STM32F4xx_StdPeriph_Driver/src/stm32f4xx_sdio.c ****   */
 473:App/STM32F4-Discovery/Libraries/STM32F4xx_StdPeriph_Driver/src/stm32f4xx_sdio.c **** 
 474:App/STM32F4-Discovery/Libraries/STM32F4xx_StdPeriph_Driver/src/stm32f4xx_sdio.c **** /** @defgroup SDIO_Group3 Data path state machine (DPSM) management functions
 475:App/STM32F4-Discovery/Libraries/STM32F4xx_StdPeriph_Driver/src/stm32f4xx_sdio.c ****  *  @brief   Data path state machine (DPSM) management functions
 476:App/STM32F4-Discovery/Libraries/STM32F4xx_StdPeriph_Driver/src/stm32f4xx_sdio.c ****  *
 477:App/STM32F4-Discovery/Libraries/STM32F4xx_StdPeriph_Driver/src/stm32f4xx_sdio.c **** @verbatim   
 478:App/STM32F4-Discovery/Libraries/STM32F4xx_StdPeriph_Driver/src/stm32f4xx_sdio.c ****  ===============================================================================
 479:App/STM32F4-Discovery/Libraries/STM32F4xx_StdPeriph_Driver/src/stm32f4xx_sdio.c ****               Data path state machine (DPSM) management functions
 480:App/STM32F4-Discovery/Libraries/STM32F4xx_StdPeriph_Driver/src/stm32f4xx_sdio.c ****  ===============================================================================  
 481:App/STM32F4-Discovery/Libraries/STM32F4xx_StdPeriph_Driver/src/stm32f4xx_sdio.c **** 
 482:App/STM32F4-Discovery/Libraries/STM32F4xx_StdPeriph_Driver/src/stm32f4xx_sdio.c ****   This section provide functions allowing to program and read the Data path 
 483:App/STM32F4-Discovery/Libraries/STM32F4xx_StdPeriph_Driver/src/stm32f4xx_sdio.c ****   state machine (DPSM).
 484:App/STM32F4-Discovery/Libraries/STM32F4xx_StdPeriph_Driver/src/stm32f4xx_sdio.c **** 
 485:App/STM32F4-Discovery/Libraries/STM32F4xx_StdPeriph_Driver/src/stm32f4xx_sdio.c **** @endverbatim
 486:App/STM32F4-Discovery/Libraries/STM32F4xx_StdPeriph_Driver/src/stm32f4xx_sdio.c ****   * @{
 487:App/STM32F4-Discovery/Libraries/STM32F4xx_StdPeriph_Driver/src/stm32f4xx_sdio.c ****   */
 488:App/STM32F4-Discovery/Libraries/STM32F4xx_StdPeriph_Driver/src/stm32f4xx_sdio.c **** 
 489:App/STM32F4-Discovery/Libraries/STM32F4xx_StdPeriph_Driver/src/stm32f4xx_sdio.c **** /**
 490:App/STM32F4-Discovery/Libraries/STM32F4xx_StdPeriph_Driver/src/stm32f4xx_sdio.c ****   * @brief  Initializes the SDIO data path according to the specified 
 491:App/STM32F4-Discovery/Libraries/STM32F4xx_StdPeriph_Driver/src/stm32f4xx_sdio.c ****   *         parameters in the SDIO_DataInitStruct.
 492:App/STM32F4-Discovery/Libraries/STM32F4xx_StdPeriph_Driver/src/stm32f4xx_sdio.c ****   * @param  SDIO_DataInitStruct : pointer to a SDIO_DataInitTypeDef structure 
 493:App/STM32F4-Discovery/Libraries/STM32F4xx_StdPeriph_Driver/src/stm32f4xx_sdio.c ****   *         that contains the configuration information for the SDIO command.
 494:App/STM32F4-Discovery/Libraries/STM32F4xx_StdPeriph_Driver/src/stm32f4xx_sdio.c ****   * @retval None
 495:App/STM32F4-Discovery/Libraries/STM32F4xx_StdPeriph_Driver/src/stm32f4xx_sdio.c ****   */
 496:App/STM32F4-Discovery/Libraries/STM32F4xx_StdPeriph_Driver/src/stm32f4xx_sdio.c **** void SDIO_DataConfig(SDIO_DataInitTypeDef* SDIO_DataInitStruct)
 497:App/STM32F4-Discovery/Libraries/STM32F4xx_StdPeriph_Driver/src/stm32f4xx_sdio.c **** {
 715              		.loc 1 497 0
 716              		.cfi_startproc
 717              		@ args = 0, pretend = 0, frame = 16
 718              		@ frame_needed = 1, uses_anonymous_args = 0
 719 0000 80B5     		push	{r7, lr}
 720              	.LCFI27:
 721              		.cfi_def_cfa_offset 8
 722              		.cfi_offset 7, -8
 723              		.cfi_offset 14, -4
 724 0002 84B0     		sub	sp, sp, #16
 725              	.LCFI28:
 726              		.cfi_def_cfa_offset 24
 727 0004 00AF     		add	r7, sp, #0
 728              	.LCFI29:
 729              		.cfi_def_cfa_register 7
 730 0006 7860     		str	r0, [r7, #4]
 498:App/STM32F4-Discovery/Libraries/STM32F4xx_StdPeriph_Driver/src/stm32f4xx_sdio.c ****   uint32_t tmpreg = 0;
 731              		.loc 1 498 0
 732 0008 0023     		movs	r3, #0
 733 000a FB60     		str	r3, [r7, #12]
 499:App/STM32F4-Discovery/Libraries/STM32F4xx_StdPeriph_Driver/src/stm32f4xx_sdio.c ****   
 500:App/STM32F4-Discovery/Libraries/STM32F4xx_StdPeriph_Driver/src/stm32f4xx_sdio.c ****   /* Check the parameters */
 501:App/STM32F4-Discovery/Libraries/STM32F4xx_StdPeriph_Driver/src/stm32f4xx_sdio.c ****   assert_param(IS_SDIO_DATA_LENGTH(SDIO_DataInitStruct->SDIO_DataLength));
 734              		.loc 1 501 0
 735 000c 7B68     		ldr	r3, [r7, #4]
 736 000e 5B68     		ldr	r3, [r3, #4]
 737 0010 B3F1007F 		cmp	r3, #33554432
 738 0014 04D3     		bcc	.L41
 739              		.loc 1 501 0 is_stmt 0 discriminator 1
 740 0016 4848     		ldr	r0, .L46
 741 0018 40F2F511 		movw	r1, #501
 742 001c FFF7FEFF 		bl	assert_failed
 743              	.L41:
 502:App/STM32F4-Discovery/Libraries/STM32F4xx_StdPeriph_Driver/src/stm32f4xx_sdio.c ****   assert_param(IS_SDIO_BLOCK_SIZE(SDIO_DataInitStruct->SDIO_DataBlockSize));
 744              		.loc 1 502 0 is_stmt 1
 745 0020 7B68     		ldr	r3, [r7, #4]
 746 0022 9B68     		ldr	r3, [r3, #8]
 747 0024 002B     		cmp	r3, #0
 748 0026 3CD0     		beq	.L42
 749              		.loc 1 502 0 is_stmt 0 discriminator 1
 750 0028 7B68     		ldr	r3, [r7, #4]
 751 002a 9B68     		ldr	r3, [r3, #8]
 752 002c 102B     		cmp	r3, #16
 753 002e 38D0     		beq	.L42
 754 0030 7B68     		ldr	r3, [r7, #4]
 755 0032 9B68     		ldr	r3, [r3, #8]
 756 0034 202B     		cmp	r3, #32
 757 0036 34D0     		beq	.L42
 758 0038 7B68     		ldr	r3, [r7, #4]
 759 003a 9B68     		ldr	r3, [r3, #8]
 760 003c 302B     		cmp	r3, #48
 761 003e 30D0     		beq	.L42
 762 0040 7B68     		ldr	r3, [r7, #4]
 763 0042 9B68     		ldr	r3, [r3, #8]
 764 0044 402B     		cmp	r3, #64
 765 0046 2CD0     		beq	.L42
 766 0048 7B68     		ldr	r3, [r7, #4]
 767 004a 9B68     		ldr	r3, [r3, #8]
 768 004c 502B     		cmp	r3, #80
 769 004e 28D0     		beq	.L42
 770 0050 7B68     		ldr	r3, [r7, #4]
 771 0052 9B68     		ldr	r3, [r3, #8]
 772 0054 602B     		cmp	r3, #96
 773 0056 24D0     		beq	.L42
 774 0058 7B68     		ldr	r3, [r7, #4]
 775 005a 9B68     		ldr	r3, [r3, #8]
 776 005c 702B     		cmp	r3, #112
 777 005e 20D0     		beq	.L42
 778 0060 7B68     		ldr	r3, [r7, #4]
 779 0062 9B68     		ldr	r3, [r3, #8]
 780 0064 802B     		cmp	r3, #128
 781 0066 1CD0     		beq	.L42
 782 0068 7B68     		ldr	r3, [r7, #4]
 783 006a 9B68     		ldr	r3, [r3, #8]
 784 006c 902B     		cmp	r3, #144
 785 006e 18D0     		beq	.L42
 786 0070 7B68     		ldr	r3, [r7, #4]
 787 0072 9B68     		ldr	r3, [r3, #8]
 788 0074 A02B     		cmp	r3, #160
 789 0076 14D0     		beq	.L42
 790 0078 7B68     		ldr	r3, [r7, #4]
 791 007a 9B68     		ldr	r3, [r3, #8]
 792 007c B02B     		cmp	r3, #176
 793 007e 10D0     		beq	.L42
 794 0080 7B68     		ldr	r3, [r7, #4]
 795 0082 9B68     		ldr	r3, [r3, #8]
 796 0084 C02B     		cmp	r3, #192
 797 0086 0CD0     		beq	.L42
 798 0088 7B68     		ldr	r3, [r7, #4]
 799 008a 9B68     		ldr	r3, [r3, #8]
 800 008c D02B     		cmp	r3, #208
 801 008e 08D0     		beq	.L42
 802 0090 7B68     		ldr	r3, [r7, #4]
 803 0092 9B68     		ldr	r3, [r3, #8]
 804 0094 E02B     		cmp	r3, #224
 805 0096 04D0     		beq	.L42
 806 0098 2748     		ldr	r0, .L46
 807 009a 4FF4FB71 		mov	r1, #502
 808 009e FFF7FEFF 		bl	assert_failed
 809              	.L42:
 503:App/STM32F4-Discovery/Libraries/STM32F4xx_StdPeriph_Driver/src/stm32f4xx_sdio.c ****   assert_param(IS_SDIO_TRANSFER_DIR(SDIO_DataInitStruct->SDIO_TransferDir));
 810              		.loc 1 503 0 is_stmt 1
 811 00a2 7B68     		ldr	r3, [r7, #4]
 812 00a4 DB68     		ldr	r3, [r3, #12]
 813 00a6 002B     		cmp	r3, #0
 814 00a8 08D0     		beq	.L43
 815              		.loc 1 503 0 is_stmt 0 discriminator 1
 816 00aa 7B68     		ldr	r3, [r7, #4]
 817 00ac DB68     		ldr	r3, [r3, #12]
 818 00ae 022B     		cmp	r3, #2
 819 00b0 04D0     		beq	.L43
 820 00b2 2148     		ldr	r0, .L46
 821 00b4 40F2F711 		movw	r1, #503
 822 00b8 FFF7FEFF 		bl	assert_failed
 823              	.L43:
 504:App/STM32F4-Discovery/Libraries/STM32F4xx_StdPeriph_Driver/src/stm32f4xx_sdio.c ****   assert_param(IS_SDIO_TRANSFER_MODE(SDIO_DataInitStruct->SDIO_TransferMode));
 824              		.loc 1 504 0 is_stmt 1
 825 00bc 7B68     		ldr	r3, [r7, #4]
 826 00be 1B69     		ldr	r3, [r3, #16]
 827 00c0 042B     		cmp	r3, #4
 828 00c2 08D0     		beq	.L44
 829              		.loc 1 504 0 is_stmt 0 discriminator 1
 830 00c4 7B68     		ldr	r3, [r7, #4]
 831 00c6 1B69     		ldr	r3, [r3, #16]
 832 00c8 002B     		cmp	r3, #0
 833 00ca 04D0     		beq	.L44
 834 00cc 1A48     		ldr	r0, .L46
 835 00ce 4FF4FC71 		mov	r1, #504
 836 00d2 FFF7FEFF 		bl	assert_failed
 837              	.L44:
 505:App/STM32F4-Discovery/Libraries/STM32F4xx_StdPeriph_Driver/src/stm32f4xx_sdio.c ****   assert_param(IS_SDIO_DPSM(SDIO_DataInitStruct->SDIO_DPSM));
 838              		.loc 1 505 0 is_stmt 1
 839 00d6 7B68     		ldr	r3, [r7, #4]
 840 00d8 5B69     		ldr	r3, [r3, #20]
 841 00da 012B     		cmp	r3, #1
 842 00dc 08D0     		beq	.L45
 843              		.loc 1 505 0 is_stmt 0 discriminator 1
 844 00de 7B68     		ldr	r3, [r7, #4]
 845 00e0 5B69     		ldr	r3, [r3, #20]
 846 00e2 002B     		cmp	r3, #0
 847 00e4 04D0     		beq	.L45
 848 00e6 1448     		ldr	r0, .L46
 849 00e8 40F2F911 		movw	r1, #505
 850 00ec FFF7FEFF 		bl	assert_failed
 851              	.L45:
 506:App/STM32F4-Discovery/Libraries/STM32F4xx_StdPeriph_Driver/src/stm32f4xx_sdio.c **** 
 507:App/STM32F4-Discovery/Libraries/STM32F4xx_StdPeriph_Driver/src/stm32f4xx_sdio.c **** /*---------------------------- SDIO DTIMER Configuration ---------------------*/
 508:App/STM32F4-Discovery/Libraries/STM32F4xx_StdPeriph_Driver/src/stm32f4xx_sdio.c ****   /* Set the SDIO Data TimeOut value */
 509:App/STM32F4-Discovery/Libraries/STM32F4xx_StdPeriph_Driver/src/stm32f4xx_sdio.c ****   SDIO->DTIMER = SDIO_DataInitStruct->SDIO_DataTimeOut;
 852              		.loc 1 509 0 is_stmt 1
 853 00f0 124B     		ldr	r3, .L46+4
 854 00f2 7A68     		ldr	r2, [r7, #4]
 855 00f4 1268     		ldr	r2, [r2]
 856 00f6 5A62     		str	r2, [r3, #36]
 510:App/STM32F4-Discovery/Libraries/STM32F4xx_StdPeriph_Driver/src/stm32f4xx_sdio.c **** 
 511:App/STM32F4-Discovery/Libraries/STM32F4xx_StdPeriph_Driver/src/stm32f4xx_sdio.c **** /*---------------------------- SDIO DLEN Configuration -----------------------*/
 512:App/STM32F4-Discovery/Libraries/STM32F4xx_StdPeriph_Driver/src/stm32f4xx_sdio.c ****   /* Set the SDIO DataLength value */
 513:App/STM32F4-Discovery/Libraries/STM32F4xx_StdPeriph_Driver/src/stm32f4xx_sdio.c ****   SDIO->DLEN = SDIO_DataInitStruct->SDIO_DataLength;
 857              		.loc 1 513 0
 858 00f8 104B     		ldr	r3, .L46+4
 859 00fa 7A68     		ldr	r2, [r7, #4]
 860 00fc 5268     		ldr	r2, [r2, #4]
 861 00fe 9A62     		str	r2, [r3, #40]
 514:App/STM32F4-Discovery/Libraries/STM32F4xx_StdPeriph_Driver/src/stm32f4xx_sdio.c **** 
 515:App/STM32F4-Discovery/Libraries/STM32F4xx_StdPeriph_Driver/src/stm32f4xx_sdio.c **** /*---------------------------- SDIO DCTRL Configuration ----------------------*/  
 516:App/STM32F4-Discovery/Libraries/STM32F4xx_StdPeriph_Driver/src/stm32f4xx_sdio.c ****   /* Get the SDIO DCTRL value */
 517:App/STM32F4-Discovery/Libraries/STM32F4xx_StdPeriph_Driver/src/stm32f4xx_sdio.c ****   tmpreg = SDIO->DCTRL;
 862              		.loc 1 517 0
 863 0100 0E4B     		ldr	r3, .L46+4
 864 0102 DB6A     		ldr	r3, [r3, #44]
 865 0104 FB60     		str	r3, [r7, #12]
 518:App/STM32F4-Discovery/Libraries/STM32F4xx_StdPeriph_Driver/src/stm32f4xx_sdio.c ****   /* Clear DEN, DTMODE, DTDIR and DBCKSIZE bits */
 519:App/STM32F4-Discovery/Libraries/STM32F4xx_StdPeriph_Driver/src/stm32f4xx_sdio.c ****   tmpreg &= DCTRL_CLEAR_MASK;
 866              		.loc 1 519 0
 867 0106 FB68     		ldr	r3, [r7, #12]
 868 0108 23F0F703 		bic	r3, r3, #247
 869 010c FB60     		str	r3, [r7, #12]
 520:App/STM32F4-Discovery/Libraries/STM32F4xx_StdPeriph_Driver/src/stm32f4xx_sdio.c ****   /* Set DEN bit according to SDIO_DPSM value */
 521:App/STM32F4-Discovery/Libraries/STM32F4xx_StdPeriph_Driver/src/stm32f4xx_sdio.c ****   /* Set DTMODE bit according to SDIO_TransferMode value */
 522:App/STM32F4-Discovery/Libraries/STM32F4xx_StdPeriph_Driver/src/stm32f4xx_sdio.c ****   /* Set DTDIR bit according to SDIO_TransferDir value */
 523:App/STM32F4-Discovery/Libraries/STM32F4xx_StdPeriph_Driver/src/stm32f4xx_sdio.c ****   /* Set DBCKSIZE bits according to SDIO_DataBlockSize value */
 524:App/STM32F4-Discovery/Libraries/STM32F4xx_StdPeriph_Driver/src/stm32f4xx_sdio.c ****   tmpreg |= (uint32_t)SDIO_DataInitStruct->SDIO_DataBlockSize | SDIO_DataInitStruct->SDIO_TransferD
 870              		.loc 1 524 0
 871 010e 7B68     		ldr	r3, [r7, #4]
 872 0110 9A68     		ldr	r2, [r3, #8]
 873 0112 7B68     		ldr	r3, [r7, #4]
 874 0114 DB68     		ldr	r3, [r3, #12]
 875 0116 1A43     		orrs	r2, r2, r3
 525:App/STM32F4-Discovery/Libraries/STM32F4xx_StdPeriph_Driver/src/stm32f4xx_sdio.c ****            | SDIO_DataInitStruct->SDIO_TransferMode | SDIO_DataInitStruct->SDIO_DPSM;
 876              		.loc 1 525 0
 877 0118 7B68     		ldr	r3, [r7, #4]
 878 011a 1B69     		ldr	r3, [r3, #16]
 879 011c 1A43     		orrs	r2, r2, r3
 880 011e 7B68     		ldr	r3, [r7, #4]
 881 0120 5B69     		ldr	r3, [r3, #20]
 882 0122 1343     		orrs	r3, r3, r2
 524:App/STM32F4-Discovery/Libraries/STM32F4xx_StdPeriph_Driver/src/stm32f4xx_sdio.c ****   tmpreg |= (uint32_t)SDIO_DataInitStruct->SDIO_DataBlockSize | SDIO_DataInitStruct->SDIO_TransferD
 883              		.loc 1 524 0
 884 0124 FA68     		ldr	r2, [r7, #12]
 885 0126 1343     		orrs	r3, r3, r2
 886 0128 FB60     		str	r3, [r7, #12]
 526:App/STM32F4-Discovery/Libraries/STM32F4xx_StdPeriph_Driver/src/stm32f4xx_sdio.c **** 
 527:App/STM32F4-Discovery/Libraries/STM32F4xx_StdPeriph_Driver/src/stm32f4xx_sdio.c ****   /* Write to SDIO DCTRL */
 528:App/STM32F4-Discovery/Libraries/STM32F4xx_StdPeriph_Driver/src/stm32f4xx_sdio.c ****   SDIO->DCTRL = tmpreg;
 887              		.loc 1 528 0
 888 012a 044B     		ldr	r3, .L46+4
 889 012c FA68     		ldr	r2, [r7, #12]
 890 012e DA62     		str	r2, [r3, #44]
 529:App/STM32F4-Discovery/Libraries/STM32F4xx_StdPeriph_Driver/src/stm32f4xx_sdio.c **** }
 891              		.loc 1 529 0
 892 0130 1037     		adds	r7, r7, #16
 893 0132 BD46     		mov	sp, r7
 894              		@ sp needed
 895 0134 80BD     		pop	{r7, pc}
 896              	.L47:
 897 0136 00BF     		.align	2
 898              	.L46:
 899 0138 00000000 		.word	.LC0
 900 013c 002C0140 		.word	1073818624
 901              		.cfi_endproc
 902              	.LFE120:
 904              		.section	.text.SDIO_DataStructInit,"ax",%progbits
 905              		.align	2
 906              		.global	SDIO_DataStructInit
 907              		.thumb
 908              		.thumb_func
 910              	SDIO_DataStructInit:
 911              	.LFB121:
 530:App/STM32F4-Discovery/Libraries/STM32F4xx_StdPeriph_Driver/src/stm32f4xx_sdio.c **** 
 531:App/STM32F4-Discovery/Libraries/STM32F4xx_StdPeriph_Driver/src/stm32f4xx_sdio.c **** /**
 532:App/STM32F4-Discovery/Libraries/STM32F4xx_StdPeriph_Driver/src/stm32f4xx_sdio.c ****   * @brief  Fills each SDIO_DataInitStruct member with its default value.
 533:App/STM32F4-Discovery/Libraries/STM32F4xx_StdPeriph_Driver/src/stm32f4xx_sdio.c ****   * @param  SDIO_DataInitStruct: pointer to an SDIO_DataInitTypeDef structure 
 534:App/STM32F4-Discovery/Libraries/STM32F4xx_StdPeriph_Driver/src/stm32f4xx_sdio.c ****   *         which will be initialized.
 535:App/STM32F4-Discovery/Libraries/STM32F4xx_StdPeriph_Driver/src/stm32f4xx_sdio.c ****   * @retval None
 536:App/STM32F4-Discovery/Libraries/STM32F4xx_StdPeriph_Driver/src/stm32f4xx_sdio.c ****   */
 537:App/STM32F4-Discovery/Libraries/STM32F4xx_StdPeriph_Driver/src/stm32f4xx_sdio.c **** void SDIO_DataStructInit(SDIO_DataInitTypeDef* SDIO_DataInitStruct)
 538:App/STM32F4-Discovery/Libraries/STM32F4xx_StdPeriph_Driver/src/stm32f4xx_sdio.c **** {
 912              		.loc 1 538 0
 913              		.cfi_startproc
 914              		@ args = 0, pretend = 0, frame = 8
 915              		@ frame_needed = 1, uses_anonymous_args = 0
 916              		@ link register save eliminated.
 917 0000 80B4     		push	{r7}
 918              	.LCFI30:
 919              		.cfi_def_cfa_offset 4
 920              		.cfi_offset 7, -4
 921 0002 83B0     		sub	sp, sp, #12
 922              	.LCFI31:
 923              		.cfi_def_cfa_offset 16
 924 0004 00AF     		add	r7, sp, #0
 925              	.LCFI32:
 926              		.cfi_def_cfa_register 7
 927 0006 7860     		str	r0, [r7, #4]
 539:App/STM32F4-Discovery/Libraries/STM32F4xx_StdPeriph_Driver/src/stm32f4xx_sdio.c ****   /* SDIO_DataInitStruct members default value */
 540:App/STM32F4-Discovery/Libraries/STM32F4xx_StdPeriph_Driver/src/stm32f4xx_sdio.c ****   SDIO_DataInitStruct->SDIO_DataTimeOut = 0xFFFFFFFF;
 928              		.loc 1 540 0
 929 0008 7B68     		ldr	r3, [r7, #4]
 930 000a 4FF0FF32 		mov	r2, #-1
 931 000e 1A60     		str	r2, [r3]
 541:App/STM32F4-Discovery/Libraries/STM32F4xx_StdPeriph_Driver/src/stm32f4xx_sdio.c ****   SDIO_DataInitStruct->SDIO_DataLength = 0x00;
 932              		.loc 1 541 0
 933 0010 7B68     		ldr	r3, [r7, #4]
 934 0012 0022     		movs	r2, #0
 935 0014 5A60     		str	r2, [r3, #4]
 542:App/STM32F4-Discovery/Libraries/STM32F4xx_StdPeriph_Driver/src/stm32f4xx_sdio.c ****   SDIO_DataInitStruct->SDIO_DataBlockSize = SDIO_DataBlockSize_1b;
 936              		.loc 1 542 0
 937 0016 7B68     		ldr	r3, [r7, #4]
 938 0018 0022     		movs	r2, #0
 939 001a 9A60     		str	r2, [r3, #8]
 543:App/STM32F4-Discovery/Libraries/STM32F4xx_StdPeriph_Driver/src/stm32f4xx_sdio.c ****   SDIO_DataInitStruct->SDIO_TransferDir = SDIO_TransferDir_ToCard;
 940              		.loc 1 543 0
 941 001c 7B68     		ldr	r3, [r7, #4]
 942 001e 0022     		movs	r2, #0
 943 0020 DA60     		str	r2, [r3, #12]
 544:App/STM32F4-Discovery/Libraries/STM32F4xx_StdPeriph_Driver/src/stm32f4xx_sdio.c ****   SDIO_DataInitStruct->SDIO_TransferMode = SDIO_TransferMode_Block;  
 944              		.loc 1 544 0
 945 0022 7B68     		ldr	r3, [r7, #4]
 946 0024 0022     		movs	r2, #0
 947 0026 1A61     		str	r2, [r3, #16]
 545:App/STM32F4-Discovery/Libraries/STM32F4xx_StdPeriph_Driver/src/stm32f4xx_sdio.c ****   SDIO_DataInitStruct->SDIO_DPSM = SDIO_DPSM_Disable;
 948              		.loc 1 545 0
 949 0028 7B68     		ldr	r3, [r7, #4]
 950 002a 0022     		movs	r2, #0
 951 002c 5A61     		str	r2, [r3, #20]
 546:App/STM32F4-Discovery/Libraries/STM32F4xx_StdPeriph_Driver/src/stm32f4xx_sdio.c **** }
 952              		.loc 1 546 0
 953 002e 0C37     		adds	r7, r7, #12
 954 0030 BD46     		mov	sp, r7
 955              		@ sp needed
 956 0032 5DF8047B 		ldr	r7, [sp], #4
 957 0036 7047     		bx	lr
 958              		.cfi_endproc
 959              	.LFE121:
 961              		.section	.text.SDIO_GetDataCounter,"ax",%progbits
 962              		.align	2
 963              		.global	SDIO_GetDataCounter
 964              		.thumb
 965              		.thumb_func
 967              	SDIO_GetDataCounter:
 968              	.LFB122:
 547:App/STM32F4-Discovery/Libraries/STM32F4xx_StdPeriph_Driver/src/stm32f4xx_sdio.c **** 
 548:App/STM32F4-Discovery/Libraries/STM32F4xx_StdPeriph_Driver/src/stm32f4xx_sdio.c **** /**
 549:App/STM32F4-Discovery/Libraries/STM32F4xx_StdPeriph_Driver/src/stm32f4xx_sdio.c ****   * @brief  Returns number of remaining data bytes to be transferred.
 550:App/STM32F4-Discovery/Libraries/STM32F4xx_StdPeriph_Driver/src/stm32f4xx_sdio.c ****   * @param  None
 551:App/STM32F4-Discovery/Libraries/STM32F4xx_StdPeriph_Driver/src/stm32f4xx_sdio.c ****   * @retval Number of remaining data bytes to be transferred
 552:App/STM32F4-Discovery/Libraries/STM32F4xx_StdPeriph_Driver/src/stm32f4xx_sdio.c ****   */
 553:App/STM32F4-Discovery/Libraries/STM32F4xx_StdPeriph_Driver/src/stm32f4xx_sdio.c **** uint32_t SDIO_GetDataCounter(void)
 554:App/STM32F4-Discovery/Libraries/STM32F4xx_StdPeriph_Driver/src/stm32f4xx_sdio.c **** { 
 969              		.loc 1 554 0
 970              		.cfi_startproc
 971              		@ args = 0, pretend = 0, frame = 0
 972              		@ frame_needed = 1, uses_anonymous_args = 0
 973              		@ link register save eliminated.
 974 0000 80B4     		push	{r7}
 975              	.LCFI33:
 976              		.cfi_def_cfa_offset 4
 977              		.cfi_offset 7, -4
 978 0002 00AF     		add	r7, sp, #0
 979              	.LCFI34:
 980              		.cfi_def_cfa_register 7
 555:App/STM32F4-Discovery/Libraries/STM32F4xx_StdPeriph_Driver/src/stm32f4xx_sdio.c ****   return SDIO->DCOUNT;
 981              		.loc 1 555 0
 982 0004 034B     		ldr	r3, .L51
 983 0006 1B6B     		ldr	r3, [r3, #48]
 556:App/STM32F4-Discovery/Libraries/STM32F4xx_StdPeriph_Driver/src/stm32f4xx_sdio.c **** }
 984              		.loc 1 556 0
 985 0008 1846     		mov	r0, r3
 986 000a BD46     		mov	sp, r7
 987              		@ sp needed
 988 000c 5DF8047B 		ldr	r7, [sp], #4
 989 0010 7047     		bx	lr
 990              	.L52:
 991 0012 00BF     		.align	2
 992              	.L51:
 993 0014 002C0140 		.word	1073818624
 994              		.cfi_endproc
 995              	.LFE122:
 997              		.section	.text.SDIO_ReadData,"ax",%progbits
 998              		.align	2
 999              		.global	SDIO_ReadData
 1000              		.thumb
 1001              		.thumb_func
 1003              	SDIO_ReadData:
 1004              	.LFB123:
 557:App/STM32F4-Discovery/Libraries/STM32F4xx_StdPeriph_Driver/src/stm32f4xx_sdio.c **** 
 558:App/STM32F4-Discovery/Libraries/STM32F4xx_StdPeriph_Driver/src/stm32f4xx_sdio.c **** /**
 559:App/STM32F4-Discovery/Libraries/STM32F4xx_StdPeriph_Driver/src/stm32f4xx_sdio.c ****   * @brief  Read one data word from Rx FIFO.
 560:App/STM32F4-Discovery/Libraries/STM32F4xx_StdPeriph_Driver/src/stm32f4xx_sdio.c ****   * @param  None
 561:App/STM32F4-Discovery/Libraries/STM32F4xx_StdPeriph_Driver/src/stm32f4xx_sdio.c ****   * @retval Data received
 562:App/STM32F4-Discovery/Libraries/STM32F4xx_StdPeriph_Driver/src/stm32f4xx_sdio.c ****   */
 563:App/STM32F4-Discovery/Libraries/STM32F4xx_StdPeriph_Driver/src/stm32f4xx_sdio.c **** uint32_t SDIO_ReadData(void)
 564:App/STM32F4-Discovery/Libraries/STM32F4xx_StdPeriph_Driver/src/stm32f4xx_sdio.c **** { 
 1005              		.loc 1 564 0
 1006              		.cfi_startproc
 1007              		@ args = 0, pretend = 0, frame = 0
 1008              		@ frame_needed = 1, uses_anonymous_args = 0
 1009              		@ link register save eliminated.
 1010 0000 80B4     		push	{r7}
 1011              	.LCFI35:
 1012              		.cfi_def_cfa_offset 4
 1013              		.cfi_offset 7, -4
 1014 0002 00AF     		add	r7, sp, #0
 1015              	.LCFI36:
 1016              		.cfi_def_cfa_register 7
 565:App/STM32F4-Discovery/Libraries/STM32F4xx_StdPeriph_Driver/src/stm32f4xx_sdio.c ****   return SDIO->FIFO;
 1017              		.loc 1 565 0
 1018 0004 034B     		ldr	r3, .L55
 1019 0006 D3F88030 		ldr	r3, [r3, #128]
 566:App/STM32F4-Discovery/Libraries/STM32F4xx_StdPeriph_Driver/src/stm32f4xx_sdio.c **** }
 1020              		.loc 1 566 0
 1021 000a 1846     		mov	r0, r3
 1022 000c BD46     		mov	sp, r7
 1023              		@ sp needed
 1024 000e 5DF8047B 		ldr	r7, [sp], #4
 1025 0012 7047     		bx	lr
 1026              	.L56:
 1027              		.align	2
 1028              	.L55:
 1029 0014 002C0140 		.word	1073818624
 1030              		.cfi_endproc
 1031              	.LFE123:
 1033              		.section	.text.SDIO_WriteData,"ax",%progbits
 1034              		.align	2
 1035              		.global	SDIO_WriteData
 1036              		.thumb
 1037              		.thumb_func
 1039              	SDIO_WriteData:
 1040              	.LFB124:
 567:App/STM32F4-Discovery/Libraries/STM32F4xx_StdPeriph_Driver/src/stm32f4xx_sdio.c **** 
 568:App/STM32F4-Discovery/Libraries/STM32F4xx_StdPeriph_Driver/src/stm32f4xx_sdio.c **** /**
 569:App/STM32F4-Discovery/Libraries/STM32F4xx_StdPeriph_Driver/src/stm32f4xx_sdio.c ****   * @brief  Write one data word to Tx FIFO.
 570:App/STM32F4-Discovery/Libraries/STM32F4xx_StdPeriph_Driver/src/stm32f4xx_sdio.c ****   * @param  Data: 32-bit data word to write.
 571:App/STM32F4-Discovery/Libraries/STM32F4xx_StdPeriph_Driver/src/stm32f4xx_sdio.c ****   * @retval None
 572:App/STM32F4-Discovery/Libraries/STM32F4xx_StdPeriph_Driver/src/stm32f4xx_sdio.c ****   */
 573:App/STM32F4-Discovery/Libraries/STM32F4xx_StdPeriph_Driver/src/stm32f4xx_sdio.c **** void SDIO_WriteData(uint32_t Data)
 574:App/STM32F4-Discovery/Libraries/STM32F4xx_StdPeriph_Driver/src/stm32f4xx_sdio.c **** { 
 1041              		.loc 1 574 0
 1042              		.cfi_startproc
 1043              		@ args = 0, pretend = 0, frame = 8
 1044              		@ frame_needed = 1, uses_anonymous_args = 0
 1045              		@ link register save eliminated.
 1046 0000 80B4     		push	{r7}
 1047              	.LCFI37:
 1048              		.cfi_def_cfa_offset 4
 1049              		.cfi_offset 7, -4
 1050 0002 83B0     		sub	sp, sp, #12
 1051              	.LCFI38:
 1052              		.cfi_def_cfa_offset 16
 1053 0004 00AF     		add	r7, sp, #0
 1054              	.LCFI39:
 1055              		.cfi_def_cfa_register 7
 1056 0006 7860     		str	r0, [r7, #4]
 575:App/STM32F4-Discovery/Libraries/STM32F4xx_StdPeriph_Driver/src/stm32f4xx_sdio.c ****   SDIO->FIFO = Data;
 1057              		.loc 1 575 0
 1058 0008 044B     		ldr	r3, .L58
 1059 000a 7A68     		ldr	r2, [r7, #4]
 1060 000c C3F88020 		str	r2, [r3, #128]
 576:App/STM32F4-Discovery/Libraries/STM32F4xx_StdPeriph_Driver/src/stm32f4xx_sdio.c **** }
 1061              		.loc 1 576 0
 1062 0010 0C37     		adds	r7, r7, #12
 1063 0012 BD46     		mov	sp, r7
 1064              		@ sp needed
 1065 0014 5DF8047B 		ldr	r7, [sp], #4
 1066 0018 7047     		bx	lr
 1067              	.L59:
 1068 001a 00BF     		.align	2
 1069              	.L58:
 1070 001c 002C0140 		.word	1073818624
 1071              		.cfi_endproc
 1072              	.LFE124:
 1074              		.section	.text.SDIO_GetFIFOCount,"ax",%progbits
 1075              		.align	2
 1076              		.global	SDIO_GetFIFOCount
 1077              		.thumb
 1078              		.thumb_func
 1080              	SDIO_GetFIFOCount:
 1081              	.LFB125:
 577:App/STM32F4-Discovery/Libraries/STM32F4xx_StdPeriph_Driver/src/stm32f4xx_sdio.c **** 
 578:App/STM32F4-Discovery/Libraries/STM32F4xx_StdPeriph_Driver/src/stm32f4xx_sdio.c **** /**
 579:App/STM32F4-Discovery/Libraries/STM32F4xx_StdPeriph_Driver/src/stm32f4xx_sdio.c ****   * @brief  Returns the number of words left to be written to or read from FIFO.	
 580:App/STM32F4-Discovery/Libraries/STM32F4xx_StdPeriph_Driver/src/stm32f4xx_sdio.c ****   * @param  None
 581:App/STM32F4-Discovery/Libraries/STM32F4xx_StdPeriph_Driver/src/stm32f4xx_sdio.c ****   * @retval Remaining number of words.
 582:App/STM32F4-Discovery/Libraries/STM32F4xx_StdPeriph_Driver/src/stm32f4xx_sdio.c ****   */
 583:App/STM32F4-Discovery/Libraries/STM32F4xx_StdPeriph_Driver/src/stm32f4xx_sdio.c **** uint32_t SDIO_GetFIFOCount(void)
 584:App/STM32F4-Discovery/Libraries/STM32F4xx_StdPeriph_Driver/src/stm32f4xx_sdio.c **** { 
 1082              		.loc 1 584 0
 1083              		.cfi_startproc
 1084              		@ args = 0, pretend = 0, frame = 0
 1085              		@ frame_needed = 1, uses_anonymous_args = 0
 1086              		@ link register save eliminated.
 1087 0000 80B4     		push	{r7}
 1088              	.LCFI40:
 1089              		.cfi_def_cfa_offset 4
 1090              		.cfi_offset 7, -4
 1091 0002 00AF     		add	r7, sp, #0
 1092              	.LCFI41:
 1093              		.cfi_def_cfa_register 7
 585:App/STM32F4-Discovery/Libraries/STM32F4xx_StdPeriph_Driver/src/stm32f4xx_sdio.c ****   return SDIO->FIFOCNT;
 1094              		.loc 1 585 0
 1095 0004 034B     		ldr	r3, .L62
 1096 0006 9B6C     		ldr	r3, [r3, #72]
 586:App/STM32F4-Discovery/Libraries/STM32F4xx_StdPeriph_Driver/src/stm32f4xx_sdio.c **** }
 1097              		.loc 1 586 0
 1098 0008 1846     		mov	r0, r3
 1099 000a BD46     		mov	sp, r7
 1100              		@ sp needed
 1101 000c 5DF8047B 		ldr	r7, [sp], #4
 1102 0010 7047     		bx	lr
 1103              	.L63:
 1104 0012 00BF     		.align	2
 1105              	.L62:
 1106 0014 002C0140 		.word	1073818624
 1107              		.cfi_endproc
 1108              	.LFE125:
 1110              		.section	.text.SDIO_StartSDIOReadWait,"ax",%progbits
 1111              		.align	2
 1112              		.global	SDIO_StartSDIOReadWait
 1113              		.thumb
 1114              		.thumb_func
 1116              	SDIO_StartSDIOReadWait:
 1117              	.LFB126:
 587:App/STM32F4-Discovery/Libraries/STM32F4xx_StdPeriph_Driver/src/stm32f4xx_sdio.c **** 
 588:App/STM32F4-Discovery/Libraries/STM32F4xx_StdPeriph_Driver/src/stm32f4xx_sdio.c **** /**
 589:App/STM32F4-Discovery/Libraries/STM32F4xx_StdPeriph_Driver/src/stm32f4xx_sdio.c ****   * @}
 590:App/STM32F4-Discovery/Libraries/STM32F4xx_StdPeriph_Driver/src/stm32f4xx_sdio.c ****   */
 591:App/STM32F4-Discovery/Libraries/STM32F4xx_StdPeriph_Driver/src/stm32f4xx_sdio.c **** 
 592:App/STM32F4-Discovery/Libraries/STM32F4xx_StdPeriph_Driver/src/stm32f4xx_sdio.c **** /** @defgroup SDIO_Group4 SDIO IO Cards mode management functions
 593:App/STM32F4-Discovery/Libraries/STM32F4xx_StdPeriph_Driver/src/stm32f4xx_sdio.c ****  *  @brief   SDIO IO Cards mode management functions
 594:App/STM32F4-Discovery/Libraries/STM32F4xx_StdPeriph_Driver/src/stm32f4xx_sdio.c ****  *
 595:App/STM32F4-Discovery/Libraries/STM32F4xx_StdPeriph_Driver/src/stm32f4xx_sdio.c **** @verbatim   
 596:App/STM32F4-Discovery/Libraries/STM32F4xx_StdPeriph_Driver/src/stm32f4xx_sdio.c ****  ===============================================================================
 597:App/STM32F4-Discovery/Libraries/STM32F4xx_StdPeriph_Driver/src/stm32f4xx_sdio.c ****               SDIO IO Cards mode management functions
 598:App/STM32F4-Discovery/Libraries/STM32F4xx_StdPeriph_Driver/src/stm32f4xx_sdio.c ****  ===============================================================================  
 599:App/STM32F4-Discovery/Libraries/STM32F4xx_StdPeriph_Driver/src/stm32f4xx_sdio.c **** 
 600:App/STM32F4-Discovery/Libraries/STM32F4xx_StdPeriph_Driver/src/stm32f4xx_sdio.c ****   This section provide functions allowing to program and read the SDIO IO Cards.
 601:App/STM32F4-Discovery/Libraries/STM32F4xx_StdPeriph_Driver/src/stm32f4xx_sdio.c **** 
 602:App/STM32F4-Discovery/Libraries/STM32F4xx_StdPeriph_Driver/src/stm32f4xx_sdio.c **** @endverbatim
 603:App/STM32F4-Discovery/Libraries/STM32F4xx_StdPeriph_Driver/src/stm32f4xx_sdio.c ****   * @{
 604:App/STM32F4-Discovery/Libraries/STM32F4xx_StdPeriph_Driver/src/stm32f4xx_sdio.c ****   */
 605:App/STM32F4-Discovery/Libraries/STM32F4xx_StdPeriph_Driver/src/stm32f4xx_sdio.c **** 
 606:App/STM32F4-Discovery/Libraries/STM32F4xx_StdPeriph_Driver/src/stm32f4xx_sdio.c **** /**
 607:App/STM32F4-Discovery/Libraries/STM32F4xx_StdPeriph_Driver/src/stm32f4xx_sdio.c ****   * @brief  Starts the SD I/O Read Wait operation.	
 608:App/STM32F4-Discovery/Libraries/STM32F4xx_StdPeriph_Driver/src/stm32f4xx_sdio.c ****   * @param  NewState: new state of the Start SDIO Read Wait operation. 
 609:App/STM32F4-Discovery/Libraries/STM32F4xx_StdPeriph_Driver/src/stm32f4xx_sdio.c ****   *         This parameter can be: ENABLE or DISABLE.
 610:App/STM32F4-Discovery/Libraries/STM32F4xx_StdPeriph_Driver/src/stm32f4xx_sdio.c ****   * @retval None
 611:App/STM32F4-Discovery/Libraries/STM32F4xx_StdPeriph_Driver/src/stm32f4xx_sdio.c ****   */
 612:App/STM32F4-Discovery/Libraries/STM32F4xx_StdPeriph_Driver/src/stm32f4xx_sdio.c **** void SDIO_StartSDIOReadWait(FunctionalState NewState)
 613:App/STM32F4-Discovery/Libraries/STM32F4xx_StdPeriph_Driver/src/stm32f4xx_sdio.c **** { 
 1118              		.loc 1 613 0
 1119              		.cfi_startproc
 1120              		@ args = 0, pretend = 0, frame = 8
 1121              		@ frame_needed = 1, uses_anonymous_args = 0
 1122 0000 80B5     		push	{r7, lr}
 1123              	.LCFI42:
 1124              		.cfi_def_cfa_offset 8
 1125              		.cfi_offset 7, -8
 1126              		.cfi_offset 14, -4
 1127 0002 82B0     		sub	sp, sp, #8
 1128              	.LCFI43:
 1129              		.cfi_def_cfa_offset 16
 1130 0004 00AF     		add	r7, sp, #0
 1131              	.LCFI44:
 1132              		.cfi_def_cfa_register 7
 1133 0006 0346     		mov	r3, r0
 1134 0008 FB71     		strb	r3, [r7, #7]
 614:App/STM32F4-Discovery/Libraries/STM32F4xx_StdPeriph_Driver/src/stm32f4xx_sdio.c ****   /* Check the parameters */
 615:App/STM32F4-Discovery/Libraries/STM32F4xx_StdPeriph_Driver/src/stm32f4xx_sdio.c ****   assert_param(IS_FUNCTIONAL_STATE(NewState));
 1135              		.loc 1 615 0
 1136 000a FB79     		ldrb	r3, [r7, #7]	@ zero_extendqisi2
 1137 000c 002B     		cmp	r3, #0
 1138 000e 07D0     		beq	.L65
 1139              		.loc 1 615 0 is_stmt 0 discriminator 1
 1140 0010 FB79     		ldrb	r3, [r7, #7]	@ zero_extendqisi2
 1141 0012 012B     		cmp	r3, #1
 1142 0014 04D0     		beq	.L65
 1143 0016 0548     		ldr	r0, .L66
 1144 0018 40F26721 		movw	r1, #615
 1145 001c FFF7FEFF 		bl	assert_failed
 1146              	.L65:
 616:App/STM32F4-Discovery/Libraries/STM32F4xx_StdPeriph_Driver/src/stm32f4xx_sdio.c ****   
 617:App/STM32F4-Discovery/Libraries/STM32F4xx_StdPeriph_Driver/src/stm32f4xx_sdio.c ****   *(__IO uint32_t *) DCTRL_RWSTART_BB = (uint32_t) NewState;
 1147              		.loc 1 617 0 is_stmt 1
 1148 0020 034B     		ldr	r3, .L66+4
 1149 0022 FA79     		ldrb	r2, [r7, #7]	@ zero_extendqisi2
 1150 0024 1A60     		str	r2, [r3]
 618:App/STM32F4-Discovery/Libraries/STM32F4xx_StdPeriph_Driver/src/stm32f4xx_sdio.c **** }
 1151              		.loc 1 618 0
 1152 0026 0837     		adds	r7, r7, #8
 1153 0028 BD46     		mov	sp, r7
 1154              		@ sp needed
 1155 002a 80BD     		pop	{r7, pc}
 1156              	.L67:
 1157              		.align	2
 1158              	.L66:
 1159 002c 00000000 		.word	.LC0
 1160 0030 A0852542 		.word	1109755296
 1161              		.cfi_endproc
 1162              	.LFE126:
 1164              		.section	.text.SDIO_StopSDIOReadWait,"ax",%progbits
 1165              		.align	2
 1166              		.global	SDIO_StopSDIOReadWait
 1167              		.thumb
 1168              		.thumb_func
 1170              	SDIO_StopSDIOReadWait:
 1171              	.LFB127:
 619:App/STM32F4-Discovery/Libraries/STM32F4xx_StdPeriph_Driver/src/stm32f4xx_sdio.c **** 
 620:App/STM32F4-Discovery/Libraries/STM32F4xx_StdPeriph_Driver/src/stm32f4xx_sdio.c **** /**
 621:App/STM32F4-Discovery/Libraries/STM32F4xx_StdPeriph_Driver/src/stm32f4xx_sdio.c ****   * @brief  Stops the SD I/O Read Wait operation.	
 622:App/STM32F4-Discovery/Libraries/STM32F4xx_StdPeriph_Driver/src/stm32f4xx_sdio.c ****   * @param  NewState: new state of the Stop SDIO Read Wait operation. 
 623:App/STM32F4-Discovery/Libraries/STM32F4xx_StdPeriph_Driver/src/stm32f4xx_sdio.c ****   *         This parameter can be: ENABLE or DISABLE.
 624:App/STM32F4-Discovery/Libraries/STM32F4xx_StdPeriph_Driver/src/stm32f4xx_sdio.c ****   * @retval None
 625:App/STM32F4-Discovery/Libraries/STM32F4xx_StdPeriph_Driver/src/stm32f4xx_sdio.c ****   */
 626:App/STM32F4-Discovery/Libraries/STM32F4xx_StdPeriph_Driver/src/stm32f4xx_sdio.c **** void SDIO_StopSDIOReadWait(FunctionalState NewState)
 627:App/STM32F4-Discovery/Libraries/STM32F4xx_StdPeriph_Driver/src/stm32f4xx_sdio.c **** { 
 1172              		.loc 1 627 0
 1173              		.cfi_startproc
 1174              		@ args = 0, pretend = 0, frame = 8
 1175              		@ frame_needed = 1, uses_anonymous_args = 0
 1176 0000 80B5     		push	{r7, lr}
 1177              	.LCFI45:
 1178              		.cfi_def_cfa_offset 8
 1179              		.cfi_offset 7, -8
 1180              		.cfi_offset 14, -4
 1181 0002 82B0     		sub	sp, sp, #8
 1182              	.LCFI46:
 1183              		.cfi_def_cfa_offset 16
 1184 0004 00AF     		add	r7, sp, #0
 1185              	.LCFI47:
 1186              		.cfi_def_cfa_register 7
 1187 0006 0346     		mov	r3, r0
 1188 0008 FB71     		strb	r3, [r7, #7]
 628:App/STM32F4-Discovery/Libraries/STM32F4xx_StdPeriph_Driver/src/stm32f4xx_sdio.c ****   /* Check the parameters */
 629:App/STM32F4-Discovery/Libraries/STM32F4xx_StdPeriph_Driver/src/stm32f4xx_sdio.c ****   assert_param(IS_FUNCTIONAL_STATE(NewState));
 1189              		.loc 1 629 0
 1190 000a FB79     		ldrb	r3, [r7, #7]	@ zero_extendqisi2
 1191 000c 002B     		cmp	r3, #0
 1192 000e 07D0     		beq	.L69
 1193              		.loc 1 629 0 is_stmt 0 discriminator 1
 1194 0010 FB79     		ldrb	r3, [r7, #7]	@ zero_extendqisi2
 1195 0012 012B     		cmp	r3, #1
 1196 0014 04D0     		beq	.L69
 1197 0016 0548     		ldr	r0, .L70
 1198 0018 40F27521 		movw	r1, #629
 1199 001c FFF7FEFF 		bl	assert_failed
 1200              	.L69:
 630:App/STM32F4-Discovery/Libraries/STM32F4xx_StdPeriph_Driver/src/stm32f4xx_sdio.c ****   
 631:App/STM32F4-Discovery/Libraries/STM32F4xx_StdPeriph_Driver/src/stm32f4xx_sdio.c ****   *(__IO uint32_t *) DCTRL_RWSTOP_BB = (uint32_t) NewState;
 1201              		.loc 1 631 0 is_stmt 1
 1202 0020 034B     		ldr	r3, .L70+4
 1203 0022 FA79     		ldrb	r2, [r7, #7]	@ zero_extendqisi2
 1204 0024 1A60     		str	r2, [r3]
 632:App/STM32F4-Discovery/Libraries/STM32F4xx_StdPeriph_Driver/src/stm32f4xx_sdio.c **** }
 1205              		.loc 1 632 0
 1206 0026 0837     		adds	r7, r7, #8
 1207 0028 BD46     		mov	sp, r7
 1208              		@ sp needed
 1209 002a 80BD     		pop	{r7, pc}
 1210              	.L71:
 1211              		.align	2
 1212              	.L70:
 1213 002c 00000000 		.word	.LC0
 1214 0030 A4852542 		.word	1109755300
 1215              		.cfi_endproc
 1216              	.LFE127:
 1218              		.section	.text.SDIO_SetSDIOReadWaitMode,"ax",%progbits
 1219              		.align	2
 1220              		.global	SDIO_SetSDIOReadWaitMode
 1221              		.thumb
 1222              		.thumb_func
 1224              	SDIO_SetSDIOReadWaitMode:
 1225              	.LFB128:
 633:App/STM32F4-Discovery/Libraries/STM32F4xx_StdPeriph_Driver/src/stm32f4xx_sdio.c **** 
 634:App/STM32F4-Discovery/Libraries/STM32F4xx_StdPeriph_Driver/src/stm32f4xx_sdio.c **** /**
 635:App/STM32F4-Discovery/Libraries/STM32F4xx_StdPeriph_Driver/src/stm32f4xx_sdio.c ****   * @brief  Sets one of the two options of inserting read wait interval.
 636:App/STM32F4-Discovery/Libraries/STM32F4xx_StdPeriph_Driver/src/stm32f4xx_sdio.c ****   * @param  SDIO_ReadWaitMode: SD I/O Read Wait operation mode.
 637:App/STM32F4-Discovery/Libraries/STM32F4xx_StdPeriph_Driver/src/stm32f4xx_sdio.c ****   *          This parameter can be:
 638:App/STM32F4-Discovery/Libraries/STM32F4xx_StdPeriph_Driver/src/stm32f4xx_sdio.c ****   *            @arg SDIO_ReadWaitMode_CLK: Read Wait control by stopping SDIOCLK
 639:App/STM32F4-Discovery/Libraries/STM32F4xx_StdPeriph_Driver/src/stm32f4xx_sdio.c ****   *            @arg SDIO_ReadWaitMode_DATA2: Read Wait control using SDIO_DATA2
 640:App/STM32F4-Discovery/Libraries/STM32F4xx_StdPeriph_Driver/src/stm32f4xx_sdio.c ****   * @retval None
 641:App/STM32F4-Discovery/Libraries/STM32F4xx_StdPeriph_Driver/src/stm32f4xx_sdio.c ****   */
 642:App/STM32F4-Discovery/Libraries/STM32F4xx_StdPeriph_Driver/src/stm32f4xx_sdio.c **** void SDIO_SetSDIOReadWaitMode(uint32_t SDIO_ReadWaitMode)
 643:App/STM32F4-Discovery/Libraries/STM32F4xx_StdPeriph_Driver/src/stm32f4xx_sdio.c **** {
 1226              		.loc 1 643 0
 1227              		.cfi_startproc
 1228              		@ args = 0, pretend = 0, frame = 8
 1229              		@ frame_needed = 1, uses_anonymous_args = 0
 1230 0000 80B5     		push	{r7, lr}
 1231              	.LCFI48:
 1232              		.cfi_def_cfa_offset 8
 1233              		.cfi_offset 7, -8
 1234              		.cfi_offset 14, -4
 1235 0002 82B0     		sub	sp, sp, #8
 1236              	.LCFI49:
 1237              		.cfi_def_cfa_offset 16
 1238 0004 00AF     		add	r7, sp, #0
 1239              	.LCFI50:
 1240              		.cfi_def_cfa_register 7
 1241 0006 7860     		str	r0, [r7, #4]
 644:App/STM32F4-Discovery/Libraries/STM32F4xx_StdPeriph_Driver/src/stm32f4xx_sdio.c ****   /* Check the parameters */
 645:App/STM32F4-Discovery/Libraries/STM32F4xx_StdPeriph_Driver/src/stm32f4xx_sdio.c ****   assert_param(IS_SDIO_READWAIT_MODE(SDIO_ReadWaitMode));
 1242              		.loc 1 645 0
 1243 0008 7B68     		ldr	r3, [r7, #4]
 1244 000a 002B     		cmp	r3, #0
 1245 000c 07D0     		beq	.L73
 1246              		.loc 1 645 0 is_stmt 0 discriminator 1
 1247 000e 7B68     		ldr	r3, [r7, #4]
 1248 0010 012B     		cmp	r3, #1
 1249 0012 04D0     		beq	.L73
 1250 0014 0548     		ldr	r0, .L74
 1251 0016 40F28521 		movw	r1, #645
 1252 001a FFF7FEFF 		bl	assert_failed
 1253              	.L73:
 646:App/STM32F4-Discovery/Libraries/STM32F4xx_StdPeriph_Driver/src/stm32f4xx_sdio.c ****   
 647:App/STM32F4-Discovery/Libraries/STM32F4xx_StdPeriph_Driver/src/stm32f4xx_sdio.c ****   *(__IO uint32_t *) DCTRL_RWMOD_BB = SDIO_ReadWaitMode;
 1254              		.loc 1 647 0 is_stmt 1
 1255 001e 044B     		ldr	r3, .L74+4
 1256 0020 7A68     		ldr	r2, [r7, #4]
 1257 0022 1A60     		str	r2, [r3]
 648:App/STM32F4-Discovery/Libraries/STM32F4xx_StdPeriph_Driver/src/stm32f4xx_sdio.c **** }
 1258              		.loc 1 648 0
 1259 0024 0837     		adds	r7, r7, #8
 1260 0026 BD46     		mov	sp, r7
 1261              		@ sp needed
 1262 0028 80BD     		pop	{r7, pc}
 1263              	.L75:
 1264 002a 00BF     		.align	2
 1265              	.L74:
 1266 002c 00000000 		.word	.LC0
 1267 0030 A8852542 		.word	1109755304
 1268              		.cfi_endproc
 1269              	.LFE128:
 1271              		.section	.text.SDIO_SetSDIOOperation,"ax",%progbits
 1272              		.align	2
 1273              		.global	SDIO_SetSDIOOperation
 1274              		.thumb
 1275              		.thumb_func
 1277              	SDIO_SetSDIOOperation:
 1278              	.LFB129:
 649:App/STM32F4-Discovery/Libraries/STM32F4xx_StdPeriph_Driver/src/stm32f4xx_sdio.c **** 
 650:App/STM32F4-Discovery/Libraries/STM32F4xx_StdPeriph_Driver/src/stm32f4xx_sdio.c **** /**
 651:App/STM32F4-Discovery/Libraries/STM32F4xx_StdPeriph_Driver/src/stm32f4xx_sdio.c ****   * @brief  Enables or disables the SD I/O Mode Operation.
 652:App/STM32F4-Discovery/Libraries/STM32F4xx_StdPeriph_Driver/src/stm32f4xx_sdio.c ****   * @param  NewState: new state of SDIO specific operation. 
 653:App/STM32F4-Discovery/Libraries/STM32F4xx_StdPeriph_Driver/src/stm32f4xx_sdio.c ****   *         This parameter can be: ENABLE or DISABLE.
 654:App/STM32F4-Discovery/Libraries/STM32F4xx_StdPeriph_Driver/src/stm32f4xx_sdio.c ****   * @retval None
 655:App/STM32F4-Discovery/Libraries/STM32F4xx_StdPeriph_Driver/src/stm32f4xx_sdio.c ****   */
 656:App/STM32F4-Discovery/Libraries/STM32F4xx_StdPeriph_Driver/src/stm32f4xx_sdio.c **** void SDIO_SetSDIOOperation(FunctionalState NewState)
 657:App/STM32F4-Discovery/Libraries/STM32F4xx_StdPeriph_Driver/src/stm32f4xx_sdio.c **** { 
 1279              		.loc 1 657 0
 1280              		.cfi_startproc
 1281              		@ args = 0, pretend = 0, frame = 8
 1282              		@ frame_needed = 1, uses_anonymous_args = 0
 1283 0000 80B5     		push	{r7, lr}
 1284              	.LCFI51:
 1285              		.cfi_def_cfa_offset 8
 1286              		.cfi_offset 7, -8
 1287              		.cfi_offset 14, -4
 1288 0002 82B0     		sub	sp, sp, #8
 1289              	.LCFI52:
 1290              		.cfi_def_cfa_offset 16
 1291 0004 00AF     		add	r7, sp, #0
 1292              	.LCFI53:
 1293              		.cfi_def_cfa_register 7
 1294 0006 0346     		mov	r3, r0
 1295 0008 FB71     		strb	r3, [r7, #7]
 658:App/STM32F4-Discovery/Libraries/STM32F4xx_StdPeriph_Driver/src/stm32f4xx_sdio.c ****   /* Check the parameters */
 659:App/STM32F4-Discovery/Libraries/STM32F4xx_StdPeriph_Driver/src/stm32f4xx_sdio.c ****   assert_param(IS_FUNCTIONAL_STATE(NewState));
 1296              		.loc 1 659 0
 1297 000a FB79     		ldrb	r3, [r7, #7]	@ zero_extendqisi2
 1298 000c 002B     		cmp	r3, #0
 1299 000e 07D0     		beq	.L77
 1300              		.loc 1 659 0 is_stmt 0 discriminator 1
 1301 0010 FB79     		ldrb	r3, [r7, #7]	@ zero_extendqisi2
 1302 0012 012B     		cmp	r3, #1
 1303 0014 04D0     		beq	.L77
 1304 0016 0548     		ldr	r0, .L78
 1305 0018 40F29321 		movw	r1, #659
 1306 001c FFF7FEFF 		bl	assert_failed
 1307              	.L77:
 660:App/STM32F4-Discovery/Libraries/STM32F4xx_StdPeriph_Driver/src/stm32f4xx_sdio.c ****   
 661:App/STM32F4-Discovery/Libraries/STM32F4xx_StdPeriph_Driver/src/stm32f4xx_sdio.c ****   *(__IO uint32_t *) DCTRL_SDIOEN_BB = (uint32_t)NewState;
 1308              		.loc 1 661 0 is_stmt 1
 1309 0020 034B     		ldr	r3, .L78+4
 1310 0022 FA79     		ldrb	r2, [r7, #7]	@ zero_extendqisi2
 1311 0024 1A60     		str	r2, [r3]
 662:App/STM32F4-Discovery/Libraries/STM32F4xx_StdPeriph_Driver/src/stm32f4xx_sdio.c **** }
 1312              		.loc 1 662 0
 1313 0026 0837     		adds	r7, r7, #8
 1314 0028 BD46     		mov	sp, r7
 1315              		@ sp needed
 1316 002a 80BD     		pop	{r7, pc}
 1317              	.L79:
 1318              		.align	2
 1319              	.L78:
 1320 002c 00000000 		.word	.LC0
 1321 0030 AC852542 		.word	1109755308
 1322              		.cfi_endproc
 1323              	.LFE129:
 1325              		.section	.text.SDIO_SendSDIOSuspendCmd,"ax",%progbits
 1326              		.align	2
 1327              		.global	SDIO_SendSDIOSuspendCmd
 1328              		.thumb
 1329              		.thumb_func
 1331              	SDIO_SendSDIOSuspendCmd:
 1332              	.LFB130:
 663:App/STM32F4-Discovery/Libraries/STM32F4xx_StdPeriph_Driver/src/stm32f4xx_sdio.c **** 
 664:App/STM32F4-Discovery/Libraries/STM32F4xx_StdPeriph_Driver/src/stm32f4xx_sdio.c **** /**
 665:App/STM32F4-Discovery/Libraries/STM32F4xx_StdPeriph_Driver/src/stm32f4xx_sdio.c ****   * @brief  Enables or disables the SD I/O Mode suspend command sending.
 666:App/STM32F4-Discovery/Libraries/STM32F4xx_StdPeriph_Driver/src/stm32f4xx_sdio.c ****   * @param  NewState: new state of the SD I/O Mode suspend command.
 667:App/STM32F4-Discovery/Libraries/STM32F4xx_StdPeriph_Driver/src/stm32f4xx_sdio.c ****   *         This parameter can be: ENABLE or DISABLE.
 668:App/STM32F4-Discovery/Libraries/STM32F4xx_StdPeriph_Driver/src/stm32f4xx_sdio.c ****   * @retval None
 669:App/STM32F4-Discovery/Libraries/STM32F4xx_StdPeriph_Driver/src/stm32f4xx_sdio.c ****   */
 670:App/STM32F4-Discovery/Libraries/STM32F4xx_StdPeriph_Driver/src/stm32f4xx_sdio.c **** void SDIO_SendSDIOSuspendCmd(FunctionalState NewState)
 671:App/STM32F4-Discovery/Libraries/STM32F4xx_StdPeriph_Driver/src/stm32f4xx_sdio.c **** { 
 1333              		.loc 1 671 0
 1334              		.cfi_startproc
 1335              		@ args = 0, pretend = 0, frame = 8
 1336              		@ frame_needed = 1, uses_anonymous_args = 0
 1337 0000 80B5     		push	{r7, lr}
 1338              	.LCFI54:
 1339              		.cfi_def_cfa_offset 8
 1340              		.cfi_offset 7, -8
 1341              		.cfi_offset 14, -4
 1342 0002 82B0     		sub	sp, sp, #8
 1343              	.LCFI55:
 1344              		.cfi_def_cfa_offset 16
 1345 0004 00AF     		add	r7, sp, #0
 1346              	.LCFI56:
 1347              		.cfi_def_cfa_register 7
 1348 0006 0346     		mov	r3, r0
 1349 0008 FB71     		strb	r3, [r7, #7]
 672:App/STM32F4-Discovery/Libraries/STM32F4xx_StdPeriph_Driver/src/stm32f4xx_sdio.c ****   /* Check the parameters */
 673:App/STM32F4-Discovery/Libraries/STM32F4xx_StdPeriph_Driver/src/stm32f4xx_sdio.c ****   assert_param(IS_FUNCTIONAL_STATE(NewState));
 1350              		.loc 1 673 0
 1351 000a FB79     		ldrb	r3, [r7, #7]	@ zero_extendqisi2
 1352 000c 002B     		cmp	r3, #0
 1353 000e 07D0     		beq	.L81
 1354              		.loc 1 673 0 is_stmt 0 discriminator 1
 1355 0010 FB79     		ldrb	r3, [r7, #7]	@ zero_extendqisi2
 1356 0012 012B     		cmp	r3, #1
 1357 0014 04D0     		beq	.L81
 1358 0016 0548     		ldr	r0, .L82
 1359 0018 40F2A121 		movw	r1, #673
 1360 001c FFF7FEFF 		bl	assert_failed
 1361              	.L81:
 674:App/STM32F4-Discovery/Libraries/STM32F4xx_StdPeriph_Driver/src/stm32f4xx_sdio.c ****   
 675:App/STM32F4-Discovery/Libraries/STM32F4xx_StdPeriph_Driver/src/stm32f4xx_sdio.c ****   *(__IO uint32_t *) CMD_SDIOSUSPEND_BB = (uint32_t)NewState;
 1362              		.loc 1 675 0 is_stmt 1
 1363 0020 034B     		ldr	r3, .L82+4
 1364 0022 FA79     		ldrb	r2, [r7, #7]	@ zero_extendqisi2
 1365 0024 1A60     		str	r2, [r3]
 676:App/STM32F4-Discovery/Libraries/STM32F4xx_StdPeriph_Driver/src/stm32f4xx_sdio.c **** }
 1366              		.loc 1 676 0
 1367 0026 0837     		adds	r7, r7, #8
 1368 0028 BD46     		mov	sp, r7
 1369              		@ sp needed
 1370 002a 80BD     		pop	{r7, pc}
 1371              	.L83:
 1372              		.align	2
 1373              	.L82:
 1374 002c 00000000 		.word	.LC0
 1375 0030 AC812542 		.word	1109754284
 1376              		.cfi_endproc
 1377              	.LFE130:
 1379              		.section	.text.SDIO_CommandCompletionCmd,"ax",%progbits
 1380              		.align	2
 1381              		.global	SDIO_CommandCompletionCmd
 1382              		.thumb
 1383              		.thumb_func
 1385              	SDIO_CommandCompletionCmd:
 1386              	.LFB131:
 677:App/STM32F4-Discovery/Libraries/STM32F4xx_StdPeriph_Driver/src/stm32f4xx_sdio.c **** 
 678:App/STM32F4-Discovery/Libraries/STM32F4xx_StdPeriph_Driver/src/stm32f4xx_sdio.c **** /**
 679:App/STM32F4-Discovery/Libraries/STM32F4xx_StdPeriph_Driver/src/stm32f4xx_sdio.c ****   * @}
 680:App/STM32F4-Discovery/Libraries/STM32F4xx_StdPeriph_Driver/src/stm32f4xx_sdio.c ****   */
 681:App/STM32F4-Discovery/Libraries/STM32F4xx_StdPeriph_Driver/src/stm32f4xx_sdio.c **** 
 682:App/STM32F4-Discovery/Libraries/STM32F4xx_StdPeriph_Driver/src/stm32f4xx_sdio.c **** /** @defgroup SDIO_Group5 CE-ATA mode management functions
 683:App/STM32F4-Discovery/Libraries/STM32F4xx_StdPeriph_Driver/src/stm32f4xx_sdio.c ****  *  @brief   CE-ATA mode management functions
 684:App/STM32F4-Discovery/Libraries/STM32F4xx_StdPeriph_Driver/src/stm32f4xx_sdio.c ****  *
 685:App/STM32F4-Discovery/Libraries/STM32F4xx_StdPeriph_Driver/src/stm32f4xx_sdio.c **** @verbatim   
 686:App/STM32F4-Discovery/Libraries/STM32F4xx_StdPeriph_Driver/src/stm32f4xx_sdio.c ****  ===============================================================================
 687:App/STM32F4-Discovery/Libraries/STM32F4xx_StdPeriph_Driver/src/stm32f4xx_sdio.c ****               CE-ATA mode management functions
 688:App/STM32F4-Discovery/Libraries/STM32F4xx_StdPeriph_Driver/src/stm32f4xx_sdio.c ****  ===============================================================================  
 689:App/STM32F4-Discovery/Libraries/STM32F4xx_StdPeriph_Driver/src/stm32f4xx_sdio.c **** 
 690:App/STM32F4-Discovery/Libraries/STM32F4xx_StdPeriph_Driver/src/stm32f4xx_sdio.c ****   This section provide functions allowing to program and read the CE-ATA card.
 691:App/STM32F4-Discovery/Libraries/STM32F4xx_StdPeriph_Driver/src/stm32f4xx_sdio.c **** 
 692:App/STM32F4-Discovery/Libraries/STM32F4xx_StdPeriph_Driver/src/stm32f4xx_sdio.c **** @endverbatim
 693:App/STM32F4-Discovery/Libraries/STM32F4xx_StdPeriph_Driver/src/stm32f4xx_sdio.c ****   * @{
 694:App/STM32F4-Discovery/Libraries/STM32F4xx_StdPeriph_Driver/src/stm32f4xx_sdio.c ****   */
 695:App/STM32F4-Discovery/Libraries/STM32F4xx_StdPeriph_Driver/src/stm32f4xx_sdio.c **** 
 696:App/STM32F4-Discovery/Libraries/STM32F4xx_StdPeriph_Driver/src/stm32f4xx_sdio.c **** /**
 697:App/STM32F4-Discovery/Libraries/STM32F4xx_StdPeriph_Driver/src/stm32f4xx_sdio.c ****   * @brief  Enables or disables the command completion signal.
 698:App/STM32F4-Discovery/Libraries/STM32F4xx_StdPeriph_Driver/src/stm32f4xx_sdio.c ****   * @param  NewState: new state of command completion signal. 
 699:App/STM32F4-Discovery/Libraries/STM32F4xx_StdPeriph_Driver/src/stm32f4xx_sdio.c ****   *         This parameter can be: ENABLE or DISABLE.
 700:App/STM32F4-Discovery/Libraries/STM32F4xx_StdPeriph_Driver/src/stm32f4xx_sdio.c ****   * @retval None
 701:App/STM32F4-Discovery/Libraries/STM32F4xx_StdPeriph_Driver/src/stm32f4xx_sdio.c ****   */
 702:App/STM32F4-Discovery/Libraries/STM32F4xx_StdPeriph_Driver/src/stm32f4xx_sdio.c **** void SDIO_CommandCompletionCmd(FunctionalState NewState)
 703:App/STM32F4-Discovery/Libraries/STM32F4xx_StdPeriph_Driver/src/stm32f4xx_sdio.c **** { 
 1387              		.loc 1 703 0
 1388              		.cfi_startproc
 1389              		@ args = 0, pretend = 0, frame = 8
 1390              		@ frame_needed = 1, uses_anonymous_args = 0
 1391 0000 80B5     		push	{r7, lr}
 1392              	.LCFI57:
 1393              		.cfi_def_cfa_offset 8
 1394              		.cfi_offset 7, -8
 1395              		.cfi_offset 14, -4
 1396 0002 82B0     		sub	sp, sp, #8
 1397              	.LCFI58:
 1398              		.cfi_def_cfa_offset 16
 1399 0004 00AF     		add	r7, sp, #0
 1400              	.LCFI59:
 1401              		.cfi_def_cfa_register 7
 1402 0006 0346     		mov	r3, r0
 1403 0008 FB71     		strb	r3, [r7, #7]
 704:App/STM32F4-Discovery/Libraries/STM32F4xx_StdPeriph_Driver/src/stm32f4xx_sdio.c ****   /* Check the parameters */
 705:App/STM32F4-Discovery/Libraries/STM32F4xx_StdPeriph_Driver/src/stm32f4xx_sdio.c ****   assert_param(IS_FUNCTIONAL_STATE(NewState));
 1404              		.loc 1 705 0
 1405 000a FB79     		ldrb	r3, [r7, #7]	@ zero_extendqisi2
 1406 000c 002B     		cmp	r3, #0
 1407 000e 07D0     		beq	.L85
 1408              		.loc 1 705 0 is_stmt 0 discriminator 1
 1409 0010 FB79     		ldrb	r3, [r7, #7]	@ zero_extendqisi2
 1410 0012 012B     		cmp	r3, #1
 1411 0014 04D0     		beq	.L85
 1412 0016 0548     		ldr	r0, .L86
 1413 0018 40F2C121 		movw	r1, #705
 1414 001c FFF7FEFF 		bl	assert_failed
 1415              	.L85:
 706:App/STM32F4-Discovery/Libraries/STM32F4xx_StdPeriph_Driver/src/stm32f4xx_sdio.c ****   
 707:App/STM32F4-Discovery/Libraries/STM32F4xx_StdPeriph_Driver/src/stm32f4xx_sdio.c ****   *(__IO uint32_t *) CMD_ENCMDCOMPL_BB = (uint32_t)NewState;
 1416              		.loc 1 707 0 is_stmt 1
 1417 0020 034B     		ldr	r3, .L86+4
 1418 0022 FA79     		ldrb	r2, [r7, #7]	@ zero_extendqisi2
 1419 0024 1A60     		str	r2, [r3]
 708:App/STM32F4-Discovery/Libraries/STM32F4xx_StdPeriph_Driver/src/stm32f4xx_sdio.c **** }
 1420              		.loc 1 708 0
 1421 0026 0837     		adds	r7, r7, #8
 1422 0028 BD46     		mov	sp, r7
 1423              		@ sp needed
 1424 002a 80BD     		pop	{r7, pc}
 1425              	.L87:
 1426              		.align	2
 1427              	.L86:
 1428 002c 00000000 		.word	.LC0
 1429 0030 B0812542 		.word	1109754288
 1430              		.cfi_endproc
 1431              	.LFE131:
 1433              		.section	.text.SDIO_CEATAITCmd,"ax",%progbits
 1434              		.align	2
 1435              		.global	SDIO_CEATAITCmd
 1436              		.thumb
 1437              		.thumb_func
 1439              	SDIO_CEATAITCmd:
 1440              	.LFB132:
 709:App/STM32F4-Discovery/Libraries/STM32F4xx_StdPeriph_Driver/src/stm32f4xx_sdio.c **** 
 710:App/STM32F4-Discovery/Libraries/STM32F4xx_StdPeriph_Driver/src/stm32f4xx_sdio.c **** /**
 711:App/STM32F4-Discovery/Libraries/STM32F4xx_StdPeriph_Driver/src/stm32f4xx_sdio.c ****   * @brief  Enables or disables the CE-ATA interrupt.
 712:App/STM32F4-Discovery/Libraries/STM32F4xx_StdPeriph_Driver/src/stm32f4xx_sdio.c ****   * @param  NewState: new state of CE-ATA interrupt. 
 713:App/STM32F4-Discovery/Libraries/STM32F4xx_StdPeriph_Driver/src/stm32f4xx_sdio.c ****   *         This parameter can be: ENABLE or DISABLE.
 714:App/STM32F4-Discovery/Libraries/STM32F4xx_StdPeriph_Driver/src/stm32f4xx_sdio.c ****   * @retval None
 715:App/STM32F4-Discovery/Libraries/STM32F4xx_StdPeriph_Driver/src/stm32f4xx_sdio.c ****   */
 716:App/STM32F4-Discovery/Libraries/STM32F4xx_StdPeriph_Driver/src/stm32f4xx_sdio.c **** void SDIO_CEATAITCmd(FunctionalState NewState)
 717:App/STM32F4-Discovery/Libraries/STM32F4xx_StdPeriph_Driver/src/stm32f4xx_sdio.c **** { 
 1441              		.loc 1 717 0
 1442              		.cfi_startproc
 1443              		@ args = 0, pretend = 0, frame = 8
 1444              		@ frame_needed = 1, uses_anonymous_args = 0
 1445 0000 80B5     		push	{r7, lr}
 1446              	.LCFI60:
 1447              		.cfi_def_cfa_offset 8
 1448              		.cfi_offset 7, -8
 1449              		.cfi_offset 14, -4
 1450 0002 82B0     		sub	sp, sp, #8
 1451              	.LCFI61:
 1452              		.cfi_def_cfa_offset 16
 1453 0004 00AF     		add	r7, sp, #0
 1454              	.LCFI62:
 1455              		.cfi_def_cfa_register 7
 1456 0006 0346     		mov	r3, r0
 1457 0008 FB71     		strb	r3, [r7, #7]
 718:App/STM32F4-Discovery/Libraries/STM32F4xx_StdPeriph_Driver/src/stm32f4xx_sdio.c ****   /* Check the parameters */
 719:App/STM32F4-Discovery/Libraries/STM32F4xx_StdPeriph_Driver/src/stm32f4xx_sdio.c ****   assert_param(IS_FUNCTIONAL_STATE(NewState));
 1458              		.loc 1 719 0
 1459 000a FB79     		ldrb	r3, [r7, #7]	@ zero_extendqisi2
 1460 000c 002B     		cmp	r3, #0
 1461 000e 07D0     		beq	.L89
 1462              		.loc 1 719 0 is_stmt 0 discriminator 1
 1463 0010 FB79     		ldrb	r3, [r7, #7]	@ zero_extendqisi2
 1464 0012 012B     		cmp	r3, #1
 1465 0014 04D0     		beq	.L89
 1466 0016 0948     		ldr	r0, .L90
 1467 0018 40F2CF21 		movw	r1, #719
 1468 001c FFF7FEFF 		bl	assert_failed
 1469              	.L89:
 720:App/STM32F4-Discovery/Libraries/STM32F4xx_StdPeriph_Driver/src/stm32f4xx_sdio.c ****   
 721:App/STM32F4-Discovery/Libraries/STM32F4xx_StdPeriph_Driver/src/stm32f4xx_sdio.c ****   *(__IO uint32_t *) CMD_NIEN_BB = (uint32_t)((~((uint32_t)NewState)) & ((uint32_t)0x1));
 1470              		.loc 1 721 0 is_stmt 1
 1471 0020 074B     		ldr	r3, .L90+4
 1472 0022 FA79     		ldrb	r2, [r7, #7]	@ zero_extendqisi2
 1473 0024 02F00102 		and	r2, r2, #1
 1474 0028 002A     		cmp	r2, #0
 1475 002a 14BF     		ite	ne
 1476 002c 0022     		movne	r2, #0
 1477 002e 0122     		moveq	r2, #1
 1478 0030 D2B2     		uxtb	r2, r2
 1479 0032 1A60     		str	r2, [r3]
 722:App/STM32F4-Discovery/Libraries/STM32F4xx_StdPeriph_Driver/src/stm32f4xx_sdio.c **** }
 1480              		.loc 1 722 0
 1481 0034 0837     		adds	r7, r7, #8
 1482 0036 BD46     		mov	sp, r7
 1483              		@ sp needed
 1484 0038 80BD     		pop	{r7, pc}
 1485              	.L91:
 1486 003a 00BF     		.align	2
 1487              	.L90:
 1488 003c 00000000 		.word	.LC0
 1489 0040 B4812542 		.word	1109754292
 1490              		.cfi_endproc
 1491              	.LFE132:
 1493              		.section	.text.SDIO_SendCEATACmd,"ax",%progbits
 1494              		.align	2
 1495              		.global	SDIO_SendCEATACmd
 1496              		.thumb
 1497              		.thumb_func
 1499              	SDIO_SendCEATACmd:
 1500              	.LFB133:
 723:App/STM32F4-Discovery/Libraries/STM32F4xx_StdPeriph_Driver/src/stm32f4xx_sdio.c **** 
 724:App/STM32F4-Discovery/Libraries/STM32F4xx_StdPeriph_Driver/src/stm32f4xx_sdio.c **** /**
 725:App/STM32F4-Discovery/Libraries/STM32F4xx_StdPeriph_Driver/src/stm32f4xx_sdio.c ****   * @brief  Sends CE-ATA command (CMD61).
 726:App/STM32F4-Discovery/Libraries/STM32F4xx_StdPeriph_Driver/src/stm32f4xx_sdio.c ****   * @param  NewState: new state of CE-ATA command. 
 727:App/STM32F4-Discovery/Libraries/STM32F4xx_StdPeriph_Driver/src/stm32f4xx_sdio.c ****   *         This parameter can be: ENABLE or DISABLE.
 728:App/STM32F4-Discovery/Libraries/STM32F4xx_StdPeriph_Driver/src/stm32f4xx_sdio.c ****   * @retval None
 729:App/STM32F4-Discovery/Libraries/STM32F4xx_StdPeriph_Driver/src/stm32f4xx_sdio.c ****   */
 730:App/STM32F4-Discovery/Libraries/STM32F4xx_StdPeriph_Driver/src/stm32f4xx_sdio.c **** void SDIO_SendCEATACmd(FunctionalState NewState)
 731:App/STM32F4-Discovery/Libraries/STM32F4xx_StdPeriph_Driver/src/stm32f4xx_sdio.c **** { 
 1501              		.loc 1 731 0
 1502              		.cfi_startproc
 1503              		@ args = 0, pretend = 0, frame = 8
 1504              		@ frame_needed = 1, uses_anonymous_args = 0
 1505 0000 80B5     		push	{r7, lr}
 1506              	.LCFI63:
 1507              		.cfi_def_cfa_offset 8
 1508              		.cfi_offset 7, -8
 1509              		.cfi_offset 14, -4
 1510 0002 82B0     		sub	sp, sp, #8
 1511              	.LCFI64:
 1512              		.cfi_def_cfa_offset 16
 1513 0004 00AF     		add	r7, sp, #0
 1514              	.LCFI65:
 1515              		.cfi_def_cfa_register 7
 1516 0006 0346     		mov	r3, r0
 1517 0008 FB71     		strb	r3, [r7, #7]
 732:App/STM32F4-Discovery/Libraries/STM32F4xx_StdPeriph_Driver/src/stm32f4xx_sdio.c ****   /* Check the parameters */
 733:App/STM32F4-Discovery/Libraries/STM32F4xx_StdPeriph_Driver/src/stm32f4xx_sdio.c ****   assert_param(IS_FUNCTIONAL_STATE(NewState));
 1518              		.loc 1 733 0
 1519 000a FB79     		ldrb	r3, [r7, #7]	@ zero_extendqisi2
 1520 000c 002B     		cmp	r3, #0
 1521 000e 07D0     		beq	.L93
 1522              		.loc 1 733 0 is_stmt 0 discriminator 1
 1523 0010 FB79     		ldrb	r3, [r7, #7]	@ zero_extendqisi2
 1524 0012 012B     		cmp	r3, #1
 1525 0014 04D0     		beq	.L93
 1526 0016 0548     		ldr	r0, .L94
 1527 0018 40F2DD21 		movw	r1, #733
 1528 001c FFF7FEFF 		bl	assert_failed
 1529              	.L93:
 734:App/STM32F4-Discovery/Libraries/STM32F4xx_StdPeriph_Driver/src/stm32f4xx_sdio.c ****   
 735:App/STM32F4-Discovery/Libraries/STM32F4xx_StdPeriph_Driver/src/stm32f4xx_sdio.c ****   *(__IO uint32_t *) CMD_ATACMD_BB = (uint32_t)NewState;
 1530              		.loc 1 735 0 is_stmt 1
 1531 0020 034B     		ldr	r3, .L94+4
 1532 0022 FA79     		ldrb	r2, [r7, #7]	@ zero_extendqisi2
 1533 0024 1A60     		str	r2, [r3]
 736:App/STM32F4-Discovery/Libraries/STM32F4xx_StdPeriph_Driver/src/stm32f4xx_sdio.c **** }
 1534              		.loc 1 736 0
 1535 0026 0837     		adds	r7, r7, #8
 1536 0028 BD46     		mov	sp, r7
 1537              		@ sp needed
 1538 002a 80BD     		pop	{r7, pc}
 1539              	.L95:
 1540              		.align	2
 1541              	.L94:
 1542 002c 00000000 		.word	.LC0
 1543 0030 B8812542 		.word	1109754296
 1544              		.cfi_endproc
 1545              	.LFE133:
 1547              		.section	.text.SDIO_DMACmd,"ax",%progbits
 1548              		.align	2
 1549              		.global	SDIO_DMACmd
 1550              		.thumb
 1551              		.thumb_func
 1553              	SDIO_DMACmd:
 1554              	.LFB134:
 737:App/STM32F4-Discovery/Libraries/STM32F4xx_StdPeriph_Driver/src/stm32f4xx_sdio.c **** 
 738:App/STM32F4-Discovery/Libraries/STM32F4xx_StdPeriph_Driver/src/stm32f4xx_sdio.c **** /**
 739:App/STM32F4-Discovery/Libraries/STM32F4xx_StdPeriph_Driver/src/stm32f4xx_sdio.c ****   * @}
 740:App/STM32F4-Discovery/Libraries/STM32F4xx_StdPeriph_Driver/src/stm32f4xx_sdio.c ****   */
 741:App/STM32F4-Discovery/Libraries/STM32F4xx_StdPeriph_Driver/src/stm32f4xx_sdio.c **** 
 742:App/STM32F4-Discovery/Libraries/STM32F4xx_StdPeriph_Driver/src/stm32f4xx_sdio.c **** /** @defgroup SDIO_Group6 DMA transfers management functions
 743:App/STM32F4-Discovery/Libraries/STM32F4xx_StdPeriph_Driver/src/stm32f4xx_sdio.c ****  *  @brief   DMA transfers management functions
 744:App/STM32F4-Discovery/Libraries/STM32F4xx_StdPeriph_Driver/src/stm32f4xx_sdio.c ****  *
 745:App/STM32F4-Discovery/Libraries/STM32F4xx_StdPeriph_Driver/src/stm32f4xx_sdio.c **** @verbatim   
 746:App/STM32F4-Discovery/Libraries/STM32F4xx_StdPeriph_Driver/src/stm32f4xx_sdio.c ****  ===============================================================================
 747:App/STM32F4-Discovery/Libraries/STM32F4xx_StdPeriph_Driver/src/stm32f4xx_sdio.c ****               DMA transfers management functions
 748:App/STM32F4-Discovery/Libraries/STM32F4xx_StdPeriph_Driver/src/stm32f4xx_sdio.c ****  ===============================================================================  
 749:App/STM32F4-Discovery/Libraries/STM32F4xx_StdPeriph_Driver/src/stm32f4xx_sdio.c **** 
 750:App/STM32F4-Discovery/Libraries/STM32F4xx_StdPeriph_Driver/src/stm32f4xx_sdio.c ****   This section provide functions allowing to program SDIO DMA transfer.
 751:App/STM32F4-Discovery/Libraries/STM32F4xx_StdPeriph_Driver/src/stm32f4xx_sdio.c **** 
 752:App/STM32F4-Discovery/Libraries/STM32F4xx_StdPeriph_Driver/src/stm32f4xx_sdio.c **** @endverbatim
 753:App/STM32F4-Discovery/Libraries/STM32F4xx_StdPeriph_Driver/src/stm32f4xx_sdio.c ****   * @{
 754:App/STM32F4-Discovery/Libraries/STM32F4xx_StdPeriph_Driver/src/stm32f4xx_sdio.c ****   */
 755:App/STM32F4-Discovery/Libraries/STM32F4xx_StdPeriph_Driver/src/stm32f4xx_sdio.c **** 
 756:App/STM32F4-Discovery/Libraries/STM32F4xx_StdPeriph_Driver/src/stm32f4xx_sdio.c **** /**
 757:App/STM32F4-Discovery/Libraries/STM32F4xx_StdPeriph_Driver/src/stm32f4xx_sdio.c ****   * @brief  Enables or disables the SDIO DMA request.
 758:App/STM32F4-Discovery/Libraries/STM32F4xx_StdPeriph_Driver/src/stm32f4xx_sdio.c ****   * @param  NewState: new state of the selected SDIO DMA request.
 759:App/STM32F4-Discovery/Libraries/STM32F4xx_StdPeriph_Driver/src/stm32f4xx_sdio.c ****   *          This parameter can be: ENABLE or DISABLE.
 760:App/STM32F4-Discovery/Libraries/STM32F4xx_StdPeriph_Driver/src/stm32f4xx_sdio.c ****   * @retval None
 761:App/STM32F4-Discovery/Libraries/STM32F4xx_StdPeriph_Driver/src/stm32f4xx_sdio.c ****   */
 762:App/STM32F4-Discovery/Libraries/STM32F4xx_StdPeriph_Driver/src/stm32f4xx_sdio.c **** void SDIO_DMACmd(FunctionalState NewState)
 763:App/STM32F4-Discovery/Libraries/STM32F4xx_StdPeriph_Driver/src/stm32f4xx_sdio.c **** {
 1555              		.loc 1 763 0
 1556              		.cfi_startproc
 1557              		@ args = 0, pretend = 0, frame = 8
 1558              		@ frame_needed = 1, uses_anonymous_args = 0
 1559 0000 80B5     		push	{r7, lr}
 1560              	.LCFI66:
 1561              		.cfi_def_cfa_offset 8
 1562              		.cfi_offset 7, -8
 1563              		.cfi_offset 14, -4
 1564 0002 82B0     		sub	sp, sp, #8
 1565              	.LCFI67:
 1566              		.cfi_def_cfa_offset 16
 1567 0004 00AF     		add	r7, sp, #0
 1568              	.LCFI68:
 1569              		.cfi_def_cfa_register 7
 1570 0006 0346     		mov	r3, r0
 1571 0008 FB71     		strb	r3, [r7, #7]
 764:App/STM32F4-Discovery/Libraries/STM32F4xx_StdPeriph_Driver/src/stm32f4xx_sdio.c ****   /* Check the parameters */
 765:App/STM32F4-Discovery/Libraries/STM32F4xx_StdPeriph_Driver/src/stm32f4xx_sdio.c ****   assert_param(IS_FUNCTIONAL_STATE(NewState));
 1572              		.loc 1 765 0
 1573 000a FB79     		ldrb	r3, [r7, #7]	@ zero_extendqisi2
 1574 000c 002B     		cmp	r3, #0
 1575 000e 07D0     		beq	.L97
 1576              		.loc 1 765 0 is_stmt 0 discriminator 1
 1577 0010 FB79     		ldrb	r3, [r7, #7]	@ zero_extendqisi2
 1578 0012 012B     		cmp	r3, #1
 1579 0014 04D0     		beq	.L97
 1580 0016 0548     		ldr	r0, .L98
 1581 0018 40F2FD21 		movw	r1, #765
 1582 001c FFF7FEFF 		bl	assert_failed
 1583              	.L97:
 766:App/STM32F4-Discovery/Libraries/STM32F4xx_StdPeriph_Driver/src/stm32f4xx_sdio.c ****   
 767:App/STM32F4-Discovery/Libraries/STM32F4xx_StdPeriph_Driver/src/stm32f4xx_sdio.c ****   *(__IO uint32_t *) DCTRL_DMAEN_BB = (uint32_t)NewState;
 1584              		.loc 1 767 0 is_stmt 1
 1585 0020 034B     		ldr	r3, .L98+4
 1586 0022 FA79     		ldrb	r2, [r7, #7]	@ zero_extendqisi2
 1587 0024 1A60     		str	r2, [r3]
 768:App/STM32F4-Discovery/Libraries/STM32F4xx_StdPeriph_Driver/src/stm32f4xx_sdio.c **** }
 1588              		.loc 1 768 0
 1589 0026 0837     		adds	r7, r7, #8
 1590 0028 BD46     		mov	sp, r7
 1591              		@ sp needed
 1592 002a 80BD     		pop	{r7, pc}
 1593              	.L99:
 1594              		.align	2
 1595              	.L98:
 1596 002c 00000000 		.word	.LC0
 1597 0030 8C852542 		.word	1109755276
 1598              		.cfi_endproc
 1599              	.LFE134:
 1601              		.section	.text.SDIO_ITConfig,"ax",%progbits
 1602              		.align	2
 1603              		.global	SDIO_ITConfig
 1604              		.thumb
 1605              		.thumb_func
 1607              	SDIO_ITConfig:
 1608              	.LFB135:
 769:App/STM32F4-Discovery/Libraries/STM32F4xx_StdPeriph_Driver/src/stm32f4xx_sdio.c **** 
 770:App/STM32F4-Discovery/Libraries/STM32F4xx_StdPeriph_Driver/src/stm32f4xx_sdio.c **** /**
 771:App/STM32F4-Discovery/Libraries/STM32F4xx_StdPeriph_Driver/src/stm32f4xx_sdio.c ****   * @}
 772:App/STM32F4-Discovery/Libraries/STM32F4xx_StdPeriph_Driver/src/stm32f4xx_sdio.c ****   */
 773:App/STM32F4-Discovery/Libraries/STM32F4xx_StdPeriph_Driver/src/stm32f4xx_sdio.c **** 
 774:App/STM32F4-Discovery/Libraries/STM32F4xx_StdPeriph_Driver/src/stm32f4xx_sdio.c **** /** @defgroup SDIO_Group7 Interrupts and flags management functions
 775:App/STM32F4-Discovery/Libraries/STM32F4xx_StdPeriph_Driver/src/stm32f4xx_sdio.c ****  *  @brief   Interrupts and flags management functions  
 776:App/STM32F4-Discovery/Libraries/STM32F4xx_StdPeriph_Driver/src/stm32f4xx_sdio.c ****  *
 777:App/STM32F4-Discovery/Libraries/STM32F4xx_StdPeriph_Driver/src/stm32f4xx_sdio.c **** @verbatim   
 778:App/STM32F4-Discovery/Libraries/STM32F4xx_StdPeriph_Driver/src/stm32f4xx_sdio.c ****  ===============================================================================
 779:App/STM32F4-Discovery/Libraries/STM32F4xx_StdPeriph_Driver/src/stm32f4xx_sdio.c ****                        Interrupts and flags management functions
 780:App/STM32F4-Discovery/Libraries/STM32F4xx_StdPeriph_Driver/src/stm32f4xx_sdio.c ****  ===============================================================================  
 781:App/STM32F4-Discovery/Libraries/STM32F4xx_StdPeriph_Driver/src/stm32f4xx_sdio.c **** 
 782:App/STM32F4-Discovery/Libraries/STM32F4xx_StdPeriph_Driver/src/stm32f4xx_sdio.c **** 
 783:App/STM32F4-Discovery/Libraries/STM32F4xx_StdPeriph_Driver/src/stm32f4xx_sdio.c **** @endverbatim
 784:App/STM32F4-Discovery/Libraries/STM32F4xx_StdPeriph_Driver/src/stm32f4xx_sdio.c ****   * @{
 785:App/STM32F4-Discovery/Libraries/STM32F4xx_StdPeriph_Driver/src/stm32f4xx_sdio.c ****   */
 786:App/STM32F4-Discovery/Libraries/STM32F4xx_StdPeriph_Driver/src/stm32f4xx_sdio.c **** 
 787:App/STM32F4-Discovery/Libraries/STM32F4xx_StdPeriph_Driver/src/stm32f4xx_sdio.c **** /**
 788:App/STM32F4-Discovery/Libraries/STM32F4xx_StdPeriph_Driver/src/stm32f4xx_sdio.c ****   * @brief  Enables or disables the SDIO interrupts.
 789:App/STM32F4-Discovery/Libraries/STM32F4xx_StdPeriph_Driver/src/stm32f4xx_sdio.c ****   * @param  SDIO_IT: specifies the SDIO interrupt sources to be enabled or disabled.
 790:App/STM32F4-Discovery/Libraries/STM32F4xx_StdPeriph_Driver/src/stm32f4xx_sdio.c ****   *          This parameter can be one or a combination of the following values:
 791:App/STM32F4-Discovery/Libraries/STM32F4xx_StdPeriph_Driver/src/stm32f4xx_sdio.c ****   *            @arg SDIO_IT_CCRCFAIL: Command response received (CRC check failed) interrupt
 792:App/STM32F4-Discovery/Libraries/STM32F4xx_StdPeriph_Driver/src/stm32f4xx_sdio.c ****   *            @arg SDIO_IT_DCRCFAIL: Data block sent/received (CRC check failed) interrupt
 793:App/STM32F4-Discovery/Libraries/STM32F4xx_StdPeriph_Driver/src/stm32f4xx_sdio.c ****   *            @arg SDIO_IT_CTIMEOUT: Command response timeout interrupt
 794:App/STM32F4-Discovery/Libraries/STM32F4xx_StdPeriph_Driver/src/stm32f4xx_sdio.c ****   *            @arg SDIO_IT_DTIMEOUT: Data timeout interrupt
 795:App/STM32F4-Discovery/Libraries/STM32F4xx_StdPeriph_Driver/src/stm32f4xx_sdio.c ****   *            @arg SDIO_IT_TXUNDERR: Transmit FIFO underrun error interrupt
 796:App/STM32F4-Discovery/Libraries/STM32F4xx_StdPeriph_Driver/src/stm32f4xx_sdio.c ****   *            @arg SDIO_IT_RXOVERR:  Received FIFO overrun error interrupt
 797:App/STM32F4-Discovery/Libraries/STM32F4xx_StdPeriph_Driver/src/stm32f4xx_sdio.c ****   *            @arg SDIO_IT_CMDREND:  Command response received (CRC check passed) interrupt
 798:App/STM32F4-Discovery/Libraries/STM32F4xx_StdPeriph_Driver/src/stm32f4xx_sdio.c ****   *            @arg SDIO_IT_CMDSENT:  Command sent (no response required) interrupt
 799:App/STM32F4-Discovery/Libraries/STM32F4xx_StdPeriph_Driver/src/stm32f4xx_sdio.c ****   *            @arg SDIO_IT_DATAEND:  Data end (data counter, SDIDCOUNT, is zero) interrupt
 800:App/STM32F4-Discovery/Libraries/STM32F4xx_StdPeriph_Driver/src/stm32f4xx_sdio.c ****   *            @arg SDIO_IT_STBITERR: Start bit not detected on all data signals in wide 
 801:App/STM32F4-Discovery/Libraries/STM32F4xx_StdPeriph_Driver/src/stm32f4xx_sdio.c ****   *                                   bus mode interrupt
 802:App/STM32F4-Discovery/Libraries/STM32F4xx_StdPeriph_Driver/src/stm32f4xx_sdio.c ****   *            @arg SDIO_IT_DBCKEND:  Data block sent/received (CRC check passed) interrupt
 803:App/STM32F4-Discovery/Libraries/STM32F4xx_StdPeriph_Driver/src/stm32f4xx_sdio.c ****   *            @arg SDIO_IT_CMDACT:   Command transfer in progress interrupt
 804:App/STM32F4-Discovery/Libraries/STM32F4xx_StdPeriph_Driver/src/stm32f4xx_sdio.c ****   *            @arg SDIO_IT_TXACT:    Data transmit in progress interrupt
 805:App/STM32F4-Discovery/Libraries/STM32F4xx_StdPeriph_Driver/src/stm32f4xx_sdio.c ****   *            @arg SDIO_IT_RXACT:    Data receive in progress interrupt
 806:App/STM32F4-Discovery/Libraries/STM32F4xx_StdPeriph_Driver/src/stm32f4xx_sdio.c ****   *            @arg SDIO_IT_TXFIFOHE: Transmit FIFO Half Empty interrupt
 807:App/STM32F4-Discovery/Libraries/STM32F4xx_StdPeriph_Driver/src/stm32f4xx_sdio.c ****   *            @arg SDIO_IT_RXFIFOHF: Receive FIFO Half Full interrupt
 808:App/STM32F4-Discovery/Libraries/STM32F4xx_StdPeriph_Driver/src/stm32f4xx_sdio.c ****   *            @arg SDIO_IT_TXFIFOF:  Transmit FIFO full interrupt
 809:App/STM32F4-Discovery/Libraries/STM32F4xx_StdPeriph_Driver/src/stm32f4xx_sdio.c ****   *            @arg SDIO_IT_RXFIFOF:  Receive FIFO full interrupt
 810:App/STM32F4-Discovery/Libraries/STM32F4xx_StdPeriph_Driver/src/stm32f4xx_sdio.c ****   *            @arg SDIO_IT_TXFIFOE:  Transmit FIFO empty interrupt
 811:App/STM32F4-Discovery/Libraries/STM32F4xx_StdPeriph_Driver/src/stm32f4xx_sdio.c ****   *            @arg SDIO_IT_RXFIFOE:  Receive FIFO empty interrupt
 812:App/STM32F4-Discovery/Libraries/STM32F4xx_StdPeriph_Driver/src/stm32f4xx_sdio.c ****   *            @arg SDIO_IT_TXDAVL:   Data available in transmit FIFO interrupt
 813:App/STM32F4-Discovery/Libraries/STM32F4xx_StdPeriph_Driver/src/stm32f4xx_sdio.c ****   *            @arg SDIO_IT_RXDAVL:   Data available in receive FIFO interrupt
 814:App/STM32F4-Discovery/Libraries/STM32F4xx_StdPeriph_Driver/src/stm32f4xx_sdio.c ****   *            @arg SDIO_IT_SDIOIT:   SD I/O interrupt received interrupt
 815:App/STM32F4-Discovery/Libraries/STM32F4xx_StdPeriph_Driver/src/stm32f4xx_sdio.c ****   *            @arg SDIO_IT_CEATAEND: CE-ATA command completion signal received for CMD61 interrupt
 816:App/STM32F4-Discovery/Libraries/STM32F4xx_StdPeriph_Driver/src/stm32f4xx_sdio.c ****   * @param  NewState: new state of the specified SDIO interrupts.
 817:App/STM32F4-Discovery/Libraries/STM32F4xx_StdPeriph_Driver/src/stm32f4xx_sdio.c ****   *          This parameter can be: ENABLE or DISABLE.
 818:App/STM32F4-Discovery/Libraries/STM32F4xx_StdPeriph_Driver/src/stm32f4xx_sdio.c ****   * @retval None 
 819:App/STM32F4-Discovery/Libraries/STM32F4xx_StdPeriph_Driver/src/stm32f4xx_sdio.c ****   */
 820:App/STM32F4-Discovery/Libraries/STM32F4xx_StdPeriph_Driver/src/stm32f4xx_sdio.c **** void SDIO_ITConfig(uint32_t SDIO_IT, FunctionalState NewState)
 821:App/STM32F4-Discovery/Libraries/STM32F4xx_StdPeriph_Driver/src/stm32f4xx_sdio.c **** {
 1609              		.loc 1 821 0
 1610              		.cfi_startproc
 1611              		@ args = 0, pretend = 0, frame = 8
 1612              		@ frame_needed = 1, uses_anonymous_args = 0
 1613 0000 80B5     		push	{r7, lr}
 1614              	.LCFI69:
 1615              		.cfi_def_cfa_offset 8
 1616              		.cfi_offset 7, -8
 1617              		.cfi_offset 14, -4
 1618 0002 82B0     		sub	sp, sp, #8
 1619              	.LCFI70:
 1620              		.cfi_def_cfa_offset 16
 1621 0004 00AF     		add	r7, sp, #0
 1622              	.LCFI71:
 1623              		.cfi_def_cfa_register 7
 1624 0006 7860     		str	r0, [r7, #4]
 1625 0008 0B46     		mov	r3, r1
 1626 000a FB70     		strb	r3, [r7, #3]
 822:App/STM32F4-Discovery/Libraries/STM32F4xx_StdPeriph_Driver/src/stm32f4xx_sdio.c ****   /* Check the parameters */
 823:App/STM32F4-Discovery/Libraries/STM32F4xx_StdPeriph_Driver/src/stm32f4xx_sdio.c ****   assert_param(IS_SDIO_IT(SDIO_IT));
 1627              		.loc 1 823 0
 1628 000c 7B68     		ldr	r3, [r7, #4]
 1629 000e 03F07F43 		and	r3, r3, #-16777216
 1630 0012 002B     		cmp	r3, #0
 1631 0014 02D1     		bne	.L101
 1632              		.loc 1 823 0 is_stmt 0 discriminator 2
 1633 0016 7B68     		ldr	r3, [r7, #4]
 1634 0018 002B     		cmp	r3, #0
 1635 001a 04D1     		bne	.L102
 1636              	.L101:
 1637              		.loc 1 823 0 discriminator 1
 1638 001c 1148     		ldr	r0, .L106
 1639 001e 40F23731 		movw	r1, #823
 1640 0022 FFF7FEFF 		bl	assert_failed
 1641              	.L102:
 824:App/STM32F4-Discovery/Libraries/STM32F4xx_StdPeriph_Driver/src/stm32f4xx_sdio.c ****   assert_param(IS_FUNCTIONAL_STATE(NewState));
 1642              		.loc 1 824 0 is_stmt 1
 1643 0026 FB78     		ldrb	r3, [r7, #3]	@ zero_extendqisi2
 1644 0028 002B     		cmp	r3, #0
 1645 002a 07D0     		beq	.L103
 1646              		.loc 1 824 0 is_stmt 0 discriminator 1
 1647 002c FB78     		ldrb	r3, [r7, #3]	@ zero_extendqisi2
 1648 002e 012B     		cmp	r3, #1
 1649 0030 04D0     		beq	.L103
 1650 0032 0C48     		ldr	r0, .L106
 1651 0034 4FF44E71 		mov	r1, #824
 1652 0038 FFF7FEFF 		bl	assert_failed
 1653              	.L103:
 825:App/STM32F4-Discovery/Libraries/STM32F4xx_StdPeriph_Driver/src/stm32f4xx_sdio.c ****   
 826:App/STM32F4-Discovery/Libraries/STM32F4xx_StdPeriph_Driver/src/stm32f4xx_sdio.c ****   if (NewState != DISABLE)
 1654              		.loc 1 826 0 is_stmt 1
 1655 003c FB78     		ldrb	r3, [r7, #3]	@ zero_extendqisi2
 1656 003e 002B     		cmp	r3, #0
 1657 0040 06D0     		beq	.L104
 827:App/STM32F4-Discovery/Libraries/STM32F4xx_StdPeriph_Driver/src/stm32f4xx_sdio.c ****   {
 828:App/STM32F4-Discovery/Libraries/STM32F4xx_StdPeriph_Driver/src/stm32f4xx_sdio.c ****     /* Enable the SDIO interrupts */
 829:App/STM32F4-Discovery/Libraries/STM32F4xx_StdPeriph_Driver/src/stm32f4xx_sdio.c ****     SDIO->MASK |= SDIO_IT;
 1658              		.loc 1 829 0
 1659 0042 094B     		ldr	r3, .L106+4
 1660 0044 084A     		ldr	r2, .L106+4
 1661 0046 D16B     		ldr	r1, [r2, #60]
 1662 0048 7A68     		ldr	r2, [r7, #4]
 1663 004a 0A43     		orrs	r2, r2, r1
 1664 004c DA63     		str	r2, [r3, #60]
 1665 004e 06E0     		b	.L100
 1666              	.L104:
 830:App/STM32F4-Discovery/Libraries/STM32F4xx_StdPeriph_Driver/src/stm32f4xx_sdio.c ****   }
 831:App/STM32F4-Discovery/Libraries/STM32F4xx_StdPeriph_Driver/src/stm32f4xx_sdio.c ****   else
 832:App/STM32F4-Discovery/Libraries/STM32F4xx_StdPeriph_Driver/src/stm32f4xx_sdio.c ****   {
 833:App/STM32F4-Discovery/Libraries/STM32F4xx_StdPeriph_Driver/src/stm32f4xx_sdio.c ****     /* Disable the SDIO interrupts */
 834:App/STM32F4-Discovery/Libraries/STM32F4xx_StdPeriph_Driver/src/stm32f4xx_sdio.c ****     SDIO->MASK &= ~SDIO_IT;
 1667              		.loc 1 834 0
 1668 0050 054B     		ldr	r3, .L106+4
 1669 0052 054A     		ldr	r2, .L106+4
 1670 0054 D16B     		ldr	r1, [r2, #60]
 1671 0056 7A68     		ldr	r2, [r7, #4]
 1672 0058 D243     		mvns	r2, r2
 1673 005a 0A40     		ands	r2, r2, r1
 1674 005c DA63     		str	r2, [r3, #60]
 1675              	.L100:
 835:App/STM32F4-Discovery/Libraries/STM32F4xx_StdPeriph_Driver/src/stm32f4xx_sdio.c ****   } 
 836:App/STM32F4-Discovery/Libraries/STM32F4xx_StdPeriph_Driver/src/stm32f4xx_sdio.c **** }
 1676              		.loc 1 836 0
 1677 005e 0837     		adds	r7, r7, #8
 1678 0060 BD46     		mov	sp, r7
 1679              		@ sp needed
 1680 0062 80BD     		pop	{r7, pc}
 1681              	.L107:
 1682              		.align	2
 1683              	.L106:
 1684 0064 00000000 		.word	.LC0
 1685 0068 002C0140 		.word	1073818624
 1686              		.cfi_endproc
 1687              	.LFE135:
 1689              		.section	.text.SDIO_GetFlagStatus,"ax",%progbits
 1690              		.align	2
 1691              		.global	SDIO_GetFlagStatus
 1692              		.thumb
 1693              		.thumb_func
 1695              	SDIO_GetFlagStatus:
 1696              	.LFB136:
 837:App/STM32F4-Discovery/Libraries/STM32F4xx_StdPeriph_Driver/src/stm32f4xx_sdio.c **** 
 838:App/STM32F4-Discovery/Libraries/STM32F4xx_StdPeriph_Driver/src/stm32f4xx_sdio.c **** /**
 839:App/STM32F4-Discovery/Libraries/STM32F4xx_StdPeriph_Driver/src/stm32f4xx_sdio.c ****   * @brief  Checks whether the specified SDIO flag is set or not.
 840:App/STM32F4-Discovery/Libraries/STM32F4xx_StdPeriph_Driver/src/stm32f4xx_sdio.c ****   * @param  SDIO_FLAG: specifies the flag to check. 
 841:App/STM32F4-Discovery/Libraries/STM32F4xx_StdPeriph_Driver/src/stm32f4xx_sdio.c ****   *          This parameter can be one of the following values:
 842:App/STM32F4-Discovery/Libraries/STM32F4xx_StdPeriph_Driver/src/stm32f4xx_sdio.c ****   *            @arg SDIO_FLAG_CCRCFAIL: Command response received (CRC check failed)
 843:App/STM32F4-Discovery/Libraries/STM32F4xx_StdPeriph_Driver/src/stm32f4xx_sdio.c ****   *            @arg SDIO_FLAG_DCRCFAIL: Data block sent/received (CRC check failed)
 844:App/STM32F4-Discovery/Libraries/STM32F4xx_StdPeriph_Driver/src/stm32f4xx_sdio.c ****   *            @arg SDIO_FLAG_CTIMEOUT: Command response timeout
 845:App/STM32F4-Discovery/Libraries/STM32F4xx_StdPeriph_Driver/src/stm32f4xx_sdio.c ****   *            @arg SDIO_FLAG_DTIMEOUT: Data timeout
 846:App/STM32F4-Discovery/Libraries/STM32F4xx_StdPeriph_Driver/src/stm32f4xx_sdio.c ****   *            @arg SDIO_FLAG_TXUNDERR: Transmit FIFO underrun error
 847:App/STM32F4-Discovery/Libraries/STM32F4xx_StdPeriph_Driver/src/stm32f4xx_sdio.c ****   *            @arg SDIO_FLAG_RXOVERR:  Received FIFO overrun error
 848:App/STM32F4-Discovery/Libraries/STM32F4xx_StdPeriph_Driver/src/stm32f4xx_sdio.c ****   *            @arg SDIO_FLAG_CMDREND:  Command response received (CRC check passed)
 849:App/STM32F4-Discovery/Libraries/STM32F4xx_StdPeriph_Driver/src/stm32f4xx_sdio.c ****   *            @arg SDIO_FLAG_CMDSENT:  Command sent (no response required)
 850:App/STM32F4-Discovery/Libraries/STM32F4xx_StdPeriph_Driver/src/stm32f4xx_sdio.c ****   *            @arg SDIO_FLAG_DATAEND:  Data end (data counter, SDIDCOUNT, is zero)
 851:App/STM32F4-Discovery/Libraries/STM32F4xx_StdPeriph_Driver/src/stm32f4xx_sdio.c ****   *            @arg SDIO_FLAG_STBITERR: Start bit not detected on all data signals in wide bus mode
 852:App/STM32F4-Discovery/Libraries/STM32F4xx_StdPeriph_Driver/src/stm32f4xx_sdio.c ****   *            @arg SDIO_FLAG_DBCKEND:  Data block sent/received (CRC check passed)
 853:App/STM32F4-Discovery/Libraries/STM32F4xx_StdPeriph_Driver/src/stm32f4xx_sdio.c ****   *            @arg SDIO_FLAG_CMDACT:   Command transfer in progress
 854:App/STM32F4-Discovery/Libraries/STM32F4xx_StdPeriph_Driver/src/stm32f4xx_sdio.c ****   *            @arg SDIO_FLAG_TXACT:    Data transmit in progress
 855:App/STM32F4-Discovery/Libraries/STM32F4xx_StdPeriph_Driver/src/stm32f4xx_sdio.c ****   *            @arg SDIO_FLAG_RXACT:    Data receive in progress
 856:App/STM32F4-Discovery/Libraries/STM32F4xx_StdPeriph_Driver/src/stm32f4xx_sdio.c ****   *            @arg SDIO_FLAG_TXFIFOHE: Transmit FIFO Half Empty
 857:App/STM32F4-Discovery/Libraries/STM32F4xx_StdPeriph_Driver/src/stm32f4xx_sdio.c ****   *            @arg SDIO_FLAG_RXFIFOHF: Receive FIFO Half Full
 858:App/STM32F4-Discovery/Libraries/STM32F4xx_StdPeriph_Driver/src/stm32f4xx_sdio.c ****   *            @arg SDIO_FLAG_TXFIFOF:  Transmit FIFO full
 859:App/STM32F4-Discovery/Libraries/STM32F4xx_StdPeriph_Driver/src/stm32f4xx_sdio.c ****   *            @arg SDIO_FLAG_RXFIFOF:  Receive FIFO full
 860:App/STM32F4-Discovery/Libraries/STM32F4xx_StdPeriph_Driver/src/stm32f4xx_sdio.c ****   *            @arg SDIO_FLAG_TXFIFOE:  Transmit FIFO empty
 861:App/STM32F4-Discovery/Libraries/STM32F4xx_StdPeriph_Driver/src/stm32f4xx_sdio.c ****   *            @arg SDIO_FLAG_RXFIFOE:  Receive FIFO empty
 862:App/STM32F4-Discovery/Libraries/STM32F4xx_StdPeriph_Driver/src/stm32f4xx_sdio.c ****   *            @arg SDIO_FLAG_TXDAVL:   Data available in transmit FIFO
 863:App/STM32F4-Discovery/Libraries/STM32F4xx_StdPeriph_Driver/src/stm32f4xx_sdio.c ****   *            @arg SDIO_FLAG_RXDAVL:   Data available in receive FIFO
 864:App/STM32F4-Discovery/Libraries/STM32F4xx_StdPeriph_Driver/src/stm32f4xx_sdio.c ****   *            @arg SDIO_FLAG_SDIOIT:   SD I/O interrupt received
 865:App/STM32F4-Discovery/Libraries/STM32F4xx_StdPeriph_Driver/src/stm32f4xx_sdio.c ****   *            @arg SDIO_FLAG_CEATAEND: CE-ATA command completion signal received for CMD61
 866:App/STM32F4-Discovery/Libraries/STM32F4xx_StdPeriph_Driver/src/stm32f4xx_sdio.c ****   * @retval The new state of SDIO_FLAG (SET or RESET).
 867:App/STM32F4-Discovery/Libraries/STM32F4xx_StdPeriph_Driver/src/stm32f4xx_sdio.c ****   */
 868:App/STM32F4-Discovery/Libraries/STM32F4xx_StdPeriph_Driver/src/stm32f4xx_sdio.c **** FlagStatus SDIO_GetFlagStatus(uint32_t SDIO_FLAG)
 869:App/STM32F4-Discovery/Libraries/STM32F4xx_StdPeriph_Driver/src/stm32f4xx_sdio.c **** { 
 1697              		.loc 1 869 0
 1698              		.cfi_startproc
 1699              		@ args = 0, pretend = 0, frame = 16
 1700              		@ frame_needed = 1, uses_anonymous_args = 0
 1701 0000 80B5     		push	{r7, lr}
 1702              	.LCFI72:
 1703              		.cfi_def_cfa_offset 8
 1704              		.cfi_offset 7, -8
 1705              		.cfi_offset 14, -4
 1706 0002 84B0     		sub	sp, sp, #16
 1707              	.LCFI73:
 1708              		.cfi_def_cfa_offset 24
 1709 0004 00AF     		add	r7, sp, #0
 1710              	.LCFI74:
 1711              		.cfi_def_cfa_register 7
 1712 0006 7860     		str	r0, [r7, #4]
 870:App/STM32F4-Discovery/Libraries/STM32F4xx_StdPeriph_Driver/src/stm32f4xx_sdio.c ****   FlagStatus bitstatus = RESET;
 1713              		.loc 1 870 0
 1714 0008 0023     		movs	r3, #0
 1715 000a FB73     		strb	r3, [r7, #15]
 871:App/STM32F4-Discovery/Libraries/STM32F4xx_StdPeriph_Driver/src/stm32f4xx_sdio.c ****   
 872:App/STM32F4-Discovery/Libraries/STM32F4xx_StdPeriph_Driver/src/stm32f4xx_sdio.c ****   /* Check the parameters */
 873:App/STM32F4-Discovery/Libraries/STM32F4xx_StdPeriph_Driver/src/stm32f4xx_sdio.c ****   assert_param(IS_SDIO_FLAG(SDIO_FLAG));
 1716              		.loc 1 873 0
 1717 000c 7B68     		ldr	r3, [r7, #4]
 1718 000e 012B     		cmp	r3, #1
 1719 0010 59D0     		beq	.L109
 1720              		.loc 1 873 0 is_stmt 0 discriminator 1
 1721 0012 7B68     		ldr	r3, [r7, #4]
 1722 0014 022B     		cmp	r3, #2
 1723 0016 56D0     		beq	.L109
 1724 0018 7B68     		ldr	r3, [r7, #4]
 1725 001a 042B     		cmp	r3, #4
 1726 001c 53D0     		beq	.L109
 1727 001e 7B68     		ldr	r3, [r7, #4]
 1728 0020 082B     		cmp	r3, #8
 1729 0022 50D0     		beq	.L109
 1730 0024 7B68     		ldr	r3, [r7, #4]
 1731 0026 102B     		cmp	r3, #16
 1732 0028 4DD0     		beq	.L109
 1733 002a 7B68     		ldr	r3, [r7, #4]
 1734 002c 202B     		cmp	r3, #32
 1735 002e 4AD0     		beq	.L109
 1736 0030 7B68     		ldr	r3, [r7, #4]
 1737 0032 402B     		cmp	r3, #64
 1738 0034 47D0     		beq	.L109
 1739 0036 7B68     		ldr	r3, [r7, #4]
 1740 0038 802B     		cmp	r3, #128
 1741 003a 44D0     		beq	.L109
 1742 003c 7B68     		ldr	r3, [r7, #4]
 1743 003e B3F5807F 		cmp	r3, #256
 1744 0042 40D0     		beq	.L109
 1745 0044 7B68     		ldr	r3, [r7, #4]
 1746 0046 B3F5007F 		cmp	r3, #512
 1747 004a 3CD0     		beq	.L109
 1748 004c 7B68     		ldr	r3, [r7, #4]
 1749 004e B3F5806F 		cmp	r3, #1024
 1750 0052 38D0     		beq	.L109
 1751 0054 7B68     		ldr	r3, [r7, #4]
 1752 0056 B3F5006F 		cmp	r3, #2048
 1753 005a 34D0     		beq	.L109
 1754 005c 7B68     		ldr	r3, [r7, #4]
 1755 005e B3F5805F 		cmp	r3, #4096
 1756 0062 30D0     		beq	.L109
 1757 0064 7B68     		ldr	r3, [r7, #4]
 1758 0066 B3F5005F 		cmp	r3, #8192
 1759 006a 2CD0     		beq	.L109
 1760 006c 7B68     		ldr	r3, [r7, #4]
 1761 006e B3F5804F 		cmp	r3, #16384
 1762 0072 28D0     		beq	.L109
 1763 0074 7B68     		ldr	r3, [r7, #4]
 1764 0076 B3F5004F 		cmp	r3, #32768
 1765 007a 24D0     		beq	.L109
 1766 007c 7B68     		ldr	r3, [r7, #4]
 1767 007e B3F5803F 		cmp	r3, #65536
 1768 0082 20D0     		beq	.L109
 1769 0084 7B68     		ldr	r3, [r7, #4]
 1770 0086 B3F5003F 		cmp	r3, #131072
 1771 008a 1CD0     		beq	.L109
 1772 008c 7B68     		ldr	r3, [r7, #4]
 1773 008e B3F5802F 		cmp	r3, #262144
 1774 0092 18D0     		beq	.L109
 1775 0094 7B68     		ldr	r3, [r7, #4]
 1776 0096 B3F5002F 		cmp	r3, #524288
 1777 009a 14D0     		beq	.L109
 1778 009c 7B68     		ldr	r3, [r7, #4]
 1779 009e B3F5801F 		cmp	r3, #1048576
 1780 00a2 10D0     		beq	.L109
 1781 00a4 7B68     		ldr	r3, [r7, #4]
 1782 00a6 B3F5001F 		cmp	r3, #2097152
 1783 00aa 0CD0     		beq	.L109
 1784 00ac 7B68     		ldr	r3, [r7, #4]
 1785 00ae B3F5800F 		cmp	r3, #4194304
 1786 00b2 08D0     		beq	.L109
 1787 00b4 7B68     		ldr	r3, [r7, #4]
 1788 00b6 B3F5000F 		cmp	r3, #8388608
 1789 00ba 04D0     		beq	.L109
 1790 00bc 0A48     		ldr	r0, .L113
 1791 00be 40F26931 		movw	r1, #873
 1792 00c2 FFF7FEFF 		bl	assert_failed
 1793              	.L109:
 874:App/STM32F4-Discovery/Libraries/STM32F4xx_StdPeriph_Driver/src/stm32f4xx_sdio.c ****   
 875:App/STM32F4-Discovery/Libraries/STM32F4xx_StdPeriph_Driver/src/stm32f4xx_sdio.c ****   if ((SDIO->STA & SDIO_FLAG) != (uint32_t)RESET)
 1794              		.loc 1 875 0 is_stmt 1
 1795 00c6 094B     		ldr	r3, .L113+4
 1796 00c8 5A6B     		ldr	r2, [r3, #52]
 1797 00ca 7B68     		ldr	r3, [r7, #4]
 1798 00cc 1340     		ands	r3, r3, r2
 1799 00ce 002B     		cmp	r3, #0
 1800 00d0 02D0     		beq	.L110
 876:App/STM32F4-Discovery/Libraries/STM32F4xx_StdPeriph_Driver/src/stm32f4xx_sdio.c ****   {
 877:App/STM32F4-Discovery/Libraries/STM32F4xx_StdPeriph_Driver/src/stm32f4xx_sdio.c ****     bitstatus = SET;
 1801              		.loc 1 877 0
 1802 00d2 0123     		movs	r3, #1
 1803 00d4 FB73     		strb	r3, [r7, #15]
 1804 00d6 01E0     		b	.L111
 1805              	.L110:
 878:App/STM32F4-Discovery/Libraries/STM32F4xx_StdPeriph_Driver/src/stm32f4xx_sdio.c ****   }
 879:App/STM32F4-Discovery/Libraries/STM32F4xx_StdPeriph_Driver/src/stm32f4xx_sdio.c ****   else
 880:App/STM32F4-Discovery/Libraries/STM32F4xx_StdPeriph_Driver/src/stm32f4xx_sdio.c ****   {
 881:App/STM32F4-Discovery/Libraries/STM32F4xx_StdPeriph_Driver/src/stm32f4xx_sdio.c ****     bitstatus = RESET;
 1806              		.loc 1 881 0
 1807 00d8 0023     		movs	r3, #0
 1808 00da FB73     		strb	r3, [r7, #15]
 1809              	.L111:
 882:App/STM32F4-Discovery/Libraries/STM32F4xx_StdPeriph_Driver/src/stm32f4xx_sdio.c ****   }
 883:App/STM32F4-Discovery/Libraries/STM32F4xx_StdPeriph_Driver/src/stm32f4xx_sdio.c ****   return bitstatus;
 1810              		.loc 1 883 0
 1811 00dc FB7B     		ldrb	r3, [r7, #15]	@ zero_extendqisi2
 884:App/STM32F4-Discovery/Libraries/STM32F4xx_StdPeriph_Driver/src/stm32f4xx_sdio.c **** }
 1812              		.loc 1 884 0
 1813 00de 1846     		mov	r0, r3
 1814 00e0 1037     		adds	r7, r7, #16
 1815 00e2 BD46     		mov	sp, r7
 1816              		@ sp needed
 1817 00e4 80BD     		pop	{r7, pc}
 1818              	.L114:
 1819 00e6 00BF     		.align	2
 1820              	.L113:
 1821 00e8 00000000 		.word	.LC0
 1822 00ec 002C0140 		.word	1073818624
 1823              		.cfi_endproc
 1824              	.LFE136:
 1826              		.section	.text.SDIO_ClearFlag,"ax",%progbits
 1827              		.align	2
 1828              		.global	SDIO_ClearFlag
 1829              		.thumb
 1830              		.thumb_func
 1832              	SDIO_ClearFlag:
 1833              	.LFB137:
 885:App/STM32F4-Discovery/Libraries/STM32F4xx_StdPeriph_Driver/src/stm32f4xx_sdio.c **** 
 886:App/STM32F4-Discovery/Libraries/STM32F4xx_StdPeriph_Driver/src/stm32f4xx_sdio.c **** /**
 887:App/STM32F4-Discovery/Libraries/STM32F4xx_StdPeriph_Driver/src/stm32f4xx_sdio.c ****   * @brief  Clears the SDIO's pending flags.
 888:App/STM32F4-Discovery/Libraries/STM32F4xx_StdPeriph_Driver/src/stm32f4xx_sdio.c ****   * @param  SDIO_FLAG: specifies the flag to clear.  
 889:App/STM32F4-Discovery/Libraries/STM32F4xx_StdPeriph_Driver/src/stm32f4xx_sdio.c ****   *          This parameter can be one or a combination of the following values:
 890:App/STM32F4-Discovery/Libraries/STM32F4xx_StdPeriph_Driver/src/stm32f4xx_sdio.c ****   *            @arg SDIO_FLAG_CCRCFAIL: Command response received (CRC check failed)
 891:App/STM32F4-Discovery/Libraries/STM32F4xx_StdPeriph_Driver/src/stm32f4xx_sdio.c ****   *            @arg SDIO_FLAG_DCRCFAIL: Data block sent/received (CRC check failed)
 892:App/STM32F4-Discovery/Libraries/STM32F4xx_StdPeriph_Driver/src/stm32f4xx_sdio.c ****   *            @arg SDIO_FLAG_CTIMEOUT: Command response timeout
 893:App/STM32F4-Discovery/Libraries/STM32F4xx_StdPeriph_Driver/src/stm32f4xx_sdio.c ****   *            @arg SDIO_FLAG_DTIMEOUT: Data timeout
 894:App/STM32F4-Discovery/Libraries/STM32F4xx_StdPeriph_Driver/src/stm32f4xx_sdio.c ****   *            @arg SDIO_FLAG_TXUNDERR: Transmit FIFO underrun error
 895:App/STM32F4-Discovery/Libraries/STM32F4xx_StdPeriph_Driver/src/stm32f4xx_sdio.c ****   *            @arg SDIO_FLAG_RXOVERR:  Received FIFO overrun error
 896:App/STM32F4-Discovery/Libraries/STM32F4xx_StdPeriph_Driver/src/stm32f4xx_sdio.c ****   *            @arg SDIO_FLAG_CMDREND:  Command response received (CRC check passed)
 897:App/STM32F4-Discovery/Libraries/STM32F4xx_StdPeriph_Driver/src/stm32f4xx_sdio.c ****   *            @arg SDIO_FLAG_CMDSENT:  Command sent (no response required)
 898:App/STM32F4-Discovery/Libraries/STM32F4xx_StdPeriph_Driver/src/stm32f4xx_sdio.c ****   *            @arg SDIO_FLAG_DATAEND:  Data end (data counter, SDIDCOUNT, is zero)
 899:App/STM32F4-Discovery/Libraries/STM32F4xx_StdPeriph_Driver/src/stm32f4xx_sdio.c ****   *            @arg SDIO_FLAG_STBITERR: Start bit not detected on all data signals in wide bus mode
 900:App/STM32F4-Discovery/Libraries/STM32F4xx_StdPeriph_Driver/src/stm32f4xx_sdio.c ****   *            @arg SDIO_FLAG_DBCKEND:  Data block sent/received (CRC check passed)
 901:App/STM32F4-Discovery/Libraries/STM32F4xx_StdPeriph_Driver/src/stm32f4xx_sdio.c ****   *            @arg SDIO_FLAG_SDIOIT:   SD I/O interrupt received
 902:App/STM32F4-Discovery/Libraries/STM32F4xx_StdPeriph_Driver/src/stm32f4xx_sdio.c ****   *            @arg SDIO_FLAG_CEATAEND: CE-ATA command completion signal received for CMD61
 903:App/STM32F4-Discovery/Libraries/STM32F4xx_StdPeriph_Driver/src/stm32f4xx_sdio.c ****   * @retval None
 904:App/STM32F4-Discovery/Libraries/STM32F4xx_StdPeriph_Driver/src/stm32f4xx_sdio.c ****   */
 905:App/STM32F4-Discovery/Libraries/STM32F4xx_StdPeriph_Driver/src/stm32f4xx_sdio.c **** void SDIO_ClearFlag(uint32_t SDIO_FLAG)
 906:App/STM32F4-Discovery/Libraries/STM32F4xx_StdPeriph_Driver/src/stm32f4xx_sdio.c **** { 
 1834              		.loc 1 906 0
 1835              		.cfi_startproc
 1836              		@ args = 0, pretend = 0, frame = 8
 1837              		@ frame_needed = 1, uses_anonymous_args = 0
 1838 0000 80B5     		push	{r7, lr}
 1839              	.LCFI75:
 1840              		.cfi_def_cfa_offset 8
 1841              		.cfi_offset 7, -8
 1842              		.cfi_offset 14, -4
 1843 0002 82B0     		sub	sp, sp, #8
 1844              	.LCFI76:
 1845              		.cfi_def_cfa_offset 16
 1846 0004 00AF     		add	r7, sp, #0
 1847              	.LCFI77:
 1848              		.cfi_def_cfa_register 7
 1849 0006 7860     		str	r0, [r7, #4]
 907:App/STM32F4-Discovery/Libraries/STM32F4xx_StdPeriph_Driver/src/stm32f4xx_sdio.c ****   /* Check the parameters */
 908:App/STM32F4-Discovery/Libraries/STM32F4xx_StdPeriph_Driver/src/stm32f4xx_sdio.c ****   assert_param(IS_SDIO_CLEAR_FLAG(SDIO_FLAG));
 1850              		.loc 1 908 0
 1851 0008 7A68     		ldr	r2, [r7, #4]
 1852 000a 094B     		ldr	r3, .L118
 1853 000c 1340     		ands	r3, r3, r2
 1854 000e 002B     		cmp	r3, #0
 1855 0010 02D1     		bne	.L116
 1856              		.loc 1 908 0 is_stmt 0 discriminator 2
 1857 0012 7B68     		ldr	r3, [r7, #4]
 1858 0014 002B     		cmp	r3, #0
 1859 0016 04D1     		bne	.L117
 1860              	.L116:
 1861              		.loc 1 908 0 discriminator 1
 1862 0018 0648     		ldr	r0, .L118+4
 1863 001a 4FF46371 		mov	r1, #908
 1864 001e FFF7FEFF 		bl	assert_failed
 1865              	.L117:
 909:App/STM32F4-Discovery/Libraries/STM32F4xx_StdPeriph_Driver/src/stm32f4xx_sdio.c ****    
 910:App/STM32F4-Discovery/Libraries/STM32F4xx_StdPeriph_Driver/src/stm32f4xx_sdio.c ****   SDIO->ICR = SDIO_FLAG;
 1866              		.loc 1 910 0 is_stmt 1
 1867 0022 054B     		ldr	r3, .L118+8
 1868 0024 7A68     		ldr	r2, [r7, #4]
 1869 0026 9A63     		str	r2, [r3, #56]
 911:App/STM32F4-Discovery/Libraries/STM32F4xx_StdPeriph_Driver/src/stm32f4xx_sdio.c **** }
 1870              		.loc 1 911 0
 1871 0028 0837     		adds	r7, r7, #8
 1872 002a BD46     		mov	sp, r7
 1873              		@ sp needed
 1874 002c 80BD     		pop	{r7, pc}
 1875              	.L119:
 1876 002e 00BF     		.align	2
 1877              	.L118:
 1878 0030 00F83FFF 		.word	-12584960
 1879 0034 00000000 		.word	.LC0
 1880 0038 002C0140 		.word	1073818624
 1881              		.cfi_endproc
 1882              	.LFE137:
 1884              		.section	.text.SDIO_GetITStatus,"ax",%progbits
 1885              		.align	2
 1886              		.global	SDIO_GetITStatus
 1887              		.thumb
 1888              		.thumb_func
 1890              	SDIO_GetITStatus:
 1891              	.LFB138:
 912:App/STM32F4-Discovery/Libraries/STM32F4xx_StdPeriph_Driver/src/stm32f4xx_sdio.c **** 
 913:App/STM32F4-Discovery/Libraries/STM32F4xx_StdPeriph_Driver/src/stm32f4xx_sdio.c **** /**
 914:App/STM32F4-Discovery/Libraries/STM32F4xx_StdPeriph_Driver/src/stm32f4xx_sdio.c ****   * @brief  Checks whether the specified SDIO interrupt has occurred or not.
 915:App/STM32F4-Discovery/Libraries/STM32F4xx_StdPeriph_Driver/src/stm32f4xx_sdio.c ****   * @param  SDIO_IT: specifies the SDIO interrupt source to check. 
 916:App/STM32F4-Discovery/Libraries/STM32F4xx_StdPeriph_Driver/src/stm32f4xx_sdio.c ****   *          This parameter can be one of the following values:
 917:App/STM32F4-Discovery/Libraries/STM32F4xx_StdPeriph_Driver/src/stm32f4xx_sdio.c ****   *            @arg SDIO_IT_CCRCFAIL: Command response received (CRC check failed) interrupt
 918:App/STM32F4-Discovery/Libraries/STM32F4xx_StdPeriph_Driver/src/stm32f4xx_sdio.c ****   *            @arg SDIO_IT_DCRCFAIL: Data block sent/received (CRC check failed) interrupt
 919:App/STM32F4-Discovery/Libraries/STM32F4xx_StdPeriph_Driver/src/stm32f4xx_sdio.c ****   *            @arg SDIO_IT_CTIMEOUT: Command response timeout interrupt
 920:App/STM32F4-Discovery/Libraries/STM32F4xx_StdPeriph_Driver/src/stm32f4xx_sdio.c ****   *            @arg SDIO_IT_DTIMEOUT: Data timeout interrupt
 921:App/STM32F4-Discovery/Libraries/STM32F4xx_StdPeriph_Driver/src/stm32f4xx_sdio.c ****   *            @arg SDIO_IT_TXUNDERR: Transmit FIFO underrun error interrupt
 922:App/STM32F4-Discovery/Libraries/STM32F4xx_StdPeriph_Driver/src/stm32f4xx_sdio.c ****   *            @arg SDIO_IT_RXOVERR:  Received FIFO overrun error interrupt
 923:App/STM32F4-Discovery/Libraries/STM32F4xx_StdPeriph_Driver/src/stm32f4xx_sdio.c ****   *            @arg SDIO_IT_CMDREND:  Command response received (CRC check passed) interrupt
 924:App/STM32F4-Discovery/Libraries/STM32F4xx_StdPeriph_Driver/src/stm32f4xx_sdio.c ****   *            @arg SDIO_IT_CMDSENT:  Command sent (no response required) interrupt
 925:App/STM32F4-Discovery/Libraries/STM32F4xx_StdPeriph_Driver/src/stm32f4xx_sdio.c ****   *            @arg SDIO_IT_DATAEND:  Data end (data counter, SDIDCOUNT, is zero) interrupt
 926:App/STM32F4-Discovery/Libraries/STM32F4xx_StdPeriph_Driver/src/stm32f4xx_sdio.c ****   *            @arg SDIO_IT_STBITERR: Start bit not detected on all data signals in wide 
 927:App/STM32F4-Discovery/Libraries/STM32F4xx_StdPeriph_Driver/src/stm32f4xx_sdio.c ****   *                                   bus mode interrupt
 928:App/STM32F4-Discovery/Libraries/STM32F4xx_StdPeriph_Driver/src/stm32f4xx_sdio.c ****   *            @arg SDIO_IT_DBCKEND:  Data block sent/received (CRC check passed) interrupt
 929:App/STM32F4-Discovery/Libraries/STM32F4xx_StdPeriph_Driver/src/stm32f4xx_sdio.c ****   *            @arg SDIO_IT_CMDACT:   Command transfer in progress interrupt
 930:App/STM32F4-Discovery/Libraries/STM32F4xx_StdPeriph_Driver/src/stm32f4xx_sdio.c ****   *            @arg SDIO_IT_TXACT:    Data transmit in progress interrupt
 931:App/STM32F4-Discovery/Libraries/STM32F4xx_StdPeriph_Driver/src/stm32f4xx_sdio.c ****   *            @arg SDIO_IT_RXACT:    Data receive in progress interrupt
 932:App/STM32F4-Discovery/Libraries/STM32F4xx_StdPeriph_Driver/src/stm32f4xx_sdio.c ****   *            @arg SDIO_IT_TXFIFOHE: Transmit FIFO Half Empty interrupt
 933:App/STM32F4-Discovery/Libraries/STM32F4xx_StdPeriph_Driver/src/stm32f4xx_sdio.c ****   *            @arg SDIO_IT_RXFIFOHF: Receive FIFO Half Full interrupt
 934:App/STM32F4-Discovery/Libraries/STM32F4xx_StdPeriph_Driver/src/stm32f4xx_sdio.c ****   *            @arg SDIO_IT_TXFIFOF:  Transmit FIFO full interrupt
 935:App/STM32F4-Discovery/Libraries/STM32F4xx_StdPeriph_Driver/src/stm32f4xx_sdio.c ****   *            @arg SDIO_IT_RXFIFOF:  Receive FIFO full interrupt
 936:App/STM32F4-Discovery/Libraries/STM32F4xx_StdPeriph_Driver/src/stm32f4xx_sdio.c ****   *            @arg SDIO_IT_TXFIFOE:  Transmit FIFO empty interrupt
 937:App/STM32F4-Discovery/Libraries/STM32F4xx_StdPeriph_Driver/src/stm32f4xx_sdio.c ****   *            @arg SDIO_IT_RXFIFOE:  Receive FIFO empty interrupt
 938:App/STM32F4-Discovery/Libraries/STM32F4xx_StdPeriph_Driver/src/stm32f4xx_sdio.c ****   *            @arg SDIO_IT_TXDAVL:   Data available in transmit FIFO interrupt
 939:App/STM32F4-Discovery/Libraries/STM32F4xx_StdPeriph_Driver/src/stm32f4xx_sdio.c ****   *            @arg SDIO_IT_RXDAVL:   Data available in receive FIFO interrupt
 940:App/STM32F4-Discovery/Libraries/STM32F4xx_StdPeriph_Driver/src/stm32f4xx_sdio.c ****   *            @arg SDIO_IT_SDIOIT:   SD I/O interrupt received interrupt
 941:App/STM32F4-Discovery/Libraries/STM32F4xx_StdPeriph_Driver/src/stm32f4xx_sdio.c ****   *            @arg SDIO_IT_CEATAEND: CE-ATA command completion signal received for CMD61 interrupt
 942:App/STM32F4-Discovery/Libraries/STM32F4xx_StdPeriph_Driver/src/stm32f4xx_sdio.c ****   * @retval The new state of SDIO_IT (SET or RESET).
 943:App/STM32F4-Discovery/Libraries/STM32F4xx_StdPeriph_Driver/src/stm32f4xx_sdio.c ****   */
 944:App/STM32F4-Discovery/Libraries/STM32F4xx_StdPeriph_Driver/src/stm32f4xx_sdio.c **** ITStatus SDIO_GetITStatus(uint32_t SDIO_IT)
 945:App/STM32F4-Discovery/Libraries/STM32F4xx_StdPeriph_Driver/src/stm32f4xx_sdio.c **** { 
 1892              		.loc 1 945 0
 1893              		.cfi_startproc
 1894              		@ args = 0, pretend = 0, frame = 16
 1895              		@ frame_needed = 1, uses_anonymous_args = 0
 1896 0000 80B5     		push	{r7, lr}
 1897              	.LCFI78:
 1898              		.cfi_def_cfa_offset 8
 1899              		.cfi_offset 7, -8
 1900              		.cfi_offset 14, -4
 1901 0002 84B0     		sub	sp, sp, #16
 1902              	.LCFI79:
 1903              		.cfi_def_cfa_offset 24
 1904 0004 00AF     		add	r7, sp, #0
 1905              	.LCFI80:
 1906              		.cfi_def_cfa_register 7
 1907 0006 7860     		str	r0, [r7, #4]
 946:App/STM32F4-Discovery/Libraries/STM32F4xx_StdPeriph_Driver/src/stm32f4xx_sdio.c ****   ITStatus bitstatus = RESET;
 1908              		.loc 1 946 0
 1909 0008 0023     		movs	r3, #0
 1910 000a FB73     		strb	r3, [r7, #15]
 947:App/STM32F4-Discovery/Libraries/STM32F4xx_StdPeriph_Driver/src/stm32f4xx_sdio.c ****   
 948:App/STM32F4-Discovery/Libraries/STM32F4xx_StdPeriph_Driver/src/stm32f4xx_sdio.c ****   /* Check the parameters */
 949:App/STM32F4-Discovery/Libraries/STM32F4xx_StdPeriph_Driver/src/stm32f4xx_sdio.c ****   assert_param(IS_SDIO_GET_IT(SDIO_IT));
 1911              		.loc 1 949 0
 1912 000c 7B68     		ldr	r3, [r7, #4]
 1913 000e 012B     		cmp	r3, #1
 1914 0010 59D0     		beq	.L121
 1915              		.loc 1 949 0 is_stmt 0 discriminator 1
 1916 0012 7B68     		ldr	r3, [r7, #4]
 1917 0014 022B     		cmp	r3, #2
 1918 0016 56D0     		beq	.L121
 1919 0018 7B68     		ldr	r3, [r7, #4]
 1920 001a 042B     		cmp	r3, #4
 1921 001c 53D0     		beq	.L121
 1922 001e 7B68     		ldr	r3, [r7, #4]
 1923 0020 082B     		cmp	r3, #8
 1924 0022 50D0     		beq	.L121
 1925 0024 7B68     		ldr	r3, [r7, #4]
 1926 0026 102B     		cmp	r3, #16
 1927 0028 4DD0     		beq	.L121
 1928 002a 7B68     		ldr	r3, [r7, #4]
 1929 002c 202B     		cmp	r3, #32
 1930 002e 4AD0     		beq	.L121
 1931 0030 7B68     		ldr	r3, [r7, #4]
 1932 0032 402B     		cmp	r3, #64
 1933 0034 47D0     		beq	.L121
 1934 0036 7B68     		ldr	r3, [r7, #4]
 1935 0038 802B     		cmp	r3, #128
 1936 003a 44D0     		beq	.L121
 1937 003c 7B68     		ldr	r3, [r7, #4]
 1938 003e B3F5807F 		cmp	r3, #256
 1939 0042 40D0     		beq	.L121
 1940 0044 7B68     		ldr	r3, [r7, #4]
 1941 0046 B3F5007F 		cmp	r3, #512
 1942 004a 3CD0     		beq	.L121
 1943 004c 7B68     		ldr	r3, [r7, #4]
 1944 004e B3F5806F 		cmp	r3, #1024
 1945 0052 38D0     		beq	.L121
 1946 0054 7B68     		ldr	r3, [r7, #4]
 1947 0056 B3F5006F 		cmp	r3, #2048
 1948 005a 34D0     		beq	.L121
 1949 005c 7B68     		ldr	r3, [r7, #4]
 1950 005e B3F5805F 		cmp	r3, #4096
 1951 0062 30D0     		beq	.L121
 1952 0064 7B68     		ldr	r3, [r7, #4]
 1953 0066 B3F5005F 		cmp	r3, #8192
 1954 006a 2CD0     		beq	.L121
 1955 006c 7B68     		ldr	r3, [r7, #4]
 1956 006e B3F5804F 		cmp	r3, #16384
 1957 0072 28D0     		beq	.L121
 1958 0074 7B68     		ldr	r3, [r7, #4]
 1959 0076 B3F5004F 		cmp	r3, #32768
 1960 007a 24D0     		beq	.L121
 1961 007c 7B68     		ldr	r3, [r7, #4]
 1962 007e B3F5803F 		cmp	r3, #65536
 1963 0082 20D0     		beq	.L121
 1964 0084 7B68     		ldr	r3, [r7, #4]
 1965 0086 B3F5003F 		cmp	r3, #131072
 1966 008a 1CD0     		beq	.L121
 1967 008c 7B68     		ldr	r3, [r7, #4]
 1968 008e B3F5802F 		cmp	r3, #262144
 1969 0092 18D0     		beq	.L121
 1970 0094 7B68     		ldr	r3, [r7, #4]
 1971 0096 B3F5002F 		cmp	r3, #524288
 1972 009a 14D0     		beq	.L121
 1973 009c 7B68     		ldr	r3, [r7, #4]
 1974 009e B3F5801F 		cmp	r3, #1048576
 1975 00a2 10D0     		beq	.L121
 1976 00a4 7B68     		ldr	r3, [r7, #4]
 1977 00a6 B3F5001F 		cmp	r3, #2097152
 1978 00aa 0CD0     		beq	.L121
 1979 00ac 7B68     		ldr	r3, [r7, #4]
 1980 00ae B3F5800F 		cmp	r3, #4194304
 1981 00b2 08D0     		beq	.L121
 1982 00b4 7B68     		ldr	r3, [r7, #4]
 1983 00b6 B3F5000F 		cmp	r3, #8388608
 1984 00ba 04D0     		beq	.L121
 1985 00bc 0A48     		ldr	r0, .L125
 1986 00be 40F2B531 		movw	r1, #949
 1987 00c2 FFF7FEFF 		bl	assert_failed
 1988              	.L121:
 950:App/STM32F4-Discovery/Libraries/STM32F4xx_StdPeriph_Driver/src/stm32f4xx_sdio.c ****   if ((SDIO->STA & SDIO_IT) != (uint32_t)RESET)  
 1989              		.loc 1 950 0 is_stmt 1
 1990 00c6 094B     		ldr	r3, .L125+4
 1991 00c8 5A6B     		ldr	r2, [r3, #52]
 1992 00ca 7B68     		ldr	r3, [r7, #4]
 1993 00cc 1340     		ands	r3, r3, r2
 1994 00ce 002B     		cmp	r3, #0
 1995 00d0 02D0     		beq	.L122
 951:App/STM32F4-Discovery/Libraries/STM32F4xx_StdPeriph_Driver/src/stm32f4xx_sdio.c ****   {
 952:App/STM32F4-Discovery/Libraries/STM32F4xx_StdPeriph_Driver/src/stm32f4xx_sdio.c ****     bitstatus = SET;
 1996              		.loc 1 952 0
 1997 00d2 0123     		movs	r3, #1
 1998 00d4 FB73     		strb	r3, [r7, #15]
 1999 00d6 01E0     		b	.L123
 2000              	.L122:
 953:App/STM32F4-Discovery/Libraries/STM32F4xx_StdPeriph_Driver/src/stm32f4xx_sdio.c ****   }
 954:App/STM32F4-Discovery/Libraries/STM32F4xx_StdPeriph_Driver/src/stm32f4xx_sdio.c ****   else
 955:App/STM32F4-Discovery/Libraries/STM32F4xx_StdPeriph_Driver/src/stm32f4xx_sdio.c ****   {
 956:App/STM32F4-Discovery/Libraries/STM32F4xx_StdPeriph_Driver/src/stm32f4xx_sdio.c ****     bitstatus = RESET;
 2001              		.loc 1 956 0
 2002 00d8 0023     		movs	r3, #0
 2003 00da FB73     		strb	r3, [r7, #15]
 2004              	.L123:
 957:App/STM32F4-Discovery/Libraries/STM32F4xx_StdPeriph_Driver/src/stm32f4xx_sdio.c ****   }
 958:App/STM32F4-Discovery/Libraries/STM32F4xx_StdPeriph_Driver/src/stm32f4xx_sdio.c ****   return bitstatus;
 2005              		.loc 1 958 0
 2006 00dc FB7B     		ldrb	r3, [r7, #15]	@ zero_extendqisi2
 959:App/STM32F4-Discovery/Libraries/STM32F4xx_StdPeriph_Driver/src/stm32f4xx_sdio.c **** }
 2007              		.loc 1 959 0
 2008 00de 1846     		mov	r0, r3
 2009 00e0 1037     		adds	r7, r7, #16
 2010 00e2 BD46     		mov	sp, r7
 2011              		@ sp needed
 2012 00e4 80BD     		pop	{r7, pc}
 2013              	.L126:
 2014 00e6 00BF     		.align	2
 2015              	.L125:
 2016 00e8 00000000 		.word	.LC0
 2017 00ec 002C0140 		.word	1073818624
 2018              		.cfi_endproc
 2019              	.LFE138:
 2021              		.section	.text.SDIO_ClearITPendingBit,"ax",%progbits
 2022              		.align	2
 2023              		.global	SDIO_ClearITPendingBit
 2024              		.thumb
 2025              		.thumb_func
 2027              	SDIO_ClearITPendingBit:
 2028              	.LFB139:
 960:App/STM32F4-Discovery/Libraries/STM32F4xx_StdPeriph_Driver/src/stm32f4xx_sdio.c **** 
 961:App/STM32F4-Discovery/Libraries/STM32F4xx_StdPeriph_Driver/src/stm32f4xx_sdio.c **** /**
 962:App/STM32F4-Discovery/Libraries/STM32F4xx_StdPeriph_Driver/src/stm32f4xx_sdio.c ****   * @brief  Clears the SDIO's interrupt pending bits.
 963:App/STM32F4-Discovery/Libraries/STM32F4xx_StdPeriph_Driver/src/stm32f4xx_sdio.c ****   * @param  SDIO_IT: specifies the interrupt pending bit to clear. 
 964:App/STM32F4-Discovery/Libraries/STM32F4xx_StdPeriph_Driver/src/stm32f4xx_sdio.c ****   *          This parameter can be one or a combination of the following values:
 965:App/STM32F4-Discovery/Libraries/STM32F4xx_StdPeriph_Driver/src/stm32f4xx_sdio.c ****   *            @arg SDIO_IT_CCRCFAIL: Command response received (CRC check failed) interrupt
 966:App/STM32F4-Discovery/Libraries/STM32F4xx_StdPeriph_Driver/src/stm32f4xx_sdio.c ****   *            @arg SDIO_IT_DCRCFAIL: Data block sent/received (CRC check failed) interrupt
 967:App/STM32F4-Discovery/Libraries/STM32F4xx_StdPeriph_Driver/src/stm32f4xx_sdio.c ****   *            @arg SDIO_IT_CTIMEOUT: Command response timeout interrupt
 968:App/STM32F4-Discovery/Libraries/STM32F4xx_StdPeriph_Driver/src/stm32f4xx_sdio.c ****   *            @arg SDIO_IT_DTIMEOUT: Data timeout interrupt
 969:App/STM32F4-Discovery/Libraries/STM32F4xx_StdPeriph_Driver/src/stm32f4xx_sdio.c ****   *            @arg SDIO_IT_TXUNDERR: Transmit FIFO underrun error interrupt
 970:App/STM32F4-Discovery/Libraries/STM32F4xx_StdPeriph_Driver/src/stm32f4xx_sdio.c ****   *            @arg SDIO_IT_RXOVERR:  Received FIFO overrun error interrupt
 971:App/STM32F4-Discovery/Libraries/STM32F4xx_StdPeriph_Driver/src/stm32f4xx_sdio.c ****   *            @arg SDIO_IT_CMDREND:  Command response received (CRC check passed) interrupt
 972:App/STM32F4-Discovery/Libraries/STM32F4xx_StdPeriph_Driver/src/stm32f4xx_sdio.c ****   *            @arg SDIO_IT_CMDSENT:  Command sent (no response required) interrupt
 973:App/STM32F4-Discovery/Libraries/STM32F4xx_StdPeriph_Driver/src/stm32f4xx_sdio.c ****   *            @arg SDIO_IT_DATAEND:  Data end (data counter, SDIO_DCOUNT, is zero) interrupt
 974:App/STM32F4-Discovery/Libraries/STM32F4xx_StdPeriph_Driver/src/stm32f4xx_sdio.c ****   *            @arg SDIO_IT_STBITERR: Start bit not detected on all data signals in wide 
 975:App/STM32F4-Discovery/Libraries/STM32F4xx_StdPeriph_Driver/src/stm32f4xx_sdio.c ****   *                                   bus mode interrupt
 976:App/STM32F4-Discovery/Libraries/STM32F4xx_StdPeriph_Driver/src/stm32f4xx_sdio.c ****   *            @arg SDIO_IT_SDIOIT:   SD I/O interrupt received interrupt
 977:App/STM32F4-Discovery/Libraries/STM32F4xx_StdPeriph_Driver/src/stm32f4xx_sdio.c ****   *            @arg SDIO_IT_CEATAEND: CE-ATA command completion signal received for CMD61
 978:App/STM32F4-Discovery/Libraries/STM32F4xx_StdPeriph_Driver/src/stm32f4xx_sdio.c ****   * @retval None
 979:App/STM32F4-Discovery/Libraries/STM32F4xx_StdPeriph_Driver/src/stm32f4xx_sdio.c ****   */
 980:App/STM32F4-Discovery/Libraries/STM32F4xx_StdPeriph_Driver/src/stm32f4xx_sdio.c **** void SDIO_ClearITPendingBit(uint32_t SDIO_IT)
 981:App/STM32F4-Discovery/Libraries/STM32F4xx_StdPeriph_Driver/src/stm32f4xx_sdio.c **** { 
 2029              		.loc 1 981 0
 2030              		.cfi_startproc
 2031              		@ args = 0, pretend = 0, frame = 8
 2032              		@ frame_needed = 1, uses_anonymous_args = 0
 2033 0000 80B5     		push	{r7, lr}
 2034              	.LCFI81:
 2035              		.cfi_def_cfa_offset 8
 2036              		.cfi_offset 7, -8
 2037              		.cfi_offset 14, -4
 2038 0002 82B0     		sub	sp, sp, #8
 2039              	.LCFI82:
 2040              		.cfi_def_cfa_offset 16
 2041 0004 00AF     		add	r7, sp, #0
 2042              	.LCFI83:
 2043              		.cfi_def_cfa_register 7
 2044 0006 7860     		str	r0, [r7, #4]
 982:App/STM32F4-Discovery/Libraries/STM32F4xx_StdPeriph_Driver/src/stm32f4xx_sdio.c ****   /* Check the parameters */
 983:App/STM32F4-Discovery/Libraries/STM32F4xx_StdPeriph_Driver/src/stm32f4xx_sdio.c ****   assert_param(IS_SDIO_CLEAR_IT(SDIO_IT));
 2045              		.loc 1 983 0
 2046 0008 7A68     		ldr	r2, [r7, #4]
 2047 000a 094B     		ldr	r3, .L130
 2048 000c 1340     		ands	r3, r3, r2
 2049 000e 002B     		cmp	r3, #0
 2050 0010 02D1     		bne	.L128
 2051              		.loc 1 983 0 is_stmt 0 discriminator 2
 2052 0012 7B68     		ldr	r3, [r7, #4]
 2053 0014 002B     		cmp	r3, #0
 2054 0016 04D1     		bne	.L129
 2055              	.L128:
 2056              		.loc 1 983 0 discriminator 1
 2057 0018 0648     		ldr	r0, .L130+4
 2058 001a 40F2D731 		movw	r1, #983
 2059 001e FFF7FEFF 		bl	assert_failed
 2060              	.L129:
 984:App/STM32F4-Discovery/Libraries/STM32F4xx_StdPeriph_Driver/src/stm32f4xx_sdio.c ****    
 985:App/STM32F4-Discovery/Libraries/STM32F4xx_StdPeriph_Driver/src/stm32f4xx_sdio.c ****   SDIO->ICR = SDIO_IT;
 2061              		.loc 1 985 0 is_stmt 1
 2062 0022 054B     		ldr	r3, .L130+8
 2063 0024 7A68     		ldr	r2, [r7, #4]
 2064 0026 9A63     		str	r2, [r3, #56]
 986:App/STM32F4-Discovery/Libraries/STM32F4xx_StdPeriph_Driver/src/stm32f4xx_sdio.c **** }
 2065              		.loc 1 986 0
 2066 0028 0837     		adds	r7, r7, #8
 2067 002a BD46     		mov	sp, r7
 2068              		@ sp needed
 2069 002c 80BD     		pop	{r7, pc}
 2070              	.L131:
 2071 002e 00BF     		.align	2
 2072              	.L130:
 2073 0030 00F83FFF 		.word	-12584960
 2074 0034 00000000 		.word	.LC0
 2075 0038 002C0140 		.word	1073818624
 2076              		.cfi_endproc
 2077              	.LFE139:
 2079              		.text
 2080              	.Letext0:
 2081              		.file 2 "/home/shihyu/data/STM32F4/gcc-arm-none-eabi-4_8-2013q4/arm-none-eabi/include/stdint.h"
 2082              		.file 3 "App/STM32F4-Discovery/Libraries/CMSIS/ST/STM32F4xx/Include/stm32f4xx.h"
 2083              		.file 4 "App/STM32F4-Discovery/Libraries/STM32F4xx_StdPeriph_Driver/inc/stm32f4xx_sdio.h"
 2084              		.file 5 "App/STM32F4-Discovery/Libraries/CMSIS/Include/core_cm4.h"