   1              		.syntax unified
   2              		.cpu cortex-m4
   3              		.eabi_attribute 27, 3
   4              		.fpu fpv4-sp-d16
   5              		.eabi_attribute 20, 1
   6              		.eabi_attribute 21, 1
   7              		.eabi_attribute 23, 3
   8              		.eabi_attribute 24, 1
   9              		.eabi_attribute 25, 1
  10              		.eabi_attribute 26, 1
  11              		.eabi_attribute 30, 6
  12              		.eabi_attribute 34, 1
  13              		.eabi_attribute 18, 4
  14              		.thumb
  15              		.file	"stm32f4xx_dac.c"
  16              		.text
  17              	.Ltext0:
  18              		.cfi_sections	.debug_frame
  19              		.section	.text.DAC_DeInit,"ax",%progbits
  20              		.align	2
  21              		.global	DAC_DeInit
  22              		.thumb
  23              		.thumb_func
  25              	DAC_DeInit:
  26              	.LFB110:
  27              		.file 1 "App/STM32F4-Discovery/Libraries/STM32F4xx_StdPeriph_Driver/src/stm32f4xx_dac.c"
   1:App/STM32F4-Discovery/Libraries/STM32F4xx_StdPeriph_Driver/src/stm32f4xx_dac.c **** /**
   2:App/STM32F4-Discovery/Libraries/STM32F4xx_StdPeriph_Driver/src/stm32f4xx_dac.c ****   ******************************************************************************
   3:App/STM32F4-Discovery/Libraries/STM32F4xx_StdPeriph_Driver/src/stm32f4xx_dac.c ****   * @file    stm32f4xx_dac.c
   4:App/STM32F4-Discovery/Libraries/STM32F4xx_StdPeriph_Driver/src/stm32f4xx_dac.c ****   * @author  MCD Application Team
   5:App/STM32F4-Discovery/Libraries/STM32F4xx_StdPeriph_Driver/src/stm32f4xx_dac.c ****   * @version V1.0.0
   6:App/STM32F4-Discovery/Libraries/STM32F4xx_StdPeriph_Driver/src/stm32f4xx_dac.c ****   * @date    30-September-2011
   7:App/STM32F4-Discovery/Libraries/STM32F4xx_StdPeriph_Driver/src/stm32f4xx_dac.c ****    * @brief   This file provides firmware functions to manage the following 
   8:App/STM32F4-Discovery/Libraries/STM32F4xx_StdPeriph_Driver/src/stm32f4xx_dac.c ****   *          functionalities of the Digital-to-Analog Converter (DAC) peripheral: 
   9:App/STM32F4-Discovery/Libraries/STM32F4xx_StdPeriph_Driver/src/stm32f4xx_dac.c ****   *           - DAC channels configuration: trigger, output buffer, data format
  10:App/STM32F4-Discovery/Libraries/STM32F4xx_StdPeriph_Driver/src/stm32f4xx_dac.c ****   *           - DMA management      
  11:App/STM32F4-Discovery/Libraries/STM32F4xx_StdPeriph_Driver/src/stm32f4xx_dac.c ****   *           - Interrupts and flags management
  12:App/STM32F4-Discovery/Libraries/STM32F4xx_StdPeriph_Driver/src/stm32f4xx_dac.c ****   *
  13:App/STM32F4-Discovery/Libraries/STM32F4xx_StdPeriph_Driver/src/stm32f4xx_dac.c ****   *  @verbatim
  14:App/STM32F4-Discovery/Libraries/STM32F4xx_StdPeriph_Driver/src/stm32f4xx_dac.c ****   *    
  15:App/STM32F4-Discovery/Libraries/STM32F4xx_StdPeriph_Driver/src/stm32f4xx_dac.c ****   *          ===================================================================
  16:App/STM32F4-Discovery/Libraries/STM32F4xx_StdPeriph_Driver/src/stm32f4xx_dac.c ****   *                             DAC Peripheral features
  17:App/STM32F4-Discovery/Libraries/STM32F4xx_StdPeriph_Driver/src/stm32f4xx_dac.c ****   *          ===================================================================
  18:App/STM32F4-Discovery/Libraries/STM32F4xx_StdPeriph_Driver/src/stm32f4xx_dac.c ****   *          
  19:App/STM32F4-Discovery/Libraries/STM32F4xx_StdPeriph_Driver/src/stm32f4xx_dac.c ****   *          DAC Channels
  20:App/STM32F4-Discovery/Libraries/STM32F4xx_StdPeriph_Driver/src/stm32f4xx_dac.c ****   *          =============  
  21:App/STM32F4-Discovery/Libraries/STM32F4xx_StdPeriph_Driver/src/stm32f4xx_dac.c ****   *          The device integrates two 12-bit Digital Analog Converters that can 
  22:App/STM32F4-Discovery/Libraries/STM32F4xx_StdPeriph_Driver/src/stm32f4xx_dac.c ****   *          be used independently or simultaneously (dual mode):
  23:App/STM32F4-Discovery/Libraries/STM32F4xx_StdPeriph_Driver/src/stm32f4xx_dac.c ****   *            1- DAC channel1 with DAC_OUT1 (PA4) as output
  24:App/STM32F4-Discovery/Libraries/STM32F4xx_StdPeriph_Driver/src/stm32f4xx_dac.c ****   *            1- DAC channel2 with DAC_OUT2 (PA5) as output
  25:App/STM32F4-Discovery/Libraries/STM32F4xx_StdPeriph_Driver/src/stm32f4xx_dac.c ****   *
  26:App/STM32F4-Discovery/Libraries/STM32F4xx_StdPeriph_Driver/src/stm32f4xx_dac.c ****   *          DAC Triggers
  27:App/STM32F4-Discovery/Libraries/STM32F4xx_StdPeriph_Driver/src/stm32f4xx_dac.c ****   *          =============
  28:App/STM32F4-Discovery/Libraries/STM32F4xx_StdPeriph_Driver/src/stm32f4xx_dac.c ****   *          Digital to Analog conversion can be non-triggered using DAC_Trigger_None
  29:App/STM32F4-Discovery/Libraries/STM32F4xx_StdPeriph_Driver/src/stm32f4xx_dac.c ****   *          and DAC_OUT1/DAC_OUT2 is available once writing to DHRx register 
  30:App/STM32F4-Discovery/Libraries/STM32F4xx_StdPeriph_Driver/src/stm32f4xx_dac.c ****   *          using DAC_SetChannel1Data() / DAC_SetChannel2Data() functions.
  31:App/STM32F4-Discovery/Libraries/STM32F4xx_StdPeriph_Driver/src/stm32f4xx_dac.c ****   *   
  32:App/STM32F4-Discovery/Libraries/STM32F4xx_StdPeriph_Driver/src/stm32f4xx_dac.c ****   *         Digital to Analog conversion can be triggered by:
  33:App/STM32F4-Discovery/Libraries/STM32F4xx_StdPeriph_Driver/src/stm32f4xx_dac.c ****   *             1- External event: EXTI Line 9 (any GPIOx_Pin9) using DAC_Trigger_Ext_IT9.
  34:App/STM32F4-Discovery/Libraries/STM32F4xx_StdPeriph_Driver/src/stm32f4xx_dac.c ****   *                The used pin (GPIOx_Pin9) must be configured in input mode.
  35:App/STM32F4-Discovery/Libraries/STM32F4xx_StdPeriph_Driver/src/stm32f4xx_dac.c ****   *
  36:App/STM32F4-Discovery/Libraries/STM32F4xx_StdPeriph_Driver/src/stm32f4xx_dac.c ****   *             2- Timers TRGO: TIM2, TIM4, TIM5, TIM6, TIM7 and TIM8 
  37:App/STM32F4-Discovery/Libraries/STM32F4xx_StdPeriph_Driver/src/stm32f4xx_dac.c ****   *                (DAC_Trigger_T2_TRGO, DAC_Trigger_T4_TRGO...)
  38:App/STM32F4-Discovery/Libraries/STM32F4xx_StdPeriph_Driver/src/stm32f4xx_dac.c ****   *                The timer TRGO event should be selected using TIM_SelectOutputTrigger()
  39:App/STM32F4-Discovery/Libraries/STM32F4xx_StdPeriph_Driver/src/stm32f4xx_dac.c ****   *
  40:App/STM32F4-Discovery/Libraries/STM32F4xx_StdPeriph_Driver/src/stm32f4xx_dac.c ****   *             3- Software using DAC_Trigger_Software
  41:App/STM32F4-Discovery/Libraries/STM32F4xx_StdPeriph_Driver/src/stm32f4xx_dac.c ****   *
  42:App/STM32F4-Discovery/Libraries/STM32F4xx_StdPeriph_Driver/src/stm32f4xx_dac.c ****   *          DAC Buffer mode feature
  43:App/STM32F4-Discovery/Libraries/STM32F4xx_StdPeriph_Driver/src/stm32f4xx_dac.c ****   *          ========================  
  44:App/STM32F4-Discovery/Libraries/STM32F4xx_StdPeriph_Driver/src/stm32f4xx_dac.c ****   *          Each DAC channel integrates an output buffer that can be used to 
  45:App/STM32F4-Discovery/Libraries/STM32F4xx_StdPeriph_Driver/src/stm32f4xx_dac.c ****   *          reduce the output impedance, and to drive external loads directly
  46:App/STM32F4-Discovery/Libraries/STM32F4xx_StdPeriph_Driver/src/stm32f4xx_dac.c ****   *          without having to add an external operational amplifier.
  47:App/STM32F4-Discovery/Libraries/STM32F4xx_StdPeriph_Driver/src/stm32f4xx_dac.c ****   *          To enable, the output buffer use  
  48:App/STM32F4-Discovery/Libraries/STM32F4xx_StdPeriph_Driver/src/stm32f4xx_dac.c ****   *              DAC_InitStructure.DAC_OutputBuffer = DAC_OutputBuffer_Enable;
  49:App/STM32F4-Discovery/Libraries/STM32F4xx_StdPeriph_Driver/src/stm32f4xx_dac.c ****   *          
  50:App/STM32F4-Discovery/Libraries/STM32F4xx_StdPeriph_Driver/src/stm32f4xx_dac.c ****   *          Refer to the device datasheet for more details about output 
  51:App/STM32F4-Discovery/Libraries/STM32F4xx_StdPeriph_Driver/src/stm32f4xx_dac.c ****   *          impedance value with and without output buffer.
  52:App/STM32F4-Discovery/Libraries/STM32F4xx_StdPeriph_Driver/src/stm32f4xx_dac.c ****   *          
  53:App/STM32F4-Discovery/Libraries/STM32F4xx_StdPeriph_Driver/src/stm32f4xx_dac.c ****   *          DAC wave generation feature
  54:App/STM32F4-Discovery/Libraries/STM32F4xx_StdPeriph_Driver/src/stm32f4xx_dac.c ****   *          =============================      
  55:App/STM32F4-Discovery/Libraries/STM32F4xx_StdPeriph_Driver/src/stm32f4xx_dac.c ****   *          Both DAC channels can be used to generate
  56:App/STM32F4-Discovery/Libraries/STM32F4xx_StdPeriph_Driver/src/stm32f4xx_dac.c ****   *             1- Noise wave using DAC_WaveGeneration_Noise
  57:App/STM32F4-Discovery/Libraries/STM32F4xx_StdPeriph_Driver/src/stm32f4xx_dac.c ****   *             2- Triangle wave using DAC_WaveGeneration_Triangle
  58:App/STM32F4-Discovery/Libraries/STM32F4xx_StdPeriph_Driver/src/stm32f4xx_dac.c ****   *        
  59:App/STM32F4-Discovery/Libraries/STM32F4xx_StdPeriph_Driver/src/stm32f4xx_dac.c ****   *          Wave generation can be disabled using DAC_WaveGeneration_None
  60:App/STM32F4-Discovery/Libraries/STM32F4xx_StdPeriph_Driver/src/stm32f4xx_dac.c ****   *
  61:App/STM32F4-Discovery/Libraries/STM32F4xx_StdPeriph_Driver/src/stm32f4xx_dac.c ****   *          DAC data format
  62:App/STM32F4-Discovery/Libraries/STM32F4xx_StdPeriph_Driver/src/stm32f4xx_dac.c ****   *          ================   
  63:App/STM32F4-Discovery/Libraries/STM32F4xx_StdPeriph_Driver/src/stm32f4xx_dac.c ****   *          The DAC data format can be:
  64:App/STM32F4-Discovery/Libraries/STM32F4xx_StdPeriph_Driver/src/stm32f4xx_dac.c ****   *             1- 8-bit right alignment using DAC_Align_8b_R
  65:App/STM32F4-Discovery/Libraries/STM32F4xx_StdPeriph_Driver/src/stm32f4xx_dac.c ****   *             2- 12-bit left alignment using DAC_Align_12b_L
  66:App/STM32F4-Discovery/Libraries/STM32F4xx_StdPeriph_Driver/src/stm32f4xx_dac.c ****   *             3- 12-bit right alignment using DAC_Align_12b_R
  67:App/STM32F4-Discovery/Libraries/STM32F4xx_StdPeriph_Driver/src/stm32f4xx_dac.c ****   *
  68:App/STM32F4-Discovery/Libraries/STM32F4xx_StdPeriph_Driver/src/stm32f4xx_dac.c ****   *          DAC data value to voltage correspondence  
  69:App/STM32F4-Discovery/Libraries/STM32F4xx_StdPeriph_Driver/src/stm32f4xx_dac.c ****   *          ========================================  
  70:App/STM32F4-Discovery/Libraries/STM32F4xx_StdPeriph_Driver/src/stm32f4xx_dac.c ****   *          The analog output voltage on each DAC channel pin is determined
  71:App/STM32F4-Discovery/Libraries/STM32F4xx_StdPeriph_Driver/src/stm32f4xx_dac.c ****   *          by the following equation: 
  72:App/STM32F4-Discovery/Libraries/STM32F4xx_StdPeriph_Driver/src/stm32f4xx_dac.c ****   *          DAC_OUTx = VREF+ * DOR / 4095
  73:App/STM32F4-Discovery/Libraries/STM32F4xx_StdPeriph_Driver/src/stm32f4xx_dac.c ****   *          with  DOR is the Data Output Register
  74:App/STM32F4-Discovery/Libraries/STM32F4xx_StdPeriph_Driver/src/stm32f4xx_dac.c ****   *                VEF+ is the input voltage reference (refer to the device datasheet)
  75:App/STM32F4-Discovery/Libraries/STM32F4xx_StdPeriph_Driver/src/stm32f4xx_dac.c ****   *          e.g. To set DAC_OUT1 to 0.7V, use
  76:App/STM32F4-Discovery/Libraries/STM32F4xx_StdPeriph_Driver/src/stm32f4xx_dac.c ****   *            DAC_SetChannel1Data(DAC_Align_12b_R, 868);
  77:App/STM32F4-Discovery/Libraries/STM32F4xx_StdPeriph_Driver/src/stm32f4xx_dac.c ****   *          Assuming that VREF+ = 3.3V, DAC_OUT1 = (3.3 * 868) / 4095 = 0.7V
  78:App/STM32F4-Discovery/Libraries/STM32F4xx_StdPeriph_Driver/src/stm32f4xx_dac.c ****   *
  79:App/STM32F4-Discovery/Libraries/STM32F4xx_StdPeriph_Driver/src/stm32f4xx_dac.c ****   *          DMA requests 
  80:App/STM32F4-Discovery/Libraries/STM32F4xx_StdPeriph_Driver/src/stm32f4xx_dac.c ****   *          =============    
  81:App/STM32F4-Discovery/Libraries/STM32F4xx_StdPeriph_Driver/src/stm32f4xx_dac.c ****   *          A DMA1 request can be generated when an external trigger (but not
  82:App/STM32F4-Discovery/Libraries/STM32F4xx_StdPeriph_Driver/src/stm32f4xx_dac.c ****   *          a software trigger) occurs if DMA1 requests are enabled using
  83:App/STM32F4-Discovery/Libraries/STM32F4xx_StdPeriph_Driver/src/stm32f4xx_dac.c ****   *          DAC_DMACmd()
  84:App/STM32F4-Discovery/Libraries/STM32F4xx_StdPeriph_Driver/src/stm32f4xx_dac.c ****   *          DMA1 requests are mapped as following:
  85:App/STM32F4-Discovery/Libraries/STM32F4xx_StdPeriph_Driver/src/stm32f4xx_dac.c ****   *             1- DAC channel1 : mapped on DMA1 Stream5 channel7 which must be 
  86:App/STM32F4-Discovery/Libraries/STM32F4xx_StdPeriph_Driver/src/stm32f4xx_dac.c ****   *                               already configured
  87:App/STM32F4-Discovery/Libraries/STM32F4xx_StdPeriph_Driver/src/stm32f4xx_dac.c ****   *             2- DAC channel2 : mapped on DMA1 Stream6 channel7 which must be 
  88:App/STM32F4-Discovery/Libraries/STM32F4xx_StdPeriph_Driver/src/stm32f4xx_dac.c ****   *                               already configured
  89:App/STM32F4-Discovery/Libraries/STM32F4xx_StdPeriph_Driver/src/stm32f4xx_dac.c ****   *
  90:App/STM32F4-Discovery/Libraries/STM32F4xx_StdPeriph_Driver/src/stm32f4xx_dac.c ****   *          ===================================================================      
  91:App/STM32F4-Discovery/Libraries/STM32F4xx_StdPeriph_Driver/src/stm32f4xx_dac.c ****   *                              How to use this driver 
  92:App/STM32F4-Discovery/Libraries/STM32F4xx_StdPeriph_Driver/src/stm32f4xx_dac.c ****   *          ===================================================================          
  93:App/STM32F4-Discovery/Libraries/STM32F4xx_StdPeriph_Driver/src/stm32f4xx_dac.c ****   *            - DAC APB clock must be enabled to get write access to DAC
  94:App/STM32F4-Discovery/Libraries/STM32F4xx_StdPeriph_Driver/src/stm32f4xx_dac.c ****   *              registers using
  95:App/STM32F4-Discovery/Libraries/STM32F4xx_StdPeriph_Driver/src/stm32f4xx_dac.c ****   *              RCC_APB1PeriphClockCmd(RCC_APB1Periph_DAC, ENABLE)
  96:App/STM32F4-Discovery/Libraries/STM32F4xx_StdPeriph_Driver/src/stm32f4xx_dac.c ****   *            - Configure DAC_OUTx (DAC_OUT1: PA4, DAC_OUT2: PA5) in analog mode.
  97:App/STM32F4-Discovery/Libraries/STM32F4xx_StdPeriph_Driver/src/stm32f4xx_dac.c ****   *            - Configure the DAC channel using DAC_Init() function
  98:App/STM32F4-Discovery/Libraries/STM32F4xx_StdPeriph_Driver/src/stm32f4xx_dac.c ****   *            - Enable the DAC channel using DAC_Cmd() function
  99:App/STM32F4-Discovery/Libraries/STM32F4xx_StdPeriph_Driver/src/stm32f4xx_dac.c ****   * 
 100:App/STM32F4-Discovery/Libraries/STM32F4xx_StdPeriph_Driver/src/stm32f4xx_dac.c ****   *  @endverbatim
 101:App/STM32F4-Discovery/Libraries/STM32F4xx_StdPeriph_Driver/src/stm32f4xx_dac.c ****   *    
 102:App/STM32F4-Discovery/Libraries/STM32F4xx_StdPeriph_Driver/src/stm32f4xx_dac.c ****   ******************************************************************************
 103:App/STM32F4-Discovery/Libraries/STM32F4xx_StdPeriph_Driver/src/stm32f4xx_dac.c ****   * @attention
 104:App/STM32F4-Discovery/Libraries/STM32F4xx_StdPeriph_Driver/src/stm32f4xx_dac.c ****   *
 105:App/STM32F4-Discovery/Libraries/STM32F4xx_StdPeriph_Driver/src/stm32f4xx_dac.c ****   * THE PRESENT FIRMWARE WHICH IS FOR GUIDANCE ONLY AIMS AT PROVIDING CUSTOMERS
 106:App/STM32F4-Discovery/Libraries/STM32F4xx_StdPeriph_Driver/src/stm32f4xx_dac.c ****   * WITH CODING INFORMATION REGARDING THEIR PRODUCTS IN ORDER FOR THEM TO SAVE
 107:App/STM32F4-Discovery/Libraries/STM32F4xx_StdPeriph_Driver/src/stm32f4xx_dac.c ****   * TIME. AS A RESULT, STMICROELECTRONICS SHALL NOT BE HELD LIABLE FOR ANY
 108:App/STM32F4-Discovery/Libraries/STM32F4xx_StdPeriph_Driver/src/stm32f4xx_dac.c ****   * DIRECT, INDIRECT OR CONSEQUENTIAL DAMAGES WITH RESPECT TO ANY CLAIMS ARISING
 109:App/STM32F4-Discovery/Libraries/STM32F4xx_StdPeriph_Driver/src/stm32f4xx_dac.c ****   * FROM THE CONTENT OF SUCH FIRMWARE AND/OR THE USE MADE BY CUSTOMERS OF THE
 110:App/STM32F4-Discovery/Libraries/STM32F4xx_StdPeriph_Driver/src/stm32f4xx_dac.c ****   * CODING INFORMATION CONTAINED HEREIN IN CONNECTION WITH THEIR PRODUCTS.
 111:App/STM32F4-Discovery/Libraries/STM32F4xx_StdPeriph_Driver/src/stm32f4xx_dac.c ****   *
 112:App/STM32F4-Discovery/Libraries/STM32F4xx_StdPeriph_Driver/src/stm32f4xx_dac.c ****   * <h2><center>&copy; COPYRIGHT 2011 STMicroelectronics</center></h2>
 113:App/STM32F4-Discovery/Libraries/STM32F4xx_StdPeriph_Driver/src/stm32f4xx_dac.c ****   ******************************************************************************  
 114:App/STM32F4-Discovery/Libraries/STM32F4xx_StdPeriph_Driver/src/stm32f4xx_dac.c ****   */ 
 115:App/STM32F4-Discovery/Libraries/STM32F4xx_StdPeriph_Driver/src/stm32f4xx_dac.c **** 
 116:App/STM32F4-Discovery/Libraries/STM32F4xx_StdPeriph_Driver/src/stm32f4xx_dac.c **** 
 117:App/STM32F4-Discovery/Libraries/STM32F4xx_StdPeriph_Driver/src/stm32f4xx_dac.c **** /* Includes ------------------------------------------------------------------*/
 118:App/STM32F4-Discovery/Libraries/STM32F4xx_StdPeriph_Driver/src/stm32f4xx_dac.c **** #include "stm32f4xx_dac.h"
 119:App/STM32F4-Discovery/Libraries/STM32F4xx_StdPeriph_Driver/src/stm32f4xx_dac.c **** #include "stm32f4xx_rcc.h"
 120:App/STM32F4-Discovery/Libraries/STM32F4xx_StdPeriph_Driver/src/stm32f4xx_dac.c **** 
 121:App/STM32F4-Discovery/Libraries/STM32F4xx_StdPeriph_Driver/src/stm32f4xx_dac.c **** /** @addtogroup STM32F4xx_StdPeriph_Driver
 122:App/STM32F4-Discovery/Libraries/STM32F4xx_StdPeriph_Driver/src/stm32f4xx_dac.c ****   * @{
 123:App/STM32F4-Discovery/Libraries/STM32F4xx_StdPeriph_Driver/src/stm32f4xx_dac.c ****   */
 124:App/STM32F4-Discovery/Libraries/STM32F4xx_StdPeriph_Driver/src/stm32f4xx_dac.c **** 
 125:App/STM32F4-Discovery/Libraries/STM32F4xx_StdPeriph_Driver/src/stm32f4xx_dac.c **** /** @defgroup DAC 
 126:App/STM32F4-Discovery/Libraries/STM32F4xx_StdPeriph_Driver/src/stm32f4xx_dac.c ****   * @brief DAC driver modules
 127:App/STM32F4-Discovery/Libraries/STM32F4xx_StdPeriph_Driver/src/stm32f4xx_dac.c ****   * @{
 128:App/STM32F4-Discovery/Libraries/STM32F4xx_StdPeriph_Driver/src/stm32f4xx_dac.c ****   */ 
 129:App/STM32F4-Discovery/Libraries/STM32F4xx_StdPeriph_Driver/src/stm32f4xx_dac.c **** 
 130:App/STM32F4-Discovery/Libraries/STM32F4xx_StdPeriph_Driver/src/stm32f4xx_dac.c **** /* Private typedef -----------------------------------------------------------*/
 131:App/STM32F4-Discovery/Libraries/STM32F4xx_StdPeriph_Driver/src/stm32f4xx_dac.c **** /* Private define ------------------------------------------------------------*/
 132:App/STM32F4-Discovery/Libraries/STM32F4xx_StdPeriph_Driver/src/stm32f4xx_dac.c **** 
 133:App/STM32F4-Discovery/Libraries/STM32F4xx_StdPeriph_Driver/src/stm32f4xx_dac.c **** /* CR register Mask */
 134:App/STM32F4-Discovery/Libraries/STM32F4xx_StdPeriph_Driver/src/stm32f4xx_dac.c **** #define CR_CLEAR_MASK              ((uint32_t)0x00000FFE)
 135:App/STM32F4-Discovery/Libraries/STM32F4xx_StdPeriph_Driver/src/stm32f4xx_dac.c **** 
 136:App/STM32F4-Discovery/Libraries/STM32F4xx_StdPeriph_Driver/src/stm32f4xx_dac.c **** /* DAC Dual Channels SWTRIG masks */
 137:App/STM32F4-Discovery/Libraries/STM32F4xx_StdPeriph_Driver/src/stm32f4xx_dac.c **** #define DUAL_SWTRIG_SET            ((uint32_t)0x00000003)
 138:App/STM32F4-Discovery/Libraries/STM32F4xx_StdPeriph_Driver/src/stm32f4xx_dac.c **** #define DUAL_SWTRIG_RESET          ((uint32_t)0xFFFFFFFC)
 139:App/STM32F4-Discovery/Libraries/STM32F4xx_StdPeriph_Driver/src/stm32f4xx_dac.c **** 
 140:App/STM32F4-Discovery/Libraries/STM32F4xx_StdPeriph_Driver/src/stm32f4xx_dac.c **** /* DHR registers offsets */
 141:App/STM32F4-Discovery/Libraries/STM32F4xx_StdPeriph_Driver/src/stm32f4xx_dac.c **** #define DHR12R1_OFFSET             ((uint32_t)0x00000008)
 142:App/STM32F4-Discovery/Libraries/STM32F4xx_StdPeriph_Driver/src/stm32f4xx_dac.c **** #define DHR12R2_OFFSET             ((uint32_t)0x00000014)
 143:App/STM32F4-Discovery/Libraries/STM32F4xx_StdPeriph_Driver/src/stm32f4xx_dac.c **** #define DHR12RD_OFFSET             ((uint32_t)0x00000020)
 144:App/STM32F4-Discovery/Libraries/STM32F4xx_StdPeriph_Driver/src/stm32f4xx_dac.c **** 
 145:App/STM32F4-Discovery/Libraries/STM32F4xx_StdPeriph_Driver/src/stm32f4xx_dac.c **** /* DOR register offset */
 146:App/STM32F4-Discovery/Libraries/STM32F4xx_StdPeriph_Driver/src/stm32f4xx_dac.c **** #define DOR_OFFSET                 ((uint32_t)0x0000002C)
 147:App/STM32F4-Discovery/Libraries/STM32F4xx_StdPeriph_Driver/src/stm32f4xx_dac.c **** 
 148:App/STM32F4-Discovery/Libraries/STM32F4xx_StdPeriph_Driver/src/stm32f4xx_dac.c **** /* Private macro -------------------------------------------------------------*/
 149:App/STM32F4-Discovery/Libraries/STM32F4xx_StdPeriph_Driver/src/stm32f4xx_dac.c **** /* Private variables ---------------------------------------------------------*/
 150:App/STM32F4-Discovery/Libraries/STM32F4xx_StdPeriph_Driver/src/stm32f4xx_dac.c **** /* Private function prototypes -----------------------------------------------*/
 151:App/STM32F4-Discovery/Libraries/STM32F4xx_StdPeriph_Driver/src/stm32f4xx_dac.c **** /* Private functions ---------------------------------------------------------*/
 152:App/STM32F4-Discovery/Libraries/STM32F4xx_StdPeriph_Driver/src/stm32f4xx_dac.c **** 
 153:App/STM32F4-Discovery/Libraries/STM32F4xx_StdPeriph_Driver/src/stm32f4xx_dac.c **** /** @defgroup DAC_Private_Functions
 154:App/STM32F4-Discovery/Libraries/STM32F4xx_StdPeriph_Driver/src/stm32f4xx_dac.c ****   * @{
 155:App/STM32F4-Discovery/Libraries/STM32F4xx_StdPeriph_Driver/src/stm32f4xx_dac.c ****   */
 156:App/STM32F4-Discovery/Libraries/STM32F4xx_StdPeriph_Driver/src/stm32f4xx_dac.c **** 
 157:App/STM32F4-Discovery/Libraries/STM32F4xx_StdPeriph_Driver/src/stm32f4xx_dac.c **** /** @defgroup DAC_Group1 DAC channels configuration
 158:App/STM32F4-Discovery/Libraries/STM32F4xx_StdPeriph_Driver/src/stm32f4xx_dac.c ****  *  @brief   DAC channels configuration: trigger, output buffer, data format 
 159:App/STM32F4-Discovery/Libraries/STM32F4xx_StdPeriph_Driver/src/stm32f4xx_dac.c ****  *
 160:App/STM32F4-Discovery/Libraries/STM32F4xx_StdPeriph_Driver/src/stm32f4xx_dac.c **** @verbatim   
 161:App/STM32F4-Discovery/Libraries/STM32F4xx_StdPeriph_Driver/src/stm32f4xx_dac.c ****  ===============================================================================
 162:App/STM32F4-Discovery/Libraries/STM32F4xx_StdPeriph_Driver/src/stm32f4xx_dac.c ****           DAC channels configuration: trigger, output buffer, data format
 163:App/STM32F4-Discovery/Libraries/STM32F4xx_StdPeriph_Driver/src/stm32f4xx_dac.c ****  ===============================================================================  
 164:App/STM32F4-Discovery/Libraries/STM32F4xx_StdPeriph_Driver/src/stm32f4xx_dac.c **** 
 165:App/STM32F4-Discovery/Libraries/STM32F4xx_StdPeriph_Driver/src/stm32f4xx_dac.c **** @endverbatim
 166:App/STM32F4-Discovery/Libraries/STM32F4xx_StdPeriph_Driver/src/stm32f4xx_dac.c ****   * @{
 167:App/STM32F4-Discovery/Libraries/STM32F4xx_StdPeriph_Driver/src/stm32f4xx_dac.c ****   */
 168:App/STM32F4-Discovery/Libraries/STM32F4xx_StdPeriph_Driver/src/stm32f4xx_dac.c **** 
 169:App/STM32F4-Discovery/Libraries/STM32F4xx_StdPeriph_Driver/src/stm32f4xx_dac.c **** /**
 170:App/STM32F4-Discovery/Libraries/STM32F4xx_StdPeriph_Driver/src/stm32f4xx_dac.c ****   * @brief  Deinitializes the DAC peripheral registers to their default reset values.
 171:App/STM32F4-Discovery/Libraries/STM32F4xx_StdPeriph_Driver/src/stm32f4xx_dac.c ****   * @param  None
 172:App/STM32F4-Discovery/Libraries/STM32F4xx_StdPeriph_Driver/src/stm32f4xx_dac.c ****   * @retval None
 173:App/STM32F4-Discovery/Libraries/STM32F4xx_StdPeriph_Driver/src/stm32f4xx_dac.c ****   */
 174:App/STM32F4-Discovery/Libraries/STM32F4xx_StdPeriph_Driver/src/stm32f4xx_dac.c **** void DAC_DeInit(void)
 175:App/STM32F4-Discovery/Libraries/STM32F4xx_StdPeriph_Driver/src/stm32f4xx_dac.c **** {
  28              		.loc 1 175 0
  29              		.cfi_startproc
  30              		@ args = 0, pretend = 0, frame = 0
  31              		@ frame_needed = 1, uses_anonymous_args = 0
  32 0000 80B5     		push	{r7, lr}
  33              	.LCFI0:
  34              		.cfi_def_cfa_offset 8
  35              		.cfi_offset 7, -8
  36              		.cfi_offset 14, -4
  37 0002 00AF     		add	r7, sp, #0
  38              	.LCFI1:
  39              		.cfi_def_cfa_register 7
 176:App/STM32F4-Discovery/Libraries/STM32F4xx_StdPeriph_Driver/src/stm32f4xx_dac.c ****   /* Enable DAC reset state */
 177:App/STM32F4-Discovery/Libraries/STM32F4xx_StdPeriph_Driver/src/stm32f4xx_dac.c ****   RCC_APB1PeriphResetCmd(RCC_APB1Periph_DAC, ENABLE);
  40              		.loc 1 177 0
  41 0004 4FF00050 		mov	r0, #536870912
  42 0008 0121     		movs	r1, #1
  43 000a FFF7FEFF 		bl	RCC_APB1PeriphResetCmd
 178:App/STM32F4-Discovery/Libraries/STM32F4xx_StdPeriph_Driver/src/stm32f4xx_dac.c ****   /* Release DAC from reset state */
 179:App/STM32F4-Discovery/Libraries/STM32F4xx_StdPeriph_Driver/src/stm32f4xx_dac.c ****   RCC_APB1PeriphResetCmd(RCC_APB1Periph_DAC, DISABLE);
  44              		.loc 1 179 0
  45 000e 4FF00050 		mov	r0, #536870912
  46 0012 0021     		movs	r1, #0
  47 0014 FFF7FEFF 		bl	RCC_APB1PeriphResetCmd
 180:App/STM32F4-Discovery/Libraries/STM32F4xx_StdPeriph_Driver/src/stm32f4xx_dac.c **** }
  48              		.loc 1 180 0
  49 0018 80BD     		pop	{r7, pc}
  50              		.cfi_endproc
  51              	.LFE110:
  53 001a 00BF     		.section	.rodata
  54              		.align	2
  55              	.LC0:
  56 0000 4170702F 		.ascii	"App/STM32F4-Discovery/Libraries/STM32F4xx_StdPeriph"
  56      53544D33 
  56      3246342D 
  56      44697363 
  56      6F766572 
  57 0033 5F447269 		.ascii	"_Driver/src/stm32f4xx_dac.c\000"
  57      7665722F 
  57      7372632F 
  57      73746D33 
  57      32663478 
  58 004f 00       		.section	.text.DAC_Init,"ax",%progbits
  59              		.align	2
  60              		.global	DAC_Init
  61              		.thumb
  62              		.thumb_func
  64              	DAC_Init:
  65              	.LFB111:
 181:App/STM32F4-Discovery/Libraries/STM32F4xx_StdPeriph_Driver/src/stm32f4xx_dac.c **** 
 182:App/STM32F4-Discovery/Libraries/STM32F4xx_StdPeriph_Driver/src/stm32f4xx_dac.c **** /**
 183:App/STM32F4-Discovery/Libraries/STM32F4xx_StdPeriph_Driver/src/stm32f4xx_dac.c ****   * @brief  Initializes the DAC peripheral according to the specified parameters
 184:App/STM32F4-Discovery/Libraries/STM32F4xx_StdPeriph_Driver/src/stm32f4xx_dac.c ****   *         in the DAC_InitStruct.
 185:App/STM32F4-Discovery/Libraries/STM32F4xx_StdPeriph_Driver/src/stm32f4xx_dac.c ****   * @param  DAC_Channel: the selected DAC channel. 
 186:App/STM32F4-Discovery/Libraries/STM32F4xx_StdPeriph_Driver/src/stm32f4xx_dac.c ****   *          This parameter can be one of the following values:
 187:App/STM32F4-Discovery/Libraries/STM32F4xx_StdPeriph_Driver/src/stm32f4xx_dac.c ****   *            @arg DAC_Channel_1: DAC Channel1 selected
 188:App/STM32F4-Discovery/Libraries/STM32F4xx_StdPeriph_Driver/src/stm32f4xx_dac.c ****   *            @arg DAC_Channel_2: DAC Channel2 selected
 189:App/STM32F4-Discovery/Libraries/STM32F4xx_StdPeriph_Driver/src/stm32f4xx_dac.c ****   * @param  DAC_InitStruct: pointer to a DAC_InitTypeDef structure that contains
 190:App/STM32F4-Discovery/Libraries/STM32F4xx_StdPeriph_Driver/src/stm32f4xx_dac.c ****   *         the configuration information for the  specified DAC channel.
 191:App/STM32F4-Discovery/Libraries/STM32F4xx_StdPeriph_Driver/src/stm32f4xx_dac.c ****   * @retval None
 192:App/STM32F4-Discovery/Libraries/STM32F4xx_StdPeriph_Driver/src/stm32f4xx_dac.c ****   */
 193:App/STM32F4-Discovery/Libraries/STM32F4xx_StdPeriph_Driver/src/stm32f4xx_dac.c **** void DAC_Init(uint32_t DAC_Channel, DAC_InitTypeDef* DAC_InitStruct)
 194:App/STM32F4-Discovery/Libraries/STM32F4xx_StdPeriph_Driver/src/stm32f4xx_dac.c **** {
  66              		.loc 1 194 0
  67              		.cfi_startproc
  68              		@ args = 0, pretend = 0, frame = 16
  69              		@ frame_needed = 1, uses_anonymous_args = 0
  70 0000 80B5     		push	{r7, lr}
  71              	.LCFI2:
  72              		.cfi_def_cfa_offset 8
  73              		.cfi_offset 7, -8
  74              		.cfi_offset 14, -4
  75 0002 84B0     		sub	sp, sp, #16
  76              	.LCFI3:
  77              		.cfi_def_cfa_offset 24
  78 0004 00AF     		add	r7, sp, #0
  79              	.LCFI4:
  80              		.cfi_def_cfa_register 7
  81 0006 7860     		str	r0, [r7, #4]
  82 0008 3960     		str	r1, [r7]
 195:App/STM32F4-Discovery/Libraries/STM32F4xx_StdPeriph_Driver/src/stm32f4xx_dac.c ****   uint32_t tmpreg1 = 0, tmpreg2 = 0;
  83              		.loc 1 195 0
  84 000a 0023     		movs	r3, #0
  85 000c FB60     		str	r3, [r7, #12]
  86 000e 0023     		movs	r3, #0
  87 0010 BB60     		str	r3, [r7, #8]
 196:App/STM32F4-Discovery/Libraries/STM32F4xx_StdPeriph_Driver/src/stm32f4xx_dac.c **** 
 197:App/STM32F4-Discovery/Libraries/STM32F4xx_StdPeriph_Driver/src/stm32f4xx_dac.c ****   /* Check the DAC parameters */
 198:App/STM32F4-Discovery/Libraries/STM32F4xx_StdPeriph_Driver/src/stm32f4xx_dac.c ****   assert_param(IS_DAC_TRIGGER(DAC_InitStruct->DAC_Trigger));
  88              		.loc 1 198 0
  89 0012 3B68     		ldr	r3, [r7]
  90 0014 1B68     		ldr	r3, [r3]
  91 0016 002B     		cmp	r3, #0
  92 0018 23D0     		beq	.L3
  93              		.loc 1 198 0 is_stmt 0 discriminator 1
  94 001a 3B68     		ldr	r3, [r7]
  95 001c 1B68     		ldr	r3, [r3]
  96 001e 042B     		cmp	r3, #4
  97 0020 1FD0     		beq	.L3
  98 0022 3B68     		ldr	r3, [r7]
  99 0024 1B68     		ldr	r3, [r3]
 100 0026 0C2B     		cmp	r3, #12
 101 0028 1BD0     		beq	.L3
 102 002a 3B68     		ldr	r3, [r7]
 103 002c 1B68     		ldr	r3, [r3]
 104 002e 142B     		cmp	r3, #20
 105 0030 17D0     		beq	.L3
 106 0032 3B68     		ldr	r3, [r7]
 107 0034 1B68     		ldr	r3, [r3]
 108 0036 1C2B     		cmp	r3, #28
 109 0038 13D0     		beq	.L3
 110 003a 3B68     		ldr	r3, [r7]
 111 003c 1B68     		ldr	r3, [r3]
 112 003e 242B     		cmp	r3, #36
 113 0040 0FD0     		beq	.L3
 114 0042 3B68     		ldr	r3, [r7]
 115 0044 1B68     		ldr	r3, [r3]
 116 0046 2C2B     		cmp	r3, #44
 117 0048 0BD0     		beq	.L3
 118 004a 3B68     		ldr	r3, [r7]
 119 004c 1B68     		ldr	r3, [r3]
 120 004e 342B     		cmp	r3, #52
 121 0050 07D0     		beq	.L3
 122 0052 3B68     		ldr	r3, [r7]
 123 0054 1B68     		ldr	r3, [r3]
 124 0056 3C2B     		cmp	r3, #60
 125 0058 03D0     		beq	.L3
 126 005a 5F48     		ldr	r0, .L7
 127 005c C621     		movs	r1, #198
 128 005e FFF7FEFF 		bl	assert_failed
 129              	.L3:
 199:App/STM32F4-Discovery/Libraries/STM32F4xx_StdPeriph_Driver/src/stm32f4xx_dac.c ****   assert_param(IS_DAC_GENERATE_WAVE(DAC_InitStruct->DAC_WaveGeneration));
 130              		.loc 1 199 0 is_stmt 1
 131 0062 3B68     		ldr	r3, [r7]
 132 0064 5B68     		ldr	r3, [r3, #4]
 133 0066 002B     		cmp	r3, #0
 134 0068 0BD0     		beq	.L4
 135              		.loc 1 199 0 is_stmt 0 discriminator 1
 136 006a 3B68     		ldr	r3, [r7]
 137 006c 5B68     		ldr	r3, [r3, #4]
 138 006e 402B     		cmp	r3, #64
 139 0070 07D0     		beq	.L4
 140 0072 3B68     		ldr	r3, [r7]
 141 0074 5B68     		ldr	r3, [r3, #4]
 142 0076 802B     		cmp	r3, #128
 143 0078 03D0     		beq	.L4
 144 007a 5748     		ldr	r0, .L7
 145 007c C721     		movs	r1, #199
 146 007e FFF7FEFF 		bl	assert_failed
 147              	.L4:
 200:App/STM32F4-Discovery/Libraries/STM32F4xx_StdPeriph_Driver/src/stm32f4xx_dac.c ****   assert_param(IS_DAC_LFSR_UNMASK_TRIANGLE_AMPLITUDE(DAC_InitStruct->DAC_LFSRUnmask_TriangleAmplitu
 148              		.loc 1 200 0 is_stmt 1
 149 0082 3B68     		ldr	r3, [r7]
 150 0084 9B68     		ldr	r3, [r3, #8]
 151 0086 002B     		cmp	r3, #0
 152 0088 75D0     		beq	.L5
 153              		.loc 1 200 0 is_stmt 0 discriminator 1
 154 008a 3B68     		ldr	r3, [r7]
 155 008c 9B68     		ldr	r3, [r3, #8]
 156 008e B3F5807F 		cmp	r3, #256
 157 0092 70D0     		beq	.L5
 158 0094 3B68     		ldr	r3, [r7]
 159 0096 9B68     		ldr	r3, [r3, #8]
 160 0098 B3F5007F 		cmp	r3, #512
 161 009c 6BD0     		beq	.L5
 162 009e 3B68     		ldr	r3, [r7]
 163 00a0 9B68     		ldr	r3, [r3, #8]
 164 00a2 B3F5407F 		cmp	r3, #768
 165 00a6 66D0     		beq	.L5
 166 00a8 3B68     		ldr	r3, [r7]
 167 00aa 9B68     		ldr	r3, [r3, #8]
 168 00ac B3F5806F 		cmp	r3, #1024
 169 00b0 61D0     		beq	.L5
 170 00b2 3B68     		ldr	r3, [r7]
 171 00b4 9B68     		ldr	r3, [r3, #8]
 172 00b6 B3F5A06F 		cmp	r3, #1280
 173 00ba 5CD0     		beq	.L5
 174 00bc 3B68     		ldr	r3, [r7]
 175 00be 9B68     		ldr	r3, [r3, #8]
 176 00c0 B3F5C06F 		cmp	r3, #1536
 177 00c4 57D0     		beq	.L5
 178 00c6 3B68     		ldr	r3, [r7]
 179 00c8 9B68     		ldr	r3, [r3, #8]
 180 00ca B3F5E06F 		cmp	r3, #1792
 181 00ce 52D0     		beq	.L5
 182 00d0 3B68     		ldr	r3, [r7]
 183 00d2 9B68     		ldr	r3, [r3, #8]
 184 00d4 B3F5006F 		cmp	r3, #2048
 185 00d8 4DD0     		beq	.L5
 186 00da 3B68     		ldr	r3, [r7]
 187 00dc 9B68     		ldr	r3, [r3, #8]
 188 00de B3F5106F 		cmp	r3, #2304
 189 00e2 48D0     		beq	.L5
 190 00e4 3B68     		ldr	r3, [r7]
 191 00e6 9B68     		ldr	r3, [r3, #8]
 192 00e8 B3F5206F 		cmp	r3, #2560
 193 00ec 43D0     		beq	.L5
 194 00ee 3B68     		ldr	r3, [r7]
 195 00f0 9B68     		ldr	r3, [r3, #8]
 196 00f2 B3F5306F 		cmp	r3, #2816
 197 00f6 3ED0     		beq	.L5
 198 00f8 3B68     		ldr	r3, [r7]
 199 00fa 9B68     		ldr	r3, [r3, #8]
 200 00fc 002B     		cmp	r3, #0
 201 00fe 3AD0     		beq	.L5
 202 0100 3B68     		ldr	r3, [r7]
 203 0102 9B68     		ldr	r3, [r3, #8]
 204 0104 B3F5807F 		cmp	r3, #256
 205 0108 35D0     		beq	.L5
 206 010a 3B68     		ldr	r3, [r7]
 207 010c 9B68     		ldr	r3, [r3, #8]
 208 010e B3F5007F 		cmp	r3, #512
 209 0112 30D0     		beq	.L5
 210 0114 3B68     		ldr	r3, [r7]
 211 0116 9B68     		ldr	r3, [r3, #8]
 212 0118 B3F5407F 		cmp	r3, #768
 213 011c 2BD0     		beq	.L5
 214 011e 3B68     		ldr	r3, [r7]
 215 0120 9B68     		ldr	r3, [r3, #8]
 216 0122 B3F5806F 		cmp	r3, #1024
 217 0126 26D0     		beq	.L5
 218 0128 3B68     		ldr	r3, [r7]
 219 012a 9B68     		ldr	r3, [r3, #8]
 220 012c B3F5A06F 		cmp	r3, #1280
 221 0130 21D0     		beq	.L5
 222 0132 3B68     		ldr	r3, [r7]
 223 0134 9B68     		ldr	r3, [r3, #8]
 224 0136 B3F5C06F 		cmp	r3, #1536
 225 013a 1CD0     		beq	.L5
 226 013c 3B68     		ldr	r3, [r7]
 227 013e 9B68     		ldr	r3, [r3, #8]
 228 0140 B3F5E06F 		cmp	r3, #1792
 229 0144 17D0     		beq	.L5
 230 0146 3B68     		ldr	r3, [r7]
 231 0148 9B68     		ldr	r3, [r3, #8]
 232 014a B3F5006F 		cmp	r3, #2048
 233 014e 12D0     		beq	.L5
 234 0150 3B68     		ldr	r3, [r7]
 235 0152 9B68     		ldr	r3, [r3, #8]
 236 0154 B3F5106F 		cmp	r3, #2304
 237 0158 0DD0     		beq	.L5
 238 015a 3B68     		ldr	r3, [r7]
 239 015c 9B68     		ldr	r3, [r3, #8]
 240 015e B3F5206F 		cmp	r3, #2560
 241 0162 08D0     		beq	.L5
 242 0164 3B68     		ldr	r3, [r7]
 243 0166 9B68     		ldr	r3, [r3, #8]
 244 0168 B3F5306F 		cmp	r3, #2816
 245 016c 03D0     		beq	.L5
 246 016e 1A48     		ldr	r0, .L7
 247 0170 C821     		movs	r1, #200
 248 0172 FFF7FEFF 		bl	assert_failed
 249              	.L5:
 201:App/STM32F4-Discovery/Libraries/STM32F4xx_StdPeriph_Driver/src/stm32f4xx_dac.c ****   assert_param(IS_DAC_OUTPUT_BUFFER_STATE(DAC_InitStruct->DAC_OutputBuffer));
 250              		.loc 1 201 0 is_stmt 1
 251 0176 3B68     		ldr	r3, [r7]
 252 0178 DB68     		ldr	r3, [r3, #12]
 253 017a 002B     		cmp	r3, #0
 254 017c 07D0     		beq	.L6
 255              		.loc 1 201 0 is_stmt 0 discriminator 1
 256 017e 3B68     		ldr	r3, [r7]
 257 0180 DB68     		ldr	r3, [r3, #12]
 258 0182 022B     		cmp	r3, #2
 259 0184 03D0     		beq	.L6
 260 0186 1448     		ldr	r0, .L7
 261 0188 C921     		movs	r1, #201
 262 018a FFF7FEFF 		bl	assert_failed
 263              	.L6:
 202:App/STM32F4-Discovery/Libraries/STM32F4xx_StdPeriph_Driver/src/stm32f4xx_dac.c **** 
 203:App/STM32F4-Discovery/Libraries/STM32F4xx_StdPeriph_Driver/src/stm32f4xx_dac.c **** /*---------------------------- DAC CR Configuration --------------------------*/
 204:App/STM32F4-Discovery/Libraries/STM32F4xx_StdPeriph_Driver/src/stm32f4xx_dac.c ****   /* Get the DAC CR value */
 205:App/STM32F4-Discovery/Libraries/STM32F4xx_StdPeriph_Driver/src/stm32f4xx_dac.c ****   tmpreg1 = DAC->CR;
 264              		.loc 1 205 0 is_stmt 1
 265 018e 134B     		ldr	r3, .L7+4
 266 0190 1B68     		ldr	r3, [r3]
 267 0192 FB60     		str	r3, [r7, #12]
 206:App/STM32F4-Discovery/Libraries/STM32F4xx_StdPeriph_Driver/src/stm32f4xx_dac.c ****   /* Clear BOFFx, TENx, TSELx, WAVEx and MAMPx bits */
 207:App/STM32F4-Discovery/Libraries/STM32F4xx_StdPeriph_Driver/src/stm32f4xx_dac.c ****   tmpreg1 &= ~(CR_CLEAR_MASK << DAC_Channel);
 268              		.loc 1 207 0
 269 0194 7B68     		ldr	r3, [r7, #4]
 270 0196 40F6FE72 		movw	r2, #4094
 271 019a 02FA03F3 		lsl	r3, r2, r3
 272 019e DB43     		mvns	r3, r3
 273 01a0 FA68     		ldr	r2, [r7, #12]
 274 01a2 1340     		ands	r3, r3, r2
 275 01a4 FB60     		str	r3, [r7, #12]
 208:App/STM32F4-Discovery/Libraries/STM32F4xx_StdPeriph_Driver/src/stm32f4xx_dac.c ****   /* Configure for the selected DAC channel: buffer output, trigger, 
 209:App/STM32F4-Discovery/Libraries/STM32F4xx_StdPeriph_Driver/src/stm32f4xx_dac.c ****      wave generation, mask/amplitude for wave generation */
 210:App/STM32F4-Discovery/Libraries/STM32F4xx_StdPeriph_Driver/src/stm32f4xx_dac.c ****   /* Set TSELx and TENx bits according to DAC_Trigger value */
 211:App/STM32F4-Discovery/Libraries/STM32F4xx_StdPeriph_Driver/src/stm32f4xx_dac.c ****   /* Set WAVEx bits according to DAC_WaveGeneration value */
 212:App/STM32F4-Discovery/Libraries/STM32F4xx_StdPeriph_Driver/src/stm32f4xx_dac.c ****   /* Set MAMPx bits according to DAC_LFSRUnmask_TriangleAmplitude value */ 
 213:App/STM32F4-Discovery/Libraries/STM32F4xx_StdPeriph_Driver/src/stm32f4xx_dac.c ****   /* Set BOFFx bit according to DAC_OutputBuffer value */   
 214:App/STM32F4-Discovery/Libraries/STM32F4xx_StdPeriph_Driver/src/stm32f4xx_dac.c ****   tmpreg2 = (DAC_InitStruct->DAC_Trigger | DAC_InitStruct->DAC_WaveGeneration |
 276              		.loc 1 214 0
 277 01a6 3B68     		ldr	r3, [r7]
 278 01a8 1A68     		ldr	r2, [r3]
 279 01aa 3B68     		ldr	r3, [r7]
 280 01ac 5B68     		ldr	r3, [r3, #4]
 281 01ae 1A43     		orrs	r2, r2, r3
 215:App/STM32F4-Discovery/Libraries/STM32F4xx_StdPeriph_Driver/src/stm32f4xx_dac.c ****              DAC_InitStruct->DAC_LFSRUnmask_TriangleAmplitude | \
 282              		.loc 1 215 0
 283 01b0 3B68     		ldr	r3, [r7]
 284 01b2 9B68     		ldr	r3, [r3, #8]
 214:App/STM32F4-Discovery/Libraries/STM32F4xx_StdPeriph_Driver/src/stm32f4xx_dac.c ****   tmpreg2 = (DAC_InitStruct->DAC_Trigger | DAC_InitStruct->DAC_WaveGeneration |
 285              		.loc 1 214 0
 286 01b4 1A43     		orrs	r2, r2, r3
 216:App/STM32F4-Discovery/Libraries/STM32F4xx_StdPeriph_Driver/src/stm32f4xx_dac.c ****              DAC_InitStruct->DAC_OutputBuffer);
 287              		.loc 1 216 0
 288 01b6 3B68     		ldr	r3, [r7]
 289 01b8 DB68     		ldr	r3, [r3, #12]
 214:App/STM32F4-Discovery/Libraries/STM32F4xx_StdPeriph_Driver/src/stm32f4xx_dac.c ****   tmpreg2 = (DAC_InitStruct->DAC_Trigger | DAC_InitStruct->DAC_WaveGeneration |
 290              		.loc 1 214 0
 291 01ba 1343     		orrs	r3, r3, r2
 292 01bc BB60     		str	r3, [r7, #8]
 217:App/STM32F4-Discovery/Libraries/STM32F4xx_StdPeriph_Driver/src/stm32f4xx_dac.c ****   /* Calculate CR register value depending on DAC_Channel */
 218:App/STM32F4-Discovery/Libraries/STM32F4xx_StdPeriph_Driver/src/stm32f4xx_dac.c ****   tmpreg1 |= tmpreg2 << DAC_Channel;
 293              		.loc 1 218 0
 294 01be 7B68     		ldr	r3, [r7, #4]
 295 01c0 BA68     		ldr	r2, [r7, #8]
 296 01c2 02FA03F3 		lsl	r3, r2, r3
 297 01c6 FA68     		ldr	r2, [r7, #12]
 298 01c8 1343     		orrs	r3, r3, r2
 299 01ca FB60     		str	r3, [r7, #12]
 219:App/STM32F4-Discovery/Libraries/STM32F4xx_StdPeriph_Driver/src/stm32f4xx_dac.c ****   /* Write to DAC CR */
 220:App/STM32F4-Discovery/Libraries/STM32F4xx_StdPeriph_Driver/src/stm32f4xx_dac.c ****   DAC->CR = tmpreg1;
 300              		.loc 1 220 0
 301 01cc 034B     		ldr	r3, .L7+4
 302 01ce FA68     		ldr	r2, [r7, #12]
 303 01d0 1A60     		str	r2, [r3]
 221:App/STM32F4-Discovery/Libraries/STM32F4xx_StdPeriph_Driver/src/stm32f4xx_dac.c **** }
 304              		.loc 1 221 0
 305 01d2 1037     		adds	r7, r7, #16
 306 01d4 BD46     		mov	sp, r7
 307              		@ sp needed
 308 01d6 80BD     		pop	{r7, pc}
 309              	.L8:
 310              		.align	2
 311              	.L7:
 312 01d8 00000000 		.word	.LC0
 313 01dc 00740040 		.word	1073771520
 314              		.cfi_endproc
 315              	.LFE111:
 317              		.section	.text.DAC_StructInit,"ax",%progbits
 318              		.align	2
 319              		.global	DAC_StructInit
 320              		.thumb
 321              		.thumb_func
 323              	DAC_StructInit:
 324              	.LFB112:
 222:App/STM32F4-Discovery/Libraries/STM32F4xx_StdPeriph_Driver/src/stm32f4xx_dac.c **** 
 223:App/STM32F4-Discovery/Libraries/STM32F4xx_StdPeriph_Driver/src/stm32f4xx_dac.c **** /**
 224:App/STM32F4-Discovery/Libraries/STM32F4xx_StdPeriph_Driver/src/stm32f4xx_dac.c ****   * @brief  Fills each DAC_InitStruct member with its default value.
 225:App/STM32F4-Discovery/Libraries/STM32F4xx_StdPeriph_Driver/src/stm32f4xx_dac.c ****   * @param  DAC_InitStruct: pointer to a DAC_InitTypeDef structure which will 
 226:App/STM32F4-Discovery/Libraries/STM32F4xx_StdPeriph_Driver/src/stm32f4xx_dac.c ****   *         be initialized.
 227:App/STM32F4-Discovery/Libraries/STM32F4xx_StdPeriph_Driver/src/stm32f4xx_dac.c ****   * @retval None
 228:App/STM32F4-Discovery/Libraries/STM32F4xx_StdPeriph_Driver/src/stm32f4xx_dac.c ****   */
 229:App/STM32F4-Discovery/Libraries/STM32F4xx_StdPeriph_Driver/src/stm32f4xx_dac.c **** void DAC_StructInit(DAC_InitTypeDef* DAC_InitStruct)
 230:App/STM32F4-Discovery/Libraries/STM32F4xx_StdPeriph_Driver/src/stm32f4xx_dac.c **** {
 325              		.loc 1 230 0
 326              		.cfi_startproc
 327              		@ args = 0, pretend = 0, frame = 8
 328              		@ frame_needed = 1, uses_anonymous_args = 0
 329              		@ link register save eliminated.
 330 0000 80B4     		push	{r7}
 331              	.LCFI5:
 332              		.cfi_def_cfa_offset 4
 333              		.cfi_offset 7, -4
 334 0002 83B0     		sub	sp, sp, #12
 335              	.LCFI6:
 336              		.cfi_def_cfa_offset 16
 337 0004 00AF     		add	r7, sp, #0
 338              	.LCFI7:
 339              		.cfi_def_cfa_register 7
 340 0006 7860     		str	r0, [r7, #4]
 231:App/STM32F4-Discovery/Libraries/STM32F4xx_StdPeriph_Driver/src/stm32f4xx_dac.c **** /*--------------- Reset DAC init structure parameters values -----------------*/
 232:App/STM32F4-Discovery/Libraries/STM32F4xx_StdPeriph_Driver/src/stm32f4xx_dac.c ****   /* Initialize the DAC_Trigger member */
 233:App/STM32F4-Discovery/Libraries/STM32F4xx_StdPeriph_Driver/src/stm32f4xx_dac.c ****   DAC_InitStruct->DAC_Trigger = DAC_Trigger_None;
 341              		.loc 1 233 0
 342 0008 7B68     		ldr	r3, [r7, #4]
 343 000a 0022     		movs	r2, #0
 344 000c 1A60     		str	r2, [r3]
 234:App/STM32F4-Discovery/Libraries/STM32F4xx_StdPeriph_Driver/src/stm32f4xx_dac.c ****   /* Initialize the DAC_WaveGeneration member */
 235:App/STM32F4-Discovery/Libraries/STM32F4xx_StdPeriph_Driver/src/stm32f4xx_dac.c ****   DAC_InitStruct->DAC_WaveGeneration = DAC_WaveGeneration_None;
 345              		.loc 1 235 0
 346 000e 7B68     		ldr	r3, [r7, #4]
 347 0010 0022     		movs	r2, #0
 348 0012 5A60     		str	r2, [r3, #4]
 236:App/STM32F4-Discovery/Libraries/STM32F4xx_StdPeriph_Driver/src/stm32f4xx_dac.c ****   /* Initialize the DAC_LFSRUnmask_TriangleAmplitude member */
 237:App/STM32F4-Discovery/Libraries/STM32F4xx_StdPeriph_Driver/src/stm32f4xx_dac.c ****   DAC_InitStruct->DAC_LFSRUnmask_TriangleAmplitude = DAC_LFSRUnmask_Bit0;
 349              		.loc 1 237 0
 350 0014 7B68     		ldr	r3, [r7, #4]
 351 0016 0022     		movs	r2, #0
 352 0018 9A60     		str	r2, [r3, #8]
 238:App/STM32F4-Discovery/Libraries/STM32F4xx_StdPeriph_Driver/src/stm32f4xx_dac.c ****   /* Initialize the DAC_OutputBuffer member */
 239:App/STM32F4-Discovery/Libraries/STM32F4xx_StdPeriph_Driver/src/stm32f4xx_dac.c ****   DAC_InitStruct->DAC_OutputBuffer = DAC_OutputBuffer_Enable;
 353              		.loc 1 239 0
 354 001a 7B68     		ldr	r3, [r7, #4]
 355 001c 0022     		movs	r2, #0
 356 001e DA60     		str	r2, [r3, #12]
 240:App/STM32F4-Discovery/Libraries/STM32F4xx_StdPeriph_Driver/src/stm32f4xx_dac.c **** }
 357              		.loc 1 240 0
 358 0020 0C37     		adds	r7, r7, #12
 359 0022 BD46     		mov	sp, r7
 360              		@ sp needed
 361 0024 5DF8047B 		ldr	r7, [sp], #4
 362 0028 7047     		bx	lr
 363              		.cfi_endproc
 364              	.LFE112:
 366 002a 00BF     		.section	.text.DAC_Cmd,"ax",%progbits
 367              		.align	2
 368              		.global	DAC_Cmd
 369              		.thumb
 370              		.thumb_func
 372              	DAC_Cmd:
 373              	.LFB113:
 241:App/STM32F4-Discovery/Libraries/STM32F4xx_StdPeriph_Driver/src/stm32f4xx_dac.c **** 
 242:App/STM32F4-Discovery/Libraries/STM32F4xx_StdPeriph_Driver/src/stm32f4xx_dac.c **** /**
 243:App/STM32F4-Discovery/Libraries/STM32F4xx_StdPeriph_Driver/src/stm32f4xx_dac.c ****   * @brief  Enables or disables the specified DAC channel.
 244:App/STM32F4-Discovery/Libraries/STM32F4xx_StdPeriph_Driver/src/stm32f4xx_dac.c ****   * @param  DAC_Channel: The selected DAC channel. 
 245:App/STM32F4-Discovery/Libraries/STM32F4xx_StdPeriph_Driver/src/stm32f4xx_dac.c ****   *          This parameter can be one of the following values:
 246:App/STM32F4-Discovery/Libraries/STM32F4xx_StdPeriph_Driver/src/stm32f4xx_dac.c ****   *            @arg DAC_Channel_1: DAC Channel1 selected
 247:App/STM32F4-Discovery/Libraries/STM32F4xx_StdPeriph_Driver/src/stm32f4xx_dac.c ****   *            @arg DAC_Channel_2: DAC Channel2 selected
 248:App/STM32F4-Discovery/Libraries/STM32F4xx_StdPeriph_Driver/src/stm32f4xx_dac.c ****   * @param  NewState: new state of the DAC channel. 
 249:App/STM32F4-Discovery/Libraries/STM32F4xx_StdPeriph_Driver/src/stm32f4xx_dac.c ****   *          This parameter can be: ENABLE or DISABLE.
 250:App/STM32F4-Discovery/Libraries/STM32F4xx_StdPeriph_Driver/src/stm32f4xx_dac.c ****   * @note   When the DAC channel is enabled the trigger source can no more be modified.
 251:App/STM32F4-Discovery/Libraries/STM32F4xx_StdPeriph_Driver/src/stm32f4xx_dac.c ****   * @retval None
 252:App/STM32F4-Discovery/Libraries/STM32F4xx_StdPeriph_Driver/src/stm32f4xx_dac.c ****   */
 253:App/STM32F4-Discovery/Libraries/STM32F4xx_StdPeriph_Driver/src/stm32f4xx_dac.c **** void DAC_Cmd(uint32_t DAC_Channel, FunctionalState NewState)
 254:App/STM32F4-Discovery/Libraries/STM32F4xx_StdPeriph_Driver/src/stm32f4xx_dac.c **** {
 374              		.loc 1 254 0
 375              		.cfi_startproc
 376              		@ args = 0, pretend = 0, frame = 8
 377              		@ frame_needed = 1, uses_anonymous_args = 0
 378 0000 80B5     		push	{r7, lr}
 379              	.LCFI8:
 380              		.cfi_def_cfa_offset 8
 381              		.cfi_offset 7, -8
 382              		.cfi_offset 14, -4
 383 0002 82B0     		sub	sp, sp, #8
 384              	.LCFI9:
 385              		.cfi_def_cfa_offset 16
 386 0004 00AF     		add	r7, sp, #0
 387              	.LCFI10:
 388              		.cfi_def_cfa_register 7
 389 0006 7860     		str	r0, [r7, #4]
 390 0008 0B46     		mov	r3, r1
 391 000a FB70     		strb	r3, [r7, #3]
 255:App/STM32F4-Discovery/Libraries/STM32F4xx_StdPeriph_Driver/src/stm32f4xx_dac.c ****   /* Check the parameters */
 256:App/STM32F4-Discovery/Libraries/STM32F4xx_StdPeriph_Driver/src/stm32f4xx_dac.c ****   assert_param(IS_DAC_CHANNEL(DAC_Channel));
 392              		.loc 1 256 0
 393 000c 7B68     		ldr	r3, [r7, #4]
 394 000e 002B     		cmp	r3, #0
 395 0010 07D0     		beq	.L11
 396              		.loc 1 256 0 is_stmt 0 discriminator 1
 397 0012 7B68     		ldr	r3, [r7, #4]
 398 0014 102B     		cmp	r3, #16
 399 0016 04D0     		beq	.L11
 400 0018 1448     		ldr	r0, .L15
 401 001a 4FF48071 		mov	r1, #256
 402 001e FFF7FEFF 		bl	assert_failed
 403              	.L11:
 257:App/STM32F4-Discovery/Libraries/STM32F4xx_StdPeriph_Driver/src/stm32f4xx_dac.c ****   assert_param(IS_FUNCTIONAL_STATE(NewState));
 404              		.loc 1 257 0 is_stmt 1
 405 0022 FB78     		ldrb	r3, [r7, #3]	@ zero_extendqisi2
 406 0024 002B     		cmp	r3, #0
 407 0026 07D0     		beq	.L12
 408              		.loc 1 257 0 is_stmt 0 discriminator 1
 409 0028 FB78     		ldrb	r3, [r7, #3]	@ zero_extendqisi2
 410 002a 012B     		cmp	r3, #1
 411 002c 04D0     		beq	.L12
 412 002e 0F48     		ldr	r0, .L15
 413 0030 40F20111 		movw	r1, #257
 414 0034 FFF7FEFF 		bl	assert_failed
 415              	.L12:
 258:App/STM32F4-Discovery/Libraries/STM32F4xx_StdPeriph_Driver/src/stm32f4xx_dac.c **** 
 259:App/STM32F4-Discovery/Libraries/STM32F4xx_StdPeriph_Driver/src/stm32f4xx_dac.c ****   if (NewState != DISABLE)
 416              		.loc 1 259 0 is_stmt 1
 417 0038 FB78     		ldrb	r3, [r7, #3]	@ zero_extendqisi2
 418 003a 002B     		cmp	r3, #0
 419 003c 09D0     		beq	.L13
 260:App/STM32F4-Discovery/Libraries/STM32F4xx_StdPeriph_Driver/src/stm32f4xx_dac.c ****   {
 261:App/STM32F4-Discovery/Libraries/STM32F4xx_StdPeriph_Driver/src/stm32f4xx_dac.c ****     /* Enable the selected DAC channel */
 262:App/STM32F4-Discovery/Libraries/STM32F4xx_StdPeriph_Driver/src/stm32f4xx_dac.c ****     DAC->CR |= (DAC_CR_EN1 << DAC_Channel);
 420              		.loc 1 262 0
 421 003e 0C4B     		ldr	r3, .L15+4
 422 0040 0B4A     		ldr	r2, .L15+4
 423 0042 1168     		ldr	r1, [r2]
 424 0044 7A68     		ldr	r2, [r7, #4]
 425 0046 0120     		movs	r0, #1
 426 0048 00FA02F2 		lsl	r2, r0, r2
 427 004c 0A43     		orrs	r2, r2, r1
 428 004e 1A60     		str	r2, [r3]
 429 0050 09E0     		b	.L10
 430              	.L13:
 263:App/STM32F4-Discovery/Libraries/STM32F4xx_StdPeriph_Driver/src/stm32f4xx_dac.c ****   }
 264:App/STM32F4-Discovery/Libraries/STM32F4xx_StdPeriph_Driver/src/stm32f4xx_dac.c ****   else
 265:App/STM32F4-Discovery/Libraries/STM32F4xx_StdPeriph_Driver/src/stm32f4xx_dac.c ****   {
 266:App/STM32F4-Discovery/Libraries/STM32F4xx_StdPeriph_Driver/src/stm32f4xx_dac.c ****     /* Disable the selected DAC channel */
 267:App/STM32F4-Discovery/Libraries/STM32F4xx_StdPeriph_Driver/src/stm32f4xx_dac.c ****     DAC->CR &= (~(DAC_CR_EN1 << DAC_Channel));
 431              		.loc 1 267 0
 432 0052 074B     		ldr	r3, .L15+4
 433 0054 064A     		ldr	r2, .L15+4
 434 0056 1168     		ldr	r1, [r2]
 435 0058 7A68     		ldr	r2, [r7, #4]
 436 005a 0120     		movs	r0, #1
 437 005c 00FA02F2 		lsl	r2, r0, r2
 438 0060 D243     		mvns	r2, r2
 439 0062 0A40     		ands	r2, r2, r1
 440 0064 1A60     		str	r2, [r3]
 441              	.L10:
 268:App/STM32F4-Discovery/Libraries/STM32F4xx_StdPeriph_Driver/src/stm32f4xx_dac.c ****   }
 269:App/STM32F4-Discovery/Libraries/STM32F4xx_StdPeriph_Driver/src/stm32f4xx_dac.c **** }
 442              		.loc 1 269 0
 443 0066 0837     		adds	r7, r7, #8
 444 0068 BD46     		mov	sp, r7
 445              		@ sp needed
 446 006a 80BD     		pop	{r7, pc}
 447              	.L16:
 448              		.align	2
 449              	.L15:
 450 006c 00000000 		.word	.LC0
 451 0070 00740040 		.word	1073771520
 452              		.cfi_endproc
 453              	.LFE113:
 455              		.section	.text.DAC_SoftwareTriggerCmd,"ax",%progbits
 456              		.align	2
 457              		.global	DAC_SoftwareTriggerCmd
 458              		.thumb
 459              		.thumb_func
 461              	DAC_SoftwareTriggerCmd:
 462              	.LFB114:
 270:App/STM32F4-Discovery/Libraries/STM32F4xx_StdPeriph_Driver/src/stm32f4xx_dac.c **** 
 271:App/STM32F4-Discovery/Libraries/STM32F4xx_StdPeriph_Driver/src/stm32f4xx_dac.c **** /**
 272:App/STM32F4-Discovery/Libraries/STM32F4xx_StdPeriph_Driver/src/stm32f4xx_dac.c ****   * @brief  Enables or disables the selected DAC channel software trigger.
 273:App/STM32F4-Discovery/Libraries/STM32F4xx_StdPeriph_Driver/src/stm32f4xx_dac.c ****   * @param  DAC_Channel: The selected DAC channel. 
 274:App/STM32F4-Discovery/Libraries/STM32F4xx_StdPeriph_Driver/src/stm32f4xx_dac.c ****   *          This parameter can be one of the following values:
 275:App/STM32F4-Discovery/Libraries/STM32F4xx_StdPeriph_Driver/src/stm32f4xx_dac.c ****   *            @arg DAC_Channel_1: DAC Channel1 selected
 276:App/STM32F4-Discovery/Libraries/STM32F4xx_StdPeriph_Driver/src/stm32f4xx_dac.c ****   *            @arg DAC_Channel_2: DAC Channel2 selected
 277:App/STM32F4-Discovery/Libraries/STM32F4xx_StdPeriph_Driver/src/stm32f4xx_dac.c ****   * @param  NewState: new state of the selected DAC channel software trigger.
 278:App/STM32F4-Discovery/Libraries/STM32F4xx_StdPeriph_Driver/src/stm32f4xx_dac.c ****   *          This parameter can be: ENABLE or DISABLE.
 279:App/STM32F4-Discovery/Libraries/STM32F4xx_StdPeriph_Driver/src/stm32f4xx_dac.c ****   * @retval None
 280:App/STM32F4-Discovery/Libraries/STM32F4xx_StdPeriph_Driver/src/stm32f4xx_dac.c ****   */
 281:App/STM32F4-Discovery/Libraries/STM32F4xx_StdPeriph_Driver/src/stm32f4xx_dac.c **** void DAC_SoftwareTriggerCmd(uint32_t DAC_Channel, FunctionalState NewState)
 282:App/STM32F4-Discovery/Libraries/STM32F4xx_StdPeriph_Driver/src/stm32f4xx_dac.c **** {
 463              		.loc 1 282 0
 464              		.cfi_startproc
 465              		@ args = 0, pretend = 0, frame = 8
 466              		@ frame_needed = 1, uses_anonymous_args = 0
 467 0000 80B5     		push	{r7, lr}
 468              	.LCFI11:
 469              		.cfi_def_cfa_offset 8
 470              		.cfi_offset 7, -8
 471              		.cfi_offset 14, -4
 472 0002 82B0     		sub	sp, sp, #8
 473              	.LCFI12:
 474              		.cfi_def_cfa_offset 16
 475 0004 00AF     		add	r7, sp, #0
 476              	.LCFI13:
 477              		.cfi_def_cfa_register 7
 478 0006 7860     		str	r0, [r7, #4]
 479 0008 0B46     		mov	r3, r1
 480 000a FB70     		strb	r3, [r7, #3]
 283:App/STM32F4-Discovery/Libraries/STM32F4xx_StdPeriph_Driver/src/stm32f4xx_dac.c ****   /* Check the parameters */
 284:App/STM32F4-Discovery/Libraries/STM32F4xx_StdPeriph_Driver/src/stm32f4xx_dac.c ****   assert_param(IS_DAC_CHANNEL(DAC_Channel));
 481              		.loc 1 284 0
 482 000c 7B68     		ldr	r3, [r7, #4]
 483 000e 002B     		cmp	r3, #0
 484 0010 07D0     		beq	.L18
 485              		.loc 1 284 0 is_stmt 0 discriminator 1
 486 0012 7B68     		ldr	r3, [r7, #4]
 487 0014 102B     		cmp	r3, #16
 488 0016 04D0     		beq	.L18
 489 0018 1548     		ldr	r0, .L22
 490 001a 4FF48E71 		mov	r1, #284
 491 001e FFF7FEFF 		bl	assert_failed
 492              	.L18:
 285:App/STM32F4-Discovery/Libraries/STM32F4xx_StdPeriph_Driver/src/stm32f4xx_dac.c ****   assert_param(IS_FUNCTIONAL_STATE(NewState));
 493              		.loc 1 285 0 is_stmt 1
 494 0022 FB78     		ldrb	r3, [r7, #3]	@ zero_extendqisi2
 495 0024 002B     		cmp	r3, #0
 496 0026 07D0     		beq	.L19
 497              		.loc 1 285 0 is_stmt 0 discriminator 1
 498 0028 FB78     		ldrb	r3, [r7, #3]	@ zero_extendqisi2
 499 002a 012B     		cmp	r3, #1
 500 002c 04D0     		beq	.L19
 501 002e 1048     		ldr	r0, .L22
 502 0030 40F21D11 		movw	r1, #285
 503 0034 FFF7FEFF 		bl	assert_failed
 504              	.L19:
 286:App/STM32F4-Discovery/Libraries/STM32F4xx_StdPeriph_Driver/src/stm32f4xx_dac.c **** 
 287:App/STM32F4-Discovery/Libraries/STM32F4xx_StdPeriph_Driver/src/stm32f4xx_dac.c ****   if (NewState != DISABLE)
 505              		.loc 1 287 0 is_stmt 1
 506 0038 FB78     		ldrb	r3, [r7, #3]	@ zero_extendqisi2
 507 003a 002B     		cmp	r3, #0
 508 003c 0AD0     		beq	.L20
 288:App/STM32F4-Discovery/Libraries/STM32F4xx_StdPeriph_Driver/src/stm32f4xx_dac.c ****   {
 289:App/STM32F4-Discovery/Libraries/STM32F4xx_StdPeriph_Driver/src/stm32f4xx_dac.c ****     /* Enable software trigger for the selected DAC channel */
 290:App/STM32F4-Discovery/Libraries/STM32F4xx_StdPeriph_Driver/src/stm32f4xx_dac.c ****     DAC->SWTRIGR |= (uint32_t)DAC_SWTRIGR_SWTRIG1 << (DAC_Channel >> 4);
 509              		.loc 1 290 0
 510 003e 0D4B     		ldr	r3, .L22+4
 511 0040 0C4A     		ldr	r2, .L22+4
 512 0042 5168     		ldr	r1, [r2, #4]
 513 0044 7A68     		ldr	r2, [r7, #4]
 514 0046 1209     		lsrs	r2, r2, #4
 515 0048 0120     		movs	r0, #1
 516 004a 00FA02F2 		lsl	r2, r0, r2
 517 004e 0A43     		orrs	r2, r2, r1
 518 0050 5A60     		str	r2, [r3, #4]
 519 0052 0AE0     		b	.L17
 520              	.L20:
 291:App/STM32F4-Discovery/Libraries/STM32F4xx_StdPeriph_Driver/src/stm32f4xx_dac.c ****   }
 292:App/STM32F4-Discovery/Libraries/STM32F4xx_StdPeriph_Driver/src/stm32f4xx_dac.c ****   else
 293:App/STM32F4-Discovery/Libraries/STM32F4xx_StdPeriph_Driver/src/stm32f4xx_dac.c ****   {
 294:App/STM32F4-Discovery/Libraries/STM32F4xx_StdPeriph_Driver/src/stm32f4xx_dac.c ****     /* Disable software trigger for the selected DAC channel */
 295:App/STM32F4-Discovery/Libraries/STM32F4xx_StdPeriph_Driver/src/stm32f4xx_dac.c ****     DAC->SWTRIGR &= ~((uint32_t)DAC_SWTRIGR_SWTRIG1 << (DAC_Channel >> 4));
 521              		.loc 1 295 0
 522 0054 074B     		ldr	r3, .L22+4
 523 0056 074A     		ldr	r2, .L22+4
 524 0058 5168     		ldr	r1, [r2, #4]
 525 005a 7A68     		ldr	r2, [r7, #4]
 526 005c 1209     		lsrs	r2, r2, #4
 527 005e 0120     		movs	r0, #1
 528 0060 00FA02F2 		lsl	r2, r0, r2
 529 0064 D243     		mvns	r2, r2
 530 0066 0A40     		ands	r2, r2, r1
 531 0068 5A60     		str	r2, [r3, #4]
 532              	.L17:
 296:App/STM32F4-Discovery/Libraries/STM32F4xx_StdPeriph_Driver/src/stm32f4xx_dac.c ****   }
 297:App/STM32F4-Discovery/Libraries/STM32F4xx_StdPeriph_Driver/src/stm32f4xx_dac.c **** }
 533              		.loc 1 297 0
 534 006a 0837     		adds	r7, r7, #8
 535 006c BD46     		mov	sp, r7
 536              		@ sp needed
 537 006e 80BD     		pop	{r7, pc}
 538              	.L23:
 539              		.align	2
 540              	.L22:
 541 0070 00000000 		.word	.LC0
 542 0074 00740040 		.word	1073771520
 543              		.cfi_endproc
 544              	.LFE114:
 546              		.section	.text.DAC_DualSoftwareTriggerCmd,"ax",%progbits
 547              		.align	2
 548              		.global	DAC_DualSoftwareTriggerCmd
 549              		.thumb
 550              		.thumb_func
 552              	DAC_DualSoftwareTriggerCmd:
 553              	.LFB115:
 298:App/STM32F4-Discovery/Libraries/STM32F4xx_StdPeriph_Driver/src/stm32f4xx_dac.c **** 
 299:App/STM32F4-Discovery/Libraries/STM32F4xx_StdPeriph_Driver/src/stm32f4xx_dac.c **** /**
 300:App/STM32F4-Discovery/Libraries/STM32F4xx_StdPeriph_Driver/src/stm32f4xx_dac.c ****   * @brief  Enables or disables simultaneously the two DAC channels software triggers.
 301:App/STM32F4-Discovery/Libraries/STM32F4xx_StdPeriph_Driver/src/stm32f4xx_dac.c ****   * @param  NewState: new state of the DAC channels software triggers.
 302:App/STM32F4-Discovery/Libraries/STM32F4xx_StdPeriph_Driver/src/stm32f4xx_dac.c ****   *          This parameter can be: ENABLE or DISABLE.
 303:App/STM32F4-Discovery/Libraries/STM32F4xx_StdPeriph_Driver/src/stm32f4xx_dac.c ****   * @retval None
 304:App/STM32F4-Discovery/Libraries/STM32F4xx_StdPeriph_Driver/src/stm32f4xx_dac.c ****   */
 305:App/STM32F4-Discovery/Libraries/STM32F4xx_StdPeriph_Driver/src/stm32f4xx_dac.c **** void DAC_DualSoftwareTriggerCmd(FunctionalState NewState)
 306:App/STM32F4-Discovery/Libraries/STM32F4xx_StdPeriph_Driver/src/stm32f4xx_dac.c **** {
 554              		.loc 1 306 0
 555              		.cfi_startproc
 556              		@ args = 0, pretend = 0, frame = 8
 557              		@ frame_needed = 1, uses_anonymous_args = 0
 558 0000 80B5     		push	{r7, lr}
 559              	.LCFI14:
 560              		.cfi_def_cfa_offset 8
 561              		.cfi_offset 7, -8
 562              		.cfi_offset 14, -4
 563 0002 82B0     		sub	sp, sp, #8
 564              	.LCFI15:
 565              		.cfi_def_cfa_offset 16
 566 0004 00AF     		add	r7, sp, #0
 567              	.LCFI16:
 568              		.cfi_def_cfa_register 7
 569 0006 0346     		mov	r3, r0
 570 0008 FB71     		strb	r3, [r7, #7]
 307:App/STM32F4-Discovery/Libraries/STM32F4xx_StdPeriph_Driver/src/stm32f4xx_dac.c ****   /* Check the parameters */
 308:App/STM32F4-Discovery/Libraries/STM32F4xx_StdPeriph_Driver/src/stm32f4xx_dac.c ****   assert_param(IS_FUNCTIONAL_STATE(NewState));
 571              		.loc 1 308 0
 572 000a FB79     		ldrb	r3, [r7, #7]	@ zero_extendqisi2
 573 000c 002B     		cmp	r3, #0
 574 000e 07D0     		beq	.L25
 575              		.loc 1 308 0 is_stmt 0 discriminator 1
 576 0010 FB79     		ldrb	r3, [r7, #7]	@ zero_extendqisi2
 577 0012 012B     		cmp	r3, #1
 578 0014 04D0     		beq	.L25
 579 0016 0C48     		ldr	r0, .L28
 580 0018 4FF49A71 		mov	r1, #308
 581 001c FFF7FEFF 		bl	assert_failed
 582              	.L25:
 309:App/STM32F4-Discovery/Libraries/STM32F4xx_StdPeriph_Driver/src/stm32f4xx_dac.c **** 
 310:App/STM32F4-Discovery/Libraries/STM32F4xx_StdPeriph_Driver/src/stm32f4xx_dac.c ****   if (NewState != DISABLE)
 583              		.loc 1 310 0 is_stmt 1
 584 0020 FB79     		ldrb	r3, [r7, #7]	@ zero_extendqisi2
 585 0022 002B     		cmp	r3, #0
 586 0024 06D0     		beq	.L26
 311:App/STM32F4-Discovery/Libraries/STM32F4xx_StdPeriph_Driver/src/stm32f4xx_dac.c ****   {
 312:App/STM32F4-Discovery/Libraries/STM32F4xx_StdPeriph_Driver/src/stm32f4xx_dac.c ****     /* Enable software trigger for both DAC channels */
 313:App/STM32F4-Discovery/Libraries/STM32F4xx_StdPeriph_Driver/src/stm32f4xx_dac.c ****     DAC->SWTRIGR |= DUAL_SWTRIG_SET;
 587              		.loc 1 313 0
 588 0026 094B     		ldr	r3, .L28+4
 589 0028 084A     		ldr	r2, .L28+4
 590 002a 5268     		ldr	r2, [r2, #4]
 591 002c 42F00302 		orr	r2, r2, #3
 592 0030 5A60     		str	r2, [r3, #4]
 593 0032 05E0     		b	.L24
 594              	.L26:
 314:App/STM32F4-Discovery/Libraries/STM32F4xx_StdPeriph_Driver/src/stm32f4xx_dac.c ****   }
 315:App/STM32F4-Discovery/Libraries/STM32F4xx_StdPeriph_Driver/src/stm32f4xx_dac.c ****   else
 316:App/STM32F4-Discovery/Libraries/STM32F4xx_StdPeriph_Driver/src/stm32f4xx_dac.c ****   {
 317:App/STM32F4-Discovery/Libraries/STM32F4xx_StdPeriph_Driver/src/stm32f4xx_dac.c ****     /* Disable software trigger for both DAC channels */
 318:App/STM32F4-Discovery/Libraries/STM32F4xx_StdPeriph_Driver/src/stm32f4xx_dac.c ****     DAC->SWTRIGR &= DUAL_SWTRIG_RESET;
 595              		.loc 1 318 0
 596 0034 054B     		ldr	r3, .L28+4
 597 0036 054A     		ldr	r2, .L28+4
 598 0038 5268     		ldr	r2, [r2, #4]
 599 003a 22F00302 		bic	r2, r2, #3
 600 003e 5A60     		str	r2, [r3, #4]
 601              	.L24:
 319:App/STM32F4-Discovery/Libraries/STM32F4xx_StdPeriph_Driver/src/stm32f4xx_dac.c ****   }
 320:App/STM32F4-Discovery/Libraries/STM32F4xx_StdPeriph_Driver/src/stm32f4xx_dac.c **** }
 602              		.loc 1 320 0
 603 0040 0837     		adds	r7, r7, #8
 604 0042 BD46     		mov	sp, r7
 605              		@ sp needed
 606 0044 80BD     		pop	{r7, pc}
 607              	.L29:
 608 0046 00BF     		.align	2
 609              	.L28:
 610 0048 00000000 		.word	.LC0
 611 004c 00740040 		.word	1073771520
 612              		.cfi_endproc
 613              	.LFE115:
 615              		.section	.text.DAC_WaveGenerationCmd,"ax",%progbits
 616              		.align	2
 617              		.global	DAC_WaveGenerationCmd
 618              		.thumb
 619              		.thumb_func
 621              	DAC_WaveGenerationCmd:
 622              	.LFB116:
 321:App/STM32F4-Discovery/Libraries/STM32F4xx_StdPeriph_Driver/src/stm32f4xx_dac.c **** 
 322:App/STM32F4-Discovery/Libraries/STM32F4xx_StdPeriph_Driver/src/stm32f4xx_dac.c **** /**
 323:App/STM32F4-Discovery/Libraries/STM32F4xx_StdPeriph_Driver/src/stm32f4xx_dac.c ****   * @brief  Enables or disables the selected DAC channel wave generation.
 324:App/STM32F4-Discovery/Libraries/STM32F4xx_StdPeriph_Driver/src/stm32f4xx_dac.c ****   * @param  DAC_Channel: The selected DAC channel. 
 325:App/STM32F4-Discovery/Libraries/STM32F4xx_StdPeriph_Driver/src/stm32f4xx_dac.c ****   *          This parameter can be one of the following values:
 326:App/STM32F4-Discovery/Libraries/STM32F4xx_StdPeriph_Driver/src/stm32f4xx_dac.c ****   *            @arg DAC_Channel_1: DAC Channel1 selected
 327:App/STM32F4-Discovery/Libraries/STM32F4xx_StdPeriph_Driver/src/stm32f4xx_dac.c ****   *            @arg DAC_Channel_2: DAC Channel2 selected
 328:App/STM32F4-Discovery/Libraries/STM32F4xx_StdPeriph_Driver/src/stm32f4xx_dac.c ****   * @param  DAC_Wave: specifies the wave type to enable or disable.
 329:App/STM32F4-Discovery/Libraries/STM32F4xx_StdPeriph_Driver/src/stm32f4xx_dac.c ****   *          This parameter can be one of the following values:
 330:App/STM32F4-Discovery/Libraries/STM32F4xx_StdPeriph_Driver/src/stm32f4xx_dac.c ****   *            @arg DAC_Wave_Noise: noise wave generation
 331:App/STM32F4-Discovery/Libraries/STM32F4xx_StdPeriph_Driver/src/stm32f4xx_dac.c ****   *            @arg DAC_Wave_Triangle: triangle wave generation
 332:App/STM32F4-Discovery/Libraries/STM32F4xx_StdPeriph_Driver/src/stm32f4xx_dac.c ****   * @param  NewState: new state of the selected DAC channel wave generation.
 333:App/STM32F4-Discovery/Libraries/STM32F4xx_StdPeriph_Driver/src/stm32f4xx_dac.c ****   *          This parameter can be: ENABLE or DISABLE.  
 334:App/STM32F4-Discovery/Libraries/STM32F4xx_StdPeriph_Driver/src/stm32f4xx_dac.c ****   * @retval None
 335:App/STM32F4-Discovery/Libraries/STM32F4xx_StdPeriph_Driver/src/stm32f4xx_dac.c ****   */
 336:App/STM32F4-Discovery/Libraries/STM32F4xx_StdPeriph_Driver/src/stm32f4xx_dac.c **** void DAC_WaveGenerationCmd(uint32_t DAC_Channel, uint32_t DAC_Wave, FunctionalState NewState)
 337:App/STM32F4-Discovery/Libraries/STM32F4xx_StdPeriph_Driver/src/stm32f4xx_dac.c **** {
 623              		.loc 1 337 0
 624              		.cfi_startproc
 625              		@ args = 0, pretend = 0, frame = 16
 626              		@ frame_needed = 1, uses_anonymous_args = 0
 627 0000 80B5     		push	{r7, lr}
 628              	.LCFI17:
 629              		.cfi_def_cfa_offset 8
 630              		.cfi_offset 7, -8
 631              		.cfi_offset 14, -4
 632 0002 84B0     		sub	sp, sp, #16
 633              	.LCFI18:
 634              		.cfi_def_cfa_offset 24
 635 0004 00AF     		add	r7, sp, #0
 636              	.LCFI19:
 637              		.cfi_def_cfa_register 7
 638 0006 F860     		str	r0, [r7, #12]
 639 0008 B960     		str	r1, [r7, #8]
 640 000a 1346     		mov	r3, r2
 641 000c FB71     		strb	r3, [r7, #7]
 338:App/STM32F4-Discovery/Libraries/STM32F4xx_StdPeriph_Driver/src/stm32f4xx_dac.c ****   /* Check the parameters */
 339:App/STM32F4-Discovery/Libraries/STM32F4xx_StdPeriph_Driver/src/stm32f4xx_dac.c ****   assert_param(IS_DAC_CHANNEL(DAC_Channel));
 642              		.loc 1 339 0
 643 000e FB68     		ldr	r3, [r7, #12]
 644 0010 002B     		cmp	r3, #0
 645 0012 07D0     		beq	.L31
 646              		.loc 1 339 0 is_stmt 0 discriminator 1
 647 0014 FB68     		ldr	r3, [r7, #12]
 648 0016 102B     		cmp	r3, #16
 649 0018 04D0     		beq	.L31
 650 001a 1A48     		ldr	r0, .L36
 651 001c 40F25311 		movw	r1, #339
 652 0020 FFF7FEFF 		bl	assert_failed
 653              	.L31:
 340:App/STM32F4-Discovery/Libraries/STM32F4xx_StdPeriph_Driver/src/stm32f4xx_dac.c ****   assert_param(IS_DAC_WAVE(DAC_Wave)); 
 654              		.loc 1 340 0 is_stmt 1
 655 0024 BB68     		ldr	r3, [r7, #8]
 656 0026 402B     		cmp	r3, #64
 657 0028 07D0     		beq	.L32
 658              		.loc 1 340 0 is_stmt 0 discriminator 1
 659 002a BB68     		ldr	r3, [r7, #8]
 660 002c 802B     		cmp	r3, #128
 661 002e 04D0     		beq	.L32
 662 0030 1448     		ldr	r0, .L36
 663 0032 4FF4AA71 		mov	r1, #340
 664 0036 FFF7FEFF 		bl	assert_failed
 665              	.L32:
 341:App/STM32F4-Discovery/Libraries/STM32F4xx_StdPeriph_Driver/src/stm32f4xx_dac.c ****   assert_param(IS_FUNCTIONAL_STATE(NewState));
 666              		.loc 1 341 0 is_stmt 1
 667 003a FB79     		ldrb	r3, [r7, #7]	@ zero_extendqisi2
 668 003c 002B     		cmp	r3, #0
 669 003e 07D0     		beq	.L33
 670              		.loc 1 341 0 is_stmt 0 discriminator 1
 671 0040 FB79     		ldrb	r3, [r7, #7]	@ zero_extendqisi2
 672 0042 012B     		cmp	r3, #1
 673 0044 04D0     		beq	.L33
 674 0046 0F48     		ldr	r0, .L36
 675 0048 40F25511 		movw	r1, #341
 676 004c FFF7FEFF 		bl	assert_failed
 677              	.L33:
 342:App/STM32F4-Discovery/Libraries/STM32F4xx_StdPeriph_Driver/src/stm32f4xx_dac.c **** 
 343:App/STM32F4-Discovery/Libraries/STM32F4xx_StdPeriph_Driver/src/stm32f4xx_dac.c ****   if (NewState != DISABLE)
 678              		.loc 1 343 0 is_stmt 1
 679 0050 FB79     		ldrb	r3, [r7, #7]	@ zero_extendqisi2
 680 0052 002B     		cmp	r3, #0
 681 0054 09D0     		beq	.L34
 344:App/STM32F4-Discovery/Libraries/STM32F4xx_StdPeriph_Driver/src/stm32f4xx_dac.c ****   {
 345:App/STM32F4-Discovery/Libraries/STM32F4xx_StdPeriph_Driver/src/stm32f4xx_dac.c ****     /* Enable the selected wave generation for the selected DAC channel */
 346:App/STM32F4-Discovery/Libraries/STM32F4xx_StdPeriph_Driver/src/stm32f4xx_dac.c ****     DAC->CR |= DAC_Wave << DAC_Channel;
 682              		.loc 1 346 0
 683 0056 0C4B     		ldr	r3, .L36+4
 684 0058 0B4A     		ldr	r2, .L36+4
 685 005a 1168     		ldr	r1, [r2]
 686 005c FA68     		ldr	r2, [r7, #12]
 687 005e B868     		ldr	r0, [r7, #8]
 688 0060 00FA02F2 		lsl	r2, r0, r2
 689 0064 0A43     		orrs	r2, r2, r1
 690 0066 1A60     		str	r2, [r3]
 691 0068 09E0     		b	.L30
 692              	.L34:
 347:App/STM32F4-Discovery/Libraries/STM32F4xx_StdPeriph_Driver/src/stm32f4xx_dac.c ****   }
 348:App/STM32F4-Discovery/Libraries/STM32F4xx_StdPeriph_Driver/src/stm32f4xx_dac.c ****   else
 349:App/STM32F4-Discovery/Libraries/STM32F4xx_StdPeriph_Driver/src/stm32f4xx_dac.c ****   {
 350:App/STM32F4-Discovery/Libraries/STM32F4xx_StdPeriph_Driver/src/stm32f4xx_dac.c ****     /* Disable the selected wave generation for the selected DAC channel */
 351:App/STM32F4-Discovery/Libraries/STM32F4xx_StdPeriph_Driver/src/stm32f4xx_dac.c ****     DAC->CR &= ~(DAC_Wave << DAC_Channel);
 693              		.loc 1 351 0
 694 006a 074B     		ldr	r3, .L36+4
 695 006c 064A     		ldr	r2, .L36+4
 696 006e 1168     		ldr	r1, [r2]
 697 0070 FA68     		ldr	r2, [r7, #12]
 698 0072 B868     		ldr	r0, [r7, #8]
 699 0074 00FA02F2 		lsl	r2, r0, r2
 700 0078 D243     		mvns	r2, r2
 701 007a 0A40     		ands	r2, r2, r1
 702 007c 1A60     		str	r2, [r3]
 703              	.L30:
 352:App/STM32F4-Discovery/Libraries/STM32F4xx_StdPeriph_Driver/src/stm32f4xx_dac.c ****   }
 353:App/STM32F4-Discovery/Libraries/STM32F4xx_StdPeriph_Driver/src/stm32f4xx_dac.c **** }
 704              		.loc 1 353 0
 705 007e 1037     		adds	r7, r7, #16
 706 0080 BD46     		mov	sp, r7
 707              		@ sp needed
 708 0082 80BD     		pop	{r7, pc}
 709              	.L37:
 710              		.align	2
 711              	.L36:
 712 0084 00000000 		.word	.LC0
 713 0088 00740040 		.word	1073771520
 714              		.cfi_endproc
 715              	.LFE116:
 717              		.section	.text.DAC_SetChannel1Data,"ax",%progbits
 718              		.align	2
 719              		.global	DAC_SetChannel1Data
 720              		.thumb
 721              		.thumb_func
 723              	DAC_SetChannel1Data:
 724              	.LFB117:
 354:App/STM32F4-Discovery/Libraries/STM32F4xx_StdPeriph_Driver/src/stm32f4xx_dac.c **** 
 355:App/STM32F4-Discovery/Libraries/STM32F4xx_StdPeriph_Driver/src/stm32f4xx_dac.c **** /**
 356:App/STM32F4-Discovery/Libraries/STM32F4xx_StdPeriph_Driver/src/stm32f4xx_dac.c ****   * @brief  Set the specified data holding register value for DAC channel1.
 357:App/STM32F4-Discovery/Libraries/STM32F4xx_StdPeriph_Driver/src/stm32f4xx_dac.c ****   * @param  DAC_Align: Specifies the data alignment for DAC channel1.
 358:App/STM32F4-Discovery/Libraries/STM32F4xx_StdPeriph_Driver/src/stm32f4xx_dac.c ****   *          This parameter can be one of the following values:
 359:App/STM32F4-Discovery/Libraries/STM32F4xx_StdPeriph_Driver/src/stm32f4xx_dac.c ****   *            @arg DAC_Align_8b_R: 8bit right data alignment selected
 360:App/STM32F4-Discovery/Libraries/STM32F4xx_StdPeriph_Driver/src/stm32f4xx_dac.c ****   *            @arg DAC_Align_12b_L: 12bit left data alignment selected
 361:App/STM32F4-Discovery/Libraries/STM32F4xx_StdPeriph_Driver/src/stm32f4xx_dac.c ****   *            @arg DAC_Align_12b_R: 12bit right data alignment selected
 362:App/STM32F4-Discovery/Libraries/STM32F4xx_StdPeriph_Driver/src/stm32f4xx_dac.c ****   * @param  Data: Data to be loaded in the selected data holding register.
 363:App/STM32F4-Discovery/Libraries/STM32F4xx_StdPeriph_Driver/src/stm32f4xx_dac.c ****   * @retval None
 364:App/STM32F4-Discovery/Libraries/STM32F4xx_StdPeriph_Driver/src/stm32f4xx_dac.c ****   */
 365:App/STM32F4-Discovery/Libraries/STM32F4xx_StdPeriph_Driver/src/stm32f4xx_dac.c **** void DAC_SetChannel1Data(uint32_t DAC_Align, uint16_t Data)
 366:App/STM32F4-Discovery/Libraries/STM32F4xx_StdPeriph_Driver/src/stm32f4xx_dac.c **** {  
 725              		.loc 1 366 0
 726              		.cfi_startproc
 727              		@ args = 0, pretend = 0, frame = 16
 728              		@ frame_needed = 1, uses_anonymous_args = 0
 729 0000 80B5     		push	{r7, lr}
 730              	.LCFI20:
 731              		.cfi_def_cfa_offset 8
 732              		.cfi_offset 7, -8
 733              		.cfi_offset 14, -4
 734 0002 84B0     		sub	sp, sp, #16
 735              	.LCFI21:
 736              		.cfi_def_cfa_offset 24
 737 0004 00AF     		add	r7, sp, #0
 738              	.LCFI22:
 739              		.cfi_def_cfa_register 7
 740 0006 7860     		str	r0, [r7, #4]
 741 0008 0B46     		mov	r3, r1
 742 000a 7B80     		strh	r3, [r7, #2]	@ movhi
 367:App/STM32F4-Discovery/Libraries/STM32F4xx_StdPeriph_Driver/src/stm32f4xx_dac.c ****   __IO uint32_t tmp = 0;
 743              		.loc 1 367 0
 744 000c 0023     		movs	r3, #0
 745 000e FB60     		str	r3, [r7, #12]
 368:App/STM32F4-Discovery/Libraries/STM32F4xx_StdPeriph_Driver/src/stm32f4xx_dac.c ****   
 369:App/STM32F4-Discovery/Libraries/STM32F4xx_StdPeriph_Driver/src/stm32f4xx_dac.c ****   /* Check the parameters */
 370:App/STM32F4-Discovery/Libraries/STM32F4xx_StdPeriph_Driver/src/stm32f4xx_dac.c ****   assert_param(IS_DAC_ALIGN(DAC_Align));
 746              		.loc 1 370 0
 747 0010 7B68     		ldr	r3, [r7, #4]
 748 0012 002B     		cmp	r3, #0
 749 0014 0AD0     		beq	.L39
 750              		.loc 1 370 0 is_stmt 0 discriminator 1
 751 0016 7B68     		ldr	r3, [r7, #4]
 752 0018 042B     		cmp	r3, #4
 753 001a 07D0     		beq	.L39
 754 001c 7B68     		ldr	r3, [r7, #4]
 755 001e 082B     		cmp	r3, #8
 756 0020 04D0     		beq	.L39
 757 0022 0E48     		ldr	r0, .L41
 758 0024 4FF4B971 		mov	r1, #370
 759 0028 FFF7FEFF 		bl	assert_failed
 760              	.L39:
 371:App/STM32F4-Discovery/Libraries/STM32F4xx_StdPeriph_Driver/src/stm32f4xx_dac.c ****   assert_param(IS_DAC_DATA(Data));
 761              		.loc 1 371 0 is_stmt 1
 762 002c 7A88     		ldrh	r2, [r7, #2]
 763 002e 4FF6F073 		movw	r3, #65520
 764 0032 9A42     		cmp	r2, r3
 765 0034 04D9     		bls	.L40
 766              		.loc 1 371 0 is_stmt 0 discriminator 1
 767 0036 0948     		ldr	r0, .L41
 768 0038 40F27311 		movw	r1, #371
 769 003c FFF7FEFF 		bl	assert_failed
 770              	.L40:
 372:App/STM32F4-Discovery/Libraries/STM32F4xx_StdPeriph_Driver/src/stm32f4xx_dac.c ****   
 373:App/STM32F4-Discovery/Libraries/STM32F4xx_StdPeriph_Driver/src/stm32f4xx_dac.c ****   tmp = (uint32_t)DAC_BASE; 
 771              		.loc 1 373 0 is_stmt 1
 772 0040 074B     		ldr	r3, .L41+4
 773 0042 FB60     		str	r3, [r7, #12]
 374:App/STM32F4-Discovery/Libraries/STM32F4xx_StdPeriph_Driver/src/stm32f4xx_dac.c ****   tmp += DHR12R1_OFFSET + DAC_Align;
 774              		.loc 1 374 0
 775 0044 FA68     		ldr	r2, [r7, #12]
 776 0046 7B68     		ldr	r3, [r7, #4]
 777 0048 1344     		add	r3, r3, r2
 778 004a 0833     		adds	r3, r3, #8
 779 004c FB60     		str	r3, [r7, #12]
 375:App/STM32F4-Discovery/Libraries/STM32F4xx_StdPeriph_Driver/src/stm32f4xx_dac.c **** 
 376:App/STM32F4-Discovery/Libraries/STM32F4xx_StdPeriph_Driver/src/stm32f4xx_dac.c ****   /* Set the DAC channel1 selected data holding register */
 377:App/STM32F4-Discovery/Libraries/STM32F4xx_StdPeriph_Driver/src/stm32f4xx_dac.c ****   *(__IO uint32_t *) tmp = Data;
 780              		.loc 1 377 0
 781 004e FB68     		ldr	r3, [r7, #12]
 782 0050 7A88     		ldrh	r2, [r7, #2]
 783 0052 1A60     		str	r2, [r3]
 378:App/STM32F4-Discovery/Libraries/STM32F4xx_StdPeriph_Driver/src/stm32f4xx_dac.c **** }
 784              		.loc 1 378 0
 785 0054 1037     		adds	r7, r7, #16
 786 0056 BD46     		mov	sp, r7
 787              		@ sp needed
 788 0058 80BD     		pop	{r7, pc}
 789              	.L42:
 790 005a 00BF     		.align	2
 791              	.L41:
 792 005c 00000000 		.word	.LC0
 793 0060 00740040 		.word	1073771520
 794              		.cfi_endproc
 795              	.LFE117:
 797              		.section	.text.DAC_SetChannel2Data,"ax",%progbits
 798              		.align	2
 799              		.global	DAC_SetChannel2Data
 800              		.thumb
 801              		.thumb_func
 803              	DAC_SetChannel2Data:
 804              	.LFB118:
 379:App/STM32F4-Discovery/Libraries/STM32F4xx_StdPeriph_Driver/src/stm32f4xx_dac.c **** 
 380:App/STM32F4-Discovery/Libraries/STM32F4xx_StdPeriph_Driver/src/stm32f4xx_dac.c **** /**
 381:App/STM32F4-Discovery/Libraries/STM32F4xx_StdPeriph_Driver/src/stm32f4xx_dac.c ****   * @brief  Set the specified data holding register value for DAC channel2.
 382:App/STM32F4-Discovery/Libraries/STM32F4xx_StdPeriph_Driver/src/stm32f4xx_dac.c ****   * @param  DAC_Align: Specifies the data alignment for DAC channel2.
 383:App/STM32F4-Discovery/Libraries/STM32F4xx_StdPeriph_Driver/src/stm32f4xx_dac.c ****   *          This parameter can be one of the following values:
 384:App/STM32F4-Discovery/Libraries/STM32F4xx_StdPeriph_Driver/src/stm32f4xx_dac.c ****   *            @arg DAC_Align_8b_R: 8bit right data alignment selected
 385:App/STM32F4-Discovery/Libraries/STM32F4xx_StdPeriph_Driver/src/stm32f4xx_dac.c ****   *            @arg DAC_Align_12b_L: 12bit left data alignment selected
 386:App/STM32F4-Discovery/Libraries/STM32F4xx_StdPeriph_Driver/src/stm32f4xx_dac.c ****   *            @arg DAC_Align_12b_R: 12bit right data alignment selected
 387:App/STM32F4-Discovery/Libraries/STM32F4xx_StdPeriph_Driver/src/stm32f4xx_dac.c ****   * @param  Data: Data to be loaded in the selected data holding register.
 388:App/STM32F4-Discovery/Libraries/STM32F4xx_StdPeriph_Driver/src/stm32f4xx_dac.c ****   * @retval None
 389:App/STM32F4-Discovery/Libraries/STM32F4xx_StdPeriph_Driver/src/stm32f4xx_dac.c ****   */
 390:App/STM32F4-Discovery/Libraries/STM32F4xx_StdPeriph_Driver/src/stm32f4xx_dac.c **** void DAC_SetChannel2Data(uint32_t DAC_Align, uint16_t Data)
 391:App/STM32F4-Discovery/Libraries/STM32F4xx_StdPeriph_Driver/src/stm32f4xx_dac.c **** {
 805              		.loc 1 391 0
 806              		.cfi_startproc
 807              		@ args = 0, pretend = 0, frame = 16
 808              		@ frame_needed = 1, uses_anonymous_args = 0
 809 0000 80B5     		push	{r7, lr}
 810              	.LCFI23:
 811              		.cfi_def_cfa_offset 8
 812              		.cfi_offset 7, -8
 813              		.cfi_offset 14, -4
 814 0002 84B0     		sub	sp, sp, #16
 815              	.LCFI24:
 816              		.cfi_def_cfa_offset 24
 817 0004 00AF     		add	r7, sp, #0
 818              	.LCFI25:
 819              		.cfi_def_cfa_register 7
 820 0006 7860     		str	r0, [r7, #4]
 821 0008 0B46     		mov	r3, r1
 822 000a 7B80     		strh	r3, [r7, #2]	@ movhi
 392:App/STM32F4-Discovery/Libraries/STM32F4xx_StdPeriph_Driver/src/stm32f4xx_dac.c ****   __IO uint32_t tmp = 0;
 823              		.loc 1 392 0
 824 000c 0023     		movs	r3, #0
 825 000e FB60     		str	r3, [r7, #12]
 393:App/STM32F4-Discovery/Libraries/STM32F4xx_StdPeriph_Driver/src/stm32f4xx_dac.c **** 
 394:App/STM32F4-Discovery/Libraries/STM32F4xx_StdPeriph_Driver/src/stm32f4xx_dac.c ****   /* Check the parameters */
 395:App/STM32F4-Discovery/Libraries/STM32F4xx_StdPeriph_Driver/src/stm32f4xx_dac.c ****   assert_param(IS_DAC_ALIGN(DAC_Align));
 826              		.loc 1 395 0
 827 0010 7B68     		ldr	r3, [r7, #4]
 828 0012 002B     		cmp	r3, #0
 829 0014 0AD0     		beq	.L44
 830              		.loc 1 395 0 is_stmt 0 discriminator 1
 831 0016 7B68     		ldr	r3, [r7, #4]
 832 0018 042B     		cmp	r3, #4
 833 001a 07D0     		beq	.L44
 834 001c 7B68     		ldr	r3, [r7, #4]
 835 001e 082B     		cmp	r3, #8
 836 0020 04D0     		beq	.L44
 837 0022 0E48     		ldr	r0, .L46
 838 0024 40F28B11 		movw	r1, #395
 839 0028 FFF7FEFF 		bl	assert_failed
 840              	.L44:
 396:App/STM32F4-Discovery/Libraries/STM32F4xx_StdPeriph_Driver/src/stm32f4xx_dac.c ****   assert_param(IS_DAC_DATA(Data));
 841              		.loc 1 396 0 is_stmt 1
 842 002c 7A88     		ldrh	r2, [r7, #2]
 843 002e 4FF6F073 		movw	r3, #65520
 844 0032 9A42     		cmp	r2, r3
 845 0034 04D9     		bls	.L45
 846              		.loc 1 396 0 is_stmt 0 discriminator 1
 847 0036 0948     		ldr	r0, .L46
 848 0038 4FF4C671 		mov	r1, #396
 849 003c FFF7FEFF 		bl	assert_failed
 850              	.L45:
 397:App/STM32F4-Discovery/Libraries/STM32F4xx_StdPeriph_Driver/src/stm32f4xx_dac.c ****   
 398:App/STM32F4-Discovery/Libraries/STM32F4xx_StdPeriph_Driver/src/stm32f4xx_dac.c ****   tmp = (uint32_t)DAC_BASE;
 851              		.loc 1 398 0 is_stmt 1
 852 0040 074B     		ldr	r3, .L46+4
 853 0042 FB60     		str	r3, [r7, #12]
 399:App/STM32F4-Discovery/Libraries/STM32F4xx_StdPeriph_Driver/src/stm32f4xx_dac.c ****   tmp += DHR12R2_OFFSET + DAC_Align;
 854              		.loc 1 399 0
 855 0044 FA68     		ldr	r2, [r7, #12]
 856 0046 7B68     		ldr	r3, [r7, #4]
 857 0048 1344     		add	r3, r3, r2
 858 004a 1433     		adds	r3, r3, #20
 859 004c FB60     		str	r3, [r7, #12]
 400:App/STM32F4-Discovery/Libraries/STM32F4xx_StdPeriph_Driver/src/stm32f4xx_dac.c **** 
 401:App/STM32F4-Discovery/Libraries/STM32F4xx_StdPeriph_Driver/src/stm32f4xx_dac.c ****   /* Set the DAC channel2 selected data holding register */
 402:App/STM32F4-Discovery/Libraries/STM32F4xx_StdPeriph_Driver/src/stm32f4xx_dac.c ****   *(__IO uint32_t *)tmp = Data;
 860              		.loc 1 402 0
 861 004e FB68     		ldr	r3, [r7, #12]
 862 0050 7A88     		ldrh	r2, [r7, #2]
 863 0052 1A60     		str	r2, [r3]
 403:App/STM32F4-Discovery/Libraries/STM32F4xx_StdPeriph_Driver/src/stm32f4xx_dac.c **** }
 864              		.loc 1 403 0
 865 0054 1037     		adds	r7, r7, #16
 866 0056 BD46     		mov	sp, r7
 867              		@ sp needed
 868 0058 80BD     		pop	{r7, pc}
 869              	.L47:
 870 005a 00BF     		.align	2
 871              	.L46:
 872 005c 00000000 		.word	.LC0
 873 0060 00740040 		.word	1073771520
 874              		.cfi_endproc
 875              	.LFE118:
 877              		.section	.text.DAC_SetDualChannelData,"ax",%progbits
 878              		.align	2
 879              		.global	DAC_SetDualChannelData
 880              		.thumb
 881              		.thumb_func
 883              	DAC_SetDualChannelData:
 884              	.LFB119:
 404:App/STM32F4-Discovery/Libraries/STM32F4xx_StdPeriph_Driver/src/stm32f4xx_dac.c **** 
 405:App/STM32F4-Discovery/Libraries/STM32F4xx_StdPeriph_Driver/src/stm32f4xx_dac.c **** /**
 406:App/STM32F4-Discovery/Libraries/STM32F4xx_StdPeriph_Driver/src/stm32f4xx_dac.c ****   * @brief  Set the specified data holding register value for dual channel DAC.
 407:App/STM32F4-Discovery/Libraries/STM32F4xx_StdPeriph_Driver/src/stm32f4xx_dac.c ****   * @param  DAC_Align: Specifies the data alignment for dual channel DAC.
 408:App/STM32F4-Discovery/Libraries/STM32F4xx_StdPeriph_Driver/src/stm32f4xx_dac.c ****   *          This parameter can be one of the following values:
 409:App/STM32F4-Discovery/Libraries/STM32F4xx_StdPeriph_Driver/src/stm32f4xx_dac.c ****   *            @arg DAC_Align_8b_R: 8bit right data alignment selected
 410:App/STM32F4-Discovery/Libraries/STM32F4xx_StdPeriph_Driver/src/stm32f4xx_dac.c ****   *            @arg DAC_Align_12b_L: 12bit left data alignment selected
 411:App/STM32F4-Discovery/Libraries/STM32F4xx_StdPeriph_Driver/src/stm32f4xx_dac.c ****   *            @arg DAC_Align_12b_R: 12bit right data alignment selected
 412:App/STM32F4-Discovery/Libraries/STM32F4xx_StdPeriph_Driver/src/stm32f4xx_dac.c ****   * @param  Data2: Data for DAC Channel2 to be loaded in the selected data holding register.
 413:App/STM32F4-Discovery/Libraries/STM32F4xx_StdPeriph_Driver/src/stm32f4xx_dac.c ****   * @param  Data1: Data for DAC Channel1 to be loaded in the selected data  holding register.
 414:App/STM32F4-Discovery/Libraries/STM32F4xx_StdPeriph_Driver/src/stm32f4xx_dac.c ****   * @note   In dual mode, a unique register access is required to write in both
 415:App/STM32F4-Discovery/Libraries/STM32F4xx_StdPeriph_Driver/src/stm32f4xx_dac.c ****   *          DAC channels at the same time.
 416:App/STM32F4-Discovery/Libraries/STM32F4xx_StdPeriph_Driver/src/stm32f4xx_dac.c ****   * @retval None
 417:App/STM32F4-Discovery/Libraries/STM32F4xx_StdPeriph_Driver/src/stm32f4xx_dac.c ****   */
 418:App/STM32F4-Discovery/Libraries/STM32F4xx_StdPeriph_Driver/src/stm32f4xx_dac.c **** void DAC_SetDualChannelData(uint32_t DAC_Align, uint16_t Data2, uint16_t Data1)
 419:App/STM32F4-Discovery/Libraries/STM32F4xx_StdPeriph_Driver/src/stm32f4xx_dac.c **** {
 885              		.loc 1 419 0
 886              		.cfi_startproc
 887              		@ args = 0, pretend = 0, frame = 16
 888              		@ frame_needed = 1, uses_anonymous_args = 0
 889 0000 80B5     		push	{r7, lr}
 890              	.LCFI26:
 891              		.cfi_def_cfa_offset 8
 892              		.cfi_offset 7, -8
 893              		.cfi_offset 14, -4
 894 0002 84B0     		sub	sp, sp, #16
 895              	.LCFI27:
 896              		.cfi_def_cfa_offset 24
 897 0004 00AF     		add	r7, sp, #0
 898              	.LCFI28:
 899              		.cfi_def_cfa_register 7
 900 0006 7860     		str	r0, [r7, #4]
 901 0008 1346     		mov	r3, r2
 902 000a 0A46     		mov	r2, r1	@ movhi
 903 000c 7A80     		strh	r2, [r7, #2]	@ movhi
 904 000e 3B80     		strh	r3, [r7]	@ movhi
 420:App/STM32F4-Discovery/Libraries/STM32F4xx_StdPeriph_Driver/src/stm32f4xx_dac.c ****   uint32_t data = 0, tmp = 0;
 905              		.loc 1 420 0
 906 0010 0023     		movs	r3, #0
 907 0012 FB60     		str	r3, [r7, #12]
 908 0014 0023     		movs	r3, #0
 909 0016 BB60     		str	r3, [r7, #8]
 421:App/STM32F4-Discovery/Libraries/STM32F4xx_StdPeriph_Driver/src/stm32f4xx_dac.c ****   
 422:App/STM32F4-Discovery/Libraries/STM32F4xx_StdPeriph_Driver/src/stm32f4xx_dac.c ****   /* Check the parameters */
 423:App/STM32F4-Discovery/Libraries/STM32F4xx_StdPeriph_Driver/src/stm32f4xx_dac.c ****   assert_param(IS_DAC_ALIGN(DAC_Align));
 910              		.loc 1 423 0
 911 0018 7B68     		ldr	r3, [r7, #4]
 912 001a 002B     		cmp	r3, #0
 913 001c 0AD0     		beq	.L49
 914              		.loc 1 423 0 is_stmt 0 discriminator 1
 915 001e 7B68     		ldr	r3, [r7, #4]
 916 0020 042B     		cmp	r3, #4
 917 0022 07D0     		beq	.L49
 918 0024 7B68     		ldr	r3, [r7, #4]
 919 0026 082B     		cmp	r3, #8
 920 0028 04D0     		beq	.L49
 921 002a 1A48     		ldr	r0, .L54
 922 002c 40F2A711 		movw	r1, #423
 923 0030 FFF7FEFF 		bl	assert_failed
 924              	.L49:
 424:App/STM32F4-Discovery/Libraries/STM32F4xx_StdPeriph_Driver/src/stm32f4xx_dac.c ****   assert_param(IS_DAC_DATA(Data1));
 925              		.loc 1 424 0 is_stmt 1
 926 0034 3A88     		ldrh	r2, [r7]
 927 0036 4FF6F073 		movw	r3, #65520
 928 003a 9A42     		cmp	r2, r3
 929 003c 04D9     		bls	.L50
 930              		.loc 1 424 0 is_stmt 0 discriminator 1
 931 003e 1548     		ldr	r0, .L54
 932 0040 4FF4D471 		mov	r1, #424
 933 0044 FFF7FEFF 		bl	assert_failed
 934              	.L50:
 425:App/STM32F4-Discovery/Libraries/STM32F4xx_StdPeriph_Driver/src/stm32f4xx_dac.c ****   assert_param(IS_DAC_DATA(Data2));
 935              		.loc 1 425 0 is_stmt 1
 936 0048 7A88     		ldrh	r2, [r7, #2]
 937 004a 4FF6F073 		movw	r3, #65520
 938 004e 9A42     		cmp	r2, r3
 939 0050 04D9     		bls	.L51
 940              		.loc 1 425 0 is_stmt 0 discriminator 1
 941 0052 1048     		ldr	r0, .L54
 942 0054 40F2A911 		movw	r1, #425
 943 0058 FFF7FEFF 		bl	assert_failed
 944              	.L51:
 426:App/STM32F4-Discovery/Libraries/STM32F4xx_StdPeriph_Driver/src/stm32f4xx_dac.c ****   
 427:App/STM32F4-Discovery/Libraries/STM32F4xx_StdPeriph_Driver/src/stm32f4xx_dac.c ****   /* Calculate and set dual DAC data holding register value */
 428:App/STM32F4-Discovery/Libraries/STM32F4xx_StdPeriph_Driver/src/stm32f4xx_dac.c ****   if (DAC_Align == DAC_Align_8b_R)
 945              		.loc 1 428 0 is_stmt 1
 946 005c 7B68     		ldr	r3, [r7, #4]
 947 005e 082B     		cmp	r3, #8
 948 0060 05D1     		bne	.L52
 429:App/STM32F4-Discovery/Libraries/STM32F4xx_StdPeriph_Driver/src/stm32f4xx_dac.c ****   {
 430:App/STM32F4-Discovery/Libraries/STM32F4xx_StdPeriph_Driver/src/stm32f4xx_dac.c ****     data = ((uint32_t)Data2 << 8) | Data1; 
 949              		.loc 1 430 0
 950 0062 7B88     		ldrh	r3, [r7, #2]
 951 0064 1A02     		lsls	r2, r3, #8
 952 0066 3B88     		ldrh	r3, [r7]
 953 0068 1343     		orrs	r3, r3, r2
 954 006a FB60     		str	r3, [r7, #12]
 955 006c 04E0     		b	.L53
 956              	.L52:
 431:App/STM32F4-Discovery/Libraries/STM32F4xx_StdPeriph_Driver/src/stm32f4xx_dac.c ****   }
 432:App/STM32F4-Discovery/Libraries/STM32F4xx_StdPeriph_Driver/src/stm32f4xx_dac.c ****   else
 433:App/STM32F4-Discovery/Libraries/STM32F4xx_StdPeriph_Driver/src/stm32f4xx_dac.c ****   {
 434:App/STM32F4-Discovery/Libraries/STM32F4xx_StdPeriph_Driver/src/stm32f4xx_dac.c ****     data = ((uint32_t)Data2 << 16) | Data1;
 957              		.loc 1 434 0
 958 006e 7B88     		ldrh	r3, [r7, #2]
 959 0070 1A04     		lsls	r2, r3, #16
 960 0072 3B88     		ldrh	r3, [r7]
 961 0074 1343     		orrs	r3, r3, r2
 962 0076 FB60     		str	r3, [r7, #12]
 963              	.L53:
 435:App/STM32F4-Discovery/Libraries/STM32F4xx_StdPeriph_Driver/src/stm32f4xx_dac.c ****   }
 436:App/STM32F4-Discovery/Libraries/STM32F4xx_StdPeriph_Driver/src/stm32f4xx_dac.c ****   
 437:App/STM32F4-Discovery/Libraries/STM32F4xx_StdPeriph_Driver/src/stm32f4xx_dac.c ****   tmp = (uint32_t)DAC_BASE;
 964              		.loc 1 437 0
 965 0078 074B     		ldr	r3, .L54+4
 966 007a BB60     		str	r3, [r7, #8]
 438:App/STM32F4-Discovery/Libraries/STM32F4xx_StdPeriph_Driver/src/stm32f4xx_dac.c ****   tmp += DHR12RD_OFFSET + DAC_Align;
 967              		.loc 1 438 0
 968 007c 7A68     		ldr	r2, [r7, #4]
 969 007e BB68     		ldr	r3, [r7, #8]
 970 0080 1344     		add	r3, r3, r2
 971 0082 2033     		adds	r3, r3, #32
 972 0084 BB60     		str	r3, [r7, #8]
 439:App/STM32F4-Discovery/Libraries/STM32F4xx_StdPeriph_Driver/src/stm32f4xx_dac.c **** 
 440:App/STM32F4-Discovery/Libraries/STM32F4xx_StdPeriph_Driver/src/stm32f4xx_dac.c ****   /* Set the dual DAC selected data holding register */
 441:App/STM32F4-Discovery/Libraries/STM32F4xx_StdPeriph_Driver/src/stm32f4xx_dac.c ****   *(__IO uint32_t *)tmp = data;
 973              		.loc 1 441 0
 974 0086 BB68     		ldr	r3, [r7, #8]
 975 0088 FA68     		ldr	r2, [r7, #12]
 976 008a 1A60     		str	r2, [r3]
 442:App/STM32F4-Discovery/Libraries/STM32F4xx_StdPeriph_Driver/src/stm32f4xx_dac.c **** }
 977              		.loc 1 442 0
 978 008c 1037     		adds	r7, r7, #16
 979 008e BD46     		mov	sp, r7
 980              		@ sp needed
 981 0090 80BD     		pop	{r7, pc}
 982              	.L55:
 983 0092 00BF     		.align	2
 984              	.L54:
 985 0094 00000000 		.word	.LC0
 986 0098 00740040 		.word	1073771520
 987              		.cfi_endproc
 988              	.LFE119:
 990              		.section	.text.DAC_GetDataOutputValue,"ax",%progbits
 991              		.align	2
 992              		.global	DAC_GetDataOutputValue
 993              		.thumb
 994              		.thumb_func
 996              	DAC_GetDataOutputValue:
 997              	.LFB120:
 443:App/STM32F4-Discovery/Libraries/STM32F4xx_StdPeriph_Driver/src/stm32f4xx_dac.c **** 
 444:App/STM32F4-Discovery/Libraries/STM32F4xx_StdPeriph_Driver/src/stm32f4xx_dac.c **** /**
 445:App/STM32F4-Discovery/Libraries/STM32F4xx_StdPeriph_Driver/src/stm32f4xx_dac.c ****   * @brief  Returns the last data output value of the selected DAC channel.
 446:App/STM32F4-Discovery/Libraries/STM32F4xx_StdPeriph_Driver/src/stm32f4xx_dac.c ****   * @param  DAC_Channel: The selected DAC channel. 
 447:App/STM32F4-Discovery/Libraries/STM32F4xx_StdPeriph_Driver/src/stm32f4xx_dac.c ****   *          This parameter can be one of the following values:
 448:App/STM32F4-Discovery/Libraries/STM32F4xx_StdPeriph_Driver/src/stm32f4xx_dac.c ****   *            @arg DAC_Channel_1: DAC Channel1 selected
 449:App/STM32F4-Discovery/Libraries/STM32F4xx_StdPeriph_Driver/src/stm32f4xx_dac.c ****   *            @arg DAC_Channel_2: DAC Channel2 selected
 450:App/STM32F4-Discovery/Libraries/STM32F4xx_StdPeriph_Driver/src/stm32f4xx_dac.c ****   * @retval The selected DAC channel data output value.
 451:App/STM32F4-Discovery/Libraries/STM32F4xx_StdPeriph_Driver/src/stm32f4xx_dac.c ****   */
 452:App/STM32F4-Discovery/Libraries/STM32F4xx_StdPeriph_Driver/src/stm32f4xx_dac.c **** uint16_t DAC_GetDataOutputValue(uint32_t DAC_Channel)
 453:App/STM32F4-Discovery/Libraries/STM32F4xx_StdPeriph_Driver/src/stm32f4xx_dac.c **** {
 998              		.loc 1 453 0
 999              		.cfi_startproc
 1000              		@ args = 0, pretend = 0, frame = 16
 1001              		@ frame_needed = 1, uses_anonymous_args = 0
 1002 0000 80B5     		push	{r7, lr}
 1003              	.LCFI29:
 1004              		.cfi_def_cfa_offset 8
 1005              		.cfi_offset 7, -8
 1006              		.cfi_offset 14, -4
 1007 0002 84B0     		sub	sp, sp, #16
 1008              	.LCFI30:
 1009              		.cfi_def_cfa_offset 24
 1010 0004 00AF     		add	r7, sp, #0
 1011              	.LCFI31:
 1012              		.cfi_def_cfa_register 7
 1013 0006 7860     		str	r0, [r7, #4]
 454:App/STM32F4-Discovery/Libraries/STM32F4xx_StdPeriph_Driver/src/stm32f4xx_dac.c ****   __IO uint32_t tmp = 0;
 1014              		.loc 1 454 0
 1015 0008 0023     		movs	r3, #0
 1016 000a FB60     		str	r3, [r7, #12]
 455:App/STM32F4-Discovery/Libraries/STM32F4xx_StdPeriph_Driver/src/stm32f4xx_dac.c ****   
 456:App/STM32F4-Discovery/Libraries/STM32F4xx_StdPeriph_Driver/src/stm32f4xx_dac.c ****   /* Check the parameters */
 457:App/STM32F4-Discovery/Libraries/STM32F4xx_StdPeriph_Driver/src/stm32f4xx_dac.c ****   assert_param(IS_DAC_CHANNEL(DAC_Channel));
 1017              		.loc 1 457 0
 1018 000c 7B68     		ldr	r3, [r7, #4]
 1019 000e 002B     		cmp	r3, #0
 1020 0010 07D0     		beq	.L57
 1021              		.loc 1 457 0 is_stmt 0 discriminator 1
 1022 0012 7B68     		ldr	r3, [r7, #4]
 1023 0014 102B     		cmp	r3, #16
 1024 0016 04D0     		beq	.L57
 1025 0018 0948     		ldr	r0, .L59
 1026 001a 40F2C911 		movw	r1, #457
 1027 001e FFF7FEFF 		bl	assert_failed
 1028              	.L57:
 458:App/STM32F4-Discovery/Libraries/STM32F4xx_StdPeriph_Driver/src/stm32f4xx_dac.c ****   
 459:App/STM32F4-Discovery/Libraries/STM32F4xx_StdPeriph_Driver/src/stm32f4xx_dac.c ****   tmp = (uint32_t) DAC_BASE ;
 1029              		.loc 1 459 0 is_stmt 1
 1030 0022 084B     		ldr	r3, .L59+4
 1031 0024 FB60     		str	r3, [r7, #12]
 460:App/STM32F4-Discovery/Libraries/STM32F4xx_StdPeriph_Driver/src/stm32f4xx_dac.c ****   tmp += DOR_OFFSET + ((uint32_t)DAC_Channel >> 2);
 1032              		.loc 1 460 0
 1033 0026 7B68     		ldr	r3, [r7, #4]
 1034 0028 9A08     		lsrs	r2, r3, #2
 1035 002a FB68     		ldr	r3, [r7, #12]
 1036 002c 1344     		add	r3, r3, r2
 1037 002e 2C33     		adds	r3, r3, #44
 1038 0030 FB60     		str	r3, [r7, #12]
 461:App/STM32F4-Discovery/Libraries/STM32F4xx_StdPeriph_Driver/src/stm32f4xx_dac.c ****   
 462:App/STM32F4-Discovery/Libraries/STM32F4xx_StdPeriph_Driver/src/stm32f4xx_dac.c ****   /* Returns the DAC channel data output register value */
 463:App/STM32F4-Discovery/Libraries/STM32F4xx_StdPeriph_Driver/src/stm32f4xx_dac.c ****   return (uint16_t) (*(__IO uint32_t*) tmp);
 1039              		.loc 1 463 0
 1040 0032 FB68     		ldr	r3, [r7, #12]
 1041 0034 1B68     		ldr	r3, [r3]
 1042 0036 9BB2     		uxth	r3, r3
 464:App/STM32F4-Discovery/Libraries/STM32F4xx_StdPeriph_Driver/src/stm32f4xx_dac.c **** }
 1043              		.loc 1 464 0
 1044 0038 1846     		mov	r0, r3
 1045 003a 1037     		adds	r7, r7, #16
 1046 003c BD46     		mov	sp, r7
 1047              		@ sp needed
 1048 003e 80BD     		pop	{r7, pc}
 1049              	.L60:
 1050              		.align	2
 1051              	.L59:
 1052 0040 00000000 		.word	.LC0
 1053 0044 00740040 		.word	1073771520
 1054              		.cfi_endproc
 1055              	.LFE120:
 1057              		.section	.text.DAC_DMACmd,"ax",%progbits
 1058              		.align	2
 1059              		.global	DAC_DMACmd
 1060              		.thumb
 1061              		.thumb_func
 1063              	DAC_DMACmd:
 1064              	.LFB121:
 465:App/STM32F4-Discovery/Libraries/STM32F4xx_StdPeriph_Driver/src/stm32f4xx_dac.c **** /**
 466:App/STM32F4-Discovery/Libraries/STM32F4xx_StdPeriph_Driver/src/stm32f4xx_dac.c ****   * @}
 467:App/STM32F4-Discovery/Libraries/STM32F4xx_StdPeriph_Driver/src/stm32f4xx_dac.c ****   */
 468:App/STM32F4-Discovery/Libraries/STM32F4xx_StdPeriph_Driver/src/stm32f4xx_dac.c **** 
 469:App/STM32F4-Discovery/Libraries/STM32F4xx_StdPeriph_Driver/src/stm32f4xx_dac.c **** /** @defgroup DAC_Group2 DMA management functions
 470:App/STM32F4-Discovery/Libraries/STM32F4xx_StdPeriph_Driver/src/stm32f4xx_dac.c ****  *  @brief   DMA management functions
 471:App/STM32F4-Discovery/Libraries/STM32F4xx_StdPeriph_Driver/src/stm32f4xx_dac.c ****  *
 472:App/STM32F4-Discovery/Libraries/STM32F4xx_StdPeriph_Driver/src/stm32f4xx_dac.c **** @verbatim   
 473:App/STM32F4-Discovery/Libraries/STM32F4xx_StdPeriph_Driver/src/stm32f4xx_dac.c ****  ===============================================================================
 474:App/STM32F4-Discovery/Libraries/STM32F4xx_StdPeriph_Driver/src/stm32f4xx_dac.c ****                           DMA management functions
 475:App/STM32F4-Discovery/Libraries/STM32F4xx_StdPeriph_Driver/src/stm32f4xx_dac.c ****  ===============================================================================  
 476:App/STM32F4-Discovery/Libraries/STM32F4xx_StdPeriph_Driver/src/stm32f4xx_dac.c **** 
 477:App/STM32F4-Discovery/Libraries/STM32F4xx_StdPeriph_Driver/src/stm32f4xx_dac.c **** @endverbatim
 478:App/STM32F4-Discovery/Libraries/STM32F4xx_StdPeriph_Driver/src/stm32f4xx_dac.c ****   * @{
 479:App/STM32F4-Discovery/Libraries/STM32F4xx_StdPeriph_Driver/src/stm32f4xx_dac.c ****   */
 480:App/STM32F4-Discovery/Libraries/STM32F4xx_StdPeriph_Driver/src/stm32f4xx_dac.c **** 
 481:App/STM32F4-Discovery/Libraries/STM32F4xx_StdPeriph_Driver/src/stm32f4xx_dac.c **** /**
 482:App/STM32F4-Discovery/Libraries/STM32F4xx_StdPeriph_Driver/src/stm32f4xx_dac.c ****   * @brief  Enables or disables the specified DAC channel DMA request.
 483:App/STM32F4-Discovery/Libraries/STM32F4xx_StdPeriph_Driver/src/stm32f4xx_dac.c ****   * @note   When enabled DMA1 is generated when an external trigger (EXTI Line9,
 484:App/STM32F4-Discovery/Libraries/STM32F4xx_StdPeriph_Driver/src/stm32f4xx_dac.c ****   *         TIM2, TIM4, TIM5, TIM6, TIM7 or TIM8  but not a software trigger) occurs.
 485:App/STM32F4-Discovery/Libraries/STM32F4xx_StdPeriph_Driver/src/stm32f4xx_dac.c ****   * @param  DAC_Channel: The selected DAC channel. 
 486:App/STM32F4-Discovery/Libraries/STM32F4xx_StdPeriph_Driver/src/stm32f4xx_dac.c ****   *          This parameter can be one of the following values:
 487:App/STM32F4-Discovery/Libraries/STM32F4xx_StdPeriph_Driver/src/stm32f4xx_dac.c ****   *            @arg DAC_Channel_1: DAC Channel1 selected
 488:App/STM32F4-Discovery/Libraries/STM32F4xx_StdPeriph_Driver/src/stm32f4xx_dac.c ****   *            @arg DAC_Channel_2: DAC Channel2 selected
 489:App/STM32F4-Discovery/Libraries/STM32F4xx_StdPeriph_Driver/src/stm32f4xx_dac.c ****   * @param  NewState: new state of the selected DAC channel DMA request.
 490:App/STM32F4-Discovery/Libraries/STM32F4xx_StdPeriph_Driver/src/stm32f4xx_dac.c ****   *          This parameter can be: ENABLE or DISABLE.
 491:App/STM32F4-Discovery/Libraries/STM32F4xx_StdPeriph_Driver/src/stm32f4xx_dac.c ****   * @note   The DAC channel1 is mapped on DMA1 Stream 5 channel7 which must be
 492:App/STM32F4-Discovery/Libraries/STM32F4xx_StdPeriph_Driver/src/stm32f4xx_dac.c ****   *          already configured.
 493:App/STM32F4-Discovery/Libraries/STM32F4xx_StdPeriph_Driver/src/stm32f4xx_dac.c ****   * @note   The DAC channel2 is mapped on DMA1 Stream 6 channel7 which must be
 494:App/STM32F4-Discovery/Libraries/STM32F4xx_StdPeriph_Driver/src/stm32f4xx_dac.c ****   *          already configured.    
 495:App/STM32F4-Discovery/Libraries/STM32F4xx_StdPeriph_Driver/src/stm32f4xx_dac.c ****   * @retval None
 496:App/STM32F4-Discovery/Libraries/STM32F4xx_StdPeriph_Driver/src/stm32f4xx_dac.c ****   */
 497:App/STM32F4-Discovery/Libraries/STM32F4xx_StdPeriph_Driver/src/stm32f4xx_dac.c **** void DAC_DMACmd(uint32_t DAC_Channel, FunctionalState NewState)
 498:App/STM32F4-Discovery/Libraries/STM32F4xx_StdPeriph_Driver/src/stm32f4xx_dac.c **** {
 1065              		.loc 1 498 0
 1066              		.cfi_startproc
 1067              		@ args = 0, pretend = 0, frame = 8
 1068              		@ frame_needed = 1, uses_anonymous_args = 0
 1069 0000 80B5     		push	{r7, lr}
 1070              	.LCFI32:
 1071              		.cfi_def_cfa_offset 8
 1072              		.cfi_offset 7, -8
 1073              		.cfi_offset 14, -4
 1074 0002 82B0     		sub	sp, sp, #8
 1075              	.LCFI33:
 1076              		.cfi_def_cfa_offset 16
 1077 0004 00AF     		add	r7, sp, #0
 1078              	.LCFI34:
 1079              		.cfi_def_cfa_register 7
 1080 0006 7860     		str	r0, [r7, #4]
 1081 0008 0B46     		mov	r3, r1
 1082 000a FB70     		strb	r3, [r7, #3]
 499:App/STM32F4-Discovery/Libraries/STM32F4xx_StdPeriph_Driver/src/stm32f4xx_dac.c ****   /* Check the parameters */
 500:App/STM32F4-Discovery/Libraries/STM32F4xx_StdPeriph_Driver/src/stm32f4xx_dac.c ****   assert_param(IS_DAC_CHANNEL(DAC_Channel));
 1083              		.loc 1 500 0
 1084 000c 7B68     		ldr	r3, [r7, #4]
 1085 000e 002B     		cmp	r3, #0
 1086 0010 07D0     		beq	.L62
 1087              		.loc 1 500 0 is_stmt 0 discriminator 1
 1088 0012 7B68     		ldr	r3, [r7, #4]
 1089 0014 102B     		cmp	r3, #16
 1090 0016 04D0     		beq	.L62
 1091 0018 1548     		ldr	r0, .L66
 1092 001a 4FF4FA71 		mov	r1, #500
 1093 001e FFF7FEFF 		bl	assert_failed
 1094              	.L62:
 501:App/STM32F4-Discovery/Libraries/STM32F4xx_StdPeriph_Driver/src/stm32f4xx_dac.c ****   assert_param(IS_FUNCTIONAL_STATE(NewState));
 1095              		.loc 1 501 0 is_stmt 1
 1096 0022 FB78     		ldrb	r3, [r7, #3]	@ zero_extendqisi2
 1097 0024 002B     		cmp	r3, #0
 1098 0026 07D0     		beq	.L63
 1099              		.loc 1 501 0 is_stmt 0 discriminator 1
 1100 0028 FB78     		ldrb	r3, [r7, #3]	@ zero_extendqisi2
 1101 002a 012B     		cmp	r3, #1
 1102 002c 04D0     		beq	.L63
 1103 002e 1048     		ldr	r0, .L66
 1104 0030 40F2F511 		movw	r1, #501
 1105 0034 FFF7FEFF 		bl	assert_failed
 1106              	.L63:
 502:App/STM32F4-Discovery/Libraries/STM32F4xx_StdPeriph_Driver/src/stm32f4xx_dac.c **** 
 503:App/STM32F4-Discovery/Libraries/STM32F4xx_StdPeriph_Driver/src/stm32f4xx_dac.c ****   if (NewState != DISABLE)
 1107              		.loc 1 503 0 is_stmt 1
 1108 0038 FB78     		ldrb	r3, [r7, #3]	@ zero_extendqisi2
 1109 003a 002B     		cmp	r3, #0
 1110 003c 0AD0     		beq	.L64
 504:App/STM32F4-Discovery/Libraries/STM32F4xx_StdPeriph_Driver/src/stm32f4xx_dac.c ****   {
 505:App/STM32F4-Discovery/Libraries/STM32F4xx_StdPeriph_Driver/src/stm32f4xx_dac.c ****     /* Enable the selected DAC channel DMA request */
 506:App/STM32F4-Discovery/Libraries/STM32F4xx_StdPeriph_Driver/src/stm32f4xx_dac.c ****     DAC->CR |= (DAC_CR_DMAEN1 << DAC_Channel);
 1111              		.loc 1 506 0
 1112 003e 0D4B     		ldr	r3, .L66+4
 1113 0040 0C4A     		ldr	r2, .L66+4
 1114 0042 1168     		ldr	r1, [r2]
 1115 0044 7A68     		ldr	r2, [r7, #4]
 1116 0046 4FF48050 		mov	r0, #4096
 1117 004a 00FA02F2 		lsl	r2, r0, r2
 1118 004e 0A43     		orrs	r2, r2, r1
 1119 0050 1A60     		str	r2, [r3]
 1120 0052 0AE0     		b	.L61
 1121              	.L64:
 507:App/STM32F4-Discovery/Libraries/STM32F4xx_StdPeriph_Driver/src/stm32f4xx_dac.c ****   }
 508:App/STM32F4-Discovery/Libraries/STM32F4xx_StdPeriph_Driver/src/stm32f4xx_dac.c ****   else
 509:App/STM32F4-Discovery/Libraries/STM32F4xx_StdPeriph_Driver/src/stm32f4xx_dac.c ****   {
 510:App/STM32F4-Discovery/Libraries/STM32F4xx_StdPeriph_Driver/src/stm32f4xx_dac.c ****     /* Disable the selected DAC channel DMA request */
 511:App/STM32F4-Discovery/Libraries/STM32F4xx_StdPeriph_Driver/src/stm32f4xx_dac.c ****     DAC->CR &= (~(DAC_CR_DMAEN1 << DAC_Channel));
 1122              		.loc 1 511 0
 1123 0054 074B     		ldr	r3, .L66+4
 1124 0056 074A     		ldr	r2, .L66+4
 1125 0058 1168     		ldr	r1, [r2]
 1126 005a 7A68     		ldr	r2, [r7, #4]
 1127 005c 4FF48050 		mov	r0, #4096
 1128 0060 00FA02F2 		lsl	r2, r0, r2
 1129 0064 D243     		mvns	r2, r2
 1130 0066 0A40     		ands	r2, r2, r1
 1131 0068 1A60     		str	r2, [r3]
 1132              	.L61:
 512:App/STM32F4-Discovery/Libraries/STM32F4xx_StdPeriph_Driver/src/stm32f4xx_dac.c ****   }
 513:App/STM32F4-Discovery/Libraries/STM32F4xx_StdPeriph_Driver/src/stm32f4xx_dac.c **** }
 1133              		.loc 1 513 0
 1134 006a 0837     		adds	r7, r7, #8
 1135 006c BD46     		mov	sp, r7
 1136              		@ sp needed
 1137 006e 80BD     		pop	{r7, pc}
 1138              	.L67:
 1139              		.align	2
 1140              	.L66:
 1141 0070 00000000 		.word	.LC0
 1142 0074 00740040 		.word	1073771520
 1143              		.cfi_endproc
 1144              	.LFE121:
 1146              		.section	.text.DAC_ITConfig,"ax",%progbits
 1147              		.align	2
 1148              		.global	DAC_ITConfig
 1149              		.thumb
 1150              		.thumb_func
 1152              	DAC_ITConfig:
 1153              	.LFB122:
 514:App/STM32F4-Discovery/Libraries/STM32F4xx_StdPeriph_Driver/src/stm32f4xx_dac.c **** /**
 515:App/STM32F4-Discovery/Libraries/STM32F4xx_StdPeriph_Driver/src/stm32f4xx_dac.c ****   * @}
 516:App/STM32F4-Discovery/Libraries/STM32F4xx_StdPeriph_Driver/src/stm32f4xx_dac.c ****   */
 517:App/STM32F4-Discovery/Libraries/STM32F4xx_StdPeriph_Driver/src/stm32f4xx_dac.c **** 
 518:App/STM32F4-Discovery/Libraries/STM32F4xx_StdPeriph_Driver/src/stm32f4xx_dac.c **** /** @defgroup DAC_Group3 Interrupts and flags management functions
 519:App/STM32F4-Discovery/Libraries/STM32F4xx_StdPeriph_Driver/src/stm32f4xx_dac.c ****  *  @brief   Interrupts and flags management functions
 520:App/STM32F4-Discovery/Libraries/STM32F4xx_StdPeriph_Driver/src/stm32f4xx_dac.c ****  *
 521:App/STM32F4-Discovery/Libraries/STM32F4xx_StdPeriph_Driver/src/stm32f4xx_dac.c **** @verbatim   
 522:App/STM32F4-Discovery/Libraries/STM32F4xx_StdPeriph_Driver/src/stm32f4xx_dac.c ****  ===============================================================================
 523:App/STM32F4-Discovery/Libraries/STM32F4xx_StdPeriph_Driver/src/stm32f4xx_dac.c ****                    Interrupts and flags management functions
 524:App/STM32F4-Discovery/Libraries/STM32F4xx_StdPeriph_Driver/src/stm32f4xx_dac.c ****  ===============================================================================  
 525:App/STM32F4-Discovery/Libraries/STM32F4xx_StdPeriph_Driver/src/stm32f4xx_dac.c **** 
 526:App/STM32F4-Discovery/Libraries/STM32F4xx_StdPeriph_Driver/src/stm32f4xx_dac.c **** @endverbatim
 527:App/STM32F4-Discovery/Libraries/STM32F4xx_StdPeriph_Driver/src/stm32f4xx_dac.c ****   * @{
 528:App/STM32F4-Discovery/Libraries/STM32F4xx_StdPeriph_Driver/src/stm32f4xx_dac.c ****   */
 529:App/STM32F4-Discovery/Libraries/STM32F4xx_StdPeriph_Driver/src/stm32f4xx_dac.c **** 
 530:App/STM32F4-Discovery/Libraries/STM32F4xx_StdPeriph_Driver/src/stm32f4xx_dac.c **** /**
 531:App/STM32F4-Discovery/Libraries/STM32F4xx_StdPeriph_Driver/src/stm32f4xx_dac.c ****   * @brief  Enables or disables the specified DAC interrupts.
 532:App/STM32F4-Discovery/Libraries/STM32F4xx_StdPeriph_Driver/src/stm32f4xx_dac.c ****   * @param  DAC_Channel: The selected DAC channel. 
 533:App/STM32F4-Discovery/Libraries/STM32F4xx_StdPeriph_Driver/src/stm32f4xx_dac.c ****   *          This parameter can be one of the following values:
 534:App/STM32F4-Discovery/Libraries/STM32F4xx_StdPeriph_Driver/src/stm32f4xx_dac.c ****   *            @arg DAC_Channel_1: DAC Channel1 selected
 535:App/STM32F4-Discovery/Libraries/STM32F4xx_StdPeriph_Driver/src/stm32f4xx_dac.c ****   *            @arg DAC_Channel_2: DAC Channel2 selected
 536:App/STM32F4-Discovery/Libraries/STM32F4xx_StdPeriph_Driver/src/stm32f4xx_dac.c ****   * @param  DAC_IT: specifies the DAC interrupt sources to be enabled or disabled. 
 537:App/STM32F4-Discovery/Libraries/STM32F4xx_StdPeriph_Driver/src/stm32f4xx_dac.c ****   *          This parameter can be the following values:
 538:App/STM32F4-Discovery/Libraries/STM32F4xx_StdPeriph_Driver/src/stm32f4xx_dac.c ****   *            @arg DAC_IT_DMAUDR: DMA underrun interrupt mask
 539:App/STM32F4-Discovery/Libraries/STM32F4xx_StdPeriph_Driver/src/stm32f4xx_dac.c ****   * @note   The DMA underrun occurs when a second external trigger arrives before the 
 540:App/STM32F4-Discovery/Libraries/STM32F4xx_StdPeriph_Driver/src/stm32f4xx_dac.c ****   *         acknowledgement for the first external trigger is received (first request).
 541:App/STM32F4-Discovery/Libraries/STM32F4xx_StdPeriph_Driver/src/stm32f4xx_dac.c ****   * @param  NewState: new state of the specified DAC interrupts.
 542:App/STM32F4-Discovery/Libraries/STM32F4xx_StdPeriph_Driver/src/stm32f4xx_dac.c ****   *          This parameter can be: ENABLE or DISABLE.
 543:App/STM32F4-Discovery/Libraries/STM32F4xx_StdPeriph_Driver/src/stm32f4xx_dac.c ****   * @retval None
 544:App/STM32F4-Discovery/Libraries/STM32F4xx_StdPeriph_Driver/src/stm32f4xx_dac.c ****   */ 
 545:App/STM32F4-Discovery/Libraries/STM32F4xx_StdPeriph_Driver/src/stm32f4xx_dac.c **** void DAC_ITConfig(uint32_t DAC_Channel, uint32_t DAC_IT, FunctionalState NewState)  
 546:App/STM32F4-Discovery/Libraries/STM32F4xx_StdPeriph_Driver/src/stm32f4xx_dac.c **** {
 1154              		.loc 1 546 0
 1155              		.cfi_startproc
 1156              		@ args = 0, pretend = 0, frame = 16
 1157              		@ frame_needed = 1, uses_anonymous_args = 0
 1158 0000 80B5     		push	{r7, lr}
 1159              	.LCFI35:
 1160              		.cfi_def_cfa_offset 8
 1161              		.cfi_offset 7, -8
 1162              		.cfi_offset 14, -4
 1163 0002 84B0     		sub	sp, sp, #16
 1164              	.LCFI36:
 1165              		.cfi_def_cfa_offset 24
 1166 0004 00AF     		add	r7, sp, #0
 1167              	.LCFI37:
 1168              		.cfi_def_cfa_register 7
 1169 0006 F860     		str	r0, [r7, #12]
 1170 0008 B960     		str	r1, [r7, #8]
 1171 000a 1346     		mov	r3, r2
 1172 000c FB71     		strb	r3, [r7, #7]
 547:App/STM32F4-Discovery/Libraries/STM32F4xx_StdPeriph_Driver/src/stm32f4xx_dac.c ****   /* Check the parameters */
 548:App/STM32F4-Discovery/Libraries/STM32F4xx_StdPeriph_Driver/src/stm32f4xx_dac.c ****   assert_param(IS_DAC_CHANNEL(DAC_Channel));
 1173              		.loc 1 548 0
 1174 000e FB68     		ldr	r3, [r7, #12]
 1175 0010 002B     		cmp	r3, #0
 1176 0012 07D0     		beq	.L69
 1177              		.loc 1 548 0 is_stmt 0 discriminator 1
 1178 0014 FB68     		ldr	r3, [r7, #12]
 1179 0016 102B     		cmp	r3, #16
 1180 0018 04D0     		beq	.L69
 1181 001a 1948     		ldr	r0, .L74
 1182 001c 4FF40971 		mov	r1, #548
 1183 0020 FFF7FEFF 		bl	assert_failed
 1184              	.L69:
 549:App/STM32F4-Discovery/Libraries/STM32F4xx_StdPeriph_Driver/src/stm32f4xx_dac.c ****   assert_param(IS_FUNCTIONAL_STATE(NewState));
 1185              		.loc 1 549 0 is_stmt 1
 1186 0024 FB79     		ldrb	r3, [r7, #7]	@ zero_extendqisi2
 1187 0026 002B     		cmp	r3, #0
 1188 0028 07D0     		beq	.L70
 1189              		.loc 1 549 0 is_stmt 0 discriminator 1
 1190 002a FB79     		ldrb	r3, [r7, #7]	@ zero_extendqisi2
 1191 002c 012B     		cmp	r3, #1
 1192 002e 04D0     		beq	.L70
 1193 0030 1348     		ldr	r0, .L74
 1194 0032 40F22521 		movw	r1, #549
 1195 0036 FFF7FEFF 		bl	assert_failed
 1196              	.L70:
 550:App/STM32F4-Discovery/Libraries/STM32F4xx_StdPeriph_Driver/src/stm32f4xx_dac.c ****   assert_param(IS_DAC_IT(DAC_IT)); 
 1197              		.loc 1 550 0 is_stmt 1
 1198 003a BB68     		ldr	r3, [r7, #8]
 1199 003c B3F5005F 		cmp	r3, #8192
 1200 0040 04D0     		beq	.L71
 1201              		.loc 1 550 0 is_stmt 0 discriminator 1
 1202 0042 0F48     		ldr	r0, .L74
 1203 0044 40F22621 		movw	r1, #550
 1204 0048 FFF7FEFF 		bl	assert_failed
 1205              	.L71:
 551:App/STM32F4-Discovery/Libraries/STM32F4xx_StdPeriph_Driver/src/stm32f4xx_dac.c **** 
 552:App/STM32F4-Discovery/Libraries/STM32F4xx_StdPeriph_Driver/src/stm32f4xx_dac.c ****   if (NewState != DISABLE)
 1206              		.loc 1 552 0 is_stmt 1
 1207 004c FB79     		ldrb	r3, [r7, #7]	@ zero_extendqisi2
 1208 004e 002B     		cmp	r3, #0
 1209 0050 09D0     		beq	.L72
 553:App/STM32F4-Discovery/Libraries/STM32F4xx_StdPeriph_Driver/src/stm32f4xx_dac.c ****   {
 554:App/STM32F4-Discovery/Libraries/STM32F4xx_StdPeriph_Driver/src/stm32f4xx_dac.c ****     /* Enable the selected DAC interrupts */
 555:App/STM32F4-Discovery/Libraries/STM32F4xx_StdPeriph_Driver/src/stm32f4xx_dac.c ****     DAC->CR |=  (DAC_IT << DAC_Channel);
 1210              		.loc 1 555 0
 1211 0052 0C4B     		ldr	r3, .L74+4
 1212 0054 0B4A     		ldr	r2, .L74+4
 1213 0056 1168     		ldr	r1, [r2]
 1214 0058 FA68     		ldr	r2, [r7, #12]
 1215 005a B868     		ldr	r0, [r7, #8]
 1216 005c 00FA02F2 		lsl	r2, r0, r2
 1217 0060 0A43     		orrs	r2, r2, r1
 1218 0062 1A60     		str	r2, [r3]
 1219 0064 09E0     		b	.L68
 1220              	.L72:
 556:App/STM32F4-Discovery/Libraries/STM32F4xx_StdPeriph_Driver/src/stm32f4xx_dac.c ****   }
 557:App/STM32F4-Discovery/Libraries/STM32F4xx_StdPeriph_Driver/src/stm32f4xx_dac.c ****   else
 558:App/STM32F4-Discovery/Libraries/STM32F4xx_StdPeriph_Driver/src/stm32f4xx_dac.c ****   {
 559:App/STM32F4-Discovery/Libraries/STM32F4xx_StdPeriph_Driver/src/stm32f4xx_dac.c ****     /* Disable the selected DAC interrupts */
 560:App/STM32F4-Discovery/Libraries/STM32F4xx_StdPeriph_Driver/src/stm32f4xx_dac.c ****     DAC->CR &= (~(uint32_t)(DAC_IT << DAC_Channel));
 1221              		.loc 1 560 0
 1222 0066 074B     		ldr	r3, .L74+4
 1223 0068 064A     		ldr	r2, .L74+4
 1224 006a 1168     		ldr	r1, [r2]
 1225 006c FA68     		ldr	r2, [r7, #12]
 1226 006e B868     		ldr	r0, [r7, #8]
 1227 0070 00FA02F2 		lsl	r2, r0, r2
 1228 0074 D243     		mvns	r2, r2
 1229 0076 0A40     		ands	r2, r2, r1
 1230 0078 1A60     		str	r2, [r3]
 1231              	.L68:
 561:App/STM32F4-Discovery/Libraries/STM32F4xx_StdPeriph_Driver/src/stm32f4xx_dac.c ****   }
 562:App/STM32F4-Discovery/Libraries/STM32F4xx_StdPeriph_Driver/src/stm32f4xx_dac.c **** }
 1232              		.loc 1 562 0
 1233 007a 1037     		adds	r7, r7, #16
 1234 007c BD46     		mov	sp, r7
 1235              		@ sp needed
 1236 007e 80BD     		pop	{r7, pc}
 1237              	.L75:
 1238              		.align	2
 1239              	.L74:
 1240 0080 00000000 		.word	.LC0
 1241 0084 00740040 		.word	1073771520
 1242              		.cfi_endproc
 1243              	.LFE122:
 1245              		.section	.text.DAC_GetFlagStatus,"ax",%progbits
 1246              		.align	2
 1247              		.global	DAC_GetFlagStatus
 1248              		.thumb
 1249              		.thumb_func
 1251              	DAC_GetFlagStatus:
 1252              	.LFB123:
 563:App/STM32F4-Discovery/Libraries/STM32F4xx_StdPeriph_Driver/src/stm32f4xx_dac.c **** 
 564:App/STM32F4-Discovery/Libraries/STM32F4xx_StdPeriph_Driver/src/stm32f4xx_dac.c **** /**
 565:App/STM32F4-Discovery/Libraries/STM32F4xx_StdPeriph_Driver/src/stm32f4xx_dac.c ****   * @brief  Checks whether the specified DAC flag is set or not.
 566:App/STM32F4-Discovery/Libraries/STM32F4xx_StdPeriph_Driver/src/stm32f4xx_dac.c ****   * @param  DAC_Channel: The selected DAC channel. 
 567:App/STM32F4-Discovery/Libraries/STM32F4xx_StdPeriph_Driver/src/stm32f4xx_dac.c ****   *          This parameter can be one of the following values:
 568:App/STM32F4-Discovery/Libraries/STM32F4xx_StdPeriph_Driver/src/stm32f4xx_dac.c ****   *            @arg DAC_Channel_1: DAC Channel1 selected
 569:App/STM32F4-Discovery/Libraries/STM32F4xx_StdPeriph_Driver/src/stm32f4xx_dac.c ****   *            @arg DAC_Channel_2: DAC Channel2 selected
 570:App/STM32F4-Discovery/Libraries/STM32F4xx_StdPeriph_Driver/src/stm32f4xx_dac.c ****   * @param  DAC_FLAG: specifies the flag to check. 
 571:App/STM32F4-Discovery/Libraries/STM32F4xx_StdPeriph_Driver/src/stm32f4xx_dac.c ****   *          This parameter can be only of the following value:
 572:App/STM32F4-Discovery/Libraries/STM32F4xx_StdPeriph_Driver/src/stm32f4xx_dac.c ****   *            @arg DAC_FLAG_DMAUDR: DMA underrun flag
 573:App/STM32F4-Discovery/Libraries/STM32F4xx_StdPeriph_Driver/src/stm32f4xx_dac.c ****   * @note   The DMA underrun occurs when a second external trigger arrives before the 
 574:App/STM32F4-Discovery/Libraries/STM32F4xx_StdPeriph_Driver/src/stm32f4xx_dac.c ****   *         acknowledgement for the first external trigger is received (first request).
 575:App/STM32F4-Discovery/Libraries/STM32F4xx_StdPeriph_Driver/src/stm32f4xx_dac.c ****   * @retval The new state of DAC_FLAG (SET or RESET).
 576:App/STM32F4-Discovery/Libraries/STM32F4xx_StdPeriph_Driver/src/stm32f4xx_dac.c ****   */
 577:App/STM32F4-Discovery/Libraries/STM32F4xx_StdPeriph_Driver/src/stm32f4xx_dac.c **** FlagStatus DAC_GetFlagStatus(uint32_t DAC_Channel, uint32_t DAC_FLAG)
 578:App/STM32F4-Discovery/Libraries/STM32F4xx_StdPeriph_Driver/src/stm32f4xx_dac.c **** {
 1253              		.loc 1 578 0
 1254              		.cfi_startproc
 1255              		@ args = 0, pretend = 0, frame = 16
 1256              		@ frame_needed = 1, uses_anonymous_args = 0
 1257 0000 80B5     		push	{r7, lr}
 1258              	.LCFI38:
 1259              		.cfi_def_cfa_offset 8
 1260              		.cfi_offset 7, -8
 1261              		.cfi_offset 14, -4
 1262 0002 84B0     		sub	sp, sp, #16
 1263              	.LCFI39:
 1264              		.cfi_def_cfa_offset 24
 1265 0004 00AF     		add	r7, sp, #0
 1266              	.LCFI40:
 1267              		.cfi_def_cfa_register 7
 1268 0006 7860     		str	r0, [r7, #4]
 1269 0008 3960     		str	r1, [r7]
 579:App/STM32F4-Discovery/Libraries/STM32F4xx_StdPeriph_Driver/src/stm32f4xx_dac.c ****   FlagStatus bitstatus = RESET;
 1270              		.loc 1 579 0
 1271 000a 0023     		movs	r3, #0
 1272 000c FB73     		strb	r3, [r7, #15]
 580:App/STM32F4-Discovery/Libraries/STM32F4xx_StdPeriph_Driver/src/stm32f4xx_dac.c ****   /* Check the parameters */
 581:App/STM32F4-Discovery/Libraries/STM32F4xx_StdPeriph_Driver/src/stm32f4xx_dac.c ****   assert_param(IS_DAC_CHANNEL(DAC_Channel));
 1273              		.loc 1 581 0
 1274 000e 7B68     		ldr	r3, [r7, #4]
 1275 0010 002B     		cmp	r3, #0
 1276 0012 07D0     		beq	.L77
 1277              		.loc 1 581 0 is_stmt 0 discriminator 1
 1278 0014 7B68     		ldr	r3, [r7, #4]
 1279 0016 102B     		cmp	r3, #16
 1280 0018 04D0     		beq	.L77
 1281 001a 1048     		ldr	r0, .L82
 1282 001c 40F24521 		movw	r1, #581
 1283 0020 FFF7FEFF 		bl	assert_failed
 1284              	.L77:
 582:App/STM32F4-Discovery/Libraries/STM32F4xx_StdPeriph_Driver/src/stm32f4xx_dac.c ****   assert_param(IS_DAC_FLAG(DAC_FLAG));
 1285              		.loc 1 582 0 is_stmt 1
 1286 0024 3B68     		ldr	r3, [r7]
 1287 0026 B3F5005F 		cmp	r3, #8192
 1288 002a 04D0     		beq	.L78
 1289              		.loc 1 582 0 is_stmt 0 discriminator 1
 1290 002c 0B48     		ldr	r0, .L82
 1291 002e 40F24621 		movw	r1, #582
 1292 0032 FFF7FEFF 		bl	assert_failed
 1293              	.L78:
 583:App/STM32F4-Discovery/Libraries/STM32F4xx_StdPeriph_Driver/src/stm32f4xx_dac.c **** 
 584:App/STM32F4-Discovery/Libraries/STM32F4xx_StdPeriph_Driver/src/stm32f4xx_dac.c ****   /* Check the status of the specified DAC flag */
 585:App/STM32F4-Discovery/Libraries/STM32F4xx_StdPeriph_Driver/src/stm32f4xx_dac.c ****   if ((DAC->SR & (DAC_FLAG << DAC_Channel)) != (uint8_t)RESET)
 1294              		.loc 1 585 0 is_stmt 1
 1295 0036 0A4B     		ldr	r3, .L82+4
 1296 0038 5A6B     		ldr	r2, [r3, #52]
 1297 003a 7B68     		ldr	r3, [r7, #4]
 1298 003c 3968     		ldr	r1, [r7]
 1299 003e 01FA03F3 		lsl	r3, r1, r3
 1300 0042 1340     		ands	r3, r3, r2
 1301 0044 002B     		cmp	r3, #0
 1302 0046 02D0     		beq	.L79
 586:App/STM32F4-Discovery/Libraries/STM32F4xx_StdPeriph_Driver/src/stm32f4xx_dac.c ****   {
 587:App/STM32F4-Discovery/Libraries/STM32F4xx_StdPeriph_Driver/src/stm32f4xx_dac.c ****     /* DAC_FLAG is set */
 588:App/STM32F4-Discovery/Libraries/STM32F4xx_StdPeriph_Driver/src/stm32f4xx_dac.c ****     bitstatus = SET;
 1303              		.loc 1 588 0
 1304 0048 0123     		movs	r3, #1
 1305 004a FB73     		strb	r3, [r7, #15]
 1306 004c 01E0     		b	.L80
 1307              	.L79:
 589:App/STM32F4-Discovery/Libraries/STM32F4xx_StdPeriph_Driver/src/stm32f4xx_dac.c ****   }
 590:App/STM32F4-Discovery/Libraries/STM32F4xx_StdPeriph_Driver/src/stm32f4xx_dac.c ****   else
 591:App/STM32F4-Discovery/Libraries/STM32F4xx_StdPeriph_Driver/src/stm32f4xx_dac.c ****   {
 592:App/STM32F4-Discovery/Libraries/STM32F4xx_StdPeriph_Driver/src/stm32f4xx_dac.c ****     /* DAC_FLAG is reset */
 593:App/STM32F4-Discovery/Libraries/STM32F4xx_StdPeriph_Driver/src/stm32f4xx_dac.c ****     bitstatus = RESET;
 1308              		.loc 1 593 0
 1309 004e 0023     		movs	r3, #0
 1310 0050 FB73     		strb	r3, [r7, #15]
 1311              	.L80:
 594:App/STM32F4-Discovery/Libraries/STM32F4xx_StdPeriph_Driver/src/stm32f4xx_dac.c ****   }
 595:App/STM32F4-Discovery/Libraries/STM32F4xx_StdPeriph_Driver/src/stm32f4xx_dac.c ****   /* Return the DAC_FLAG status */
 596:App/STM32F4-Discovery/Libraries/STM32F4xx_StdPeriph_Driver/src/stm32f4xx_dac.c ****   return  bitstatus;
 1312              		.loc 1 596 0
 1313 0052 FB7B     		ldrb	r3, [r7, #15]	@ zero_extendqisi2
 597:App/STM32F4-Discovery/Libraries/STM32F4xx_StdPeriph_Driver/src/stm32f4xx_dac.c **** }
 1314              		.loc 1 597 0
 1315 0054 1846     		mov	r0, r3
 1316 0056 1037     		adds	r7, r7, #16
 1317 0058 BD46     		mov	sp, r7
 1318              		@ sp needed
 1319 005a 80BD     		pop	{r7, pc}
 1320              	.L83:
 1321              		.align	2
 1322              	.L82:
 1323 005c 00000000 		.word	.LC0
 1324 0060 00740040 		.word	1073771520
 1325              		.cfi_endproc
 1326              	.LFE123:
 1328              		.section	.text.DAC_ClearFlag,"ax",%progbits
 1329              		.align	2
 1330              		.global	DAC_ClearFlag
 1331              		.thumb
 1332              		.thumb_func
 1334              	DAC_ClearFlag:
 1335              	.LFB124:
 598:App/STM32F4-Discovery/Libraries/STM32F4xx_StdPeriph_Driver/src/stm32f4xx_dac.c **** 
 599:App/STM32F4-Discovery/Libraries/STM32F4xx_StdPeriph_Driver/src/stm32f4xx_dac.c **** /**
 600:App/STM32F4-Discovery/Libraries/STM32F4xx_StdPeriph_Driver/src/stm32f4xx_dac.c ****   * @brief  Clears the DAC channel's pending flags.
 601:App/STM32F4-Discovery/Libraries/STM32F4xx_StdPeriph_Driver/src/stm32f4xx_dac.c ****   * @param  DAC_Channel: The selected DAC channel. 
 602:App/STM32F4-Discovery/Libraries/STM32F4xx_StdPeriph_Driver/src/stm32f4xx_dac.c ****   *          This parameter can be one of the following values:
 603:App/STM32F4-Discovery/Libraries/STM32F4xx_StdPeriph_Driver/src/stm32f4xx_dac.c ****   *            @arg DAC_Channel_1: DAC Channel1 selected
 604:App/STM32F4-Discovery/Libraries/STM32F4xx_StdPeriph_Driver/src/stm32f4xx_dac.c ****   *            @arg DAC_Channel_2: DAC Channel2 selected
 605:App/STM32F4-Discovery/Libraries/STM32F4xx_StdPeriph_Driver/src/stm32f4xx_dac.c ****   * @param  DAC_FLAG: specifies the flag to clear. 
 606:App/STM32F4-Discovery/Libraries/STM32F4xx_StdPeriph_Driver/src/stm32f4xx_dac.c ****   *          This parameter can be of the following value:
 607:App/STM32F4-Discovery/Libraries/STM32F4xx_StdPeriph_Driver/src/stm32f4xx_dac.c ****   *            @arg DAC_FLAG_DMAUDR: DMA underrun flag 
 608:App/STM32F4-Discovery/Libraries/STM32F4xx_StdPeriph_Driver/src/stm32f4xx_dac.c ****   * @note   The DMA underrun occurs when a second external trigger arrives before the 
 609:App/STM32F4-Discovery/Libraries/STM32F4xx_StdPeriph_Driver/src/stm32f4xx_dac.c ****   *         acknowledgement for the first external trigger is received (first request).            
 610:App/STM32F4-Discovery/Libraries/STM32F4xx_StdPeriph_Driver/src/stm32f4xx_dac.c ****   * @retval None
 611:App/STM32F4-Discovery/Libraries/STM32F4xx_StdPeriph_Driver/src/stm32f4xx_dac.c ****   */
 612:App/STM32F4-Discovery/Libraries/STM32F4xx_StdPeriph_Driver/src/stm32f4xx_dac.c **** void DAC_ClearFlag(uint32_t DAC_Channel, uint32_t DAC_FLAG)
 613:App/STM32F4-Discovery/Libraries/STM32F4xx_StdPeriph_Driver/src/stm32f4xx_dac.c **** {
 1336              		.loc 1 613 0
 1337              		.cfi_startproc
 1338              		@ args = 0, pretend = 0, frame = 8
 1339              		@ frame_needed = 1, uses_anonymous_args = 0
 1340 0000 80B5     		push	{r7, lr}
 1341              	.LCFI41:
 1342              		.cfi_def_cfa_offset 8
 1343              		.cfi_offset 7, -8
 1344              		.cfi_offset 14, -4
 1345 0002 82B0     		sub	sp, sp, #8
 1346              	.LCFI42:
 1347              		.cfi_def_cfa_offset 16
 1348 0004 00AF     		add	r7, sp, #0
 1349              	.LCFI43:
 1350              		.cfi_def_cfa_register 7
 1351 0006 7860     		str	r0, [r7, #4]
 1352 0008 3960     		str	r1, [r7]
 614:App/STM32F4-Discovery/Libraries/STM32F4xx_StdPeriph_Driver/src/stm32f4xx_dac.c ****   /* Check the parameters */
 615:App/STM32F4-Discovery/Libraries/STM32F4xx_StdPeriph_Driver/src/stm32f4xx_dac.c ****   assert_param(IS_DAC_CHANNEL(DAC_Channel));
 1353              		.loc 1 615 0
 1354 000a 7B68     		ldr	r3, [r7, #4]
 1355 000c 002B     		cmp	r3, #0
 1356 000e 07D0     		beq	.L85
 1357              		.loc 1 615 0 is_stmt 0 discriminator 1
 1358 0010 7B68     		ldr	r3, [r7, #4]
 1359 0012 102B     		cmp	r3, #16
 1360 0014 04D0     		beq	.L85
 1361 0016 0B48     		ldr	r0, .L87
 1362 0018 40F26721 		movw	r1, #615
 1363 001c FFF7FEFF 		bl	assert_failed
 1364              	.L85:
 616:App/STM32F4-Discovery/Libraries/STM32F4xx_StdPeriph_Driver/src/stm32f4xx_dac.c ****   assert_param(IS_DAC_FLAG(DAC_FLAG));
 1365              		.loc 1 616 0 is_stmt 1
 1366 0020 3B68     		ldr	r3, [r7]
 1367 0022 B3F5005F 		cmp	r3, #8192
 1368 0026 04D0     		beq	.L86
 1369              		.loc 1 616 0 is_stmt 0 discriminator 1
 1370 0028 0648     		ldr	r0, .L87
 1371 002a 4FF41A71 		mov	r1, #616
 1372 002e FFF7FEFF 		bl	assert_failed
 1373              	.L86:
 617:App/STM32F4-Discovery/Libraries/STM32F4xx_StdPeriph_Driver/src/stm32f4xx_dac.c **** 
 618:App/STM32F4-Discovery/Libraries/STM32F4xx_StdPeriph_Driver/src/stm32f4xx_dac.c ****   /* Clear the selected DAC flags */
 619:App/STM32F4-Discovery/Libraries/STM32F4xx_StdPeriph_Driver/src/stm32f4xx_dac.c ****   DAC->SR = (DAC_FLAG << DAC_Channel);
 1374              		.loc 1 619 0 is_stmt 1
 1375 0032 054B     		ldr	r3, .L87+4
 1376 0034 7A68     		ldr	r2, [r7, #4]
 1377 0036 3968     		ldr	r1, [r7]
 1378 0038 01FA02F2 		lsl	r2, r1, r2
 1379 003c 5A63     		str	r2, [r3, #52]
 620:App/STM32F4-Discovery/Libraries/STM32F4xx_StdPeriph_Driver/src/stm32f4xx_dac.c **** }
 1380              		.loc 1 620 0
 1381 003e 0837     		adds	r7, r7, #8
 1382 0040 BD46     		mov	sp, r7
 1383              		@ sp needed
 1384 0042 80BD     		pop	{r7, pc}
 1385              	.L88:
 1386              		.align	2
 1387              	.L87:
 1388 0044 00000000 		.word	.LC0
 1389 0048 00740040 		.word	1073771520
 1390              		.cfi_endproc
 1391              	.LFE124:
 1393              		.section	.text.DAC_GetITStatus,"ax",%progbits
 1394              		.align	2
 1395              		.global	DAC_GetITStatus
 1396              		.thumb
 1397              		.thumb_func
 1399              	DAC_GetITStatus:
 1400              	.LFB125:
 621:App/STM32F4-Discovery/Libraries/STM32F4xx_StdPeriph_Driver/src/stm32f4xx_dac.c **** 
 622:App/STM32F4-Discovery/Libraries/STM32F4xx_StdPeriph_Driver/src/stm32f4xx_dac.c **** /**
 623:App/STM32F4-Discovery/Libraries/STM32F4xx_StdPeriph_Driver/src/stm32f4xx_dac.c ****   * @brief  Checks whether the specified DAC interrupt has occurred or not.
 624:App/STM32F4-Discovery/Libraries/STM32F4xx_StdPeriph_Driver/src/stm32f4xx_dac.c ****   * @param  DAC_Channel: The selected DAC channel. 
 625:App/STM32F4-Discovery/Libraries/STM32F4xx_StdPeriph_Driver/src/stm32f4xx_dac.c ****   *          This parameter can be one of the following values:
 626:App/STM32F4-Discovery/Libraries/STM32F4xx_StdPeriph_Driver/src/stm32f4xx_dac.c ****   *            @arg DAC_Channel_1: DAC Channel1 selected
 627:App/STM32F4-Discovery/Libraries/STM32F4xx_StdPeriph_Driver/src/stm32f4xx_dac.c ****   *            @arg DAC_Channel_2: DAC Channel2 selected
 628:App/STM32F4-Discovery/Libraries/STM32F4xx_StdPeriph_Driver/src/stm32f4xx_dac.c ****   * @param  DAC_IT: specifies the DAC interrupt source to check. 
 629:App/STM32F4-Discovery/Libraries/STM32F4xx_StdPeriph_Driver/src/stm32f4xx_dac.c ****   *          This parameter can be the following values:
 630:App/STM32F4-Discovery/Libraries/STM32F4xx_StdPeriph_Driver/src/stm32f4xx_dac.c ****   *            @arg DAC_IT_DMAUDR: DMA underrun interrupt mask
 631:App/STM32F4-Discovery/Libraries/STM32F4xx_StdPeriph_Driver/src/stm32f4xx_dac.c ****   * @note   The DMA underrun occurs when a second external trigger arrives before the 
 632:App/STM32F4-Discovery/Libraries/STM32F4xx_StdPeriph_Driver/src/stm32f4xx_dac.c ****   *         acknowledgement for the first external trigger is received (first request).
 633:App/STM32F4-Discovery/Libraries/STM32F4xx_StdPeriph_Driver/src/stm32f4xx_dac.c ****   * @retval The new state of DAC_IT (SET or RESET).
 634:App/STM32F4-Discovery/Libraries/STM32F4xx_StdPeriph_Driver/src/stm32f4xx_dac.c ****   */
 635:App/STM32F4-Discovery/Libraries/STM32F4xx_StdPeriph_Driver/src/stm32f4xx_dac.c **** ITStatus DAC_GetITStatus(uint32_t DAC_Channel, uint32_t DAC_IT)
 636:App/STM32F4-Discovery/Libraries/STM32F4xx_StdPeriph_Driver/src/stm32f4xx_dac.c **** {
 1401              		.loc 1 636 0
 1402              		.cfi_startproc
 1403              		@ args = 0, pretend = 0, frame = 16
 1404              		@ frame_needed = 1, uses_anonymous_args = 0
 1405 0000 80B5     		push	{r7, lr}
 1406              	.LCFI44:
 1407              		.cfi_def_cfa_offset 8
 1408              		.cfi_offset 7, -8
 1409              		.cfi_offset 14, -4
 1410 0002 84B0     		sub	sp, sp, #16
 1411              	.LCFI45:
 1412              		.cfi_def_cfa_offset 24
 1413 0004 00AF     		add	r7, sp, #0
 1414              	.LCFI46:
 1415              		.cfi_def_cfa_register 7
 1416 0006 7860     		str	r0, [r7, #4]
 1417 0008 3960     		str	r1, [r7]
 637:App/STM32F4-Discovery/Libraries/STM32F4xx_StdPeriph_Driver/src/stm32f4xx_dac.c ****   ITStatus bitstatus = RESET;
 1418              		.loc 1 637 0
 1419 000a 0023     		movs	r3, #0
 1420 000c FB73     		strb	r3, [r7, #15]
 638:App/STM32F4-Discovery/Libraries/STM32F4xx_StdPeriph_Driver/src/stm32f4xx_dac.c ****   uint32_t enablestatus = 0;
 1421              		.loc 1 638 0
 1422 000e 0023     		movs	r3, #0
 1423 0010 BB60     		str	r3, [r7, #8]
 639:App/STM32F4-Discovery/Libraries/STM32F4xx_StdPeriph_Driver/src/stm32f4xx_dac.c ****   
 640:App/STM32F4-Discovery/Libraries/STM32F4xx_StdPeriph_Driver/src/stm32f4xx_dac.c ****   /* Check the parameters */
 641:App/STM32F4-Discovery/Libraries/STM32F4xx_StdPeriph_Driver/src/stm32f4xx_dac.c ****   assert_param(IS_DAC_CHANNEL(DAC_Channel));
 1424              		.loc 1 641 0
 1425 0012 7B68     		ldr	r3, [r7, #4]
 1426 0014 002B     		cmp	r3, #0
 1427 0016 07D0     		beq	.L90
 1428              		.loc 1 641 0 is_stmt 0 discriminator 1
 1429 0018 7B68     		ldr	r3, [r7, #4]
 1430 001a 102B     		cmp	r3, #16
 1431 001c 04D0     		beq	.L90
 1432 001e 1648     		ldr	r0, .L95
 1433 0020 40F28121 		movw	r1, #641
 1434 0024 FFF7FEFF 		bl	assert_failed
 1435              	.L90:
 642:App/STM32F4-Discovery/Libraries/STM32F4xx_StdPeriph_Driver/src/stm32f4xx_dac.c ****   assert_param(IS_DAC_IT(DAC_IT));
 1436              		.loc 1 642 0 is_stmt 1
 1437 0028 3B68     		ldr	r3, [r7]
 1438 002a B3F5005F 		cmp	r3, #8192
 1439 002e 04D0     		beq	.L91
 1440              		.loc 1 642 0 is_stmt 0 discriminator 1
 1441 0030 1148     		ldr	r0, .L95
 1442 0032 40F28221 		movw	r1, #642
 1443 0036 FFF7FEFF 		bl	assert_failed
 1444              	.L91:
 643:App/STM32F4-Discovery/Libraries/STM32F4xx_StdPeriph_Driver/src/stm32f4xx_dac.c **** 
 644:App/STM32F4-Discovery/Libraries/STM32F4xx_StdPeriph_Driver/src/stm32f4xx_dac.c ****   /* Get the DAC_IT enable bit status */
 645:App/STM32F4-Discovery/Libraries/STM32F4xx_StdPeriph_Driver/src/stm32f4xx_dac.c ****   enablestatus = (DAC->CR & (DAC_IT << DAC_Channel)) ;
 1445              		.loc 1 645 0 is_stmt 1
 1446 003a 104B     		ldr	r3, .L95+4
 1447 003c 1A68     		ldr	r2, [r3]
 1448 003e 7B68     		ldr	r3, [r7, #4]
 1449 0040 3968     		ldr	r1, [r7]
 1450 0042 01FA03F3 		lsl	r3, r1, r3
 1451 0046 1340     		ands	r3, r3, r2
 1452 0048 BB60     		str	r3, [r7, #8]
 646:App/STM32F4-Discovery/Libraries/STM32F4xx_StdPeriph_Driver/src/stm32f4xx_dac.c ****   
 647:App/STM32F4-Discovery/Libraries/STM32F4xx_StdPeriph_Driver/src/stm32f4xx_dac.c ****   /* Check the status of the specified DAC interrupt */
 648:App/STM32F4-Discovery/Libraries/STM32F4xx_StdPeriph_Driver/src/stm32f4xx_dac.c ****   if (((DAC->SR & (DAC_IT << DAC_Channel)) != (uint32_t)RESET) && enablestatus)
 1453              		.loc 1 648 0
 1454 004a 0C4B     		ldr	r3, .L95+4
 1455 004c 5A6B     		ldr	r2, [r3, #52]
 1456 004e 7B68     		ldr	r3, [r7, #4]
 1457 0050 3968     		ldr	r1, [r7]
 1458 0052 01FA03F3 		lsl	r3, r1, r3
 1459 0056 1340     		ands	r3, r3, r2
 1460 0058 002B     		cmp	r3, #0
 1461 005a 05D0     		beq	.L92
 1462              		.loc 1 648 0 is_stmt 0 discriminator 1
 1463 005c BB68     		ldr	r3, [r7, #8]
 1464 005e 002B     		cmp	r3, #0
 1465 0060 02D0     		beq	.L92
 649:App/STM32F4-Discovery/Libraries/STM32F4xx_StdPeriph_Driver/src/stm32f4xx_dac.c ****   {
 650:App/STM32F4-Discovery/Libraries/STM32F4xx_StdPeriph_Driver/src/stm32f4xx_dac.c ****     /* DAC_IT is set */
 651:App/STM32F4-Discovery/Libraries/STM32F4xx_StdPeriph_Driver/src/stm32f4xx_dac.c ****     bitstatus = SET;
 1466              		.loc 1 651 0 is_stmt 1
 1467 0062 0123     		movs	r3, #1
 1468 0064 FB73     		strb	r3, [r7, #15]
 1469 0066 01E0     		b	.L93
 1470              	.L92:
 652:App/STM32F4-Discovery/Libraries/STM32F4xx_StdPeriph_Driver/src/stm32f4xx_dac.c ****   }
 653:App/STM32F4-Discovery/Libraries/STM32F4xx_StdPeriph_Driver/src/stm32f4xx_dac.c ****   else
 654:App/STM32F4-Discovery/Libraries/STM32F4xx_StdPeriph_Driver/src/stm32f4xx_dac.c ****   {
 655:App/STM32F4-Discovery/Libraries/STM32F4xx_StdPeriph_Driver/src/stm32f4xx_dac.c ****     /* DAC_IT is reset */
 656:App/STM32F4-Discovery/Libraries/STM32F4xx_StdPeriph_Driver/src/stm32f4xx_dac.c ****     bitstatus = RESET;
 1471              		.loc 1 656 0
 1472 0068 0023     		movs	r3, #0
 1473 006a FB73     		strb	r3, [r7, #15]
 1474              	.L93:
 657:App/STM32F4-Discovery/Libraries/STM32F4xx_StdPeriph_Driver/src/stm32f4xx_dac.c ****   }
 658:App/STM32F4-Discovery/Libraries/STM32F4xx_StdPeriph_Driver/src/stm32f4xx_dac.c ****   /* Return the DAC_IT status */
 659:App/STM32F4-Discovery/Libraries/STM32F4xx_StdPeriph_Driver/src/stm32f4xx_dac.c ****   return  bitstatus;
 1475              		.loc 1 659 0
 1476 006c FB7B     		ldrb	r3, [r7, #15]	@ zero_extendqisi2
 660:App/STM32F4-Discovery/Libraries/STM32F4xx_StdPeriph_Driver/src/stm32f4xx_dac.c **** }
 1477              		.loc 1 660 0
 1478 006e 1846     		mov	r0, r3
 1479 0070 1037     		adds	r7, r7, #16
 1480 0072 BD46     		mov	sp, r7
 1481              		@ sp needed
 1482 0074 80BD     		pop	{r7, pc}
 1483              	.L96:
 1484 0076 00BF     		.align	2
 1485              	.L95:
 1486 0078 00000000 		.word	.LC0
 1487 007c 00740040 		.word	1073771520
 1488              		.cfi_endproc
 1489              	.LFE125:
 1491              		.section	.text.DAC_ClearITPendingBit,"ax",%progbits
 1492              		.align	2
 1493              		.global	DAC_ClearITPendingBit
 1494              		.thumb
 1495              		.thumb_func
 1497              	DAC_ClearITPendingBit:
 1498              	.LFB126:
 661:App/STM32F4-Discovery/Libraries/STM32F4xx_StdPeriph_Driver/src/stm32f4xx_dac.c **** 
 662:App/STM32F4-Discovery/Libraries/STM32F4xx_StdPeriph_Driver/src/stm32f4xx_dac.c **** /**
 663:App/STM32F4-Discovery/Libraries/STM32F4xx_StdPeriph_Driver/src/stm32f4xx_dac.c ****   * @brief  Clears the DAC channel's interrupt pending bits.
 664:App/STM32F4-Discovery/Libraries/STM32F4xx_StdPeriph_Driver/src/stm32f4xx_dac.c ****   * @param  DAC_Channel: The selected DAC channel. 
 665:App/STM32F4-Discovery/Libraries/STM32F4xx_StdPeriph_Driver/src/stm32f4xx_dac.c ****   *          This parameter can be one of the following values:
 666:App/STM32F4-Discovery/Libraries/STM32F4xx_StdPeriph_Driver/src/stm32f4xx_dac.c ****   *            @arg DAC_Channel_1: DAC Channel1 selected
 667:App/STM32F4-Discovery/Libraries/STM32F4xx_StdPeriph_Driver/src/stm32f4xx_dac.c ****   *            @arg DAC_Channel_2: DAC Channel2 selected
 668:App/STM32F4-Discovery/Libraries/STM32F4xx_StdPeriph_Driver/src/stm32f4xx_dac.c ****   * @param  DAC_IT: specifies the DAC interrupt pending bit to clear.
 669:App/STM32F4-Discovery/Libraries/STM32F4xx_StdPeriph_Driver/src/stm32f4xx_dac.c ****   *          This parameter can be the following values:
 670:App/STM32F4-Discovery/Libraries/STM32F4xx_StdPeriph_Driver/src/stm32f4xx_dac.c ****   *            @arg DAC_IT_DMAUDR: DMA underrun interrupt mask                         
 671:App/STM32F4-Discovery/Libraries/STM32F4xx_StdPeriph_Driver/src/stm32f4xx_dac.c ****   * @note   The DMA underrun occurs when a second external trigger arrives before the 
 672:App/STM32F4-Discovery/Libraries/STM32F4xx_StdPeriph_Driver/src/stm32f4xx_dac.c ****   *         acknowledgement for the first external trigger is received (first request).            
 673:App/STM32F4-Discovery/Libraries/STM32F4xx_StdPeriph_Driver/src/stm32f4xx_dac.c ****   * @retval None
 674:App/STM32F4-Discovery/Libraries/STM32F4xx_StdPeriph_Driver/src/stm32f4xx_dac.c ****   */
 675:App/STM32F4-Discovery/Libraries/STM32F4xx_StdPeriph_Driver/src/stm32f4xx_dac.c **** void DAC_ClearITPendingBit(uint32_t DAC_Channel, uint32_t DAC_IT)
 676:App/STM32F4-Discovery/Libraries/STM32F4xx_StdPeriph_Driver/src/stm32f4xx_dac.c **** {
 1499              		.loc 1 676 0
 1500              		.cfi_startproc
 1501              		@ args = 0, pretend = 0, frame = 8
 1502              		@ frame_needed = 1, uses_anonymous_args = 0
 1503 0000 80B5     		push	{r7, lr}
 1504              	.LCFI47:
 1505              		.cfi_def_cfa_offset 8
 1506              		.cfi_offset 7, -8
 1507              		.cfi_offset 14, -4
 1508 0002 82B0     		sub	sp, sp, #8
 1509              	.LCFI48:
 1510              		.cfi_def_cfa_offset 16
 1511 0004 00AF     		add	r7, sp, #0
 1512              	.LCFI49:
 1513              		.cfi_def_cfa_register 7
 1514 0006 7860     		str	r0, [r7, #4]
 1515 0008 3960     		str	r1, [r7]
 677:App/STM32F4-Discovery/Libraries/STM32F4xx_StdPeriph_Driver/src/stm32f4xx_dac.c ****   /* Check the parameters */
 678:App/STM32F4-Discovery/Libraries/STM32F4xx_StdPeriph_Driver/src/stm32f4xx_dac.c ****   assert_param(IS_DAC_CHANNEL(DAC_Channel));
 1516              		.loc 1 678 0
 1517 000a 7B68     		ldr	r3, [r7, #4]
 1518 000c 002B     		cmp	r3, #0
 1519 000e 07D0     		beq	.L98
 1520              		.loc 1 678 0 is_stmt 0 discriminator 1
 1521 0010 7B68     		ldr	r3, [r7, #4]
 1522 0012 102B     		cmp	r3, #16
 1523 0014 04D0     		beq	.L98
 1524 0016 0B48     		ldr	r0, .L100
 1525 0018 40F2A621 		movw	r1, #678
 1526 001c FFF7FEFF 		bl	assert_failed
 1527              	.L98:
 679:App/STM32F4-Discovery/Libraries/STM32F4xx_StdPeriph_Driver/src/stm32f4xx_dac.c ****   assert_param(IS_DAC_IT(DAC_IT)); 
 1528              		.loc 1 679 0 is_stmt 1
 1529 0020 3B68     		ldr	r3, [r7]
 1530 0022 B3F5005F 		cmp	r3, #8192
 1531 0026 04D0     		beq	.L99
 1532              		.loc 1 679 0 is_stmt 0 discriminator 1
 1533 0028 0648     		ldr	r0, .L100
 1534 002a 40F2A721 		movw	r1, #679
 1535 002e FFF7FEFF 		bl	assert_failed
 1536              	.L99:
 680:App/STM32F4-Discovery/Libraries/STM32F4xx_StdPeriph_Driver/src/stm32f4xx_dac.c **** 
 681:App/STM32F4-Discovery/Libraries/STM32F4xx_StdPeriph_Driver/src/stm32f4xx_dac.c ****   /* Clear the selected DAC interrupt pending bits */
 682:App/STM32F4-Discovery/Libraries/STM32F4xx_StdPeriph_Driver/src/stm32f4xx_dac.c ****   DAC->SR = (DAC_IT << DAC_Channel);
 1537              		.loc 1 682 0 is_stmt 1
 1538 0032 054B     		ldr	r3, .L100+4
 1539 0034 7A68     		ldr	r2, [r7, #4]
 1540 0036 3968     		ldr	r1, [r7]
 1541 0038 01FA02F2 		lsl	r2, r1, r2
 1542 003c 5A63     		str	r2, [r3, #52]
 683:App/STM32F4-Discovery/Libraries/STM32F4xx_StdPeriph_Driver/src/stm32f4xx_dac.c **** }
 1543              		.loc 1 683 0
 1544 003e 0837     		adds	r7, r7, #8
 1545 0040 BD46     		mov	sp, r7
 1546              		@ sp needed
 1547 0042 80BD     		pop	{r7, pc}
 1548              	.L101:
 1549              		.align	2
 1550              	.L100:
 1551 0044 00000000 		.word	.LC0
 1552 0048 00740040 		.word	1073771520
 1553              		.cfi_endproc
 1554              	.LFE126:
 1556              		.text
 1557              	.Letext0:
 1558              		.file 2 "/home/shihyu/data/STM32F4/gcc-arm-none-eabi-4_8-2013q4/arm-none-eabi/include/stdint.h"
 1559              		.file 3 "App/STM32F4-Discovery/Libraries/CMSIS/ST/STM32F4xx/Include/stm32f4xx.h"
 1560              		.file 4 "App/STM32F4-Discovery/Libraries/STM32F4xx_StdPeriph_Driver/inc/stm32f4xx_dac.h"
 1561              		.file 5 "App/STM32F4-Discovery/Libraries/CMSIS/Include/core_cm4.h"