   1              		.syntax unified
   2              		.cpu cortex-m4
   3              		.eabi_attribute 27, 3
   4              		.fpu fpv4-sp-d16
   5              		.eabi_attribute 20, 1
   6              		.eabi_attribute 21, 1
   7              		.eabi_attribute 23, 3
   8              		.eabi_attribute 24, 1
   9              		.eabi_attribute 25, 1
  10              		.eabi_attribute 26, 1
  11              		.eabi_attribute 30, 6
  12              		.eabi_attribute 34, 1
  13              		.eabi_attribute 18, 4
  14              		.thumb
  15              		.file	"stm32f4xx_hash_md5.c"
  16              		.text
  17              	.Ltext0:
  18              		.cfi_sections	.debug_frame
  19              		.section	.text.HASH_MD5,"ax",%progbits
  20              		.align	2
  21              		.global	HASH_MD5
  22              		.thumb
  23              		.thumb_func
  25              	HASH_MD5:
  26              	.LFB110:
  27              		.file 1 "App/STM32F4-Discovery/Libraries/STM32F4xx_StdPeriph_Driver/src/stm32f4xx_hash_md5.c"
   1:App/STM32F4-Discovery/Libraries/STM32F4xx_StdPeriph_Driver/src/stm32f4xx_hash_md5.c **** /**
   2:App/STM32F4-Discovery/Libraries/STM32F4xx_StdPeriph_Driver/src/stm32f4xx_hash_md5.c ****   ******************************************************************************
   3:App/STM32F4-Discovery/Libraries/STM32F4xx_StdPeriph_Driver/src/stm32f4xx_hash_md5.c ****   * @file    stm32f4xx_hash_md5.c
   4:App/STM32F4-Discovery/Libraries/STM32F4xx_StdPeriph_Driver/src/stm32f4xx_hash_md5.c ****   * @author  MCD Application Team
   5:App/STM32F4-Discovery/Libraries/STM32F4xx_StdPeriph_Driver/src/stm32f4xx_hash_md5.c ****   * @version V1.0.0
   6:App/STM32F4-Discovery/Libraries/STM32F4xx_StdPeriph_Driver/src/stm32f4xx_hash_md5.c ****   * @date    30-September-2011
   7:App/STM32F4-Discovery/Libraries/STM32F4xx_StdPeriph_Driver/src/stm32f4xx_hash_md5.c ****   * @brief   This file provides high level functions to compute the HASH MD5 and
   8:App/STM32F4-Discovery/Libraries/STM32F4xx_StdPeriph_Driver/src/stm32f4xx_hash_md5.c ****   *          HMAC MD5 Digest of an input message.
   9:App/STM32F4-Discovery/Libraries/STM32F4xx_StdPeriph_Driver/src/stm32f4xx_hash_md5.c ****   *          It uses the stm32f4xx_hash.c/.h drivers to access the STM32F4xx HASH
  10:App/STM32F4-Discovery/Libraries/STM32F4xx_StdPeriph_Driver/src/stm32f4xx_hash_md5.c ****   *          peripheral.
  11:App/STM32F4-Discovery/Libraries/STM32F4xx_StdPeriph_Driver/src/stm32f4xx_hash_md5.c ****   *
  12:App/STM32F4-Discovery/Libraries/STM32F4xx_StdPeriph_Driver/src/stm32f4xx_hash_md5.c ****   *  @verbatim
  13:App/STM32F4-Discovery/Libraries/STM32F4xx_StdPeriph_Driver/src/stm32f4xx_hash_md5.c ****   *    
  14:App/STM32F4-Discovery/Libraries/STM32F4xx_StdPeriph_Driver/src/stm32f4xx_hash_md5.c ****   *          ===================================================================
  15:App/STM32F4-Discovery/Libraries/STM32F4xx_StdPeriph_Driver/src/stm32f4xx_hash_md5.c ****   *                                   How to use this driver
  16:App/STM32F4-Discovery/Libraries/STM32F4xx_StdPeriph_Driver/src/stm32f4xx_hash_md5.c ****   *          ===================================================================
  17:App/STM32F4-Discovery/Libraries/STM32F4xx_StdPeriph_Driver/src/stm32f4xx_hash_md5.c ****   *          1. Enable The HASH controller clock using 
  18:App/STM32F4-Discovery/Libraries/STM32F4xx_StdPeriph_Driver/src/stm32f4xx_hash_md5.c ****   *            RCC_AHB2PeriphClockCmd(RCC_AHB2Periph_HASH, ENABLE); function.
  19:App/STM32F4-Discovery/Libraries/STM32F4xx_StdPeriph_Driver/src/stm32f4xx_hash_md5.c ****   *
  20:App/STM32F4-Discovery/Libraries/STM32F4xx_StdPeriph_Driver/src/stm32f4xx_hash_md5.c ****   *          2. Calculate the HASH MD5 Digest using HASH_MD5() function.
  21:App/STM32F4-Discovery/Libraries/STM32F4xx_StdPeriph_Driver/src/stm32f4xx_hash_md5.c ****   *
  22:App/STM32F4-Discovery/Libraries/STM32F4xx_StdPeriph_Driver/src/stm32f4xx_hash_md5.c ****   *          3. Calculate the HMAC MD5 Digest using HMAC_MD5() function.
  23:App/STM32F4-Discovery/Libraries/STM32F4xx_StdPeriph_Driver/src/stm32f4xx_hash_md5.c ****   *
  24:App/STM32F4-Discovery/Libraries/STM32F4xx_StdPeriph_Driver/src/stm32f4xx_hash_md5.c ****   *  @endverbatim
  25:App/STM32F4-Discovery/Libraries/STM32F4xx_StdPeriph_Driver/src/stm32f4xx_hash_md5.c ****   *
  26:App/STM32F4-Discovery/Libraries/STM32F4xx_StdPeriph_Driver/src/stm32f4xx_hash_md5.c ****   ******************************************************************************
  27:App/STM32F4-Discovery/Libraries/STM32F4xx_StdPeriph_Driver/src/stm32f4xx_hash_md5.c ****   * @attention
  28:App/STM32F4-Discovery/Libraries/STM32F4xx_StdPeriph_Driver/src/stm32f4xx_hash_md5.c ****   *
  29:App/STM32F4-Discovery/Libraries/STM32F4xx_StdPeriph_Driver/src/stm32f4xx_hash_md5.c ****   * THE PRESENT FIRMWARE WHICH IS FOR GUIDANCE ONLY AIMS AT PROVIDING CUSTOMERS
  30:App/STM32F4-Discovery/Libraries/STM32F4xx_StdPeriph_Driver/src/stm32f4xx_hash_md5.c ****   * WITH CODING INFORMATION REGARDING THEIR PRODUCTS IN ORDER FOR THEM TO SAVE
  31:App/STM32F4-Discovery/Libraries/STM32F4xx_StdPeriph_Driver/src/stm32f4xx_hash_md5.c ****   * TIME. AS A RESULT, STMICROELECTRONICS SHALL NOT BE HELD LIABLE FOR ANY
  32:App/STM32F4-Discovery/Libraries/STM32F4xx_StdPeriph_Driver/src/stm32f4xx_hash_md5.c ****   * DIRECT, INDIRECT OR CONSEQUENTIAL DAMAGES WITH RESPECT TO ANY CLAIMS ARISING
  33:App/STM32F4-Discovery/Libraries/STM32F4xx_StdPeriph_Driver/src/stm32f4xx_hash_md5.c ****   * FROM THE CONTENT OF SUCH FIRMWARE AND/OR THE USE MADE BY CUSTOMERS OF THE
  34:App/STM32F4-Discovery/Libraries/STM32F4xx_StdPeriph_Driver/src/stm32f4xx_hash_md5.c ****   * CODING INFORMATION CONTAINED HEREIN IN CONNECTION WITH THEIR PRODUCTS.
  35:App/STM32F4-Discovery/Libraries/STM32F4xx_StdPeriph_Driver/src/stm32f4xx_hash_md5.c ****   *
  36:App/STM32F4-Discovery/Libraries/STM32F4xx_StdPeriph_Driver/src/stm32f4xx_hash_md5.c ****   * <h2><center>&copy; COPYRIGHT 2011 STMicroelectronics</center></h2>
  37:App/STM32F4-Discovery/Libraries/STM32F4xx_StdPeriph_Driver/src/stm32f4xx_hash_md5.c ****   ******************************************************************************
  38:App/STM32F4-Discovery/Libraries/STM32F4xx_StdPeriph_Driver/src/stm32f4xx_hash_md5.c ****   */
  39:App/STM32F4-Discovery/Libraries/STM32F4xx_StdPeriph_Driver/src/stm32f4xx_hash_md5.c **** 
  40:App/STM32F4-Discovery/Libraries/STM32F4xx_StdPeriph_Driver/src/stm32f4xx_hash_md5.c **** /* Includes ------------------------------------------------------------------*/
  41:App/STM32F4-Discovery/Libraries/STM32F4xx_StdPeriph_Driver/src/stm32f4xx_hash_md5.c **** #include "stm32f4xx_hash.h"
  42:App/STM32F4-Discovery/Libraries/STM32F4xx_StdPeriph_Driver/src/stm32f4xx_hash_md5.c **** 
  43:App/STM32F4-Discovery/Libraries/STM32F4xx_StdPeriph_Driver/src/stm32f4xx_hash_md5.c **** /** @addtogroup STM32F4xx_StdPeriph_Driver
  44:App/STM32F4-Discovery/Libraries/STM32F4xx_StdPeriph_Driver/src/stm32f4xx_hash_md5.c ****   * @{
  45:App/STM32F4-Discovery/Libraries/STM32F4xx_StdPeriph_Driver/src/stm32f4xx_hash_md5.c ****   */
  46:App/STM32F4-Discovery/Libraries/STM32F4xx_StdPeriph_Driver/src/stm32f4xx_hash_md5.c **** 
  47:App/STM32F4-Discovery/Libraries/STM32F4xx_StdPeriph_Driver/src/stm32f4xx_hash_md5.c **** /** @defgroup HASH 
  48:App/STM32F4-Discovery/Libraries/STM32F4xx_StdPeriph_Driver/src/stm32f4xx_hash_md5.c ****   * @brief HASH driver modules
  49:App/STM32F4-Discovery/Libraries/STM32F4xx_StdPeriph_Driver/src/stm32f4xx_hash_md5.c ****   * @{
  50:App/STM32F4-Discovery/Libraries/STM32F4xx_StdPeriph_Driver/src/stm32f4xx_hash_md5.c ****   */
  51:App/STM32F4-Discovery/Libraries/STM32F4xx_StdPeriph_Driver/src/stm32f4xx_hash_md5.c **** 
  52:App/STM32F4-Discovery/Libraries/STM32F4xx_StdPeriph_Driver/src/stm32f4xx_hash_md5.c **** /* Private typedef -----------------------------------------------------------*/
  53:App/STM32F4-Discovery/Libraries/STM32F4xx_StdPeriph_Driver/src/stm32f4xx_hash_md5.c **** /* Private define ------------------------------------------------------------*/
  54:App/STM32F4-Discovery/Libraries/STM32F4xx_StdPeriph_Driver/src/stm32f4xx_hash_md5.c **** #define MD5BUSY_TIMEOUT    ((uint32_t) 0x00010000)
  55:App/STM32F4-Discovery/Libraries/STM32F4xx_StdPeriph_Driver/src/stm32f4xx_hash_md5.c **** 
  56:App/STM32F4-Discovery/Libraries/STM32F4xx_StdPeriph_Driver/src/stm32f4xx_hash_md5.c **** /* Private macro -------------------------------------------------------------*/
  57:App/STM32F4-Discovery/Libraries/STM32F4xx_StdPeriph_Driver/src/stm32f4xx_hash_md5.c **** /* Private variables ---------------------------------------------------------*/
  58:App/STM32F4-Discovery/Libraries/STM32F4xx_StdPeriph_Driver/src/stm32f4xx_hash_md5.c **** /* Private function prototypes -----------------------------------------------*/
  59:App/STM32F4-Discovery/Libraries/STM32F4xx_StdPeriph_Driver/src/stm32f4xx_hash_md5.c **** /* Private functions ---------------------------------------------------------*/
  60:App/STM32F4-Discovery/Libraries/STM32F4xx_StdPeriph_Driver/src/stm32f4xx_hash_md5.c **** 
  61:App/STM32F4-Discovery/Libraries/STM32F4xx_StdPeriph_Driver/src/stm32f4xx_hash_md5.c **** /** @defgroup HASH_Private_Functions
  62:App/STM32F4-Discovery/Libraries/STM32F4xx_StdPeriph_Driver/src/stm32f4xx_hash_md5.c ****   * @{
  63:App/STM32F4-Discovery/Libraries/STM32F4xx_StdPeriph_Driver/src/stm32f4xx_hash_md5.c ****   */ 
  64:App/STM32F4-Discovery/Libraries/STM32F4xx_StdPeriph_Driver/src/stm32f4xx_hash_md5.c **** 
  65:App/STM32F4-Discovery/Libraries/STM32F4xx_StdPeriph_Driver/src/stm32f4xx_hash_md5.c **** /** @defgroup HASH_Group7 High Level MD5 functions
  66:App/STM32F4-Discovery/Libraries/STM32F4xx_StdPeriph_Driver/src/stm32f4xx_hash_md5.c ****  *  @brief   High Level MD5 Hash and HMAC functions 
  67:App/STM32F4-Discovery/Libraries/STM32F4xx_StdPeriph_Driver/src/stm32f4xx_hash_md5.c ****  *
  68:App/STM32F4-Discovery/Libraries/STM32F4xx_StdPeriph_Driver/src/stm32f4xx_hash_md5.c **** @verbatim   
  69:App/STM32F4-Discovery/Libraries/STM32F4xx_StdPeriph_Driver/src/stm32f4xx_hash_md5.c ****  ===============================================================================
  70:App/STM32F4-Discovery/Libraries/STM32F4xx_StdPeriph_Driver/src/stm32f4xx_hash_md5.c ****                           High Level MD5 Hash and HMAC functions
  71:App/STM32F4-Discovery/Libraries/STM32F4xx_StdPeriph_Driver/src/stm32f4xx_hash_md5.c ****  ===============================================================================
  72:App/STM32F4-Discovery/Libraries/STM32F4xx_StdPeriph_Driver/src/stm32f4xx_hash_md5.c **** 
  73:App/STM32F4-Discovery/Libraries/STM32F4xx_StdPeriph_Driver/src/stm32f4xx_hash_md5.c **** 
  74:App/STM32F4-Discovery/Libraries/STM32F4xx_StdPeriph_Driver/src/stm32f4xx_hash_md5.c **** @endverbatim
  75:App/STM32F4-Discovery/Libraries/STM32F4xx_StdPeriph_Driver/src/stm32f4xx_hash_md5.c ****   * @{
  76:App/STM32F4-Discovery/Libraries/STM32F4xx_StdPeriph_Driver/src/stm32f4xx_hash_md5.c ****   */
  77:App/STM32F4-Discovery/Libraries/STM32F4xx_StdPeriph_Driver/src/stm32f4xx_hash_md5.c **** 
  78:App/STM32F4-Discovery/Libraries/STM32F4xx_StdPeriph_Driver/src/stm32f4xx_hash_md5.c **** /**
  79:App/STM32F4-Discovery/Libraries/STM32F4xx_StdPeriph_Driver/src/stm32f4xx_hash_md5.c ****   * @brief  Compute the HASH MD5 digest.
  80:App/STM32F4-Discovery/Libraries/STM32F4xx_StdPeriph_Driver/src/stm32f4xx_hash_md5.c ****   * @param  Input: pointer to the Input buffer to be treated.
  81:App/STM32F4-Discovery/Libraries/STM32F4xx_StdPeriph_Driver/src/stm32f4xx_hash_md5.c ****   * @param  Ilen: length of the Input buffer.
  82:App/STM32F4-Discovery/Libraries/STM32F4xx_StdPeriph_Driver/src/stm32f4xx_hash_md5.c ****   * @param  Output: the returned digest
  83:App/STM32F4-Discovery/Libraries/STM32F4xx_StdPeriph_Driver/src/stm32f4xx_hash_md5.c ****   * @retval An ErrorStatus enumeration value:
  84:App/STM32F4-Discovery/Libraries/STM32F4xx_StdPeriph_Driver/src/stm32f4xx_hash_md5.c ****   *          - SUCCESS: digest computation done
  85:App/STM32F4-Discovery/Libraries/STM32F4xx_StdPeriph_Driver/src/stm32f4xx_hash_md5.c ****   *          - ERROR: digest computation failed
  86:App/STM32F4-Discovery/Libraries/STM32F4xx_StdPeriph_Driver/src/stm32f4xx_hash_md5.c ****   */
  87:App/STM32F4-Discovery/Libraries/STM32F4xx_StdPeriph_Driver/src/stm32f4xx_hash_md5.c **** ErrorStatus HASH_MD5(uint8_t *Input, uint32_t Ilen, uint8_t Output[16])
  88:App/STM32F4-Discovery/Libraries/STM32F4xx_StdPeriph_Driver/src/stm32f4xx_hash_md5.c **** {
  28              		.loc 1 88 0
  29              		.cfi_startproc
  30              		@ args = 0, pretend = 0, frame = 112
  31              		@ frame_needed = 1, uses_anonymous_args = 0
  32 0000 80B5     		push	{r7, lr}
  33              	.LCFI0:
  34              		.cfi_def_cfa_offset 8
  35              		.cfi_offset 7, -8
  36              		.cfi_offset 14, -4
  37 0002 9CB0     		sub	sp, sp, #112
  38              	.LCFI1:
  39              		.cfi_def_cfa_offset 120
  40 0004 00AF     		add	r7, sp, #0
  41              	.LCFI2:
  42              		.cfi_def_cfa_register 7
  43 0006 F860     		str	r0, [r7, #12]
  44 0008 B960     		str	r1, [r7, #8]
  45 000a 7A60     		str	r2, [r7, #4]
  89:App/STM32F4-Discovery/Libraries/STM32F4xx_StdPeriph_Driver/src/stm32f4xx_hash_md5.c ****   HASH_InitTypeDef MD5_HASH_InitStructure;
  90:App/STM32F4-Discovery/Libraries/STM32F4xx_StdPeriph_Driver/src/stm32f4xx_hash_md5.c ****   HASH_MsgDigest MD5_MessageDigest;
  91:App/STM32F4-Discovery/Libraries/STM32F4xx_StdPeriph_Driver/src/stm32f4xx_hash_md5.c ****   __IO uint16_t nbvalidbitsdata = 0;
  46              		.loc 1 91 0
  47 000c 0023     		movs	r3, #0
  48 000e FB82     		strh	r3, [r7, #22]	@ movhi
  92:App/STM32F4-Discovery/Libraries/STM32F4xx_StdPeriph_Driver/src/stm32f4xx_hash_md5.c ****   uint32_t i = 0;
  49              		.loc 1 92 0
  50 0010 0023     		movs	r3, #0
  51 0012 FB66     		str	r3, [r7, #108]
  93:App/STM32F4-Discovery/Libraries/STM32F4xx_StdPeriph_Driver/src/stm32f4xx_hash_md5.c ****   __IO uint32_t counter = 0;
  52              		.loc 1 93 0
  53 0014 0023     		movs	r3, #0
  54 0016 3B61     		str	r3, [r7, #16]
  94:App/STM32F4-Discovery/Libraries/STM32F4xx_StdPeriph_Driver/src/stm32f4xx_hash_md5.c ****   uint32_t busystatus = 0;
  55              		.loc 1 94 0
  56 0018 0023     		movs	r3, #0
  57 001a 3B66     		str	r3, [r7, #96]
  95:App/STM32F4-Discovery/Libraries/STM32F4xx_StdPeriph_Driver/src/stm32f4xx_hash_md5.c ****   ErrorStatus status = SUCCESS;
  58              		.loc 1 95 0
  59 001c 0123     		movs	r3, #1
  60 001e 87F86B30 		strb	r3, [r7, #107]
  96:App/STM32F4-Discovery/Libraries/STM32F4xx_StdPeriph_Driver/src/stm32f4xx_hash_md5.c ****   uint32_t inputaddr  = (uint32_t)Input;
  61              		.loc 1 96 0
  62 0022 FB68     		ldr	r3, [r7, #12]
  63 0024 7B66     		str	r3, [r7, #100]
  97:App/STM32F4-Discovery/Libraries/STM32F4xx_StdPeriph_Driver/src/stm32f4xx_hash_md5.c ****   uint32_t outputaddr = (uint32_t)Output;
  64              		.loc 1 97 0
  65 0026 7B68     		ldr	r3, [r7, #4]
  66 0028 FB65     		str	r3, [r7, #92]
  98:App/STM32F4-Discovery/Libraries/STM32F4xx_StdPeriph_Driver/src/stm32f4xx_hash_md5.c **** 
  99:App/STM32F4-Discovery/Libraries/STM32F4xx_StdPeriph_Driver/src/stm32f4xx_hash_md5.c **** 
 100:App/STM32F4-Discovery/Libraries/STM32F4xx_StdPeriph_Driver/src/stm32f4xx_hash_md5.c ****   /* Number of valid bits in last word of the Input data */
 101:App/STM32F4-Discovery/Libraries/STM32F4xx_StdPeriph_Driver/src/stm32f4xx_hash_md5.c ****   nbvalidbitsdata = 8 * (Ilen % 4);
  67              		.loc 1 101 0
  68 002a BB68     		ldr	r3, [r7, #8]
  69 002c 9BB2     		uxth	r3, r3
  70 002e 03F00303 		and	r3, r3, #3
  71 0032 9BB2     		uxth	r3, r3
  72 0034 DB00     		lsls	r3, r3, #3
  73 0036 9BB2     		uxth	r3, r3
  74 0038 FB82     		strh	r3, [r7, #22]	@ movhi
 102:App/STM32F4-Discovery/Libraries/STM32F4xx_StdPeriph_Driver/src/stm32f4xx_hash_md5.c **** 
 103:App/STM32F4-Discovery/Libraries/STM32F4xx_StdPeriph_Driver/src/stm32f4xx_hash_md5.c ****   /* HASH peripheral initialization */
 104:App/STM32F4-Discovery/Libraries/STM32F4xx_StdPeriph_Driver/src/stm32f4xx_hash_md5.c ****   HASH_DeInit();
  75              		.loc 1 104 0
  76 003a FFF7FEFF 		bl	HASH_DeInit
 105:App/STM32F4-Discovery/Libraries/STM32F4xx_StdPeriph_Driver/src/stm32f4xx_hash_md5.c **** 
 106:App/STM32F4-Discovery/Libraries/STM32F4xx_StdPeriph_Driver/src/stm32f4xx_hash_md5.c ****   /* HASH Configuration */
 107:App/STM32F4-Discovery/Libraries/STM32F4xx_StdPeriph_Driver/src/stm32f4xx_hash_md5.c ****   MD5_HASH_InitStructure.HASH_AlgoSelection = HASH_AlgoSelection_MD5;
  77              		.loc 1 107 0
  78 003e 8023     		movs	r3, #128
  79 0040 FB62     		str	r3, [r7, #44]
 108:App/STM32F4-Discovery/Libraries/STM32F4xx_StdPeriph_Driver/src/stm32f4xx_hash_md5.c ****   MD5_HASH_InitStructure.HASH_AlgoMode = HASH_AlgoMode_HASH;
  80              		.loc 1 108 0
  81 0042 0023     		movs	r3, #0
  82 0044 3B63     		str	r3, [r7, #48]
 109:App/STM32F4-Discovery/Libraries/STM32F4xx_StdPeriph_Driver/src/stm32f4xx_hash_md5.c ****   MD5_HASH_InitStructure.HASH_DataType = HASH_DataType_8b;
  83              		.loc 1 109 0
  84 0046 2023     		movs	r3, #32
  85 0048 7B63     		str	r3, [r7, #52]
 110:App/STM32F4-Discovery/Libraries/STM32F4xx_StdPeriph_Driver/src/stm32f4xx_hash_md5.c ****   HASH_Init(&MD5_HASH_InitStructure);
  86              		.loc 1 110 0
  87 004a 07F12C03 		add	r3, r7, #44
  88 004e 1846     		mov	r0, r3
  89 0050 FFF7FEFF 		bl	HASH_Init
 111:App/STM32F4-Discovery/Libraries/STM32F4xx_StdPeriph_Driver/src/stm32f4xx_hash_md5.c **** 
 112:App/STM32F4-Discovery/Libraries/STM32F4xx_StdPeriph_Driver/src/stm32f4xx_hash_md5.c ****   /* Configure the number of valid bits in last word of the data */
 113:App/STM32F4-Discovery/Libraries/STM32F4xx_StdPeriph_Driver/src/stm32f4xx_hash_md5.c ****   HASH_SetLastWordValidBitsNbr(nbvalidbitsdata);
  90              		.loc 1 113 0
  91 0054 FB8A     		ldrh	r3, [r7, #22]	@ movhi
  92 0056 9BB2     		uxth	r3, r3
  93 0058 1846     		mov	r0, r3
  94 005a FFF7FEFF 		bl	HASH_SetLastWordValidBitsNbr
 114:App/STM32F4-Discovery/Libraries/STM32F4xx_StdPeriph_Driver/src/stm32f4xx_hash_md5.c **** 
 115:App/STM32F4-Discovery/Libraries/STM32F4xx_StdPeriph_Driver/src/stm32f4xx_hash_md5.c ****   /* Write the Input block in the IN FIFO */
 116:App/STM32F4-Discovery/Libraries/STM32F4xx_StdPeriph_Driver/src/stm32f4xx_hash_md5.c ****   for(i=0; i<Ilen; i+=4)
  95              		.loc 1 116 0
  96 005e 0023     		movs	r3, #0
  97 0060 FB66     		str	r3, [r7, #108]
  98 0062 0AE0     		b	.L2
  99              	.L3:
 117:App/STM32F4-Discovery/Libraries/STM32F4xx_StdPeriph_Driver/src/stm32f4xx_hash_md5.c ****   {
 118:App/STM32F4-Discovery/Libraries/STM32F4xx_StdPeriph_Driver/src/stm32f4xx_hash_md5.c ****     HASH_DataIn(*(uint32_t*)inputaddr);
 100              		.loc 1 118 0 discriminator 2
 101 0064 7B6E     		ldr	r3, [r7, #100]
 102 0066 1B68     		ldr	r3, [r3]
 103 0068 1846     		mov	r0, r3
 104 006a FFF7FEFF 		bl	HASH_DataIn
 119:App/STM32F4-Discovery/Libraries/STM32F4xx_StdPeriph_Driver/src/stm32f4xx_hash_md5.c ****     inputaddr+=4;
 105              		.loc 1 119 0 discriminator 2
 106 006e 7B6E     		ldr	r3, [r7, #100]
 107 0070 0433     		adds	r3, r3, #4
 108 0072 7B66     		str	r3, [r7, #100]
 116:App/STM32F4-Discovery/Libraries/STM32F4xx_StdPeriph_Driver/src/stm32f4xx_hash_md5.c ****   for(i=0; i<Ilen; i+=4)
 109              		.loc 1 116 0 discriminator 2
 110 0074 FB6E     		ldr	r3, [r7, #108]
 111 0076 0433     		adds	r3, r3, #4
 112 0078 FB66     		str	r3, [r7, #108]
 113              	.L2:
 116:App/STM32F4-Discovery/Libraries/STM32F4xx_StdPeriph_Driver/src/stm32f4xx_hash_md5.c ****   for(i=0; i<Ilen; i+=4)
 114              		.loc 1 116 0 is_stmt 0 discriminator 1
 115 007a FA6E     		ldr	r2, [r7, #108]
 116 007c BB68     		ldr	r3, [r7, #8]
 117 007e 9A42     		cmp	r2, r3
 118 0080 F0D3     		bcc	.L3
 120:App/STM32F4-Discovery/Libraries/STM32F4xx_StdPeriph_Driver/src/stm32f4xx_hash_md5.c ****   }
 121:App/STM32F4-Discovery/Libraries/STM32F4xx_StdPeriph_Driver/src/stm32f4xx_hash_md5.c **** 
 122:App/STM32F4-Discovery/Libraries/STM32F4xx_StdPeriph_Driver/src/stm32f4xx_hash_md5.c ****   /* Start the HASH processor */
 123:App/STM32F4-Discovery/Libraries/STM32F4xx_StdPeriph_Driver/src/stm32f4xx_hash_md5.c ****   HASH_StartDigest();
 119              		.loc 1 123 0 is_stmt 1
 120 0082 FFF7FEFF 		bl	HASH_StartDigest
 121              	.L5:
 124:App/STM32F4-Discovery/Libraries/STM32F4xx_StdPeriph_Driver/src/stm32f4xx_hash_md5.c **** 
 125:App/STM32F4-Discovery/Libraries/STM32F4xx_StdPeriph_Driver/src/stm32f4xx_hash_md5.c ****   /* wait until the Busy flag is RESET */
 126:App/STM32F4-Discovery/Libraries/STM32F4xx_StdPeriph_Driver/src/stm32f4xx_hash_md5.c ****   do
 127:App/STM32F4-Discovery/Libraries/STM32F4xx_StdPeriph_Driver/src/stm32f4xx_hash_md5.c ****   {
 128:App/STM32F4-Discovery/Libraries/STM32F4xx_StdPeriph_Driver/src/stm32f4xx_hash_md5.c ****     busystatus = HASH_GetFlagStatus(HASH_FLAG_BUSY);
 122              		.loc 1 128 0 discriminator 1
 123 0086 0820     		movs	r0, #8
 124 0088 FFF7FEFF 		bl	HASH_GetFlagStatus
 125 008c 0346     		mov	r3, r0
 126 008e 3B66     		str	r3, [r7, #96]
 129:App/STM32F4-Discovery/Libraries/STM32F4xx_StdPeriph_Driver/src/stm32f4xx_hash_md5.c ****     counter++;
 127              		.loc 1 129 0 discriminator 1
 128 0090 3B69     		ldr	r3, [r7, #16]
 129 0092 0133     		adds	r3, r3, #1
 130 0094 3B61     		str	r3, [r7, #16]
 130:App/STM32F4-Discovery/Libraries/STM32F4xx_StdPeriph_Driver/src/stm32f4xx_hash_md5.c ****   }while ((counter != MD5BUSY_TIMEOUT) && (busystatus != RESET));
 131              		.loc 1 130 0 discriminator 1
 132 0096 3B69     		ldr	r3, [r7, #16]
 133 0098 B3F5803F 		cmp	r3, #65536
 134 009c 02D0     		beq	.L4
 135 009e 3B6E     		ldr	r3, [r7, #96]
 136 00a0 002B     		cmp	r3, #0
 137 00a2 F0D1     		bne	.L5
 138              	.L4:
 131:App/STM32F4-Discovery/Libraries/STM32F4xx_StdPeriph_Driver/src/stm32f4xx_hash_md5.c **** 
 132:App/STM32F4-Discovery/Libraries/STM32F4xx_StdPeriph_Driver/src/stm32f4xx_hash_md5.c ****   if (busystatus != RESET)
 139              		.loc 1 132 0
 140 00a4 3B6E     		ldr	r3, [r7, #96]
 141 00a6 002B     		cmp	r3, #0
 142 00a8 03D0     		beq	.L6
 133:App/STM32F4-Discovery/Libraries/STM32F4xx_StdPeriph_Driver/src/stm32f4xx_hash_md5.c ****   {
 134:App/STM32F4-Discovery/Libraries/STM32F4xx_StdPeriph_Driver/src/stm32f4xx_hash_md5.c ****      status = ERROR;
 143              		.loc 1 134 0
 144 00aa 0023     		movs	r3, #0
 145 00ac 87F86B30 		strb	r3, [r7, #107]
 146 00b0 2DE0     		b	.L7
 147              	.L6:
 135:App/STM32F4-Discovery/Libraries/STM32F4xx_StdPeriph_Driver/src/stm32f4xx_hash_md5.c ****   }
 136:App/STM32F4-Discovery/Libraries/STM32F4xx_StdPeriph_Driver/src/stm32f4xx_hash_md5.c ****   else
 137:App/STM32F4-Discovery/Libraries/STM32F4xx_StdPeriph_Driver/src/stm32f4xx_hash_md5.c ****   {
 138:App/STM32F4-Discovery/Libraries/STM32F4xx_StdPeriph_Driver/src/stm32f4xx_hash_md5.c ****     /* Read the message digest */
 139:App/STM32F4-Discovery/Libraries/STM32F4xx_StdPeriph_Driver/src/stm32f4xx_hash_md5.c ****     HASH_GetDigest(&MD5_MessageDigest);
 148              		.loc 1 139 0
 149 00b2 07F11803 		add	r3, r7, #24
 150 00b6 1846     		mov	r0, r3
 151 00b8 FFF7FEFF 		bl	HASH_GetDigest
 140:App/STM32F4-Discovery/Libraries/STM32F4xx_StdPeriph_Driver/src/stm32f4xx_hash_md5.c ****     *(uint32_t*)(outputaddr)  = __REV(MD5_MessageDigest.Data[0]);
 152              		.loc 1 140 0
 153 00bc FB6D     		ldr	r3, [r7, #92]
 154 00be BA69     		ldr	r2, [r7, #24]
 155 00c0 BA65     		str	r2, [r7, #88]
 156              	.LBB18:
 157              	.LBB19:
 158              		.file 2 "App/STM32F4-Discovery/Libraries/CMSIS/Include/core_cmInstr.h"
   1:App/STM32F4-Discovery/Libraries/CMSIS/Include/core_cmInstr.h **** /**************************************************************************//**
   2:App/STM32F4-Discovery/Libraries/CMSIS/Include/core_cmInstr.h ****  * @file     core_cmInstr.h
   3:App/STM32F4-Discovery/Libraries/CMSIS/Include/core_cmInstr.h ****  * @brief    CMSIS Cortex-M Core Instruction Access Header File
   4:App/STM32F4-Discovery/Libraries/CMSIS/Include/core_cmInstr.h ****  * @version  V2.10
   5:App/STM32F4-Discovery/Libraries/CMSIS/Include/core_cmInstr.h ****  * @date     19. July 2011
   6:App/STM32F4-Discovery/Libraries/CMSIS/Include/core_cmInstr.h ****  *
   7:App/STM32F4-Discovery/Libraries/CMSIS/Include/core_cmInstr.h ****  * @note
   8:App/STM32F4-Discovery/Libraries/CMSIS/Include/core_cmInstr.h ****  * Copyright (C) 2009-2011 ARM Limited. All rights reserved.
   9:App/STM32F4-Discovery/Libraries/CMSIS/Include/core_cmInstr.h ****  *
  10:App/STM32F4-Discovery/Libraries/CMSIS/Include/core_cmInstr.h ****  * @par
  11:App/STM32F4-Discovery/Libraries/CMSIS/Include/core_cmInstr.h ****  * ARM Limited (ARM) is supplying this software for use with Cortex-M 
  12:App/STM32F4-Discovery/Libraries/CMSIS/Include/core_cmInstr.h ****  * processor based microcontrollers.  This file can be freely distributed 
  13:App/STM32F4-Discovery/Libraries/CMSIS/Include/core_cmInstr.h ****  * within development tools that are supporting such ARM based processors. 
  14:App/STM32F4-Discovery/Libraries/CMSIS/Include/core_cmInstr.h ****  *
  15:App/STM32F4-Discovery/Libraries/CMSIS/Include/core_cmInstr.h ****  * @par
  16:App/STM32F4-Discovery/Libraries/CMSIS/Include/core_cmInstr.h ****  * THIS SOFTWARE IS PROVIDED "AS IS".  NO WARRANTIES, WHETHER EXPRESS, IMPLIED
  17:App/STM32F4-Discovery/Libraries/CMSIS/Include/core_cmInstr.h ****  * OR STATUTORY, INCLUDING, BUT NOT LIMITED TO, IMPLIED WARRANTIES OF
  18:App/STM32F4-Discovery/Libraries/CMSIS/Include/core_cmInstr.h ****  * MERCHANTABILITY AND FITNESS FOR A PARTICULAR PURPOSE APPLY TO THIS SOFTWARE.
  19:App/STM32F4-Discovery/Libraries/CMSIS/Include/core_cmInstr.h ****  * ARM SHALL NOT, IN ANY CIRCUMSTANCES, BE LIABLE FOR SPECIAL, INCIDENTAL, OR
  20:App/STM32F4-Discovery/Libraries/CMSIS/Include/core_cmInstr.h ****  * CONSEQUENTIAL DAMAGES, FOR ANY REASON WHATSOEVER.
  21:App/STM32F4-Discovery/Libraries/CMSIS/Include/core_cmInstr.h ****  *
  22:App/STM32F4-Discovery/Libraries/CMSIS/Include/core_cmInstr.h ****  ******************************************************************************/
  23:App/STM32F4-Discovery/Libraries/CMSIS/Include/core_cmInstr.h **** 
  24:App/STM32F4-Discovery/Libraries/CMSIS/Include/core_cmInstr.h **** #ifndef __CORE_CMINSTR_H
  25:App/STM32F4-Discovery/Libraries/CMSIS/Include/core_cmInstr.h **** #define __CORE_CMINSTR_H
  26:App/STM32F4-Discovery/Libraries/CMSIS/Include/core_cmInstr.h **** 
  27:App/STM32F4-Discovery/Libraries/CMSIS/Include/core_cmInstr.h **** 
  28:App/STM32F4-Discovery/Libraries/CMSIS/Include/core_cmInstr.h **** /* ##########################  Core Instruction Access  ######################### */
  29:App/STM32F4-Discovery/Libraries/CMSIS/Include/core_cmInstr.h **** /** \defgroup CMSIS_Core_InstructionInterface CMSIS Core Instruction Interface
  30:App/STM32F4-Discovery/Libraries/CMSIS/Include/core_cmInstr.h ****   Access to dedicated instructions
  31:App/STM32F4-Discovery/Libraries/CMSIS/Include/core_cmInstr.h ****   @{
  32:App/STM32F4-Discovery/Libraries/CMSIS/Include/core_cmInstr.h **** */
  33:App/STM32F4-Discovery/Libraries/CMSIS/Include/core_cmInstr.h **** 
  34:App/STM32F4-Discovery/Libraries/CMSIS/Include/core_cmInstr.h **** #if   defined ( __CC_ARM ) /*------------------RealView Compiler -----------------*/
  35:App/STM32F4-Discovery/Libraries/CMSIS/Include/core_cmInstr.h **** /* ARM armcc specific functions */
  36:App/STM32F4-Discovery/Libraries/CMSIS/Include/core_cmInstr.h **** 
  37:App/STM32F4-Discovery/Libraries/CMSIS/Include/core_cmInstr.h **** #if (__ARMCC_VERSION < 400677)
  38:App/STM32F4-Discovery/Libraries/CMSIS/Include/core_cmInstr.h ****   #error "Please use ARM Compiler Toolchain V4.0.677 or later!"
  39:App/STM32F4-Discovery/Libraries/CMSIS/Include/core_cmInstr.h **** #endif
  40:App/STM32F4-Discovery/Libraries/CMSIS/Include/core_cmInstr.h **** 
  41:App/STM32F4-Discovery/Libraries/CMSIS/Include/core_cmInstr.h **** 
  42:App/STM32F4-Discovery/Libraries/CMSIS/Include/core_cmInstr.h **** /** \brief  No Operation
  43:App/STM32F4-Discovery/Libraries/CMSIS/Include/core_cmInstr.h **** 
  44:App/STM32F4-Discovery/Libraries/CMSIS/Include/core_cmInstr.h ****     No Operation does nothing. This instruction can be used for code alignment purposes.
  45:App/STM32F4-Discovery/Libraries/CMSIS/Include/core_cmInstr.h ****  */
  46:App/STM32F4-Discovery/Libraries/CMSIS/Include/core_cmInstr.h **** #define __NOP                             __nop
  47:App/STM32F4-Discovery/Libraries/CMSIS/Include/core_cmInstr.h **** 
  48:App/STM32F4-Discovery/Libraries/CMSIS/Include/core_cmInstr.h **** 
  49:App/STM32F4-Discovery/Libraries/CMSIS/Include/core_cmInstr.h **** /** \brief  Wait For Interrupt
  50:App/STM32F4-Discovery/Libraries/CMSIS/Include/core_cmInstr.h **** 
  51:App/STM32F4-Discovery/Libraries/CMSIS/Include/core_cmInstr.h ****     Wait For Interrupt is a hint instruction that suspends execution
  52:App/STM32F4-Discovery/Libraries/CMSIS/Include/core_cmInstr.h ****     until one of a number of events occurs.
  53:App/STM32F4-Discovery/Libraries/CMSIS/Include/core_cmInstr.h ****  */
  54:App/STM32F4-Discovery/Libraries/CMSIS/Include/core_cmInstr.h **** #define __WFI                             __wfi
  55:App/STM32F4-Discovery/Libraries/CMSIS/Include/core_cmInstr.h **** 
  56:App/STM32F4-Discovery/Libraries/CMSIS/Include/core_cmInstr.h **** 
  57:App/STM32F4-Discovery/Libraries/CMSIS/Include/core_cmInstr.h **** /** \brief  Wait For Event
  58:App/STM32F4-Discovery/Libraries/CMSIS/Include/core_cmInstr.h **** 
  59:App/STM32F4-Discovery/Libraries/CMSIS/Include/core_cmInstr.h ****     Wait For Event is a hint instruction that permits the processor to enter
  60:App/STM32F4-Discovery/Libraries/CMSIS/Include/core_cmInstr.h ****     a low-power state until one of a number of events occurs.
  61:App/STM32F4-Discovery/Libraries/CMSIS/Include/core_cmInstr.h ****  */
  62:App/STM32F4-Discovery/Libraries/CMSIS/Include/core_cmInstr.h **** #define __WFE                             __wfe
  63:App/STM32F4-Discovery/Libraries/CMSIS/Include/core_cmInstr.h **** 
  64:App/STM32F4-Discovery/Libraries/CMSIS/Include/core_cmInstr.h **** 
  65:App/STM32F4-Discovery/Libraries/CMSIS/Include/core_cmInstr.h **** /** \brief  Send Event
  66:App/STM32F4-Discovery/Libraries/CMSIS/Include/core_cmInstr.h **** 
  67:App/STM32F4-Discovery/Libraries/CMSIS/Include/core_cmInstr.h ****     Send Event is a hint instruction. It causes an event to be signaled to the CPU.
  68:App/STM32F4-Discovery/Libraries/CMSIS/Include/core_cmInstr.h ****  */
  69:App/STM32F4-Discovery/Libraries/CMSIS/Include/core_cmInstr.h **** #define __SEV                             __sev
  70:App/STM32F4-Discovery/Libraries/CMSIS/Include/core_cmInstr.h **** 
  71:App/STM32F4-Discovery/Libraries/CMSIS/Include/core_cmInstr.h **** 
  72:App/STM32F4-Discovery/Libraries/CMSIS/Include/core_cmInstr.h **** /** \brief  Instruction Synchronization Barrier
  73:App/STM32F4-Discovery/Libraries/CMSIS/Include/core_cmInstr.h **** 
  74:App/STM32F4-Discovery/Libraries/CMSIS/Include/core_cmInstr.h ****     Instruction Synchronization Barrier flushes the pipeline in the processor, 
  75:App/STM32F4-Discovery/Libraries/CMSIS/Include/core_cmInstr.h ****     so that all instructions following the ISB are fetched from cache or 
  76:App/STM32F4-Discovery/Libraries/CMSIS/Include/core_cmInstr.h ****     memory, after the instruction has been completed.
  77:App/STM32F4-Discovery/Libraries/CMSIS/Include/core_cmInstr.h ****  */
  78:App/STM32F4-Discovery/Libraries/CMSIS/Include/core_cmInstr.h **** #define __ISB()                           __isb(0xF)
  79:App/STM32F4-Discovery/Libraries/CMSIS/Include/core_cmInstr.h **** 
  80:App/STM32F4-Discovery/Libraries/CMSIS/Include/core_cmInstr.h **** 
  81:App/STM32F4-Discovery/Libraries/CMSIS/Include/core_cmInstr.h **** /** \brief  Data Synchronization Barrier
  82:App/STM32F4-Discovery/Libraries/CMSIS/Include/core_cmInstr.h **** 
  83:App/STM32F4-Discovery/Libraries/CMSIS/Include/core_cmInstr.h ****     This function acts as a special kind of Data Memory Barrier. 
  84:App/STM32F4-Discovery/Libraries/CMSIS/Include/core_cmInstr.h ****     It completes when all explicit memory accesses before this instruction complete.
  85:App/STM32F4-Discovery/Libraries/CMSIS/Include/core_cmInstr.h ****  */
  86:App/STM32F4-Discovery/Libraries/CMSIS/Include/core_cmInstr.h **** #define __DSB()                           __dsb(0xF)
  87:App/STM32F4-Discovery/Libraries/CMSIS/Include/core_cmInstr.h **** 
  88:App/STM32F4-Discovery/Libraries/CMSIS/Include/core_cmInstr.h **** 
  89:App/STM32F4-Discovery/Libraries/CMSIS/Include/core_cmInstr.h **** /** \brief  Data Memory Barrier
  90:App/STM32F4-Discovery/Libraries/CMSIS/Include/core_cmInstr.h **** 
  91:App/STM32F4-Discovery/Libraries/CMSIS/Include/core_cmInstr.h ****     This function ensures the apparent order of the explicit memory operations before 
  92:App/STM32F4-Discovery/Libraries/CMSIS/Include/core_cmInstr.h ****     and after the instruction, without ensuring their completion.
  93:App/STM32F4-Discovery/Libraries/CMSIS/Include/core_cmInstr.h ****  */
  94:App/STM32F4-Discovery/Libraries/CMSIS/Include/core_cmInstr.h **** #define __DMB()                           __dmb(0xF)
  95:App/STM32F4-Discovery/Libraries/CMSIS/Include/core_cmInstr.h **** 
  96:App/STM32F4-Discovery/Libraries/CMSIS/Include/core_cmInstr.h **** 
  97:App/STM32F4-Discovery/Libraries/CMSIS/Include/core_cmInstr.h **** /** \brief  Reverse byte order (32 bit)
  98:App/STM32F4-Discovery/Libraries/CMSIS/Include/core_cmInstr.h **** 
  99:App/STM32F4-Discovery/Libraries/CMSIS/Include/core_cmInstr.h ****     This function reverses the byte order in integer value.
 100:App/STM32F4-Discovery/Libraries/CMSIS/Include/core_cmInstr.h **** 
 101:App/STM32F4-Discovery/Libraries/CMSIS/Include/core_cmInstr.h ****     \param [in]    value  Value to reverse
 102:App/STM32F4-Discovery/Libraries/CMSIS/Include/core_cmInstr.h ****     \return               Reversed value
 103:App/STM32F4-Discovery/Libraries/CMSIS/Include/core_cmInstr.h ****  */
 104:App/STM32F4-Discovery/Libraries/CMSIS/Include/core_cmInstr.h **** #define __REV                             __rev
 105:App/STM32F4-Discovery/Libraries/CMSIS/Include/core_cmInstr.h **** 
 106:App/STM32F4-Discovery/Libraries/CMSIS/Include/core_cmInstr.h **** 
 107:App/STM32F4-Discovery/Libraries/CMSIS/Include/core_cmInstr.h **** /** \brief  Reverse byte order (16 bit)
 108:App/STM32F4-Discovery/Libraries/CMSIS/Include/core_cmInstr.h **** 
 109:App/STM32F4-Discovery/Libraries/CMSIS/Include/core_cmInstr.h ****     This function reverses the byte order in two unsigned short values.
 110:App/STM32F4-Discovery/Libraries/CMSIS/Include/core_cmInstr.h **** 
 111:App/STM32F4-Discovery/Libraries/CMSIS/Include/core_cmInstr.h ****     \param [in]    value  Value to reverse
 112:App/STM32F4-Discovery/Libraries/CMSIS/Include/core_cmInstr.h ****     \return               Reversed value
 113:App/STM32F4-Discovery/Libraries/CMSIS/Include/core_cmInstr.h ****  */
 114:App/STM32F4-Discovery/Libraries/CMSIS/Include/core_cmInstr.h **** static __INLINE __ASM uint32_t __REV16(uint32_t value)
 115:App/STM32F4-Discovery/Libraries/CMSIS/Include/core_cmInstr.h **** {
 116:App/STM32F4-Discovery/Libraries/CMSIS/Include/core_cmInstr.h ****   rev16 r0, r0
 117:App/STM32F4-Discovery/Libraries/CMSIS/Include/core_cmInstr.h ****   bx lr
 118:App/STM32F4-Discovery/Libraries/CMSIS/Include/core_cmInstr.h **** }
 119:App/STM32F4-Discovery/Libraries/CMSIS/Include/core_cmInstr.h **** 
 120:App/STM32F4-Discovery/Libraries/CMSIS/Include/core_cmInstr.h **** 
 121:App/STM32F4-Discovery/Libraries/CMSIS/Include/core_cmInstr.h **** /** \brief  Reverse byte order in signed short value
 122:App/STM32F4-Discovery/Libraries/CMSIS/Include/core_cmInstr.h **** 
 123:App/STM32F4-Discovery/Libraries/CMSIS/Include/core_cmInstr.h ****     This function reverses the byte order in a signed short value with sign extension to integer.
 124:App/STM32F4-Discovery/Libraries/CMSIS/Include/core_cmInstr.h **** 
 125:App/STM32F4-Discovery/Libraries/CMSIS/Include/core_cmInstr.h ****     \param [in]    value  Value to reverse
 126:App/STM32F4-Discovery/Libraries/CMSIS/Include/core_cmInstr.h ****     \return               Reversed value
 127:App/STM32F4-Discovery/Libraries/CMSIS/Include/core_cmInstr.h ****  */
 128:App/STM32F4-Discovery/Libraries/CMSIS/Include/core_cmInstr.h **** static __INLINE __ASM int32_t __REVSH(int32_t value)
 129:App/STM32F4-Discovery/Libraries/CMSIS/Include/core_cmInstr.h **** {
 130:App/STM32F4-Discovery/Libraries/CMSIS/Include/core_cmInstr.h ****   revsh r0, r0
 131:App/STM32F4-Discovery/Libraries/CMSIS/Include/core_cmInstr.h ****   bx lr
 132:App/STM32F4-Discovery/Libraries/CMSIS/Include/core_cmInstr.h **** }
 133:App/STM32F4-Discovery/Libraries/CMSIS/Include/core_cmInstr.h **** 
 134:App/STM32F4-Discovery/Libraries/CMSIS/Include/core_cmInstr.h **** 
 135:App/STM32F4-Discovery/Libraries/CMSIS/Include/core_cmInstr.h **** #if       (__CORTEX_M >= 0x03)
 136:App/STM32F4-Discovery/Libraries/CMSIS/Include/core_cmInstr.h **** 
 137:App/STM32F4-Discovery/Libraries/CMSIS/Include/core_cmInstr.h **** /** \brief  Reverse bit order of value
 138:App/STM32F4-Discovery/Libraries/CMSIS/Include/core_cmInstr.h **** 
 139:App/STM32F4-Discovery/Libraries/CMSIS/Include/core_cmInstr.h ****     This function reverses the bit order of the given value.
 140:App/STM32F4-Discovery/Libraries/CMSIS/Include/core_cmInstr.h **** 
 141:App/STM32F4-Discovery/Libraries/CMSIS/Include/core_cmInstr.h ****     \param [in]    value  Value to reverse
 142:App/STM32F4-Discovery/Libraries/CMSIS/Include/core_cmInstr.h ****     \return               Reversed value
 143:App/STM32F4-Discovery/Libraries/CMSIS/Include/core_cmInstr.h ****  */
 144:App/STM32F4-Discovery/Libraries/CMSIS/Include/core_cmInstr.h **** #define __RBIT                            __rbit
 145:App/STM32F4-Discovery/Libraries/CMSIS/Include/core_cmInstr.h **** 
 146:App/STM32F4-Discovery/Libraries/CMSIS/Include/core_cmInstr.h **** 
 147:App/STM32F4-Discovery/Libraries/CMSIS/Include/core_cmInstr.h **** /** \brief  LDR Exclusive (8 bit)
 148:App/STM32F4-Discovery/Libraries/CMSIS/Include/core_cmInstr.h **** 
 149:App/STM32F4-Discovery/Libraries/CMSIS/Include/core_cmInstr.h ****     This function performs a exclusive LDR command for 8 bit value.
 150:App/STM32F4-Discovery/Libraries/CMSIS/Include/core_cmInstr.h **** 
 151:App/STM32F4-Discovery/Libraries/CMSIS/Include/core_cmInstr.h ****     \param [in]    ptr  Pointer to data
 152:App/STM32F4-Discovery/Libraries/CMSIS/Include/core_cmInstr.h ****     \return             value of type uint8_t at (*ptr)
 153:App/STM32F4-Discovery/Libraries/CMSIS/Include/core_cmInstr.h ****  */
 154:App/STM32F4-Discovery/Libraries/CMSIS/Include/core_cmInstr.h **** #define __LDREXB(ptr)                     ((uint8_t ) __ldrex(ptr))
 155:App/STM32F4-Discovery/Libraries/CMSIS/Include/core_cmInstr.h **** 
 156:App/STM32F4-Discovery/Libraries/CMSIS/Include/core_cmInstr.h **** 
 157:App/STM32F4-Discovery/Libraries/CMSIS/Include/core_cmInstr.h **** /** \brief  LDR Exclusive (16 bit)
 158:App/STM32F4-Discovery/Libraries/CMSIS/Include/core_cmInstr.h **** 
 159:App/STM32F4-Discovery/Libraries/CMSIS/Include/core_cmInstr.h ****     This function performs a exclusive LDR command for 16 bit values.
 160:App/STM32F4-Discovery/Libraries/CMSIS/Include/core_cmInstr.h **** 
 161:App/STM32F4-Discovery/Libraries/CMSIS/Include/core_cmInstr.h ****     \param [in]    ptr  Pointer to data
 162:App/STM32F4-Discovery/Libraries/CMSIS/Include/core_cmInstr.h ****     \return        value of type uint16_t at (*ptr)
 163:App/STM32F4-Discovery/Libraries/CMSIS/Include/core_cmInstr.h ****  */
 164:App/STM32F4-Discovery/Libraries/CMSIS/Include/core_cmInstr.h **** #define __LDREXH(ptr)                     ((uint16_t) __ldrex(ptr))
 165:App/STM32F4-Discovery/Libraries/CMSIS/Include/core_cmInstr.h **** 
 166:App/STM32F4-Discovery/Libraries/CMSIS/Include/core_cmInstr.h **** 
 167:App/STM32F4-Discovery/Libraries/CMSIS/Include/core_cmInstr.h **** /** \brief  LDR Exclusive (32 bit)
 168:App/STM32F4-Discovery/Libraries/CMSIS/Include/core_cmInstr.h **** 
 169:App/STM32F4-Discovery/Libraries/CMSIS/Include/core_cmInstr.h ****     This function performs a exclusive LDR command for 32 bit values.
 170:App/STM32F4-Discovery/Libraries/CMSIS/Include/core_cmInstr.h **** 
 171:App/STM32F4-Discovery/Libraries/CMSIS/Include/core_cmInstr.h ****     \param [in]    ptr  Pointer to data
 172:App/STM32F4-Discovery/Libraries/CMSIS/Include/core_cmInstr.h ****     \return        value of type uint32_t at (*ptr)
 173:App/STM32F4-Discovery/Libraries/CMSIS/Include/core_cmInstr.h ****  */
 174:App/STM32F4-Discovery/Libraries/CMSIS/Include/core_cmInstr.h **** #define __LDREXW(ptr)                     ((uint32_t ) __ldrex(ptr))
 175:App/STM32F4-Discovery/Libraries/CMSIS/Include/core_cmInstr.h **** 
 176:App/STM32F4-Discovery/Libraries/CMSIS/Include/core_cmInstr.h **** 
 177:App/STM32F4-Discovery/Libraries/CMSIS/Include/core_cmInstr.h **** /** \brief  STR Exclusive (8 bit)
 178:App/STM32F4-Discovery/Libraries/CMSIS/Include/core_cmInstr.h **** 
 179:App/STM32F4-Discovery/Libraries/CMSIS/Include/core_cmInstr.h ****     This function performs a exclusive STR command for 8 bit values.
 180:App/STM32F4-Discovery/Libraries/CMSIS/Include/core_cmInstr.h **** 
 181:App/STM32F4-Discovery/Libraries/CMSIS/Include/core_cmInstr.h ****     \param [in]  value  Value to store
 182:App/STM32F4-Discovery/Libraries/CMSIS/Include/core_cmInstr.h ****     \param [in]    ptr  Pointer to location
 183:App/STM32F4-Discovery/Libraries/CMSIS/Include/core_cmInstr.h ****     \return          0  Function succeeded
 184:App/STM32F4-Discovery/Libraries/CMSIS/Include/core_cmInstr.h ****     \return          1  Function failed
 185:App/STM32F4-Discovery/Libraries/CMSIS/Include/core_cmInstr.h ****  */
 186:App/STM32F4-Discovery/Libraries/CMSIS/Include/core_cmInstr.h **** #define __STREXB(value, ptr)              __strex(value, ptr)
 187:App/STM32F4-Discovery/Libraries/CMSIS/Include/core_cmInstr.h **** 
 188:App/STM32F4-Discovery/Libraries/CMSIS/Include/core_cmInstr.h **** 
 189:App/STM32F4-Discovery/Libraries/CMSIS/Include/core_cmInstr.h **** /** \brief  STR Exclusive (16 bit)
 190:App/STM32F4-Discovery/Libraries/CMSIS/Include/core_cmInstr.h **** 
 191:App/STM32F4-Discovery/Libraries/CMSIS/Include/core_cmInstr.h ****     This function performs a exclusive STR command for 16 bit values.
 192:App/STM32F4-Discovery/Libraries/CMSIS/Include/core_cmInstr.h **** 
 193:App/STM32F4-Discovery/Libraries/CMSIS/Include/core_cmInstr.h ****     \param [in]  value  Value to store
 194:App/STM32F4-Discovery/Libraries/CMSIS/Include/core_cmInstr.h ****     \param [in]    ptr  Pointer to location
 195:App/STM32F4-Discovery/Libraries/CMSIS/Include/core_cmInstr.h ****     \return          0  Function succeeded
 196:App/STM32F4-Discovery/Libraries/CMSIS/Include/core_cmInstr.h ****     \return          1  Function failed
 197:App/STM32F4-Discovery/Libraries/CMSIS/Include/core_cmInstr.h ****  */
 198:App/STM32F4-Discovery/Libraries/CMSIS/Include/core_cmInstr.h **** #define __STREXH(value, ptr)              __strex(value, ptr)
 199:App/STM32F4-Discovery/Libraries/CMSIS/Include/core_cmInstr.h **** 
 200:App/STM32F4-Discovery/Libraries/CMSIS/Include/core_cmInstr.h **** 
 201:App/STM32F4-Discovery/Libraries/CMSIS/Include/core_cmInstr.h **** /** \brief  STR Exclusive (32 bit)
 202:App/STM32F4-Discovery/Libraries/CMSIS/Include/core_cmInstr.h **** 
 203:App/STM32F4-Discovery/Libraries/CMSIS/Include/core_cmInstr.h ****     This function performs a exclusive STR command for 32 bit values.
 204:App/STM32F4-Discovery/Libraries/CMSIS/Include/core_cmInstr.h **** 
 205:App/STM32F4-Discovery/Libraries/CMSIS/Include/core_cmInstr.h ****     \param [in]  value  Value to store
 206:App/STM32F4-Discovery/Libraries/CMSIS/Include/core_cmInstr.h ****     \param [in]    ptr  Pointer to location
 207:App/STM32F4-Discovery/Libraries/CMSIS/Include/core_cmInstr.h ****     \return          0  Function succeeded
 208:App/STM32F4-Discovery/Libraries/CMSIS/Include/core_cmInstr.h ****     \return          1  Function failed
 209:App/STM32F4-Discovery/Libraries/CMSIS/Include/core_cmInstr.h ****  */
 210:App/STM32F4-Discovery/Libraries/CMSIS/Include/core_cmInstr.h **** #define __STREXW(value, ptr)              __strex(value, ptr)
 211:App/STM32F4-Discovery/Libraries/CMSIS/Include/core_cmInstr.h **** 
 212:App/STM32F4-Discovery/Libraries/CMSIS/Include/core_cmInstr.h **** 
 213:App/STM32F4-Discovery/Libraries/CMSIS/Include/core_cmInstr.h **** /** \brief  Remove the exclusive lock
 214:App/STM32F4-Discovery/Libraries/CMSIS/Include/core_cmInstr.h **** 
 215:App/STM32F4-Discovery/Libraries/CMSIS/Include/core_cmInstr.h ****     This function removes the exclusive lock which is created by LDREX.
 216:App/STM32F4-Discovery/Libraries/CMSIS/Include/core_cmInstr.h **** 
 217:App/STM32F4-Discovery/Libraries/CMSIS/Include/core_cmInstr.h ****  */
 218:App/STM32F4-Discovery/Libraries/CMSIS/Include/core_cmInstr.h **** #define __CLREX                           __clrex
 219:App/STM32F4-Discovery/Libraries/CMSIS/Include/core_cmInstr.h **** 
 220:App/STM32F4-Discovery/Libraries/CMSIS/Include/core_cmInstr.h **** 
 221:App/STM32F4-Discovery/Libraries/CMSIS/Include/core_cmInstr.h **** /** \brief  Signed Saturate
 222:App/STM32F4-Discovery/Libraries/CMSIS/Include/core_cmInstr.h **** 
 223:App/STM32F4-Discovery/Libraries/CMSIS/Include/core_cmInstr.h ****     This function saturates a signed value.
 224:App/STM32F4-Discovery/Libraries/CMSIS/Include/core_cmInstr.h **** 
 225:App/STM32F4-Discovery/Libraries/CMSIS/Include/core_cmInstr.h ****     \param [in]  value  Value to be saturated
 226:App/STM32F4-Discovery/Libraries/CMSIS/Include/core_cmInstr.h ****     \param [in]    sat  Bit position to saturate to (1..32)
 227:App/STM32F4-Discovery/Libraries/CMSIS/Include/core_cmInstr.h ****     \return             Saturated value
 228:App/STM32F4-Discovery/Libraries/CMSIS/Include/core_cmInstr.h ****  */
 229:App/STM32F4-Discovery/Libraries/CMSIS/Include/core_cmInstr.h **** #define __SSAT                            __ssat
 230:App/STM32F4-Discovery/Libraries/CMSIS/Include/core_cmInstr.h **** 
 231:App/STM32F4-Discovery/Libraries/CMSIS/Include/core_cmInstr.h **** 
 232:App/STM32F4-Discovery/Libraries/CMSIS/Include/core_cmInstr.h **** /** \brief  Unsigned Saturate
 233:App/STM32F4-Discovery/Libraries/CMSIS/Include/core_cmInstr.h **** 
 234:App/STM32F4-Discovery/Libraries/CMSIS/Include/core_cmInstr.h ****     This function saturates an unsigned value.
 235:App/STM32F4-Discovery/Libraries/CMSIS/Include/core_cmInstr.h **** 
 236:App/STM32F4-Discovery/Libraries/CMSIS/Include/core_cmInstr.h ****     \param [in]  value  Value to be saturated
 237:App/STM32F4-Discovery/Libraries/CMSIS/Include/core_cmInstr.h ****     \param [in]    sat  Bit position to saturate to (0..31)
 238:App/STM32F4-Discovery/Libraries/CMSIS/Include/core_cmInstr.h ****     \return             Saturated value
 239:App/STM32F4-Discovery/Libraries/CMSIS/Include/core_cmInstr.h ****  */
 240:App/STM32F4-Discovery/Libraries/CMSIS/Include/core_cmInstr.h **** #define __USAT                            __usat
 241:App/STM32F4-Discovery/Libraries/CMSIS/Include/core_cmInstr.h **** 
 242:App/STM32F4-Discovery/Libraries/CMSIS/Include/core_cmInstr.h **** 
 243:App/STM32F4-Discovery/Libraries/CMSIS/Include/core_cmInstr.h **** /** \brief  Count leading zeros
 244:App/STM32F4-Discovery/Libraries/CMSIS/Include/core_cmInstr.h **** 
 245:App/STM32F4-Discovery/Libraries/CMSIS/Include/core_cmInstr.h ****     This function counts the number of leading zeros of a data value.
 246:App/STM32F4-Discovery/Libraries/CMSIS/Include/core_cmInstr.h **** 
 247:App/STM32F4-Discovery/Libraries/CMSIS/Include/core_cmInstr.h ****     \param [in]  value  Value to count the leading zeros
 248:App/STM32F4-Discovery/Libraries/CMSIS/Include/core_cmInstr.h ****     \return             number of leading zeros in value
 249:App/STM32F4-Discovery/Libraries/CMSIS/Include/core_cmInstr.h ****  */
 250:App/STM32F4-Discovery/Libraries/CMSIS/Include/core_cmInstr.h **** #define __CLZ                             __clz 
 251:App/STM32F4-Discovery/Libraries/CMSIS/Include/core_cmInstr.h **** 
 252:App/STM32F4-Discovery/Libraries/CMSIS/Include/core_cmInstr.h **** #endif /* (__CORTEX_M >= 0x03) */
 253:App/STM32F4-Discovery/Libraries/CMSIS/Include/core_cmInstr.h **** 
 254:App/STM32F4-Discovery/Libraries/CMSIS/Include/core_cmInstr.h **** 
 255:App/STM32F4-Discovery/Libraries/CMSIS/Include/core_cmInstr.h **** 
 256:App/STM32F4-Discovery/Libraries/CMSIS/Include/core_cmInstr.h **** #elif defined ( __ICCARM__ ) /*------------------ ICC Compiler -------------------*/
 257:App/STM32F4-Discovery/Libraries/CMSIS/Include/core_cmInstr.h **** /* IAR iccarm specific functions */
 258:App/STM32F4-Discovery/Libraries/CMSIS/Include/core_cmInstr.h **** 
 259:App/STM32F4-Discovery/Libraries/CMSIS/Include/core_cmInstr.h **** #include <cmsis_iar.h>
 260:App/STM32F4-Discovery/Libraries/CMSIS/Include/core_cmInstr.h **** 
 261:App/STM32F4-Discovery/Libraries/CMSIS/Include/core_cmInstr.h **** 
 262:App/STM32F4-Discovery/Libraries/CMSIS/Include/core_cmInstr.h **** #elif defined ( __GNUC__ ) /*------------------ GNU Compiler ---------------------*/
 263:App/STM32F4-Discovery/Libraries/CMSIS/Include/core_cmInstr.h **** /* GNU gcc specific functions */
 264:App/STM32F4-Discovery/Libraries/CMSIS/Include/core_cmInstr.h **** 
 265:App/STM32F4-Discovery/Libraries/CMSIS/Include/core_cmInstr.h **** /** \brief  No Operation
 266:App/STM32F4-Discovery/Libraries/CMSIS/Include/core_cmInstr.h **** 
 267:App/STM32F4-Discovery/Libraries/CMSIS/Include/core_cmInstr.h ****     No Operation does nothing. This instruction can be used for code alignment purposes.
 268:App/STM32F4-Discovery/Libraries/CMSIS/Include/core_cmInstr.h ****  */
 269:App/STM32F4-Discovery/Libraries/CMSIS/Include/core_cmInstr.h **** __attribute__( ( always_inline ) ) static __INLINE void __NOP(void)
 270:App/STM32F4-Discovery/Libraries/CMSIS/Include/core_cmInstr.h **** {
 271:App/STM32F4-Discovery/Libraries/CMSIS/Include/core_cmInstr.h ****   __ASM volatile ("nop");
 272:App/STM32F4-Discovery/Libraries/CMSIS/Include/core_cmInstr.h **** }
 273:App/STM32F4-Discovery/Libraries/CMSIS/Include/core_cmInstr.h **** 
 274:App/STM32F4-Discovery/Libraries/CMSIS/Include/core_cmInstr.h **** 
 275:App/STM32F4-Discovery/Libraries/CMSIS/Include/core_cmInstr.h **** /** \brief  Wait For Interrupt
 276:App/STM32F4-Discovery/Libraries/CMSIS/Include/core_cmInstr.h **** 
 277:App/STM32F4-Discovery/Libraries/CMSIS/Include/core_cmInstr.h ****     Wait For Interrupt is a hint instruction that suspends execution
 278:App/STM32F4-Discovery/Libraries/CMSIS/Include/core_cmInstr.h ****     until one of a number of events occurs.
 279:App/STM32F4-Discovery/Libraries/CMSIS/Include/core_cmInstr.h ****  */
 280:App/STM32F4-Discovery/Libraries/CMSIS/Include/core_cmInstr.h **** __attribute__( ( always_inline ) ) static __INLINE void __WFI(void)
 281:App/STM32F4-Discovery/Libraries/CMSIS/Include/core_cmInstr.h **** {
 282:App/STM32F4-Discovery/Libraries/CMSIS/Include/core_cmInstr.h ****   __ASM volatile ("wfi");
 283:App/STM32F4-Discovery/Libraries/CMSIS/Include/core_cmInstr.h **** }
 284:App/STM32F4-Discovery/Libraries/CMSIS/Include/core_cmInstr.h **** 
 285:App/STM32F4-Discovery/Libraries/CMSIS/Include/core_cmInstr.h **** 
 286:App/STM32F4-Discovery/Libraries/CMSIS/Include/core_cmInstr.h **** /** \brief  Wait For Event
 287:App/STM32F4-Discovery/Libraries/CMSIS/Include/core_cmInstr.h **** 
 288:App/STM32F4-Discovery/Libraries/CMSIS/Include/core_cmInstr.h ****     Wait For Event is a hint instruction that permits the processor to enter
 289:App/STM32F4-Discovery/Libraries/CMSIS/Include/core_cmInstr.h ****     a low-power state until one of a number of events occurs.
 290:App/STM32F4-Discovery/Libraries/CMSIS/Include/core_cmInstr.h ****  */
 291:App/STM32F4-Discovery/Libraries/CMSIS/Include/core_cmInstr.h **** __attribute__( ( always_inline ) ) static __INLINE void __WFE(void)
 292:App/STM32F4-Discovery/Libraries/CMSIS/Include/core_cmInstr.h **** {
 293:App/STM32F4-Discovery/Libraries/CMSIS/Include/core_cmInstr.h ****   __ASM volatile ("wfe");
 294:App/STM32F4-Discovery/Libraries/CMSIS/Include/core_cmInstr.h **** }
 295:App/STM32F4-Discovery/Libraries/CMSIS/Include/core_cmInstr.h **** 
 296:App/STM32F4-Discovery/Libraries/CMSIS/Include/core_cmInstr.h **** 
 297:App/STM32F4-Discovery/Libraries/CMSIS/Include/core_cmInstr.h **** /** \brief  Send Event
 298:App/STM32F4-Discovery/Libraries/CMSIS/Include/core_cmInstr.h **** 
 299:App/STM32F4-Discovery/Libraries/CMSIS/Include/core_cmInstr.h ****     Send Event is a hint instruction. It causes an event to be signaled to the CPU.
 300:App/STM32F4-Discovery/Libraries/CMSIS/Include/core_cmInstr.h ****  */
 301:App/STM32F4-Discovery/Libraries/CMSIS/Include/core_cmInstr.h **** __attribute__( ( always_inline ) ) static __INLINE void __SEV(void)
 302:App/STM32F4-Discovery/Libraries/CMSIS/Include/core_cmInstr.h **** {
 303:App/STM32F4-Discovery/Libraries/CMSIS/Include/core_cmInstr.h ****   __ASM volatile ("sev");
 304:App/STM32F4-Discovery/Libraries/CMSIS/Include/core_cmInstr.h **** }
 305:App/STM32F4-Discovery/Libraries/CMSIS/Include/core_cmInstr.h **** 
 306:App/STM32F4-Discovery/Libraries/CMSIS/Include/core_cmInstr.h **** 
 307:App/STM32F4-Discovery/Libraries/CMSIS/Include/core_cmInstr.h **** /** \brief  Instruction Synchronization Barrier
 308:App/STM32F4-Discovery/Libraries/CMSIS/Include/core_cmInstr.h **** 
 309:App/STM32F4-Discovery/Libraries/CMSIS/Include/core_cmInstr.h ****     Instruction Synchronization Barrier flushes the pipeline in the processor, 
 310:App/STM32F4-Discovery/Libraries/CMSIS/Include/core_cmInstr.h ****     so that all instructions following the ISB are fetched from cache or 
 311:App/STM32F4-Discovery/Libraries/CMSIS/Include/core_cmInstr.h ****     memory, after the instruction has been completed.
 312:App/STM32F4-Discovery/Libraries/CMSIS/Include/core_cmInstr.h ****  */
 313:App/STM32F4-Discovery/Libraries/CMSIS/Include/core_cmInstr.h **** __attribute__( ( always_inline ) ) static __INLINE void __ISB(void)
 314:App/STM32F4-Discovery/Libraries/CMSIS/Include/core_cmInstr.h **** {
 315:App/STM32F4-Discovery/Libraries/CMSIS/Include/core_cmInstr.h ****   __ASM volatile ("isb");
 316:App/STM32F4-Discovery/Libraries/CMSIS/Include/core_cmInstr.h **** }
 317:App/STM32F4-Discovery/Libraries/CMSIS/Include/core_cmInstr.h **** 
 318:App/STM32F4-Discovery/Libraries/CMSIS/Include/core_cmInstr.h **** 
 319:App/STM32F4-Discovery/Libraries/CMSIS/Include/core_cmInstr.h **** /** \brief  Data Synchronization Barrier
 320:App/STM32F4-Discovery/Libraries/CMSIS/Include/core_cmInstr.h **** 
 321:App/STM32F4-Discovery/Libraries/CMSIS/Include/core_cmInstr.h ****     This function acts as a special kind of Data Memory Barrier. 
 322:App/STM32F4-Discovery/Libraries/CMSIS/Include/core_cmInstr.h ****     It completes when all explicit memory accesses before this instruction complete.
 323:App/STM32F4-Discovery/Libraries/CMSIS/Include/core_cmInstr.h ****  */
 324:App/STM32F4-Discovery/Libraries/CMSIS/Include/core_cmInstr.h **** __attribute__( ( always_inline ) ) static __INLINE void __DSB(void)
 325:App/STM32F4-Discovery/Libraries/CMSIS/Include/core_cmInstr.h **** {
 326:App/STM32F4-Discovery/Libraries/CMSIS/Include/core_cmInstr.h ****   __ASM volatile ("dsb");
 327:App/STM32F4-Discovery/Libraries/CMSIS/Include/core_cmInstr.h **** }
 328:App/STM32F4-Discovery/Libraries/CMSIS/Include/core_cmInstr.h **** 
 329:App/STM32F4-Discovery/Libraries/CMSIS/Include/core_cmInstr.h **** 
 330:App/STM32F4-Discovery/Libraries/CMSIS/Include/core_cmInstr.h **** /** \brief  Data Memory Barrier
 331:App/STM32F4-Discovery/Libraries/CMSIS/Include/core_cmInstr.h **** 
 332:App/STM32F4-Discovery/Libraries/CMSIS/Include/core_cmInstr.h ****     This function ensures the apparent order of the explicit memory operations before 
 333:App/STM32F4-Discovery/Libraries/CMSIS/Include/core_cmInstr.h ****     and after the instruction, without ensuring their completion.
 334:App/STM32F4-Discovery/Libraries/CMSIS/Include/core_cmInstr.h ****  */
 335:App/STM32F4-Discovery/Libraries/CMSIS/Include/core_cmInstr.h **** __attribute__( ( always_inline ) ) static __INLINE void __DMB(void)
 336:App/STM32F4-Discovery/Libraries/CMSIS/Include/core_cmInstr.h **** {
 337:App/STM32F4-Discovery/Libraries/CMSIS/Include/core_cmInstr.h ****   __ASM volatile ("dmb");
 338:App/STM32F4-Discovery/Libraries/CMSIS/Include/core_cmInstr.h **** }
 339:App/STM32F4-Discovery/Libraries/CMSIS/Include/core_cmInstr.h **** 
 340:App/STM32F4-Discovery/Libraries/CMSIS/Include/core_cmInstr.h **** 
 341:App/STM32F4-Discovery/Libraries/CMSIS/Include/core_cmInstr.h **** /** \brief  Reverse byte order (32 bit)
 342:App/STM32F4-Discovery/Libraries/CMSIS/Include/core_cmInstr.h **** 
 343:App/STM32F4-Discovery/Libraries/CMSIS/Include/core_cmInstr.h ****     This function reverses the byte order in integer value.
 344:App/STM32F4-Discovery/Libraries/CMSIS/Include/core_cmInstr.h **** 
 345:App/STM32F4-Discovery/Libraries/CMSIS/Include/core_cmInstr.h ****     \param [in]    value  Value to reverse
 346:App/STM32F4-Discovery/Libraries/CMSIS/Include/core_cmInstr.h ****     \return               Reversed value
 347:App/STM32F4-Discovery/Libraries/CMSIS/Include/core_cmInstr.h ****  */
 348:App/STM32F4-Discovery/Libraries/CMSIS/Include/core_cmInstr.h **** __attribute__( ( always_inline ) ) static __INLINE uint32_t __REV(uint32_t value)
 349:App/STM32F4-Discovery/Libraries/CMSIS/Include/core_cmInstr.h **** {
 350:App/STM32F4-Discovery/Libraries/CMSIS/Include/core_cmInstr.h ****   uint32_t result;
 351:App/STM32F4-Discovery/Libraries/CMSIS/Include/core_cmInstr.h ****   
 352:App/STM32F4-Discovery/Libraries/CMSIS/Include/core_cmInstr.h ****   __ASM volatile ("rev %0, %1" : "=r" (result) : "r" (value) );
 159              		.loc 2 352 0
 160 00c2 BA6D     		ldr	r2, [r7, #88]
 161              	@ 352 "App/STM32F4-Discovery/Libraries/CMSIS/Include/core_cmInstr.h" 1
 162 00c4 12BA     		rev r2, r2
 163              	@ 0 "" 2
 164              		.thumb
 165 00c6 7A65     		str	r2, [r7, #84]
 353:App/STM32F4-Discovery/Libraries/CMSIS/Include/core_cmInstr.h ****   return(result);
 166              		.loc 2 353 0
 167 00c8 7A6D     		ldr	r2, [r7, #84]
 168              	.LBE19:
 169              	.LBE18:
 170              		.loc 1 140 0
 171 00ca 1A60     		str	r2, [r3]
 141:App/STM32F4-Discovery/Libraries/STM32F4xx_StdPeriph_Driver/src/stm32f4xx_hash_md5.c ****     outputaddr+=4;
 172              		.loc 1 141 0
 173 00cc FB6D     		ldr	r3, [r7, #92]
 174 00ce 0433     		adds	r3, r3, #4
 175 00d0 FB65     		str	r3, [r7, #92]
 142:App/STM32F4-Discovery/Libraries/STM32F4xx_StdPeriph_Driver/src/stm32f4xx_hash_md5.c ****     *(uint32_t*)(outputaddr)  = __REV(MD5_MessageDigest.Data[1]);
 176              		.loc 1 142 0
 177 00d2 FB6D     		ldr	r3, [r7, #92]
 178 00d4 FA69     		ldr	r2, [r7, #28]
 179 00d6 3A65     		str	r2, [r7, #80]
 180              	.LBB20:
 181              	.LBB21:
 352:App/STM32F4-Discovery/Libraries/CMSIS/Include/core_cmInstr.h ****   __ASM volatile ("rev %0, %1" : "=r" (result) : "r" (value) );
 182              		.loc 2 352 0
 183 00d8 3A6D     		ldr	r2, [r7, #80]
 184              	@ 352 "App/STM32F4-Discovery/Libraries/CMSIS/Include/core_cmInstr.h" 1
 185 00da 12BA     		rev r2, r2
 186              	@ 0 "" 2
 187              		.thumb
 188 00dc FA64     		str	r2, [r7, #76]
 189              		.loc 2 353 0
 190 00de FA6C     		ldr	r2, [r7, #76]
 191              	.LBE21:
 192              	.LBE20:
 193              		.loc 1 142 0
 194 00e0 1A60     		str	r2, [r3]
 143:App/STM32F4-Discovery/Libraries/STM32F4xx_StdPeriph_Driver/src/stm32f4xx_hash_md5.c ****     outputaddr+=4;
 195              		.loc 1 143 0
 196 00e2 FB6D     		ldr	r3, [r7, #92]
 197 00e4 0433     		adds	r3, r3, #4
 198 00e6 FB65     		str	r3, [r7, #92]
 144:App/STM32F4-Discovery/Libraries/STM32F4xx_StdPeriph_Driver/src/stm32f4xx_hash_md5.c ****     *(uint32_t*)(outputaddr)  = __REV(MD5_MessageDigest.Data[2]);
 199              		.loc 1 144 0
 200 00e8 FB6D     		ldr	r3, [r7, #92]
 201 00ea 3A6A     		ldr	r2, [r7, #32]
 202 00ec BA64     		str	r2, [r7, #72]
 203              	.LBB22:
 204              	.LBB23:
 352:App/STM32F4-Discovery/Libraries/CMSIS/Include/core_cmInstr.h ****   __ASM volatile ("rev %0, %1" : "=r" (result) : "r" (value) );
 205              		.loc 2 352 0
 206 00ee BA6C     		ldr	r2, [r7, #72]
 207              	@ 352 "App/STM32F4-Discovery/Libraries/CMSIS/Include/core_cmInstr.h" 1
 208 00f0 12BA     		rev r2, r2
 209              	@ 0 "" 2
 210              		.thumb
 211 00f2 7A64     		str	r2, [r7, #68]
 212              		.loc 2 353 0
 213 00f4 7A6C     		ldr	r2, [r7, #68]
 214              	.LBE23:
 215              	.LBE22:
 216              		.loc 1 144 0
 217 00f6 1A60     		str	r2, [r3]
 145:App/STM32F4-Discovery/Libraries/STM32F4xx_StdPeriph_Driver/src/stm32f4xx_hash_md5.c ****     outputaddr+=4;
 218              		.loc 1 145 0
 219 00f8 FB6D     		ldr	r3, [r7, #92]
 220 00fa 0433     		adds	r3, r3, #4
 221 00fc FB65     		str	r3, [r7, #92]
 146:App/STM32F4-Discovery/Libraries/STM32F4xx_StdPeriph_Driver/src/stm32f4xx_hash_md5.c ****     *(uint32_t*)(outputaddr)  = __REV(MD5_MessageDigest.Data[3]);
 222              		.loc 1 146 0
 223 00fe FB6D     		ldr	r3, [r7, #92]
 224 0100 7A6A     		ldr	r2, [r7, #36]
 225 0102 3A64     		str	r2, [r7, #64]
 226              	.LBB24:
 227              	.LBB25:
 352:App/STM32F4-Discovery/Libraries/CMSIS/Include/core_cmInstr.h ****   __ASM volatile ("rev %0, %1" : "=r" (result) : "r" (value) );
 228              		.loc 2 352 0
 229 0104 3A6C     		ldr	r2, [r7, #64]
 230              	@ 352 "App/STM32F4-Discovery/Libraries/CMSIS/Include/core_cmInstr.h" 1
 231 0106 12BA     		rev r2, r2
 232              	@ 0 "" 2
 233              		.thumb
 234 0108 FA63     		str	r2, [r7, #60]
 235              		.loc 2 353 0
 236 010a FA6B     		ldr	r2, [r7, #60]
 237              	.LBE25:
 238              	.LBE24:
 239              		.loc 1 146 0
 240 010c 1A60     		str	r2, [r3]
 241              	.L7:
 147:App/STM32F4-Discovery/Libraries/STM32F4xx_StdPeriph_Driver/src/stm32f4xx_hash_md5.c ****   }
 148:App/STM32F4-Discovery/Libraries/STM32F4xx_StdPeriph_Driver/src/stm32f4xx_hash_md5.c ****   return status; 
 242              		.loc 1 148 0
 243 010e 97F86B30 		ldrb	r3, [r7, #107]	@ zero_extendqisi2
 149:App/STM32F4-Discovery/Libraries/STM32F4xx_StdPeriph_Driver/src/stm32f4xx_hash_md5.c **** }
 244              		.loc 1 149 0
 245 0112 1846     		mov	r0, r3
 246 0114 7037     		adds	r7, r7, #112
 247 0116 BD46     		mov	sp, r7
 248              		@ sp needed
 249 0118 80BD     		pop	{r7, pc}
 250              		.cfi_endproc
 251              	.LFE110:
 253 011a 00BF     		.section	.text.HMAC_MD5,"ax",%progbits
 254              		.align	2
 255              		.global	HMAC_MD5
 256              		.thumb
 257              		.thumb_func
 259              	HMAC_MD5:
 260              	.LFB111:
 150:App/STM32F4-Discovery/Libraries/STM32F4xx_StdPeriph_Driver/src/stm32f4xx_hash_md5.c **** 
 151:App/STM32F4-Discovery/Libraries/STM32F4xx_StdPeriph_Driver/src/stm32f4xx_hash_md5.c **** /**
 152:App/STM32F4-Discovery/Libraries/STM32F4xx_StdPeriph_Driver/src/stm32f4xx_hash_md5.c ****   * @brief  Compute the HMAC MD5 digest.
 153:App/STM32F4-Discovery/Libraries/STM32F4xx_StdPeriph_Driver/src/stm32f4xx_hash_md5.c ****   * @param  Key: pointer to the Key used for HMAC.
 154:App/STM32F4-Discovery/Libraries/STM32F4xx_StdPeriph_Driver/src/stm32f4xx_hash_md5.c ****   * @param  Keylen: length of the Key used for HMAC.
 155:App/STM32F4-Discovery/Libraries/STM32F4xx_StdPeriph_Driver/src/stm32f4xx_hash_md5.c ****   * @param  Input: pointer to the Input buffer to be treated.
 156:App/STM32F4-Discovery/Libraries/STM32F4xx_StdPeriph_Driver/src/stm32f4xx_hash_md5.c ****   * @param  Ilen: length of the Input buffer.
 157:App/STM32F4-Discovery/Libraries/STM32F4xx_StdPeriph_Driver/src/stm32f4xx_hash_md5.c ****   * @param  Output: the returned digest  
 158:App/STM32F4-Discovery/Libraries/STM32F4xx_StdPeriph_Driver/src/stm32f4xx_hash_md5.c ****   * @retval An ErrorStatus enumeration value:
 159:App/STM32F4-Discovery/Libraries/STM32F4xx_StdPeriph_Driver/src/stm32f4xx_hash_md5.c ****   *          - SUCCESS: digest computation done
 160:App/STM32F4-Discovery/Libraries/STM32F4xx_StdPeriph_Driver/src/stm32f4xx_hash_md5.c ****   *          - ERROR: digest computation failed
 161:App/STM32F4-Discovery/Libraries/STM32F4xx_StdPeriph_Driver/src/stm32f4xx_hash_md5.c ****   */
 162:App/STM32F4-Discovery/Libraries/STM32F4xx_StdPeriph_Driver/src/stm32f4xx_hash_md5.c **** ErrorStatus HMAC_MD5(uint8_t *Key, uint32_t Keylen, uint8_t *Input, 
 163:App/STM32F4-Discovery/Libraries/STM32F4xx_StdPeriph_Driver/src/stm32f4xx_hash_md5.c ****                      uint32_t Ilen, uint8_t Output[16])
 164:App/STM32F4-Discovery/Libraries/STM32F4xx_StdPeriph_Driver/src/stm32f4xx_hash_md5.c **** {
 261              		.loc 1 164 0
 262              		.cfi_startproc
 263              		@ args = 4, pretend = 0, frame = 120
 264              		@ frame_needed = 1, uses_anonymous_args = 0
 265 0000 80B5     		push	{r7, lr}
 266              	.LCFI3:
 267              		.cfi_def_cfa_offset 8
 268              		.cfi_offset 7, -8
 269              		.cfi_offset 14, -4
 270 0002 9EB0     		sub	sp, sp, #120
 271              	.LCFI4:
 272              		.cfi_def_cfa_offset 128
 273 0004 00AF     		add	r7, sp, #0
 274              	.LCFI5:
 275              		.cfi_def_cfa_register 7
 276 0006 F860     		str	r0, [r7, #12]
 277 0008 B960     		str	r1, [r7, #8]
 278 000a 7A60     		str	r2, [r7, #4]
 279 000c 3B60     		str	r3, [r7]
 165:App/STM32F4-Discovery/Libraries/STM32F4xx_StdPeriph_Driver/src/stm32f4xx_hash_md5.c ****   HASH_InitTypeDef MD5_HASH_InitStructure;
 166:App/STM32F4-Discovery/Libraries/STM32F4xx_StdPeriph_Driver/src/stm32f4xx_hash_md5.c ****   HASH_MsgDigest MD5_MessageDigest;
 167:App/STM32F4-Discovery/Libraries/STM32F4xx_StdPeriph_Driver/src/stm32f4xx_hash_md5.c ****   __IO uint16_t nbvalidbitsdata = 0;
 280              		.loc 1 167 0
 281 000e 0023     		movs	r3, #0
 282 0010 7B83     		strh	r3, [r7, #26]	@ movhi
 168:App/STM32F4-Discovery/Libraries/STM32F4xx_StdPeriph_Driver/src/stm32f4xx_hash_md5.c ****   __IO uint16_t nbvalidbitskey = 0;
 283              		.loc 1 168 0
 284 0012 0023     		movs	r3, #0
 285 0014 3B83     		strh	r3, [r7, #24]	@ movhi
 169:App/STM32F4-Discovery/Libraries/STM32F4xx_StdPeriph_Driver/src/stm32f4xx_hash_md5.c ****   uint32_t i = 0;
 286              		.loc 1 169 0
 287 0016 0023     		movs	r3, #0
 288 0018 7B67     		str	r3, [r7, #116]
 170:App/STM32F4-Discovery/Libraries/STM32F4xx_StdPeriph_Driver/src/stm32f4xx_hash_md5.c ****   __IO uint32_t counter = 0;
 289              		.loc 1 170 0
 290 001a 0023     		movs	r3, #0
 291 001c 7B61     		str	r3, [r7, #20]
 171:App/STM32F4-Discovery/Libraries/STM32F4xx_StdPeriph_Driver/src/stm32f4xx_hash_md5.c ****   uint32_t busystatus = 0;
 292              		.loc 1 171 0
 293 001e 0023     		movs	r3, #0
 294 0020 7B66     		str	r3, [r7, #100]
 172:App/STM32F4-Discovery/Libraries/STM32F4xx_StdPeriph_Driver/src/stm32f4xx_hash_md5.c ****   ErrorStatus status = SUCCESS;
 295              		.loc 1 172 0
 296 0022 0123     		movs	r3, #1
 297 0024 87F87330 		strb	r3, [r7, #115]
 173:App/STM32F4-Discovery/Libraries/STM32F4xx_StdPeriph_Driver/src/stm32f4xx_hash_md5.c ****   uint32_t keyaddr    = (uint32_t)Key;
 298              		.loc 1 173 0
 299 0028 FB68     		ldr	r3, [r7, #12]
 300 002a FB66     		str	r3, [r7, #108]
 174:App/STM32F4-Discovery/Libraries/STM32F4xx_StdPeriph_Driver/src/stm32f4xx_hash_md5.c ****   uint32_t inputaddr  = (uint32_t)Input;
 301              		.loc 1 174 0
 302 002c 7B68     		ldr	r3, [r7, #4]
 303 002e BB66     		str	r3, [r7, #104]
 175:App/STM32F4-Discovery/Libraries/STM32F4xx_StdPeriph_Driver/src/stm32f4xx_hash_md5.c ****   uint32_t outputaddr = (uint32_t)Output;
 304              		.loc 1 175 0
 305 0030 D7F88030 		ldr	r3, [r7, #128]
 306 0034 3B66     		str	r3, [r7, #96]
 176:App/STM32F4-Discovery/Libraries/STM32F4xx_StdPeriph_Driver/src/stm32f4xx_hash_md5.c **** 
 177:App/STM32F4-Discovery/Libraries/STM32F4xx_StdPeriph_Driver/src/stm32f4xx_hash_md5.c ****   /* Number of valid bits in last word of the Input data */
 178:App/STM32F4-Discovery/Libraries/STM32F4xx_StdPeriph_Driver/src/stm32f4xx_hash_md5.c ****   nbvalidbitsdata = 8 * (Ilen % 4);
 307              		.loc 1 178 0
 308 0036 3B68     		ldr	r3, [r7]
 309 0038 9BB2     		uxth	r3, r3
 310 003a 03F00303 		and	r3, r3, #3
 311 003e 9BB2     		uxth	r3, r3
 312 0040 DB00     		lsls	r3, r3, #3
 313 0042 9BB2     		uxth	r3, r3
 314 0044 7B83     		strh	r3, [r7, #26]	@ movhi
 179:App/STM32F4-Discovery/Libraries/STM32F4xx_StdPeriph_Driver/src/stm32f4xx_hash_md5.c **** 
 180:App/STM32F4-Discovery/Libraries/STM32F4xx_StdPeriph_Driver/src/stm32f4xx_hash_md5.c ****   /* Number of valid bits in last word of the Key */
 181:App/STM32F4-Discovery/Libraries/STM32F4xx_StdPeriph_Driver/src/stm32f4xx_hash_md5.c ****   nbvalidbitskey = 8 * (Keylen % 4);
 315              		.loc 1 181 0
 316 0046 BB68     		ldr	r3, [r7, #8]
 317 0048 9BB2     		uxth	r3, r3
 318 004a 03F00303 		and	r3, r3, #3
 319 004e 9BB2     		uxth	r3, r3
 320 0050 DB00     		lsls	r3, r3, #3
 321 0052 9BB2     		uxth	r3, r3
 322 0054 3B83     		strh	r3, [r7, #24]	@ movhi
 182:App/STM32F4-Discovery/Libraries/STM32F4xx_StdPeriph_Driver/src/stm32f4xx_hash_md5.c ****    
 183:App/STM32F4-Discovery/Libraries/STM32F4xx_StdPeriph_Driver/src/stm32f4xx_hash_md5.c ****   /* HASH peripheral initialization */
 184:App/STM32F4-Discovery/Libraries/STM32F4xx_StdPeriph_Driver/src/stm32f4xx_hash_md5.c ****   HASH_DeInit();
 323              		.loc 1 184 0
 324 0056 FFF7FEFF 		bl	HASH_DeInit
 185:App/STM32F4-Discovery/Libraries/STM32F4xx_StdPeriph_Driver/src/stm32f4xx_hash_md5.c **** 
 186:App/STM32F4-Discovery/Libraries/STM32F4xx_StdPeriph_Driver/src/stm32f4xx_hash_md5.c ****   /* HASH Configuration */
 187:App/STM32F4-Discovery/Libraries/STM32F4xx_StdPeriph_Driver/src/stm32f4xx_hash_md5.c ****   MD5_HASH_InitStructure.HASH_AlgoSelection = HASH_AlgoSelection_MD5;
 325              		.loc 1 187 0
 326 005a 8023     		movs	r3, #128
 327 005c 3B63     		str	r3, [r7, #48]
 188:App/STM32F4-Discovery/Libraries/STM32F4xx_StdPeriph_Driver/src/stm32f4xx_hash_md5.c ****   MD5_HASH_InitStructure.HASH_AlgoMode = HASH_AlgoMode_HMAC;
 328              		.loc 1 188 0
 329 005e 4023     		movs	r3, #64
 330 0060 7B63     		str	r3, [r7, #52]
 189:App/STM32F4-Discovery/Libraries/STM32F4xx_StdPeriph_Driver/src/stm32f4xx_hash_md5.c ****   MD5_HASH_InitStructure.HASH_DataType = HASH_DataType_8b;
 331              		.loc 1 189 0
 332 0062 2023     		movs	r3, #32
 333 0064 BB63     		str	r3, [r7, #56]
 190:App/STM32F4-Discovery/Libraries/STM32F4xx_StdPeriph_Driver/src/stm32f4xx_hash_md5.c ****   if(Keylen > 64)
 334              		.loc 1 190 0
 335 0066 BB68     		ldr	r3, [r7, #8]
 336 0068 402B     		cmp	r3, #64
 337 006a 03D9     		bls	.L14
 191:App/STM32F4-Discovery/Libraries/STM32F4xx_StdPeriph_Driver/src/stm32f4xx_hash_md5.c ****   {
 192:App/STM32F4-Discovery/Libraries/STM32F4xx_StdPeriph_Driver/src/stm32f4xx_hash_md5.c ****     /* HMAC long Key */
 193:App/STM32F4-Discovery/Libraries/STM32F4xx_StdPeriph_Driver/src/stm32f4xx_hash_md5.c ****     MD5_HASH_InitStructure.HASH_HMACKeyType = HASH_HMACKeyType_LongKey;
 338              		.loc 1 193 0
 339 006c 4FF48033 		mov	r3, #65536
 340 0070 FB63     		str	r3, [r7, #60]
 341 0072 01E0     		b	.L15
 342              	.L14:
 194:App/STM32F4-Discovery/Libraries/STM32F4xx_StdPeriph_Driver/src/stm32f4xx_hash_md5.c ****   }
 195:App/STM32F4-Discovery/Libraries/STM32F4xx_StdPeriph_Driver/src/stm32f4xx_hash_md5.c ****   else
 196:App/STM32F4-Discovery/Libraries/STM32F4xx_StdPeriph_Driver/src/stm32f4xx_hash_md5.c ****   {
 197:App/STM32F4-Discovery/Libraries/STM32F4xx_StdPeriph_Driver/src/stm32f4xx_hash_md5.c ****     /* HMAC short Key */
 198:App/STM32F4-Discovery/Libraries/STM32F4xx_StdPeriph_Driver/src/stm32f4xx_hash_md5.c ****     MD5_HASH_InitStructure.HASH_HMACKeyType = HASH_HMACKeyType_ShortKey;
 343              		.loc 1 198 0
 344 0074 0023     		movs	r3, #0
 345 0076 FB63     		str	r3, [r7, #60]
 346              	.L15:
 199:App/STM32F4-Discovery/Libraries/STM32F4xx_StdPeriph_Driver/src/stm32f4xx_hash_md5.c ****   }
 200:App/STM32F4-Discovery/Libraries/STM32F4xx_StdPeriph_Driver/src/stm32f4xx_hash_md5.c ****   HASH_Init(&MD5_HASH_InitStructure);
 347              		.loc 1 200 0
 348 0078 07F13003 		add	r3, r7, #48
 349 007c 1846     		mov	r0, r3
 350 007e FFF7FEFF 		bl	HASH_Init
 201:App/STM32F4-Discovery/Libraries/STM32F4xx_StdPeriph_Driver/src/stm32f4xx_hash_md5.c **** 
 202:App/STM32F4-Discovery/Libraries/STM32F4xx_StdPeriph_Driver/src/stm32f4xx_hash_md5.c ****   /* Configure the number of valid bits in last word of the Key */
 203:App/STM32F4-Discovery/Libraries/STM32F4xx_StdPeriph_Driver/src/stm32f4xx_hash_md5.c ****   HASH_SetLastWordValidBitsNbr(nbvalidbitskey);
 351              		.loc 1 203 0
 352 0082 3B8B     		ldrh	r3, [r7, #24]	@ movhi
 353 0084 9BB2     		uxth	r3, r3
 354 0086 1846     		mov	r0, r3
 355 0088 FFF7FEFF 		bl	HASH_SetLastWordValidBitsNbr
 204:App/STM32F4-Discovery/Libraries/STM32F4xx_StdPeriph_Driver/src/stm32f4xx_hash_md5.c **** 
 205:App/STM32F4-Discovery/Libraries/STM32F4xx_StdPeriph_Driver/src/stm32f4xx_hash_md5.c ****   /* Write the Key */
 206:App/STM32F4-Discovery/Libraries/STM32F4xx_StdPeriph_Driver/src/stm32f4xx_hash_md5.c ****   for(i=0; i<Keylen; i+=4)
 356              		.loc 1 206 0
 357 008c 0023     		movs	r3, #0
 358 008e 7B67     		str	r3, [r7, #116]
 359 0090 0AE0     		b	.L16
 360              	.L17:
 207:App/STM32F4-Discovery/Libraries/STM32F4xx_StdPeriph_Driver/src/stm32f4xx_hash_md5.c ****   {
 208:App/STM32F4-Discovery/Libraries/STM32F4xx_StdPeriph_Driver/src/stm32f4xx_hash_md5.c ****     HASH_DataIn(*(uint32_t*)keyaddr);
 361              		.loc 1 208 0 discriminator 2
 362 0092 FB6E     		ldr	r3, [r7, #108]
 363 0094 1B68     		ldr	r3, [r3]
 364 0096 1846     		mov	r0, r3
 365 0098 FFF7FEFF 		bl	HASH_DataIn
 209:App/STM32F4-Discovery/Libraries/STM32F4xx_StdPeriph_Driver/src/stm32f4xx_hash_md5.c ****     keyaddr+=4;
 366              		.loc 1 209 0 discriminator 2
 367 009c FB6E     		ldr	r3, [r7, #108]
 368 009e 0433     		adds	r3, r3, #4
 369 00a0 FB66     		str	r3, [r7, #108]
 206:App/STM32F4-Discovery/Libraries/STM32F4xx_StdPeriph_Driver/src/stm32f4xx_hash_md5.c ****   for(i=0; i<Keylen; i+=4)
 370              		.loc 1 206 0 discriminator 2
 371 00a2 7B6F     		ldr	r3, [r7, #116]
 372 00a4 0433     		adds	r3, r3, #4
 373 00a6 7B67     		str	r3, [r7, #116]
 374              	.L16:
 206:App/STM32F4-Discovery/Libraries/STM32F4xx_StdPeriph_Driver/src/stm32f4xx_hash_md5.c ****   for(i=0; i<Keylen; i+=4)
 375              		.loc 1 206 0 is_stmt 0 discriminator 1
 376 00a8 7A6F     		ldr	r2, [r7, #116]
 377 00aa BB68     		ldr	r3, [r7, #8]
 378 00ac 9A42     		cmp	r2, r3
 379 00ae F0D3     		bcc	.L17
 210:App/STM32F4-Discovery/Libraries/STM32F4xx_StdPeriph_Driver/src/stm32f4xx_hash_md5.c ****   }
 211:App/STM32F4-Discovery/Libraries/STM32F4xx_StdPeriph_Driver/src/stm32f4xx_hash_md5.c ****   
 212:App/STM32F4-Discovery/Libraries/STM32F4xx_StdPeriph_Driver/src/stm32f4xx_hash_md5.c ****   /* Start the HASH processor */
 213:App/STM32F4-Discovery/Libraries/STM32F4xx_StdPeriph_Driver/src/stm32f4xx_hash_md5.c ****   HASH_StartDigest();
 380              		.loc 1 213 0 is_stmt 1
 381 00b0 FFF7FEFF 		bl	HASH_StartDigest
 382              	.L19:
 214:App/STM32F4-Discovery/Libraries/STM32F4xx_StdPeriph_Driver/src/stm32f4xx_hash_md5.c **** 
 215:App/STM32F4-Discovery/Libraries/STM32F4xx_StdPeriph_Driver/src/stm32f4xx_hash_md5.c ****   /* wait until the Busy flag is RESET */
 216:App/STM32F4-Discovery/Libraries/STM32F4xx_StdPeriph_Driver/src/stm32f4xx_hash_md5.c ****   do
 217:App/STM32F4-Discovery/Libraries/STM32F4xx_StdPeriph_Driver/src/stm32f4xx_hash_md5.c ****   {
 218:App/STM32F4-Discovery/Libraries/STM32F4xx_StdPeriph_Driver/src/stm32f4xx_hash_md5.c ****     busystatus = HASH_GetFlagStatus(HASH_FLAG_BUSY);
 383              		.loc 1 218 0 discriminator 1
 384 00b4 0820     		movs	r0, #8
 385 00b6 FFF7FEFF 		bl	HASH_GetFlagStatus
 386 00ba 0346     		mov	r3, r0
 387 00bc 7B66     		str	r3, [r7, #100]
 219:App/STM32F4-Discovery/Libraries/STM32F4xx_StdPeriph_Driver/src/stm32f4xx_hash_md5.c ****     counter++;
 388              		.loc 1 219 0 discriminator 1
 389 00be 7B69     		ldr	r3, [r7, #20]
 390 00c0 0133     		adds	r3, r3, #1
 391 00c2 7B61     		str	r3, [r7, #20]
 220:App/STM32F4-Discovery/Libraries/STM32F4xx_StdPeriph_Driver/src/stm32f4xx_hash_md5.c ****   }while ((counter != MD5BUSY_TIMEOUT) && (busystatus != RESET));
 392              		.loc 1 220 0 discriminator 1
 393 00c4 7B69     		ldr	r3, [r7, #20]
 394 00c6 B3F5803F 		cmp	r3, #65536
 395 00ca 02D0     		beq	.L18
 396 00cc 7B6E     		ldr	r3, [r7, #100]
 397 00ce 002B     		cmp	r3, #0
 398 00d0 F0D1     		bne	.L19
 399              	.L18:
 221:App/STM32F4-Discovery/Libraries/STM32F4xx_StdPeriph_Driver/src/stm32f4xx_hash_md5.c **** 
 222:App/STM32F4-Discovery/Libraries/STM32F4xx_StdPeriph_Driver/src/stm32f4xx_hash_md5.c ****   if (busystatus != RESET)
 400              		.loc 1 222 0
 401 00d2 7B6E     		ldr	r3, [r7, #100]
 402 00d4 002B     		cmp	r3, #0
 403 00d6 03D0     		beq	.L20
 223:App/STM32F4-Discovery/Libraries/STM32F4xx_StdPeriph_Driver/src/stm32f4xx_hash_md5.c ****   {
 224:App/STM32F4-Discovery/Libraries/STM32F4xx_StdPeriph_Driver/src/stm32f4xx_hash_md5.c ****      status = ERROR;
 404              		.loc 1 224 0
 405 00d8 0023     		movs	r3, #0
 406 00da 87F87330 		strb	r3, [r7, #115]
 407 00de 91E0     		b	.L21
 408              	.L20:
 225:App/STM32F4-Discovery/Libraries/STM32F4xx_StdPeriph_Driver/src/stm32f4xx_hash_md5.c ****   }
 226:App/STM32F4-Discovery/Libraries/STM32F4xx_StdPeriph_Driver/src/stm32f4xx_hash_md5.c ****   else
 227:App/STM32F4-Discovery/Libraries/STM32F4xx_StdPeriph_Driver/src/stm32f4xx_hash_md5.c ****   {
 228:App/STM32F4-Discovery/Libraries/STM32F4xx_StdPeriph_Driver/src/stm32f4xx_hash_md5.c ****     /* Configure the number of valid bits in last word of the Input data */
 229:App/STM32F4-Discovery/Libraries/STM32F4xx_StdPeriph_Driver/src/stm32f4xx_hash_md5.c ****     HASH_SetLastWordValidBitsNbr(nbvalidbitsdata);
 409              		.loc 1 229 0
 410 00e0 7B8B     		ldrh	r3, [r7, #26]	@ movhi
 411 00e2 9BB2     		uxth	r3, r3
 412 00e4 1846     		mov	r0, r3
 413 00e6 FFF7FEFF 		bl	HASH_SetLastWordValidBitsNbr
 230:App/STM32F4-Discovery/Libraries/STM32F4xx_StdPeriph_Driver/src/stm32f4xx_hash_md5.c **** 
 231:App/STM32F4-Discovery/Libraries/STM32F4xx_StdPeriph_Driver/src/stm32f4xx_hash_md5.c ****     /* Write the Input block in the IN FIFO */
 232:App/STM32F4-Discovery/Libraries/STM32F4xx_StdPeriph_Driver/src/stm32f4xx_hash_md5.c ****     for(i=0; i<Ilen; i+=4)
 414              		.loc 1 232 0
 415 00ea 0023     		movs	r3, #0
 416 00ec 7B67     		str	r3, [r7, #116]
 417 00ee 0AE0     		b	.L22
 418              	.L23:
 233:App/STM32F4-Discovery/Libraries/STM32F4xx_StdPeriph_Driver/src/stm32f4xx_hash_md5.c ****     {
 234:App/STM32F4-Discovery/Libraries/STM32F4xx_StdPeriph_Driver/src/stm32f4xx_hash_md5.c ****       HASH_DataIn(*(uint32_t*)inputaddr);
 419              		.loc 1 234 0 discriminator 2
 420 00f0 BB6E     		ldr	r3, [r7, #104]
 421 00f2 1B68     		ldr	r3, [r3]
 422 00f4 1846     		mov	r0, r3
 423 00f6 FFF7FEFF 		bl	HASH_DataIn
 235:App/STM32F4-Discovery/Libraries/STM32F4xx_StdPeriph_Driver/src/stm32f4xx_hash_md5.c ****       inputaddr+=4;
 424              		.loc 1 235 0 discriminator 2
 425 00fa BB6E     		ldr	r3, [r7, #104]
 426 00fc 0433     		adds	r3, r3, #4
 427 00fe BB66     		str	r3, [r7, #104]
 232:App/STM32F4-Discovery/Libraries/STM32F4xx_StdPeriph_Driver/src/stm32f4xx_hash_md5.c ****     for(i=0; i<Ilen; i+=4)
 428              		.loc 1 232 0 discriminator 2
 429 0100 7B6F     		ldr	r3, [r7, #116]
 430 0102 0433     		adds	r3, r3, #4
 431 0104 7B67     		str	r3, [r7, #116]
 432              	.L22:
 232:App/STM32F4-Discovery/Libraries/STM32F4xx_StdPeriph_Driver/src/stm32f4xx_hash_md5.c ****     for(i=0; i<Ilen; i+=4)
 433              		.loc 1 232 0 is_stmt 0 discriminator 1
 434 0106 7A6F     		ldr	r2, [r7, #116]
 435 0108 3B68     		ldr	r3, [r7]
 436 010a 9A42     		cmp	r2, r3
 437 010c F0D3     		bcc	.L23
 236:App/STM32F4-Discovery/Libraries/STM32F4xx_StdPeriph_Driver/src/stm32f4xx_hash_md5.c ****     }
 237:App/STM32F4-Discovery/Libraries/STM32F4xx_StdPeriph_Driver/src/stm32f4xx_hash_md5.c **** 
 238:App/STM32F4-Discovery/Libraries/STM32F4xx_StdPeriph_Driver/src/stm32f4xx_hash_md5.c ****     /* Start the HASH processor */
 239:App/STM32F4-Discovery/Libraries/STM32F4xx_StdPeriph_Driver/src/stm32f4xx_hash_md5.c ****     HASH_StartDigest();
 438              		.loc 1 239 0 is_stmt 1
 439 010e FFF7FEFF 		bl	HASH_StartDigest
 240:App/STM32F4-Discovery/Libraries/STM32F4xx_StdPeriph_Driver/src/stm32f4xx_hash_md5.c **** 
 241:App/STM32F4-Discovery/Libraries/STM32F4xx_StdPeriph_Driver/src/stm32f4xx_hash_md5.c ****     /* wait until the Busy flag is RESET */
 242:App/STM32F4-Discovery/Libraries/STM32F4xx_StdPeriph_Driver/src/stm32f4xx_hash_md5.c ****     counter =0;
 440              		.loc 1 242 0
 441 0112 0023     		movs	r3, #0
 442 0114 7B61     		str	r3, [r7, #20]
 443              	.L25:
 243:App/STM32F4-Discovery/Libraries/STM32F4xx_StdPeriph_Driver/src/stm32f4xx_hash_md5.c ****     do
 244:App/STM32F4-Discovery/Libraries/STM32F4xx_StdPeriph_Driver/src/stm32f4xx_hash_md5.c ****     {
 245:App/STM32F4-Discovery/Libraries/STM32F4xx_StdPeriph_Driver/src/stm32f4xx_hash_md5.c ****        busystatus = HASH_GetFlagStatus(HASH_FLAG_BUSY);
 444              		.loc 1 245 0 discriminator 1
 445 0116 0820     		movs	r0, #8
 446 0118 FFF7FEFF 		bl	HASH_GetFlagStatus
 447 011c 0346     		mov	r3, r0
 448 011e 7B66     		str	r3, [r7, #100]
 246:App/STM32F4-Discovery/Libraries/STM32F4xx_StdPeriph_Driver/src/stm32f4xx_hash_md5.c ****        counter++;
 449              		.loc 1 246 0 discriminator 1
 450 0120 7B69     		ldr	r3, [r7, #20]
 451 0122 0133     		adds	r3, r3, #1
 452 0124 7B61     		str	r3, [r7, #20]
 247:App/STM32F4-Discovery/Libraries/STM32F4xx_StdPeriph_Driver/src/stm32f4xx_hash_md5.c ****     }while ((counter != MD5BUSY_TIMEOUT) && (busystatus != RESET));
 453              		.loc 1 247 0 discriminator 1
 454 0126 7B69     		ldr	r3, [r7, #20]
 455 0128 B3F5803F 		cmp	r3, #65536
 456 012c 02D0     		beq	.L24
 457 012e 7B6E     		ldr	r3, [r7, #100]
 458 0130 002B     		cmp	r3, #0
 459 0132 F0D1     		bne	.L25
 460              	.L24:
 248:App/STM32F4-Discovery/Libraries/STM32F4xx_StdPeriph_Driver/src/stm32f4xx_hash_md5.c **** 
 249:App/STM32F4-Discovery/Libraries/STM32F4xx_StdPeriph_Driver/src/stm32f4xx_hash_md5.c ****     if (busystatus != RESET)
 461              		.loc 1 249 0
 462 0134 7B6E     		ldr	r3, [r7, #100]
 463 0136 002B     		cmp	r3, #0
 464 0138 03D0     		beq	.L26
 250:App/STM32F4-Discovery/Libraries/STM32F4xx_StdPeriph_Driver/src/stm32f4xx_hash_md5.c ****     {
 251:App/STM32F4-Discovery/Libraries/STM32F4xx_StdPeriph_Driver/src/stm32f4xx_hash_md5.c ****       status = ERROR;
 465              		.loc 1 251 0
 466 013a 0023     		movs	r3, #0
 467 013c 87F87330 		strb	r3, [r7, #115]
 468 0140 60E0     		b	.L21
 469              	.L26:
 252:App/STM32F4-Discovery/Libraries/STM32F4xx_StdPeriph_Driver/src/stm32f4xx_hash_md5.c ****     }
 253:App/STM32F4-Discovery/Libraries/STM32F4xx_StdPeriph_Driver/src/stm32f4xx_hash_md5.c ****     else
 254:App/STM32F4-Discovery/Libraries/STM32F4xx_StdPeriph_Driver/src/stm32f4xx_hash_md5.c ****     {  
 255:App/STM32F4-Discovery/Libraries/STM32F4xx_StdPeriph_Driver/src/stm32f4xx_hash_md5.c ****       /* Configure the number of valid bits in last word of the Key */
 256:App/STM32F4-Discovery/Libraries/STM32F4xx_StdPeriph_Driver/src/stm32f4xx_hash_md5.c ****       HASH_SetLastWordValidBitsNbr(nbvalidbitskey);
 470              		.loc 1 256 0
 471 0142 3B8B     		ldrh	r3, [r7, #24]	@ movhi
 472 0144 9BB2     		uxth	r3, r3
 473 0146 1846     		mov	r0, r3
 474 0148 FFF7FEFF 		bl	HASH_SetLastWordValidBitsNbr
 257:App/STM32F4-Discovery/Libraries/STM32F4xx_StdPeriph_Driver/src/stm32f4xx_hash_md5.c **** 
 258:App/STM32F4-Discovery/Libraries/STM32F4xx_StdPeriph_Driver/src/stm32f4xx_hash_md5.c ****       /* Write the Key */
 259:App/STM32F4-Discovery/Libraries/STM32F4xx_StdPeriph_Driver/src/stm32f4xx_hash_md5.c ****       keyaddr = (uint32_t)Key;
 475              		.loc 1 259 0
 476 014c FB68     		ldr	r3, [r7, #12]
 477 014e FB66     		str	r3, [r7, #108]
 260:App/STM32F4-Discovery/Libraries/STM32F4xx_StdPeriph_Driver/src/stm32f4xx_hash_md5.c ****       for(i=0; i<Keylen; i+=4)
 478              		.loc 1 260 0
 479 0150 0023     		movs	r3, #0
 480 0152 7B67     		str	r3, [r7, #116]
 481 0154 0AE0     		b	.L27
 482              	.L28:
 261:App/STM32F4-Discovery/Libraries/STM32F4xx_StdPeriph_Driver/src/stm32f4xx_hash_md5.c ****       {
 262:App/STM32F4-Discovery/Libraries/STM32F4xx_StdPeriph_Driver/src/stm32f4xx_hash_md5.c ****         HASH_DataIn(*(uint32_t*)keyaddr);
 483              		.loc 1 262 0 discriminator 2
 484 0156 FB6E     		ldr	r3, [r7, #108]
 485 0158 1B68     		ldr	r3, [r3]
 486 015a 1846     		mov	r0, r3
 487 015c FFF7FEFF 		bl	HASH_DataIn
 263:App/STM32F4-Discovery/Libraries/STM32F4xx_StdPeriph_Driver/src/stm32f4xx_hash_md5.c ****         keyaddr+=4;
 488              		.loc 1 263 0 discriminator 2
 489 0160 FB6E     		ldr	r3, [r7, #108]
 490 0162 0433     		adds	r3, r3, #4
 491 0164 FB66     		str	r3, [r7, #108]
 260:App/STM32F4-Discovery/Libraries/STM32F4xx_StdPeriph_Driver/src/stm32f4xx_hash_md5.c ****       for(i=0; i<Keylen; i+=4)
 492              		.loc 1 260 0 discriminator 2
 493 0166 7B6F     		ldr	r3, [r7, #116]
 494 0168 0433     		adds	r3, r3, #4
 495 016a 7B67     		str	r3, [r7, #116]
 496              	.L27:
 260:App/STM32F4-Discovery/Libraries/STM32F4xx_StdPeriph_Driver/src/stm32f4xx_hash_md5.c ****       for(i=0; i<Keylen; i+=4)
 497              		.loc 1 260 0 is_stmt 0 discriminator 1
 498 016c 7A6F     		ldr	r2, [r7, #116]
 499 016e BB68     		ldr	r3, [r7, #8]
 500 0170 9A42     		cmp	r2, r3
 501 0172 F0D3     		bcc	.L28
 264:App/STM32F4-Discovery/Libraries/STM32F4xx_StdPeriph_Driver/src/stm32f4xx_hash_md5.c ****       }
 265:App/STM32F4-Discovery/Libraries/STM32F4xx_StdPeriph_Driver/src/stm32f4xx_hash_md5.c ****   
 266:App/STM32F4-Discovery/Libraries/STM32F4xx_StdPeriph_Driver/src/stm32f4xx_hash_md5.c ****        /* Start the HASH processor */
 267:App/STM32F4-Discovery/Libraries/STM32F4xx_StdPeriph_Driver/src/stm32f4xx_hash_md5.c ****        HASH_StartDigest();
 502              		.loc 1 267 0 is_stmt 1
 503 0174 FFF7FEFF 		bl	HASH_StartDigest
 268:App/STM32F4-Discovery/Libraries/STM32F4xx_StdPeriph_Driver/src/stm32f4xx_hash_md5.c **** 
 269:App/STM32F4-Discovery/Libraries/STM32F4xx_StdPeriph_Driver/src/stm32f4xx_hash_md5.c ****        /* wait until the Busy flag is RESET */
 270:App/STM32F4-Discovery/Libraries/STM32F4xx_StdPeriph_Driver/src/stm32f4xx_hash_md5.c ****        counter =0;
 504              		.loc 1 270 0
 505 0178 0023     		movs	r3, #0
 506 017a 7B61     		str	r3, [r7, #20]
 507              	.L30:
 271:App/STM32F4-Discovery/Libraries/STM32F4xx_StdPeriph_Driver/src/stm32f4xx_hash_md5.c ****        do
 272:App/STM32F4-Discovery/Libraries/STM32F4xx_StdPeriph_Driver/src/stm32f4xx_hash_md5.c ****        {
 273:App/STM32F4-Discovery/Libraries/STM32F4xx_StdPeriph_Driver/src/stm32f4xx_hash_md5.c ****           busystatus = HASH_GetFlagStatus(HASH_FLAG_BUSY);
 508              		.loc 1 273 0 discriminator 1
 509 017c 0820     		movs	r0, #8
 510 017e FFF7FEFF 		bl	HASH_GetFlagStatus
 511 0182 0346     		mov	r3, r0
 512 0184 7B66     		str	r3, [r7, #100]
 274:App/STM32F4-Discovery/Libraries/STM32F4xx_StdPeriph_Driver/src/stm32f4xx_hash_md5.c ****           counter++;
 513              		.loc 1 274 0 discriminator 1
 514 0186 7B69     		ldr	r3, [r7, #20]
 515 0188 0133     		adds	r3, r3, #1
 516 018a 7B61     		str	r3, [r7, #20]
 275:App/STM32F4-Discovery/Libraries/STM32F4xx_StdPeriph_Driver/src/stm32f4xx_hash_md5.c ****       }while ((counter != MD5BUSY_TIMEOUT) && (busystatus != RESET));
 517              		.loc 1 275 0 discriminator 1
 518 018c 7B69     		ldr	r3, [r7, #20]
 519 018e B3F5803F 		cmp	r3, #65536
 520 0192 02D0     		beq	.L29
 521 0194 7B6E     		ldr	r3, [r7, #100]
 522 0196 002B     		cmp	r3, #0
 523 0198 F0D1     		bne	.L30
 524              	.L29:
 276:App/STM32F4-Discovery/Libraries/STM32F4xx_StdPeriph_Driver/src/stm32f4xx_hash_md5.c **** 
 277:App/STM32F4-Discovery/Libraries/STM32F4xx_StdPeriph_Driver/src/stm32f4xx_hash_md5.c ****       if (busystatus != RESET)
 525              		.loc 1 277 0
 526 019a 7B6E     		ldr	r3, [r7, #100]
 527 019c 002B     		cmp	r3, #0
 528 019e 03D0     		beq	.L31
 278:App/STM32F4-Discovery/Libraries/STM32F4xx_StdPeriph_Driver/src/stm32f4xx_hash_md5.c ****       {
 279:App/STM32F4-Discovery/Libraries/STM32F4xx_StdPeriph_Driver/src/stm32f4xx_hash_md5.c ****          status = ERROR;
 529              		.loc 1 279 0
 530 01a0 0023     		movs	r3, #0
 531 01a2 87F87330 		strb	r3, [r7, #115]
 532 01a6 2DE0     		b	.L21
 533              	.L31:
 280:App/STM32F4-Discovery/Libraries/STM32F4xx_StdPeriph_Driver/src/stm32f4xx_hash_md5.c ****       }
 281:App/STM32F4-Discovery/Libraries/STM32F4xx_StdPeriph_Driver/src/stm32f4xx_hash_md5.c ****       else
 282:App/STM32F4-Discovery/Libraries/STM32F4xx_StdPeriph_Driver/src/stm32f4xx_hash_md5.c ****       {
 283:App/STM32F4-Discovery/Libraries/STM32F4xx_StdPeriph_Driver/src/stm32f4xx_hash_md5.c ****          /* Read the message digest */
 284:App/STM32F4-Discovery/Libraries/STM32F4xx_StdPeriph_Driver/src/stm32f4xx_hash_md5.c ****          HASH_GetDigest(&MD5_MessageDigest);
 534              		.loc 1 284 0
 535 01a8 07F11C03 		add	r3, r7, #28
 536 01ac 1846     		mov	r0, r3
 537 01ae FFF7FEFF 		bl	HASH_GetDigest
 285:App/STM32F4-Discovery/Libraries/STM32F4xx_StdPeriph_Driver/src/stm32f4xx_hash_md5.c ****          *(uint32_t*)(outputaddr)  = __REV(MD5_MessageDigest.Data[0]);
 538              		.loc 1 285 0
 539 01b2 3B6E     		ldr	r3, [r7, #96]
 540 01b4 FA69     		ldr	r2, [r7, #28]
 541 01b6 FA65     		str	r2, [r7, #92]
 542              	.LBB26:
 543              	.LBB27:
 352:App/STM32F4-Discovery/Libraries/CMSIS/Include/core_cmInstr.h ****   __ASM volatile ("rev %0, %1" : "=r" (result) : "r" (value) );
 544              		.loc 2 352 0
 545 01b8 FA6D     		ldr	r2, [r7, #92]
 546              	@ 352 "App/STM32F4-Discovery/Libraries/CMSIS/Include/core_cmInstr.h" 1
 547 01ba 12BA     		rev r2, r2
 548              	@ 0 "" 2
 549              		.thumb
 550 01bc BA65     		str	r2, [r7, #88]
 551              		.loc 2 353 0
 552 01be BA6D     		ldr	r2, [r7, #88]
 553              	.LBE27:
 554              	.LBE26:
 555              		.loc 1 285 0
 556 01c0 1A60     		str	r2, [r3]
 286:App/STM32F4-Discovery/Libraries/STM32F4xx_StdPeriph_Driver/src/stm32f4xx_hash_md5.c ****          outputaddr+=4;
 557              		.loc 1 286 0
 558 01c2 3B6E     		ldr	r3, [r7, #96]
 559 01c4 0433     		adds	r3, r3, #4
 560 01c6 3B66     		str	r3, [r7, #96]
 287:App/STM32F4-Discovery/Libraries/STM32F4xx_StdPeriph_Driver/src/stm32f4xx_hash_md5.c ****          *(uint32_t*)(outputaddr)  = __REV(MD5_MessageDigest.Data[1]);
 561              		.loc 1 287 0
 562 01c8 3B6E     		ldr	r3, [r7, #96]
 563 01ca 3A6A     		ldr	r2, [r7, #32]
 564 01cc 7A65     		str	r2, [r7, #84]
 565              	.LBB28:
 566              	.LBB29:
 352:App/STM32F4-Discovery/Libraries/CMSIS/Include/core_cmInstr.h ****   __ASM volatile ("rev %0, %1" : "=r" (result) : "r" (value) );
 567              		.loc 2 352 0
 568 01ce 7A6D     		ldr	r2, [r7, #84]
 569              	@ 352 "App/STM32F4-Discovery/Libraries/CMSIS/Include/core_cmInstr.h" 1
 570 01d0 12BA     		rev r2, r2
 571              	@ 0 "" 2
 572              		.thumb
 573 01d2 3A65     		str	r2, [r7, #80]
 574              		.loc 2 353 0
 575 01d4 3A6D     		ldr	r2, [r7, #80]
 576              	.LBE29:
 577              	.LBE28:
 578              		.loc 1 287 0
 579 01d6 1A60     		str	r2, [r3]
 288:App/STM32F4-Discovery/Libraries/STM32F4xx_StdPeriph_Driver/src/stm32f4xx_hash_md5.c ****          outputaddr+=4;
 580              		.loc 1 288 0
 581 01d8 3B6E     		ldr	r3, [r7, #96]
 582 01da 0433     		adds	r3, r3, #4
 583 01dc 3B66     		str	r3, [r7, #96]
 289:App/STM32F4-Discovery/Libraries/STM32F4xx_StdPeriph_Driver/src/stm32f4xx_hash_md5.c ****          *(uint32_t*)(outputaddr)  = __REV(MD5_MessageDigest.Data[2]);
 584              		.loc 1 289 0
 585 01de 3B6E     		ldr	r3, [r7, #96]
 586 01e0 7A6A     		ldr	r2, [r7, #36]
 587 01e2 FA64     		str	r2, [r7, #76]
 588              	.LBB30:
 589              	.LBB31:
 352:App/STM32F4-Discovery/Libraries/CMSIS/Include/core_cmInstr.h ****   __ASM volatile ("rev %0, %1" : "=r" (result) : "r" (value) );
 590              		.loc 2 352 0
 591 01e4 FA6C     		ldr	r2, [r7, #76]
 592              	@ 352 "App/STM32F4-Discovery/Libraries/CMSIS/Include/core_cmInstr.h" 1
 593 01e6 12BA     		rev r2, r2
 594              	@ 0 "" 2
 595              		.thumb
 596 01e8 BA64     		str	r2, [r7, #72]
 597              		.loc 2 353 0
 598 01ea BA6C     		ldr	r2, [r7, #72]
 599              	.LBE31:
 600              	.LBE30:
 601              		.loc 1 289 0
 602 01ec 1A60     		str	r2, [r3]
 290:App/STM32F4-Discovery/Libraries/STM32F4xx_StdPeriph_Driver/src/stm32f4xx_hash_md5.c ****          outputaddr+=4;
 603              		.loc 1 290 0
 604 01ee 3B6E     		ldr	r3, [r7, #96]
 605 01f0 0433     		adds	r3, r3, #4
 606 01f2 3B66     		str	r3, [r7, #96]
 291:App/STM32F4-Discovery/Libraries/STM32F4xx_StdPeriph_Driver/src/stm32f4xx_hash_md5.c ****          *(uint32_t*)(outputaddr)  = __REV(MD5_MessageDigest.Data[3]);
 607              		.loc 1 291 0
 608 01f4 3B6E     		ldr	r3, [r7, #96]
 609 01f6 BA6A     		ldr	r2, [r7, #40]
 610 01f8 7A64     		str	r2, [r7, #68]
 611              	.LBB32:
 612              	.LBB33:
 352:App/STM32F4-Discovery/Libraries/CMSIS/Include/core_cmInstr.h ****   __ASM volatile ("rev %0, %1" : "=r" (result) : "r" (value) );
 613              		.loc 2 352 0
 614 01fa 7A6C     		ldr	r2, [r7, #68]
 615              	@ 352 "App/STM32F4-Discovery/Libraries/CMSIS/Include/core_cmInstr.h" 1
 616 01fc 12BA     		rev r2, r2
 617              	@ 0 "" 2
 618              		.thumb
 619 01fe 3A64     		str	r2, [r7, #64]
 620              		.loc 2 353 0
 621 0200 3A6C     		ldr	r2, [r7, #64]
 622              	.LBE33:
 623              	.LBE32:
 624              		.loc 1 291 0
 625 0202 1A60     		str	r2, [r3]
 626              	.L21:
 292:App/STM32F4-Discovery/Libraries/STM32F4xx_StdPeriph_Driver/src/stm32f4xx_hash_md5.c ****       }
 293:App/STM32F4-Discovery/Libraries/STM32F4xx_StdPeriph_Driver/src/stm32f4xx_hash_md5.c ****     }
 294:App/STM32F4-Discovery/Libraries/STM32F4xx_StdPeriph_Driver/src/stm32f4xx_hash_md5.c ****   }
 295:App/STM32F4-Discovery/Libraries/STM32F4xx_StdPeriph_Driver/src/stm32f4xx_hash_md5.c ****   return status;  
 627              		.loc 1 295 0
 628 0204 97F87330 		ldrb	r3, [r7, #115]	@ zero_extendqisi2
 296:App/STM32F4-Discovery/Libraries/STM32F4xx_StdPeriph_Driver/src/stm32f4xx_hash_md5.c **** }
 629              		.loc 1 296 0
 630 0208 1846     		mov	r0, r3
 631 020a 7837     		adds	r7, r7, #120
 632 020c BD46     		mov	sp, r7
 633              		@ sp needed
 634 020e 80BD     		pop	{r7, pc}
 635              		.cfi_endproc
 636              	.LFE111:
 638              		.text
 639              	.Letext0:
 640              		.file 3 "/home/shihyu/data/STM32F4/gcc-arm-none-eabi-4_8-2013q4/arm-none-eabi/include/stdint.h"
 641              		.file 4 "App/STM32F4-Discovery/Libraries/CMSIS/ST/STM32F4xx/Include/stm32f4xx.h"
 642              		.file 5 "App/STM32F4-Discovery/Libraries/STM32F4xx_StdPeriph_Driver/inc/stm32f4xx_hash.h"
 643              		.file 6 "App/STM32F4-Discovery/Libraries/CMSIS/Include/core_cm4.h"