   1              		.syntax unified
   2              		.cpu cortex-m4
   3              		.eabi_attribute 27, 3
   4              		.fpu fpv4-sp-d16
   5              		.eabi_attribute 20, 1
   6              		.eabi_attribute 21, 1
   7              		.eabi_attribute 23, 3
   8              		.eabi_attribute 24, 1
   9              		.eabi_attribute 25, 1
  10              		.eabi_attribute 26, 1
  11              		.eabi_attribute 30, 6
  12              		.eabi_attribute 34, 1
  13              		.eabi_attribute 18, 4
  14              		.thumb
  15              		.file	"stm32f4xx_i2c.c"
  16              		.text
  17              	.Ltext0:
  18              		.cfi_sections	.debug_frame
  19              		.section	.rodata
  20              		.align	2
  21              	.LC0:
  22 0000 4170702F 		.ascii	"App/STM32F4-Discovery/Libraries/STM32F4xx_StdPeriph"
  22      53544D33 
  22      3246342D 
  22      44697363 
  22      6F766572 
  23 0033 5F447269 		.ascii	"_Driver/src/stm32f4xx_i2c.c\000"
  23      7665722F 
  23      7372632F 
  23      73746D33 
  23      32663478 
  24 004f 00       		.section	.text.I2C_DeInit,"ax",%progbits
  25              		.align	2
  26              		.global	I2C_DeInit
  27              		.thumb
  28              		.thumb_func
  30              	I2C_DeInit:
  31              	.LFB110:
  32              		.file 1 "App/STM32F4-Discovery/Libraries/STM32F4xx_StdPeriph_Driver/src/stm32f4xx_i2c.c"
   1:App/STM32F4-Discovery/Libraries/STM32F4xx_StdPeriph_Driver/src/stm32f4xx_i2c.c **** /**
   2:App/STM32F4-Discovery/Libraries/STM32F4xx_StdPeriph_Driver/src/stm32f4xx_i2c.c ****   ******************************************************************************
   3:App/STM32F4-Discovery/Libraries/STM32F4xx_StdPeriph_Driver/src/stm32f4xx_i2c.c ****   * @file    stm32f4xx_i2c.c
   4:App/STM32F4-Discovery/Libraries/STM32F4xx_StdPeriph_Driver/src/stm32f4xx_i2c.c ****   * @author  MCD Application Team
   5:App/STM32F4-Discovery/Libraries/STM32F4xx_StdPeriph_Driver/src/stm32f4xx_i2c.c ****   * @version V1.0.0
   6:App/STM32F4-Discovery/Libraries/STM32F4xx_StdPeriph_Driver/src/stm32f4xx_i2c.c ****   * @date    30-September-2011
   7:App/STM32F4-Discovery/Libraries/STM32F4xx_StdPeriph_Driver/src/stm32f4xx_i2c.c ****   * @brief   This file provides firmware functions to manage the following 
   8:App/STM32F4-Discovery/Libraries/STM32F4xx_StdPeriph_Driver/src/stm32f4xx_i2c.c ****   *          functionalities of the Inter-integrated circuit (I2C)
   9:App/STM32F4-Discovery/Libraries/STM32F4xx_StdPeriph_Driver/src/stm32f4xx_i2c.c ****   *           - Initialization and Configuration
  10:App/STM32F4-Discovery/Libraries/STM32F4xx_StdPeriph_Driver/src/stm32f4xx_i2c.c ****   *           - Data transfers
  11:App/STM32F4-Discovery/Libraries/STM32F4xx_StdPeriph_Driver/src/stm32f4xx_i2c.c ****   *           - PEC management
  12:App/STM32F4-Discovery/Libraries/STM32F4xx_StdPeriph_Driver/src/stm32f4xx_i2c.c ****   *           - DMA transfers management
  13:App/STM32F4-Discovery/Libraries/STM32F4xx_StdPeriph_Driver/src/stm32f4xx_i2c.c ****   *           - Interrupts, events and flags management 
  14:App/STM32F4-Discovery/Libraries/STM32F4xx_StdPeriph_Driver/src/stm32f4xx_i2c.c ****   *           
  15:App/STM32F4-Discovery/Libraries/STM32F4xx_StdPeriph_Driver/src/stm32f4xx_i2c.c ****   *  @verbatim
  16:App/STM32F4-Discovery/Libraries/STM32F4xx_StdPeriph_Driver/src/stm32f4xx_i2c.c ****   *    
  17:App/STM32F4-Discovery/Libraries/STM32F4xx_StdPeriph_Driver/src/stm32f4xx_i2c.c ****   *          ===================================================================
  18:App/STM32F4-Discovery/Libraries/STM32F4xx_StdPeriph_Driver/src/stm32f4xx_i2c.c ****   *                                 How to use this driver
  19:App/STM32F4-Discovery/Libraries/STM32F4xx_StdPeriph_Driver/src/stm32f4xx_i2c.c ****   *          ===================================================================
  20:App/STM32F4-Discovery/Libraries/STM32F4xx_StdPeriph_Driver/src/stm32f4xx_i2c.c ****   *          1. Enable peripheral clock using RCC_APB1PeriphClockCmd(RCC_APB1Periph_I2Cx, ENABLE)
  21:App/STM32F4-Discovery/Libraries/STM32F4xx_StdPeriph_Driver/src/stm32f4xx_i2c.c ****   *             function for I2C1, I2C2 or I2C3.
  22:App/STM32F4-Discovery/Libraries/STM32F4xx_StdPeriph_Driver/src/stm32f4xx_i2c.c ****   *
  23:App/STM32F4-Discovery/Libraries/STM32F4xx_StdPeriph_Driver/src/stm32f4xx_i2c.c ****   *          2. Enable SDA, SCL  and SMBA (when used) GPIO clocks using 
  24:App/STM32F4-Discovery/Libraries/STM32F4xx_StdPeriph_Driver/src/stm32f4xx_i2c.c ****   *             RCC_AHBPeriphClockCmd() function. 
  25:App/STM32F4-Discovery/Libraries/STM32F4xx_StdPeriph_Driver/src/stm32f4xx_i2c.c ****   *
  26:App/STM32F4-Discovery/Libraries/STM32F4xx_StdPeriph_Driver/src/stm32f4xx_i2c.c ****   *          3. Peripherals alternate function: 
  27:App/STM32F4-Discovery/Libraries/STM32F4xx_StdPeriph_Driver/src/stm32f4xx_i2c.c ****   *                 - Connect the pin to the desired peripherals' Alternate 
  28:App/STM32F4-Discovery/Libraries/STM32F4xx_StdPeriph_Driver/src/stm32f4xx_i2c.c ****   *                   Function (AF) using GPIO_PinAFConfig() function
  29:App/STM32F4-Discovery/Libraries/STM32F4xx_StdPeriph_Driver/src/stm32f4xx_i2c.c ****   *                 - Configure the desired pin in alternate function by:
  30:App/STM32F4-Discovery/Libraries/STM32F4xx_StdPeriph_Driver/src/stm32f4xx_i2c.c ****   *                   GPIO_InitStruct->GPIO_Mode = GPIO_Mode_AF
  31:App/STM32F4-Discovery/Libraries/STM32F4xx_StdPeriph_Driver/src/stm32f4xx_i2c.c ****   *                 - Select the type, pull-up/pull-down and output speed via 
  32:App/STM32F4-Discovery/Libraries/STM32F4xx_StdPeriph_Driver/src/stm32f4xx_i2c.c ****   *                   GPIO_PuPd, GPIO_OType and GPIO_Speed members
  33:App/STM32F4-Discovery/Libraries/STM32F4xx_StdPeriph_Driver/src/stm32f4xx_i2c.c ****   *                 - Call GPIO_Init() function
  34:App/STM32F4-Discovery/Libraries/STM32F4xx_StdPeriph_Driver/src/stm32f4xx_i2c.c ****   *                 Recommended configuration is Push-Pull, Pull-up, Open-Drain.
  35:App/STM32F4-Discovery/Libraries/STM32F4xx_StdPeriph_Driver/src/stm32f4xx_i2c.c ****   *                 Add an external pull up if necessary (typically 4.7 KOhm).      
  36:App/STM32F4-Discovery/Libraries/STM32F4xx_StdPeriph_Driver/src/stm32f4xx_i2c.c ****   *        
  37:App/STM32F4-Discovery/Libraries/STM32F4xx_StdPeriph_Driver/src/stm32f4xx_i2c.c ****   *          4. Program the Mode, duty cycle , Own address, Ack, Speed and Acknowledged
  38:App/STM32F4-Discovery/Libraries/STM32F4xx_StdPeriph_Driver/src/stm32f4xx_i2c.c ****   *             Address using the I2C_Init() function.
  39:App/STM32F4-Discovery/Libraries/STM32F4xx_StdPeriph_Driver/src/stm32f4xx_i2c.c ****   *
  40:App/STM32F4-Discovery/Libraries/STM32F4xx_StdPeriph_Driver/src/stm32f4xx_i2c.c ****   *          5. Optionally you can enable/configure the following parameters without
  41:App/STM32F4-Discovery/Libraries/STM32F4xx_StdPeriph_Driver/src/stm32f4xx_i2c.c ****   *             re-initialization (i.e there is no need to call again I2C_Init() function):
  42:App/STM32F4-Discovery/Libraries/STM32F4xx_StdPeriph_Driver/src/stm32f4xx_i2c.c ****   *              - Enable the acknowledge feature using I2C_AcknowledgeConfig() function
  43:App/STM32F4-Discovery/Libraries/STM32F4xx_StdPeriph_Driver/src/stm32f4xx_i2c.c ****   *              - Enable the dual addressing mode using I2C_DualAddressCmd() function
  44:App/STM32F4-Discovery/Libraries/STM32F4xx_StdPeriph_Driver/src/stm32f4xx_i2c.c ****   *              - Enable the general call using the I2C_GeneralCallCmd() function
  45:App/STM32F4-Discovery/Libraries/STM32F4xx_StdPeriph_Driver/src/stm32f4xx_i2c.c ****   *              - Enable the clock stretching using I2C_StretchClockCmd() function
  46:App/STM32F4-Discovery/Libraries/STM32F4xx_StdPeriph_Driver/src/stm32f4xx_i2c.c ****   *              - Enable the fast mode duty cycle using the I2C_FastModeDutyCycleConfig()
  47:App/STM32F4-Discovery/Libraries/STM32F4xx_StdPeriph_Driver/src/stm32f4xx_i2c.c ****   *                function.
  48:App/STM32F4-Discovery/Libraries/STM32F4xx_StdPeriph_Driver/src/stm32f4xx_i2c.c ****   *              - Configure the NACK position for Master Receiver mode in case of 
  49:App/STM32F4-Discovery/Libraries/STM32F4xx_StdPeriph_Driver/src/stm32f4xx_i2c.c ****   *                2 bytes reception using the function I2C_NACKPositionConfig().  
  50:App/STM32F4-Discovery/Libraries/STM32F4xx_StdPeriph_Driver/src/stm32f4xx_i2c.c ****   *              - Enable the PEC Calculation using I2C_CalculatePEC() function
  51:App/STM32F4-Discovery/Libraries/STM32F4xx_StdPeriph_Driver/src/stm32f4xx_i2c.c ****   *              - For SMBus Mode: 
  52:App/STM32F4-Discovery/Libraries/STM32F4xx_StdPeriph_Driver/src/stm32f4xx_i2c.c ****   *                   - Enable the Address Resolution Protocol (ARP) using I2C_ARPCmd() function
  53:App/STM32F4-Discovery/Libraries/STM32F4xx_StdPeriph_Driver/src/stm32f4xx_i2c.c ****   *                   - Configure the SMBusAlert pin using I2C_SMBusAlertConfig() function
  54:App/STM32F4-Discovery/Libraries/STM32F4xx_StdPeriph_Driver/src/stm32f4xx_i2c.c ****   *
  55:App/STM32F4-Discovery/Libraries/STM32F4xx_StdPeriph_Driver/src/stm32f4xx_i2c.c ****   *          6. Enable the NVIC and the corresponding interrupt using the function 
  56:App/STM32F4-Discovery/Libraries/STM32F4xx_StdPeriph_Driver/src/stm32f4xx_i2c.c ****   *             I2C_ITConfig() if you need to use interrupt mode. 
  57:App/STM32F4-Discovery/Libraries/STM32F4xx_StdPeriph_Driver/src/stm32f4xx_i2c.c ****   *
  58:App/STM32F4-Discovery/Libraries/STM32F4xx_StdPeriph_Driver/src/stm32f4xx_i2c.c ****   *          7. When using the DMA mode 
  59:App/STM32F4-Discovery/Libraries/STM32F4xx_StdPeriph_Driver/src/stm32f4xx_i2c.c ****   *                   - Configure the DMA using DMA_Init() function
  60:App/STM32F4-Discovery/Libraries/STM32F4xx_StdPeriph_Driver/src/stm32f4xx_i2c.c ****   *                   - Active the needed channel Request using I2C_DMACmd() or
  61:App/STM32F4-Discovery/Libraries/STM32F4xx_StdPeriph_Driver/src/stm32f4xx_i2c.c ****   *                     I2C_DMALastTransferCmd() function.
  62:App/STM32F4-Discovery/Libraries/STM32F4xx_StdPeriph_Driver/src/stm32f4xx_i2c.c ****   *              @note When using DMA mode, I2C interrupts may be used at the same time to
  63:App/STM32F4-Discovery/Libraries/STM32F4xx_StdPeriph_Driver/src/stm32f4xx_i2c.c ****   *                    control the communication flow (Start/Stop/Ack... events and errors).
  64:App/STM32F4-Discovery/Libraries/STM32F4xx_StdPeriph_Driver/src/stm32f4xx_i2c.c ****   * 
  65:App/STM32F4-Discovery/Libraries/STM32F4xx_StdPeriph_Driver/src/stm32f4xx_i2c.c ****   *          8. Enable the I2C using the I2C_Cmd() function.
  66:App/STM32F4-Discovery/Libraries/STM32F4xx_StdPeriph_Driver/src/stm32f4xx_i2c.c ****   * 
  67:App/STM32F4-Discovery/Libraries/STM32F4xx_StdPeriph_Driver/src/stm32f4xx_i2c.c ****   *          9. Enable the DMA using the DMA_Cmd() function when using DMA mode in the 
  68:App/STM32F4-Discovery/Libraries/STM32F4xx_StdPeriph_Driver/src/stm32f4xx_i2c.c ****   *             transfers. 
  69:App/STM32F4-Discovery/Libraries/STM32F4xx_StdPeriph_Driver/src/stm32f4xx_i2c.c ****   *
  70:App/STM32F4-Discovery/Libraries/STM32F4xx_StdPeriph_Driver/src/stm32f4xx_i2c.c ****   *  @endverbatim
  71:App/STM32F4-Discovery/Libraries/STM32F4xx_StdPeriph_Driver/src/stm32f4xx_i2c.c ****   *  
  72:App/STM32F4-Discovery/Libraries/STM32F4xx_StdPeriph_Driver/src/stm32f4xx_i2c.c ****   ******************************************************************************
  73:App/STM32F4-Discovery/Libraries/STM32F4xx_StdPeriph_Driver/src/stm32f4xx_i2c.c ****   * @attention
  74:App/STM32F4-Discovery/Libraries/STM32F4xx_StdPeriph_Driver/src/stm32f4xx_i2c.c ****   *
  75:App/STM32F4-Discovery/Libraries/STM32F4xx_StdPeriph_Driver/src/stm32f4xx_i2c.c ****   * THE PRESENT FIRMWARE WHICH IS FOR GUIDANCE ONLY AIMS AT PROVIDING CUSTOMERS
  76:App/STM32F4-Discovery/Libraries/STM32F4xx_StdPeriph_Driver/src/stm32f4xx_i2c.c ****   * WITH CODING INFORMATION REGARDING THEIR PRODUCTS IN ORDER FOR THEM TO SAVE
  77:App/STM32F4-Discovery/Libraries/STM32F4xx_StdPeriph_Driver/src/stm32f4xx_i2c.c ****   * TIME. AS A RESULT, STMICROELECTRONICS SHALL NOT BE HELD LIABLE FOR ANY
  78:App/STM32F4-Discovery/Libraries/STM32F4xx_StdPeriph_Driver/src/stm32f4xx_i2c.c ****   * DIRECT, INDIRECT OR CONSEQUENTIAL DAMAGES WITH RESPECT TO ANY CLAIMS ARISING
  79:App/STM32F4-Discovery/Libraries/STM32F4xx_StdPeriph_Driver/src/stm32f4xx_i2c.c ****   * FROM THE CONTENT OF SUCH FIRMWARE AND/OR THE USE MADE BY CUSTOMERS OF THE
  80:App/STM32F4-Discovery/Libraries/STM32F4xx_StdPeriph_Driver/src/stm32f4xx_i2c.c ****   * CODING INFORMATION CONTAINED HEREIN IN CONNECTION WITH THEIR PRODUCTS.
  81:App/STM32F4-Discovery/Libraries/STM32F4xx_StdPeriph_Driver/src/stm32f4xx_i2c.c ****   *
  82:App/STM32F4-Discovery/Libraries/STM32F4xx_StdPeriph_Driver/src/stm32f4xx_i2c.c ****   * <h2><center>&copy; COPYRIGHT 2011 STMicroelectronics</center></h2>
  83:App/STM32F4-Discovery/Libraries/STM32F4xx_StdPeriph_Driver/src/stm32f4xx_i2c.c ****   ******************************************************************************  
  84:App/STM32F4-Discovery/Libraries/STM32F4xx_StdPeriph_Driver/src/stm32f4xx_i2c.c ****   */ 
  85:App/STM32F4-Discovery/Libraries/STM32F4xx_StdPeriph_Driver/src/stm32f4xx_i2c.c **** 
  86:App/STM32F4-Discovery/Libraries/STM32F4xx_StdPeriph_Driver/src/stm32f4xx_i2c.c **** /* Includes ------------------------------------------------------------------*/
  87:App/STM32F4-Discovery/Libraries/STM32F4xx_StdPeriph_Driver/src/stm32f4xx_i2c.c **** #include "stm32f4xx_i2c.h"
  88:App/STM32F4-Discovery/Libraries/STM32F4xx_StdPeriph_Driver/src/stm32f4xx_i2c.c **** #include "stm32f4xx_rcc.h"
  89:App/STM32F4-Discovery/Libraries/STM32F4xx_StdPeriph_Driver/src/stm32f4xx_i2c.c **** 
  90:App/STM32F4-Discovery/Libraries/STM32F4xx_StdPeriph_Driver/src/stm32f4xx_i2c.c **** /** @addtogroup STM32F4xx_StdPeriph_Driver
  91:App/STM32F4-Discovery/Libraries/STM32F4xx_StdPeriph_Driver/src/stm32f4xx_i2c.c ****   * @{
  92:App/STM32F4-Discovery/Libraries/STM32F4xx_StdPeriph_Driver/src/stm32f4xx_i2c.c ****   */
  93:App/STM32F4-Discovery/Libraries/STM32F4xx_StdPeriph_Driver/src/stm32f4xx_i2c.c **** 
  94:App/STM32F4-Discovery/Libraries/STM32F4xx_StdPeriph_Driver/src/stm32f4xx_i2c.c **** /** @defgroup I2C 
  95:App/STM32F4-Discovery/Libraries/STM32F4xx_StdPeriph_Driver/src/stm32f4xx_i2c.c ****   * @brief I2C driver modules
  96:App/STM32F4-Discovery/Libraries/STM32F4xx_StdPeriph_Driver/src/stm32f4xx_i2c.c ****   * @{
  97:App/STM32F4-Discovery/Libraries/STM32F4xx_StdPeriph_Driver/src/stm32f4xx_i2c.c ****   */ 
  98:App/STM32F4-Discovery/Libraries/STM32F4xx_StdPeriph_Driver/src/stm32f4xx_i2c.c **** 
  99:App/STM32F4-Discovery/Libraries/STM32F4xx_StdPeriph_Driver/src/stm32f4xx_i2c.c **** /* Private typedef -----------------------------------------------------------*/
 100:App/STM32F4-Discovery/Libraries/STM32F4xx_StdPeriph_Driver/src/stm32f4xx_i2c.c **** /* Private define ------------------------------------------------------------*/
 101:App/STM32F4-Discovery/Libraries/STM32F4xx_StdPeriph_Driver/src/stm32f4xx_i2c.c **** 
 102:App/STM32F4-Discovery/Libraries/STM32F4xx_StdPeriph_Driver/src/stm32f4xx_i2c.c **** #define CR1_CLEAR_MASK    ((uint16_t)0xFBF5)      /*<! I2C registers Masks */
 103:App/STM32F4-Discovery/Libraries/STM32F4xx_StdPeriph_Driver/src/stm32f4xx_i2c.c **** #define FLAG_MASK         ((uint32_t)0x00FFFFFF)  /*<! I2C FLAG mask */
 104:App/STM32F4-Discovery/Libraries/STM32F4xx_StdPeriph_Driver/src/stm32f4xx_i2c.c **** #define ITEN_MASK         ((uint32_t)0x07000000)  /*<! I2C Interrupt Enable mask */
 105:App/STM32F4-Discovery/Libraries/STM32F4xx_StdPeriph_Driver/src/stm32f4xx_i2c.c **** 
 106:App/STM32F4-Discovery/Libraries/STM32F4xx_StdPeriph_Driver/src/stm32f4xx_i2c.c **** /* Private macro -------------------------------------------------------------*/
 107:App/STM32F4-Discovery/Libraries/STM32F4xx_StdPeriph_Driver/src/stm32f4xx_i2c.c **** /* Private variables ---------------------------------------------------------*/
 108:App/STM32F4-Discovery/Libraries/STM32F4xx_StdPeriph_Driver/src/stm32f4xx_i2c.c **** /* Private function prototypes -----------------------------------------------*/
 109:App/STM32F4-Discovery/Libraries/STM32F4xx_StdPeriph_Driver/src/stm32f4xx_i2c.c **** /* Private functions ---------------------------------------------------------*/
 110:App/STM32F4-Discovery/Libraries/STM32F4xx_StdPeriph_Driver/src/stm32f4xx_i2c.c **** 
 111:App/STM32F4-Discovery/Libraries/STM32F4xx_StdPeriph_Driver/src/stm32f4xx_i2c.c **** /** @defgroup I2C_Private_Functions
 112:App/STM32F4-Discovery/Libraries/STM32F4xx_StdPeriph_Driver/src/stm32f4xx_i2c.c ****   * @{
 113:App/STM32F4-Discovery/Libraries/STM32F4xx_StdPeriph_Driver/src/stm32f4xx_i2c.c ****   */
 114:App/STM32F4-Discovery/Libraries/STM32F4xx_StdPeriph_Driver/src/stm32f4xx_i2c.c **** 
 115:App/STM32F4-Discovery/Libraries/STM32F4xx_StdPeriph_Driver/src/stm32f4xx_i2c.c **** /** @defgroup I2C_Group1 Initialization and Configuration functions
 116:App/STM32F4-Discovery/Libraries/STM32F4xx_StdPeriph_Driver/src/stm32f4xx_i2c.c ****  *  @brief   Initialization and Configuration functions 
 117:App/STM32F4-Discovery/Libraries/STM32F4xx_StdPeriph_Driver/src/stm32f4xx_i2c.c ****  *
 118:App/STM32F4-Discovery/Libraries/STM32F4xx_StdPeriph_Driver/src/stm32f4xx_i2c.c **** @verbatim   
 119:App/STM32F4-Discovery/Libraries/STM32F4xx_StdPeriph_Driver/src/stm32f4xx_i2c.c ****  ===============================================================================
 120:App/STM32F4-Discovery/Libraries/STM32F4xx_StdPeriph_Driver/src/stm32f4xx_i2c.c ****                    Initialization and Configuration functions
 121:App/STM32F4-Discovery/Libraries/STM32F4xx_StdPeriph_Driver/src/stm32f4xx_i2c.c ****  ===============================================================================  
 122:App/STM32F4-Discovery/Libraries/STM32F4xx_StdPeriph_Driver/src/stm32f4xx_i2c.c **** 
 123:App/STM32F4-Discovery/Libraries/STM32F4xx_StdPeriph_Driver/src/stm32f4xx_i2c.c **** @endverbatim
 124:App/STM32F4-Discovery/Libraries/STM32F4xx_StdPeriph_Driver/src/stm32f4xx_i2c.c ****   * @{
 125:App/STM32F4-Discovery/Libraries/STM32F4xx_StdPeriph_Driver/src/stm32f4xx_i2c.c ****   */
 126:App/STM32F4-Discovery/Libraries/STM32F4xx_StdPeriph_Driver/src/stm32f4xx_i2c.c **** 
 127:App/STM32F4-Discovery/Libraries/STM32F4xx_StdPeriph_Driver/src/stm32f4xx_i2c.c **** /**
 128:App/STM32F4-Discovery/Libraries/STM32F4xx_StdPeriph_Driver/src/stm32f4xx_i2c.c ****   * @brief  Deinitialize the I2Cx peripheral registers to their default reset values.
 129:App/STM32F4-Discovery/Libraries/STM32F4xx_StdPeriph_Driver/src/stm32f4xx_i2c.c ****   * @param  I2Cx: where x can be 1, 2 or 3 to select the I2C peripheral.
 130:App/STM32F4-Discovery/Libraries/STM32F4xx_StdPeriph_Driver/src/stm32f4xx_i2c.c ****   * @retval None
 131:App/STM32F4-Discovery/Libraries/STM32F4xx_StdPeriph_Driver/src/stm32f4xx_i2c.c ****   */
 132:App/STM32F4-Discovery/Libraries/STM32F4xx_StdPeriph_Driver/src/stm32f4xx_i2c.c **** void I2C_DeInit(I2C_TypeDef* I2Cx)
 133:App/STM32F4-Discovery/Libraries/STM32F4xx_StdPeriph_Driver/src/stm32f4xx_i2c.c **** {
  33              		.loc 1 133 0
  34              		.cfi_startproc
  35              		@ args = 0, pretend = 0, frame = 8
  36              		@ frame_needed = 1, uses_anonymous_args = 0
  37 0000 80B5     		push	{r7, lr}
  38              	.LCFI0:
  39              		.cfi_def_cfa_offset 8
  40              		.cfi_offset 7, -8
  41              		.cfi_offset 14, -4
  42 0002 82B0     		sub	sp, sp, #8
  43              	.LCFI1:
  44              		.cfi_def_cfa_offset 16
  45 0004 00AF     		add	r7, sp, #0
  46              	.LCFI2:
  47              		.cfi_def_cfa_register 7
  48 0006 7860     		str	r0, [r7, #4]
 134:App/STM32F4-Discovery/Libraries/STM32F4xx_StdPeriph_Driver/src/stm32f4xx_i2c.c ****   /* Check the parameters */
 135:App/STM32F4-Discovery/Libraries/STM32F4xx_StdPeriph_Driver/src/stm32f4xx_i2c.c ****   assert_param(IS_I2C_ALL_PERIPH(I2Cx));
  49              		.loc 1 135 0
  50 0008 7A68     		ldr	r2, [r7, #4]
  51 000a 1F4B     		ldr	r3, .L6
  52 000c 9A42     		cmp	r2, r3
  53 000e 0BD0     		beq	.L2
  54              		.loc 1 135 0 is_stmt 0 discriminator 1
  55 0010 7A68     		ldr	r2, [r7, #4]
  56 0012 1E4B     		ldr	r3, .L6+4
  57 0014 9A42     		cmp	r2, r3
  58 0016 07D0     		beq	.L2
  59 0018 7A68     		ldr	r2, [r7, #4]
  60 001a 1D4B     		ldr	r3, .L6+8
  61 001c 9A42     		cmp	r2, r3
  62 001e 03D0     		beq	.L2
  63 0020 1C48     		ldr	r0, .L6+12
  64 0022 8721     		movs	r1, #135
  65 0024 FFF7FEFF 		bl	assert_failed
  66              	.L2:
 136:App/STM32F4-Discovery/Libraries/STM32F4xx_StdPeriph_Driver/src/stm32f4xx_i2c.c **** 
 137:App/STM32F4-Discovery/Libraries/STM32F4xx_StdPeriph_Driver/src/stm32f4xx_i2c.c ****   if (I2Cx == I2C1)
  67              		.loc 1 137 0 is_stmt 1
  68 0028 7A68     		ldr	r2, [r7, #4]
  69 002a 174B     		ldr	r3, .L6
  70 002c 9A42     		cmp	r2, r3
  71 002e 0AD1     		bne	.L3
 138:App/STM32F4-Discovery/Libraries/STM32F4xx_StdPeriph_Driver/src/stm32f4xx_i2c.c ****   {
 139:App/STM32F4-Discovery/Libraries/STM32F4xx_StdPeriph_Driver/src/stm32f4xx_i2c.c ****     /* Enable I2C1 reset state */
 140:App/STM32F4-Discovery/Libraries/STM32F4xx_StdPeriph_Driver/src/stm32f4xx_i2c.c ****     RCC_APB1PeriphResetCmd(RCC_APB1Periph_I2C1, ENABLE);
  72              		.loc 1 140 0
  73 0030 4FF40010 		mov	r0, #2097152
  74 0034 0121     		movs	r1, #1
  75 0036 FFF7FEFF 		bl	RCC_APB1PeriphResetCmd
 141:App/STM32F4-Discovery/Libraries/STM32F4xx_StdPeriph_Driver/src/stm32f4xx_i2c.c ****     /* Release I2C1 from reset state */
 142:App/STM32F4-Discovery/Libraries/STM32F4xx_StdPeriph_Driver/src/stm32f4xx_i2c.c ****     RCC_APB1PeriphResetCmd(RCC_APB1Periph_I2C1, DISABLE);    
  76              		.loc 1 142 0
  77 003a 4FF40010 		mov	r0, #2097152
  78 003e 0021     		movs	r1, #0
  79 0040 FFF7FEFF 		bl	RCC_APB1PeriphResetCmd
  80 0044 1CE0     		b	.L1
  81              	.L3:
 143:App/STM32F4-Discovery/Libraries/STM32F4xx_StdPeriph_Driver/src/stm32f4xx_i2c.c ****   }
 144:App/STM32F4-Discovery/Libraries/STM32F4xx_StdPeriph_Driver/src/stm32f4xx_i2c.c ****   else if (I2Cx == I2C2)
  82              		.loc 1 144 0
  83 0046 7A68     		ldr	r2, [r7, #4]
  84 0048 104B     		ldr	r3, .L6+4
  85 004a 9A42     		cmp	r2, r3
  86 004c 0AD1     		bne	.L5
 145:App/STM32F4-Discovery/Libraries/STM32F4xx_StdPeriph_Driver/src/stm32f4xx_i2c.c ****   {
 146:App/STM32F4-Discovery/Libraries/STM32F4xx_StdPeriph_Driver/src/stm32f4xx_i2c.c ****     /* Enable I2C2 reset state */
 147:App/STM32F4-Discovery/Libraries/STM32F4xx_StdPeriph_Driver/src/stm32f4xx_i2c.c ****     RCC_APB1PeriphResetCmd(RCC_APB1Periph_I2C2, ENABLE);
  87              		.loc 1 147 0
  88 004e 4FF48000 		mov	r0, #4194304
  89 0052 0121     		movs	r1, #1
  90 0054 FFF7FEFF 		bl	RCC_APB1PeriphResetCmd
 148:App/STM32F4-Discovery/Libraries/STM32F4xx_StdPeriph_Driver/src/stm32f4xx_i2c.c ****     /* Release I2C2 from reset state */
 149:App/STM32F4-Discovery/Libraries/STM32F4xx_StdPeriph_Driver/src/stm32f4xx_i2c.c ****     RCC_APB1PeriphResetCmd(RCC_APB1Periph_I2C2, DISABLE);      
  91              		.loc 1 149 0
  92 0058 4FF48000 		mov	r0, #4194304
  93 005c 0021     		movs	r1, #0
  94 005e FFF7FEFF 		bl	RCC_APB1PeriphResetCmd
  95 0062 0DE0     		b	.L1
  96              	.L5:
 150:App/STM32F4-Discovery/Libraries/STM32F4xx_StdPeriph_Driver/src/stm32f4xx_i2c.c ****   }
 151:App/STM32F4-Discovery/Libraries/STM32F4xx_StdPeriph_Driver/src/stm32f4xx_i2c.c ****   else 
 152:App/STM32F4-Discovery/Libraries/STM32F4xx_StdPeriph_Driver/src/stm32f4xx_i2c.c ****   {
 153:App/STM32F4-Discovery/Libraries/STM32F4xx_StdPeriph_Driver/src/stm32f4xx_i2c.c ****     if (I2Cx == I2C3)
  97              		.loc 1 153 0
  98 0064 7A68     		ldr	r2, [r7, #4]
  99 0066 0A4B     		ldr	r3, .L6+8
 100 0068 9A42     		cmp	r2, r3
 101 006a 09D1     		bne	.L1
 154:App/STM32F4-Discovery/Libraries/STM32F4xx_StdPeriph_Driver/src/stm32f4xx_i2c.c ****     {
 155:App/STM32F4-Discovery/Libraries/STM32F4xx_StdPeriph_Driver/src/stm32f4xx_i2c.c ****       /* Enable I2C3 reset state */
 156:App/STM32F4-Discovery/Libraries/STM32F4xx_StdPeriph_Driver/src/stm32f4xx_i2c.c ****       RCC_APB1PeriphResetCmd(RCC_APB1Periph_I2C3, ENABLE);
 102              		.loc 1 156 0
 103 006c 4FF40000 		mov	r0, #8388608
 104 0070 0121     		movs	r1, #1
 105 0072 FFF7FEFF 		bl	RCC_APB1PeriphResetCmd
 157:App/STM32F4-Discovery/Libraries/STM32F4xx_StdPeriph_Driver/src/stm32f4xx_i2c.c ****       /* Release I2C3 from reset state */
 158:App/STM32F4-Discovery/Libraries/STM32F4xx_StdPeriph_Driver/src/stm32f4xx_i2c.c ****       RCC_APB1PeriphResetCmd(RCC_APB1Periph_I2C3, DISABLE);     
 106              		.loc 1 158 0
 107 0076 4FF40000 		mov	r0, #8388608
 108 007a 0021     		movs	r1, #0
 109 007c FFF7FEFF 		bl	RCC_APB1PeriphResetCmd
 110              	.L1:
 159:App/STM32F4-Discovery/Libraries/STM32F4xx_StdPeriph_Driver/src/stm32f4xx_i2c.c ****     }
 160:App/STM32F4-Discovery/Libraries/STM32F4xx_StdPeriph_Driver/src/stm32f4xx_i2c.c ****   }
 161:App/STM32F4-Discovery/Libraries/STM32F4xx_StdPeriph_Driver/src/stm32f4xx_i2c.c **** }
 111              		.loc 1 161 0
 112 0080 0837     		adds	r7, r7, #8
 113 0082 BD46     		mov	sp, r7
 114              		@ sp needed
 115 0084 80BD     		pop	{r7, pc}
 116              	.L7:
 117 0086 00BF     		.align	2
 118              	.L6:
 119 0088 00540040 		.word	1073763328
 120 008c 00580040 		.word	1073764352
 121 0090 005C0040 		.word	1073765376
 122 0094 00000000 		.word	.LC0
 123              		.cfi_endproc
 124              	.LFE110:
 126              		.section	.text.I2C_Init,"ax",%progbits
 127              		.align	2
 128              		.global	I2C_Init
 129              		.thumb
 130              		.thumb_func
 132              	I2C_Init:
 133              	.LFB111:
 162:App/STM32F4-Discovery/Libraries/STM32F4xx_StdPeriph_Driver/src/stm32f4xx_i2c.c **** 
 163:App/STM32F4-Discovery/Libraries/STM32F4xx_StdPeriph_Driver/src/stm32f4xx_i2c.c **** /**
 164:App/STM32F4-Discovery/Libraries/STM32F4xx_StdPeriph_Driver/src/stm32f4xx_i2c.c ****   * @brief  Initializes the I2Cx peripheral according to the specified 
 165:App/STM32F4-Discovery/Libraries/STM32F4xx_StdPeriph_Driver/src/stm32f4xx_i2c.c ****   *         parameters in the I2C_InitStruct.
 166:App/STM32F4-Discovery/Libraries/STM32F4xx_StdPeriph_Driver/src/stm32f4xx_i2c.c ****   *           
 167:App/STM32F4-Discovery/Libraries/STM32F4xx_StdPeriph_Driver/src/stm32f4xx_i2c.c ****   * @note   To use the I2C at 400 KHz (in fast mode), the PCLK1 frequency 
 168:App/STM32F4-Discovery/Libraries/STM32F4xx_StdPeriph_Driver/src/stm32f4xx_i2c.c ****   *         (I2C peripheral input clock) must be a multiple of 10 MHz.  
 169:App/STM32F4-Discovery/Libraries/STM32F4xx_StdPeriph_Driver/src/stm32f4xx_i2c.c ****   *           
 170:App/STM32F4-Discovery/Libraries/STM32F4xx_StdPeriph_Driver/src/stm32f4xx_i2c.c ****   * @param  I2Cx: where x can be 1, 2 or 3 to select the I2C peripheral.
 171:App/STM32F4-Discovery/Libraries/STM32F4xx_StdPeriph_Driver/src/stm32f4xx_i2c.c ****   * @param  I2C_InitStruct: pointer to a I2C_InitTypeDef structure that contains 
 172:App/STM32F4-Discovery/Libraries/STM32F4xx_StdPeriph_Driver/src/stm32f4xx_i2c.c ****   *         the configuration information for the specified I2C peripheral.
 173:App/STM32F4-Discovery/Libraries/STM32F4xx_StdPeriph_Driver/src/stm32f4xx_i2c.c ****   * @retval None
 174:App/STM32F4-Discovery/Libraries/STM32F4xx_StdPeriph_Driver/src/stm32f4xx_i2c.c ****   */
 175:App/STM32F4-Discovery/Libraries/STM32F4xx_StdPeriph_Driver/src/stm32f4xx_i2c.c **** void I2C_Init(I2C_TypeDef* I2Cx, I2C_InitTypeDef* I2C_InitStruct)
 176:App/STM32F4-Discovery/Libraries/STM32F4xx_StdPeriph_Driver/src/stm32f4xx_i2c.c **** {
 134              		.loc 1 176 0
 135              		.cfi_startproc
 136              		@ args = 0, pretend = 0, frame = 40
 137              		@ frame_needed = 1, uses_anonymous_args = 0
 138 0000 80B5     		push	{r7, lr}
 139              	.LCFI3:
 140              		.cfi_def_cfa_offset 8
 141              		.cfi_offset 7, -8
 142              		.cfi_offset 14, -4
 143 0002 8AB0     		sub	sp, sp, #40
 144              	.LCFI4:
 145              		.cfi_def_cfa_offset 48
 146 0004 00AF     		add	r7, sp, #0
 147              	.LCFI5:
 148              		.cfi_def_cfa_register 7
 149 0006 7860     		str	r0, [r7, #4]
 150 0008 3960     		str	r1, [r7]
 177:App/STM32F4-Discovery/Libraries/STM32F4xx_StdPeriph_Driver/src/stm32f4xx_i2c.c ****   uint16_t tmpreg = 0, freqrange = 0;
 151              		.loc 1 177 0
 152 000a 0023     		movs	r3, #0
 153 000c FB84     		strh	r3, [r7, #38]	@ movhi
 154 000e 0023     		movs	r3, #0
 155 0010 7B84     		strh	r3, [r7, #34]	@ movhi
 178:App/STM32F4-Discovery/Libraries/STM32F4xx_StdPeriph_Driver/src/stm32f4xx_i2c.c ****   uint16_t result = 0x04;
 156              		.loc 1 178 0
 157 0012 0423     		movs	r3, #4
 158 0014 BB84     		strh	r3, [r7, #36]	@ movhi
 179:App/STM32F4-Discovery/Libraries/STM32F4xx_StdPeriph_Driver/src/stm32f4xx_i2c.c ****   uint32_t pclk1 = 8000000;
 159              		.loc 1 179 0
 160 0016 874B     		ldr	r3, .L23
 161 0018 FB61     		str	r3, [r7, #28]
 180:App/STM32F4-Discovery/Libraries/STM32F4xx_StdPeriph_Driver/src/stm32f4xx_i2c.c ****   RCC_ClocksTypeDef  rcc_clocks;
 181:App/STM32F4-Discovery/Libraries/STM32F4xx_StdPeriph_Driver/src/stm32f4xx_i2c.c ****   /* Check the parameters */
 182:App/STM32F4-Discovery/Libraries/STM32F4xx_StdPeriph_Driver/src/stm32f4xx_i2c.c ****   assert_param(IS_I2C_ALL_PERIPH(I2Cx));
 162              		.loc 1 182 0
 163 001a 7A68     		ldr	r2, [r7, #4]
 164 001c 864B     		ldr	r3, .L23+4
 165 001e 9A42     		cmp	r2, r3
 166 0020 0BD0     		beq	.L9
 167              		.loc 1 182 0 is_stmt 0 discriminator 1
 168 0022 7A68     		ldr	r2, [r7, #4]
 169 0024 854B     		ldr	r3, .L23+8
 170 0026 9A42     		cmp	r2, r3
 171 0028 07D0     		beq	.L9
 172 002a 7A68     		ldr	r2, [r7, #4]
 173 002c 844B     		ldr	r3, .L23+12
 174 002e 9A42     		cmp	r2, r3
 175 0030 03D0     		beq	.L9
 176 0032 8448     		ldr	r0, .L23+16
 177 0034 B621     		movs	r1, #182
 178 0036 FFF7FEFF 		bl	assert_failed
 179              	.L9:
 183:App/STM32F4-Discovery/Libraries/STM32F4xx_StdPeriph_Driver/src/stm32f4xx_i2c.c ****   assert_param(IS_I2C_CLOCK_SPEED(I2C_InitStruct->I2C_ClockSpeed));
 180              		.loc 1 183 0 is_stmt 1
 181 003a 3B68     		ldr	r3, [r7]
 182 003c 1B68     		ldr	r3, [r3]
 183 003e 002B     		cmp	r3, #0
 184 0040 04D0     		beq	.L10
 185              		.loc 1 183 0 is_stmt 0 discriminator 2
 186 0042 3B68     		ldr	r3, [r7]
 187 0044 1A68     		ldr	r2, [r3]
 188 0046 804B     		ldr	r3, .L23+20
 189 0048 9A42     		cmp	r2, r3
 190 004a 03D9     		bls	.L11
 191              	.L10:
 192              		.loc 1 183 0 discriminator 1
 193 004c 7D48     		ldr	r0, .L23+16
 194 004e B721     		movs	r1, #183
 195 0050 FFF7FEFF 		bl	assert_failed
 196              	.L11:
 184:App/STM32F4-Discovery/Libraries/STM32F4xx_StdPeriph_Driver/src/stm32f4xx_i2c.c ****   assert_param(IS_I2C_MODE(I2C_InitStruct->I2C_Mode));
 197              		.loc 1 184 0 is_stmt 1
 198 0054 3B68     		ldr	r3, [r7]
 199 0056 9B88     		ldrh	r3, [r3, #4]
 200 0058 002B     		cmp	r3, #0
 201 005a 0BD0     		beq	.L12
 202              		.loc 1 184 0 is_stmt 0 discriminator 1
 203 005c 3B68     		ldr	r3, [r7]
 204 005e 9B88     		ldrh	r3, [r3, #4]
 205 0060 022B     		cmp	r3, #2
 206 0062 07D0     		beq	.L12
 207 0064 3B68     		ldr	r3, [r7]
 208 0066 9B88     		ldrh	r3, [r3, #4]
 209 0068 0A2B     		cmp	r3, #10
 210 006a 03D0     		beq	.L12
 211 006c 7548     		ldr	r0, .L23+16
 212 006e B821     		movs	r1, #184
 213 0070 FFF7FEFF 		bl	assert_failed
 214              	.L12:
 185:App/STM32F4-Discovery/Libraries/STM32F4xx_StdPeriph_Driver/src/stm32f4xx_i2c.c ****   assert_param(IS_I2C_DUTY_CYCLE(I2C_InitStruct->I2C_DutyCycle));
 215              		.loc 1 185 0 is_stmt 1
 216 0074 3B68     		ldr	r3, [r7]
 217 0076 DB88     		ldrh	r3, [r3, #6]
 218 0078 B3F5804F 		cmp	r3, #16384
 219 007c 09D0     		beq	.L13
 220              		.loc 1 185 0 is_stmt 0 discriminator 1
 221 007e 3B68     		ldr	r3, [r7]
 222 0080 DA88     		ldrh	r2, [r3, #6]
 223 0082 4BF6FF73 		movw	r3, #49151
 224 0086 9A42     		cmp	r2, r3
 225 0088 03D0     		beq	.L13
 226 008a 6E48     		ldr	r0, .L23+16
 227 008c B921     		movs	r1, #185
 228 008e FFF7FEFF 		bl	assert_failed
 229              	.L13:
 186:App/STM32F4-Discovery/Libraries/STM32F4xx_StdPeriph_Driver/src/stm32f4xx_i2c.c ****   assert_param(IS_I2C_OWN_ADDRESS1(I2C_InitStruct->I2C_OwnAddress1));
 230              		.loc 1 186 0 is_stmt 1
 231 0092 3B68     		ldr	r3, [r7]
 232 0094 1B89     		ldrh	r3, [r3, #8]
 233 0096 B3F5806F 		cmp	r3, #1024
 234 009a 03D3     		bcc	.L14
 235              		.loc 1 186 0 is_stmt 0 discriminator 1
 236 009c 6948     		ldr	r0, .L23+16
 237 009e BA21     		movs	r1, #186
 238 00a0 FFF7FEFF 		bl	assert_failed
 239              	.L14:
 187:App/STM32F4-Discovery/Libraries/STM32F4xx_StdPeriph_Driver/src/stm32f4xx_i2c.c ****   assert_param(IS_I2C_ACK_STATE(I2C_InitStruct->I2C_Ack));
 240              		.loc 1 187 0 is_stmt 1
 241 00a4 3B68     		ldr	r3, [r7]
 242 00a6 5B89     		ldrh	r3, [r3, #10]
 243 00a8 B3F5806F 		cmp	r3, #1024
 244 00ac 07D0     		beq	.L15
 245              		.loc 1 187 0 is_stmt 0 discriminator 1
 246 00ae 3B68     		ldr	r3, [r7]
 247 00b0 5B89     		ldrh	r3, [r3, #10]
 248 00b2 002B     		cmp	r3, #0
 249 00b4 03D0     		beq	.L15
 250 00b6 6348     		ldr	r0, .L23+16
 251 00b8 BB21     		movs	r1, #187
 252 00ba FFF7FEFF 		bl	assert_failed
 253              	.L15:
 188:App/STM32F4-Discovery/Libraries/STM32F4xx_StdPeriph_Driver/src/stm32f4xx_i2c.c ****   assert_param(IS_I2C_ACKNOWLEDGE_ADDRESS(I2C_InitStruct->I2C_AcknowledgedAddress));
 254              		.loc 1 188 0 is_stmt 1
 255 00be 3B68     		ldr	r3, [r7]
 256 00c0 9B89     		ldrh	r3, [r3, #12]
 257 00c2 B3F5804F 		cmp	r3, #16384
 258 00c6 08D0     		beq	.L16
 259              		.loc 1 188 0 is_stmt 0 discriminator 1
 260 00c8 3B68     		ldr	r3, [r7]
 261 00ca 9B89     		ldrh	r3, [r3, #12]
 262 00cc B3F5404F 		cmp	r3, #49152
 263 00d0 03D0     		beq	.L16
 264 00d2 5C48     		ldr	r0, .L23+16
 265 00d4 BC21     		movs	r1, #188
 266 00d6 FFF7FEFF 		bl	assert_failed
 267              	.L16:
 189:App/STM32F4-Discovery/Libraries/STM32F4xx_StdPeriph_Driver/src/stm32f4xx_i2c.c **** 
 190:App/STM32F4-Discovery/Libraries/STM32F4xx_StdPeriph_Driver/src/stm32f4xx_i2c.c **** /*---------------------------- I2Cx CR2 Configuration ------------------------*/
 191:App/STM32F4-Discovery/Libraries/STM32F4xx_StdPeriph_Driver/src/stm32f4xx_i2c.c ****   /* Get the I2Cx CR2 value */
 192:App/STM32F4-Discovery/Libraries/STM32F4xx_StdPeriph_Driver/src/stm32f4xx_i2c.c ****   tmpreg = I2Cx->CR2;
 268              		.loc 1 192 0 is_stmt 1
 269 00da 7B68     		ldr	r3, [r7, #4]
 270 00dc 9B88     		ldrh	r3, [r3, #4]	@ movhi
 271 00de FB84     		strh	r3, [r7, #38]	@ movhi
 193:App/STM32F4-Discovery/Libraries/STM32F4xx_StdPeriph_Driver/src/stm32f4xx_i2c.c ****   /* Clear frequency FREQ[5:0] bits */
 194:App/STM32F4-Discovery/Libraries/STM32F4xx_StdPeriph_Driver/src/stm32f4xx_i2c.c ****   tmpreg &= (uint16_t)~((uint16_t)I2C_CR2_FREQ);
 272              		.loc 1 194 0
 273 00e0 FB8C     		ldrh	r3, [r7, #38]	@ movhi
 274 00e2 23F03F03 		bic	r3, r3, #63
 275 00e6 FB84     		strh	r3, [r7, #38]	@ movhi
 195:App/STM32F4-Discovery/Libraries/STM32F4xx_StdPeriph_Driver/src/stm32f4xx_i2c.c ****   /* Get pclk1 frequency value */
 196:App/STM32F4-Discovery/Libraries/STM32F4xx_StdPeriph_Driver/src/stm32f4xx_i2c.c ****   RCC_GetClocksFreq(&rcc_clocks);
 276              		.loc 1 196 0
 277 00e8 07F10C03 		add	r3, r7, #12
 278 00ec 1846     		mov	r0, r3
 279 00ee FFF7FEFF 		bl	RCC_GetClocksFreq
 197:App/STM32F4-Discovery/Libraries/STM32F4xx_StdPeriph_Driver/src/stm32f4xx_i2c.c ****   pclk1 = rcc_clocks.PCLK1_Frequency;
 280              		.loc 1 197 0
 281 00f2 7B69     		ldr	r3, [r7, #20]
 282 00f4 FB61     		str	r3, [r7, #28]
 198:App/STM32F4-Discovery/Libraries/STM32F4xx_StdPeriph_Driver/src/stm32f4xx_i2c.c ****   /* Set frequency bits depending on pclk1 value */
 199:App/STM32F4-Discovery/Libraries/STM32F4xx_StdPeriph_Driver/src/stm32f4xx_i2c.c ****   freqrange = (uint16_t)(pclk1 / 1000000);
 283              		.loc 1 199 0
 284 00f6 FA69     		ldr	r2, [r7, #28]
 285 00f8 544B     		ldr	r3, .L23+24
 286 00fa A3FB0213 		umull	r1, r3, r3, r2
 287 00fe 9B0C     		lsrs	r3, r3, #18
 288 0100 7B84     		strh	r3, [r7, #34]	@ movhi
 200:App/STM32F4-Discovery/Libraries/STM32F4xx_StdPeriph_Driver/src/stm32f4xx_i2c.c ****   tmpreg |= freqrange;
 289              		.loc 1 200 0
 290 0102 FA8C     		ldrh	r2, [r7, #38]	@ movhi
 291 0104 7B8C     		ldrh	r3, [r7, #34]	@ movhi
 292 0106 1343     		orrs	r3, r3, r2
 293 0108 FB84     		strh	r3, [r7, #38]	@ movhi
 201:App/STM32F4-Discovery/Libraries/STM32F4xx_StdPeriph_Driver/src/stm32f4xx_i2c.c ****   /* Write to I2Cx CR2 */
 202:App/STM32F4-Discovery/Libraries/STM32F4xx_StdPeriph_Driver/src/stm32f4xx_i2c.c ****   I2Cx->CR2 = tmpreg;
 294              		.loc 1 202 0
 295 010a 7B68     		ldr	r3, [r7, #4]
 296 010c FA8C     		ldrh	r2, [r7, #38]	@ movhi
 297 010e 9A80     		strh	r2, [r3, #4]	@ movhi
 203:App/STM32F4-Discovery/Libraries/STM32F4xx_StdPeriph_Driver/src/stm32f4xx_i2c.c **** 
 204:App/STM32F4-Discovery/Libraries/STM32F4xx_StdPeriph_Driver/src/stm32f4xx_i2c.c **** /*---------------------------- I2Cx CCR Configuration ------------------------*/
 205:App/STM32F4-Discovery/Libraries/STM32F4xx_StdPeriph_Driver/src/stm32f4xx_i2c.c ****   /* Disable the selected I2C peripheral to configure TRISE */
 206:App/STM32F4-Discovery/Libraries/STM32F4xx_StdPeriph_Driver/src/stm32f4xx_i2c.c ****   I2Cx->CR1 &= (uint16_t)~((uint16_t)I2C_CR1_PE);
 298              		.loc 1 206 0
 299 0110 7B68     		ldr	r3, [r7, #4]
 300 0112 1B88     		ldrh	r3, [r3]	@ movhi
 301 0114 9BB2     		uxth	r3, r3
 302 0116 23F00103 		bic	r3, r3, #1
 303 011a 9AB2     		uxth	r2, r3
 304 011c 7B68     		ldr	r3, [r7, #4]
 305 011e 1A80     		strh	r2, [r3]	@ movhi
 207:App/STM32F4-Discovery/Libraries/STM32F4xx_StdPeriph_Driver/src/stm32f4xx_i2c.c ****   /* Reset tmpreg value */
 208:App/STM32F4-Discovery/Libraries/STM32F4xx_StdPeriph_Driver/src/stm32f4xx_i2c.c ****   /* Clear F/S, DUTY and CCR[11:0] bits */
 209:App/STM32F4-Discovery/Libraries/STM32F4xx_StdPeriph_Driver/src/stm32f4xx_i2c.c ****   tmpreg = 0;
 306              		.loc 1 209 0
 307 0120 0023     		movs	r3, #0
 308 0122 FB84     		strh	r3, [r7, #38]	@ movhi
 210:App/STM32F4-Discovery/Libraries/STM32F4xx_StdPeriph_Driver/src/stm32f4xx_i2c.c **** 
 211:App/STM32F4-Discovery/Libraries/STM32F4xx_StdPeriph_Driver/src/stm32f4xx_i2c.c ****   /* Configure speed in standard mode */
 212:App/STM32F4-Discovery/Libraries/STM32F4xx_StdPeriph_Driver/src/stm32f4xx_i2c.c ****   if (I2C_InitStruct->I2C_ClockSpeed <= 100000)
 309              		.loc 1 212 0
 310 0124 3B68     		ldr	r3, [r7]
 311 0126 1A68     		ldr	r2, [r3]
 312 0128 494B     		ldr	r3, .L23+28
 313 012a 9A42     		cmp	r2, r3
 314 012c 15D8     		bhi	.L17
 213:App/STM32F4-Discovery/Libraries/STM32F4xx_StdPeriph_Driver/src/stm32f4xx_i2c.c ****   {
 214:App/STM32F4-Discovery/Libraries/STM32F4xx_StdPeriph_Driver/src/stm32f4xx_i2c.c ****     /* Standard mode speed calculate */
 215:App/STM32F4-Discovery/Libraries/STM32F4xx_StdPeriph_Driver/src/stm32f4xx_i2c.c ****     result = (uint16_t)(pclk1 / (I2C_InitStruct->I2C_ClockSpeed << 1));
 315              		.loc 1 215 0
 316 012e 3B68     		ldr	r3, [r7]
 317 0130 1B68     		ldr	r3, [r3]
 318 0132 5B00     		lsls	r3, r3, #1
 319 0134 FA69     		ldr	r2, [r7, #28]
 320 0136 B2FBF3F3 		udiv	r3, r2, r3
 321 013a BB84     		strh	r3, [r7, #36]	@ movhi
 216:App/STM32F4-Discovery/Libraries/STM32F4xx_StdPeriph_Driver/src/stm32f4xx_i2c.c ****     /* Test if CCR value is under 0x4*/
 217:App/STM32F4-Discovery/Libraries/STM32F4xx_StdPeriph_Driver/src/stm32f4xx_i2c.c ****     if (result < 0x04)
 322              		.loc 1 217 0
 323 013c BB8C     		ldrh	r3, [r7, #36]
 324 013e 032B     		cmp	r3, #3
 325 0140 01D8     		bhi	.L18
 218:App/STM32F4-Discovery/Libraries/STM32F4xx_StdPeriph_Driver/src/stm32f4xx_i2c.c ****     {
 219:App/STM32F4-Discovery/Libraries/STM32F4xx_StdPeriph_Driver/src/stm32f4xx_i2c.c ****       /* Set minimum allowed value */
 220:App/STM32F4-Discovery/Libraries/STM32F4xx_StdPeriph_Driver/src/stm32f4xx_i2c.c ****       result = 0x04;  
 326              		.loc 1 220 0
 327 0142 0423     		movs	r3, #4
 328 0144 BB84     		strh	r3, [r7, #36]	@ movhi
 329              	.L18:
 221:App/STM32F4-Discovery/Libraries/STM32F4xx_StdPeriph_Driver/src/stm32f4xx_i2c.c ****     }
 222:App/STM32F4-Discovery/Libraries/STM32F4xx_StdPeriph_Driver/src/stm32f4xx_i2c.c ****     /* Set speed value for standard mode */
 223:App/STM32F4-Discovery/Libraries/STM32F4xx_StdPeriph_Driver/src/stm32f4xx_i2c.c ****     tmpreg |= result;	  
 330              		.loc 1 223 0
 331 0146 FA8C     		ldrh	r2, [r7, #38]	@ movhi
 332 0148 BB8C     		ldrh	r3, [r7, #36]	@ movhi
 333 014a 1343     		orrs	r3, r3, r2
 334 014c FB84     		strh	r3, [r7, #38]	@ movhi
 224:App/STM32F4-Discovery/Libraries/STM32F4xx_StdPeriph_Driver/src/stm32f4xx_i2c.c ****     /* Set Maximum Rise Time for standard mode */
 225:App/STM32F4-Discovery/Libraries/STM32F4xx_StdPeriph_Driver/src/stm32f4xx_i2c.c ****     I2Cx->TRISE = freqrange + 1; 
 335              		.loc 1 225 0
 336 014e 7B8C     		ldrh	r3, [r7, #34]	@ movhi
 337 0150 0133     		adds	r3, r3, #1
 338 0152 9AB2     		uxth	r2, r3
 339 0154 7B68     		ldr	r3, [r7, #4]
 340 0156 1A84     		strh	r2, [r3, #32]	@ movhi
 341 0158 40E0     		b	.L19
 342              	.L17:
 226:App/STM32F4-Discovery/Libraries/STM32F4xx_StdPeriph_Driver/src/stm32f4xx_i2c.c ****   }
 227:App/STM32F4-Discovery/Libraries/STM32F4xx_StdPeriph_Driver/src/stm32f4xx_i2c.c ****   /* Configure speed in fast mode */
 228:App/STM32F4-Discovery/Libraries/STM32F4xx_StdPeriph_Driver/src/stm32f4xx_i2c.c ****   /* To use the I2C at 400 KHz (in fast mode), the PCLK1 frequency (I2C peripheral
 229:App/STM32F4-Discovery/Libraries/STM32F4xx_StdPeriph_Driver/src/stm32f4xx_i2c.c ****      input clock) must be a multiple of 10 MHz */
 230:App/STM32F4-Discovery/Libraries/STM32F4xx_StdPeriph_Driver/src/stm32f4xx_i2c.c ****   else /*(I2C_InitStruct->I2C_ClockSpeed <= 400000)*/
 231:App/STM32F4-Discovery/Libraries/STM32F4xx_StdPeriph_Driver/src/stm32f4xx_i2c.c ****   {
 232:App/STM32F4-Discovery/Libraries/STM32F4xx_StdPeriph_Driver/src/stm32f4xx_i2c.c ****     if (I2C_InitStruct->I2C_DutyCycle == I2C_DutyCycle_2)
 343              		.loc 1 232 0
 344 015a 3B68     		ldr	r3, [r7]
 345 015c DA88     		ldrh	r2, [r3, #6]
 346 015e 4BF6FF73 		movw	r3, #49151
 347 0162 9A42     		cmp	r2, r3
 348 0164 09D1     		bne	.L20
 233:App/STM32F4-Discovery/Libraries/STM32F4xx_StdPeriph_Driver/src/stm32f4xx_i2c.c ****     {
 234:App/STM32F4-Discovery/Libraries/STM32F4xx_StdPeriph_Driver/src/stm32f4xx_i2c.c ****       /* Fast mode speed calculate: Tlow/Thigh = 2 */
 235:App/STM32F4-Discovery/Libraries/STM32F4xx_StdPeriph_Driver/src/stm32f4xx_i2c.c ****       result = (uint16_t)(pclk1 / (I2C_InitStruct->I2C_ClockSpeed * 3));
 349              		.loc 1 235 0
 350 0166 3B68     		ldr	r3, [r7]
 351 0168 1A68     		ldr	r2, [r3]
 352 016a 1346     		mov	r3, r2
 353 016c 5B00     		lsls	r3, r3, #1
 354 016e 1344     		add	r3, r3, r2
 355 0170 FA69     		ldr	r2, [r7, #28]
 356 0172 B2FBF3F3 		udiv	r3, r2, r3
 357 0176 BB84     		strh	r3, [r7, #36]	@ movhi
 358 0178 0EE0     		b	.L21
 359              	.L20:
 236:App/STM32F4-Discovery/Libraries/STM32F4xx_StdPeriph_Driver/src/stm32f4xx_i2c.c ****     }
 237:App/STM32F4-Discovery/Libraries/STM32F4xx_StdPeriph_Driver/src/stm32f4xx_i2c.c ****     else /*I2C_InitStruct->I2C_DutyCycle == I2C_DutyCycle_16_9*/
 238:App/STM32F4-Discovery/Libraries/STM32F4xx_StdPeriph_Driver/src/stm32f4xx_i2c.c ****     {
 239:App/STM32F4-Discovery/Libraries/STM32F4xx_StdPeriph_Driver/src/stm32f4xx_i2c.c ****       /* Fast mode speed calculate: Tlow/Thigh = 16/9 */
 240:App/STM32F4-Discovery/Libraries/STM32F4xx_StdPeriph_Driver/src/stm32f4xx_i2c.c ****       result = (uint16_t)(pclk1 / (I2C_InitStruct->I2C_ClockSpeed * 25));
 360              		.loc 1 240 0
 361 017a 3B68     		ldr	r3, [r7]
 362 017c 1A68     		ldr	r2, [r3]
 363 017e 1346     		mov	r3, r2
 364 0180 9B00     		lsls	r3, r3, #2
 365 0182 1344     		add	r3, r3, r2
 366 0184 9A00     		lsls	r2, r3, #2
 367 0186 1344     		add	r3, r3, r2
 368 0188 FA69     		ldr	r2, [r7, #28]
 369 018a B2FBF3F3 		udiv	r3, r2, r3
 370 018e BB84     		strh	r3, [r7, #36]	@ movhi
 241:App/STM32F4-Discovery/Libraries/STM32F4xx_StdPeriph_Driver/src/stm32f4xx_i2c.c ****       /* Set DUTY bit */
 242:App/STM32F4-Discovery/Libraries/STM32F4xx_StdPeriph_Driver/src/stm32f4xx_i2c.c ****       result |= I2C_DutyCycle_16_9;
 371              		.loc 1 242 0
 372 0190 BB8C     		ldrh	r3, [r7, #36]	@ movhi
 373 0192 43F48043 		orr	r3, r3, #16384
 374 0196 BB84     		strh	r3, [r7, #36]	@ movhi
 375              	.L21:
 243:App/STM32F4-Discovery/Libraries/STM32F4xx_StdPeriph_Driver/src/stm32f4xx_i2c.c ****     }
 244:App/STM32F4-Discovery/Libraries/STM32F4xx_StdPeriph_Driver/src/stm32f4xx_i2c.c **** 
 245:App/STM32F4-Discovery/Libraries/STM32F4xx_StdPeriph_Driver/src/stm32f4xx_i2c.c ****     /* Test if CCR value is under 0x1*/
 246:App/STM32F4-Discovery/Libraries/STM32F4xx_StdPeriph_Driver/src/stm32f4xx_i2c.c ****     if ((result & I2C_CCR_CCR) == 0)
 376              		.loc 1 246 0
 377 0198 BB8C     		ldrh	r3, [r7, #36]
 378 019a C3F30B03 		ubfx	r3, r3, #0, #12
 379 019e 002B     		cmp	r3, #0
 380 01a0 03D1     		bne	.L22
 247:App/STM32F4-Discovery/Libraries/STM32F4xx_StdPeriph_Driver/src/stm32f4xx_i2c.c ****     {
 248:App/STM32F4-Discovery/Libraries/STM32F4xx_StdPeriph_Driver/src/stm32f4xx_i2c.c ****       /* Set minimum allowed value */
 249:App/STM32F4-Discovery/Libraries/STM32F4xx_StdPeriph_Driver/src/stm32f4xx_i2c.c ****       result |= (uint16_t)0x0001;  
 381              		.loc 1 249 0
 382 01a2 BB8C     		ldrh	r3, [r7, #36]	@ movhi
 383 01a4 43F00103 		orr	r3, r3, #1
 384 01a8 BB84     		strh	r3, [r7, #36]	@ movhi
 385              	.L22:
 250:App/STM32F4-Discovery/Libraries/STM32F4xx_StdPeriph_Driver/src/stm32f4xx_i2c.c ****     }
 251:App/STM32F4-Discovery/Libraries/STM32F4xx_StdPeriph_Driver/src/stm32f4xx_i2c.c ****     /* Set speed value and set F/S bit for fast mode */
 252:App/STM32F4-Discovery/Libraries/STM32F4xx_StdPeriph_Driver/src/stm32f4xx_i2c.c ****     tmpreg |= (uint16_t)(result | I2C_CCR_FS);
 386              		.loc 1 252 0
 387 01aa BA8C     		ldrh	r2, [r7, #36]	@ movhi
 388 01ac FB8C     		ldrh	r3, [r7, #38]	@ movhi
 389 01ae 1343     		orrs	r3, r3, r2
 390 01b0 9BB2     		uxth	r3, r3
 391 01b2 6FEA4343 		mvn	r3, r3, lsl #17
 392 01b6 6FEA5343 		mvn	r3, r3, lsr #17
 393 01ba FB84     		strh	r3, [r7, #38]	@ movhi
 253:App/STM32F4-Discovery/Libraries/STM32F4xx_StdPeriph_Driver/src/stm32f4xx_i2c.c ****     /* Set Maximum Rise Time for fast mode */
 254:App/STM32F4-Discovery/Libraries/STM32F4xx_StdPeriph_Driver/src/stm32f4xx_i2c.c ****     I2Cx->TRISE = (uint16_t)(((freqrange * (uint16_t)300) / (uint16_t)1000) + (uint16_t)1);  
 394              		.loc 1 254 0
 395 01bc 7B8C     		ldrh	r3, [r7, #34]
 396 01be 4FF49672 		mov	r2, #300
 397 01c2 02FB03F3 		mul	r3, r2, r3
 398 01c6 234A     		ldr	r2, .L23+32
 399 01c8 82FB0312 		smull	r1, r2, r2, r3
 400 01cc 9211     		asrs	r2, r2, #6
 401 01ce DB17     		asrs	r3, r3, #31
 402 01d0 D31A     		subs	r3, r2, r3
 403 01d2 9BB2     		uxth	r3, r3
 404 01d4 0133     		adds	r3, r3, #1
 405 01d6 9AB2     		uxth	r2, r3
 406 01d8 7B68     		ldr	r3, [r7, #4]
 407 01da 1A84     		strh	r2, [r3, #32]	@ movhi
 408              	.L19:
 255:App/STM32F4-Discovery/Libraries/STM32F4xx_StdPeriph_Driver/src/stm32f4xx_i2c.c ****   }
 256:App/STM32F4-Discovery/Libraries/STM32F4xx_StdPeriph_Driver/src/stm32f4xx_i2c.c **** 
 257:App/STM32F4-Discovery/Libraries/STM32F4xx_StdPeriph_Driver/src/stm32f4xx_i2c.c ****   /* Write to I2Cx CCR */
 258:App/STM32F4-Discovery/Libraries/STM32F4xx_StdPeriph_Driver/src/stm32f4xx_i2c.c ****   I2Cx->CCR = tmpreg;
 409              		.loc 1 258 0
 410 01dc 7B68     		ldr	r3, [r7, #4]
 411 01de FA8C     		ldrh	r2, [r7, #38]	@ movhi
 412 01e0 9A83     		strh	r2, [r3, #28]	@ movhi
 259:App/STM32F4-Discovery/Libraries/STM32F4xx_StdPeriph_Driver/src/stm32f4xx_i2c.c ****   /* Enable the selected I2C peripheral */
 260:App/STM32F4-Discovery/Libraries/STM32F4xx_StdPeriph_Driver/src/stm32f4xx_i2c.c ****   I2Cx->CR1 |= I2C_CR1_PE;
 413              		.loc 1 260 0
 414 01e2 7B68     		ldr	r3, [r7, #4]
 415 01e4 1B88     		ldrh	r3, [r3]	@ movhi
 416 01e6 9BB2     		uxth	r3, r3
 417 01e8 43F00103 		orr	r3, r3, #1
 418 01ec 9AB2     		uxth	r2, r3
 419 01ee 7B68     		ldr	r3, [r7, #4]
 420 01f0 1A80     		strh	r2, [r3]	@ movhi
 261:App/STM32F4-Discovery/Libraries/STM32F4xx_StdPeriph_Driver/src/stm32f4xx_i2c.c **** 
 262:App/STM32F4-Discovery/Libraries/STM32F4xx_StdPeriph_Driver/src/stm32f4xx_i2c.c **** /*---------------------------- I2Cx CR1 Configuration ------------------------*/
 263:App/STM32F4-Discovery/Libraries/STM32F4xx_StdPeriph_Driver/src/stm32f4xx_i2c.c ****   /* Get the I2Cx CR1 value */
 264:App/STM32F4-Discovery/Libraries/STM32F4xx_StdPeriph_Driver/src/stm32f4xx_i2c.c ****   tmpreg = I2Cx->CR1;
 421              		.loc 1 264 0
 422 01f2 7B68     		ldr	r3, [r7, #4]
 423 01f4 1B88     		ldrh	r3, [r3]	@ movhi
 424 01f6 FB84     		strh	r3, [r7, #38]	@ movhi
 265:App/STM32F4-Discovery/Libraries/STM32F4xx_StdPeriph_Driver/src/stm32f4xx_i2c.c ****   /* Clear ACK, SMBTYPE and  SMBUS bits */
 266:App/STM32F4-Discovery/Libraries/STM32F4xx_StdPeriph_Driver/src/stm32f4xx_i2c.c ****   tmpreg &= CR1_CLEAR_MASK;
 425              		.loc 1 266 0
 426 01f8 FB8C     		ldrh	r3, [r7, #38]	@ movhi
 427 01fa 23F48163 		bic	r3, r3, #1032
 428 01fe 23F00203 		bic	r3, r3, #2
 429 0202 FB84     		strh	r3, [r7, #38]	@ movhi
 267:App/STM32F4-Discovery/Libraries/STM32F4xx_StdPeriph_Driver/src/stm32f4xx_i2c.c ****   /* Configure I2Cx: mode and acknowledgement */
 268:App/STM32F4-Discovery/Libraries/STM32F4xx_StdPeriph_Driver/src/stm32f4xx_i2c.c ****   /* Set SMBTYPE and SMBUS bits according to I2C_Mode value */
 269:App/STM32F4-Discovery/Libraries/STM32F4xx_StdPeriph_Driver/src/stm32f4xx_i2c.c ****   /* Set ACK bit according to I2C_Ack value */
 270:App/STM32F4-Discovery/Libraries/STM32F4xx_StdPeriph_Driver/src/stm32f4xx_i2c.c ****   tmpreg |= (uint16_t)((uint32_t)I2C_InitStruct->I2C_Mode | I2C_InitStruct->I2C_Ack);
 430              		.loc 1 270 0
 431 0204 3B68     		ldr	r3, [r7]
 432 0206 9A88     		ldrh	r2, [r3, #4]
 433 0208 3B68     		ldr	r3, [r7]
 434 020a 5B89     		ldrh	r3, [r3, #10]
 435 020c 1343     		orrs	r3, r3, r2
 436 020e 9AB2     		uxth	r2, r3
 437 0210 FB8C     		ldrh	r3, [r7, #38]	@ movhi
 438 0212 1343     		orrs	r3, r3, r2
 439 0214 FB84     		strh	r3, [r7, #38]	@ movhi
 271:App/STM32F4-Discovery/Libraries/STM32F4xx_StdPeriph_Driver/src/stm32f4xx_i2c.c ****   /* Write to I2Cx CR1 */
 272:App/STM32F4-Discovery/Libraries/STM32F4xx_StdPeriph_Driver/src/stm32f4xx_i2c.c ****   I2Cx->CR1 = tmpreg;
 440              		.loc 1 272 0
 441 0216 7B68     		ldr	r3, [r7, #4]
 442 0218 FA8C     		ldrh	r2, [r7, #38]	@ movhi
 443 021a 1A80     		strh	r2, [r3]	@ movhi
 273:App/STM32F4-Discovery/Libraries/STM32F4xx_StdPeriph_Driver/src/stm32f4xx_i2c.c **** 
 274:App/STM32F4-Discovery/Libraries/STM32F4xx_StdPeriph_Driver/src/stm32f4xx_i2c.c **** /*---------------------------- I2Cx OAR1 Configuration -----------------------*/
 275:App/STM32F4-Discovery/Libraries/STM32F4xx_StdPeriph_Driver/src/stm32f4xx_i2c.c ****   /* Set I2Cx Own Address1 and acknowledged address */
 276:App/STM32F4-Discovery/Libraries/STM32F4xx_StdPeriph_Driver/src/stm32f4xx_i2c.c ****   I2Cx->OAR1 = (I2C_InitStruct->I2C_AcknowledgedAddress | I2C_InitStruct->I2C_OwnAddress1);
 444              		.loc 1 276 0
 445 021c 3B68     		ldr	r3, [r7]
 446 021e 9A89     		ldrh	r2, [r3, #12]
 447 0220 3B68     		ldr	r3, [r7]
 448 0222 1B89     		ldrh	r3, [r3, #8]
 449 0224 1343     		orrs	r3, r3, r2
 450 0226 9AB2     		uxth	r2, r3
 451 0228 7B68     		ldr	r3, [r7, #4]
 452 022a 1A81     		strh	r2, [r3, #8]	@ movhi
 277:App/STM32F4-Discovery/Libraries/STM32F4xx_StdPeriph_Driver/src/stm32f4xx_i2c.c **** }
 453              		.loc 1 277 0
 454 022c 2837     		adds	r7, r7, #40
 455 022e BD46     		mov	sp, r7
 456              		@ sp needed
 457 0230 80BD     		pop	{r7, pc}
 458              	.L24:
 459 0232 00BF     		.align	2
 460              	.L23:
 461 0234 00127A00 		.word	8000000
 462 0238 00540040 		.word	1073763328
 463 023c 00580040 		.word	1073764352
 464 0240 005C0040 		.word	1073765376
 465 0244 00000000 		.word	.LC0
 466 0248 801A0600 		.word	400000
 467 024c 83DE1B43 		.word	1125899907
 468 0250 A0860100 		.word	100000
 469 0254 D34D6210 		.word	274877907
 470              		.cfi_endproc
 471              	.LFE111:
 473              		.section	.text.I2C_StructInit,"ax",%progbits
 474              		.align	2
 475              		.global	I2C_StructInit
 476              		.thumb
 477              		.thumb_func
 479              	I2C_StructInit:
 480              	.LFB112:
 278:App/STM32F4-Discovery/Libraries/STM32F4xx_StdPeriph_Driver/src/stm32f4xx_i2c.c **** 
 279:App/STM32F4-Discovery/Libraries/STM32F4xx_StdPeriph_Driver/src/stm32f4xx_i2c.c **** /**
 280:App/STM32F4-Discovery/Libraries/STM32F4xx_StdPeriph_Driver/src/stm32f4xx_i2c.c ****   * @brief  Fills each I2C_InitStruct member with its default value.
 281:App/STM32F4-Discovery/Libraries/STM32F4xx_StdPeriph_Driver/src/stm32f4xx_i2c.c ****   * @param  I2C_InitStruct: pointer to an I2C_InitTypeDef structure which will be initialized.
 282:App/STM32F4-Discovery/Libraries/STM32F4xx_StdPeriph_Driver/src/stm32f4xx_i2c.c ****   * @retval None
 283:App/STM32F4-Discovery/Libraries/STM32F4xx_StdPeriph_Driver/src/stm32f4xx_i2c.c ****   */
 284:App/STM32F4-Discovery/Libraries/STM32F4xx_StdPeriph_Driver/src/stm32f4xx_i2c.c **** void I2C_StructInit(I2C_InitTypeDef* I2C_InitStruct)
 285:App/STM32F4-Discovery/Libraries/STM32F4xx_StdPeriph_Driver/src/stm32f4xx_i2c.c **** {
 481              		.loc 1 285 0
 482              		.cfi_startproc
 483              		@ args = 0, pretend = 0, frame = 8
 484              		@ frame_needed = 1, uses_anonymous_args = 0
 485              		@ link register save eliminated.
 486 0000 80B4     		push	{r7}
 487              	.LCFI6:
 488              		.cfi_def_cfa_offset 4
 489              		.cfi_offset 7, -4
 490 0002 83B0     		sub	sp, sp, #12
 491              	.LCFI7:
 492              		.cfi_def_cfa_offset 16
 493 0004 00AF     		add	r7, sp, #0
 494              	.LCFI8:
 495              		.cfi_def_cfa_register 7
 496 0006 7860     		str	r0, [r7, #4]
 286:App/STM32F4-Discovery/Libraries/STM32F4xx_StdPeriph_Driver/src/stm32f4xx_i2c.c **** /*---------------- Reset I2C init structure parameters values ----------------*/
 287:App/STM32F4-Discovery/Libraries/STM32F4xx_StdPeriph_Driver/src/stm32f4xx_i2c.c ****   /* initialize the I2C_ClockSpeed member */
 288:App/STM32F4-Discovery/Libraries/STM32F4xx_StdPeriph_Driver/src/stm32f4xx_i2c.c ****   I2C_InitStruct->I2C_ClockSpeed = 5000;
 497              		.loc 1 288 0
 498 0008 7B68     		ldr	r3, [r7, #4]
 499 000a 41F28832 		movw	r2, #5000
 500 000e 1A60     		str	r2, [r3]
 289:App/STM32F4-Discovery/Libraries/STM32F4xx_StdPeriph_Driver/src/stm32f4xx_i2c.c ****   /* Initialize the I2C_Mode member */
 290:App/STM32F4-Discovery/Libraries/STM32F4xx_StdPeriph_Driver/src/stm32f4xx_i2c.c ****   I2C_InitStruct->I2C_Mode = I2C_Mode_I2C;
 501              		.loc 1 290 0
 502 0010 7B68     		ldr	r3, [r7, #4]
 503 0012 0022     		movs	r2, #0
 504 0014 9A80     		strh	r2, [r3, #4]	@ movhi
 291:App/STM32F4-Discovery/Libraries/STM32F4xx_StdPeriph_Driver/src/stm32f4xx_i2c.c ****   /* Initialize the I2C_DutyCycle member */
 292:App/STM32F4-Discovery/Libraries/STM32F4xx_StdPeriph_Driver/src/stm32f4xx_i2c.c ****   I2C_InitStruct->I2C_DutyCycle = I2C_DutyCycle_2;
 505              		.loc 1 292 0
 506 0016 7B68     		ldr	r3, [r7, #4]
 507 0018 4BF6FF72 		movw	r2, #49151
 508 001c DA80     		strh	r2, [r3, #6]	@ movhi
 293:App/STM32F4-Discovery/Libraries/STM32F4xx_StdPeriph_Driver/src/stm32f4xx_i2c.c ****   /* Initialize the I2C_OwnAddress1 member */
 294:App/STM32F4-Discovery/Libraries/STM32F4xx_StdPeriph_Driver/src/stm32f4xx_i2c.c ****   I2C_InitStruct->I2C_OwnAddress1 = 0;
 509              		.loc 1 294 0
 510 001e 7B68     		ldr	r3, [r7, #4]
 511 0020 0022     		movs	r2, #0
 512 0022 1A81     		strh	r2, [r3, #8]	@ movhi
 295:App/STM32F4-Discovery/Libraries/STM32F4xx_StdPeriph_Driver/src/stm32f4xx_i2c.c ****   /* Initialize the I2C_Ack member */
 296:App/STM32F4-Discovery/Libraries/STM32F4xx_StdPeriph_Driver/src/stm32f4xx_i2c.c ****   I2C_InitStruct->I2C_Ack = I2C_Ack_Disable;
 513              		.loc 1 296 0
 514 0024 7B68     		ldr	r3, [r7, #4]
 515 0026 0022     		movs	r2, #0
 516 0028 5A81     		strh	r2, [r3, #10]	@ movhi
 297:App/STM32F4-Discovery/Libraries/STM32F4xx_StdPeriph_Driver/src/stm32f4xx_i2c.c ****   /* Initialize the I2C_AcknowledgedAddress member */
 298:App/STM32F4-Discovery/Libraries/STM32F4xx_StdPeriph_Driver/src/stm32f4xx_i2c.c ****   I2C_InitStruct->I2C_AcknowledgedAddress = I2C_AcknowledgedAddress_7bit;
 517              		.loc 1 298 0
 518 002a 7B68     		ldr	r3, [r7, #4]
 519 002c 4FF48042 		mov	r2, #16384
 520 0030 9A81     		strh	r2, [r3, #12]	@ movhi
 299:App/STM32F4-Discovery/Libraries/STM32F4xx_StdPeriph_Driver/src/stm32f4xx_i2c.c **** }
 521              		.loc 1 299 0
 522 0032 0C37     		adds	r7, r7, #12
 523 0034 BD46     		mov	sp, r7
 524              		@ sp needed
 525 0036 5DF8047B 		ldr	r7, [sp], #4
 526 003a 7047     		bx	lr
 527              		.cfi_endproc
 528              	.LFE112:
 530              		.section	.text.I2C_Cmd,"ax",%progbits
 531              		.align	2
 532              		.global	I2C_Cmd
 533              		.thumb
 534              		.thumb_func
 536              	I2C_Cmd:
 537              	.LFB113:
 300:App/STM32F4-Discovery/Libraries/STM32F4xx_StdPeriph_Driver/src/stm32f4xx_i2c.c **** 
 301:App/STM32F4-Discovery/Libraries/STM32F4xx_StdPeriph_Driver/src/stm32f4xx_i2c.c **** /**
 302:App/STM32F4-Discovery/Libraries/STM32F4xx_StdPeriph_Driver/src/stm32f4xx_i2c.c ****   * @brief  Enables or disables the specified I2C peripheral.
 303:App/STM32F4-Discovery/Libraries/STM32F4xx_StdPeriph_Driver/src/stm32f4xx_i2c.c ****   * @param  I2Cx: where x can be 1, 2 or 3 to select the I2C peripheral.
 304:App/STM32F4-Discovery/Libraries/STM32F4xx_StdPeriph_Driver/src/stm32f4xx_i2c.c ****   * @param  NewState: new state of the I2Cx peripheral. 
 305:App/STM32F4-Discovery/Libraries/STM32F4xx_StdPeriph_Driver/src/stm32f4xx_i2c.c ****   *          This parameter can be: ENABLE or DISABLE.
 306:App/STM32F4-Discovery/Libraries/STM32F4xx_StdPeriph_Driver/src/stm32f4xx_i2c.c ****   * @retval None
 307:App/STM32F4-Discovery/Libraries/STM32F4xx_StdPeriph_Driver/src/stm32f4xx_i2c.c ****   */
 308:App/STM32F4-Discovery/Libraries/STM32F4xx_StdPeriph_Driver/src/stm32f4xx_i2c.c **** void I2C_Cmd(I2C_TypeDef* I2Cx, FunctionalState NewState)
 309:App/STM32F4-Discovery/Libraries/STM32F4xx_StdPeriph_Driver/src/stm32f4xx_i2c.c **** {
 538              		.loc 1 309 0
 539              		.cfi_startproc
 540              		@ args = 0, pretend = 0, frame = 8
 541              		@ frame_needed = 1, uses_anonymous_args = 0
 542 0000 80B5     		push	{r7, lr}
 543              	.LCFI9:
 544              		.cfi_def_cfa_offset 8
 545              		.cfi_offset 7, -8
 546              		.cfi_offset 14, -4
 547 0002 82B0     		sub	sp, sp, #8
 548              	.LCFI10:
 549              		.cfi_def_cfa_offset 16
 550 0004 00AF     		add	r7, sp, #0
 551              	.LCFI11:
 552              		.cfi_def_cfa_register 7
 553 0006 7860     		str	r0, [r7, #4]
 554 0008 0B46     		mov	r3, r1
 555 000a FB70     		strb	r3, [r7, #3]
 310:App/STM32F4-Discovery/Libraries/STM32F4xx_StdPeriph_Driver/src/stm32f4xx_i2c.c ****   /* Check the parameters */
 311:App/STM32F4-Discovery/Libraries/STM32F4xx_StdPeriph_Driver/src/stm32f4xx_i2c.c ****   assert_param(IS_I2C_ALL_PERIPH(I2Cx));
 556              		.loc 1 311 0
 557 000c 7A68     		ldr	r2, [r7, #4]
 558 000e 194B     		ldr	r3, .L31
 559 0010 9A42     		cmp	r2, r3
 560 0012 0CD0     		beq	.L27
 561              		.loc 1 311 0 is_stmt 0 discriminator 1
 562 0014 7A68     		ldr	r2, [r7, #4]
 563 0016 184B     		ldr	r3, .L31+4
 564 0018 9A42     		cmp	r2, r3
 565 001a 08D0     		beq	.L27
 566 001c 7A68     		ldr	r2, [r7, #4]
 567 001e 174B     		ldr	r3, .L31+8
 568 0020 9A42     		cmp	r2, r3
 569 0022 04D0     		beq	.L27
 570 0024 1648     		ldr	r0, .L31+12
 571 0026 40F23711 		movw	r1, #311
 572 002a FFF7FEFF 		bl	assert_failed
 573              	.L27:
 312:App/STM32F4-Discovery/Libraries/STM32F4xx_StdPeriph_Driver/src/stm32f4xx_i2c.c ****   assert_param(IS_FUNCTIONAL_STATE(NewState));
 574              		.loc 1 312 0 is_stmt 1
 575 002e FB78     		ldrb	r3, [r7, #3]	@ zero_extendqisi2
 576 0030 002B     		cmp	r3, #0
 577 0032 07D0     		beq	.L28
 578              		.loc 1 312 0 is_stmt 0 discriminator 1
 579 0034 FB78     		ldrb	r3, [r7, #3]	@ zero_extendqisi2
 580 0036 012B     		cmp	r3, #1
 581 0038 04D0     		beq	.L28
 582 003a 1148     		ldr	r0, .L31+12
 583 003c 4FF49C71 		mov	r1, #312
 584 0040 FFF7FEFF 		bl	assert_failed
 585              	.L28:
 313:App/STM32F4-Discovery/Libraries/STM32F4xx_StdPeriph_Driver/src/stm32f4xx_i2c.c ****   if (NewState != DISABLE)
 586              		.loc 1 313 0 is_stmt 1
 587 0044 FB78     		ldrb	r3, [r7, #3]	@ zero_extendqisi2
 588 0046 002B     		cmp	r3, #0
 589 0048 08D0     		beq	.L29
 314:App/STM32F4-Discovery/Libraries/STM32F4xx_StdPeriph_Driver/src/stm32f4xx_i2c.c ****   {
 315:App/STM32F4-Discovery/Libraries/STM32F4xx_StdPeriph_Driver/src/stm32f4xx_i2c.c ****     /* Enable the selected I2C peripheral */
 316:App/STM32F4-Discovery/Libraries/STM32F4xx_StdPeriph_Driver/src/stm32f4xx_i2c.c ****     I2Cx->CR1 |= I2C_CR1_PE;
 590              		.loc 1 316 0
 591 004a 7B68     		ldr	r3, [r7, #4]
 592 004c 1B88     		ldrh	r3, [r3]	@ movhi
 593 004e 9BB2     		uxth	r3, r3
 594 0050 43F00103 		orr	r3, r3, #1
 595 0054 9AB2     		uxth	r2, r3
 596 0056 7B68     		ldr	r3, [r7, #4]
 597 0058 1A80     		strh	r2, [r3]	@ movhi
 598 005a 07E0     		b	.L26
 599              	.L29:
 317:App/STM32F4-Discovery/Libraries/STM32F4xx_StdPeriph_Driver/src/stm32f4xx_i2c.c ****   }
 318:App/STM32F4-Discovery/Libraries/STM32F4xx_StdPeriph_Driver/src/stm32f4xx_i2c.c ****   else
 319:App/STM32F4-Discovery/Libraries/STM32F4xx_StdPeriph_Driver/src/stm32f4xx_i2c.c ****   {
 320:App/STM32F4-Discovery/Libraries/STM32F4xx_StdPeriph_Driver/src/stm32f4xx_i2c.c ****     /* Disable the selected I2C peripheral */
 321:App/STM32F4-Discovery/Libraries/STM32F4xx_StdPeriph_Driver/src/stm32f4xx_i2c.c ****     I2Cx->CR1 &= (uint16_t)~((uint16_t)I2C_CR1_PE);
 600              		.loc 1 321 0
 601 005c 7B68     		ldr	r3, [r7, #4]
 602 005e 1B88     		ldrh	r3, [r3]	@ movhi
 603 0060 9BB2     		uxth	r3, r3
 604 0062 23F00103 		bic	r3, r3, #1
 605 0066 9AB2     		uxth	r2, r3
 606 0068 7B68     		ldr	r3, [r7, #4]
 607 006a 1A80     		strh	r2, [r3]	@ movhi
 608              	.L26:
 322:App/STM32F4-Discovery/Libraries/STM32F4xx_StdPeriph_Driver/src/stm32f4xx_i2c.c ****   }
 323:App/STM32F4-Discovery/Libraries/STM32F4xx_StdPeriph_Driver/src/stm32f4xx_i2c.c **** }
 609              		.loc 1 323 0
 610 006c 0837     		adds	r7, r7, #8
 611 006e BD46     		mov	sp, r7
 612              		@ sp needed
 613 0070 80BD     		pop	{r7, pc}
 614              	.L32:
 615 0072 00BF     		.align	2
 616              	.L31:
 617 0074 00540040 		.word	1073763328
 618 0078 00580040 		.word	1073764352
 619 007c 005C0040 		.word	1073765376
 620 0080 00000000 		.word	.LC0
 621              		.cfi_endproc
 622              	.LFE113:
 624              		.section	.text.I2C_GenerateSTART,"ax",%progbits
 625              		.align	2
 626              		.global	I2C_GenerateSTART
 627              		.thumb
 628              		.thumb_func
 630              	I2C_GenerateSTART:
 631              	.LFB114:
 324:App/STM32F4-Discovery/Libraries/STM32F4xx_StdPeriph_Driver/src/stm32f4xx_i2c.c **** 
 325:App/STM32F4-Discovery/Libraries/STM32F4xx_StdPeriph_Driver/src/stm32f4xx_i2c.c **** /**
 326:App/STM32F4-Discovery/Libraries/STM32F4xx_StdPeriph_Driver/src/stm32f4xx_i2c.c ****   * @brief  Generates I2Cx communication START condition.
 327:App/STM32F4-Discovery/Libraries/STM32F4xx_StdPeriph_Driver/src/stm32f4xx_i2c.c ****   * @param  I2Cx: where x can be 1, 2 or 3 to select the I2C peripheral.
 328:App/STM32F4-Discovery/Libraries/STM32F4xx_StdPeriph_Driver/src/stm32f4xx_i2c.c ****   * @param  NewState: new state of the I2C START condition generation.
 329:App/STM32F4-Discovery/Libraries/STM32F4xx_StdPeriph_Driver/src/stm32f4xx_i2c.c ****   *          This parameter can be: ENABLE or DISABLE.
 330:App/STM32F4-Discovery/Libraries/STM32F4xx_StdPeriph_Driver/src/stm32f4xx_i2c.c ****   * @retval None.
 331:App/STM32F4-Discovery/Libraries/STM32F4xx_StdPeriph_Driver/src/stm32f4xx_i2c.c ****   */
 332:App/STM32F4-Discovery/Libraries/STM32F4xx_StdPeriph_Driver/src/stm32f4xx_i2c.c **** void I2C_GenerateSTART(I2C_TypeDef* I2Cx, FunctionalState NewState)
 333:App/STM32F4-Discovery/Libraries/STM32F4xx_StdPeriph_Driver/src/stm32f4xx_i2c.c **** {
 632              		.loc 1 333 0
 633              		.cfi_startproc
 634              		@ args = 0, pretend = 0, frame = 8
 635              		@ frame_needed = 1, uses_anonymous_args = 0
 636 0000 80B5     		push	{r7, lr}
 637              	.LCFI12:
 638              		.cfi_def_cfa_offset 8
 639              		.cfi_offset 7, -8
 640              		.cfi_offset 14, -4
 641 0002 82B0     		sub	sp, sp, #8
 642              	.LCFI13:
 643              		.cfi_def_cfa_offset 16
 644 0004 00AF     		add	r7, sp, #0
 645              	.LCFI14:
 646              		.cfi_def_cfa_register 7
 647 0006 7860     		str	r0, [r7, #4]
 648 0008 0B46     		mov	r3, r1
 649 000a FB70     		strb	r3, [r7, #3]
 334:App/STM32F4-Discovery/Libraries/STM32F4xx_StdPeriph_Driver/src/stm32f4xx_i2c.c ****   /* Check the parameters */
 335:App/STM32F4-Discovery/Libraries/STM32F4xx_StdPeriph_Driver/src/stm32f4xx_i2c.c ****   assert_param(IS_I2C_ALL_PERIPH(I2Cx));
 650              		.loc 1 335 0
 651 000c 7A68     		ldr	r2, [r7, #4]
 652 000e 194B     		ldr	r3, .L38
 653 0010 9A42     		cmp	r2, r3
 654 0012 0CD0     		beq	.L34
 655              		.loc 1 335 0 is_stmt 0 discriminator 1
 656 0014 7A68     		ldr	r2, [r7, #4]
 657 0016 184B     		ldr	r3, .L38+4
 658 0018 9A42     		cmp	r2, r3
 659 001a 08D0     		beq	.L34
 660 001c 7A68     		ldr	r2, [r7, #4]
 661 001e 174B     		ldr	r3, .L38+8
 662 0020 9A42     		cmp	r2, r3
 663 0022 04D0     		beq	.L34
 664 0024 1648     		ldr	r0, .L38+12
 665 0026 40F24F11 		movw	r1, #335
 666 002a FFF7FEFF 		bl	assert_failed
 667              	.L34:
 336:App/STM32F4-Discovery/Libraries/STM32F4xx_StdPeriph_Driver/src/stm32f4xx_i2c.c ****   assert_param(IS_FUNCTIONAL_STATE(NewState));
 668              		.loc 1 336 0 is_stmt 1
 669 002e FB78     		ldrb	r3, [r7, #3]	@ zero_extendqisi2
 670 0030 002B     		cmp	r3, #0
 671 0032 07D0     		beq	.L35
 672              		.loc 1 336 0 is_stmt 0 discriminator 1
 673 0034 FB78     		ldrb	r3, [r7, #3]	@ zero_extendqisi2
 674 0036 012B     		cmp	r3, #1
 675 0038 04D0     		beq	.L35
 676 003a 1148     		ldr	r0, .L38+12
 677 003c 4FF4A871 		mov	r1, #336
 678 0040 FFF7FEFF 		bl	assert_failed
 679              	.L35:
 337:App/STM32F4-Discovery/Libraries/STM32F4xx_StdPeriph_Driver/src/stm32f4xx_i2c.c ****   if (NewState != DISABLE)
 680              		.loc 1 337 0 is_stmt 1
 681 0044 FB78     		ldrb	r3, [r7, #3]	@ zero_extendqisi2
 682 0046 002B     		cmp	r3, #0
 683 0048 08D0     		beq	.L36
 338:App/STM32F4-Discovery/Libraries/STM32F4xx_StdPeriph_Driver/src/stm32f4xx_i2c.c ****   {
 339:App/STM32F4-Discovery/Libraries/STM32F4xx_StdPeriph_Driver/src/stm32f4xx_i2c.c ****     /* Generate a START condition */
 340:App/STM32F4-Discovery/Libraries/STM32F4xx_StdPeriph_Driver/src/stm32f4xx_i2c.c ****     I2Cx->CR1 |= I2C_CR1_START;
 684              		.loc 1 340 0
 685 004a 7B68     		ldr	r3, [r7, #4]
 686 004c 1B88     		ldrh	r3, [r3]	@ movhi
 687 004e 9BB2     		uxth	r3, r3
 688 0050 43F48073 		orr	r3, r3, #256
 689 0054 9AB2     		uxth	r2, r3
 690 0056 7B68     		ldr	r3, [r7, #4]
 691 0058 1A80     		strh	r2, [r3]	@ movhi
 692 005a 07E0     		b	.L33
 693              	.L36:
 341:App/STM32F4-Discovery/Libraries/STM32F4xx_StdPeriph_Driver/src/stm32f4xx_i2c.c ****   }
 342:App/STM32F4-Discovery/Libraries/STM32F4xx_StdPeriph_Driver/src/stm32f4xx_i2c.c ****   else
 343:App/STM32F4-Discovery/Libraries/STM32F4xx_StdPeriph_Driver/src/stm32f4xx_i2c.c ****   {
 344:App/STM32F4-Discovery/Libraries/STM32F4xx_StdPeriph_Driver/src/stm32f4xx_i2c.c ****     /* Disable the START condition generation */
 345:App/STM32F4-Discovery/Libraries/STM32F4xx_StdPeriph_Driver/src/stm32f4xx_i2c.c ****     I2Cx->CR1 &= (uint16_t)~((uint16_t)I2C_CR1_START);
 694              		.loc 1 345 0
 695 005c 7B68     		ldr	r3, [r7, #4]
 696 005e 1B88     		ldrh	r3, [r3]	@ movhi
 697 0060 9BB2     		uxth	r3, r3
 698 0062 23F48073 		bic	r3, r3, #256
 699 0066 9AB2     		uxth	r2, r3
 700 0068 7B68     		ldr	r3, [r7, #4]
 701 006a 1A80     		strh	r2, [r3]	@ movhi
 702              	.L33:
 346:App/STM32F4-Discovery/Libraries/STM32F4xx_StdPeriph_Driver/src/stm32f4xx_i2c.c ****   }
 347:App/STM32F4-Discovery/Libraries/STM32F4xx_StdPeriph_Driver/src/stm32f4xx_i2c.c **** }
 703              		.loc 1 347 0
 704 006c 0837     		adds	r7, r7, #8
 705 006e BD46     		mov	sp, r7
 706              		@ sp needed
 707 0070 80BD     		pop	{r7, pc}
 708              	.L39:
 709 0072 00BF     		.align	2
 710              	.L38:
 711 0074 00540040 		.word	1073763328
 712 0078 00580040 		.word	1073764352
 713 007c 005C0040 		.word	1073765376
 714 0080 00000000 		.word	.LC0
 715              		.cfi_endproc
 716              	.LFE114:
 718              		.section	.text.I2C_GenerateSTOP,"ax",%progbits
 719              		.align	2
 720              		.global	I2C_GenerateSTOP
 721              		.thumb
 722              		.thumb_func
 724              	I2C_GenerateSTOP:
 725              	.LFB115:
 348:App/STM32F4-Discovery/Libraries/STM32F4xx_StdPeriph_Driver/src/stm32f4xx_i2c.c **** 
 349:App/STM32F4-Discovery/Libraries/STM32F4xx_StdPeriph_Driver/src/stm32f4xx_i2c.c **** /**
 350:App/STM32F4-Discovery/Libraries/STM32F4xx_StdPeriph_Driver/src/stm32f4xx_i2c.c ****   * @brief  Generates I2Cx communication STOP condition.
 351:App/STM32F4-Discovery/Libraries/STM32F4xx_StdPeriph_Driver/src/stm32f4xx_i2c.c ****   * @param  I2Cx: where x can be 1, 2 or 3 to select the I2C peripheral.
 352:App/STM32F4-Discovery/Libraries/STM32F4xx_StdPeriph_Driver/src/stm32f4xx_i2c.c ****   * @param  NewState: new state of the I2C STOP condition generation.
 353:App/STM32F4-Discovery/Libraries/STM32F4xx_StdPeriph_Driver/src/stm32f4xx_i2c.c ****   *          This parameter can be: ENABLE or DISABLE.
 354:App/STM32F4-Discovery/Libraries/STM32F4xx_StdPeriph_Driver/src/stm32f4xx_i2c.c ****   * @retval None.
 355:App/STM32F4-Discovery/Libraries/STM32F4xx_StdPeriph_Driver/src/stm32f4xx_i2c.c ****   */
 356:App/STM32F4-Discovery/Libraries/STM32F4xx_StdPeriph_Driver/src/stm32f4xx_i2c.c **** void I2C_GenerateSTOP(I2C_TypeDef* I2Cx, FunctionalState NewState)
 357:App/STM32F4-Discovery/Libraries/STM32F4xx_StdPeriph_Driver/src/stm32f4xx_i2c.c **** {
 726              		.loc 1 357 0
 727              		.cfi_startproc
 728              		@ args = 0, pretend = 0, frame = 8
 729              		@ frame_needed = 1, uses_anonymous_args = 0
 730 0000 80B5     		push	{r7, lr}
 731              	.LCFI15:
 732              		.cfi_def_cfa_offset 8
 733              		.cfi_offset 7, -8
 734              		.cfi_offset 14, -4
 735 0002 82B0     		sub	sp, sp, #8
 736              	.LCFI16:
 737              		.cfi_def_cfa_offset 16
 738 0004 00AF     		add	r7, sp, #0
 739              	.LCFI17:
 740              		.cfi_def_cfa_register 7
 741 0006 7860     		str	r0, [r7, #4]
 742 0008 0B46     		mov	r3, r1
 743 000a FB70     		strb	r3, [r7, #3]
 358:App/STM32F4-Discovery/Libraries/STM32F4xx_StdPeriph_Driver/src/stm32f4xx_i2c.c ****   /* Check the parameters */
 359:App/STM32F4-Discovery/Libraries/STM32F4xx_StdPeriph_Driver/src/stm32f4xx_i2c.c ****   assert_param(IS_I2C_ALL_PERIPH(I2Cx));
 744              		.loc 1 359 0
 745 000c 7A68     		ldr	r2, [r7, #4]
 746 000e 194B     		ldr	r3, .L45
 747 0010 9A42     		cmp	r2, r3
 748 0012 0CD0     		beq	.L41
 749              		.loc 1 359 0 is_stmt 0 discriminator 1
 750 0014 7A68     		ldr	r2, [r7, #4]
 751 0016 184B     		ldr	r3, .L45+4
 752 0018 9A42     		cmp	r2, r3
 753 001a 08D0     		beq	.L41
 754 001c 7A68     		ldr	r2, [r7, #4]
 755 001e 174B     		ldr	r3, .L45+8
 756 0020 9A42     		cmp	r2, r3
 757 0022 04D0     		beq	.L41
 758 0024 1648     		ldr	r0, .L45+12
 759 0026 40F26711 		movw	r1, #359
 760 002a FFF7FEFF 		bl	assert_failed
 761              	.L41:
 360:App/STM32F4-Discovery/Libraries/STM32F4xx_StdPeriph_Driver/src/stm32f4xx_i2c.c ****   assert_param(IS_FUNCTIONAL_STATE(NewState));
 762              		.loc 1 360 0 is_stmt 1
 763 002e FB78     		ldrb	r3, [r7, #3]	@ zero_extendqisi2
 764 0030 002B     		cmp	r3, #0
 765 0032 07D0     		beq	.L42
 766              		.loc 1 360 0 is_stmt 0 discriminator 1
 767 0034 FB78     		ldrb	r3, [r7, #3]	@ zero_extendqisi2
 768 0036 012B     		cmp	r3, #1
 769 0038 04D0     		beq	.L42
 770 003a 1148     		ldr	r0, .L45+12
 771 003c 4FF4B471 		mov	r1, #360
 772 0040 FFF7FEFF 		bl	assert_failed
 773              	.L42:
 361:App/STM32F4-Discovery/Libraries/STM32F4xx_StdPeriph_Driver/src/stm32f4xx_i2c.c ****   if (NewState != DISABLE)
 774              		.loc 1 361 0 is_stmt 1
 775 0044 FB78     		ldrb	r3, [r7, #3]	@ zero_extendqisi2
 776 0046 002B     		cmp	r3, #0
 777 0048 08D0     		beq	.L43
 362:App/STM32F4-Discovery/Libraries/STM32F4xx_StdPeriph_Driver/src/stm32f4xx_i2c.c ****   {
 363:App/STM32F4-Discovery/Libraries/STM32F4xx_StdPeriph_Driver/src/stm32f4xx_i2c.c ****     /* Generate a STOP condition */
 364:App/STM32F4-Discovery/Libraries/STM32F4xx_StdPeriph_Driver/src/stm32f4xx_i2c.c ****     I2Cx->CR1 |= I2C_CR1_STOP;
 778              		.loc 1 364 0
 779 004a 7B68     		ldr	r3, [r7, #4]
 780 004c 1B88     		ldrh	r3, [r3]	@ movhi
 781 004e 9BB2     		uxth	r3, r3
 782 0050 43F40073 		orr	r3, r3, #512
 783 0054 9AB2     		uxth	r2, r3
 784 0056 7B68     		ldr	r3, [r7, #4]
 785 0058 1A80     		strh	r2, [r3]	@ movhi
 786 005a 07E0     		b	.L40
 787              	.L43:
 365:App/STM32F4-Discovery/Libraries/STM32F4xx_StdPeriph_Driver/src/stm32f4xx_i2c.c ****   }
 366:App/STM32F4-Discovery/Libraries/STM32F4xx_StdPeriph_Driver/src/stm32f4xx_i2c.c ****   else
 367:App/STM32F4-Discovery/Libraries/STM32F4xx_StdPeriph_Driver/src/stm32f4xx_i2c.c ****   {
 368:App/STM32F4-Discovery/Libraries/STM32F4xx_StdPeriph_Driver/src/stm32f4xx_i2c.c ****     /* Disable the STOP condition generation */
 369:App/STM32F4-Discovery/Libraries/STM32F4xx_StdPeriph_Driver/src/stm32f4xx_i2c.c ****     I2Cx->CR1 &= (uint16_t)~((uint16_t)I2C_CR1_STOP);
 788              		.loc 1 369 0
 789 005c 7B68     		ldr	r3, [r7, #4]
 790 005e 1B88     		ldrh	r3, [r3]	@ movhi
 791 0060 9BB2     		uxth	r3, r3
 792 0062 23F40073 		bic	r3, r3, #512
 793 0066 9AB2     		uxth	r2, r3
 794 0068 7B68     		ldr	r3, [r7, #4]
 795 006a 1A80     		strh	r2, [r3]	@ movhi
 796              	.L40:
 370:App/STM32F4-Discovery/Libraries/STM32F4xx_StdPeriph_Driver/src/stm32f4xx_i2c.c ****   }
 371:App/STM32F4-Discovery/Libraries/STM32F4xx_StdPeriph_Driver/src/stm32f4xx_i2c.c **** }
 797              		.loc 1 371 0
 798 006c 0837     		adds	r7, r7, #8
 799 006e BD46     		mov	sp, r7
 800              		@ sp needed
 801 0070 80BD     		pop	{r7, pc}
 802              	.L46:
 803 0072 00BF     		.align	2
 804              	.L45:
 805 0074 00540040 		.word	1073763328
 806 0078 00580040 		.word	1073764352
 807 007c 005C0040 		.word	1073765376
 808 0080 00000000 		.word	.LC0
 809              		.cfi_endproc
 810              	.LFE115:
 812              		.section	.text.I2C_Send7bitAddress,"ax",%progbits
 813              		.align	2
 814              		.global	I2C_Send7bitAddress
 815              		.thumb
 816              		.thumb_func
 818              	I2C_Send7bitAddress:
 819              	.LFB116:
 372:App/STM32F4-Discovery/Libraries/STM32F4xx_StdPeriph_Driver/src/stm32f4xx_i2c.c **** 
 373:App/STM32F4-Discovery/Libraries/STM32F4xx_StdPeriph_Driver/src/stm32f4xx_i2c.c **** /**
 374:App/STM32F4-Discovery/Libraries/STM32F4xx_StdPeriph_Driver/src/stm32f4xx_i2c.c ****   * @brief  Transmits the address byte to select the slave device.
 375:App/STM32F4-Discovery/Libraries/STM32F4xx_StdPeriph_Driver/src/stm32f4xx_i2c.c ****   * @param  I2Cx: where x can be 1, 2 or 3 to select the I2C peripheral.
 376:App/STM32F4-Discovery/Libraries/STM32F4xx_StdPeriph_Driver/src/stm32f4xx_i2c.c ****   * @param  Address: specifies the slave address which will be transmitted
 377:App/STM32F4-Discovery/Libraries/STM32F4xx_StdPeriph_Driver/src/stm32f4xx_i2c.c ****   * @param  I2C_Direction: specifies whether the I2C device will be a Transmitter
 378:App/STM32F4-Discovery/Libraries/STM32F4xx_StdPeriph_Driver/src/stm32f4xx_i2c.c ****   *         or a Receiver. 
 379:App/STM32F4-Discovery/Libraries/STM32F4xx_StdPeriph_Driver/src/stm32f4xx_i2c.c ****   *          This parameter can be one of the following values
 380:App/STM32F4-Discovery/Libraries/STM32F4xx_StdPeriph_Driver/src/stm32f4xx_i2c.c ****   *            @arg I2C_Direction_Transmitter: Transmitter mode
 381:App/STM32F4-Discovery/Libraries/STM32F4xx_StdPeriph_Driver/src/stm32f4xx_i2c.c ****   *            @arg I2C_Direction_Receiver: Receiver mode
 382:App/STM32F4-Discovery/Libraries/STM32F4xx_StdPeriph_Driver/src/stm32f4xx_i2c.c ****   * @retval None.
 383:App/STM32F4-Discovery/Libraries/STM32F4xx_StdPeriph_Driver/src/stm32f4xx_i2c.c ****   */
 384:App/STM32F4-Discovery/Libraries/STM32F4xx_StdPeriph_Driver/src/stm32f4xx_i2c.c **** void I2C_Send7bitAddress(I2C_TypeDef* I2Cx, uint8_t Address, uint8_t I2C_Direction)
 385:App/STM32F4-Discovery/Libraries/STM32F4xx_StdPeriph_Driver/src/stm32f4xx_i2c.c **** {
 820              		.loc 1 385 0
 821              		.cfi_startproc
 822              		@ args = 0, pretend = 0, frame = 8
 823              		@ frame_needed = 1, uses_anonymous_args = 0
 824 0000 80B5     		push	{r7, lr}
 825              	.LCFI18:
 826              		.cfi_def_cfa_offset 8
 827              		.cfi_offset 7, -8
 828              		.cfi_offset 14, -4
 829 0002 82B0     		sub	sp, sp, #8
 830              	.LCFI19:
 831              		.cfi_def_cfa_offset 16
 832 0004 00AF     		add	r7, sp, #0
 833              	.LCFI20:
 834              		.cfi_def_cfa_register 7
 835 0006 7860     		str	r0, [r7, #4]
 836 0008 1346     		mov	r3, r2
 837 000a 0A46     		mov	r2, r1
 838 000c FA70     		strb	r2, [r7, #3]
 839 000e BB70     		strb	r3, [r7, #2]
 386:App/STM32F4-Discovery/Libraries/STM32F4xx_StdPeriph_Driver/src/stm32f4xx_i2c.c ****   /* Check the parameters */
 387:App/STM32F4-Discovery/Libraries/STM32F4xx_StdPeriph_Driver/src/stm32f4xx_i2c.c ****   assert_param(IS_I2C_ALL_PERIPH(I2Cx));
 840              		.loc 1 387 0
 841 0010 7A68     		ldr	r2, [r7, #4]
 842 0012 174B     		ldr	r3, .L52
 843 0014 9A42     		cmp	r2, r3
 844 0016 0CD0     		beq	.L48
 845              		.loc 1 387 0 is_stmt 0 discriminator 1
 846 0018 7A68     		ldr	r2, [r7, #4]
 847 001a 164B     		ldr	r3, .L52+4
 848 001c 9A42     		cmp	r2, r3
 849 001e 08D0     		beq	.L48
 850 0020 7A68     		ldr	r2, [r7, #4]
 851 0022 154B     		ldr	r3, .L52+8
 852 0024 9A42     		cmp	r2, r3
 853 0026 04D0     		beq	.L48
 854 0028 1448     		ldr	r0, .L52+12
 855 002a 40F28311 		movw	r1, #387
 856 002e FFF7FEFF 		bl	assert_failed
 857              	.L48:
 388:App/STM32F4-Discovery/Libraries/STM32F4xx_StdPeriph_Driver/src/stm32f4xx_i2c.c ****   assert_param(IS_I2C_DIRECTION(I2C_Direction));
 858              		.loc 1 388 0 is_stmt 1
 859 0032 BB78     		ldrb	r3, [r7, #2]	@ zero_extendqisi2
 860 0034 002B     		cmp	r3, #0
 861 0036 07D0     		beq	.L49
 862              		.loc 1 388 0 is_stmt 0 discriminator 1
 863 0038 BB78     		ldrb	r3, [r7, #2]	@ zero_extendqisi2
 864 003a 012B     		cmp	r3, #1
 865 003c 04D0     		beq	.L49
 866 003e 0F48     		ldr	r0, .L52+12
 867 0040 4FF4C271 		mov	r1, #388
 868 0044 FFF7FEFF 		bl	assert_failed
 869              	.L49:
 389:App/STM32F4-Discovery/Libraries/STM32F4xx_StdPeriph_Driver/src/stm32f4xx_i2c.c ****   /* Test on the direction to set/reset the read/write bit */
 390:App/STM32F4-Discovery/Libraries/STM32F4xx_StdPeriph_Driver/src/stm32f4xx_i2c.c ****   if (I2C_Direction != I2C_Direction_Transmitter)
 870              		.loc 1 390 0 is_stmt 1
 871 0048 BB78     		ldrb	r3, [r7, #2]	@ zero_extendqisi2
 872 004a 002B     		cmp	r3, #0
 873 004c 04D0     		beq	.L50
 391:App/STM32F4-Discovery/Libraries/STM32F4xx_StdPeriph_Driver/src/stm32f4xx_i2c.c ****   {
 392:App/STM32F4-Discovery/Libraries/STM32F4xx_StdPeriph_Driver/src/stm32f4xx_i2c.c ****     /* Set the address bit0 for read */
 393:App/STM32F4-Discovery/Libraries/STM32F4xx_StdPeriph_Driver/src/stm32f4xx_i2c.c ****     Address |= I2C_OAR1_ADD0;
 874              		.loc 1 393 0
 875 004e FB78     		ldrb	r3, [r7, #3]
 876 0050 43F00103 		orr	r3, r3, #1
 877 0054 FB70     		strb	r3, [r7, #3]
 878 0056 03E0     		b	.L51
 879              	.L50:
 394:App/STM32F4-Discovery/Libraries/STM32F4xx_StdPeriph_Driver/src/stm32f4xx_i2c.c ****   }
 395:App/STM32F4-Discovery/Libraries/STM32F4xx_StdPeriph_Driver/src/stm32f4xx_i2c.c ****   else
 396:App/STM32F4-Discovery/Libraries/STM32F4xx_StdPeriph_Driver/src/stm32f4xx_i2c.c ****   {
 397:App/STM32F4-Discovery/Libraries/STM32F4xx_StdPeriph_Driver/src/stm32f4xx_i2c.c ****     /* Reset the address bit0 for write */
 398:App/STM32F4-Discovery/Libraries/STM32F4xx_StdPeriph_Driver/src/stm32f4xx_i2c.c ****     Address &= (uint8_t)~((uint8_t)I2C_OAR1_ADD0);
 880              		.loc 1 398 0
 881 0058 FB78     		ldrb	r3, [r7, #3]
 882 005a 23F00103 		bic	r3, r3, #1
 883 005e FB70     		strb	r3, [r7, #3]
 884              	.L51:
 399:App/STM32F4-Discovery/Libraries/STM32F4xx_StdPeriph_Driver/src/stm32f4xx_i2c.c ****   }
 400:App/STM32F4-Discovery/Libraries/STM32F4xx_StdPeriph_Driver/src/stm32f4xx_i2c.c ****   /* Send the address */
 401:App/STM32F4-Discovery/Libraries/STM32F4xx_StdPeriph_Driver/src/stm32f4xx_i2c.c ****   I2Cx->DR = Address;
 885              		.loc 1 401 0
 886 0060 FB78     		ldrb	r3, [r7, #3]	@ zero_extendqisi2
 887 0062 9AB2     		uxth	r2, r3
 888 0064 7B68     		ldr	r3, [r7, #4]
 889 0066 1A82     		strh	r2, [r3, #16]	@ movhi
 402:App/STM32F4-Discovery/Libraries/STM32F4xx_StdPeriph_Driver/src/stm32f4xx_i2c.c **** }
 890              		.loc 1 402 0
 891 0068 0837     		adds	r7, r7, #8
 892 006a BD46     		mov	sp, r7
 893              		@ sp needed
 894 006c 80BD     		pop	{r7, pc}
 895              	.L53:
 896 006e 00BF     		.align	2
 897              	.L52:
 898 0070 00540040 		.word	1073763328
 899 0074 00580040 		.word	1073764352
 900 0078 005C0040 		.word	1073765376
 901 007c 00000000 		.word	.LC0
 902              		.cfi_endproc
 903              	.LFE116:
 905              		.section	.text.I2C_AcknowledgeConfig,"ax",%progbits
 906              		.align	2
 907              		.global	I2C_AcknowledgeConfig
 908              		.thumb
 909              		.thumb_func
 911              	I2C_AcknowledgeConfig:
 912              	.LFB117:
 403:App/STM32F4-Discovery/Libraries/STM32F4xx_StdPeriph_Driver/src/stm32f4xx_i2c.c **** 
 404:App/STM32F4-Discovery/Libraries/STM32F4xx_StdPeriph_Driver/src/stm32f4xx_i2c.c **** /**
 405:App/STM32F4-Discovery/Libraries/STM32F4xx_StdPeriph_Driver/src/stm32f4xx_i2c.c ****   * @brief  Enables or disables the specified I2C acknowledge feature.
 406:App/STM32F4-Discovery/Libraries/STM32F4xx_StdPeriph_Driver/src/stm32f4xx_i2c.c ****   * @param  I2Cx: where x can be 1, 2 or 3 to select the I2C peripheral.
 407:App/STM32F4-Discovery/Libraries/STM32F4xx_StdPeriph_Driver/src/stm32f4xx_i2c.c ****   * @param  NewState: new state of the I2C Acknowledgement.
 408:App/STM32F4-Discovery/Libraries/STM32F4xx_StdPeriph_Driver/src/stm32f4xx_i2c.c ****   *          This parameter can be: ENABLE or DISABLE.
 409:App/STM32F4-Discovery/Libraries/STM32F4xx_StdPeriph_Driver/src/stm32f4xx_i2c.c ****   * @retval None.
 410:App/STM32F4-Discovery/Libraries/STM32F4xx_StdPeriph_Driver/src/stm32f4xx_i2c.c ****   */
 411:App/STM32F4-Discovery/Libraries/STM32F4xx_StdPeriph_Driver/src/stm32f4xx_i2c.c **** void I2C_AcknowledgeConfig(I2C_TypeDef* I2Cx, FunctionalState NewState)
 412:App/STM32F4-Discovery/Libraries/STM32F4xx_StdPeriph_Driver/src/stm32f4xx_i2c.c **** {
 913              		.loc 1 412 0
 914              		.cfi_startproc
 915              		@ args = 0, pretend = 0, frame = 8
 916              		@ frame_needed = 1, uses_anonymous_args = 0
 917 0000 80B5     		push	{r7, lr}
 918              	.LCFI21:
 919              		.cfi_def_cfa_offset 8
 920              		.cfi_offset 7, -8
 921              		.cfi_offset 14, -4
 922 0002 82B0     		sub	sp, sp, #8
 923              	.LCFI22:
 924              		.cfi_def_cfa_offset 16
 925 0004 00AF     		add	r7, sp, #0
 926              	.LCFI23:
 927              		.cfi_def_cfa_register 7
 928 0006 7860     		str	r0, [r7, #4]
 929 0008 0B46     		mov	r3, r1
 930 000a FB70     		strb	r3, [r7, #3]
 413:App/STM32F4-Discovery/Libraries/STM32F4xx_StdPeriph_Driver/src/stm32f4xx_i2c.c ****   /* Check the parameters */
 414:App/STM32F4-Discovery/Libraries/STM32F4xx_StdPeriph_Driver/src/stm32f4xx_i2c.c ****   assert_param(IS_I2C_ALL_PERIPH(I2Cx));
 931              		.loc 1 414 0
 932 000c 7A68     		ldr	r2, [r7, #4]
 933 000e 194B     		ldr	r3, .L59
 934 0010 9A42     		cmp	r2, r3
 935 0012 0CD0     		beq	.L55
 936              		.loc 1 414 0 is_stmt 0 discriminator 1
 937 0014 7A68     		ldr	r2, [r7, #4]
 938 0016 184B     		ldr	r3, .L59+4
 939 0018 9A42     		cmp	r2, r3
 940 001a 08D0     		beq	.L55
 941 001c 7A68     		ldr	r2, [r7, #4]
 942 001e 174B     		ldr	r3, .L59+8
 943 0020 9A42     		cmp	r2, r3
 944 0022 04D0     		beq	.L55
 945 0024 1648     		ldr	r0, .L59+12
 946 0026 4FF4CF71 		mov	r1, #414
 947 002a FFF7FEFF 		bl	assert_failed
 948              	.L55:
 415:App/STM32F4-Discovery/Libraries/STM32F4xx_StdPeriph_Driver/src/stm32f4xx_i2c.c ****   assert_param(IS_FUNCTIONAL_STATE(NewState));
 949              		.loc 1 415 0 is_stmt 1
 950 002e FB78     		ldrb	r3, [r7, #3]	@ zero_extendqisi2
 951 0030 002B     		cmp	r3, #0
 952 0032 07D0     		beq	.L56
 953              		.loc 1 415 0 is_stmt 0 discriminator 1
 954 0034 FB78     		ldrb	r3, [r7, #3]	@ zero_extendqisi2
 955 0036 012B     		cmp	r3, #1
 956 0038 04D0     		beq	.L56
 957 003a 1148     		ldr	r0, .L59+12
 958 003c 40F29F11 		movw	r1, #415
 959 0040 FFF7FEFF 		bl	assert_failed
 960              	.L56:
 416:App/STM32F4-Discovery/Libraries/STM32F4xx_StdPeriph_Driver/src/stm32f4xx_i2c.c ****   if (NewState != DISABLE)
 961              		.loc 1 416 0 is_stmt 1
 962 0044 FB78     		ldrb	r3, [r7, #3]	@ zero_extendqisi2
 963 0046 002B     		cmp	r3, #0
 964 0048 08D0     		beq	.L57
 417:App/STM32F4-Discovery/Libraries/STM32F4xx_StdPeriph_Driver/src/stm32f4xx_i2c.c ****   {
 418:App/STM32F4-Discovery/Libraries/STM32F4xx_StdPeriph_Driver/src/stm32f4xx_i2c.c ****     /* Enable the acknowledgement */
 419:App/STM32F4-Discovery/Libraries/STM32F4xx_StdPeriph_Driver/src/stm32f4xx_i2c.c ****     I2Cx->CR1 |= I2C_CR1_ACK;
 965              		.loc 1 419 0
 966 004a 7B68     		ldr	r3, [r7, #4]
 967 004c 1B88     		ldrh	r3, [r3]	@ movhi
 968 004e 9BB2     		uxth	r3, r3
 969 0050 43F48063 		orr	r3, r3, #1024
 970 0054 9AB2     		uxth	r2, r3
 971 0056 7B68     		ldr	r3, [r7, #4]
 972 0058 1A80     		strh	r2, [r3]	@ movhi
 973 005a 07E0     		b	.L54
 974              	.L57:
 420:App/STM32F4-Discovery/Libraries/STM32F4xx_StdPeriph_Driver/src/stm32f4xx_i2c.c ****   }
 421:App/STM32F4-Discovery/Libraries/STM32F4xx_StdPeriph_Driver/src/stm32f4xx_i2c.c ****   else
 422:App/STM32F4-Discovery/Libraries/STM32F4xx_StdPeriph_Driver/src/stm32f4xx_i2c.c ****   {
 423:App/STM32F4-Discovery/Libraries/STM32F4xx_StdPeriph_Driver/src/stm32f4xx_i2c.c ****     /* Disable the acknowledgement */
 424:App/STM32F4-Discovery/Libraries/STM32F4xx_StdPeriph_Driver/src/stm32f4xx_i2c.c ****     I2Cx->CR1 &= (uint16_t)~((uint16_t)I2C_CR1_ACK);
 975              		.loc 1 424 0
 976 005c 7B68     		ldr	r3, [r7, #4]
 977 005e 1B88     		ldrh	r3, [r3]	@ movhi
 978 0060 9BB2     		uxth	r3, r3
 979 0062 23F48063 		bic	r3, r3, #1024
 980 0066 9AB2     		uxth	r2, r3
 981 0068 7B68     		ldr	r3, [r7, #4]
 982 006a 1A80     		strh	r2, [r3]	@ movhi
 983              	.L54:
 425:App/STM32F4-Discovery/Libraries/STM32F4xx_StdPeriph_Driver/src/stm32f4xx_i2c.c ****   }
 426:App/STM32F4-Discovery/Libraries/STM32F4xx_StdPeriph_Driver/src/stm32f4xx_i2c.c **** }
 984              		.loc 1 426 0
 985 006c 0837     		adds	r7, r7, #8
 986 006e BD46     		mov	sp, r7
 987              		@ sp needed
 988 0070 80BD     		pop	{r7, pc}
 989              	.L60:
 990 0072 00BF     		.align	2
 991              	.L59:
 992 0074 00540040 		.word	1073763328
 993 0078 00580040 		.word	1073764352
 994 007c 005C0040 		.word	1073765376
 995 0080 00000000 		.word	.LC0
 996              		.cfi_endproc
 997              	.LFE117:
 999              		.section	.text.I2C_OwnAddress2Config,"ax",%progbits
 1000              		.align	2
 1001              		.global	I2C_OwnAddress2Config
 1002              		.thumb
 1003              		.thumb_func
 1005              	I2C_OwnAddress2Config:
 1006              	.LFB118:
 427:App/STM32F4-Discovery/Libraries/STM32F4xx_StdPeriph_Driver/src/stm32f4xx_i2c.c **** 
 428:App/STM32F4-Discovery/Libraries/STM32F4xx_StdPeriph_Driver/src/stm32f4xx_i2c.c **** /**
 429:App/STM32F4-Discovery/Libraries/STM32F4xx_StdPeriph_Driver/src/stm32f4xx_i2c.c ****   * @brief  Configures the specified I2C own address2.
 430:App/STM32F4-Discovery/Libraries/STM32F4xx_StdPeriph_Driver/src/stm32f4xx_i2c.c ****   * @param  I2Cx: where x can be 1, 2 or 3 to select the I2C peripheral.
 431:App/STM32F4-Discovery/Libraries/STM32F4xx_StdPeriph_Driver/src/stm32f4xx_i2c.c ****   * @param  Address: specifies the 7bit I2C own address2.
 432:App/STM32F4-Discovery/Libraries/STM32F4xx_StdPeriph_Driver/src/stm32f4xx_i2c.c ****   * @retval None.
 433:App/STM32F4-Discovery/Libraries/STM32F4xx_StdPeriph_Driver/src/stm32f4xx_i2c.c ****   */
 434:App/STM32F4-Discovery/Libraries/STM32F4xx_StdPeriph_Driver/src/stm32f4xx_i2c.c **** void I2C_OwnAddress2Config(I2C_TypeDef* I2Cx, uint8_t Address)
 435:App/STM32F4-Discovery/Libraries/STM32F4xx_StdPeriph_Driver/src/stm32f4xx_i2c.c **** {
 1007              		.loc 1 435 0
 1008              		.cfi_startproc
 1009              		@ args = 0, pretend = 0, frame = 16
 1010              		@ frame_needed = 1, uses_anonymous_args = 0
 1011 0000 80B5     		push	{r7, lr}
 1012              	.LCFI24:
 1013              		.cfi_def_cfa_offset 8
 1014              		.cfi_offset 7, -8
 1015              		.cfi_offset 14, -4
 1016 0002 84B0     		sub	sp, sp, #16
 1017              	.LCFI25:
 1018              		.cfi_def_cfa_offset 24
 1019 0004 00AF     		add	r7, sp, #0
 1020              	.LCFI26:
 1021              		.cfi_def_cfa_register 7
 1022 0006 7860     		str	r0, [r7, #4]
 1023 0008 0B46     		mov	r3, r1
 1024 000a FB70     		strb	r3, [r7, #3]
 436:App/STM32F4-Discovery/Libraries/STM32F4xx_StdPeriph_Driver/src/stm32f4xx_i2c.c ****   uint16_t tmpreg = 0;
 1025              		.loc 1 436 0
 1026 000c 0023     		movs	r3, #0
 1027 000e FB81     		strh	r3, [r7, #14]	@ movhi
 437:App/STM32F4-Discovery/Libraries/STM32F4xx_StdPeriph_Driver/src/stm32f4xx_i2c.c **** 
 438:App/STM32F4-Discovery/Libraries/STM32F4xx_StdPeriph_Driver/src/stm32f4xx_i2c.c ****   /* Check the parameters */
 439:App/STM32F4-Discovery/Libraries/STM32F4xx_StdPeriph_Driver/src/stm32f4xx_i2c.c ****   assert_param(IS_I2C_ALL_PERIPH(I2Cx));
 1028              		.loc 1 439 0
 1029 0010 7A68     		ldr	r2, [r7, #4]
 1030 0012 134B     		ldr	r3, .L63
 1031 0014 9A42     		cmp	r2, r3
 1032 0016 0CD0     		beq	.L62
 1033              		.loc 1 439 0 is_stmt 0 discriminator 1
 1034 0018 7A68     		ldr	r2, [r7, #4]
 1035 001a 124B     		ldr	r3, .L63+4
 1036 001c 9A42     		cmp	r2, r3
 1037 001e 08D0     		beq	.L62
 1038 0020 7A68     		ldr	r2, [r7, #4]
 1039 0022 114B     		ldr	r3, .L63+8
 1040 0024 9A42     		cmp	r2, r3
 1041 0026 04D0     		beq	.L62
 1042 0028 1048     		ldr	r0, .L63+12
 1043 002a 40F2B711 		movw	r1, #439
 1044 002e FFF7FEFF 		bl	assert_failed
 1045              	.L62:
 440:App/STM32F4-Discovery/Libraries/STM32F4xx_StdPeriph_Driver/src/stm32f4xx_i2c.c **** 
 441:App/STM32F4-Discovery/Libraries/STM32F4xx_StdPeriph_Driver/src/stm32f4xx_i2c.c ****   /* Get the old register value */
 442:App/STM32F4-Discovery/Libraries/STM32F4xx_StdPeriph_Driver/src/stm32f4xx_i2c.c ****   tmpreg = I2Cx->OAR2;
 1046              		.loc 1 442 0 is_stmt 1
 1047 0032 7B68     		ldr	r3, [r7, #4]
 1048 0034 9B89     		ldrh	r3, [r3, #12]	@ movhi
 1049 0036 FB81     		strh	r3, [r7, #14]	@ movhi
 443:App/STM32F4-Discovery/Libraries/STM32F4xx_StdPeriph_Driver/src/stm32f4xx_i2c.c **** 
 444:App/STM32F4-Discovery/Libraries/STM32F4xx_StdPeriph_Driver/src/stm32f4xx_i2c.c ****   /* Reset I2Cx Own address2 bit [7:1] */
 445:App/STM32F4-Discovery/Libraries/STM32F4xx_StdPeriph_Driver/src/stm32f4xx_i2c.c ****   tmpreg &= (uint16_t)~((uint16_t)I2C_OAR2_ADD2);
 1050              		.loc 1 445 0
 1051 0038 FB89     		ldrh	r3, [r7, #14]	@ movhi
 1052 003a 23F0FE03 		bic	r3, r3, #254
 1053 003e FB81     		strh	r3, [r7, #14]	@ movhi
 446:App/STM32F4-Discovery/Libraries/STM32F4xx_StdPeriph_Driver/src/stm32f4xx_i2c.c **** 
 447:App/STM32F4-Discovery/Libraries/STM32F4xx_StdPeriph_Driver/src/stm32f4xx_i2c.c ****   /* Set I2Cx Own address2 */
 448:App/STM32F4-Discovery/Libraries/STM32F4xx_StdPeriph_Driver/src/stm32f4xx_i2c.c ****   tmpreg |= (uint16_t)((uint16_t)Address & (uint16_t)0x00FE);
 1054              		.loc 1 448 0
 1055 0040 FB78     		ldrb	r3, [r7, #3]	@ zero_extendqisi2
 1056 0042 9BB2     		uxth	r3, r3
 1057 0044 03F0FE03 		and	r3, r3, #254
 1058 0048 9AB2     		uxth	r2, r3
 1059 004a FB89     		ldrh	r3, [r7, #14]
 1060 004c 1343     		orrs	r3, r3, r2
 1061 004e 9BB2     		uxth	r3, r3
 1062 0050 FB81     		strh	r3, [r7, #14]	@ movhi
 449:App/STM32F4-Discovery/Libraries/STM32F4xx_StdPeriph_Driver/src/stm32f4xx_i2c.c **** 
 450:App/STM32F4-Discovery/Libraries/STM32F4xx_StdPeriph_Driver/src/stm32f4xx_i2c.c ****   /* Store the new register value */
 451:App/STM32F4-Discovery/Libraries/STM32F4xx_StdPeriph_Driver/src/stm32f4xx_i2c.c ****   I2Cx->OAR2 = tmpreg;
 1063              		.loc 1 451 0
 1064 0052 7B68     		ldr	r3, [r7, #4]
 1065 0054 FA89     		ldrh	r2, [r7, #14]	@ movhi
 1066 0056 9A81     		strh	r2, [r3, #12]	@ movhi
 452:App/STM32F4-Discovery/Libraries/STM32F4xx_StdPeriph_Driver/src/stm32f4xx_i2c.c **** }
 1067              		.loc 1 452 0
 1068 0058 1037     		adds	r7, r7, #16
 1069 005a BD46     		mov	sp, r7
 1070              		@ sp needed
 1071 005c 80BD     		pop	{r7, pc}
 1072              	.L64:
 1073 005e 00BF     		.align	2
 1074              	.L63:
 1075 0060 00540040 		.word	1073763328
 1076 0064 00580040 		.word	1073764352
 1077 0068 005C0040 		.word	1073765376
 1078 006c 00000000 		.word	.LC0
 1079              		.cfi_endproc
 1080              	.LFE118:
 1082              		.section	.text.I2C_DualAddressCmd,"ax",%progbits
 1083              		.align	2
 1084              		.global	I2C_DualAddressCmd
 1085              		.thumb
 1086              		.thumb_func
 1088              	I2C_DualAddressCmd:
 1089              	.LFB119:
 453:App/STM32F4-Discovery/Libraries/STM32F4xx_StdPeriph_Driver/src/stm32f4xx_i2c.c **** 
 454:App/STM32F4-Discovery/Libraries/STM32F4xx_StdPeriph_Driver/src/stm32f4xx_i2c.c **** /**
 455:App/STM32F4-Discovery/Libraries/STM32F4xx_StdPeriph_Driver/src/stm32f4xx_i2c.c ****   * @brief  Enables or disables the specified I2C dual addressing mode.
 456:App/STM32F4-Discovery/Libraries/STM32F4xx_StdPeriph_Driver/src/stm32f4xx_i2c.c ****   * @param  I2Cx: where x can be 1, 2 or 3 to select the I2C peripheral.
 457:App/STM32F4-Discovery/Libraries/STM32F4xx_StdPeriph_Driver/src/stm32f4xx_i2c.c ****   * @param  NewState: new state of the I2C dual addressing mode.
 458:App/STM32F4-Discovery/Libraries/STM32F4xx_StdPeriph_Driver/src/stm32f4xx_i2c.c ****   *          This parameter can be: ENABLE or DISABLE.
 459:App/STM32F4-Discovery/Libraries/STM32F4xx_StdPeriph_Driver/src/stm32f4xx_i2c.c ****   * @retval None
 460:App/STM32F4-Discovery/Libraries/STM32F4xx_StdPeriph_Driver/src/stm32f4xx_i2c.c ****   */
 461:App/STM32F4-Discovery/Libraries/STM32F4xx_StdPeriph_Driver/src/stm32f4xx_i2c.c **** void I2C_DualAddressCmd(I2C_TypeDef* I2Cx, FunctionalState NewState)
 462:App/STM32F4-Discovery/Libraries/STM32F4xx_StdPeriph_Driver/src/stm32f4xx_i2c.c **** {
 1090              		.loc 1 462 0
 1091              		.cfi_startproc
 1092              		@ args = 0, pretend = 0, frame = 8
 1093              		@ frame_needed = 1, uses_anonymous_args = 0
 1094 0000 80B5     		push	{r7, lr}
 1095              	.LCFI27:
 1096              		.cfi_def_cfa_offset 8
 1097              		.cfi_offset 7, -8
 1098              		.cfi_offset 14, -4
 1099 0002 82B0     		sub	sp, sp, #8
 1100              	.LCFI28:
 1101              		.cfi_def_cfa_offset 16
 1102 0004 00AF     		add	r7, sp, #0
 1103              	.LCFI29:
 1104              		.cfi_def_cfa_register 7
 1105 0006 7860     		str	r0, [r7, #4]
 1106 0008 0B46     		mov	r3, r1
 1107 000a FB70     		strb	r3, [r7, #3]
 463:App/STM32F4-Discovery/Libraries/STM32F4xx_StdPeriph_Driver/src/stm32f4xx_i2c.c ****   /* Check the parameters */
 464:App/STM32F4-Discovery/Libraries/STM32F4xx_StdPeriph_Driver/src/stm32f4xx_i2c.c ****   assert_param(IS_I2C_ALL_PERIPH(I2Cx));
 1108              		.loc 1 464 0
 1109 000c 7A68     		ldr	r2, [r7, #4]
 1110 000e 194B     		ldr	r3, .L70
 1111 0010 9A42     		cmp	r2, r3
 1112 0012 0CD0     		beq	.L66
 1113              		.loc 1 464 0 is_stmt 0 discriminator 1
 1114 0014 7A68     		ldr	r2, [r7, #4]
 1115 0016 184B     		ldr	r3, .L70+4
 1116 0018 9A42     		cmp	r2, r3
 1117 001a 08D0     		beq	.L66
 1118 001c 7A68     		ldr	r2, [r7, #4]
 1119 001e 174B     		ldr	r3, .L70+8
 1120 0020 9A42     		cmp	r2, r3
 1121 0022 04D0     		beq	.L66
 1122 0024 1648     		ldr	r0, .L70+12
 1123 0026 4FF4E871 		mov	r1, #464
 1124 002a FFF7FEFF 		bl	assert_failed
 1125              	.L66:
 465:App/STM32F4-Discovery/Libraries/STM32F4xx_StdPeriph_Driver/src/stm32f4xx_i2c.c ****   assert_param(IS_FUNCTIONAL_STATE(NewState));
 1126              		.loc 1 465 0 is_stmt 1
 1127 002e FB78     		ldrb	r3, [r7, #3]	@ zero_extendqisi2
 1128 0030 002B     		cmp	r3, #0
 1129 0032 07D0     		beq	.L67
 1130              		.loc 1 465 0 is_stmt 0 discriminator 1
 1131 0034 FB78     		ldrb	r3, [r7, #3]	@ zero_extendqisi2
 1132 0036 012B     		cmp	r3, #1
 1133 0038 04D0     		beq	.L67
 1134 003a 1148     		ldr	r0, .L70+12
 1135 003c 40F2D111 		movw	r1, #465
 1136 0040 FFF7FEFF 		bl	assert_failed
 1137              	.L67:
 466:App/STM32F4-Discovery/Libraries/STM32F4xx_StdPeriph_Driver/src/stm32f4xx_i2c.c ****   if (NewState != DISABLE)
 1138              		.loc 1 466 0 is_stmt 1
 1139 0044 FB78     		ldrb	r3, [r7, #3]	@ zero_extendqisi2
 1140 0046 002B     		cmp	r3, #0
 1141 0048 08D0     		beq	.L68
 467:App/STM32F4-Discovery/Libraries/STM32F4xx_StdPeriph_Driver/src/stm32f4xx_i2c.c ****   {
 468:App/STM32F4-Discovery/Libraries/STM32F4xx_StdPeriph_Driver/src/stm32f4xx_i2c.c ****     /* Enable dual addressing mode */
 469:App/STM32F4-Discovery/Libraries/STM32F4xx_StdPeriph_Driver/src/stm32f4xx_i2c.c ****     I2Cx->OAR2 |= I2C_OAR2_ENDUAL;
 1142              		.loc 1 469 0
 1143 004a 7B68     		ldr	r3, [r7, #4]
 1144 004c 9B89     		ldrh	r3, [r3, #12]	@ movhi
 1145 004e 9BB2     		uxth	r3, r3
 1146 0050 43F00103 		orr	r3, r3, #1
 1147 0054 9AB2     		uxth	r2, r3
 1148 0056 7B68     		ldr	r3, [r7, #4]
 1149 0058 9A81     		strh	r2, [r3, #12]	@ movhi
 1150 005a 07E0     		b	.L65
 1151              	.L68:
 470:App/STM32F4-Discovery/Libraries/STM32F4xx_StdPeriph_Driver/src/stm32f4xx_i2c.c ****   }
 471:App/STM32F4-Discovery/Libraries/STM32F4xx_StdPeriph_Driver/src/stm32f4xx_i2c.c ****   else
 472:App/STM32F4-Discovery/Libraries/STM32F4xx_StdPeriph_Driver/src/stm32f4xx_i2c.c ****   {
 473:App/STM32F4-Discovery/Libraries/STM32F4xx_StdPeriph_Driver/src/stm32f4xx_i2c.c ****     /* Disable dual addressing mode */
 474:App/STM32F4-Discovery/Libraries/STM32F4xx_StdPeriph_Driver/src/stm32f4xx_i2c.c ****     I2Cx->OAR2 &= (uint16_t)~((uint16_t)I2C_OAR2_ENDUAL);
 1152              		.loc 1 474 0
 1153 005c 7B68     		ldr	r3, [r7, #4]
 1154 005e 9B89     		ldrh	r3, [r3, #12]	@ movhi
 1155 0060 9BB2     		uxth	r3, r3
 1156 0062 23F00103 		bic	r3, r3, #1
 1157 0066 9AB2     		uxth	r2, r3
 1158 0068 7B68     		ldr	r3, [r7, #4]
 1159 006a 9A81     		strh	r2, [r3, #12]	@ movhi
 1160              	.L65:
 475:App/STM32F4-Discovery/Libraries/STM32F4xx_StdPeriph_Driver/src/stm32f4xx_i2c.c ****   }
 476:App/STM32F4-Discovery/Libraries/STM32F4xx_StdPeriph_Driver/src/stm32f4xx_i2c.c **** }
 1161              		.loc 1 476 0
 1162 006c 0837     		adds	r7, r7, #8
 1163 006e BD46     		mov	sp, r7
 1164              		@ sp needed
 1165 0070 80BD     		pop	{r7, pc}
 1166              	.L71:
 1167 0072 00BF     		.align	2
 1168              	.L70:
 1169 0074 00540040 		.word	1073763328
 1170 0078 00580040 		.word	1073764352
 1171 007c 005C0040 		.word	1073765376
 1172 0080 00000000 		.word	.LC0
 1173              		.cfi_endproc
 1174              	.LFE119:
 1176              		.section	.text.I2C_GeneralCallCmd,"ax",%progbits
 1177              		.align	2
 1178              		.global	I2C_GeneralCallCmd
 1179              		.thumb
 1180              		.thumb_func
 1182              	I2C_GeneralCallCmd:
 1183              	.LFB120:
 477:App/STM32F4-Discovery/Libraries/STM32F4xx_StdPeriph_Driver/src/stm32f4xx_i2c.c **** 
 478:App/STM32F4-Discovery/Libraries/STM32F4xx_StdPeriph_Driver/src/stm32f4xx_i2c.c **** /**
 479:App/STM32F4-Discovery/Libraries/STM32F4xx_StdPeriph_Driver/src/stm32f4xx_i2c.c ****   * @brief  Enables or disables the specified I2C general call feature.
 480:App/STM32F4-Discovery/Libraries/STM32F4xx_StdPeriph_Driver/src/stm32f4xx_i2c.c ****   * @param  I2Cx: where x can be 1, 2 or 3 to select the I2C peripheral.
 481:App/STM32F4-Discovery/Libraries/STM32F4xx_StdPeriph_Driver/src/stm32f4xx_i2c.c ****   * @param  NewState: new state of the I2C General call.
 482:App/STM32F4-Discovery/Libraries/STM32F4xx_StdPeriph_Driver/src/stm32f4xx_i2c.c ****   *          This parameter can be: ENABLE or DISABLE.
 483:App/STM32F4-Discovery/Libraries/STM32F4xx_StdPeriph_Driver/src/stm32f4xx_i2c.c ****   * @retval None
 484:App/STM32F4-Discovery/Libraries/STM32F4xx_StdPeriph_Driver/src/stm32f4xx_i2c.c ****   */
 485:App/STM32F4-Discovery/Libraries/STM32F4xx_StdPeriph_Driver/src/stm32f4xx_i2c.c **** void I2C_GeneralCallCmd(I2C_TypeDef* I2Cx, FunctionalState NewState)
 486:App/STM32F4-Discovery/Libraries/STM32F4xx_StdPeriph_Driver/src/stm32f4xx_i2c.c **** {
 1184              		.loc 1 486 0
 1185              		.cfi_startproc
 1186              		@ args = 0, pretend = 0, frame = 8
 1187              		@ frame_needed = 1, uses_anonymous_args = 0
 1188 0000 80B5     		push	{r7, lr}
 1189              	.LCFI30:
 1190              		.cfi_def_cfa_offset 8
 1191              		.cfi_offset 7, -8
 1192              		.cfi_offset 14, -4
 1193 0002 82B0     		sub	sp, sp, #8
 1194              	.LCFI31:
 1195              		.cfi_def_cfa_offset 16
 1196 0004 00AF     		add	r7, sp, #0
 1197              	.LCFI32:
 1198              		.cfi_def_cfa_register 7
 1199 0006 7860     		str	r0, [r7, #4]
 1200 0008 0B46     		mov	r3, r1
 1201 000a FB70     		strb	r3, [r7, #3]
 487:App/STM32F4-Discovery/Libraries/STM32F4xx_StdPeriph_Driver/src/stm32f4xx_i2c.c ****   /* Check the parameters */
 488:App/STM32F4-Discovery/Libraries/STM32F4xx_StdPeriph_Driver/src/stm32f4xx_i2c.c ****   assert_param(IS_I2C_ALL_PERIPH(I2Cx));
 1202              		.loc 1 488 0
 1203 000c 7A68     		ldr	r2, [r7, #4]
 1204 000e 194B     		ldr	r3, .L77
 1205 0010 9A42     		cmp	r2, r3
 1206 0012 0CD0     		beq	.L73
 1207              		.loc 1 488 0 is_stmt 0 discriminator 1
 1208 0014 7A68     		ldr	r2, [r7, #4]
 1209 0016 184B     		ldr	r3, .L77+4
 1210 0018 9A42     		cmp	r2, r3
 1211 001a 08D0     		beq	.L73
 1212 001c 7A68     		ldr	r2, [r7, #4]
 1213 001e 174B     		ldr	r3, .L77+8
 1214 0020 9A42     		cmp	r2, r3
 1215 0022 04D0     		beq	.L73
 1216 0024 1648     		ldr	r0, .L77+12
 1217 0026 4FF4F471 		mov	r1, #488
 1218 002a FFF7FEFF 		bl	assert_failed
 1219              	.L73:
 489:App/STM32F4-Discovery/Libraries/STM32F4xx_StdPeriph_Driver/src/stm32f4xx_i2c.c ****   assert_param(IS_FUNCTIONAL_STATE(NewState));
 1220              		.loc 1 489 0 is_stmt 1
 1221 002e FB78     		ldrb	r3, [r7, #3]	@ zero_extendqisi2
 1222 0030 002B     		cmp	r3, #0
 1223 0032 07D0     		beq	.L74
 1224              		.loc 1 489 0 is_stmt 0 discriminator 1
 1225 0034 FB78     		ldrb	r3, [r7, #3]	@ zero_extendqisi2
 1226 0036 012B     		cmp	r3, #1
 1227 0038 04D0     		beq	.L74
 1228 003a 1148     		ldr	r0, .L77+12
 1229 003c 40F2E911 		movw	r1, #489
 1230 0040 FFF7FEFF 		bl	assert_failed
 1231              	.L74:
 490:App/STM32F4-Discovery/Libraries/STM32F4xx_StdPeriph_Driver/src/stm32f4xx_i2c.c ****   if (NewState != DISABLE)
 1232              		.loc 1 490 0 is_stmt 1
 1233 0044 FB78     		ldrb	r3, [r7, #3]	@ zero_extendqisi2
 1234 0046 002B     		cmp	r3, #0
 1235 0048 08D0     		beq	.L75
 491:App/STM32F4-Discovery/Libraries/STM32F4xx_StdPeriph_Driver/src/stm32f4xx_i2c.c ****   {
 492:App/STM32F4-Discovery/Libraries/STM32F4xx_StdPeriph_Driver/src/stm32f4xx_i2c.c ****     /* Enable generall call */
 493:App/STM32F4-Discovery/Libraries/STM32F4xx_StdPeriph_Driver/src/stm32f4xx_i2c.c ****     I2Cx->CR1 |= I2C_CR1_ENGC;
 1236              		.loc 1 493 0
 1237 004a 7B68     		ldr	r3, [r7, #4]
 1238 004c 1B88     		ldrh	r3, [r3]	@ movhi
 1239 004e 9BB2     		uxth	r3, r3
 1240 0050 43F04003 		orr	r3, r3, #64
 1241 0054 9AB2     		uxth	r2, r3
 1242 0056 7B68     		ldr	r3, [r7, #4]
 1243 0058 1A80     		strh	r2, [r3]	@ movhi
 1244 005a 07E0     		b	.L72
 1245              	.L75:
 494:App/STM32F4-Discovery/Libraries/STM32F4xx_StdPeriph_Driver/src/stm32f4xx_i2c.c ****   }
 495:App/STM32F4-Discovery/Libraries/STM32F4xx_StdPeriph_Driver/src/stm32f4xx_i2c.c ****   else
 496:App/STM32F4-Discovery/Libraries/STM32F4xx_StdPeriph_Driver/src/stm32f4xx_i2c.c ****   {
 497:App/STM32F4-Discovery/Libraries/STM32F4xx_StdPeriph_Driver/src/stm32f4xx_i2c.c ****     /* Disable generall call */
 498:App/STM32F4-Discovery/Libraries/STM32F4xx_StdPeriph_Driver/src/stm32f4xx_i2c.c ****     I2Cx->CR1 &= (uint16_t)~((uint16_t)I2C_CR1_ENGC);
 1246              		.loc 1 498 0
 1247 005c 7B68     		ldr	r3, [r7, #4]
 1248 005e 1B88     		ldrh	r3, [r3]	@ movhi
 1249 0060 9BB2     		uxth	r3, r3
 1250 0062 23F04003 		bic	r3, r3, #64
 1251 0066 9AB2     		uxth	r2, r3
 1252 0068 7B68     		ldr	r3, [r7, #4]
 1253 006a 1A80     		strh	r2, [r3]	@ movhi
 1254              	.L72:
 499:App/STM32F4-Discovery/Libraries/STM32F4xx_StdPeriph_Driver/src/stm32f4xx_i2c.c ****   }
 500:App/STM32F4-Discovery/Libraries/STM32F4xx_StdPeriph_Driver/src/stm32f4xx_i2c.c **** }
 1255              		.loc 1 500 0
 1256 006c 0837     		adds	r7, r7, #8
 1257 006e BD46     		mov	sp, r7
 1258              		@ sp needed
 1259 0070 80BD     		pop	{r7, pc}
 1260              	.L78:
 1261 0072 00BF     		.align	2
 1262              	.L77:
 1263 0074 00540040 		.word	1073763328
 1264 0078 00580040 		.word	1073764352
 1265 007c 005C0040 		.word	1073765376
 1266 0080 00000000 		.word	.LC0
 1267              		.cfi_endproc
 1268              	.LFE120:
 1270              		.section	.text.I2C_SoftwareResetCmd,"ax",%progbits
 1271              		.align	2
 1272              		.global	I2C_SoftwareResetCmd
 1273              		.thumb
 1274              		.thumb_func
 1276              	I2C_SoftwareResetCmd:
 1277              	.LFB121:
 501:App/STM32F4-Discovery/Libraries/STM32F4xx_StdPeriph_Driver/src/stm32f4xx_i2c.c **** 
 502:App/STM32F4-Discovery/Libraries/STM32F4xx_StdPeriph_Driver/src/stm32f4xx_i2c.c **** /**
 503:App/STM32F4-Discovery/Libraries/STM32F4xx_StdPeriph_Driver/src/stm32f4xx_i2c.c ****   * @brief  Enables or disables the specified I2C software reset.
 504:App/STM32F4-Discovery/Libraries/STM32F4xx_StdPeriph_Driver/src/stm32f4xx_i2c.c ****   * @note   When software reset is enabled, the I2C IOs are released (this can
 505:App/STM32F4-Discovery/Libraries/STM32F4xx_StdPeriph_Driver/src/stm32f4xx_i2c.c ****   *         be useful to recover from bus errors).  
 506:App/STM32F4-Discovery/Libraries/STM32F4xx_StdPeriph_Driver/src/stm32f4xx_i2c.c ****   * @param  I2Cx: where x can be 1, 2 or 3 to select the I2C peripheral.
 507:App/STM32F4-Discovery/Libraries/STM32F4xx_StdPeriph_Driver/src/stm32f4xx_i2c.c ****   * @param  NewState: new state of the I2C software reset.
 508:App/STM32F4-Discovery/Libraries/STM32F4xx_StdPeriph_Driver/src/stm32f4xx_i2c.c ****   *          This parameter can be: ENABLE or DISABLE.
 509:App/STM32F4-Discovery/Libraries/STM32F4xx_StdPeriph_Driver/src/stm32f4xx_i2c.c ****   * @retval None
 510:App/STM32F4-Discovery/Libraries/STM32F4xx_StdPeriph_Driver/src/stm32f4xx_i2c.c ****   */
 511:App/STM32F4-Discovery/Libraries/STM32F4xx_StdPeriph_Driver/src/stm32f4xx_i2c.c **** void I2C_SoftwareResetCmd(I2C_TypeDef* I2Cx, FunctionalState NewState)
 512:App/STM32F4-Discovery/Libraries/STM32F4xx_StdPeriph_Driver/src/stm32f4xx_i2c.c **** {
 1278              		.loc 1 512 0
 1279              		.cfi_startproc
 1280              		@ args = 0, pretend = 0, frame = 8
 1281              		@ frame_needed = 1, uses_anonymous_args = 0
 1282 0000 80B5     		push	{r7, lr}
 1283              	.LCFI33:
 1284              		.cfi_def_cfa_offset 8
 1285              		.cfi_offset 7, -8
 1286              		.cfi_offset 14, -4
 1287 0002 82B0     		sub	sp, sp, #8
 1288              	.LCFI34:
 1289              		.cfi_def_cfa_offset 16
 1290 0004 00AF     		add	r7, sp, #0
 1291              	.LCFI35:
 1292              		.cfi_def_cfa_register 7
 1293 0006 7860     		str	r0, [r7, #4]
 1294 0008 0B46     		mov	r3, r1
 1295 000a FB70     		strb	r3, [r7, #3]
 513:App/STM32F4-Discovery/Libraries/STM32F4xx_StdPeriph_Driver/src/stm32f4xx_i2c.c ****   /* Check the parameters */
 514:App/STM32F4-Discovery/Libraries/STM32F4xx_StdPeriph_Driver/src/stm32f4xx_i2c.c ****   assert_param(IS_I2C_ALL_PERIPH(I2Cx));
 1296              		.loc 1 514 0
 1297 000c 7A68     		ldr	r2, [r7, #4]
 1298 000e 1A4B     		ldr	r3, .L84
 1299 0010 9A42     		cmp	r2, r3
 1300 0012 0CD0     		beq	.L80
 1301              		.loc 1 514 0 is_stmt 0 discriminator 1
 1302 0014 7A68     		ldr	r2, [r7, #4]
 1303 0016 194B     		ldr	r3, .L84+4
 1304 0018 9A42     		cmp	r2, r3
 1305 001a 08D0     		beq	.L80
 1306 001c 7A68     		ldr	r2, [r7, #4]
 1307 001e 184B     		ldr	r3, .L84+8
 1308 0020 9A42     		cmp	r2, r3
 1309 0022 04D0     		beq	.L80
 1310 0024 1748     		ldr	r0, .L84+12
 1311 0026 40F20221 		movw	r1, #514
 1312 002a FFF7FEFF 		bl	assert_failed
 1313              	.L80:
 515:App/STM32F4-Discovery/Libraries/STM32F4xx_StdPeriph_Driver/src/stm32f4xx_i2c.c ****   assert_param(IS_FUNCTIONAL_STATE(NewState));
 1314              		.loc 1 515 0 is_stmt 1
 1315 002e FB78     		ldrb	r3, [r7, #3]	@ zero_extendqisi2
 1316 0030 002B     		cmp	r3, #0
 1317 0032 07D0     		beq	.L81
 1318              		.loc 1 515 0 is_stmt 0 discriminator 1
 1319 0034 FB78     		ldrb	r3, [r7, #3]	@ zero_extendqisi2
 1320 0036 012B     		cmp	r3, #1
 1321 0038 04D0     		beq	.L81
 1322 003a 1248     		ldr	r0, .L84+12
 1323 003c 40F20321 		movw	r1, #515
 1324 0040 FFF7FEFF 		bl	assert_failed
 1325              	.L81:
 516:App/STM32F4-Discovery/Libraries/STM32F4xx_StdPeriph_Driver/src/stm32f4xx_i2c.c ****   if (NewState != DISABLE)
 1326              		.loc 1 516 0 is_stmt 1
 1327 0044 FB78     		ldrb	r3, [r7, #3]	@ zero_extendqisi2
 1328 0046 002B     		cmp	r3, #0
 1329 0048 0AD0     		beq	.L82
 517:App/STM32F4-Discovery/Libraries/STM32F4xx_StdPeriph_Driver/src/stm32f4xx_i2c.c ****   {
 518:App/STM32F4-Discovery/Libraries/STM32F4xx_StdPeriph_Driver/src/stm32f4xx_i2c.c ****     /* Peripheral under reset */
 519:App/STM32F4-Discovery/Libraries/STM32F4xx_StdPeriph_Driver/src/stm32f4xx_i2c.c ****     I2Cx->CR1 |= I2C_CR1_SWRST;
 1330              		.loc 1 519 0
 1331 004a 7B68     		ldr	r3, [r7, #4]
 1332 004c 1B88     		ldrh	r3, [r3]	@ movhi
 1333 004e 9BB2     		uxth	r3, r3
 1334 0050 6FEA4343 		mvn	r3, r3, lsl #17
 1335 0054 6FEA5343 		mvn	r3, r3, lsr #17
 1336 0058 9AB2     		uxth	r2, r3
 1337 005a 7B68     		ldr	r3, [r7, #4]
 1338 005c 1A80     		strh	r2, [r3]	@ movhi
 1339 005e 07E0     		b	.L79
 1340              	.L82:
 520:App/STM32F4-Discovery/Libraries/STM32F4xx_StdPeriph_Driver/src/stm32f4xx_i2c.c ****   }
 521:App/STM32F4-Discovery/Libraries/STM32F4xx_StdPeriph_Driver/src/stm32f4xx_i2c.c ****   else
 522:App/STM32F4-Discovery/Libraries/STM32F4xx_StdPeriph_Driver/src/stm32f4xx_i2c.c ****   {
 523:App/STM32F4-Discovery/Libraries/STM32F4xx_StdPeriph_Driver/src/stm32f4xx_i2c.c ****     /* Peripheral not under reset */
 524:App/STM32F4-Discovery/Libraries/STM32F4xx_StdPeriph_Driver/src/stm32f4xx_i2c.c ****     I2Cx->CR1 &= (uint16_t)~((uint16_t)I2C_CR1_SWRST);
 1341              		.loc 1 524 0
 1342 0060 7B68     		ldr	r3, [r7, #4]
 1343 0062 1B88     		ldrh	r3, [r3]	@ movhi
 1344 0064 9BB2     		uxth	r3, r3
 1345 0066 C3F30E03 		ubfx	r3, r3, #0, #15
 1346 006a 9AB2     		uxth	r2, r3
 1347 006c 7B68     		ldr	r3, [r7, #4]
 1348 006e 1A80     		strh	r2, [r3]	@ movhi
 1349              	.L79:
 525:App/STM32F4-Discovery/Libraries/STM32F4xx_StdPeriph_Driver/src/stm32f4xx_i2c.c ****   }
 526:App/STM32F4-Discovery/Libraries/STM32F4xx_StdPeriph_Driver/src/stm32f4xx_i2c.c **** }
 1350              		.loc 1 526 0
 1351 0070 0837     		adds	r7, r7, #8
 1352 0072 BD46     		mov	sp, r7
 1353              		@ sp needed
 1354 0074 80BD     		pop	{r7, pc}
 1355              	.L85:
 1356 0076 00BF     		.align	2
 1357              	.L84:
 1358 0078 00540040 		.word	1073763328
 1359 007c 00580040 		.word	1073764352
 1360 0080 005C0040 		.word	1073765376
 1361 0084 00000000 		.word	.LC0
 1362              		.cfi_endproc
 1363              	.LFE121:
 1365              		.section	.text.I2C_StretchClockCmd,"ax",%progbits
 1366              		.align	2
 1367              		.global	I2C_StretchClockCmd
 1368              		.thumb
 1369              		.thumb_func
 1371              	I2C_StretchClockCmd:
 1372              	.LFB122:
 527:App/STM32F4-Discovery/Libraries/STM32F4xx_StdPeriph_Driver/src/stm32f4xx_i2c.c **** 
 528:App/STM32F4-Discovery/Libraries/STM32F4xx_StdPeriph_Driver/src/stm32f4xx_i2c.c **** /**
 529:App/STM32F4-Discovery/Libraries/STM32F4xx_StdPeriph_Driver/src/stm32f4xx_i2c.c ****   * @brief  Enables or disables the specified I2C Clock stretching.
 530:App/STM32F4-Discovery/Libraries/STM32F4xx_StdPeriph_Driver/src/stm32f4xx_i2c.c ****   * @param  I2Cx: where x can be 1, 2 or 3 to select the I2C peripheral.
 531:App/STM32F4-Discovery/Libraries/STM32F4xx_StdPeriph_Driver/src/stm32f4xx_i2c.c ****   * @param  NewState: new state of the I2Cx Clock stretching.
 532:App/STM32F4-Discovery/Libraries/STM32F4xx_StdPeriph_Driver/src/stm32f4xx_i2c.c ****   *          This parameter can be: ENABLE or DISABLE.
 533:App/STM32F4-Discovery/Libraries/STM32F4xx_StdPeriph_Driver/src/stm32f4xx_i2c.c ****   * @retval None
 534:App/STM32F4-Discovery/Libraries/STM32F4xx_StdPeriph_Driver/src/stm32f4xx_i2c.c ****   */
 535:App/STM32F4-Discovery/Libraries/STM32F4xx_StdPeriph_Driver/src/stm32f4xx_i2c.c **** void I2C_StretchClockCmd(I2C_TypeDef* I2Cx, FunctionalState NewState)
 536:App/STM32F4-Discovery/Libraries/STM32F4xx_StdPeriph_Driver/src/stm32f4xx_i2c.c **** {
 1373              		.loc 1 536 0
 1374              		.cfi_startproc
 1375              		@ args = 0, pretend = 0, frame = 8
 1376              		@ frame_needed = 1, uses_anonymous_args = 0
 1377 0000 80B5     		push	{r7, lr}
 1378              	.LCFI36:
 1379              		.cfi_def_cfa_offset 8
 1380              		.cfi_offset 7, -8
 1381              		.cfi_offset 14, -4
 1382 0002 82B0     		sub	sp, sp, #8
 1383              	.LCFI37:
 1384              		.cfi_def_cfa_offset 16
 1385 0004 00AF     		add	r7, sp, #0
 1386              	.LCFI38:
 1387              		.cfi_def_cfa_register 7
 1388 0006 7860     		str	r0, [r7, #4]
 1389 0008 0B46     		mov	r3, r1
 1390 000a FB70     		strb	r3, [r7, #3]
 537:App/STM32F4-Discovery/Libraries/STM32F4xx_StdPeriph_Driver/src/stm32f4xx_i2c.c ****   /* Check the parameters */
 538:App/STM32F4-Discovery/Libraries/STM32F4xx_StdPeriph_Driver/src/stm32f4xx_i2c.c ****   assert_param(IS_I2C_ALL_PERIPH(I2Cx));
 1391              		.loc 1 538 0
 1392 000c 7A68     		ldr	r2, [r7, #4]
 1393 000e 194B     		ldr	r3, .L91
 1394 0010 9A42     		cmp	r2, r3
 1395 0012 0CD0     		beq	.L87
 1396              		.loc 1 538 0 is_stmt 0 discriminator 1
 1397 0014 7A68     		ldr	r2, [r7, #4]
 1398 0016 184B     		ldr	r3, .L91+4
 1399 0018 9A42     		cmp	r2, r3
 1400 001a 08D0     		beq	.L87
 1401 001c 7A68     		ldr	r2, [r7, #4]
 1402 001e 174B     		ldr	r3, .L91+8
 1403 0020 9A42     		cmp	r2, r3
 1404 0022 04D0     		beq	.L87
 1405 0024 1648     		ldr	r0, .L91+12
 1406 0026 40F21A21 		movw	r1, #538
 1407 002a FFF7FEFF 		bl	assert_failed
 1408              	.L87:
 539:App/STM32F4-Discovery/Libraries/STM32F4xx_StdPeriph_Driver/src/stm32f4xx_i2c.c ****   assert_param(IS_FUNCTIONAL_STATE(NewState));
 1409              		.loc 1 539 0 is_stmt 1
 1410 002e FB78     		ldrb	r3, [r7, #3]	@ zero_extendqisi2
 1411 0030 002B     		cmp	r3, #0
 1412 0032 07D0     		beq	.L88
 1413              		.loc 1 539 0 is_stmt 0 discriminator 1
 1414 0034 FB78     		ldrb	r3, [r7, #3]	@ zero_extendqisi2
 1415 0036 012B     		cmp	r3, #1
 1416 0038 04D0     		beq	.L88
 1417 003a 1148     		ldr	r0, .L91+12
 1418 003c 40F21B21 		movw	r1, #539
 1419 0040 FFF7FEFF 		bl	assert_failed
 1420              	.L88:
 540:App/STM32F4-Discovery/Libraries/STM32F4xx_StdPeriph_Driver/src/stm32f4xx_i2c.c ****   if (NewState == DISABLE)
 1421              		.loc 1 540 0 is_stmt 1
 1422 0044 FB78     		ldrb	r3, [r7, #3]	@ zero_extendqisi2
 1423 0046 002B     		cmp	r3, #0
 1424 0048 08D1     		bne	.L89
 541:App/STM32F4-Discovery/Libraries/STM32F4xx_StdPeriph_Driver/src/stm32f4xx_i2c.c ****   {
 542:App/STM32F4-Discovery/Libraries/STM32F4xx_StdPeriph_Driver/src/stm32f4xx_i2c.c ****     /* Enable the selected I2C Clock stretching */
 543:App/STM32F4-Discovery/Libraries/STM32F4xx_StdPeriph_Driver/src/stm32f4xx_i2c.c ****     I2Cx->CR1 |= I2C_CR1_NOSTRETCH;
 1425              		.loc 1 543 0
 1426 004a 7B68     		ldr	r3, [r7, #4]
 1427 004c 1B88     		ldrh	r3, [r3]	@ movhi
 1428 004e 9BB2     		uxth	r3, r3
 1429 0050 43F08003 		orr	r3, r3, #128
 1430 0054 9AB2     		uxth	r2, r3
 1431 0056 7B68     		ldr	r3, [r7, #4]
 1432 0058 1A80     		strh	r2, [r3]	@ movhi
 1433 005a 07E0     		b	.L86
 1434              	.L89:
 544:App/STM32F4-Discovery/Libraries/STM32F4xx_StdPeriph_Driver/src/stm32f4xx_i2c.c ****   }
 545:App/STM32F4-Discovery/Libraries/STM32F4xx_StdPeriph_Driver/src/stm32f4xx_i2c.c ****   else
 546:App/STM32F4-Discovery/Libraries/STM32F4xx_StdPeriph_Driver/src/stm32f4xx_i2c.c ****   {
 547:App/STM32F4-Discovery/Libraries/STM32F4xx_StdPeriph_Driver/src/stm32f4xx_i2c.c ****     /* Disable the selected I2C Clock stretching */
 548:App/STM32F4-Discovery/Libraries/STM32F4xx_StdPeriph_Driver/src/stm32f4xx_i2c.c ****     I2Cx->CR1 &= (uint16_t)~((uint16_t)I2C_CR1_NOSTRETCH);
 1435              		.loc 1 548 0
 1436 005c 7B68     		ldr	r3, [r7, #4]
 1437 005e 1B88     		ldrh	r3, [r3]	@ movhi
 1438 0060 9BB2     		uxth	r3, r3
 1439 0062 23F08003 		bic	r3, r3, #128
 1440 0066 9AB2     		uxth	r2, r3
 1441 0068 7B68     		ldr	r3, [r7, #4]
 1442 006a 1A80     		strh	r2, [r3]	@ movhi
 1443              	.L86:
 549:App/STM32F4-Discovery/Libraries/STM32F4xx_StdPeriph_Driver/src/stm32f4xx_i2c.c ****   }
 550:App/STM32F4-Discovery/Libraries/STM32F4xx_StdPeriph_Driver/src/stm32f4xx_i2c.c **** }
 1444              		.loc 1 550 0
 1445 006c 0837     		adds	r7, r7, #8
 1446 006e BD46     		mov	sp, r7
 1447              		@ sp needed
 1448 0070 80BD     		pop	{r7, pc}
 1449              	.L92:
 1450 0072 00BF     		.align	2
 1451              	.L91:
 1452 0074 00540040 		.word	1073763328
 1453 0078 00580040 		.word	1073764352
 1454 007c 005C0040 		.word	1073765376
 1455 0080 00000000 		.word	.LC0
 1456              		.cfi_endproc
 1457              	.LFE122:
 1459              		.section	.text.I2C_FastModeDutyCycleConfig,"ax",%progbits
 1460              		.align	2
 1461              		.global	I2C_FastModeDutyCycleConfig
 1462              		.thumb
 1463              		.thumb_func
 1465              	I2C_FastModeDutyCycleConfig:
 1466              	.LFB123:
 551:App/STM32F4-Discovery/Libraries/STM32F4xx_StdPeriph_Driver/src/stm32f4xx_i2c.c **** 
 552:App/STM32F4-Discovery/Libraries/STM32F4xx_StdPeriph_Driver/src/stm32f4xx_i2c.c **** /**
 553:App/STM32F4-Discovery/Libraries/STM32F4xx_StdPeriph_Driver/src/stm32f4xx_i2c.c ****   * @brief  Selects the specified I2C fast mode duty cycle.
 554:App/STM32F4-Discovery/Libraries/STM32F4xx_StdPeriph_Driver/src/stm32f4xx_i2c.c ****   * @param  I2Cx: where x can be 1, 2 or 3 to select the I2C peripheral.
 555:App/STM32F4-Discovery/Libraries/STM32F4xx_StdPeriph_Driver/src/stm32f4xx_i2c.c ****   * @param  I2C_DutyCycle: specifies the fast mode duty cycle.
 556:App/STM32F4-Discovery/Libraries/STM32F4xx_StdPeriph_Driver/src/stm32f4xx_i2c.c ****   *          This parameter can be one of the following values:
 557:App/STM32F4-Discovery/Libraries/STM32F4xx_StdPeriph_Driver/src/stm32f4xx_i2c.c ****   *            @arg I2C_DutyCycle_2: I2C fast mode Tlow/Thigh = 2
 558:App/STM32F4-Discovery/Libraries/STM32F4xx_StdPeriph_Driver/src/stm32f4xx_i2c.c ****   *            @arg I2C_DutyCycle_16_9: I2C fast mode Tlow/Thigh = 16/9
 559:App/STM32F4-Discovery/Libraries/STM32F4xx_StdPeriph_Driver/src/stm32f4xx_i2c.c ****   * @retval None
 560:App/STM32F4-Discovery/Libraries/STM32F4xx_StdPeriph_Driver/src/stm32f4xx_i2c.c ****   */
 561:App/STM32F4-Discovery/Libraries/STM32F4xx_StdPeriph_Driver/src/stm32f4xx_i2c.c **** void I2C_FastModeDutyCycleConfig(I2C_TypeDef* I2Cx, uint16_t I2C_DutyCycle)
 562:App/STM32F4-Discovery/Libraries/STM32F4xx_StdPeriph_Driver/src/stm32f4xx_i2c.c **** {
 1467              		.loc 1 562 0
 1468              		.cfi_startproc
 1469              		@ args = 0, pretend = 0, frame = 8
 1470              		@ frame_needed = 1, uses_anonymous_args = 0
 1471 0000 80B5     		push	{r7, lr}
 1472              	.LCFI39:
 1473              		.cfi_def_cfa_offset 8
 1474              		.cfi_offset 7, -8
 1475              		.cfi_offset 14, -4
 1476 0002 82B0     		sub	sp, sp, #8
 1477              	.LCFI40:
 1478              		.cfi_def_cfa_offset 16
 1479 0004 00AF     		add	r7, sp, #0
 1480              	.LCFI41:
 1481              		.cfi_def_cfa_register 7
 1482 0006 7860     		str	r0, [r7, #4]
 1483 0008 0B46     		mov	r3, r1
 1484 000a 7B80     		strh	r3, [r7, #2]	@ movhi
 563:App/STM32F4-Discovery/Libraries/STM32F4xx_StdPeriph_Driver/src/stm32f4xx_i2c.c ****   /* Check the parameters */
 564:App/STM32F4-Discovery/Libraries/STM32F4xx_StdPeriph_Driver/src/stm32f4xx_i2c.c ****   assert_param(IS_I2C_ALL_PERIPH(I2Cx));
 1485              		.loc 1 564 0
 1486 000c 7A68     		ldr	r2, [r7, #4]
 1487 000e 1B4B     		ldr	r3, .L98
 1488 0010 9A42     		cmp	r2, r3
 1489 0012 0CD0     		beq	.L94
 1490              		.loc 1 564 0 is_stmt 0 discriminator 1
 1491 0014 7A68     		ldr	r2, [r7, #4]
 1492 0016 1A4B     		ldr	r3, .L98+4
 1493 0018 9A42     		cmp	r2, r3
 1494 001a 08D0     		beq	.L94
 1495 001c 7A68     		ldr	r2, [r7, #4]
 1496 001e 194B     		ldr	r3, .L98+8
 1497 0020 9A42     		cmp	r2, r3
 1498 0022 04D0     		beq	.L94
 1499 0024 1848     		ldr	r0, .L98+12
 1500 0026 4FF40D71 		mov	r1, #564
 1501 002a FFF7FEFF 		bl	assert_failed
 1502              	.L94:
 565:App/STM32F4-Discovery/Libraries/STM32F4xx_StdPeriph_Driver/src/stm32f4xx_i2c.c ****   assert_param(IS_I2C_DUTY_CYCLE(I2C_DutyCycle));
 1503              		.loc 1 565 0 is_stmt 1
 1504 002e 7B88     		ldrh	r3, [r7, #2]
 1505 0030 B3F5804F 		cmp	r3, #16384
 1506 0034 09D0     		beq	.L95
 1507              		.loc 1 565 0 is_stmt 0 discriminator 1
 1508 0036 7A88     		ldrh	r2, [r7, #2]
 1509 0038 4BF6FF73 		movw	r3, #49151
 1510 003c 9A42     		cmp	r2, r3
 1511 003e 04D0     		beq	.L95
 1512 0040 1148     		ldr	r0, .L98+12
 1513 0042 40F23521 		movw	r1, #565
 1514 0046 FFF7FEFF 		bl	assert_failed
 1515              	.L95:
 566:App/STM32F4-Discovery/Libraries/STM32F4xx_StdPeriph_Driver/src/stm32f4xx_i2c.c ****   if (I2C_DutyCycle != I2C_DutyCycle_16_9)
 1516              		.loc 1 566 0 is_stmt 1
 1517 004a 7B88     		ldrh	r3, [r7, #2]
 1518 004c B3F5804F 		cmp	r3, #16384
 1519 0050 08D0     		beq	.L96
 567:App/STM32F4-Discovery/Libraries/STM32F4xx_StdPeriph_Driver/src/stm32f4xx_i2c.c ****   {
 568:App/STM32F4-Discovery/Libraries/STM32F4xx_StdPeriph_Driver/src/stm32f4xx_i2c.c ****     /* I2C fast mode Tlow/Thigh=2 */
 569:App/STM32F4-Discovery/Libraries/STM32F4xx_StdPeriph_Driver/src/stm32f4xx_i2c.c ****     I2Cx->CCR &= I2C_DutyCycle_2;
 1520              		.loc 1 569 0
 1521 0052 7B68     		ldr	r3, [r7, #4]
 1522 0054 9B8B     		ldrh	r3, [r3, #28]	@ movhi
 1523 0056 9BB2     		uxth	r3, r3
 1524 0058 23F48043 		bic	r3, r3, #16384
 1525 005c 9AB2     		uxth	r2, r3
 1526 005e 7B68     		ldr	r3, [r7, #4]
 1527 0060 9A83     		strh	r2, [r3, #28]	@ movhi
 1528 0062 07E0     		b	.L93
 1529              	.L96:
 570:App/STM32F4-Discovery/Libraries/STM32F4xx_StdPeriph_Driver/src/stm32f4xx_i2c.c ****   }
 571:App/STM32F4-Discovery/Libraries/STM32F4xx_StdPeriph_Driver/src/stm32f4xx_i2c.c ****   else
 572:App/STM32F4-Discovery/Libraries/STM32F4xx_StdPeriph_Driver/src/stm32f4xx_i2c.c ****   {
 573:App/STM32F4-Discovery/Libraries/STM32F4xx_StdPeriph_Driver/src/stm32f4xx_i2c.c ****     /* I2C fast mode Tlow/Thigh=16/9 */
 574:App/STM32F4-Discovery/Libraries/STM32F4xx_StdPeriph_Driver/src/stm32f4xx_i2c.c ****     I2Cx->CCR |= I2C_DutyCycle_16_9;
 1530              		.loc 1 574 0
 1531 0064 7B68     		ldr	r3, [r7, #4]
 1532 0066 9B8B     		ldrh	r3, [r3, #28]	@ movhi
 1533 0068 9BB2     		uxth	r3, r3
 1534 006a 43F48043 		orr	r3, r3, #16384
 1535 006e 9AB2     		uxth	r2, r3
 1536 0070 7B68     		ldr	r3, [r7, #4]
 1537 0072 9A83     		strh	r2, [r3, #28]	@ movhi
 1538              	.L93:
 575:App/STM32F4-Discovery/Libraries/STM32F4xx_StdPeriph_Driver/src/stm32f4xx_i2c.c ****   }
 576:App/STM32F4-Discovery/Libraries/STM32F4xx_StdPeriph_Driver/src/stm32f4xx_i2c.c **** }
 1539              		.loc 1 576 0
 1540 0074 0837     		adds	r7, r7, #8
 1541 0076 BD46     		mov	sp, r7
 1542              		@ sp needed
 1543 0078 80BD     		pop	{r7, pc}
 1544              	.L99:
 1545 007a 00BF     		.align	2
 1546              	.L98:
 1547 007c 00540040 		.word	1073763328
 1548 0080 00580040 		.word	1073764352
 1549 0084 005C0040 		.word	1073765376
 1550 0088 00000000 		.word	.LC0
 1551              		.cfi_endproc
 1552              	.LFE123:
 1554              		.section	.text.I2C_NACKPositionConfig,"ax",%progbits
 1555              		.align	2
 1556              		.global	I2C_NACKPositionConfig
 1557              		.thumb
 1558              		.thumb_func
 1560              	I2C_NACKPositionConfig:
 1561              	.LFB124:
 577:App/STM32F4-Discovery/Libraries/STM32F4xx_StdPeriph_Driver/src/stm32f4xx_i2c.c **** 
 578:App/STM32F4-Discovery/Libraries/STM32F4xx_StdPeriph_Driver/src/stm32f4xx_i2c.c **** /**
 579:App/STM32F4-Discovery/Libraries/STM32F4xx_StdPeriph_Driver/src/stm32f4xx_i2c.c ****   * @brief  Selects the specified I2C NACK position in master receiver mode.
 580:App/STM32F4-Discovery/Libraries/STM32F4xx_StdPeriph_Driver/src/stm32f4xx_i2c.c ****   * @note   This function is useful in I2C Master Receiver mode when the number
 581:App/STM32F4-Discovery/Libraries/STM32F4xx_StdPeriph_Driver/src/stm32f4xx_i2c.c ****   *         of data to be received is equal to 2. In this case, this function 
 582:App/STM32F4-Discovery/Libraries/STM32F4xx_StdPeriph_Driver/src/stm32f4xx_i2c.c ****   *         should be called (with parameter I2C_NACKPosition_Next) before data 
 583:App/STM32F4-Discovery/Libraries/STM32F4xx_StdPeriph_Driver/src/stm32f4xx_i2c.c ****   *         reception starts,as described in the 2-byte reception procedure 
 584:App/STM32F4-Discovery/Libraries/STM32F4xx_StdPeriph_Driver/src/stm32f4xx_i2c.c ****   *         recommended in Reference Manual in Section: Master receiver.                
 585:App/STM32F4-Discovery/Libraries/STM32F4xx_StdPeriph_Driver/src/stm32f4xx_i2c.c ****   * @param  I2Cx: where x can be 1, 2 or 3 to select the I2C peripheral.
 586:App/STM32F4-Discovery/Libraries/STM32F4xx_StdPeriph_Driver/src/stm32f4xx_i2c.c ****   * @param  I2C_NACKPosition: specifies the NACK position. 
 587:App/STM32F4-Discovery/Libraries/STM32F4xx_StdPeriph_Driver/src/stm32f4xx_i2c.c ****   *          This parameter can be one of the following values:
 588:App/STM32F4-Discovery/Libraries/STM32F4xx_StdPeriph_Driver/src/stm32f4xx_i2c.c ****   *            @arg I2C_NACKPosition_Next: indicates that the next byte will be the last
 589:App/STM32F4-Discovery/Libraries/STM32F4xx_StdPeriph_Driver/src/stm32f4xx_i2c.c ****   *                                        received byte.  
 590:App/STM32F4-Discovery/Libraries/STM32F4xx_StdPeriph_Driver/src/stm32f4xx_i2c.c ****   *            @arg I2C_NACKPosition_Current: indicates that current byte is the last 
 591:App/STM32F4-Discovery/Libraries/STM32F4xx_StdPeriph_Driver/src/stm32f4xx_i2c.c ****   *                                           received byte.
 592:App/STM32F4-Discovery/Libraries/STM32F4xx_StdPeriph_Driver/src/stm32f4xx_i2c.c ****   *            
 593:App/STM32F4-Discovery/Libraries/STM32F4xx_StdPeriph_Driver/src/stm32f4xx_i2c.c ****   * @note    This function configures the same bit (POS) as I2C_PECPositionConfig() 
 594:App/STM32F4-Discovery/Libraries/STM32F4xx_StdPeriph_Driver/src/stm32f4xx_i2c.c ****   *          but is intended to be used in I2C mode while I2C_PECPositionConfig() 
 595:App/STM32F4-Discovery/Libraries/STM32F4xx_StdPeriph_Driver/src/stm32f4xx_i2c.c ****   *          is intended to used in SMBUS mode. 
 596:App/STM32F4-Discovery/Libraries/STM32F4xx_StdPeriph_Driver/src/stm32f4xx_i2c.c ****   *            
 597:App/STM32F4-Discovery/Libraries/STM32F4xx_StdPeriph_Driver/src/stm32f4xx_i2c.c ****   * @retval None
 598:App/STM32F4-Discovery/Libraries/STM32F4xx_StdPeriph_Driver/src/stm32f4xx_i2c.c ****   */
 599:App/STM32F4-Discovery/Libraries/STM32F4xx_StdPeriph_Driver/src/stm32f4xx_i2c.c **** void I2C_NACKPositionConfig(I2C_TypeDef* I2Cx, uint16_t I2C_NACKPosition)
 600:App/STM32F4-Discovery/Libraries/STM32F4xx_StdPeriph_Driver/src/stm32f4xx_i2c.c **** {
 1562              		.loc 1 600 0
 1563              		.cfi_startproc
 1564              		@ args = 0, pretend = 0, frame = 8
 1565              		@ frame_needed = 1, uses_anonymous_args = 0
 1566 0000 80B5     		push	{r7, lr}
 1567              	.LCFI42:
 1568              		.cfi_def_cfa_offset 8
 1569              		.cfi_offset 7, -8
 1570              		.cfi_offset 14, -4
 1571 0002 82B0     		sub	sp, sp, #8
 1572              	.LCFI43:
 1573              		.cfi_def_cfa_offset 16
 1574 0004 00AF     		add	r7, sp, #0
 1575              	.LCFI44:
 1576              		.cfi_def_cfa_register 7
 1577 0006 7860     		str	r0, [r7, #4]
 1578 0008 0B46     		mov	r3, r1
 1579 000a 7B80     		strh	r3, [r7, #2]	@ movhi
 601:App/STM32F4-Discovery/Libraries/STM32F4xx_StdPeriph_Driver/src/stm32f4xx_i2c.c ****   /* Check the parameters */
 602:App/STM32F4-Discovery/Libraries/STM32F4xx_StdPeriph_Driver/src/stm32f4xx_i2c.c ****   assert_param(IS_I2C_ALL_PERIPH(I2Cx));
 1580              		.loc 1 602 0
 1581 000c 7A68     		ldr	r2, [r7, #4]
 1582 000e 1B4B     		ldr	r3, .L105
 1583 0010 9A42     		cmp	r2, r3
 1584 0012 0CD0     		beq	.L101
 1585              		.loc 1 602 0 is_stmt 0 discriminator 1
 1586 0014 7A68     		ldr	r2, [r7, #4]
 1587 0016 1A4B     		ldr	r3, .L105+4
 1588 0018 9A42     		cmp	r2, r3
 1589 001a 08D0     		beq	.L101
 1590 001c 7A68     		ldr	r2, [r7, #4]
 1591 001e 194B     		ldr	r3, .L105+8
 1592 0020 9A42     		cmp	r2, r3
 1593 0022 04D0     		beq	.L101
 1594 0024 1848     		ldr	r0, .L105+12
 1595 0026 40F25A21 		movw	r1, #602
 1596 002a FFF7FEFF 		bl	assert_failed
 1597              	.L101:
 603:App/STM32F4-Discovery/Libraries/STM32F4xx_StdPeriph_Driver/src/stm32f4xx_i2c.c ****   assert_param(IS_I2C_NACK_POSITION(I2C_NACKPosition));
 1598              		.loc 1 603 0 is_stmt 1
 1599 002e 7B88     		ldrh	r3, [r7, #2]
 1600 0030 B3F5006F 		cmp	r3, #2048
 1601 0034 09D0     		beq	.L102
 1602              		.loc 1 603 0 is_stmt 0 discriminator 1
 1603 0036 7A88     		ldrh	r2, [r7, #2]
 1604 0038 4FF2FF73 		movw	r3, #63487
 1605 003c 9A42     		cmp	r2, r3
 1606 003e 04D0     		beq	.L102
 1607 0040 1148     		ldr	r0, .L105+12
 1608 0042 40F25B21 		movw	r1, #603
 1609 0046 FFF7FEFF 		bl	assert_failed
 1610              	.L102:
 604:App/STM32F4-Discovery/Libraries/STM32F4xx_StdPeriph_Driver/src/stm32f4xx_i2c.c ****   
 605:App/STM32F4-Discovery/Libraries/STM32F4xx_StdPeriph_Driver/src/stm32f4xx_i2c.c ****   /* Check the input parameter */
 606:App/STM32F4-Discovery/Libraries/STM32F4xx_StdPeriph_Driver/src/stm32f4xx_i2c.c ****   if (I2C_NACKPosition == I2C_NACKPosition_Next)
 1611              		.loc 1 606 0 is_stmt 1
 1612 004a 7B88     		ldrh	r3, [r7, #2]
 1613 004c B3F5006F 		cmp	r3, #2048
 1614 0050 08D1     		bne	.L103
 607:App/STM32F4-Discovery/Libraries/STM32F4xx_StdPeriph_Driver/src/stm32f4xx_i2c.c ****   {
 608:App/STM32F4-Discovery/Libraries/STM32F4xx_StdPeriph_Driver/src/stm32f4xx_i2c.c ****     /* Next byte in shift register is the last received byte */
 609:App/STM32F4-Discovery/Libraries/STM32F4xx_StdPeriph_Driver/src/stm32f4xx_i2c.c ****     I2Cx->CR1 |= I2C_NACKPosition_Next;
 1615              		.loc 1 609 0
 1616 0052 7B68     		ldr	r3, [r7, #4]
 1617 0054 1B88     		ldrh	r3, [r3]	@ movhi
 1618 0056 9BB2     		uxth	r3, r3
 1619 0058 43F40063 		orr	r3, r3, #2048
 1620 005c 9AB2     		uxth	r2, r3
 1621 005e 7B68     		ldr	r3, [r7, #4]
 1622 0060 1A80     		strh	r2, [r3]	@ movhi
 1623 0062 07E0     		b	.L100
 1624              	.L103:
 610:App/STM32F4-Discovery/Libraries/STM32F4xx_StdPeriph_Driver/src/stm32f4xx_i2c.c ****   }
 611:App/STM32F4-Discovery/Libraries/STM32F4xx_StdPeriph_Driver/src/stm32f4xx_i2c.c ****   else
 612:App/STM32F4-Discovery/Libraries/STM32F4xx_StdPeriph_Driver/src/stm32f4xx_i2c.c ****   {
 613:App/STM32F4-Discovery/Libraries/STM32F4xx_StdPeriph_Driver/src/stm32f4xx_i2c.c ****     /* Current byte in shift register is the last received byte */
 614:App/STM32F4-Discovery/Libraries/STM32F4xx_StdPeriph_Driver/src/stm32f4xx_i2c.c ****     I2Cx->CR1 &= I2C_NACKPosition_Current;
 1625              		.loc 1 614 0
 1626 0064 7B68     		ldr	r3, [r7, #4]
 1627 0066 1B88     		ldrh	r3, [r3]	@ movhi
 1628 0068 9BB2     		uxth	r3, r3
 1629 006a 23F40063 		bic	r3, r3, #2048
 1630 006e 9AB2     		uxth	r2, r3
 1631 0070 7B68     		ldr	r3, [r7, #4]
 1632 0072 1A80     		strh	r2, [r3]	@ movhi
 1633              	.L100:
 615:App/STM32F4-Discovery/Libraries/STM32F4xx_StdPeriph_Driver/src/stm32f4xx_i2c.c ****   }
 616:App/STM32F4-Discovery/Libraries/STM32F4xx_StdPeriph_Driver/src/stm32f4xx_i2c.c **** }
 1634              		.loc 1 616 0
 1635 0074 0837     		adds	r7, r7, #8
 1636 0076 BD46     		mov	sp, r7
 1637              		@ sp needed
 1638 0078 80BD     		pop	{r7, pc}
 1639              	.L106:
 1640 007a 00BF     		.align	2
 1641              	.L105:
 1642 007c 00540040 		.word	1073763328
 1643 0080 00580040 		.word	1073764352
 1644 0084 005C0040 		.word	1073765376
 1645 0088 00000000 		.word	.LC0
 1646              		.cfi_endproc
 1647              	.LFE124:
 1649              		.section	.text.I2C_SMBusAlertConfig,"ax",%progbits
 1650              		.align	2
 1651              		.global	I2C_SMBusAlertConfig
 1652              		.thumb
 1653              		.thumb_func
 1655              	I2C_SMBusAlertConfig:
 1656              	.LFB125:
 617:App/STM32F4-Discovery/Libraries/STM32F4xx_StdPeriph_Driver/src/stm32f4xx_i2c.c **** 
 618:App/STM32F4-Discovery/Libraries/STM32F4xx_StdPeriph_Driver/src/stm32f4xx_i2c.c **** /**
 619:App/STM32F4-Discovery/Libraries/STM32F4xx_StdPeriph_Driver/src/stm32f4xx_i2c.c ****   * @brief  Drives the SMBusAlert pin high or low for the specified I2C.
 620:App/STM32F4-Discovery/Libraries/STM32F4xx_StdPeriph_Driver/src/stm32f4xx_i2c.c ****   * @param  I2Cx: where x can be 1, 2 or 3 to select the I2C peripheral.
 621:App/STM32F4-Discovery/Libraries/STM32F4xx_StdPeriph_Driver/src/stm32f4xx_i2c.c ****   * @param  I2C_SMBusAlert: specifies SMBAlert pin level. 
 622:App/STM32F4-Discovery/Libraries/STM32F4xx_StdPeriph_Driver/src/stm32f4xx_i2c.c ****   *          This parameter can be one of the following values:
 623:App/STM32F4-Discovery/Libraries/STM32F4xx_StdPeriph_Driver/src/stm32f4xx_i2c.c ****   *            @arg I2C_SMBusAlert_Low: SMBAlert pin driven low
 624:App/STM32F4-Discovery/Libraries/STM32F4xx_StdPeriph_Driver/src/stm32f4xx_i2c.c ****   *            @arg I2C_SMBusAlert_High: SMBAlert pin driven high
 625:App/STM32F4-Discovery/Libraries/STM32F4xx_StdPeriph_Driver/src/stm32f4xx_i2c.c ****   * @retval None
 626:App/STM32F4-Discovery/Libraries/STM32F4xx_StdPeriph_Driver/src/stm32f4xx_i2c.c ****   */
 627:App/STM32F4-Discovery/Libraries/STM32F4xx_StdPeriph_Driver/src/stm32f4xx_i2c.c **** void I2C_SMBusAlertConfig(I2C_TypeDef* I2Cx, uint16_t I2C_SMBusAlert)
 628:App/STM32F4-Discovery/Libraries/STM32F4xx_StdPeriph_Driver/src/stm32f4xx_i2c.c **** {
 1657              		.loc 1 628 0
 1658              		.cfi_startproc
 1659              		@ args = 0, pretend = 0, frame = 8
 1660              		@ frame_needed = 1, uses_anonymous_args = 0
 1661 0000 80B5     		push	{r7, lr}
 1662              	.LCFI45:
 1663              		.cfi_def_cfa_offset 8
 1664              		.cfi_offset 7, -8
 1665              		.cfi_offset 14, -4
 1666 0002 82B0     		sub	sp, sp, #8
 1667              	.LCFI46:
 1668              		.cfi_def_cfa_offset 16
 1669 0004 00AF     		add	r7, sp, #0
 1670              	.LCFI47:
 1671              		.cfi_def_cfa_register 7
 1672 0006 7860     		str	r0, [r7, #4]
 1673 0008 0B46     		mov	r3, r1
 1674 000a 7B80     		strh	r3, [r7, #2]	@ movhi
 629:App/STM32F4-Discovery/Libraries/STM32F4xx_StdPeriph_Driver/src/stm32f4xx_i2c.c ****   /* Check the parameters */
 630:App/STM32F4-Discovery/Libraries/STM32F4xx_StdPeriph_Driver/src/stm32f4xx_i2c.c ****   assert_param(IS_I2C_ALL_PERIPH(I2Cx));
 1675              		.loc 1 630 0
 1676 000c 7A68     		ldr	r2, [r7, #4]
 1677 000e 1B4B     		ldr	r3, .L112
 1678 0010 9A42     		cmp	r2, r3
 1679 0012 0CD0     		beq	.L108
 1680              		.loc 1 630 0 is_stmt 0 discriminator 1
 1681 0014 7A68     		ldr	r2, [r7, #4]
 1682 0016 1A4B     		ldr	r3, .L112+4
 1683 0018 9A42     		cmp	r2, r3
 1684 001a 08D0     		beq	.L108
 1685 001c 7A68     		ldr	r2, [r7, #4]
 1686 001e 194B     		ldr	r3, .L112+8
 1687 0020 9A42     		cmp	r2, r3
 1688 0022 04D0     		beq	.L108
 1689 0024 1848     		ldr	r0, .L112+12
 1690 0026 40F27621 		movw	r1, #630
 1691 002a FFF7FEFF 		bl	assert_failed
 1692              	.L108:
 631:App/STM32F4-Discovery/Libraries/STM32F4xx_StdPeriph_Driver/src/stm32f4xx_i2c.c ****   assert_param(IS_I2C_SMBUS_ALERT(I2C_SMBusAlert));
 1693              		.loc 1 631 0 is_stmt 1
 1694 002e 7B88     		ldrh	r3, [r7, #2]
 1695 0030 B3F5005F 		cmp	r3, #8192
 1696 0034 09D0     		beq	.L109
 1697              		.loc 1 631 0 is_stmt 0 discriminator 1
 1698 0036 7A88     		ldrh	r2, [r7, #2]
 1699 0038 4DF6FF73 		movw	r3, #57343
 1700 003c 9A42     		cmp	r2, r3
 1701 003e 04D0     		beq	.L109
 1702 0040 1148     		ldr	r0, .L112+12
 1703 0042 40F27721 		movw	r1, #631
 1704 0046 FFF7FEFF 		bl	assert_failed
 1705              	.L109:
 632:App/STM32F4-Discovery/Libraries/STM32F4xx_StdPeriph_Driver/src/stm32f4xx_i2c.c ****   if (I2C_SMBusAlert == I2C_SMBusAlert_Low)
 1706              		.loc 1 632 0 is_stmt 1
 1707 004a 7B88     		ldrh	r3, [r7, #2]
 1708 004c B3F5005F 		cmp	r3, #8192
 1709 0050 08D1     		bne	.L110
 633:App/STM32F4-Discovery/Libraries/STM32F4xx_StdPeriph_Driver/src/stm32f4xx_i2c.c ****   {
 634:App/STM32F4-Discovery/Libraries/STM32F4xx_StdPeriph_Driver/src/stm32f4xx_i2c.c ****     /* Drive the SMBusAlert pin Low */
 635:App/STM32F4-Discovery/Libraries/STM32F4xx_StdPeriph_Driver/src/stm32f4xx_i2c.c ****     I2Cx->CR1 |= I2C_SMBusAlert_Low;
 1710              		.loc 1 635 0
 1711 0052 7B68     		ldr	r3, [r7, #4]
 1712 0054 1B88     		ldrh	r3, [r3]	@ movhi
 1713 0056 9BB2     		uxth	r3, r3
 1714 0058 43F40053 		orr	r3, r3, #8192
 1715 005c 9AB2     		uxth	r2, r3
 1716 005e 7B68     		ldr	r3, [r7, #4]
 1717 0060 1A80     		strh	r2, [r3]	@ movhi
 1718 0062 07E0     		b	.L107
 1719              	.L110:
 636:App/STM32F4-Discovery/Libraries/STM32F4xx_StdPeriph_Driver/src/stm32f4xx_i2c.c ****   }
 637:App/STM32F4-Discovery/Libraries/STM32F4xx_StdPeriph_Driver/src/stm32f4xx_i2c.c ****   else
 638:App/STM32F4-Discovery/Libraries/STM32F4xx_StdPeriph_Driver/src/stm32f4xx_i2c.c ****   {
 639:App/STM32F4-Discovery/Libraries/STM32F4xx_StdPeriph_Driver/src/stm32f4xx_i2c.c ****     /* Drive the SMBusAlert pin High  */
 640:App/STM32F4-Discovery/Libraries/STM32F4xx_StdPeriph_Driver/src/stm32f4xx_i2c.c ****     I2Cx->CR1 &= I2C_SMBusAlert_High;
 1720              		.loc 1 640 0
 1721 0064 7B68     		ldr	r3, [r7, #4]
 1722 0066 1B88     		ldrh	r3, [r3]	@ movhi
 1723 0068 9BB2     		uxth	r3, r3
 1724 006a 23F40053 		bic	r3, r3, #8192
 1725 006e 9AB2     		uxth	r2, r3
 1726 0070 7B68     		ldr	r3, [r7, #4]
 1727 0072 1A80     		strh	r2, [r3]	@ movhi
 1728              	.L107:
 641:App/STM32F4-Discovery/Libraries/STM32F4xx_StdPeriph_Driver/src/stm32f4xx_i2c.c ****   }
 642:App/STM32F4-Discovery/Libraries/STM32F4xx_StdPeriph_Driver/src/stm32f4xx_i2c.c **** }
 1729              		.loc 1 642 0
 1730 0074 0837     		adds	r7, r7, #8
 1731 0076 BD46     		mov	sp, r7
 1732              		@ sp needed
 1733 0078 80BD     		pop	{r7, pc}
 1734              	.L113:
 1735 007a 00BF     		.align	2
 1736              	.L112:
 1737 007c 00540040 		.word	1073763328
 1738 0080 00580040 		.word	1073764352
 1739 0084 005C0040 		.word	1073765376
 1740 0088 00000000 		.word	.LC0
 1741              		.cfi_endproc
 1742              	.LFE125:
 1744              		.section	.text.I2C_ARPCmd,"ax",%progbits
 1745              		.align	2
 1746              		.global	I2C_ARPCmd
 1747              		.thumb
 1748              		.thumb_func
 1750              	I2C_ARPCmd:
 1751              	.LFB126:
 643:App/STM32F4-Discovery/Libraries/STM32F4xx_StdPeriph_Driver/src/stm32f4xx_i2c.c **** 
 644:App/STM32F4-Discovery/Libraries/STM32F4xx_StdPeriph_Driver/src/stm32f4xx_i2c.c **** /**
 645:App/STM32F4-Discovery/Libraries/STM32F4xx_StdPeriph_Driver/src/stm32f4xx_i2c.c ****   * @brief  Enables or disables the specified I2C ARP.
 646:App/STM32F4-Discovery/Libraries/STM32F4xx_StdPeriph_Driver/src/stm32f4xx_i2c.c ****   * @param  I2Cx: where x can be 1, 2 or 3 to select the I2C peripheral.
 647:App/STM32F4-Discovery/Libraries/STM32F4xx_StdPeriph_Driver/src/stm32f4xx_i2c.c ****   * @param  NewState: new state of the I2Cx ARP. 
 648:App/STM32F4-Discovery/Libraries/STM32F4xx_StdPeriph_Driver/src/stm32f4xx_i2c.c ****   *          This parameter can be: ENABLE or DISABLE.
 649:App/STM32F4-Discovery/Libraries/STM32F4xx_StdPeriph_Driver/src/stm32f4xx_i2c.c ****   * @retval None
 650:App/STM32F4-Discovery/Libraries/STM32F4xx_StdPeriph_Driver/src/stm32f4xx_i2c.c ****   */
 651:App/STM32F4-Discovery/Libraries/STM32F4xx_StdPeriph_Driver/src/stm32f4xx_i2c.c **** void I2C_ARPCmd(I2C_TypeDef* I2Cx, FunctionalState NewState)
 652:App/STM32F4-Discovery/Libraries/STM32F4xx_StdPeriph_Driver/src/stm32f4xx_i2c.c **** {
 1752              		.loc 1 652 0
 1753              		.cfi_startproc
 1754              		@ args = 0, pretend = 0, frame = 8
 1755              		@ frame_needed = 1, uses_anonymous_args = 0
 1756 0000 80B5     		push	{r7, lr}
 1757              	.LCFI48:
 1758              		.cfi_def_cfa_offset 8
 1759              		.cfi_offset 7, -8
 1760              		.cfi_offset 14, -4
 1761 0002 82B0     		sub	sp, sp, #8
 1762              	.LCFI49:
 1763              		.cfi_def_cfa_offset 16
 1764 0004 00AF     		add	r7, sp, #0
 1765              	.LCFI50:
 1766              		.cfi_def_cfa_register 7
 1767 0006 7860     		str	r0, [r7, #4]
 1768 0008 0B46     		mov	r3, r1
 1769 000a FB70     		strb	r3, [r7, #3]
 653:App/STM32F4-Discovery/Libraries/STM32F4xx_StdPeriph_Driver/src/stm32f4xx_i2c.c ****   /* Check the parameters */
 654:App/STM32F4-Discovery/Libraries/STM32F4xx_StdPeriph_Driver/src/stm32f4xx_i2c.c ****   assert_param(IS_I2C_ALL_PERIPH(I2Cx));
 1770              		.loc 1 654 0
 1771 000c 7A68     		ldr	r2, [r7, #4]
 1772 000e 194B     		ldr	r3, .L119
 1773 0010 9A42     		cmp	r2, r3
 1774 0012 0CD0     		beq	.L115
 1775              		.loc 1 654 0 is_stmt 0 discriminator 1
 1776 0014 7A68     		ldr	r2, [r7, #4]
 1777 0016 184B     		ldr	r3, .L119+4
 1778 0018 9A42     		cmp	r2, r3
 1779 001a 08D0     		beq	.L115
 1780 001c 7A68     		ldr	r2, [r7, #4]
 1781 001e 174B     		ldr	r3, .L119+8
 1782 0020 9A42     		cmp	r2, r3
 1783 0022 04D0     		beq	.L115
 1784 0024 1648     		ldr	r0, .L119+12
 1785 0026 40F28E21 		movw	r1, #654
 1786 002a FFF7FEFF 		bl	assert_failed
 1787              	.L115:
 655:App/STM32F4-Discovery/Libraries/STM32F4xx_StdPeriph_Driver/src/stm32f4xx_i2c.c ****   assert_param(IS_FUNCTIONAL_STATE(NewState));
 1788              		.loc 1 655 0 is_stmt 1
 1789 002e FB78     		ldrb	r3, [r7, #3]	@ zero_extendqisi2
 1790 0030 002B     		cmp	r3, #0
 1791 0032 07D0     		beq	.L116
 1792              		.loc 1 655 0 is_stmt 0 discriminator 1
 1793 0034 FB78     		ldrb	r3, [r7, #3]	@ zero_extendqisi2
 1794 0036 012B     		cmp	r3, #1
 1795 0038 04D0     		beq	.L116
 1796 003a 1148     		ldr	r0, .L119+12
 1797 003c 40F28F21 		movw	r1, #655
 1798 0040 FFF7FEFF 		bl	assert_failed
 1799              	.L116:
 656:App/STM32F4-Discovery/Libraries/STM32F4xx_StdPeriph_Driver/src/stm32f4xx_i2c.c ****   if (NewState != DISABLE)
 1800              		.loc 1 656 0 is_stmt 1
 1801 0044 FB78     		ldrb	r3, [r7, #3]	@ zero_extendqisi2
 1802 0046 002B     		cmp	r3, #0
 1803 0048 08D0     		beq	.L117
 657:App/STM32F4-Discovery/Libraries/STM32F4xx_StdPeriph_Driver/src/stm32f4xx_i2c.c ****   {
 658:App/STM32F4-Discovery/Libraries/STM32F4xx_StdPeriph_Driver/src/stm32f4xx_i2c.c ****     /* Enable the selected I2C ARP */
 659:App/STM32F4-Discovery/Libraries/STM32F4xx_StdPeriph_Driver/src/stm32f4xx_i2c.c ****     I2Cx->CR1 |= I2C_CR1_ENARP;
 1804              		.loc 1 659 0
 1805 004a 7B68     		ldr	r3, [r7, #4]
 1806 004c 1B88     		ldrh	r3, [r3]	@ movhi
 1807 004e 9BB2     		uxth	r3, r3
 1808 0050 43F01003 		orr	r3, r3, #16
 1809 0054 9AB2     		uxth	r2, r3
 1810 0056 7B68     		ldr	r3, [r7, #4]
 1811 0058 1A80     		strh	r2, [r3]	@ movhi
 1812 005a 07E0     		b	.L114
 1813              	.L117:
 660:App/STM32F4-Discovery/Libraries/STM32F4xx_StdPeriph_Driver/src/stm32f4xx_i2c.c ****   }
 661:App/STM32F4-Discovery/Libraries/STM32F4xx_StdPeriph_Driver/src/stm32f4xx_i2c.c ****   else
 662:App/STM32F4-Discovery/Libraries/STM32F4xx_StdPeriph_Driver/src/stm32f4xx_i2c.c ****   {
 663:App/STM32F4-Discovery/Libraries/STM32F4xx_StdPeriph_Driver/src/stm32f4xx_i2c.c ****     /* Disable the selected I2C ARP */
 664:App/STM32F4-Discovery/Libraries/STM32F4xx_StdPeriph_Driver/src/stm32f4xx_i2c.c ****     I2Cx->CR1 &= (uint16_t)~((uint16_t)I2C_CR1_ENARP);
 1814              		.loc 1 664 0
 1815 005c 7B68     		ldr	r3, [r7, #4]
 1816 005e 1B88     		ldrh	r3, [r3]	@ movhi
 1817 0060 9BB2     		uxth	r3, r3
 1818 0062 23F01003 		bic	r3, r3, #16
 1819 0066 9AB2     		uxth	r2, r3
 1820 0068 7B68     		ldr	r3, [r7, #4]
 1821 006a 1A80     		strh	r2, [r3]	@ movhi
 1822              	.L114:
 665:App/STM32F4-Discovery/Libraries/STM32F4xx_StdPeriph_Driver/src/stm32f4xx_i2c.c ****   }
 666:App/STM32F4-Discovery/Libraries/STM32F4xx_StdPeriph_Driver/src/stm32f4xx_i2c.c **** }
 1823              		.loc 1 666 0
 1824 006c 0837     		adds	r7, r7, #8
 1825 006e BD46     		mov	sp, r7
 1826              		@ sp needed
 1827 0070 80BD     		pop	{r7, pc}
 1828              	.L120:
 1829 0072 00BF     		.align	2
 1830              	.L119:
 1831 0074 00540040 		.word	1073763328
 1832 0078 00580040 		.word	1073764352
 1833 007c 005C0040 		.word	1073765376
 1834 0080 00000000 		.word	.LC0
 1835              		.cfi_endproc
 1836              	.LFE126:
 1838              		.section	.text.I2C_SendData,"ax",%progbits
 1839              		.align	2
 1840              		.global	I2C_SendData
 1841              		.thumb
 1842              		.thumb_func
 1844              	I2C_SendData:
 1845              	.LFB127:
 667:App/STM32F4-Discovery/Libraries/STM32F4xx_StdPeriph_Driver/src/stm32f4xx_i2c.c **** /**
 668:App/STM32F4-Discovery/Libraries/STM32F4xx_StdPeriph_Driver/src/stm32f4xx_i2c.c ****   * @}
 669:App/STM32F4-Discovery/Libraries/STM32F4xx_StdPeriph_Driver/src/stm32f4xx_i2c.c ****   */
 670:App/STM32F4-Discovery/Libraries/STM32F4xx_StdPeriph_Driver/src/stm32f4xx_i2c.c **** 
 671:App/STM32F4-Discovery/Libraries/STM32F4xx_StdPeriph_Driver/src/stm32f4xx_i2c.c **** /** @defgroup I2C_Group2 Data transfers functions
 672:App/STM32F4-Discovery/Libraries/STM32F4xx_StdPeriph_Driver/src/stm32f4xx_i2c.c ****  *  @brief   Data transfers functions 
 673:App/STM32F4-Discovery/Libraries/STM32F4xx_StdPeriph_Driver/src/stm32f4xx_i2c.c ****  *
 674:App/STM32F4-Discovery/Libraries/STM32F4xx_StdPeriph_Driver/src/stm32f4xx_i2c.c **** @verbatim   
 675:App/STM32F4-Discovery/Libraries/STM32F4xx_StdPeriph_Driver/src/stm32f4xx_i2c.c ****  ===============================================================================
 676:App/STM32F4-Discovery/Libraries/STM32F4xx_StdPeriph_Driver/src/stm32f4xx_i2c.c ****                         Data transfers functions
 677:App/STM32F4-Discovery/Libraries/STM32F4xx_StdPeriph_Driver/src/stm32f4xx_i2c.c ****  ===============================================================================  
 678:App/STM32F4-Discovery/Libraries/STM32F4xx_StdPeriph_Driver/src/stm32f4xx_i2c.c **** 
 679:App/STM32F4-Discovery/Libraries/STM32F4xx_StdPeriph_Driver/src/stm32f4xx_i2c.c **** @endverbatim
 680:App/STM32F4-Discovery/Libraries/STM32F4xx_StdPeriph_Driver/src/stm32f4xx_i2c.c ****   * @{
 681:App/STM32F4-Discovery/Libraries/STM32F4xx_StdPeriph_Driver/src/stm32f4xx_i2c.c ****   */
 682:App/STM32F4-Discovery/Libraries/STM32F4xx_StdPeriph_Driver/src/stm32f4xx_i2c.c **** 
 683:App/STM32F4-Discovery/Libraries/STM32F4xx_StdPeriph_Driver/src/stm32f4xx_i2c.c **** /**
 684:App/STM32F4-Discovery/Libraries/STM32F4xx_StdPeriph_Driver/src/stm32f4xx_i2c.c ****   * @brief  Sends a data byte through the I2Cx peripheral.
 685:App/STM32F4-Discovery/Libraries/STM32F4xx_StdPeriph_Driver/src/stm32f4xx_i2c.c ****   * @param  I2Cx: where x can be 1, 2 or 3 to select the I2C peripheral.
 686:App/STM32F4-Discovery/Libraries/STM32F4xx_StdPeriph_Driver/src/stm32f4xx_i2c.c ****   * @param  Data: Byte to be transmitted..
 687:App/STM32F4-Discovery/Libraries/STM32F4xx_StdPeriph_Driver/src/stm32f4xx_i2c.c ****   * @retval None
 688:App/STM32F4-Discovery/Libraries/STM32F4xx_StdPeriph_Driver/src/stm32f4xx_i2c.c ****   */
 689:App/STM32F4-Discovery/Libraries/STM32F4xx_StdPeriph_Driver/src/stm32f4xx_i2c.c **** void I2C_SendData(I2C_TypeDef* I2Cx, uint8_t Data)
 690:App/STM32F4-Discovery/Libraries/STM32F4xx_StdPeriph_Driver/src/stm32f4xx_i2c.c **** {
 1846              		.loc 1 690 0
 1847              		.cfi_startproc
 1848              		@ args = 0, pretend = 0, frame = 8
 1849              		@ frame_needed = 1, uses_anonymous_args = 0
 1850 0000 80B5     		push	{r7, lr}
 1851              	.LCFI51:
 1852              		.cfi_def_cfa_offset 8
 1853              		.cfi_offset 7, -8
 1854              		.cfi_offset 14, -4
 1855 0002 82B0     		sub	sp, sp, #8
 1856              	.LCFI52:
 1857              		.cfi_def_cfa_offset 16
 1858 0004 00AF     		add	r7, sp, #0
 1859              	.LCFI53:
 1860              		.cfi_def_cfa_register 7
 1861 0006 7860     		str	r0, [r7, #4]
 1862 0008 0B46     		mov	r3, r1
 1863 000a FB70     		strb	r3, [r7, #3]
 691:App/STM32F4-Discovery/Libraries/STM32F4xx_StdPeriph_Driver/src/stm32f4xx_i2c.c ****   /* Check the parameters */
 692:App/STM32F4-Discovery/Libraries/STM32F4xx_StdPeriph_Driver/src/stm32f4xx_i2c.c ****   assert_param(IS_I2C_ALL_PERIPH(I2Cx));
 1864              		.loc 1 692 0
 1865 000c 7A68     		ldr	r2, [r7, #4]
 1866 000e 0B4B     		ldr	r3, .L123
 1867 0010 9A42     		cmp	r2, r3
 1868 0012 0CD0     		beq	.L122
 1869              		.loc 1 692 0 is_stmt 0 discriminator 1
 1870 0014 7A68     		ldr	r2, [r7, #4]
 1871 0016 0A4B     		ldr	r3, .L123+4
 1872 0018 9A42     		cmp	r2, r3
 1873 001a 08D0     		beq	.L122
 1874 001c 7A68     		ldr	r2, [r7, #4]
 1875 001e 094B     		ldr	r3, .L123+8
 1876 0020 9A42     		cmp	r2, r3
 1877 0022 04D0     		beq	.L122
 1878 0024 0848     		ldr	r0, .L123+12
 1879 0026 4FF42D71 		mov	r1, #692
 1880 002a FFF7FEFF 		bl	assert_failed
 1881              	.L122:
 693:App/STM32F4-Discovery/Libraries/STM32F4xx_StdPeriph_Driver/src/stm32f4xx_i2c.c ****   /* Write in the DR register the data to be sent */
 694:App/STM32F4-Discovery/Libraries/STM32F4xx_StdPeriph_Driver/src/stm32f4xx_i2c.c ****   I2Cx->DR = Data;
 1882              		.loc 1 694 0 is_stmt 1
 1883 002e FB78     		ldrb	r3, [r7, #3]	@ zero_extendqisi2
 1884 0030 9AB2     		uxth	r2, r3
 1885 0032 7B68     		ldr	r3, [r7, #4]
 1886 0034 1A82     		strh	r2, [r3, #16]	@ movhi
 695:App/STM32F4-Discovery/Libraries/STM32F4xx_StdPeriph_Driver/src/stm32f4xx_i2c.c **** }
 1887              		.loc 1 695 0
 1888 0036 0837     		adds	r7, r7, #8
 1889 0038 BD46     		mov	sp, r7
 1890              		@ sp needed
 1891 003a 80BD     		pop	{r7, pc}
 1892              	.L124:
 1893              		.align	2
 1894              	.L123:
 1895 003c 00540040 		.word	1073763328
 1896 0040 00580040 		.word	1073764352
 1897 0044 005C0040 		.word	1073765376
 1898 0048 00000000 		.word	.LC0
 1899              		.cfi_endproc
 1900              	.LFE127:
 1902              		.section	.text.I2C_ReceiveData,"ax",%progbits
 1903              		.align	2
 1904              		.global	I2C_ReceiveData
 1905              		.thumb
 1906              		.thumb_func
 1908              	I2C_ReceiveData:
 1909              	.LFB128:
 696:App/STM32F4-Discovery/Libraries/STM32F4xx_StdPeriph_Driver/src/stm32f4xx_i2c.c **** 
 697:App/STM32F4-Discovery/Libraries/STM32F4xx_StdPeriph_Driver/src/stm32f4xx_i2c.c **** /**
 698:App/STM32F4-Discovery/Libraries/STM32F4xx_StdPeriph_Driver/src/stm32f4xx_i2c.c ****   * @brief  Returns the most recent received data by the I2Cx peripheral.
 699:App/STM32F4-Discovery/Libraries/STM32F4xx_StdPeriph_Driver/src/stm32f4xx_i2c.c ****   * @param  I2Cx: where x can be 1, 2 or 3 to select the I2C peripheral.
 700:App/STM32F4-Discovery/Libraries/STM32F4xx_StdPeriph_Driver/src/stm32f4xx_i2c.c ****   * @retval The value of the received data.
 701:App/STM32F4-Discovery/Libraries/STM32F4xx_StdPeriph_Driver/src/stm32f4xx_i2c.c ****   */
 702:App/STM32F4-Discovery/Libraries/STM32F4xx_StdPeriph_Driver/src/stm32f4xx_i2c.c **** uint8_t I2C_ReceiveData(I2C_TypeDef* I2Cx)
 703:App/STM32F4-Discovery/Libraries/STM32F4xx_StdPeriph_Driver/src/stm32f4xx_i2c.c **** {
 1910              		.loc 1 703 0
 1911              		.cfi_startproc
 1912              		@ args = 0, pretend = 0, frame = 8
 1913              		@ frame_needed = 1, uses_anonymous_args = 0
 1914 0000 80B5     		push	{r7, lr}
 1915              	.LCFI54:
 1916              		.cfi_def_cfa_offset 8
 1917              		.cfi_offset 7, -8
 1918              		.cfi_offset 14, -4
 1919 0002 82B0     		sub	sp, sp, #8
 1920              	.LCFI55:
 1921              		.cfi_def_cfa_offset 16
 1922 0004 00AF     		add	r7, sp, #0
 1923              	.LCFI56:
 1924              		.cfi_def_cfa_register 7
 1925 0006 7860     		str	r0, [r7, #4]
 704:App/STM32F4-Discovery/Libraries/STM32F4xx_StdPeriph_Driver/src/stm32f4xx_i2c.c ****   /* Check the parameters */
 705:App/STM32F4-Discovery/Libraries/STM32F4xx_StdPeriph_Driver/src/stm32f4xx_i2c.c ****   assert_param(IS_I2C_ALL_PERIPH(I2Cx));
 1926              		.loc 1 705 0
 1927 0008 7A68     		ldr	r2, [r7, #4]
 1928 000a 0C4B     		ldr	r3, .L128
 1929 000c 9A42     		cmp	r2, r3
 1930 000e 0CD0     		beq	.L126
 1931              		.loc 1 705 0 is_stmt 0 discriminator 1
 1932 0010 7A68     		ldr	r2, [r7, #4]
 1933 0012 0B4B     		ldr	r3, .L128+4
 1934 0014 9A42     		cmp	r2, r3
 1935 0016 08D0     		beq	.L126
 1936 0018 7A68     		ldr	r2, [r7, #4]
 1937 001a 0A4B     		ldr	r3, .L128+8
 1938 001c 9A42     		cmp	r2, r3
 1939 001e 04D0     		beq	.L126
 1940 0020 0948     		ldr	r0, .L128+12
 1941 0022 40F2C121 		movw	r1, #705
 1942 0026 FFF7FEFF 		bl	assert_failed
 1943              	.L126:
 706:App/STM32F4-Discovery/Libraries/STM32F4xx_StdPeriph_Driver/src/stm32f4xx_i2c.c ****   /* Return the data in the DR register */
 707:App/STM32F4-Discovery/Libraries/STM32F4xx_StdPeriph_Driver/src/stm32f4xx_i2c.c ****   return (uint8_t)I2Cx->DR;
 1944              		.loc 1 707 0 is_stmt 1
 1945 002a 7B68     		ldr	r3, [r7, #4]
 1946 002c 1B8A     		ldrh	r3, [r3, #16]	@ movhi
 1947 002e 9BB2     		uxth	r3, r3
 1948 0030 DBB2     		uxtb	r3, r3
 708:App/STM32F4-Discovery/Libraries/STM32F4xx_StdPeriph_Driver/src/stm32f4xx_i2c.c **** }
 1949              		.loc 1 708 0
 1950 0032 1846     		mov	r0, r3
 1951 0034 0837     		adds	r7, r7, #8
 1952 0036 BD46     		mov	sp, r7
 1953              		@ sp needed
 1954 0038 80BD     		pop	{r7, pc}
 1955              	.L129:
 1956 003a 00BF     		.align	2
 1957              	.L128:
 1958 003c 00540040 		.word	1073763328
 1959 0040 00580040 		.word	1073764352
 1960 0044 005C0040 		.word	1073765376
 1961 0048 00000000 		.word	.LC0
 1962              		.cfi_endproc
 1963              	.LFE128:
 1965              		.section	.text.I2C_TransmitPEC,"ax",%progbits
 1966              		.align	2
 1967              		.global	I2C_TransmitPEC
 1968              		.thumb
 1969              		.thumb_func
 1971              	I2C_TransmitPEC:
 1972              	.LFB129:
 709:App/STM32F4-Discovery/Libraries/STM32F4xx_StdPeriph_Driver/src/stm32f4xx_i2c.c **** 
 710:App/STM32F4-Discovery/Libraries/STM32F4xx_StdPeriph_Driver/src/stm32f4xx_i2c.c **** /**
 711:App/STM32F4-Discovery/Libraries/STM32F4xx_StdPeriph_Driver/src/stm32f4xx_i2c.c ****   * @}
 712:App/STM32F4-Discovery/Libraries/STM32F4xx_StdPeriph_Driver/src/stm32f4xx_i2c.c ****   */
 713:App/STM32F4-Discovery/Libraries/STM32F4xx_StdPeriph_Driver/src/stm32f4xx_i2c.c **** 
 714:App/STM32F4-Discovery/Libraries/STM32F4xx_StdPeriph_Driver/src/stm32f4xx_i2c.c **** /** @defgroup I2C_Group3 PEC management functions
 715:App/STM32F4-Discovery/Libraries/STM32F4xx_StdPeriph_Driver/src/stm32f4xx_i2c.c ****  *  @brief   PEC management functions 
 716:App/STM32F4-Discovery/Libraries/STM32F4xx_StdPeriph_Driver/src/stm32f4xx_i2c.c ****  *
 717:App/STM32F4-Discovery/Libraries/STM32F4xx_StdPeriph_Driver/src/stm32f4xx_i2c.c **** @verbatim   
 718:App/STM32F4-Discovery/Libraries/STM32F4xx_StdPeriph_Driver/src/stm32f4xx_i2c.c ****  ===============================================================================
 719:App/STM32F4-Discovery/Libraries/STM32F4xx_StdPeriph_Driver/src/stm32f4xx_i2c.c ****                          PEC management functions
 720:App/STM32F4-Discovery/Libraries/STM32F4xx_StdPeriph_Driver/src/stm32f4xx_i2c.c ****  ===============================================================================  
 721:App/STM32F4-Discovery/Libraries/STM32F4xx_StdPeriph_Driver/src/stm32f4xx_i2c.c **** 
 722:App/STM32F4-Discovery/Libraries/STM32F4xx_StdPeriph_Driver/src/stm32f4xx_i2c.c **** @endverbatim
 723:App/STM32F4-Discovery/Libraries/STM32F4xx_StdPeriph_Driver/src/stm32f4xx_i2c.c ****   * @{
 724:App/STM32F4-Discovery/Libraries/STM32F4xx_StdPeriph_Driver/src/stm32f4xx_i2c.c ****   */
 725:App/STM32F4-Discovery/Libraries/STM32F4xx_StdPeriph_Driver/src/stm32f4xx_i2c.c **** 
 726:App/STM32F4-Discovery/Libraries/STM32F4xx_StdPeriph_Driver/src/stm32f4xx_i2c.c **** /**
 727:App/STM32F4-Discovery/Libraries/STM32F4xx_StdPeriph_Driver/src/stm32f4xx_i2c.c ****   * @brief  Enables or disables the specified I2C PEC transfer.
 728:App/STM32F4-Discovery/Libraries/STM32F4xx_StdPeriph_Driver/src/stm32f4xx_i2c.c ****   * @param  I2Cx: where x can be 1, 2 or 3 to select the I2C peripheral.
 729:App/STM32F4-Discovery/Libraries/STM32F4xx_StdPeriph_Driver/src/stm32f4xx_i2c.c ****   * @param  NewState: new state of the I2C PEC transmission.
 730:App/STM32F4-Discovery/Libraries/STM32F4xx_StdPeriph_Driver/src/stm32f4xx_i2c.c ****   *          This parameter can be: ENABLE or DISABLE.
 731:App/STM32F4-Discovery/Libraries/STM32F4xx_StdPeriph_Driver/src/stm32f4xx_i2c.c ****   * @retval None
 732:App/STM32F4-Discovery/Libraries/STM32F4xx_StdPeriph_Driver/src/stm32f4xx_i2c.c ****   */
 733:App/STM32F4-Discovery/Libraries/STM32F4xx_StdPeriph_Driver/src/stm32f4xx_i2c.c **** void I2C_TransmitPEC(I2C_TypeDef* I2Cx, FunctionalState NewState)
 734:App/STM32F4-Discovery/Libraries/STM32F4xx_StdPeriph_Driver/src/stm32f4xx_i2c.c **** {
 1973              		.loc 1 734 0
 1974              		.cfi_startproc
 1975              		@ args = 0, pretend = 0, frame = 8
 1976              		@ frame_needed = 1, uses_anonymous_args = 0
 1977 0000 80B5     		push	{r7, lr}
 1978              	.LCFI57:
 1979              		.cfi_def_cfa_offset 8
 1980              		.cfi_offset 7, -8
 1981              		.cfi_offset 14, -4
 1982 0002 82B0     		sub	sp, sp, #8
 1983              	.LCFI58:
 1984              		.cfi_def_cfa_offset 16
 1985 0004 00AF     		add	r7, sp, #0
 1986              	.LCFI59:
 1987              		.cfi_def_cfa_register 7
 1988 0006 7860     		str	r0, [r7, #4]
 1989 0008 0B46     		mov	r3, r1
 1990 000a FB70     		strb	r3, [r7, #3]
 735:App/STM32F4-Discovery/Libraries/STM32F4xx_StdPeriph_Driver/src/stm32f4xx_i2c.c ****   /* Check the parameters */
 736:App/STM32F4-Discovery/Libraries/STM32F4xx_StdPeriph_Driver/src/stm32f4xx_i2c.c ****   assert_param(IS_I2C_ALL_PERIPH(I2Cx));
 1991              		.loc 1 736 0
 1992 000c 7A68     		ldr	r2, [r7, #4]
 1993 000e 194B     		ldr	r3, .L135
 1994 0010 9A42     		cmp	r2, r3
 1995 0012 0CD0     		beq	.L131
 1996              		.loc 1 736 0 is_stmt 0 discriminator 1
 1997 0014 7A68     		ldr	r2, [r7, #4]
 1998 0016 184B     		ldr	r3, .L135+4
 1999 0018 9A42     		cmp	r2, r3
 2000 001a 08D0     		beq	.L131
 2001 001c 7A68     		ldr	r2, [r7, #4]
 2002 001e 174B     		ldr	r3, .L135+8
 2003 0020 9A42     		cmp	r2, r3
 2004 0022 04D0     		beq	.L131
 2005 0024 1648     		ldr	r0, .L135+12
 2006 0026 4FF43871 		mov	r1, #736
 2007 002a FFF7FEFF 		bl	assert_failed
 2008              	.L131:
 737:App/STM32F4-Discovery/Libraries/STM32F4xx_StdPeriph_Driver/src/stm32f4xx_i2c.c ****   assert_param(IS_FUNCTIONAL_STATE(NewState));
 2009              		.loc 1 737 0 is_stmt 1
 2010 002e FB78     		ldrb	r3, [r7, #3]	@ zero_extendqisi2
 2011 0030 002B     		cmp	r3, #0
 2012 0032 07D0     		beq	.L132
 2013              		.loc 1 737 0 is_stmt 0 discriminator 1
 2014 0034 FB78     		ldrb	r3, [r7, #3]	@ zero_extendqisi2
 2015 0036 012B     		cmp	r3, #1
 2016 0038 04D0     		beq	.L132
 2017 003a 1148     		ldr	r0, .L135+12
 2018 003c 40F2E121 		movw	r1, #737
 2019 0040 FFF7FEFF 		bl	assert_failed
 2020              	.L132:
 738:App/STM32F4-Discovery/Libraries/STM32F4xx_StdPeriph_Driver/src/stm32f4xx_i2c.c ****   if (NewState != DISABLE)
 2021              		.loc 1 738 0 is_stmt 1
 2022 0044 FB78     		ldrb	r3, [r7, #3]	@ zero_extendqisi2
 2023 0046 002B     		cmp	r3, #0
 2024 0048 08D0     		beq	.L133
 739:App/STM32F4-Discovery/Libraries/STM32F4xx_StdPeriph_Driver/src/stm32f4xx_i2c.c ****   {
 740:App/STM32F4-Discovery/Libraries/STM32F4xx_StdPeriph_Driver/src/stm32f4xx_i2c.c ****     /* Enable the selected I2C PEC transmission */
 741:App/STM32F4-Discovery/Libraries/STM32F4xx_StdPeriph_Driver/src/stm32f4xx_i2c.c ****     I2Cx->CR1 |= I2C_CR1_PEC;
 2025              		.loc 1 741 0
 2026 004a 7B68     		ldr	r3, [r7, #4]
 2027 004c 1B88     		ldrh	r3, [r3]	@ movhi
 2028 004e 9BB2     		uxth	r3, r3
 2029 0050 43F48053 		orr	r3, r3, #4096
 2030 0054 9AB2     		uxth	r2, r3
 2031 0056 7B68     		ldr	r3, [r7, #4]
 2032 0058 1A80     		strh	r2, [r3]	@ movhi
 2033 005a 07E0     		b	.L130
 2034              	.L133:
 742:App/STM32F4-Discovery/Libraries/STM32F4xx_StdPeriph_Driver/src/stm32f4xx_i2c.c ****   }
 743:App/STM32F4-Discovery/Libraries/STM32F4xx_StdPeriph_Driver/src/stm32f4xx_i2c.c ****   else
 744:App/STM32F4-Discovery/Libraries/STM32F4xx_StdPeriph_Driver/src/stm32f4xx_i2c.c ****   {
 745:App/STM32F4-Discovery/Libraries/STM32F4xx_StdPeriph_Driver/src/stm32f4xx_i2c.c ****     /* Disable the selected I2C PEC transmission */
 746:App/STM32F4-Discovery/Libraries/STM32F4xx_StdPeriph_Driver/src/stm32f4xx_i2c.c ****     I2Cx->CR1 &= (uint16_t)~((uint16_t)I2C_CR1_PEC);
 2035              		.loc 1 746 0
 2036 005c 7B68     		ldr	r3, [r7, #4]
 2037 005e 1B88     		ldrh	r3, [r3]	@ movhi
 2038 0060 9BB2     		uxth	r3, r3
 2039 0062 23F48053 		bic	r3, r3, #4096
 2040 0066 9AB2     		uxth	r2, r3
 2041 0068 7B68     		ldr	r3, [r7, #4]
 2042 006a 1A80     		strh	r2, [r3]	@ movhi
 2043              	.L130:
 747:App/STM32F4-Discovery/Libraries/STM32F4xx_StdPeriph_Driver/src/stm32f4xx_i2c.c ****   }
 748:App/STM32F4-Discovery/Libraries/STM32F4xx_StdPeriph_Driver/src/stm32f4xx_i2c.c **** }
 2044              		.loc 1 748 0
 2045 006c 0837     		adds	r7, r7, #8
 2046 006e BD46     		mov	sp, r7
 2047              		@ sp needed
 2048 0070 80BD     		pop	{r7, pc}
 2049              	.L136:
 2050 0072 00BF     		.align	2
 2051              	.L135:
 2052 0074 00540040 		.word	1073763328
 2053 0078 00580040 		.word	1073764352
 2054 007c 005C0040 		.word	1073765376
 2055 0080 00000000 		.word	.LC0
 2056              		.cfi_endproc
 2057              	.LFE129:
 2059              		.section	.text.I2C_PECPositionConfig,"ax",%progbits
 2060              		.align	2
 2061              		.global	I2C_PECPositionConfig
 2062              		.thumb
 2063              		.thumb_func
 2065              	I2C_PECPositionConfig:
 2066              	.LFB130:
 749:App/STM32F4-Discovery/Libraries/STM32F4xx_StdPeriph_Driver/src/stm32f4xx_i2c.c **** 
 750:App/STM32F4-Discovery/Libraries/STM32F4xx_StdPeriph_Driver/src/stm32f4xx_i2c.c **** /**
 751:App/STM32F4-Discovery/Libraries/STM32F4xx_StdPeriph_Driver/src/stm32f4xx_i2c.c ****   * @brief  Selects the specified I2C PEC position.
 752:App/STM32F4-Discovery/Libraries/STM32F4xx_StdPeriph_Driver/src/stm32f4xx_i2c.c ****   * @param  I2Cx: where x can be 1, 2 or 3 to select the I2C peripheral.
 753:App/STM32F4-Discovery/Libraries/STM32F4xx_StdPeriph_Driver/src/stm32f4xx_i2c.c ****   * @param  I2C_PECPosition: specifies the PEC position. 
 754:App/STM32F4-Discovery/Libraries/STM32F4xx_StdPeriph_Driver/src/stm32f4xx_i2c.c ****   *          This parameter can be one of the following values:
 755:App/STM32F4-Discovery/Libraries/STM32F4xx_StdPeriph_Driver/src/stm32f4xx_i2c.c ****   *            @arg I2C_PECPosition_Next: indicates that the next byte is PEC
 756:App/STM32F4-Discovery/Libraries/STM32F4xx_StdPeriph_Driver/src/stm32f4xx_i2c.c ****   *            @arg I2C_PECPosition_Current: indicates that current byte is PEC
 757:App/STM32F4-Discovery/Libraries/STM32F4xx_StdPeriph_Driver/src/stm32f4xx_i2c.c ****   *       
 758:App/STM32F4-Discovery/Libraries/STM32F4xx_StdPeriph_Driver/src/stm32f4xx_i2c.c ****   * @note    This function configures the same bit (POS) as I2C_NACKPositionConfig()
 759:App/STM32F4-Discovery/Libraries/STM32F4xx_StdPeriph_Driver/src/stm32f4xx_i2c.c ****   *          but is intended to be used in SMBUS mode while I2C_NACKPositionConfig() 
 760:App/STM32F4-Discovery/Libraries/STM32F4xx_StdPeriph_Driver/src/stm32f4xx_i2c.c ****   *          is intended to used in I2C mode.
 761:App/STM32F4-Discovery/Libraries/STM32F4xx_StdPeriph_Driver/src/stm32f4xx_i2c.c ****   *                
 762:App/STM32F4-Discovery/Libraries/STM32F4xx_StdPeriph_Driver/src/stm32f4xx_i2c.c ****   * @retval None
 763:App/STM32F4-Discovery/Libraries/STM32F4xx_StdPeriph_Driver/src/stm32f4xx_i2c.c ****   */
 764:App/STM32F4-Discovery/Libraries/STM32F4xx_StdPeriph_Driver/src/stm32f4xx_i2c.c **** void I2C_PECPositionConfig(I2C_TypeDef* I2Cx, uint16_t I2C_PECPosition)
 765:App/STM32F4-Discovery/Libraries/STM32F4xx_StdPeriph_Driver/src/stm32f4xx_i2c.c **** {
 2067              		.loc 1 765 0
 2068              		.cfi_startproc
 2069              		@ args = 0, pretend = 0, frame = 8
 2070              		@ frame_needed = 1, uses_anonymous_args = 0
 2071 0000 80B5     		push	{r7, lr}
 2072              	.LCFI60:
 2073              		.cfi_def_cfa_offset 8
 2074              		.cfi_offset 7, -8
 2075              		.cfi_offset 14, -4
 2076 0002 82B0     		sub	sp, sp, #8
 2077              	.LCFI61:
 2078              		.cfi_def_cfa_offset 16
 2079 0004 00AF     		add	r7, sp, #0
 2080              	.LCFI62:
 2081              		.cfi_def_cfa_register 7
 2082 0006 7860     		str	r0, [r7, #4]
 2083 0008 0B46     		mov	r3, r1
 2084 000a 7B80     		strh	r3, [r7, #2]	@ movhi
 766:App/STM32F4-Discovery/Libraries/STM32F4xx_StdPeriph_Driver/src/stm32f4xx_i2c.c ****   /* Check the parameters */
 767:App/STM32F4-Discovery/Libraries/STM32F4xx_StdPeriph_Driver/src/stm32f4xx_i2c.c ****   assert_param(IS_I2C_ALL_PERIPH(I2Cx));
 2085              		.loc 1 767 0
 2086 000c 7A68     		ldr	r2, [r7, #4]
 2087 000e 1B4B     		ldr	r3, .L142
 2088 0010 9A42     		cmp	r2, r3
 2089 0012 0CD0     		beq	.L138
 2090              		.loc 1 767 0 is_stmt 0 discriminator 1
 2091 0014 7A68     		ldr	r2, [r7, #4]
 2092 0016 1A4B     		ldr	r3, .L142+4
 2093 0018 9A42     		cmp	r2, r3
 2094 001a 08D0     		beq	.L138
 2095 001c 7A68     		ldr	r2, [r7, #4]
 2096 001e 194B     		ldr	r3, .L142+8
 2097 0020 9A42     		cmp	r2, r3
 2098 0022 04D0     		beq	.L138
 2099 0024 1848     		ldr	r0, .L142+12
 2100 0026 40F2FF21 		movw	r1, #767
 2101 002a FFF7FEFF 		bl	assert_failed
 2102              	.L138:
 768:App/STM32F4-Discovery/Libraries/STM32F4xx_StdPeriph_Driver/src/stm32f4xx_i2c.c ****   assert_param(IS_I2C_PEC_POSITION(I2C_PECPosition));
 2103              		.loc 1 768 0 is_stmt 1
 2104 002e 7B88     		ldrh	r3, [r7, #2]
 2105 0030 B3F5006F 		cmp	r3, #2048
 2106 0034 09D0     		beq	.L139
 2107              		.loc 1 768 0 is_stmt 0 discriminator 1
 2108 0036 7A88     		ldrh	r2, [r7, #2]
 2109 0038 4FF2FF73 		movw	r3, #63487
 2110 003c 9A42     		cmp	r2, r3
 2111 003e 04D0     		beq	.L139
 2112 0040 1148     		ldr	r0, .L142+12
 2113 0042 4FF44071 		mov	r1, #768
 2114 0046 FFF7FEFF 		bl	assert_failed
 2115              	.L139:
 769:App/STM32F4-Discovery/Libraries/STM32F4xx_StdPeriph_Driver/src/stm32f4xx_i2c.c ****   if (I2C_PECPosition == I2C_PECPosition_Next)
 2116              		.loc 1 769 0 is_stmt 1
 2117 004a 7B88     		ldrh	r3, [r7, #2]
 2118 004c B3F5006F 		cmp	r3, #2048
 2119 0050 08D1     		bne	.L140
 770:App/STM32F4-Discovery/Libraries/STM32F4xx_StdPeriph_Driver/src/stm32f4xx_i2c.c ****   {
 771:App/STM32F4-Discovery/Libraries/STM32F4xx_StdPeriph_Driver/src/stm32f4xx_i2c.c ****     /* Next byte in shift register is PEC */
 772:App/STM32F4-Discovery/Libraries/STM32F4xx_StdPeriph_Driver/src/stm32f4xx_i2c.c ****     I2Cx->CR1 |= I2C_PECPosition_Next;
 2120              		.loc 1 772 0
 2121 0052 7B68     		ldr	r3, [r7, #4]
 2122 0054 1B88     		ldrh	r3, [r3]	@ movhi
 2123 0056 9BB2     		uxth	r3, r3
 2124 0058 43F40063 		orr	r3, r3, #2048
 2125 005c 9AB2     		uxth	r2, r3
 2126 005e 7B68     		ldr	r3, [r7, #4]
 2127 0060 1A80     		strh	r2, [r3]	@ movhi
 2128 0062 07E0     		b	.L137
 2129              	.L140:
 773:App/STM32F4-Discovery/Libraries/STM32F4xx_StdPeriph_Driver/src/stm32f4xx_i2c.c ****   }
 774:App/STM32F4-Discovery/Libraries/STM32F4xx_StdPeriph_Driver/src/stm32f4xx_i2c.c ****   else
 775:App/STM32F4-Discovery/Libraries/STM32F4xx_StdPeriph_Driver/src/stm32f4xx_i2c.c ****   {
 776:App/STM32F4-Discovery/Libraries/STM32F4xx_StdPeriph_Driver/src/stm32f4xx_i2c.c ****     /* Current byte in shift register is PEC */
 777:App/STM32F4-Discovery/Libraries/STM32F4xx_StdPeriph_Driver/src/stm32f4xx_i2c.c ****     I2Cx->CR1 &= I2C_PECPosition_Current;
 2130              		.loc 1 777 0
 2131 0064 7B68     		ldr	r3, [r7, #4]
 2132 0066 1B88     		ldrh	r3, [r3]	@ movhi
 2133 0068 9BB2     		uxth	r3, r3
 2134 006a 23F40063 		bic	r3, r3, #2048
 2135 006e 9AB2     		uxth	r2, r3
 2136 0070 7B68     		ldr	r3, [r7, #4]
 2137 0072 1A80     		strh	r2, [r3]	@ movhi
 2138              	.L137:
 778:App/STM32F4-Discovery/Libraries/STM32F4xx_StdPeriph_Driver/src/stm32f4xx_i2c.c ****   }
 779:App/STM32F4-Discovery/Libraries/STM32F4xx_StdPeriph_Driver/src/stm32f4xx_i2c.c **** }
 2139              		.loc 1 779 0
 2140 0074 0837     		adds	r7, r7, #8
 2141 0076 BD46     		mov	sp, r7
 2142              		@ sp needed
 2143 0078 80BD     		pop	{r7, pc}
 2144              	.L143:
 2145 007a 00BF     		.align	2
 2146              	.L142:
 2147 007c 00540040 		.word	1073763328
 2148 0080 00580040 		.word	1073764352
 2149 0084 005C0040 		.word	1073765376
 2150 0088 00000000 		.word	.LC0
 2151              		.cfi_endproc
 2152              	.LFE130:
 2154              		.section	.text.I2C_CalculatePEC,"ax",%progbits
 2155              		.align	2
 2156              		.global	I2C_CalculatePEC
 2157              		.thumb
 2158              		.thumb_func
 2160              	I2C_CalculatePEC:
 2161              	.LFB131:
 780:App/STM32F4-Discovery/Libraries/STM32F4xx_StdPeriph_Driver/src/stm32f4xx_i2c.c **** 
 781:App/STM32F4-Discovery/Libraries/STM32F4xx_StdPeriph_Driver/src/stm32f4xx_i2c.c **** /**
 782:App/STM32F4-Discovery/Libraries/STM32F4xx_StdPeriph_Driver/src/stm32f4xx_i2c.c ****   * @brief  Enables or disables the PEC value calculation of the transferred bytes.
 783:App/STM32F4-Discovery/Libraries/STM32F4xx_StdPeriph_Driver/src/stm32f4xx_i2c.c ****   * @param  I2Cx: where x can be 1, 2 or 3 to select the I2C peripheral.
 784:App/STM32F4-Discovery/Libraries/STM32F4xx_StdPeriph_Driver/src/stm32f4xx_i2c.c ****   * @param  NewState: new state of the I2Cx PEC value calculation.
 785:App/STM32F4-Discovery/Libraries/STM32F4xx_StdPeriph_Driver/src/stm32f4xx_i2c.c ****   *          This parameter can be: ENABLE or DISABLE.
 786:App/STM32F4-Discovery/Libraries/STM32F4xx_StdPeriph_Driver/src/stm32f4xx_i2c.c ****   * @retval None
 787:App/STM32F4-Discovery/Libraries/STM32F4xx_StdPeriph_Driver/src/stm32f4xx_i2c.c ****   */
 788:App/STM32F4-Discovery/Libraries/STM32F4xx_StdPeriph_Driver/src/stm32f4xx_i2c.c **** void I2C_CalculatePEC(I2C_TypeDef* I2Cx, FunctionalState NewState)
 789:App/STM32F4-Discovery/Libraries/STM32F4xx_StdPeriph_Driver/src/stm32f4xx_i2c.c **** {
 2162              		.loc 1 789 0
 2163              		.cfi_startproc
 2164              		@ args = 0, pretend = 0, frame = 8
 2165              		@ frame_needed = 1, uses_anonymous_args = 0
 2166 0000 80B5     		push	{r7, lr}
 2167              	.LCFI63:
 2168              		.cfi_def_cfa_offset 8
 2169              		.cfi_offset 7, -8
 2170              		.cfi_offset 14, -4
 2171 0002 82B0     		sub	sp, sp, #8
 2172              	.LCFI64:
 2173              		.cfi_def_cfa_offset 16
 2174 0004 00AF     		add	r7, sp, #0
 2175              	.LCFI65:
 2176              		.cfi_def_cfa_register 7
 2177 0006 7860     		str	r0, [r7, #4]
 2178 0008 0B46     		mov	r3, r1
 2179 000a FB70     		strb	r3, [r7, #3]
 790:App/STM32F4-Discovery/Libraries/STM32F4xx_StdPeriph_Driver/src/stm32f4xx_i2c.c ****   /* Check the parameters */
 791:App/STM32F4-Discovery/Libraries/STM32F4xx_StdPeriph_Driver/src/stm32f4xx_i2c.c ****   assert_param(IS_I2C_ALL_PERIPH(I2Cx));
 2180              		.loc 1 791 0
 2181 000c 7A68     		ldr	r2, [r7, #4]
 2182 000e 194B     		ldr	r3, .L149
 2183 0010 9A42     		cmp	r2, r3
 2184 0012 0CD0     		beq	.L145
 2185              		.loc 1 791 0 is_stmt 0 discriminator 1
 2186 0014 7A68     		ldr	r2, [r7, #4]
 2187 0016 184B     		ldr	r3, .L149+4
 2188 0018 9A42     		cmp	r2, r3
 2189 001a 08D0     		beq	.L145
 2190 001c 7A68     		ldr	r2, [r7, #4]
 2191 001e 174B     		ldr	r3, .L149+8
 2192 0020 9A42     		cmp	r2, r3
 2193 0022 04D0     		beq	.L145
 2194 0024 1648     		ldr	r0, .L149+12
 2195 0026 40F21731 		movw	r1, #791
 2196 002a FFF7FEFF 		bl	assert_failed
 2197              	.L145:
 792:App/STM32F4-Discovery/Libraries/STM32F4xx_StdPeriph_Driver/src/stm32f4xx_i2c.c ****   assert_param(IS_FUNCTIONAL_STATE(NewState));
 2198              		.loc 1 792 0 is_stmt 1
 2199 002e FB78     		ldrb	r3, [r7, #3]	@ zero_extendqisi2
 2200 0030 002B     		cmp	r3, #0
 2201 0032 07D0     		beq	.L146
 2202              		.loc 1 792 0 is_stmt 0 discriminator 1
 2203 0034 FB78     		ldrb	r3, [r7, #3]	@ zero_extendqisi2
 2204 0036 012B     		cmp	r3, #1
 2205 0038 04D0     		beq	.L146
 2206 003a 1148     		ldr	r0, .L149+12
 2207 003c 4FF44671 		mov	r1, #792
 2208 0040 FFF7FEFF 		bl	assert_failed
 2209              	.L146:
 793:App/STM32F4-Discovery/Libraries/STM32F4xx_StdPeriph_Driver/src/stm32f4xx_i2c.c ****   if (NewState != DISABLE)
 2210              		.loc 1 793 0 is_stmt 1
 2211 0044 FB78     		ldrb	r3, [r7, #3]	@ zero_extendqisi2
 2212 0046 002B     		cmp	r3, #0
 2213 0048 08D0     		beq	.L147
 794:App/STM32F4-Discovery/Libraries/STM32F4xx_StdPeriph_Driver/src/stm32f4xx_i2c.c ****   {
 795:App/STM32F4-Discovery/Libraries/STM32F4xx_StdPeriph_Driver/src/stm32f4xx_i2c.c ****     /* Enable the selected I2C PEC calculation */
 796:App/STM32F4-Discovery/Libraries/STM32F4xx_StdPeriph_Driver/src/stm32f4xx_i2c.c ****     I2Cx->CR1 |= I2C_CR1_ENPEC;
 2214              		.loc 1 796 0
 2215 004a 7B68     		ldr	r3, [r7, #4]
 2216 004c 1B88     		ldrh	r3, [r3]	@ movhi
 2217 004e 9BB2     		uxth	r3, r3
 2218 0050 43F02003 		orr	r3, r3, #32
 2219 0054 9AB2     		uxth	r2, r3
 2220 0056 7B68     		ldr	r3, [r7, #4]
 2221 0058 1A80     		strh	r2, [r3]	@ movhi
 2222 005a 07E0     		b	.L144
 2223              	.L147:
 797:App/STM32F4-Discovery/Libraries/STM32F4xx_StdPeriph_Driver/src/stm32f4xx_i2c.c ****   }
 798:App/STM32F4-Discovery/Libraries/STM32F4xx_StdPeriph_Driver/src/stm32f4xx_i2c.c ****   else
 799:App/STM32F4-Discovery/Libraries/STM32F4xx_StdPeriph_Driver/src/stm32f4xx_i2c.c ****   {
 800:App/STM32F4-Discovery/Libraries/STM32F4xx_StdPeriph_Driver/src/stm32f4xx_i2c.c ****     /* Disable the selected I2C PEC calculation */
 801:App/STM32F4-Discovery/Libraries/STM32F4xx_StdPeriph_Driver/src/stm32f4xx_i2c.c ****     I2Cx->CR1 &= (uint16_t)~((uint16_t)I2C_CR1_ENPEC);
 2224              		.loc 1 801 0
 2225 005c 7B68     		ldr	r3, [r7, #4]
 2226 005e 1B88     		ldrh	r3, [r3]	@ movhi
 2227 0060 9BB2     		uxth	r3, r3
 2228 0062 23F02003 		bic	r3, r3, #32
 2229 0066 9AB2     		uxth	r2, r3
 2230 0068 7B68     		ldr	r3, [r7, #4]
 2231 006a 1A80     		strh	r2, [r3]	@ movhi
 2232              	.L144:
 802:App/STM32F4-Discovery/Libraries/STM32F4xx_StdPeriph_Driver/src/stm32f4xx_i2c.c ****   }
 803:App/STM32F4-Discovery/Libraries/STM32F4xx_StdPeriph_Driver/src/stm32f4xx_i2c.c **** }
 2233              		.loc 1 803 0
 2234 006c 0837     		adds	r7, r7, #8
 2235 006e BD46     		mov	sp, r7
 2236              		@ sp needed
 2237 0070 80BD     		pop	{r7, pc}
 2238              	.L150:
 2239 0072 00BF     		.align	2
 2240              	.L149:
 2241 0074 00540040 		.word	1073763328
 2242 0078 00580040 		.word	1073764352
 2243 007c 005C0040 		.word	1073765376
 2244 0080 00000000 		.word	.LC0
 2245              		.cfi_endproc
 2246              	.LFE131:
 2248              		.section	.text.I2C_GetPEC,"ax",%progbits
 2249              		.align	2
 2250              		.global	I2C_GetPEC
 2251              		.thumb
 2252              		.thumb_func
 2254              	I2C_GetPEC:
 2255              	.LFB132:
 804:App/STM32F4-Discovery/Libraries/STM32F4xx_StdPeriph_Driver/src/stm32f4xx_i2c.c **** 
 805:App/STM32F4-Discovery/Libraries/STM32F4xx_StdPeriph_Driver/src/stm32f4xx_i2c.c **** /**
 806:App/STM32F4-Discovery/Libraries/STM32F4xx_StdPeriph_Driver/src/stm32f4xx_i2c.c ****   * @brief  Returns the PEC value for the specified I2C.
 807:App/STM32F4-Discovery/Libraries/STM32F4xx_StdPeriph_Driver/src/stm32f4xx_i2c.c ****   * @param  I2Cx: where x can be 1, 2 or 3 to select the I2C peripheral.
 808:App/STM32F4-Discovery/Libraries/STM32F4xx_StdPeriph_Driver/src/stm32f4xx_i2c.c ****   * @retval The PEC value.
 809:App/STM32F4-Discovery/Libraries/STM32F4xx_StdPeriph_Driver/src/stm32f4xx_i2c.c ****   */
 810:App/STM32F4-Discovery/Libraries/STM32F4xx_StdPeriph_Driver/src/stm32f4xx_i2c.c **** uint8_t I2C_GetPEC(I2C_TypeDef* I2Cx)
 811:App/STM32F4-Discovery/Libraries/STM32F4xx_StdPeriph_Driver/src/stm32f4xx_i2c.c **** {
 2256              		.loc 1 811 0
 2257              		.cfi_startproc
 2258              		@ args = 0, pretend = 0, frame = 8
 2259              		@ frame_needed = 1, uses_anonymous_args = 0
 2260 0000 80B5     		push	{r7, lr}
 2261              	.LCFI66:
 2262              		.cfi_def_cfa_offset 8
 2263              		.cfi_offset 7, -8
 2264              		.cfi_offset 14, -4
 2265 0002 82B0     		sub	sp, sp, #8
 2266              	.LCFI67:
 2267              		.cfi_def_cfa_offset 16
 2268 0004 00AF     		add	r7, sp, #0
 2269              	.LCFI68:
 2270              		.cfi_def_cfa_register 7
 2271 0006 7860     		str	r0, [r7, #4]
 812:App/STM32F4-Discovery/Libraries/STM32F4xx_StdPeriph_Driver/src/stm32f4xx_i2c.c ****   /* Check the parameters */
 813:App/STM32F4-Discovery/Libraries/STM32F4xx_StdPeriph_Driver/src/stm32f4xx_i2c.c ****   assert_param(IS_I2C_ALL_PERIPH(I2Cx));
 2272              		.loc 1 813 0
 2273 0008 7A68     		ldr	r2, [r7, #4]
 2274 000a 0D4B     		ldr	r3, .L154
 2275 000c 9A42     		cmp	r2, r3
 2276 000e 0CD0     		beq	.L152
 2277              		.loc 1 813 0 is_stmt 0 discriminator 1
 2278 0010 7A68     		ldr	r2, [r7, #4]
 2279 0012 0C4B     		ldr	r3, .L154+4
 2280 0014 9A42     		cmp	r2, r3
 2281 0016 08D0     		beq	.L152
 2282 0018 7A68     		ldr	r2, [r7, #4]
 2283 001a 0B4B     		ldr	r3, .L154+8
 2284 001c 9A42     		cmp	r2, r3
 2285 001e 04D0     		beq	.L152
 2286 0020 0A48     		ldr	r0, .L154+12
 2287 0022 40F22D31 		movw	r1, #813
 2288 0026 FFF7FEFF 		bl	assert_failed
 2289              	.L152:
 814:App/STM32F4-Discovery/Libraries/STM32F4xx_StdPeriph_Driver/src/stm32f4xx_i2c.c ****   /* Return the selected I2C PEC value */
 815:App/STM32F4-Discovery/Libraries/STM32F4xx_StdPeriph_Driver/src/stm32f4xx_i2c.c ****   return ((I2Cx->SR2) >> 8);
 2290              		.loc 1 815 0 is_stmt 1
 2291 002a 7B68     		ldr	r3, [r7, #4]
 2292 002c 1B8B     		ldrh	r3, [r3, #24]	@ movhi
 2293 002e 9BB2     		uxth	r3, r3
 2294 0030 1B0A     		lsrs	r3, r3, #8
 2295 0032 9BB2     		uxth	r3, r3
 2296 0034 DBB2     		uxtb	r3, r3
 816:App/STM32F4-Discovery/Libraries/STM32F4xx_StdPeriph_Driver/src/stm32f4xx_i2c.c **** }
 2297              		.loc 1 816 0
 2298 0036 1846     		mov	r0, r3
 2299 0038 0837     		adds	r7, r7, #8
 2300 003a BD46     		mov	sp, r7
 2301              		@ sp needed
 2302 003c 80BD     		pop	{r7, pc}
 2303              	.L155:
 2304 003e 00BF     		.align	2
 2305              	.L154:
 2306 0040 00540040 		.word	1073763328
 2307 0044 00580040 		.word	1073764352
 2308 0048 005C0040 		.word	1073765376
 2309 004c 00000000 		.word	.LC0
 2310              		.cfi_endproc
 2311              	.LFE132:
 2313              		.section	.text.I2C_DMACmd,"ax",%progbits
 2314              		.align	2
 2315              		.global	I2C_DMACmd
 2316              		.thumb
 2317              		.thumb_func
 2319              	I2C_DMACmd:
 2320              	.LFB133:
 817:App/STM32F4-Discovery/Libraries/STM32F4xx_StdPeriph_Driver/src/stm32f4xx_i2c.c **** 
 818:App/STM32F4-Discovery/Libraries/STM32F4xx_StdPeriph_Driver/src/stm32f4xx_i2c.c **** /**
 819:App/STM32F4-Discovery/Libraries/STM32F4xx_StdPeriph_Driver/src/stm32f4xx_i2c.c ****   * @}
 820:App/STM32F4-Discovery/Libraries/STM32F4xx_StdPeriph_Driver/src/stm32f4xx_i2c.c ****   */
 821:App/STM32F4-Discovery/Libraries/STM32F4xx_StdPeriph_Driver/src/stm32f4xx_i2c.c **** 
 822:App/STM32F4-Discovery/Libraries/STM32F4xx_StdPeriph_Driver/src/stm32f4xx_i2c.c **** /** @defgroup I2C_Group4 DMA transfers management functions
 823:App/STM32F4-Discovery/Libraries/STM32F4xx_StdPeriph_Driver/src/stm32f4xx_i2c.c ****  *  @brief   DMA transfers management functions 
 824:App/STM32F4-Discovery/Libraries/STM32F4xx_StdPeriph_Driver/src/stm32f4xx_i2c.c ****  *
 825:App/STM32F4-Discovery/Libraries/STM32F4xx_StdPeriph_Driver/src/stm32f4xx_i2c.c **** @verbatim   
 826:App/STM32F4-Discovery/Libraries/STM32F4xx_StdPeriph_Driver/src/stm32f4xx_i2c.c ****  ===============================================================================
 827:App/STM32F4-Discovery/Libraries/STM32F4xx_StdPeriph_Driver/src/stm32f4xx_i2c.c ****                          DMA transfers management functions
 828:App/STM32F4-Discovery/Libraries/STM32F4xx_StdPeriph_Driver/src/stm32f4xx_i2c.c ****  ===============================================================================  
 829:App/STM32F4-Discovery/Libraries/STM32F4xx_StdPeriph_Driver/src/stm32f4xx_i2c.c ****   This section provides functions allowing to configure the I2C DMA channels 
 830:App/STM32F4-Discovery/Libraries/STM32F4xx_StdPeriph_Driver/src/stm32f4xx_i2c.c ****   requests.
 831:App/STM32F4-Discovery/Libraries/STM32F4xx_StdPeriph_Driver/src/stm32f4xx_i2c.c ****   
 832:App/STM32F4-Discovery/Libraries/STM32F4xx_StdPeriph_Driver/src/stm32f4xx_i2c.c **** @endverbatim
 833:App/STM32F4-Discovery/Libraries/STM32F4xx_StdPeriph_Driver/src/stm32f4xx_i2c.c ****   * @{
 834:App/STM32F4-Discovery/Libraries/STM32F4xx_StdPeriph_Driver/src/stm32f4xx_i2c.c ****   */
 835:App/STM32F4-Discovery/Libraries/STM32F4xx_StdPeriph_Driver/src/stm32f4xx_i2c.c **** 
 836:App/STM32F4-Discovery/Libraries/STM32F4xx_StdPeriph_Driver/src/stm32f4xx_i2c.c **** /**
 837:App/STM32F4-Discovery/Libraries/STM32F4xx_StdPeriph_Driver/src/stm32f4xx_i2c.c ****   * @brief  Enables or disables the specified I2C DMA requests.
 838:App/STM32F4-Discovery/Libraries/STM32F4xx_StdPeriph_Driver/src/stm32f4xx_i2c.c ****   * @param  I2Cx: where x can be 1, 2 or 3 to select the I2C peripheral.
 839:App/STM32F4-Discovery/Libraries/STM32F4xx_StdPeriph_Driver/src/stm32f4xx_i2c.c ****   * @param  NewState: new state of the I2C DMA transfer.
 840:App/STM32F4-Discovery/Libraries/STM32F4xx_StdPeriph_Driver/src/stm32f4xx_i2c.c ****   *          This parameter can be: ENABLE or DISABLE.
 841:App/STM32F4-Discovery/Libraries/STM32F4xx_StdPeriph_Driver/src/stm32f4xx_i2c.c ****   * @retval None
 842:App/STM32F4-Discovery/Libraries/STM32F4xx_StdPeriph_Driver/src/stm32f4xx_i2c.c ****   */
 843:App/STM32F4-Discovery/Libraries/STM32F4xx_StdPeriph_Driver/src/stm32f4xx_i2c.c **** void I2C_DMACmd(I2C_TypeDef* I2Cx, FunctionalState NewState)
 844:App/STM32F4-Discovery/Libraries/STM32F4xx_StdPeriph_Driver/src/stm32f4xx_i2c.c **** {
 2321              		.loc 1 844 0
 2322              		.cfi_startproc
 2323              		@ args = 0, pretend = 0, frame = 8
 2324              		@ frame_needed = 1, uses_anonymous_args = 0
 2325 0000 80B5     		push	{r7, lr}
 2326              	.LCFI69:
 2327              		.cfi_def_cfa_offset 8
 2328              		.cfi_offset 7, -8
 2329              		.cfi_offset 14, -4
 2330 0002 82B0     		sub	sp, sp, #8
 2331              	.LCFI70:
 2332              		.cfi_def_cfa_offset 16
 2333 0004 00AF     		add	r7, sp, #0
 2334              	.LCFI71:
 2335              		.cfi_def_cfa_register 7
 2336 0006 7860     		str	r0, [r7, #4]
 2337 0008 0B46     		mov	r3, r1
 2338 000a FB70     		strb	r3, [r7, #3]
 845:App/STM32F4-Discovery/Libraries/STM32F4xx_StdPeriph_Driver/src/stm32f4xx_i2c.c ****   /* Check the parameters */
 846:App/STM32F4-Discovery/Libraries/STM32F4xx_StdPeriph_Driver/src/stm32f4xx_i2c.c ****   assert_param(IS_I2C_ALL_PERIPH(I2Cx));
 2339              		.loc 1 846 0
 2340 000c 7A68     		ldr	r2, [r7, #4]
 2341 000e 194B     		ldr	r3, .L161
 2342 0010 9A42     		cmp	r2, r3
 2343 0012 0CD0     		beq	.L157
 2344              		.loc 1 846 0 is_stmt 0 discriminator 1
 2345 0014 7A68     		ldr	r2, [r7, #4]
 2346 0016 184B     		ldr	r3, .L161+4
 2347 0018 9A42     		cmp	r2, r3
 2348 001a 08D0     		beq	.L157
 2349 001c 7A68     		ldr	r2, [r7, #4]
 2350 001e 174B     		ldr	r3, .L161+8
 2351 0020 9A42     		cmp	r2, r3
 2352 0022 04D0     		beq	.L157
 2353 0024 1648     		ldr	r0, .L161+12
 2354 0026 40F24E31 		movw	r1, #846
 2355 002a FFF7FEFF 		bl	assert_failed
 2356              	.L157:
 847:App/STM32F4-Discovery/Libraries/STM32F4xx_StdPeriph_Driver/src/stm32f4xx_i2c.c ****   assert_param(IS_FUNCTIONAL_STATE(NewState));
 2357              		.loc 1 847 0 is_stmt 1
 2358 002e FB78     		ldrb	r3, [r7, #3]	@ zero_extendqisi2
 2359 0030 002B     		cmp	r3, #0
 2360 0032 07D0     		beq	.L158
 2361              		.loc 1 847 0 is_stmt 0 discriminator 1
 2362 0034 FB78     		ldrb	r3, [r7, #3]	@ zero_extendqisi2
 2363 0036 012B     		cmp	r3, #1
 2364 0038 04D0     		beq	.L158
 2365 003a 1148     		ldr	r0, .L161+12
 2366 003c 40F24F31 		movw	r1, #847
 2367 0040 FFF7FEFF 		bl	assert_failed
 2368              	.L158:
 848:App/STM32F4-Discovery/Libraries/STM32F4xx_StdPeriph_Driver/src/stm32f4xx_i2c.c ****   if (NewState != DISABLE)
 2369              		.loc 1 848 0 is_stmt 1
 2370 0044 FB78     		ldrb	r3, [r7, #3]	@ zero_extendqisi2
 2371 0046 002B     		cmp	r3, #0
 2372 0048 08D0     		beq	.L159
 849:App/STM32F4-Discovery/Libraries/STM32F4xx_StdPeriph_Driver/src/stm32f4xx_i2c.c ****   {
 850:App/STM32F4-Discovery/Libraries/STM32F4xx_StdPeriph_Driver/src/stm32f4xx_i2c.c ****     /* Enable the selected I2C DMA requests */
 851:App/STM32F4-Discovery/Libraries/STM32F4xx_StdPeriph_Driver/src/stm32f4xx_i2c.c ****     I2Cx->CR2 |= I2C_CR2_DMAEN;
 2373              		.loc 1 851 0
 2374 004a 7B68     		ldr	r3, [r7, #4]
 2375 004c 9B88     		ldrh	r3, [r3, #4]	@ movhi
 2376 004e 9BB2     		uxth	r3, r3
 2377 0050 43F40063 		orr	r3, r3, #2048
 2378 0054 9AB2     		uxth	r2, r3
 2379 0056 7B68     		ldr	r3, [r7, #4]
 2380 0058 9A80     		strh	r2, [r3, #4]	@ movhi
 2381 005a 07E0     		b	.L156
 2382              	.L159:
 852:App/STM32F4-Discovery/Libraries/STM32F4xx_StdPeriph_Driver/src/stm32f4xx_i2c.c ****   }
 853:App/STM32F4-Discovery/Libraries/STM32F4xx_StdPeriph_Driver/src/stm32f4xx_i2c.c ****   else
 854:App/STM32F4-Discovery/Libraries/STM32F4xx_StdPeriph_Driver/src/stm32f4xx_i2c.c ****   {
 855:App/STM32F4-Discovery/Libraries/STM32F4xx_StdPeriph_Driver/src/stm32f4xx_i2c.c ****     /* Disable the selected I2C DMA requests */
 856:App/STM32F4-Discovery/Libraries/STM32F4xx_StdPeriph_Driver/src/stm32f4xx_i2c.c ****     I2Cx->CR2 &= (uint16_t)~((uint16_t)I2C_CR2_DMAEN);
 2383              		.loc 1 856 0
 2384 005c 7B68     		ldr	r3, [r7, #4]
 2385 005e 9B88     		ldrh	r3, [r3, #4]	@ movhi
 2386 0060 9BB2     		uxth	r3, r3
 2387 0062 23F40063 		bic	r3, r3, #2048
 2388 0066 9AB2     		uxth	r2, r3
 2389 0068 7B68     		ldr	r3, [r7, #4]
 2390 006a 9A80     		strh	r2, [r3, #4]	@ movhi
 2391              	.L156:
 857:App/STM32F4-Discovery/Libraries/STM32F4xx_StdPeriph_Driver/src/stm32f4xx_i2c.c ****   }
 858:App/STM32F4-Discovery/Libraries/STM32F4xx_StdPeriph_Driver/src/stm32f4xx_i2c.c **** }
 2392              		.loc 1 858 0
 2393 006c 0837     		adds	r7, r7, #8
 2394 006e BD46     		mov	sp, r7
 2395              		@ sp needed
 2396 0070 80BD     		pop	{r7, pc}
 2397              	.L162:
 2398 0072 00BF     		.align	2
 2399              	.L161:
 2400 0074 00540040 		.word	1073763328
 2401 0078 00580040 		.word	1073764352
 2402 007c 005C0040 		.word	1073765376
 2403 0080 00000000 		.word	.LC0
 2404              		.cfi_endproc
 2405              	.LFE133:
 2407              		.section	.text.I2C_DMALastTransferCmd,"ax",%progbits
 2408              		.align	2
 2409              		.global	I2C_DMALastTransferCmd
 2410              		.thumb
 2411              		.thumb_func
 2413              	I2C_DMALastTransferCmd:
 2414              	.LFB134:
 859:App/STM32F4-Discovery/Libraries/STM32F4xx_StdPeriph_Driver/src/stm32f4xx_i2c.c **** 
 860:App/STM32F4-Discovery/Libraries/STM32F4xx_StdPeriph_Driver/src/stm32f4xx_i2c.c **** /**
 861:App/STM32F4-Discovery/Libraries/STM32F4xx_StdPeriph_Driver/src/stm32f4xx_i2c.c ****   * @brief  Specifies that the next DMA transfer is the last one.
 862:App/STM32F4-Discovery/Libraries/STM32F4xx_StdPeriph_Driver/src/stm32f4xx_i2c.c ****   * @param  I2Cx: where x can be 1, 2 or 3 to select the I2C peripheral.
 863:App/STM32F4-Discovery/Libraries/STM32F4xx_StdPeriph_Driver/src/stm32f4xx_i2c.c ****   * @param  NewState: new state of the I2C DMA last transfer.
 864:App/STM32F4-Discovery/Libraries/STM32F4xx_StdPeriph_Driver/src/stm32f4xx_i2c.c ****   *          This parameter can be: ENABLE or DISABLE.
 865:App/STM32F4-Discovery/Libraries/STM32F4xx_StdPeriph_Driver/src/stm32f4xx_i2c.c ****   * @retval None
 866:App/STM32F4-Discovery/Libraries/STM32F4xx_StdPeriph_Driver/src/stm32f4xx_i2c.c ****   */
 867:App/STM32F4-Discovery/Libraries/STM32F4xx_StdPeriph_Driver/src/stm32f4xx_i2c.c **** void I2C_DMALastTransferCmd(I2C_TypeDef* I2Cx, FunctionalState NewState)
 868:App/STM32F4-Discovery/Libraries/STM32F4xx_StdPeriph_Driver/src/stm32f4xx_i2c.c **** {
 2415              		.loc 1 868 0
 2416              		.cfi_startproc
 2417              		@ args = 0, pretend = 0, frame = 8
 2418              		@ frame_needed = 1, uses_anonymous_args = 0
 2419 0000 80B5     		push	{r7, lr}
 2420              	.LCFI72:
 2421              		.cfi_def_cfa_offset 8
 2422              		.cfi_offset 7, -8
 2423              		.cfi_offset 14, -4
 2424 0002 82B0     		sub	sp, sp, #8
 2425              	.LCFI73:
 2426              		.cfi_def_cfa_offset 16
 2427 0004 00AF     		add	r7, sp, #0
 2428              	.LCFI74:
 2429              		.cfi_def_cfa_register 7
 2430 0006 7860     		str	r0, [r7, #4]
 2431 0008 0B46     		mov	r3, r1
 2432 000a FB70     		strb	r3, [r7, #3]
 869:App/STM32F4-Discovery/Libraries/STM32F4xx_StdPeriph_Driver/src/stm32f4xx_i2c.c ****   /* Check the parameters */
 870:App/STM32F4-Discovery/Libraries/STM32F4xx_StdPeriph_Driver/src/stm32f4xx_i2c.c ****   assert_param(IS_I2C_ALL_PERIPH(I2Cx));
 2433              		.loc 1 870 0
 2434 000c 7A68     		ldr	r2, [r7, #4]
 2435 000e 194B     		ldr	r3, .L168
 2436 0010 9A42     		cmp	r2, r3
 2437 0012 0CD0     		beq	.L164
 2438              		.loc 1 870 0 is_stmt 0 discriminator 1
 2439 0014 7A68     		ldr	r2, [r7, #4]
 2440 0016 184B     		ldr	r3, .L168+4
 2441 0018 9A42     		cmp	r2, r3
 2442 001a 08D0     		beq	.L164
 2443 001c 7A68     		ldr	r2, [r7, #4]
 2444 001e 174B     		ldr	r3, .L168+8
 2445 0020 9A42     		cmp	r2, r3
 2446 0022 04D0     		beq	.L164
 2447 0024 1648     		ldr	r0, .L168+12
 2448 0026 40F26631 		movw	r1, #870
 2449 002a FFF7FEFF 		bl	assert_failed
 2450              	.L164:
 871:App/STM32F4-Discovery/Libraries/STM32F4xx_StdPeriph_Driver/src/stm32f4xx_i2c.c ****   assert_param(IS_FUNCTIONAL_STATE(NewState));
 2451              		.loc 1 871 0 is_stmt 1
 2452 002e FB78     		ldrb	r3, [r7, #3]	@ zero_extendqisi2
 2453 0030 002B     		cmp	r3, #0
 2454 0032 07D0     		beq	.L165
 2455              		.loc 1 871 0 is_stmt 0 discriminator 1
 2456 0034 FB78     		ldrb	r3, [r7, #3]	@ zero_extendqisi2
 2457 0036 012B     		cmp	r3, #1
 2458 0038 04D0     		beq	.L165
 2459 003a 1148     		ldr	r0, .L168+12
 2460 003c 40F26731 		movw	r1, #871
 2461 0040 FFF7FEFF 		bl	assert_failed
 2462              	.L165:
 872:App/STM32F4-Discovery/Libraries/STM32F4xx_StdPeriph_Driver/src/stm32f4xx_i2c.c ****   if (NewState != DISABLE)
 2463              		.loc 1 872 0 is_stmt 1
 2464 0044 FB78     		ldrb	r3, [r7, #3]	@ zero_extendqisi2
 2465 0046 002B     		cmp	r3, #0
 2466 0048 08D0     		beq	.L166
 873:App/STM32F4-Discovery/Libraries/STM32F4xx_StdPeriph_Driver/src/stm32f4xx_i2c.c ****   {
 874:App/STM32F4-Discovery/Libraries/STM32F4xx_StdPeriph_Driver/src/stm32f4xx_i2c.c ****     /* Next DMA transfer is the last transfer */
 875:App/STM32F4-Discovery/Libraries/STM32F4xx_StdPeriph_Driver/src/stm32f4xx_i2c.c ****     I2Cx->CR2 |= I2C_CR2_LAST;
 2467              		.loc 1 875 0
 2468 004a 7B68     		ldr	r3, [r7, #4]
 2469 004c 9B88     		ldrh	r3, [r3, #4]	@ movhi
 2470 004e 9BB2     		uxth	r3, r3
 2471 0050 43F48053 		orr	r3, r3, #4096
 2472 0054 9AB2     		uxth	r2, r3
 2473 0056 7B68     		ldr	r3, [r7, #4]
 2474 0058 9A80     		strh	r2, [r3, #4]	@ movhi
 2475 005a 07E0     		b	.L163
 2476              	.L166:
 876:App/STM32F4-Discovery/Libraries/STM32F4xx_StdPeriph_Driver/src/stm32f4xx_i2c.c ****   }
 877:App/STM32F4-Discovery/Libraries/STM32F4xx_StdPeriph_Driver/src/stm32f4xx_i2c.c ****   else
 878:App/STM32F4-Discovery/Libraries/STM32F4xx_StdPeriph_Driver/src/stm32f4xx_i2c.c ****   {
 879:App/STM32F4-Discovery/Libraries/STM32F4xx_StdPeriph_Driver/src/stm32f4xx_i2c.c ****     /* Next DMA transfer is not the last transfer */
 880:App/STM32F4-Discovery/Libraries/STM32F4xx_StdPeriph_Driver/src/stm32f4xx_i2c.c ****     I2Cx->CR2 &= (uint16_t)~((uint16_t)I2C_CR2_LAST);
 2477              		.loc 1 880 0
 2478 005c 7B68     		ldr	r3, [r7, #4]
 2479 005e 9B88     		ldrh	r3, [r3, #4]	@ movhi
 2480 0060 9BB2     		uxth	r3, r3
 2481 0062 23F48053 		bic	r3, r3, #4096
 2482 0066 9AB2     		uxth	r2, r3
 2483 0068 7B68     		ldr	r3, [r7, #4]
 2484 006a 9A80     		strh	r2, [r3, #4]	@ movhi
 2485              	.L163:
 881:App/STM32F4-Discovery/Libraries/STM32F4xx_StdPeriph_Driver/src/stm32f4xx_i2c.c ****   }
 882:App/STM32F4-Discovery/Libraries/STM32F4xx_StdPeriph_Driver/src/stm32f4xx_i2c.c **** }
 2486              		.loc 1 882 0
 2487 006c 0837     		adds	r7, r7, #8
 2488 006e BD46     		mov	sp, r7
 2489              		@ sp needed
 2490 0070 80BD     		pop	{r7, pc}
 2491              	.L169:
 2492 0072 00BF     		.align	2
 2493              	.L168:
 2494 0074 00540040 		.word	1073763328
 2495 0078 00580040 		.word	1073764352
 2496 007c 005C0040 		.word	1073765376
 2497 0080 00000000 		.word	.LC0
 2498              		.cfi_endproc
 2499              	.LFE134:
 2501              		.section	.text.I2C_ReadRegister,"ax",%progbits
 2502              		.align	2
 2503              		.global	I2C_ReadRegister
 2504              		.thumb
 2505              		.thumb_func
 2507              	I2C_ReadRegister:
 2508              	.LFB135:
 883:App/STM32F4-Discovery/Libraries/STM32F4xx_StdPeriph_Driver/src/stm32f4xx_i2c.c **** 
 884:App/STM32F4-Discovery/Libraries/STM32F4xx_StdPeriph_Driver/src/stm32f4xx_i2c.c **** /**
 885:App/STM32F4-Discovery/Libraries/STM32F4xx_StdPeriph_Driver/src/stm32f4xx_i2c.c ****   * @}
 886:App/STM32F4-Discovery/Libraries/STM32F4xx_StdPeriph_Driver/src/stm32f4xx_i2c.c ****   */
 887:App/STM32F4-Discovery/Libraries/STM32F4xx_StdPeriph_Driver/src/stm32f4xx_i2c.c **** 
 888:App/STM32F4-Discovery/Libraries/STM32F4xx_StdPeriph_Driver/src/stm32f4xx_i2c.c **** /** @defgroup I2C_Group5 Interrupts events and flags management functions
 889:App/STM32F4-Discovery/Libraries/STM32F4xx_StdPeriph_Driver/src/stm32f4xx_i2c.c ****  *  @brief   Interrupts, events and flags management functions
 890:App/STM32F4-Discovery/Libraries/STM32F4xx_StdPeriph_Driver/src/stm32f4xx_i2c.c ****  *
 891:App/STM32F4-Discovery/Libraries/STM32F4xx_StdPeriph_Driver/src/stm32f4xx_i2c.c **** @verbatim   
 892:App/STM32F4-Discovery/Libraries/STM32F4xx_StdPeriph_Driver/src/stm32f4xx_i2c.c ****  ===============================================================================
 893:App/STM32F4-Discovery/Libraries/STM32F4xx_StdPeriph_Driver/src/stm32f4xx_i2c.c ****                 Interrupts, events and flags management functions
 894:App/STM32F4-Discovery/Libraries/STM32F4xx_StdPeriph_Driver/src/stm32f4xx_i2c.c ****  ===============================================================================  
 895:App/STM32F4-Discovery/Libraries/STM32F4xx_StdPeriph_Driver/src/stm32f4xx_i2c.c ****   This section provides functions allowing to configure the I2C Interrupts 
 896:App/STM32F4-Discovery/Libraries/STM32F4xx_StdPeriph_Driver/src/stm32f4xx_i2c.c ****   sources and check or clear the flags or pending bits status.
 897:App/STM32F4-Discovery/Libraries/STM32F4xx_StdPeriph_Driver/src/stm32f4xx_i2c.c ****   The user should identify which mode will be used in his application to manage 
 898:App/STM32F4-Discovery/Libraries/STM32F4xx_StdPeriph_Driver/src/stm32f4xx_i2c.c ****   the communication: Polling mode, Interrupt mode or DMA mode. 
 899:App/STM32F4-Discovery/Libraries/STM32F4xx_StdPeriph_Driver/src/stm32f4xx_i2c.c **** 
 900:App/STM32F4-Discovery/Libraries/STM32F4xx_StdPeriph_Driver/src/stm32f4xx_i2c.c ****  ===============================================================================
 901:App/STM32F4-Discovery/Libraries/STM32F4xx_StdPeriph_Driver/src/stm32f4xx_i2c.c ****                           I2C State Monitoring Functions                    
 902:App/STM32F4-Discovery/Libraries/STM32F4xx_StdPeriph_Driver/src/stm32f4xx_i2c.c ****  ===============================================================================   
 903:App/STM32F4-Discovery/Libraries/STM32F4xx_StdPeriph_Driver/src/stm32f4xx_i2c.c ****   This I2C driver provides three different ways for I2C state monitoring
 904:App/STM32F4-Discovery/Libraries/STM32F4xx_StdPeriph_Driver/src/stm32f4xx_i2c.c ****   depending on the application requirements and constraints:
 905:App/STM32F4-Discovery/Libraries/STM32F4xx_StdPeriph_Driver/src/stm32f4xx_i2c.c ****          
 906:App/STM32F4-Discovery/Libraries/STM32F4xx_StdPeriph_Driver/src/stm32f4xx_i2c.c ****    
 907:App/STM32F4-Discovery/Libraries/STM32F4xx_StdPeriph_Driver/src/stm32f4xx_i2c.c ****      1. Basic state monitoring (Using I2C_CheckEvent() function)
 908:App/STM32F4-Discovery/Libraries/STM32F4xx_StdPeriph_Driver/src/stm32f4xx_i2c.c ****      -----------------------------------------------------------
 909:App/STM32F4-Discovery/Libraries/STM32F4xx_StdPeriph_Driver/src/stm32f4xx_i2c.c ****         It compares the status registers (SR1 and SR2) content to a given event
 910:App/STM32F4-Discovery/Libraries/STM32F4xx_StdPeriph_Driver/src/stm32f4xx_i2c.c ****         (can be the combination of one or more flags).
 911:App/STM32F4-Discovery/Libraries/STM32F4xx_StdPeriph_Driver/src/stm32f4xx_i2c.c ****         It returns SUCCESS if the current status includes the given flags 
 912:App/STM32F4-Discovery/Libraries/STM32F4xx_StdPeriph_Driver/src/stm32f4xx_i2c.c ****         and returns ERROR if one or more flags are missing in the current status.
 913:App/STM32F4-Discovery/Libraries/STM32F4xx_StdPeriph_Driver/src/stm32f4xx_i2c.c **** 
 914:App/STM32F4-Discovery/Libraries/STM32F4xx_StdPeriph_Driver/src/stm32f4xx_i2c.c ****           - When to use
 915:App/STM32F4-Discovery/Libraries/STM32F4xx_StdPeriph_Driver/src/stm32f4xx_i2c.c ****              - This function is suitable for most applications as well as for startup 
 916:App/STM32F4-Discovery/Libraries/STM32F4xx_StdPeriph_Driver/src/stm32f4xx_i2c.c ****                activity since the events are fully described in the product reference 
 917:App/STM32F4-Discovery/Libraries/STM32F4xx_StdPeriph_Driver/src/stm32f4xx_i2c.c ****                manual (RM0090).
 918:App/STM32F4-Discovery/Libraries/STM32F4xx_StdPeriph_Driver/src/stm32f4xx_i2c.c ****              - It is also suitable for users who need to define their own events.
 919:App/STM32F4-Discovery/Libraries/STM32F4xx_StdPeriph_Driver/src/stm32f4xx_i2c.c **** 
 920:App/STM32F4-Discovery/Libraries/STM32F4xx_StdPeriph_Driver/src/stm32f4xx_i2c.c ****           - Limitations
 921:App/STM32F4-Discovery/Libraries/STM32F4xx_StdPeriph_Driver/src/stm32f4xx_i2c.c ****              - If an error occurs (ie. error flags are set besides to the monitored 
 922:App/STM32F4-Discovery/Libraries/STM32F4xx_StdPeriph_Driver/src/stm32f4xx_i2c.c ****                flags), the I2C_CheckEvent() function may return SUCCESS despite 
 923:App/STM32F4-Discovery/Libraries/STM32F4xx_StdPeriph_Driver/src/stm32f4xx_i2c.c ****                the communication hold or corrupted real state. 
 924:App/STM32F4-Discovery/Libraries/STM32F4xx_StdPeriph_Driver/src/stm32f4xx_i2c.c ****                In this case, it is advised to use error interrupts to monitor 
 925:App/STM32F4-Discovery/Libraries/STM32F4xx_StdPeriph_Driver/src/stm32f4xx_i2c.c ****                the error events and handle them in the interrupt IRQ handler.
 926:App/STM32F4-Discovery/Libraries/STM32F4xx_StdPeriph_Driver/src/stm32f4xx_i2c.c ****          
 927:App/STM32F4-Discovery/Libraries/STM32F4xx_StdPeriph_Driver/src/stm32f4xx_i2c.c ****      @note 
 928:App/STM32F4-Discovery/Libraries/STM32F4xx_StdPeriph_Driver/src/stm32f4xx_i2c.c ****          For error management, it is advised to use the following functions:
 929:App/STM32F4-Discovery/Libraries/STM32F4xx_StdPeriph_Driver/src/stm32f4xx_i2c.c ****            - I2C_ITConfig() to configure and enable the error interrupts (I2C_IT_ERR).
 930:App/STM32F4-Discovery/Libraries/STM32F4xx_StdPeriph_Driver/src/stm32f4xx_i2c.c ****            - I2Cx_ER_IRQHandler() which is called when the error interrupt occurs.
 931:App/STM32F4-Discovery/Libraries/STM32F4xx_StdPeriph_Driver/src/stm32f4xx_i2c.c ****              Where x is the peripheral instance (I2C1, I2C2 ...)
 932:App/STM32F4-Discovery/Libraries/STM32F4xx_StdPeriph_Driver/src/stm32f4xx_i2c.c ****            - I2C_GetFlagStatus() or I2C_GetITStatus()  to be called into the 
 933:App/STM32F4-Discovery/Libraries/STM32F4xx_StdPeriph_Driver/src/stm32f4xx_i2c.c ****              I2Cx_ER_IRQHandler() function in order to determine which error occurred.
 934:App/STM32F4-Discovery/Libraries/STM32F4xx_StdPeriph_Driver/src/stm32f4xx_i2c.c ****            - I2C_ClearFlag() or I2C_ClearITPendingBit() and/or I2C_SoftwareResetCmd() 
 935:App/STM32F4-Discovery/Libraries/STM32F4xx_StdPeriph_Driver/src/stm32f4xx_i2c.c ****              and/or I2C_GenerateStop() in order to clear the error flag and source 
 936:App/STM32F4-Discovery/Libraries/STM32F4xx_StdPeriph_Driver/src/stm32f4xx_i2c.c ****              and return to correct  communication status.
 937:App/STM32F4-Discovery/Libraries/STM32F4xx_StdPeriph_Driver/src/stm32f4xx_i2c.c ****              
 938:App/STM32F4-Discovery/Libraries/STM32F4xx_StdPeriph_Driver/src/stm32f4xx_i2c.c ****  
 939:App/STM32F4-Discovery/Libraries/STM32F4xx_StdPeriph_Driver/src/stm32f4xx_i2c.c ****      2. Advanced state monitoring (Using the function I2C_GetLastEvent())
 940:App/STM32F4-Discovery/Libraries/STM32F4xx_StdPeriph_Driver/src/stm32f4xx_i2c.c ****      -------------------------------------------------------------------- 
 941:App/STM32F4-Discovery/Libraries/STM32F4xx_StdPeriph_Driver/src/stm32f4xx_i2c.c ****         Using the function I2C_GetLastEvent() which returns the image of both status 
 942:App/STM32F4-Discovery/Libraries/STM32F4xx_StdPeriph_Driver/src/stm32f4xx_i2c.c ****         registers in a single word (uint32_t) (Status Register 2 value is shifted left 
 943:App/STM32F4-Discovery/Libraries/STM32F4xx_StdPeriph_Driver/src/stm32f4xx_i2c.c ****         by 16 bits and concatenated to Status Register 1).
 944:App/STM32F4-Discovery/Libraries/STM32F4xx_StdPeriph_Driver/src/stm32f4xx_i2c.c **** 
 945:App/STM32F4-Discovery/Libraries/STM32F4xx_StdPeriph_Driver/src/stm32f4xx_i2c.c ****           - When to use
 946:App/STM32F4-Discovery/Libraries/STM32F4xx_StdPeriph_Driver/src/stm32f4xx_i2c.c ****              - This function is suitable for the same applications above but it 
 947:App/STM32F4-Discovery/Libraries/STM32F4xx_StdPeriph_Driver/src/stm32f4xx_i2c.c ****                allows to overcome the mentioned limitation of I2C_GetFlagStatus() 
 948:App/STM32F4-Discovery/Libraries/STM32F4xx_StdPeriph_Driver/src/stm32f4xx_i2c.c ****                function.
 949:App/STM32F4-Discovery/Libraries/STM32F4xx_StdPeriph_Driver/src/stm32f4xx_i2c.c ****              - The returned value could be compared to events already defined in 
 950:App/STM32F4-Discovery/Libraries/STM32F4xx_StdPeriph_Driver/src/stm32f4xx_i2c.c ****                the library (stm32f4xx_i2c.h) or to custom values defined by user.
 951:App/STM32F4-Discovery/Libraries/STM32F4xx_StdPeriph_Driver/src/stm32f4xx_i2c.c ****                This function is suitable when multiple flags are monitored at the 
 952:App/STM32F4-Discovery/Libraries/STM32F4xx_StdPeriph_Driver/src/stm32f4xx_i2c.c ****                same time.
 953:App/STM32F4-Discovery/Libraries/STM32F4xx_StdPeriph_Driver/src/stm32f4xx_i2c.c ****              - At the opposite of I2C_CheckEvent() function, this function allows 
 954:App/STM32F4-Discovery/Libraries/STM32F4xx_StdPeriph_Driver/src/stm32f4xx_i2c.c ****                user to choose when an event is accepted (when all events flags are 
 955:App/STM32F4-Discovery/Libraries/STM32F4xx_StdPeriph_Driver/src/stm32f4xx_i2c.c ****                set and no other flags are set or just when the needed flags are set 
 956:App/STM32F4-Discovery/Libraries/STM32F4xx_StdPeriph_Driver/src/stm32f4xx_i2c.c ****                like I2C_CheckEvent() function.
 957:App/STM32F4-Discovery/Libraries/STM32F4xx_StdPeriph_Driver/src/stm32f4xx_i2c.c **** 
 958:App/STM32F4-Discovery/Libraries/STM32F4xx_StdPeriph_Driver/src/stm32f4xx_i2c.c ****           - Limitations
 959:App/STM32F4-Discovery/Libraries/STM32F4xx_StdPeriph_Driver/src/stm32f4xx_i2c.c ****              - User may need to define his own events.
 960:App/STM32F4-Discovery/Libraries/STM32F4xx_StdPeriph_Driver/src/stm32f4xx_i2c.c ****              - Same remark concerning the error management is applicable for this 
 961:App/STM32F4-Discovery/Libraries/STM32F4xx_StdPeriph_Driver/src/stm32f4xx_i2c.c ****                function if user decides to check only regular communication flags 
 962:App/STM32F4-Discovery/Libraries/STM32F4xx_StdPeriph_Driver/src/stm32f4xx_i2c.c ****                (and ignores error flags).
 963:App/STM32F4-Discovery/Libraries/STM32F4xx_StdPeriph_Driver/src/stm32f4xx_i2c.c ****       
 964:App/STM32F4-Discovery/Libraries/STM32F4xx_StdPeriph_Driver/src/stm32f4xx_i2c.c ****  
 965:App/STM32F4-Discovery/Libraries/STM32F4xx_StdPeriph_Driver/src/stm32f4xx_i2c.c ****      3. Flag-based state monitoring (Using the function I2C_GetFlagStatus())
 966:App/STM32F4-Discovery/Libraries/STM32F4xx_StdPeriph_Driver/src/stm32f4xx_i2c.c ****      -----------------------------------------------------------------------
 967:App/STM32F4-Discovery/Libraries/STM32F4xx_StdPeriph_Driver/src/stm32f4xx_i2c.c ****      
 968:App/STM32F4-Discovery/Libraries/STM32F4xx_StdPeriph_Driver/src/stm32f4xx_i2c.c ****       Using the function I2C_GetFlagStatus() which simply returns the status of 
 969:App/STM32F4-Discovery/Libraries/STM32F4xx_StdPeriph_Driver/src/stm32f4xx_i2c.c ****       one single flag (ie. I2C_FLAG_RXNE ...). 
 970:App/STM32F4-Discovery/Libraries/STM32F4xx_StdPeriph_Driver/src/stm32f4xx_i2c.c **** 
 971:App/STM32F4-Discovery/Libraries/STM32F4xx_StdPeriph_Driver/src/stm32f4xx_i2c.c ****           - When to use
 972:App/STM32F4-Discovery/Libraries/STM32F4xx_StdPeriph_Driver/src/stm32f4xx_i2c.c ****              - This function could be used for specific applications or in debug 
 973:App/STM32F4-Discovery/Libraries/STM32F4xx_StdPeriph_Driver/src/stm32f4xx_i2c.c ****                phase.
 974:App/STM32F4-Discovery/Libraries/STM32F4xx_StdPeriph_Driver/src/stm32f4xx_i2c.c ****              - It is suitable when only one flag checking is needed (most I2C 
 975:App/STM32F4-Discovery/Libraries/STM32F4xx_StdPeriph_Driver/src/stm32f4xx_i2c.c ****                events are monitored through multiple flags).
 976:App/STM32F4-Discovery/Libraries/STM32F4xx_StdPeriph_Driver/src/stm32f4xx_i2c.c ****           - Limitations: 
 977:App/STM32F4-Discovery/Libraries/STM32F4xx_StdPeriph_Driver/src/stm32f4xx_i2c.c ****              - When calling this function, the Status register is accessed. 
 978:App/STM32F4-Discovery/Libraries/STM32F4xx_StdPeriph_Driver/src/stm32f4xx_i2c.c ****                Some flags are cleared when the status register is accessed. 
 979:App/STM32F4-Discovery/Libraries/STM32F4xx_StdPeriph_Driver/src/stm32f4xx_i2c.c ****                So checking the status of one Flag, may clear other ones.
 980:App/STM32F4-Discovery/Libraries/STM32F4xx_StdPeriph_Driver/src/stm32f4xx_i2c.c ****              - Function may need to be called twice or more in order to monitor 
 981:App/STM32F4-Discovery/Libraries/STM32F4xx_StdPeriph_Driver/src/stm32f4xx_i2c.c ****                one single event.
 982:App/STM32F4-Discovery/Libraries/STM32F4xx_StdPeriph_Driver/src/stm32f4xx_i2c.c ****  
 983:App/STM32F4-Discovery/Libraries/STM32F4xx_StdPeriph_Driver/src/stm32f4xx_i2c.c ****    For detailed description of Events, please refer to section I2C_Events in 
 984:App/STM32F4-Discovery/Libraries/STM32F4xx_StdPeriph_Driver/src/stm32f4xx_i2c.c ****    stm32f4xx_i2c.h file.
 985:App/STM32F4-Discovery/Libraries/STM32F4xx_StdPeriph_Driver/src/stm32f4xx_i2c.c ****        
 986:App/STM32F4-Discovery/Libraries/STM32F4xx_StdPeriph_Driver/src/stm32f4xx_i2c.c **** @endverbatim
 987:App/STM32F4-Discovery/Libraries/STM32F4xx_StdPeriph_Driver/src/stm32f4xx_i2c.c ****   * @{
 988:App/STM32F4-Discovery/Libraries/STM32F4xx_StdPeriph_Driver/src/stm32f4xx_i2c.c ****   */
 989:App/STM32F4-Discovery/Libraries/STM32F4xx_StdPeriph_Driver/src/stm32f4xx_i2c.c ****    
 990:App/STM32F4-Discovery/Libraries/STM32F4xx_StdPeriph_Driver/src/stm32f4xx_i2c.c **** /**
 991:App/STM32F4-Discovery/Libraries/STM32F4xx_StdPeriph_Driver/src/stm32f4xx_i2c.c ****   * @brief  Reads the specified I2C register and returns its value.
 992:App/STM32F4-Discovery/Libraries/STM32F4xx_StdPeriph_Driver/src/stm32f4xx_i2c.c ****   * @param  I2C_Register: specifies the register to read.
 993:App/STM32F4-Discovery/Libraries/STM32F4xx_StdPeriph_Driver/src/stm32f4xx_i2c.c ****   *          This parameter can be one of the following values:
 994:App/STM32F4-Discovery/Libraries/STM32F4xx_StdPeriph_Driver/src/stm32f4xx_i2c.c ****   *            @arg I2C_Register_CR1:  CR1 register.
 995:App/STM32F4-Discovery/Libraries/STM32F4xx_StdPeriph_Driver/src/stm32f4xx_i2c.c ****   *            @arg I2C_Register_CR2:   CR2 register.
 996:App/STM32F4-Discovery/Libraries/STM32F4xx_StdPeriph_Driver/src/stm32f4xx_i2c.c ****   *            @arg I2C_Register_OAR1:  OAR1 register.
 997:App/STM32F4-Discovery/Libraries/STM32F4xx_StdPeriph_Driver/src/stm32f4xx_i2c.c ****   *            @arg I2C_Register_OAR2:  OAR2 register.
 998:App/STM32F4-Discovery/Libraries/STM32F4xx_StdPeriph_Driver/src/stm32f4xx_i2c.c ****   *            @arg I2C_Register_DR:    DR register.
 999:App/STM32F4-Discovery/Libraries/STM32F4xx_StdPeriph_Driver/src/stm32f4xx_i2c.c ****   *            @arg I2C_Register_SR1:   SR1 register.
1000:App/STM32F4-Discovery/Libraries/STM32F4xx_StdPeriph_Driver/src/stm32f4xx_i2c.c ****   *            @arg I2C_Register_SR2:   SR2 register.
1001:App/STM32F4-Discovery/Libraries/STM32F4xx_StdPeriph_Driver/src/stm32f4xx_i2c.c ****   *            @arg I2C_Register_CCR:   CCR register.
1002:App/STM32F4-Discovery/Libraries/STM32F4xx_StdPeriph_Driver/src/stm32f4xx_i2c.c ****   *            @arg I2C_Register_TRISE: TRISE register.
1003:App/STM32F4-Discovery/Libraries/STM32F4xx_StdPeriph_Driver/src/stm32f4xx_i2c.c ****   * @retval The value of the read register.
1004:App/STM32F4-Discovery/Libraries/STM32F4xx_StdPeriph_Driver/src/stm32f4xx_i2c.c ****   */
1005:App/STM32F4-Discovery/Libraries/STM32F4xx_StdPeriph_Driver/src/stm32f4xx_i2c.c **** uint16_t I2C_ReadRegister(I2C_TypeDef* I2Cx, uint8_t I2C_Register)
1006:App/STM32F4-Discovery/Libraries/STM32F4xx_StdPeriph_Driver/src/stm32f4xx_i2c.c **** {
 2509              		.loc 1 1006 0
 2510              		.cfi_startproc
 2511              		@ args = 0, pretend = 0, frame = 16
 2512              		@ frame_needed = 1, uses_anonymous_args = 0
 2513 0000 80B5     		push	{r7, lr}
 2514              	.LCFI75:
 2515              		.cfi_def_cfa_offset 8
 2516              		.cfi_offset 7, -8
 2517              		.cfi_offset 14, -4
 2518 0002 84B0     		sub	sp, sp, #16
 2519              	.LCFI76:
 2520              		.cfi_def_cfa_offset 24
 2521 0004 00AF     		add	r7, sp, #0
 2522              	.LCFI77:
 2523              		.cfi_def_cfa_register 7
 2524 0006 7860     		str	r0, [r7, #4]
 2525 0008 0B46     		mov	r3, r1
 2526 000a FB70     		strb	r3, [r7, #3]
1007:App/STM32F4-Discovery/Libraries/STM32F4xx_StdPeriph_Driver/src/stm32f4xx_i2c.c ****   __IO uint32_t tmp = 0;
 2527              		.loc 1 1007 0
 2528 000c 0023     		movs	r3, #0
 2529 000e FB60     		str	r3, [r7, #12]
1008:App/STM32F4-Discovery/Libraries/STM32F4xx_StdPeriph_Driver/src/stm32f4xx_i2c.c **** 
1009:App/STM32F4-Discovery/Libraries/STM32F4xx_StdPeriph_Driver/src/stm32f4xx_i2c.c ****   /* Check the parameters */
1010:App/STM32F4-Discovery/Libraries/STM32F4xx_StdPeriph_Driver/src/stm32f4xx_i2c.c ****   assert_param(IS_I2C_ALL_PERIPH(I2Cx));
 2530              		.loc 1 1010 0
 2531 0010 7A68     		ldr	r2, [r7, #4]
 2532 0012 1E4B     		ldr	r3, .L174
 2533 0014 9A42     		cmp	r2, r3
 2534 0016 0CD0     		beq	.L171
 2535              		.loc 1 1010 0 is_stmt 0 discriminator 1
 2536 0018 7A68     		ldr	r2, [r7, #4]
 2537 001a 1D4B     		ldr	r3, .L174+4
 2538 001c 9A42     		cmp	r2, r3
 2539 001e 08D0     		beq	.L171
 2540 0020 7A68     		ldr	r2, [r7, #4]
 2541 0022 1C4B     		ldr	r3, .L174+8
 2542 0024 9A42     		cmp	r2, r3
 2543 0026 04D0     		beq	.L171
 2544 0028 1B48     		ldr	r0, .L174+12
 2545 002a 40F2F231 		movw	r1, #1010
 2546 002e FFF7FEFF 		bl	assert_failed
 2547              	.L171:
1011:App/STM32F4-Discovery/Libraries/STM32F4xx_StdPeriph_Driver/src/stm32f4xx_i2c.c ****   assert_param(IS_I2C_REGISTER(I2C_Register));
 2548              		.loc 1 1011 0 is_stmt 1
 2549 0032 FB78     		ldrb	r3, [r7, #3]	@ zero_extendqisi2
 2550 0034 002B     		cmp	r3, #0
 2551 0036 1CD0     		beq	.L172
 2552              		.loc 1 1011 0 is_stmt 0 discriminator 1
 2553 0038 FB78     		ldrb	r3, [r7, #3]	@ zero_extendqisi2
 2554 003a 042B     		cmp	r3, #4
 2555 003c 19D0     		beq	.L172
 2556 003e FB78     		ldrb	r3, [r7, #3]	@ zero_extendqisi2
 2557 0040 082B     		cmp	r3, #8
 2558 0042 16D0     		beq	.L172
 2559 0044 FB78     		ldrb	r3, [r7, #3]	@ zero_extendqisi2
 2560 0046 0C2B     		cmp	r3, #12
 2561 0048 13D0     		beq	.L172
 2562 004a FB78     		ldrb	r3, [r7, #3]	@ zero_extendqisi2
 2563 004c 102B     		cmp	r3, #16
 2564 004e 10D0     		beq	.L172
 2565 0050 FB78     		ldrb	r3, [r7, #3]	@ zero_extendqisi2
 2566 0052 142B     		cmp	r3, #20
 2567 0054 0DD0     		beq	.L172
 2568 0056 FB78     		ldrb	r3, [r7, #3]	@ zero_extendqisi2
 2569 0058 182B     		cmp	r3, #24
 2570 005a 0AD0     		beq	.L172
 2571 005c FB78     		ldrb	r3, [r7, #3]	@ zero_extendqisi2
 2572 005e 1C2B     		cmp	r3, #28
 2573 0060 07D0     		beq	.L172
 2574 0062 FB78     		ldrb	r3, [r7, #3]	@ zero_extendqisi2
 2575 0064 202B     		cmp	r3, #32
 2576 0066 04D0     		beq	.L172
 2577 0068 0B48     		ldr	r0, .L174+12
 2578 006a 40F2F331 		movw	r1, #1011
 2579 006e FFF7FEFF 		bl	assert_failed
 2580              	.L172:
1012:App/STM32F4-Discovery/Libraries/STM32F4xx_StdPeriph_Driver/src/stm32f4xx_i2c.c **** 
1013:App/STM32F4-Discovery/Libraries/STM32F4xx_StdPeriph_Driver/src/stm32f4xx_i2c.c ****   tmp = (uint32_t) I2Cx;
 2581              		.loc 1 1013 0 is_stmt 1
 2582 0072 7B68     		ldr	r3, [r7, #4]
 2583 0074 FB60     		str	r3, [r7, #12]
1014:App/STM32F4-Discovery/Libraries/STM32F4xx_StdPeriph_Driver/src/stm32f4xx_i2c.c ****   tmp += I2C_Register;
 2584              		.loc 1 1014 0
 2585 0076 FA78     		ldrb	r2, [r7, #3]	@ zero_extendqisi2
 2586 0078 FB68     		ldr	r3, [r7, #12]
 2587 007a 1344     		add	r3, r3, r2
 2588 007c FB60     		str	r3, [r7, #12]
1015:App/STM32F4-Discovery/Libraries/STM32F4xx_StdPeriph_Driver/src/stm32f4xx_i2c.c **** 
1016:App/STM32F4-Discovery/Libraries/STM32F4xx_StdPeriph_Driver/src/stm32f4xx_i2c.c ****   /* Return the selected register value */
1017:App/STM32F4-Discovery/Libraries/STM32F4xx_StdPeriph_Driver/src/stm32f4xx_i2c.c ****   return (*(__IO uint16_t *) tmp);
 2589              		.loc 1 1017 0
 2590 007e FB68     		ldr	r3, [r7, #12]
 2591 0080 1B88     		ldrh	r3, [r3]	@ movhi
 2592 0082 9BB2     		uxth	r3, r3
1018:App/STM32F4-Discovery/Libraries/STM32F4xx_StdPeriph_Driver/src/stm32f4xx_i2c.c **** }
 2593              		.loc 1 1018 0
 2594 0084 1846     		mov	r0, r3
 2595 0086 1037     		adds	r7, r7, #16
 2596 0088 BD46     		mov	sp, r7
 2597              		@ sp needed
 2598 008a 80BD     		pop	{r7, pc}
 2599              	.L175:
 2600              		.align	2
 2601              	.L174:
 2602 008c 00540040 		.word	1073763328
 2603 0090 00580040 		.word	1073764352
 2604 0094 005C0040 		.word	1073765376
 2605 0098 00000000 		.word	.LC0
 2606              		.cfi_endproc
 2607              	.LFE135:
 2609              		.section	.text.I2C_ITConfig,"ax",%progbits
 2610              		.align	2
 2611              		.global	I2C_ITConfig
 2612              		.thumb
 2613              		.thumb_func
 2615              	I2C_ITConfig:
 2616              	.LFB136:
1019:App/STM32F4-Discovery/Libraries/STM32F4xx_StdPeriph_Driver/src/stm32f4xx_i2c.c **** 
1020:App/STM32F4-Discovery/Libraries/STM32F4xx_StdPeriph_Driver/src/stm32f4xx_i2c.c **** /**
1021:App/STM32F4-Discovery/Libraries/STM32F4xx_StdPeriph_Driver/src/stm32f4xx_i2c.c ****   * @brief  Enables or disables the specified I2C interrupts.
1022:App/STM32F4-Discovery/Libraries/STM32F4xx_StdPeriph_Driver/src/stm32f4xx_i2c.c ****   * @param  I2Cx: where x can be 1, 2 or 3 to select the I2C peripheral.
1023:App/STM32F4-Discovery/Libraries/STM32F4xx_StdPeriph_Driver/src/stm32f4xx_i2c.c ****   * @param  I2C_IT: specifies the I2C interrupts sources to be enabled or disabled. 
1024:App/STM32F4-Discovery/Libraries/STM32F4xx_StdPeriph_Driver/src/stm32f4xx_i2c.c ****   *          This parameter can be any combination of the following values:
1025:App/STM32F4-Discovery/Libraries/STM32F4xx_StdPeriph_Driver/src/stm32f4xx_i2c.c ****   *            @arg I2C_IT_BUF: Buffer interrupt mask
1026:App/STM32F4-Discovery/Libraries/STM32F4xx_StdPeriph_Driver/src/stm32f4xx_i2c.c ****   *            @arg I2C_IT_EVT: Event interrupt mask
1027:App/STM32F4-Discovery/Libraries/STM32F4xx_StdPeriph_Driver/src/stm32f4xx_i2c.c ****   *            @arg I2C_IT_ERR: Error interrupt mask
1028:App/STM32F4-Discovery/Libraries/STM32F4xx_StdPeriph_Driver/src/stm32f4xx_i2c.c ****   * @param  NewState: new state of the specified I2C interrupts.
1029:App/STM32F4-Discovery/Libraries/STM32F4xx_StdPeriph_Driver/src/stm32f4xx_i2c.c ****   *          This parameter can be: ENABLE or DISABLE.
1030:App/STM32F4-Discovery/Libraries/STM32F4xx_StdPeriph_Driver/src/stm32f4xx_i2c.c ****   * @retval None
1031:App/STM32F4-Discovery/Libraries/STM32F4xx_StdPeriph_Driver/src/stm32f4xx_i2c.c ****   */
1032:App/STM32F4-Discovery/Libraries/STM32F4xx_StdPeriph_Driver/src/stm32f4xx_i2c.c **** void I2C_ITConfig(I2C_TypeDef* I2Cx, uint16_t I2C_IT, FunctionalState NewState)
1033:App/STM32F4-Discovery/Libraries/STM32F4xx_StdPeriph_Driver/src/stm32f4xx_i2c.c **** {
 2617              		.loc 1 1033 0
 2618              		.cfi_startproc
 2619              		@ args = 0, pretend = 0, frame = 8
 2620              		@ frame_needed = 1, uses_anonymous_args = 0
 2621 0000 80B5     		push	{r7, lr}
 2622              	.LCFI78:
 2623              		.cfi_def_cfa_offset 8
 2624              		.cfi_offset 7, -8
 2625              		.cfi_offset 14, -4
 2626 0002 82B0     		sub	sp, sp, #8
 2627              	.LCFI79:
 2628              		.cfi_def_cfa_offset 16
 2629 0004 00AF     		add	r7, sp, #0
 2630              	.LCFI80:
 2631              		.cfi_def_cfa_register 7
 2632 0006 7860     		str	r0, [r7, #4]
 2633 0008 1346     		mov	r3, r2
 2634 000a 0A46     		mov	r2, r1	@ movhi
 2635 000c 7A80     		strh	r2, [r7, #2]	@ movhi
 2636 000e 7B70     		strb	r3, [r7, #1]
1034:App/STM32F4-Discovery/Libraries/STM32F4xx_StdPeriph_Driver/src/stm32f4xx_i2c.c ****   /* Check the parameters */
1035:App/STM32F4-Discovery/Libraries/STM32F4xx_StdPeriph_Driver/src/stm32f4xx_i2c.c ****   assert_param(IS_I2C_ALL_PERIPH(I2Cx));
 2637              		.loc 1 1035 0
 2638 0010 7A68     		ldr	r2, [r7, #4]
 2639 0012 214B     		ldr	r3, .L183
 2640 0014 9A42     		cmp	r2, r3
 2641 0016 0CD0     		beq	.L177
 2642              		.loc 1 1035 0 is_stmt 0 discriminator 1
 2643 0018 7A68     		ldr	r2, [r7, #4]
 2644 001a 204B     		ldr	r3, .L183+4
 2645 001c 9A42     		cmp	r2, r3
 2646 001e 08D0     		beq	.L177
 2647 0020 7A68     		ldr	r2, [r7, #4]
 2648 0022 1F4B     		ldr	r3, .L183+8
 2649 0024 9A42     		cmp	r2, r3
 2650 0026 04D0     		beq	.L177
 2651 0028 1E48     		ldr	r0, .L183+12
 2652 002a 40F20B41 		movw	r1, #1035
 2653 002e FFF7FEFF 		bl	assert_failed
 2654              	.L177:
1036:App/STM32F4-Discovery/Libraries/STM32F4xx_StdPeriph_Driver/src/stm32f4xx_i2c.c ****   assert_param(IS_FUNCTIONAL_STATE(NewState));
 2655              		.loc 1 1036 0 is_stmt 1
 2656 0032 7B78     		ldrb	r3, [r7, #1]	@ zero_extendqisi2
 2657 0034 002B     		cmp	r3, #0
 2658 0036 07D0     		beq	.L178
 2659              		.loc 1 1036 0 is_stmt 0 discriminator 1
 2660 0038 7B78     		ldrb	r3, [r7, #1]	@ zero_extendqisi2
 2661 003a 012B     		cmp	r3, #1
 2662 003c 04D0     		beq	.L178
 2663 003e 1948     		ldr	r0, .L183+12
 2664 0040 40F20C41 		movw	r1, #1036
 2665 0044 FFF7FEFF 		bl	assert_failed
 2666              	.L178:
1037:App/STM32F4-Discovery/Libraries/STM32F4xx_StdPeriph_Driver/src/stm32f4xx_i2c.c ****   assert_param(IS_I2C_CONFIG_IT(I2C_IT));
 2667              		.loc 1 1037 0 is_stmt 1
 2668 0048 7A88     		ldrh	r2, [r7, #2]
 2669 004a 4FF6FF03 		movw	r3, #63743
 2670 004e 1340     		ands	r3, r3, r2
 2671 0050 002B     		cmp	r3, #0
 2672 0052 02D1     		bne	.L179
 2673              		.loc 1 1037 0 is_stmt 0 discriminator 2
 2674 0054 7B88     		ldrh	r3, [r7, #2]
 2675 0056 002B     		cmp	r3, #0
 2676 0058 04D1     		bne	.L180
 2677              	.L179:
 2678              		.loc 1 1037 0 discriminator 1
 2679 005a 1248     		ldr	r0, .L183+12
 2680 005c 40F20D41 		movw	r1, #1037
 2681 0060 FFF7FEFF 		bl	assert_failed
 2682              	.L180:
1038:App/STM32F4-Discovery/Libraries/STM32F4xx_StdPeriph_Driver/src/stm32f4xx_i2c.c ****   
1039:App/STM32F4-Discovery/Libraries/STM32F4xx_StdPeriph_Driver/src/stm32f4xx_i2c.c ****   if (NewState != DISABLE)
 2683              		.loc 1 1039 0 is_stmt 1
 2684 0064 7B78     		ldrb	r3, [r7, #1]	@ zero_extendqisi2
 2685 0066 002B     		cmp	r3, #0
 2686 0068 08D0     		beq	.L181
1040:App/STM32F4-Discovery/Libraries/STM32F4xx_StdPeriph_Driver/src/stm32f4xx_i2c.c ****   {
1041:App/STM32F4-Discovery/Libraries/STM32F4xx_StdPeriph_Driver/src/stm32f4xx_i2c.c ****     /* Enable the selected I2C interrupts */
1042:App/STM32F4-Discovery/Libraries/STM32F4xx_StdPeriph_Driver/src/stm32f4xx_i2c.c ****     I2Cx->CR2 |= I2C_IT;
 2687              		.loc 1 1042 0
 2688 006a 7B68     		ldr	r3, [r7, #4]
 2689 006c 9B88     		ldrh	r3, [r3, #4]	@ movhi
 2690 006e 9AB2     		uxth	r2, r3
 2691 0070 7B88     		ldrh	r3, [r7, #2]	@ movhi
 2692 0072 1343     		orrs	r3, r3, r2
 2693 0074 9AB2     		uxth	r2, r3
 2694 0076 7B68     		ldr	r3, [r7, #4]
 2695 0078 9A80     		strh	r2, [r3, #4]	@ movhi
 2696 007a 09E0     		b	.L176
 2697              	.L181:
1043:App/STM32F4-Discovery/Libraries/STM32F4xx_StdPeriph_Driver/src/stm32f4xx_i2c.c ****   }
1044:App/STM32F4-Discovery/Libraries/STM32F4xx_StdPeriph_Driver/src/stm32f4xx_i2c.c ****   else
1045:App/STM32F4-Discovery/Libraries/STM32F4xx_StdPeriph_Driver/src/stm32f4xx_i2c.c ****   {
1046:App/STM32F4-Discovery/Libraries/STM32F4xx_StdPeriph_Driver/src/stm32f4xx_i2c.c ****     /* Disable the selected I2C interrupts */
1047:App/STM32F4-Discovery/Libraries/STM32F4xx_StdPeriph_Driver/src/stm32f4xx_i2c.c ****     I2Cx->CR2 &= (uint16_t)~I2C_IT;
 2698              		.loc 1 1047 0
 2699 007c 7B68     		ldr	r3, [r7, #4]
 2700 007e 9B88     		ldrh	r3, [r3, #4]	@ movhi
 2701 0080 9AB2     		uxth	r2, r3
 2702 0082 7B88     		ldrh	r3, [r7, #2]	@ movhi
 2703 0084 DB43     		mvns	r3, r3
 2704 0086 9BB2     		uxth	r3, r3
 2705 0088 1340     		ands	r3, r3, r2
 2706 008a 9AB2     		uxth	r2, r3
 2707 008c 7B68     		ldr	r3, [r7, #4]
 2708 008e 9A80     		strh	r2, [r3, #4]	@ movhi
 2709              	.L176:
1048:App/STM32F4-Discovery/Libraries/STM32F4xx_StdPeriph_Driver/src/stm32f4xx_i2c.c ****   }
1049:App/STM32F4-Discovery/Libraries/STM32F4xx_StdPeriph_Driver/src/stm32f4xx_i2c.c **** }
 2710              		.loc 1 1049 0
 2711 0090 0837     		adds	r7, r7, #8
 2712 0092 BD46     		mov	sp, r7
 2713              		@ sp needed
 2714 0094 80BD     		pop	{r7, pc}
 2715              	.L184:
 2716 0096 00BF     		.align	2
 2717              	.L183:
 2718 0098 00540040 		.word	1073763328
 2719 009c 00580040 		.word	1073764352
 2720 00a0 005C0040 		.word	1073765376
 2721 00a4 00000000 		.word	.LC0
 2722              		.cfi_endproc
 2723              	.LFE136:
 2725              		.section	.text.I2C_CheckEvent,"ax",%progbits
 2726              		.align	2
 2727              		.global	I2C_CheckEvent
 2728              		.thumb
 2729              		.thumb_func
 2731              	I2C_CheckEvent:
 2732              	.LFB137:
1050:App/STM32F4-Discovery/Libraries/STM32F4xx_StdPeriph_Driver/src/stm32f4xx_i2c.c **** 
1051:App/STM32F4-Discovery/Libraries/STM32F4xx_StdPeriph_Driver/src/stm32f4xx_i2c.c **** /*
1052:App/STM32F4-Discovery/Libraries/STM32F4xx_StdPeriph_Driver/src/stm32f4xx_i2c.c ****  ===============================================================================
1053:App/STM32F4-Discovery/Libraries/STM32F4xx_StdPeriph_Driver/src/stm32f4xx_i2c.c ****                           1. Basic state monitoring                    
1054:App/STM32F4-Discovery/Libraries/STM32F4xx_StdPeriph_Driver/src/stm32f4xx_i2c.c ****  ===============================================================================  
1055:App/STM32F4-Discovery/Libraries/STM32F4xx_StdPeriph_Driver/src/stm32f4xx_i2c.c ****  */
1056:App/STM32F4-Discovery/Libraries/STM32F4xx_StdPeriph_Driver/src/stm32f4xx_i2c.c **** 
1057:App/STM32F4-Discovery/Libraries/STM32F4xx_StdPeriph_Driver/src/stm32f4xx_i2c.c **** /**
1058:App/STM32F4-Discovery/Libraries/STM32F4xx_StdPeriph_Driver/src/stm32f4xx_i2c.c ****   * @brief  Checks whether the last I2Cx Event is equal to the one passed
1059:App/STM32F4-Discovery/Libraries/STM32F4xx_StdPeriph_Driver/src/stm32f4xx_i2c.c ****   *         as parameter.
1060:App/STM32F4-Discovery/Libraries/STM32F4xx_StdPeriph_Driver/src/stm32f4xx_i2c.c ****   * @param  I2Cx: where x can be 1, 2 or 3 to select the I2C peripheral.
1061:App/STM32F4-Discovery/Libraries/STM32F4xx_StdPeriph_Driver/src/stm32f4xx_i2c.c ****   * @param  I2C_EVENT: specifies the event to be checked. 
1062:App/STM32F4-Discovery/Libraries/STM32F4xx_StdPeriph_Driver/src/stm32f4xx_i2c.c ****   *          This parameter can be one of the following values:
1063:App/STM32F4-Discovery/Libraries/STM32F4xx_StdPeriph_Driver/src/stm32f4xx_i2c.c ****   *            @arg I2C_EVENT_SLAVE_TRANSMITTER_ADDRESS_MATCHED: EV1
1064:App/STM32F4-Discovery/Libraries/STM32F4xx_StdPeriph_Driver/src/stm32f4xx_i2c.c ****   *            @arg I2C_EVENT_SLAVE_RECEIVER_ADDRESS_MATCHED: EV1
1065:App/STM32F4-Discovery/Libraries/STM32F4xx_StdPeriph_Driver/src/stm32f4xx_i2c.c ****   *            @arg I2C_EVENT_SLAVE_TRANSMITTER_SECONDADDRESS_MATCHED: EV1
1066:App/STM32F4-Discovery/Libraries/STM32F4xx_StdPeriph_Driver/src/stm32f4xx_i2c.c ****   *            @arg I2C_EVENT_SLAVE_RECEIVER_SECONDADDRESS_MATCHED: EV1
1067:App/STM32F4-Discovery/Libraries/STM32F4xx_StdPeriph_Driver/src/stm32f4xx_i2c.c ****   *            @arg I2C_EVENT_SLAVE_GENERALCALLADDRESS_MATCHED: EV1
1068:App/STM32F4-Discovery/Libraries/STM32F4xx_StdPeriph_Driver/src/stm32f4xx_i2c.c ****   *            @arg I2C_EVENT_SLAVE_BYTE_RECEIVED: EV2
1069:App/STM32F4-Discovery/Libraries/STM32F4xx_StdPeriph_Driver/src/stm32f4xx_i2c.c ****   *            @arg (I2C_EVENT_SLAVE_BYTE_RECEIVED | I2C_FLAG_DUALF): EV2
1070:App/STM32F4-Discovery/Libraries/STM32F4xx_StdPeriph_Driver/src/stm32f4xx_i2c.c ****   *            @arg (I2C_EVENT_SLAVE_BYTE_RECEIVED | I2C_FLAG_GENCALL): EV2
1071:App/STM32F4-Discovery/Libraries/STM32F4xx_StdPeriph_Driver/src/stm32f4xx_i2c.c ****   *            @arg I2C_EVENT_SLAVE_BYTE_TRANSMITTED: EV3
1072:App/STM32F4-Discovery/Libraries/STM32F4xx_StdPeriph_Driver/src/stm32f4xx_i2c.c ****   *            @arg (I2C_EVENT_SLAVE_BYTE_TRANSMITTED | I2C_FLAG_DUALF): EV3
1073:App/STM32F4-Discovery/Libraries/STM32F4xx_StdPeriph_Driver/src/stm32f4xx_i2c.c ****   *            @arg (I2C_EVENT_SLAVE_BYTE_TRANSMITTED | I2C_FLAG_GENCALL): EV3
1074:App/STM32F4-Discovery/Libraries/STM32F4xx_StdPeriph_Driver/src/stm32f4xx_i2c.c ****   *            @arg I2C_EVENT_SLAVE_ACK_FAILURE: EV3_2
1075:App/STM32F4-Discovery/Libraries/STM32F4xx_StdPeriph_Driver/src/stm32f4xx_i2c.c ****   *            @arg I2C_EVENT_SLAVE_STOP_DETECTED: EV4
1076:App/STM32F4-Discovery/Libraries/STM32F4xx_StdPeriph_Driver/src/stm32f4xx_i2c.c ****   *            @arg I2C_EVENT_MASTER_MODE_SELECT: EV5
1077:App/STM32F4-Discovery/Libraries/STM32F4xx_StdPeriph_Driver/src/stm32f4xx_i2c.c ****   *            @arg I2C_EVENT_MASTER_TRANSMITTER_MODE_SELECTED: EV6     
1078:App/STM32F4-Discovery/Libraries/STM32F4xx_StdPeriph_Driver/src/stm32f4xx_i2c.c ****   *            @arg I2C_EVENT_MASTER_RECEIVER_MODE_SELECTED: EV6
1079:App/STM32F4-Discovery/Libraries/STM32F4xx_StdPeriph_Driver/src/stm32f4xx_i2c.c ****   *            @arg I2C_EVENT_MASTER_BYTE_RECEIVED: EV7
1080:App/STM32F4-Discovery/Libraries/STM32F4xx_StdPeriph_Driver/src/stm32f4xx_i2c.c ****   *            @arg I2C_EVENT_MASTER_BYTE_TRANSMITTING: EV8
1081:App/STM32F4-Discovery/Libraries/STM32F4xx_StdPeriph_Driver/src/stm32f4xx_i2c.c ****   *            @arg I2C_EVENT_MASTER_BYTE_TRANSMITTED: EV8_2
1082:App/STM32F4-Discovery/Libraries/STM32F4xx_StdPeriph_Driver/src/stm32f4xx_i2c.c ****   *            @arg I2C_EVENT_MASTER_MODE_ADDRESS10: EV9
1083:App/STM32F4-Discovery/Libraries/STM32F4xx_StdPeriph_Driver/src/stm32f4xx_i2c.c ****   *     
1084:App/STM32F4-Discovery/Libraries/STM32F4xx_StdPeriph_Driver/src/stm32f4xx_i2c.c ****   * @note   For detailed description of Events, please refer to section I2C_Events
1085:App/STM32F4-Discovery/Libraries/STM32F4xx_StdPeriph_Driver/src/stm32f4xx_i2c.c ****   *         in stm32f4xx_i2c.h file.
1086:App/STM32F4-Discovery/Libraries/STM32F4xx_StdPeriph_Driver/src/stm32f4xx_i2c.c ****   *    
1087:App/STM32F4-Discovery/Libraries/STM32F4xx_StdPeriph_Driver/src/stm32f4xx_i2c.c ****   * @retval An ErrorStatus enumeration value:
1088:App/STM32F4-Discovery/Libraries/STM32F4xx_StdPeriph_Driver/src/stm32f4xx_i2c.c ****   *           - SUCCESS: Last event is equal to the I2C_EVENT
1089:App/STM32F4-Discovery/Libraries/STM32F4xx_StdPeriph_Driver/src/stm32f4xx_i2c.c ****   *           - ERROR: Last event is different from the I2C_EVENT
1090:App/STM32F4-Discovery/Libraries/STM32F4xx_StdPeriph_Driver/src/stm32f4xx_i2c.c ****   */
1091:App/STM32F4-Discovery/Libraries/STM32F4xx_StdPeriph_Driver/src/stm32f4xx_i2c.c **** ErrorStatus I2C_CheckEvent(I2C_TypeDef* I2Cx, uint32_t I2C_EVENT)
1092:App/STM32F4-Discovery/Libraries/STM32F4xx_StdPeriph_Driver/src/stm32f4xx_i2c.c **** {
 2733              		.loc 1 1092 0
 2734              		.cfi_startproc
 2735              		@ args = 0, pretend = 0, frame = 24
 2736              		@ frame_needed = 1, uses_anonymous_args = 0
 2737 0000 80B5     		push	{r7, lr}
 2738              	.LCFI81:
 2739              		.cfi_def_cfa_offset 8
 2740              		.cfi_offset 7, -8
 2741              		.cfi_offset 14, -4
 2742 0002 86B0     		sub	sp, sp, #24
 2743              	.LCFI82:
 2744              		.cfi_def_cfa_offset 32
 2745 0004 00AF     		add	r7, sp, #0
 2746              	.LCFI83:
 2747              		.cfi_def_cfa_register 7
 2748 0006 7860     		str	r0, [r7, #4]
 2749 0008 3960     		str	r1, [r7]
1093:App/STM32F4-Discovery/Libraries/STM32F4xx_StdPeriph_Driver/src/stm32f4xx_i2c.c ****   uint32_t lastevent = 0;
 2750              		.loc 1 1093 0
 2751 000a 0023     		movs	r3, #0
 2752 000c 3B61     		str	r3, [r7, #16]
1094:App/STM32F4-Discovery/Libraries/STM32F4xx_StdPeriph_Driver/src/stm32f4xx_i2c.c ****   uint32_t flag1 = 0, flag2 = 0;
 2753              		.loc 1 1094 0
 2754 000e 0023     		movs	r3, #0
 2755 0010 FB60     		str	r3, [r7, #12]
 2756 0012 0023     		movs	r3, #0
 2757 0014 BB60     		str	r3, [r7, #8]
1095:App/STM32F4-Discovery/Libraries/STM32F4xx_StdPeriph_Driver/src/stm32f4xx_i2c.c ****   ErrorStatus status = ERROR;
 2758              		.loc 1 1095 0
 2759 0016 0023     		movs	r3, #0
 2760 0018 FB75     		strb	r3, [r7, #23]
1096:App/STM32F4-Discovery/Libraries/STM32F4xx_StdPeriph_Driver/src/stm32f4xx_i2c.c **** 
1097:App/STM32F4-Discovery/Libraries/STM32F4xx_StdPeriph_Driver/src/stm32f4xx_i2c.c ****   /* Check the parameters */
1098:App/STM32F4-Discovery/Libraries/STM32F4xx_StdPeriph_Driver/src/stm32f4xx_i2c.c ****   assert_param(IS_I2C_ALL_PERIPH(I2Cx));
 2761              		.loc 1 1098 0
 2762 001a 7A68     		ldr	r2, [r7, #4]
 2763 001c 424B     		ldr	r3, .L191
 2764 001e 9A42     		cmp	r2, r3
 2765 0020 0CD0     		beq	.L186
 2766              		.loc 1 1098 0 is_stmt 0 discriminator 1
 2767 0022 7A68     		ldr	r2, [r7, #4]
 2768 0024 414B     		ldr	r3, .L191+4
 2769 0026 9A42     		cmp	r2, r3
 2770 0028 08D0     		beq	.L186
 2771 002a 7A68     		ldr	r2, [r7, #4]
 2772 002c 404B     		ldr	r3, .L191+8
 2773 002e 9A42     		cmp	r2, r3
 2774 0030 04D0     		beq	.L186
 2775 0032 4048     		ldr	r0, .L191+12
 2776 0034 40F24A41 		movw	r1, #1098
 2777 0038 FFF7FEFF 		bl	assert_failed
 2778              	.L186:
1099:App/STM32F4-Discovery/Libraries/STM32F4xx_StdPeriph_Driver/src/stm32f4xx_i2c.c ****   assert_param(IS_I2C_EVENT(I2C_EVENT));
 2779              		.loc 1 1099 0 is_stmt 1
 2780 003c 3A68     		ldr	r2, [r7]
 2781 003e 3E4B     		ldr	r3, .L191+16
 2782 0040 9A42     		cmp	r2, r3
 2783 0042 4FD0     		beq	.L187
 2784              		.loc 1 1099 0 is_stmt 0 discriminator 1
 2785 0044 3B68     		ldr	r3, [r7]
 2786 0046 B3F1021F 		cmp	r3, #131074
 2787 004a 4BD0     		beq	.L187
 2788 004c 3A68     		ldr	r2, [r7]
 2789 004e 3B4B     		ldr	r3, .L191+20
 2790 0050 9A42     		cmp	r2, r3
 2791 0052 47D0     		beq	.L187
 2792 0054 3B68     		ldr	r3, [r7]
 2793 0056 B3F5020F 		cmp	r3, #8519680
 2794 005a 43D0     		beq	.L187
 2795 005c 3B68     		ldr	r3, [r7]
 2796 005e B3F5901F 		cmp	r3, #1179648
 2797 0062 3FD0     		beq	.L187
 2798 0064 3A68     		ldr	r2, [r7]
 2799 0066 364B     		ldr	r3, .L191+24
 2800 0068 9A42     		cmp	r2, r3
 2801 006a 3BD0     		beq	.L187
 2802 006c 3A68     		ldr	r2, [r7]
 2803 006e 354B     		ldr	r3, .L191+28
 2804 0070 9A42     		cmp	r2, r3
 2805 0072 37D0     		beq	.L187
 2806 0074 3A68     		ldr	r2, [r7]
 2807 0076 344B     		ldr	r3, .L191+32
 2808 0078 9A42     		cmp	r2, r3
 2809 007a 33D0     		beq	.L187
 2810 007c 3A68     		ldr	r2, [r7]
 2811 007e 334B     		ldr	r3, .L191+36
 2812 0080 9A42     		cmp	r2, r3
 2813 0082 2FD0     		beq	.L187
 2814 0084 3A68     		ldr	r2, [r7]
 2815 0086 324B     		ldr	r3, .L191+40
 2816 0088 9A42     		cmp	r2, r3
 2817 008a 2BD0     		beq	.L187
 2818 008c 3A68     		ldr	r2, [r7]
 2819 008e 314B     		ldr	r3, .L191+44
 2820 0090 9A42     		cmp	r2, r3
 2821 0092 27D0     		beq	.L187
 2822 0094 3B68     		ldr	r3, [r7]
 2823 0096 102B     		cmp	r3, #16
 2824 0098 24D0     		beq	.L187
 2825 009a 3A68     		ldr	r2, [r7]
 2826 009c 2E4B     		ldr	r3, .L191+48
 2827 009e 9A42     		cmp	r2, r3
 2828 00a0 20D0     		beq	.L187
 2829 00a2 3A68     		ldr	r2, [r7]
 2830 00a4 2D4B     		ldr	r3, .L191+52
 2831 00a6 9A42     		cmp	r2, r3
 2832 00a8 1CD0     		beq	.L187
 2833 00aa 3A68     		ldr	r2, [r7]
 2834 00ac 2C4B     		ldr	r3, .L191+56
 2835 00ae 9A42     		cmp	r2, r3
 2836 00b0 18D0     		beq	.L187
 2837 00b2 3A68     		ldr	r2, [r7]
 2838 00b4 2B4B     		ldr	r3, .L191+60
 2839 00b6 9A42     		cmp	r2, r3
 2840 00b8 14D0     		beq	.L187
 2841 00ba 3A68     		ldr	r2, [r7]
 2842 00bc 2A4B     		ldr	r3, .L191+64
 2843 00be 9A42     		cmp	r2, r3
 2844 00c0 10D0     		beq	.L187
 2845 00c2 3A68     		ldr	r2, [r7]
 2846 00c4 294B     		ldr	r3, .L191+68
 2847 00c6 9A42     		cmp	r2, r3
 2848 00c8 0CD0     		beq	.L187
 2849 00ca 3A68     		ldr	r2, [r7]
 2850 00cc 284B     		ldr	r3, .L191+72
 2851 00ce 9A42     		cmp	r2, r3
 2852 00d0 08D0     		beq	.L187
 2853 00d2 3B68     		ldr	r3, [r7]
 2854 00d4 B3F5806F 		cmp	r3, #1024
 2855 00d8 04D0     		beq	.L187
 2856 00da 1648     		ldr	r0, .L191+12
 2857 00dc 40F24B41 		movw	r1, #1099
 2858 00e0 FFF7FEFF 		bl	assert_failed
 2859              	.L187:
1100:App/STM32F4-Discovery/Libraries/STM32F4xx_StdPeriph_Driver/src/stm32f4xx_i2c.c **** 
1101:App/STM32F4-Discovery/Libraries/STM32F4xx_StdPeriph_Driver/src/stm32f4xx_i2c.c ****   /* Read the I2Cx status register */
1102:App/STM32F4-Discovery/Libraries/STM32F4xx_StdPeriph_Driver/src/stm32f4xx_i2c.c ****   flag1 = I2Cx->SR1;
 2860              		.loc 1 1102 0 is_stmt 1
 2861 00e4 7B68     		ldr	r3, [r7, #4]
 2862 00e6 9B8A     		ldrh	r3, [r3, #20]	@ movhi
 2863 00e8 9BB2     		uxth	r3, r3
 2864 00ea FB60     		str	r3, [r7, #12]
1103:App/STM32F4-Discovery/Libraries/STM32F4xx_StdPeriph_Driver/src/stm32f4xx_i2c.c ****   flag2 = I2Cx->SR2;
 2865              		.loc 1 1103 0
 2866 00ec 7B68     		ldr	r3, [r7, #4]
 2867 00ee 1B8B     		ldrh	r3, [r3, #24]	@ movhi
 2868 00f0 9BB2     		uxth	r3, r3
 2869 00f2 BB60     		str	r3, [r7, #8]
1104:App/STM32F4-Discovery/Libraries/STM32F4xx_StdPeriph_Driver/src/stm32f4xx_i2c.c ****   flag2 = flag2 << 16;
 2870              		.loc 1 1104 0
 2871 00f4 BB68     		ldr	r3, [r7, #8]
 2872 00f6 1B04     		lsls	r3, r3, #16
 2873 00f8 BB60     		str	r3, [r7, #8]
1105:App/STM32F4-Discovery/Libraries/STM32F4xx_StdPeriph_Driver/src/stm32f4xx_i2c.c **** 
1106:App/STM32F4-Discovery/Libraries/STM32F4xx_StdPeriph_Driver/src/stm32f4xx_i2c.c ****   /* Get the last event value from I2C status register */
1107:App/STM32F4-Discovery/Libraries/STM32F4xx_StdPeriph_Driver/src/stm32f4xx_i2c.c ****   lastevent = (flag1 | flag2) & FLAG_MASK;
 2874              		.loc 1 1107 0
 2875 00fa FA68     		ldr	r2, [r7, #12]
 2876 00fc BB68     		ldr	r3, [r7, #8]
 2877 00fe 1343     		orrs	r3, r3, r2
 2878 0100 23F07F43 		bic	r3, r3, #-16777216
 2879 0104 3B61     		str	r3, [r7, #16]
1108:App/STM32F4-Discovery/Libraries/STM32F4xx_StdPeriph_Driver/src/stm32f4xx_i2c.c **** 
1109:App/STM32F4-Discovery/Libraries/STM32F4xx_StdPeriph_Driver/src/stm32f4xx_i2c.c ****   /* Check whether the last event contains the I2C_EVENT */
1110:App/STM32F4-Discovery/Libraries/STM32F4xx_StdPeriph_Driver/src/stm32f4xx_i2c.c ****   if ((lastevent & I2C_EVENT) == I2C_EVENT)
 2880              		.loc 1 1110 0
 2881 0106 3A69     		ldr	r2, [r7, #16]
 2882 0108 3B68     		ldr	r3, [r7]
 2883 010a 1A40     		ands	r2, r2, r3
 2884 010c 3B68     		ldr	r3, [r7]
 2885 010e 9A42     		cmp	r2, r3
 2886 0110 02D1     		bne	.L188
1111:App/STM32F4-Discovery/Libraries/STM32F4xx_StdPeriph_Driver/src/stm32f4xx_i2c.c ****   {
1112:App/STM32F4-Discovery/Libraries/STM32F4xx_StdPeriph_Driver/src/stm32f4xx_i2c.c ****     /* SUCCESS: last event is equal to I2C_EVENT */
1113:App/STM32F4-Discovery/Libraries/STM32F4xx_StdPeriph_Driver/src/stm32f4xx_i2c.c ****     status = SUCCESS;
 2887              		.loc 1 1113 0
 2888 0112 0123     		movs	r3, #1
 2889 0114 FB75     		strb	r3, [r7, #23]
 2890 0116 01E0     		b	.L189
 2891              	.L188:
1114:App/STM32F4-Discovery/Libraries/STM32F4xx_StdPeriph_Driver/src/stm32f4xx_i2c.c ****   }
1115:App/STM32F4-Discovery/Libraries/STM32F4xx_StdPeriph_Driver/src/stm32f4xx_i2c.c ****   else
1116:App/STM32F4-Discovery/Libraries/STM32F4xx_StdPeriph_Driver/src/stm32f4xx_i2c.c ****   {
1117:App/STM32F4-Discovery/Libraries/STM32F4xx_StdPeriph_Driver/src/stm32f4xx_i2c.c ****     /* ERROR: last event is different from I2C_EVENT */
1118:App/STM32F4-Discovery/Libraries/STM32F4xx_StdPeriph_Driver/src/stm32f4xx_i2c.c ****     status = ERROR;
 2892              		.loc 1 1118 0
 2893 0118 0023     		movs	r3, #0
 2894 011a FB75     		strb	r3, [r7, #23]
 2895              	.L189:
1119:App/STM32F4-Discovery/Libraries/STM32F4xx_StdPeriph_Driver/src/stm32f4xx_i2c.c ****   }
1120:App/STM32F4-Discovery/Libraries/STM32F4xx_StdPeriph_Driver/src/stm32f4xx_i2c.c ****   /* Return status */
1121:App/STM32F4-Discovery/Libraries/STM32F4xx_StdPeriph_Driver/src/stm32f4xx_i2c.c ****   return status;
 2896              		.loc 1 1121 0
 2897 011c FB7D     		ldrb	r3, [r7, #23]	@ zero_extendqisi2
1122:App/STM32F4-Discovery/Libraries/STM32F4xx_StdPeriph_Driver/src/stm32f4xx_i2c.c **** }
 2898              		.loc 1 1122 0
 2899 011e 1846     		mov	r0, r3
 2900 0120 1837     		adds	r7, r7, #24
 2901 0122 BD46     		mov	sp, r7
 2902              		@ sp needed
 2903 0124 80BD     		pop	{r7, pc}
 2904              	.L192:
 2905 0126 00BF     		.align	2
 2906              	.L191:
 2907 0128 00540040 		.word	1073763328
 2908 012c 00580040 		.word	1073764352
 2909 0130 005C0040 		.word	1073765376
 2910 0134 00000000 		.word	.LC0
 2911 0138 82000600 		.word	393346
 2912 013c 80008600 		.word	8781952
 2913 0140 40000200 		.word	131136
 2914 0144 40008200 		.word	8519744
 2915 0148 40001200 		.word	1179712
 2916 014c 84000600 		.word	393348
 2917 0150 84008600 		.word	8781956
 2918 0154 84001600 		.word	1441924
 2919 0158 01000300 		.word	196609
 2920 015c 82000700 		.word	458882
 2921 0160 02000300 		.word	196610
 2922 0164 40000300 		.word	196672
 2923 0168 84000700 		.word	458884
 2924 016c 80000700 		.word	458880
 2925 0170 08000300 		.word	196616
 2926              		.cfi_endproc
 2927              	.LFE137:
 2929              		.section	.text.I2C_GetLastEvent,"ax",%progbits
 2930              		.align	2
 2931              		.global	I2C_GetLastEvent
 2932              		.thumb
 2933              		.thumb_func
 2935              	I2C_GetLastEvent:
 2936              	.LFB138:
1123:App/STM32F4-Discovery/Libraries/STM32F4xx_StdPeriph_Driver/src/stm32f4xx_i2c.c **** 
1124:App/STM32F4-Discovery/Libraries/STM32F4xx_StdPeriph_Driver/src/stm32f4xx_i2c.c **** /*
1125:App/STM32F4-Discovery/Libraries/STM32F4xx_StdPeriph_Driver/src/stm32f4xx_i2c.c ****  ===============================================================================
1126:App/STM32F4-Discovery/Libraries/STM32F4xx_StdPeriph_Driver/src/stm32f4xx_i2c.c ****                           2. Advanced state monitoring                   
1127:App/STM32F4-Discovery/Libraries/STM32F4xx_StdPeriph_Driver/src/stm32f4xx_i2c.c ****  ===============================================================================  
1128:App/STM32F4-Discovery/Libraries/STM32F4xx_StdPeriph_Driver/src/stm32f4xx_i2c.c ****  */
1129:App/STM32F4-Discovery/Libraries/STM32F4xx_StdPeriph_Driver/src/stm32f4xx_i2c.c **** 
1130:App/STM32F4-Discovery/Libraries/STM32F4xx_StdPeriph_Driver/src/stm32f4xx_i2c.c **** /**
1131:App/STM32F4-Discovery/Libraries/STM32F4xx_StdPeriph_Driver/src/stm32f4xx_i2c.c ****   * @brief  Returns the last I2Cx Event.
1132:App/STM32F4-Discovery/Libraries/STM32F4xx_StdPeriph_Driver/src/stm32f4xx_i2c.c ****   * @param  I2Cx: where x can be 1, 2 or 3 to select the I2C peripheral.
1133:App/STM32F4-Discovery/Libraries/STM32F4xx_StdPeriph_Driver/src/stm32f4xx_i2c.c ****   *     
1134:App/STM32F4-Discovery/Libraries/STM32F4xx_StdPeriph_Driver/src/stm32f4xx_i2c.c ****   * @note   For detailed description of Events, please refer to section I2C_Events
1135:App/STM32F4-Discovery/Libraries/STM32F4xx_StdPeriph_Driver/src/stm32f4xx_i2c.c ****   *         in stm32f4xx_i2c.h file.
