   1              		.syntax unified
   2              		.cpu cortex-m4
   3              		.eabi_attribute 27, 3
   4              		.fpu fpv4-sp-d16
   5              		.eabi_attribute 20, 1
   6              		.eabi_attribute 21, 1
   7              		.eabi_attribute 23, 3
   8              		.eabi_attribute 24, 1
   9              		.eabi_attribute 25, 1
  10              		.eabi_attribute 26, 1
  11              		.eabi_attribute 30, 6
  12              		.eabi_attribute 34, 1
  13              		.eabi_attribute 18, 4
  14              		.thumb
  15              		.file	"stm32f4xx_rtc.c"
  16              		.text
  17              	.Ltext0:
  18              		.cfi_sections	.debug_frame
  19              		.section	.text.RTC_DeInit,"ax",%progbits
  20              		.align	2
  21              		.global	RTC_DeInit
  22              		.thumb
  23              		.thumb_func
  25              	RTC_DeInit:
  26              	.LFB110:
  27              		.file 1 "App/STM32F4-Discovery/Libraries/STM32F4xx_StdPeriph_Driver/src/stm32f4xx_rtc.c"
   1:App/STM32F4-Discovery/Libraries/STM32F4xx_StdPeriph_Driver/src/stm32f4xx_rtc.c **** /**
   2:App/STM32F4-Discovery/Libraries/STM32F4xx_StdPeriph_Driver/src/stm32f4xx_rtc.c ****   ******************************************************************************
   3:App/STM32F4-Discovery/Libraries/STM32F4xx_StdPeriph_Driver/src/stm32f4xx_rtc.c ****   * @file    stm32f4xx_rtc.c
   4:App/STM32F4-Discovery/Libraries/STM32F4xx_StdPeriph_Driver/src/stm32f4xx_rtc.c ****   * @author  MCD Application Team
   5:App/STM32F4-Discovery/Libraries/STM32F4xx_StdPeriph_Driver/src/stm32f4xx_rtc.c ****   * @version V1.0.0
   6:App/STM32F4-Discovery/Libraries/STM32F4xx_StdPeriph_Driver/src/stm32f4xx_rtc.c ****   * @date    30-September-2011
   7:App/STM32F4-Discovery/Libraries/STM32F4xx_StdPeriph_Driver/src/stm32f4xx_rtc.c ****   * @brief   This file provides firmware functions to manage the following 
   8:App/STM32F4-Discovery/Libraries/STM32F4xx_StdPeriph_Driver/src/stm32f4xx_rtc.c ****   *          functionalities of the Real-Time Clock (RTC) peripheral:
   9:App/STM32F4-Discovery/Libraries/STM32F4xx_StdPeriph_Driver/src/stm32f4xx_rtc.c ****   *           - Initialization
  10:App/STM32F4-Discovery/Libraries/STM32F4xx_StdPeriph_Driver/src/stm32f4xx_rtc.c ****   *           - Calendar (Time and Date) configuration
  11:App/STM32F4-Discovery/Libraries/STM32F4xx_StdPeriph_Driver/src/stm32f4xx_rtc.c ****   *           - Alarms (Alarm A and Alarm B) configuration
  12:App/STM32F4-Discovery/Libraries/STM32F4xx_StdPeriph_Driver/src/stm32f4xx_rtc.c ****   *           - WakeUp Timer configuration
  13:App/STM32F4-Discovery/Libraries/STM32F4xx_StdPeriph_Driver/src/stm32f4xx_rtc.c ****   *           - Daylight Saving configuration
  14:App/STM32F4-Discovery/Libraries/STM32F4xx_StdPeriph_Driver/src/stm32f4xx_rtc.c ****   *           - Output pin Configuration
  15:App/STM32F4-Discovery/Libraries/STM32F4xx_StdPeriph_Driver/src/stm32f4xx_rtc.c ****   *           - Coarse digital Calibration configuration
  16:App/STM32F4-Discovery/Libraries/STM32F4xx_StdPeriph_Driver/src/stm32f4xx_rtc.c ****   *           - Smooth digital Calibration configuration
  17:App/STM32F4-Discovery/Libraries/STM32F4xx_StdPeriph_Driver/src/stm32f4xx_rtc.c ****   *           - TimeStamp configuration
  18:App/STM32F4-Discovery/Libraries/STM32F4xx_StdPeriph_Driver/src/stm32f4xx_rtc.c ****   *           - Tampers configuration
  19:App/STM32F4-Discovery/Libraries/STM32F4xx_StdPeriph_Driver/src/stm32f4xx_rtc.c ****   *           - Backup Data Registers configuration
  20:App/STM32F4-Discovery/Libraries/STM32F4xx_StdPeriph_Driver/src/stm32f4xx_rtc.c ****   *           - Shift control synchronisation    
  21:App/STM32F4-Discovery/Libraries/STM32F4xx_StdPeriph_Driver/src/stm32f4xx_rtc.c ****   *           - RTC Tamper and TimeStamp Pins Selection and Output Type Config configuration
  22:App/STM32F4-Discovery/Libraries/STM32F4xx_StdPeriph_Driver/src/stm32f4xx_rtc.c ****   *           - Interrupts and flags management
  23:App/STM32F4-Discovery/Libraries/STM32F4xx_StdPeriph_Driver/src/stm32f4xx_rtc.c ****   *
  24:App/STM32F4-Discovery/Libraries/STM32F4xx_StdPeriph_Driver/src/stm32f4xx_rtc.c ****   *  @verbatim
  25:App/STM32F4-Discovery/Libraries/STM32F4xx_StdPeriph_Driver/src/stm32f4xx_rtc.c ****   *
  26:App/STM32F4-Discovery/Libraries/STM32F4xx_StdPeriph_Driver/src/stm32f4xx_rtc.c ****   *          ===================================================================
  27:App/STM32F4-Discovery/Libraries/STM32F4xx_StdPeriph_Driver/src/stm32f4xx_rtc.c ****   *                               Backup Domain Operating Condition
  28:App/STM32F4-Discovery/Libraries/STM32F4xx_StdPeriph_Driver/src/stm32f4xx_rtc.c ****   *          ===================================================================
  29:App/STM32F4-Discovery/Libraries/STM32F4xx_StdPeriph_Driver/src/stm32f4xx_rtc.c ****   *          The real-time clock (RTC), the RTC backup registers, and the backup 
  30:App/STM32F4-Discovery/Libraries/STM32F4xx_StdPeriph_Driver/src/stm32f4xx_rtc.c ****   *          SRAM (BKP SRAM) can be powered from the VBAT voltage when the main 
  31:App/STM32F4-Discovery/Libraries/STM32F4xx_StdPeriph_Driver/src/stm32f4xx_rtc.c ****   *          VDD supply is powered off.
  32:App/STM32F4-Discovery/Libraries/STM32F4xx_StdPeriph_Driver/src/stm32f4xx_rtc.c ****   *          To retain the content of the RTC backup registers, backup SRAM, 
  33:App/STM32F4-Discovery/Libraries/STM32F4xx_StdPeriph_Driver/src/stm32f4xx_rtc.c ****   *          and supply the RTC when VDD is turned off, VBAT pin can be connected 
  34:App/STM32F4-Discovery/Libraries/STM32F4xx_StdPeriph_Driver/src/stm32f4xx_rtc.c ****   *          to an optional standby voltage supplied by a battery or by another 
  35:App/STM32F4-Discovery/Libraries/STM32F4xx_StdPeriph_Driver/src/stm32f4xx_rtc.c ****   *          source.
  36:App/STM32F4-Discovery/Libraries/STM32F4xx_StdPeriph_Driver/src/stm32f4xx_rtc.c ****   *
  37:App/STM32F4-Discovery/Libraries/STM32F4xx_StdPeriph_Driver/src/stm32f4xx_rtc.c ****   *          To allow the RTC to operate even when the main digital supply (VDD) 
  38:App/STM32F4-Discovery/Libraries/STM32F4xx_StdPeriph_Driver/src/stm32f4xx_rtc.c ****   *          is turned off, the VBAT pin powers the following blocks:
  39:App/STM32F4-Discovery/Libraries/STM32F4xx_StdPeriph_Driver/src/stm32f4xx_rtc.c ****   *            1 - The RTC
  40:App/STM32F4-Discovery/Libraries/STM32F4xx_StdPeriph_Driver/src/stm32f4xx_rtc.c ****   *            2 - The LSE oscillator
  41:App/STM32F4-Discovery/Libraries/STM32F4xx_StdPeriph_Driver/src/stm32f4xx_rtc.c ****   *            3 - The backup SRAM when the low power backup regulator is enabled
  42:App/STM32F4-Discovery/Libraries/STM32F4xx_StdPeriph_Driver/src/stm32f4xx_rtc.c ****   *            4 - PC13 to PC15 I/Os, plus PI8 I/O (when available)
  43:App/STM32F4-Discovery/Libraries/STM32F4xx_StdPeriph_Driver/src/stm32f4xx_rtc.c ****   *
  44:App/STM32F4-Discovery/Libraries/STM32F4xx_StdPeriph_Driver/src/stm32f4xx_rtc.c ****   *          When the backup domain is supplied by VDD (analog switch connected 
  45:App/STM32F4-Discovery/Libraries/STM32F4xx_StdPeriph_Driver/src/stm32f4xx_rtc.c ****   *          to VDD), the following functions are available:
  46:App/STM32F4-Discovery/Libraries/STM32F4xx_StdPeriph_Driver/src/stm32f4xx_rtc.c ****   *            1 - PC14 and PC15 can be used as either GPIO or LSE pins
  47:App/STM32F4-Discovery/Libraries/STM32F4xx_StdPeriph_Driver/src/stm32f4xx_rtc.c ****   *            2 - PC13 can be used as a GPIO or as the RTC_AF1 pin
  48:App/STM32F4-Discovery/Libraries/STM32F4xx_StdPeriph_Driver/src/stm32f4xx_rtc.c ****   *            3 - PI8 can be used as a GPIO or as the RTC_AF2 pin
  49:App/STM32F4-Discovery/Libraries/STM32F4xx_StdPeriph_Driver/src/stm32f4xx_rtc.c ****   *
  50:App/STM32F4-Discovery/Libraries/STM32F4xx_StdPeriph_Driver/src/stm32f4xx_rtc.c ****   *          When the backup domain is supplied by VBAT (analog switch connected 
  51:App/STM32F4-Discovery/Libraries/STM32F4xx_StdPeriph_Driver/src/stm32f4xx_rtc.c ****   *          to VBAT because VDD is not present), the following functions are available:
  52:App/STM32F4-Discovery/Libraries/STM32F4xx_StdPeriph_Driver/src/stm32f4xx_rtc.c ****   *            1 - PC14 and PC15 can be used as LSE pins only
  53:App/STM32F4-Discovery/Libraries/STM32F4xx_StdPeriph_Driver/src/stm32f4xx_rtc.c ****   *            2 - PC13 can be used as the RTC_AF1 pin 
  54:App/STM32F4-Discovery/Libraries/STM32F4xx_StdPeriph_Driver/src/stm32f4xx_rtc.c ****   *            3 - PI8 can be used as the RTC_AF2 pin
  55:App/STM32F4-Discovery/Libraries/STM32F4xx_StdPeriph_Driver/src/stm32f4xx_rtc.c ****   *
  56:App/STM32F4-Discovery/Libraries/STM32F4xx_StdPeriph_Driver/src/stm32f4xx_rtc.c ****   *          ===================================================================
  57:App/STM32F4-Discovery/Libraries/STM32F4xx_StdPeriph_Driver/src/stm32f4xx_rtc.c ****   *                                    Backup Domain Reset
  58:App/STM32F4-Discovery/Libraries/STM32F4xx_StdPeriph_Driver/src/stm32f4xx_rtc.c ****   *          ===================================================================
  59:App/STM32F4-Discovery/Libraries/STM32F4xx_StdPeriph_Driver/src/stm32f4xx_rtc.c ****   *          The backup domain reset sets all RTC registers and the RCC_BDCR 
  60:App/STM32F4-Discovery/Libraries/STM32F4xx_StdPeriph_Driver/src/stm32f4xx_rtc.c ****   *          register to their reset values. The BKPSRAM is not affected by this
  61:App/STM32F4-Discovery/Libraries/STM32F4xx_StdPeriph_Driver/src/stm32f4xx_rtc.c ****   *          reset. The only way of resetting the BKPSRAM is through the Flash 
  62:App/STM32F4-Discovery/Libraries/STM32F4xx_StdPeriph_Driver/src/stm32f4xx_rtc.c ****   *          interface by requesting a protection level change from 1 to 0.
  63:App/STM32F4-Discovery/Libraries/STM32F4xx_StdPeriph_Driver/src/stm32f4xx_rtc.c ****   *          A backup domain reset is generated when one of the following events
  64:App/STM32F4-Discovery/Libraries/STM32F4xx_StdPeriph_Driver/src/stm32f4xx_rtc.c ****   *          occurs:
  65:App/STM32F4-Discovery/Libraries/STM32F4xx_StdPeriph_Driver/src/stm32f4xx_rtc.c ****   *            1 - Software reset, triggered by setting the BDRST bit in the 
  66:App/STM32F4-Discovery/Libraries/STM32F4xx_StdPeriph_Driver/src/stm32f4xx_rtc.c ****   *                RCC Backup domain control register (RCC_BDCR). You can use the
  67:App/STM32F4-Discovery/Libraries/STM32F4xx_StdPeriph_Driver/src/stm32f4xx_rtc.c ****   *                RCC_BackupResetCmd().
  68:App/STM32F4-Discovery/Libraries/STM32F4xx_StdPeriph_Driver/src/stm32f4xx_rtc.c ****   *            2 - VDD or VBAT power on, if both supplies have previously been
  69:App/STM32F4-Discovery/Libraries/STM32F4xx_StdPeriph_Driver/src/stm32f4xx_rtc.c ****   *                powered off.
  70:App/STM32F4-Discovery/Libraries/STM32F4xx_StdPeriph_Driver/src/stm32f4xx_rtc.c ****   *
  71:App/STM32F4-Discovery/Libraries/STM32F4xx_StdPeriph_Driver/src/stm32f4xx_rtc.c ****   *          ===================================================================
  72:App/STM32F4-Discovery/Libraries/STM32F4xx_StdPeriph_Driver/src/stm32f4xx_rtc.c ****   *                                   Backup Domain Access
  73:App/STM32F4-Discovery/Libraries/STM32F4xx_StdPeriph_Driver/src/stm32f4xx_rtc.c ****   *          ===================================================================
  74:App/STM32F4-Discovery/Libraries/STM32F4xx_StdPeriph_Driver/src/stm32f4xx_rtc.c ****   *          After reset, the backup domain (RTC registers, RTC backup data 
  75:App/STM32F4-Discovery/Libraries/STM32F4xx_StdPeriph_Driver/src/stm32f4xx_rtc.c ****   *          registers and backup SRAM) is protected against possible unwanted 
  76:App/STM32F4-Discovery/Libraries/STM32F4xx_StdPeriph_Driver/src/stm32f4xx_rtc.c ****   *          write accesses. 
  77:App/STM32F4-Discovery/Libraries/STM32F4xx_StdPeriph_Driver/src/stm32f4xx_rtc.c ****   *          To enable access to the RTC Domain and RTC registers, proceed as follows:
  78:App/STM32F4-Discovery/Libraries/STM32F4xx_StdPeriph_Driver/src/stm32f4xx_rtc.c ****   *            - Enable the Power Controller (PWR) APB1 interface clock using the
  79:App/STM32F4-Discovery/Libraries/STM32F4xx_StdPeriph_Driver/src/stm32f4xx_rtc.c ****   *              RCC_APB1PeriphClockCmd() function.
  80:App/STM32F4-Discovery/Libraries/STM32F4xx_StdPeriph_Driver/src/stm32f4xx_rtc.c ****   *            - Enable access to RTC domain using the PWR_BackupAccessCmd() function.
  81:App/STM32F4-Discovery/Libraries/STM32F4xx_StdPeriph_Driver/src/stm32f4xx_rtc.c ****   *            - Select the RTC clock source using the RCC_RTCCLKConfig() function.
  82:App/STM32F4-Discovery/Libraries/STM32F4xx_StdPeriph_Driver/src/stm32f4xx_rtc.c ****   *            - Enable RTC Clock using the RCC_RTCCLKCmd() function.
  83:App/STM32F4-Discovery/Libraries/STM32F4xx_StdPeriph_Driver/src/stm32f4xx_rtc.c ****   *
  84:App/STM32F4-Discovery/Libraries/STM32F4xx_StdPeriph_Driver/src/stm32f4xx_rtc.c ****   *          ===================================================================
  85:App/STM32F4-Discovery/Libraries/STM32F4xx_StdPeriph_Driver/src/stm32f4xx_rtc.c ****   *                                   RTC Driver: how to use it
  86:App/STM32F4-Discovery/Libraries/STM32F4xx_StdPeriph_Driver/src/stm32f4xx_rtc.c ****   *          ===================================================================
  87:App/STM32F4-Discovery/Libraries/STM32F4xx_StdPeriph_Driver/src/stm32f4xx_rtc.c ****   *            - Enable the RTC domain access (see description in the section above)
  88:App/STM32F4-Discovery/Libraries/STM32F4xx_StdPeriph_Driver/src/stm32f4xx_rtc.c ****   *            - Configure the RTC Prescaler (Asynchronous and Synchronous) and
  89:App/STM32F4-Discovery/Libraries/STM32F4xx_StdPeriph_Driver/src/stm32f4xx_rtc.c ****   *              RTC hour format using the RTC_Init() function.
  90:App/STM32F4-Discovery/Libraries/STM32F4xx_StdPeriph_Driver/src/stm32f4xx_rtc.c ****   *
  91:App/STM32F4-Discovery/Libraries/STM32F4xx_StdPeriph_Driver/src/stm32f4xx_rtc.c ****   *          Time and Date configuration
  92:App/STM32F4-Discovery/Libraries/STM32F4xx_StdPeriph_Driver/src/stm32f4xx_rtc.c ****   *          ===========================
  93:App/STM32F4-Discovery/Libraries/STM32F4xx_StdPeriph_Driver/src/stm32f4xx_rtc.c ****   *            - To configure the RTC Calendar (Time and Date) use the RTC_SetTime()
  94:App/STM32F4-Discovery/Libraries/STM32F4xx_StdPeriph_Driver/src/stm32f4xx_rtc.c ****   *              and RTC_SetDate() functions.
  95:App/STM32F4-Discovery/Libraries/STM32F4xx_StdPeriph_Driver/src/stm32f4xx_rtc.c ****   *            - To read the RTC Calendar, use the RTC_GetTime() and RTC_GetDate()
  96:App/STM32F4-Discovery/Libraries/STM32F4xx_StdPeriph_Driver/src/stm32f4xx_rtc.c ****   *              functions.
  97:App/STM32F4-Discovery/Libraries/STM32F4xx_StdPeriph_Driver/src/stm32f4xx_rtc.c ****   *            - Use the RTC_DayLightSavingConfig() function to add or sub one
  98:App/STM32F4-Discovery/Libraries/STM32F4xx_StdPeriph_Driver/src/stm32f4xx_rtc.c ****   *              hour to the RTC Calendar.    
  99:App/STM32F4-Discovery/Libraries/STM32F4xx_StdPeriph_Driver/src/stm32f4xx_rtc.c ****   *
 100:App/STM32F4-Discovery/Libraries/STM32F4xx_StdPeriph_Driver/src/stm32f4xx_rtc.c ****   *          Alarm configuration
 101:App/STM32F4-Discovery/Libraries/STM32F4xx_StdPeriph_Driver/src/stm32f4xx_rtc.c ****   *          ===================
 102:App/STM32F4-Discovery/Libraries/STM32F4xx_StdPeriph_Driver/src/stm32f4xx_rtc.c ****   *            - To configure the RTC Alarm use the RTC_SetAlarm() function.
 103:App/STM32F4-Discovery/Libraries/STM32F4xx_StdPeriph_Driver/src/stm32f4xx_rtc.c ****   *            - Enable the selected RTC Alarm using the RTC_AlarmCmd() function
 104:App/STM32F4-Discovery/Libraries/STM32F4xx_StdPeriph_Driver/src/stm32f4xx_rtc.c ****   *            - To read the RTC Alarm, use the RTC_GetAlarm() function.
 105:App/STM32F4-Discovery/Libraries/STM32F4xx_StdPeriph_Driver/src/stm32f4xx_rtc.c ****   *            - To read the RTC alarm SubSecond, use the RTC_GetAlarmSubSecond() function.
 106:App/STM32F4-Discovery/Libraries/STM32F4xx_StdPeriph_Driver/src/stm32f4xx_rtc.c ****   *
 107:App/STM32F4-Discovery/Libraries/STM32F4xx_StdPeriph_Driver/src/stm32f4xx_rtc.c ****   *          RTC Wakeup configuration
 108:App/STM32F4-Discovery/Libraries/STM32F4xx_StdPeriph_Driver/src/stm32f4xx_rtc.c ****   *          ========================
 109:App/STM32F4-Discovery/Libraries/STM32F4xx_StdPeriph_Driver/src/stm32f4xx_rtc.c ****   *            - Configure the RTC Wakeup Clock source use the RTC_WakeUpClockConfig()
 110:App/STM32F4-Discovery/Libraries/STM32F4xx_StdPeriph_Driver/src/stm32f4xx_rtc.c ****   *              function.
 111:App/STM32F4-Discovery/Libraries/STM32F4xx_StdPeriph_Driver/src/stm32f4xx_rtc.c ****   *            - Configure the RTC WakeUp Counter using the RTC_SetWakeUpCounter() 
 112:App/STM32F4-Discovery/Libraries/STM32F4xx_StdPeriph_Driver/src/stm32f4xx_rtc.c ****   *              function  
 113:App/STM32F4-Discovery/Libraries/STM32F4xx_StdPeriph_Driver/src/stm32f4xx_rtc.c ****   *            - Enable the RTC WakeUp using the RTC_WakeUpCmd() function  
 114:App/STM32F4-Discovery/Libraries/STM32F4xx_StdPeriph_Driver/src/stm32f4xx_rtc.c ****   *            - To read the RTC WakeUp Counter register, use the RTC_GetWakeUpCounter() 
 115:App/STM32F4-Discovery/Libraries/STM32F4xx_StdPeriph_Driver/src/stm32f4xx_rtc.c ****   *              function.
 116:App/STM32F4-Discovery/Libraries/STM32F4xx_StdPeriph_Driver/src/stm32f4xx_rtc.c ****   *
 117:App/STM32F4-Discovery/Libraries/STM32F4xx_StdPeriph_Driver/src/stm32f4xx_rtc.c ****   *          Outputs configuration
 118:App/STM32F4-Discovery/Libraries/STM32F4xx_StdPeriph_Driver/src/stm32f4xx_rtc.c ****   *          =====================
 119:App/STM32F4-Discovery/Libraries/STM32F4xx_StdPeriph_Driver/src/stm32f4xx_rtc.c ****   *          The RTC has 2 different outputs:
 120:App/STM32F4-Discovery/Libraries/STM32F4xx_StdPeriph_Driver/src/stm32f4xx_rtc.c ****   *            - AFO_ALARM: this output is used to manage the RTC Alarm A, Alarm B
 121:App/STM32F4-Discovery/Libraries/STM32F4xx_StdPeriph_Driver/src/stm32f4xx_rtc.c ****   *              and WaKeUp signals.          
 122:App/STM32F4-Discovery/Libraries/STM32F4xx_StdPeriph_Driver/src/stm32f4xx_rtc.c ****   *              To output the selected RTC signal on RTC_AF1 pin, use the 
 123:App/STM32F4-Discovery/Libraries/STM32F4xx_StdPeriph_Driver/src/stm32f4xx_rtc.c ****   *              RTC_OutputConfig() function.                
 124:App/STM32F4-Discovery/Libraries/STM32F4xx_StdPeriph_Driver/src/stm32f4xx_rtc.c ****   *            - AFO_CALIB: this output is 512Hz signal or 1Hz .  
 125:App/STM32F4-Discovery/Libraries/STM32F4xx_StdPeriph_Driver/src/stm32f4xx_rtc.c ****   *              To output the RTC Clock on RTC_AF1 pin, use the RTC_CalibOutputCmd()
 126:App/STM32F4-Discovery/Libraries/STM32F4xx_StdPeriph_Driver/src/stm32f4xx_rtc.c ****   *              function.
 127:App/STM32F4-Discovery/Libraries/STM32F4xx_StdPeriph_Driver/src/stm32f4xx_rtc.c ****   *
 128:App/STM32F4-Discovery/Libraries/STM32F4xx_StdPeriph_Driver/src/stm32f4xx_rtc.c ****   *          Smooth digital Calibration configuration
 129:App/STM32F4-Discovery/Libraries/STM32F4xx_StdPeriph_Driver/src/stm32f4xx_rtc.c ****   *          =================================    
 130:App/STM32F4-Discovery/Libraries/STM32F4xx_StdPeriph_Driver/src/stm32f4xx_rtc.c ****   *            - Configure the RTC Original Digital Calibration Value and the corresponding
 131:App/STM32F4-Discovery/Libraries/STM32F4xx_StdPeriph_Driver/src/stm32f4xx_rtc.c ****   *              calibration cycle period (32s,16s and 8s) using the RTC_SmoothCalibConfig() 
 132:App/STM32F4-Discovery/Libraries/STM32F4xx_StdPeriph_Driver/src/stm32f4xx_rtc.c ****   *              function.
 133:App/STM32F4-Discovery/Libraries/STM32F4xx_StdPeriph_Driver/src/stm32f4xx_rtc.c ****   *
 134:App/STM32F4-Discovery/Libraries/STM32F4xx_StdPeriph_Driver/src/stm32f4xx_rtc.c ****   *          Coarse digital Calibration configuration
 135:App/STM32F4-Discovery/Libraries/STM32F4xx_StdPeriph_Driver/src/stm32f4xx_rtc.c ****   *          =================================
 136:App/STM32F4-Discovery/Libraries/STM32F4xx_StdPeriph_Driver/src/stm32f4xx_rtc.c ****   *            - Configure the RTC Coarse Calibration Value and the corresponding
 137:App/STM32F4-Discovery/Libraries/STM32F4xx_StdPeriph_Driver/src/stm32f4xx_rtc.c ****   *              sign using the RTC_CoarseCalibConfig() function.
 138:App/STM32F4-Discovery/Libraries/STM32F4xx_StdPeriph_Driver/src/stm32f4xx_rtc.c ****   *            - Enable the RTC Coarse Calibration using the RTC_CoarseCalibCmd() 
 139:App/STM32F4-Discovery/Libraries/STM32F4xx_StdPeriph_Driver/src/stm32f4xx_rtc.c ****   *              function  
 140:App/STM32F4-Discovery/Libraries/STM32F4xx_StdPeriph_Driver/src/stm32f4xx_rtc.c ****   *
 141:App/STM32F4-Discovery/Libraries/STM32F4xx_StdPeriph_Driver/src/stm32f4xx_rtc.c ****   *          TimeStamp configuration
 142:App/STM32F4-Discovery/Libraries/STM32F4xx_StdPeriph_Driver/src/stm32f4xx_rtc.c ****   *          =======================
 143:App/STM32F4-Discovery/Libraries/STM32F4xx_StdPeriph_Driver/src/stm32f4xx_rtc.c ****   *            - Configure the RTC_AF1 trigger and enables the RTC TimeStamp 
 144:App/STM32F4-Discovery/Libraries/STM32F4xx_StdPeriph_Driver/src/stm32f4xx_rtc.c ****   *              using the RTC_TimeStampCmd() function.
 145:App/STM32F4-Discovery/Libraries/STM32F4xx_StdPeriph_Driver/src/stm32f4xx_rtc.c ****   *            - To read the RTC TimeStamp Time and Date register, use the 
 146:App/STM32F4-Discovery/Libraries/STM32F4xx_StdPeriph_Driver/src/stm32f4xx_rtc.c ****   *              RTC_GetTimeStamp() function.
 147:App/STM32F4-Discovery/Libraries/STM32F4xx_StdPeriph_Driver/src/stm32f4xx_rtc.c ****   *            - To read the RTC TimeStamp SubSecond register, use the 
 148:App/STM32F4-Discovery/Libraries/STM32F4xx_StdPeriph_Driver/src/stm32f4xx_rtc.c ****   *              RTC_GetTimeStampSubSecond() function.
 149:App/STM32F4-Discovery/Libraries/STM32F4xx_StdPeriph_Driver/src/stm32f4xx_rtc.c ****   *            - The TAMPER1 alternate function can be mapped either to RTC_AF1(PC13)
 150:App/STM32F4-Discovery/Libraries/STM32F4xx_StdPeriph_Driver/src/stm32f4xx_rtc.c ****   *              or RTC_AF2 (PI8) depending on the value of TAMP1INSEL bit in 
 151:App/STM32F4-Discovery/Libraries/STM32F4xx_StdPeriph_Driver/src/stm32f4xx_rtc.c ****   *              RTC_TAFCR register. You can use the  RTC_TamperPinSelection()
 152:App/STM32F4-Discovery/Libraries/STM32F4xx_StdPeriph_Driver/src/stm32f4xx_rtc.c ****   *              function to select the corresponding pin.     
 153:App/STM32F4-Discovery/Libraries/STM32F4xx_StdPeriph_Driver/src/stm32f4xx_rtc.c ****   *
 154:App/STM32F4-Discovery/Libraries/STM32F4xx_StdPeriph_Driver/src/stm32f4xx_rtc.c ****   *          Tamper configuration
 155:App/STM32F4-Discovery/Libraries/STM32F4xx_StdPeriph_Driver/src/stm32f4xx_rtc.c ****   *          ====================
 156:App/STM32F4-Discovery/Libraries/STM32F4xx_StdPeriph_Driver/src/stm32f4xx_rtc.c ****   *            - Enable the RTC Tamper using the RTC_TamperCmd() function.
 157:App/STM32F4-Discovery/Libraries/STM32F4xx_StdPeriph_Driver/src/stm32f4xx_rtc.c ****   *             - Configure the Tamper filter count using RTC_TamperFilterConfig()
 158:App/STM32F4-Discovery/Libraries/STM32F4xx_StdPeriph_Driver/src/stm32f4xx_rtc.c ****   *              function. 
 159:App/STM32F4-Discovery/Libraries/STM32F4xx_StdPeriph_Driver/src/stm32f4xx_rtc.c ****   *            - Configure the RTC Tamper trigger Edge or Level according to the Tamper 
 160:App/STM32F4-Discovery/Libraries/STM32F4xx_StdPeriph_Driver/src/stm32f4xx_rtc.c ****   *              filter (if equal to 0 Edge else Level) value using the RTC_TamperConfig() function
 161:App/STM32F4-Discovery/Libraries/STM32F4xx_StdPeriph_Driver/src/stm32f4xx_rtc.c ****   *            - Configure the Tamper sampling frequency using RTC_TamperSamplingFreqConfig()
 162:App/STM32F4-Discovery/Libraries/STM32F4xx_StdPeriph_Driver/src/stm32f4xx_rtc.c ****   *              function.
 163:App/STM32F4-Discovery/Libraries/STM32F4xx_StdPeriph_Driver/src/stm32f4xx_rtc.c ****   *            - Configure the Tamper precharge or discharge duration using 
 164:App/STM32F4-Discovery/Libraries/STM32F4xx_StdPeriph_Driver/src/stm32f4xx_rtc.c ****   *              RTC_TamperPinsPrechargeDuration() function.
 165:App/STM32F4-Discovery/Libraries/STM32F4xx_StdPeriph_Driver/src/stm32f4xx_rtc.c ****   *            - Enable the Tamper Pull-UP using RTC_TamperPullUpDisableCmd() function.
 166:App/STM32F4-Discovery/Libraries/STM32F4xx_StdPeriph_Driver/src/stm32f4xx_rtc.c ****   *            - Enable the Time stamp on Tamper detection event using  
 167:App/STM32F4-Discovery/Libraries/STM32F4xx_StdPeriph_Driver/src/stm32f4xx_rtc.c ****   *              RTC_TSOnTamperDetecCmd() function.
 168:App/STM32F4-Discovery/Libraries/STM32F4xx_StdPeriph_Driver/src/stm32f4xx_rtc.c ****   *            - The TIMESTAMP alternate function can be mapped to either RTC_AF1 
 169:App/STM32F4-Discovery/Libraries/STM32F4xx_StdPeriph_Driver/src/stm32f4xx_rtc.c ****   *              or RTC_AF2 depending on the value of the TSINSEL bit in the 
 170:App/STM32F4-Discovery/Libraries/STM32F4xx_StdPeriph_Driver/src/stm32f4xx_rtc.c ****   *              RTC_TAFCR register. You can use the  RTC_TimeStampPinSelection()
 171:App/STM32F4-Discovery/Libraries/STM32F4xx_StdPeriph_Driver/src/stm32f4xx_rtc.c ****   *              function to select the corresponding pin. 
 172:App/STM32F4-Discovery/Libraries/STM32F4xx_StdPeriph_Driver/src/stm32f4xx_rtc.c ****   *
 173:App/STM32F4-Discovery/Libraries/STM32F4xx_StdPeriph_Driver/src/stm32f4xx_rtc.c ****   *          Backup Data Registers configuration
 174:App/STM32F4-Discovery/Libraries/STM32F4xx_StdPeriph_Driver/src/stm32f4xx_rtc.c ****   *          ===================================
 175:App/STM32F4-Discovery/Libraries/STM32F4xx_StdPeriph_Driver/src/stm32f4xx_rtc.c ****   *            - To write to the RTC Backup Data registers, use the RTC_WriteBackupRegister()
 176:App/STM32F4-Discovery/Libraries/STM32F4xx_StdPeriph_Driver/src/stm32f4xx_rtc.c ****   *              function.  
 177:App/STM32F4-Discovery/Libraries/STM32F4xx_StdPeriph_Driver/src/stm32f4xx_rtc.c ****   *            - To read the RTC Backup Data registers, use the RTC_ReadBackupRegister()
 178:App/STM32F4-Discovery/Libraries/STM32F4xx_StdPeriph_Driver/src/stm32f4xx_rtc.c ****   *              function.
 179:App/STM32F4-Discovery/Libraries/STM32F4xx_StdPeriph_Driver/src/stm32f4xx_rtc.c ****   * 
 180:App/STM32F4-Discovery/Libraries/STM32F4xx_StdPeriph_Driver/src/stm32f4xx_rtc.c ****   *          ===================================================================
 181:App/STM32F4-Discovery/Libraries/STM32F4xx_StdPeriph_Driver/src/stm32f4xx_rtc.c ****   *                                  RTC and low power modes
 182:App/STM32F4-Discovery/Libraries/STM32F4xx_StdPeriph_Driver/src/stm32f4xx_rtc.c ****   *          ===================================================================
 183:App/STM32F4-Discovery/Libraries/STM32F4xx_StdPeriph_Driver/src/stm32f4xx_rtc.c ****   *           The MCU can be woken up from a low power mode by an RTC alternate 
 184:App/STM32F4-Discovery/Libraries/STM32F4xx_StdPeriph_Driver/src/stm32f4xx_rtc.c ****   *           function.
 185:App/STM32F4-Discovery/Libraries/STM32F4xx_StdPeriph_Driver/src/stm32f4xx_rtc.c ****   *           The RTC alternate functions are the RTC alarms (Alarm A and Alarm B), 
 186:App/STM32F4-Discovery/Libraries/STM32F4xx_StdPeriph_Driver/src/stm32f4xx_rtc.c ****   *           RTC wakeup, RTC tamper event detection and RTC time stamp event detection.
 187:App/STM32F4-Discovery/Libraries/STM32F4xx_StdPeriph_Driver/src/stm32f4xx_rtc.c ****   *           These RTC alternate functions can wake up the system from the Stop 
 188:App/STM32F4-Discovery/Libraries/STM32F4xx_StdPeriph_Driver/src/stm32f4xx_rtc.c ****   *           and Standby lowpower modes.
 189:App/STM32F4-Discovery/Libraries/STM32F4xx_StdPeriph_Driver/src/stm32f4xx_rtc.c ****   *           The system can also wake up from low power modes without depending 
 190:App/STM32F4-Discovery/Libraries/STM32F4xx_StdPeriph_Driver/src/stm32f4xx_rtc.c ****   *           on an external interrupt (Auto-wakeup mode), by using the RTC alarm 
 191:App/STM32F4-Discovery/Libraries/STM32F4xx_StdPeriph_Driver/src/stm32f4xx_rtc.c ****   *           or the RTC wakeup events.
 192:App/STM32F4-Discovery/Libraries/STM32F4xx_StdPeriph_Driver/src/stm32f4xx_rtc.c ****   *           The RTC provides a programmable time base for waking up from the 
 193:App/STM32F4-Discovery/Libraries/STM32F4xx_StdPeriph_Driver/src/stm32f4xx_rtc.c ****   *           Stop or Standby mode at regular intervals.
 194:App/STM32F4-Discovery/Libraries/STM32F4xx_StdPeriph_Driver/src/stm32f4xx_rtc.c ****   *           Wakeup from STOP and Standby modes is possible only when the RTC 
 195:App/STM32F4-Discovery/Libraries/STM32F4xx_StdPeriph_Driver/src/stm32f4xx_rtc.c ****   *           clock source is LSE or LSI.
 196:App/STM32F4-Discovery/Libraries/STM32F4xx_StdPeriph_Driver/src/stm32f4xx_rtc.c ****   *
 197:App/STM32F4-Discovery/Libraries/STM32F4xx_StdPeriph_Driver/src/stm32f4xx_rtc.c ****   *          ===================================================================
 198:App/STM32F4-Discovery/Libraries/STM32F4xx_StdPeriph_Driver/src/stm32f4xx_rtc.c ****   *                            Selection of RTC_AF1 alternate functions
 199:App/STM32F4-Discovery/Libraries/STM32F4xx_StdPeriph_Driver/src/stm32f4xx_rtc.c ****   *          ===================================================================
 200:App/STM32F4-Discovery/Libraries/STM32F4xx_StdPeriph_Driver/src/stm32f4xx_rtc.c ****   *          The RTC_AF1 pin (PC13) can be used for the following purposes:
 201:App/STM32F4-Discovery/Libraries/STM32F4xx_StdPeriph_Driver/src/stm32f4xx_rtc.c ****   *            - AFO_ALARM output
 202:App/STM32F4-Discovery/Libraries/STM32F4xx_StdPeriph_Driver/src/stm32f4xx_rtc.c ****   *            - AFO_CALIB output
 203:App/STM32F4-Discovery/Libraries/STM32F4xx_StdPeriph_Driver/src/stm32f4xx_rtc.c ****   *            - AFI_TAMPER
 204:App/STM32F4-Discovery/Libraries/STM32F4xx_StdPeriph_Driver/src/stm32f4xx_rtc.c ****   *            - AFI_TIMESTAMP
 205:App/STM32F4-Discovery/Libraries/STM32F4xx_StdPeriph_Driver/src/stm32f4xx_rtc.c ****   *
 206:App/STM32F4-Discovery/Libraries/STM32F4xx_StdPeriph_Driver/src/stm32f4xx_rtc.c ****   * +----------------------------------------------------------------------------------------------
 207:App/STM32F4-Discovery/Libraries/STM32F4xx_StdPeriph_Driver/src/stm32f4xx_rtc.c ****   * |     Pin         |AFO_ALARM |AFO_CALIB |AFI_TAMPER |AFI_TIMESTAMP | TAMP1INSEL |   TSINSEL    
 208:App/STM32F4-Discovery/Libraries/STM32F4xx_StdPeriph_Driver/src/stm32f4xx_rtc.c ****   * |  configuration  | ENABLED  | ENABLED  |  ENABLED  |   ENABLED    |TAMPER1 pin |TIMESTAMP pin 
 209:App/STM32F4-Discovery/Libraries/STM32F4xx_StdPeriph_Driver/src/stm32f4xx_rtc.c ****   * |  and function   |          |          |           |              | selection  |  selection   
 210:App/STM32F4-Discovery/Libraries/STM32F4xx_StdPeriph_Driver/src/stm32f4xx_rtc.c ****   * |-----------------|----------|----------|-----------|--------------|------------|--------------
 211:App/STM32F4-Discovery/Libraries/STM32F4xx_StdPeriph_Driver/src/stm32f4xx_rtc.c ****   * |   Alarm out     |          |          |           |              |    Don't   |     Don't    
 212:App/STM32F4-Discovery/Libraries/STM32F4xx_StdPeriph_Driver/src/stm32f4xx_rtc.c ****   * |   output OD     |     1    |Don't care|Don't care | Don't care   |    care    |     care     
 213:App/STM32F4-Discovery/Libraries/STM32F4xx_StdPeriph_Driver/src/stm32f4xx_rtc.c ****   * |-----------------|----------|----------|-----------|--------------|------------|--------------
 214:App/STM32F4-Discovery/Libraries/STM32F4xx_StdPeriph_Driver/src/stm32f4xx_rtc.c ****   * |   Alarm out     |          |          |           |              |    Don't   |     Don't    
 215:App/STM32F4-Discovery/Libraries/STM32F4xx_StdPeriph_Driver/src/stm32f4xx_rtc.c ****   * |   output PP     |     1    |Don't care|Don't care | Don't care   |    care    |     care     
 216:App/STM32F4-Discovery/Libraries/STM32F4xx_StdPeriph_Driver/src/stm32f4xx_rtc.c ****   * |-----------------|----------|----------|-----------|--------------|------------|--------------
 217:App/STM32F4-Discovery/Libraries/STM32F4xx_StdPeriph_Driver/src/stm32f4xx_rtc.c ****   * | Calibration out |          |          |           |              |    Don't   |     Don't    
 218:App/STM32F4-Discovery/Libraries/STM32F4xx_StdPeriph_Driver/src/stm32f4xx_rtc.c ****   * |   output PP     |     0    |    1     |Don't care | Don't care   |    care    |     care     
 219:App/STM32F4-Discovery/Libraries/STM32F4xx_StdPeriph_Driver/src/stm32f4xx_rtc.c ****   * |-----------------|----------|----------|-----------|--------------|------------|--------------
 220:App/STM32F4-Discovery/Libraries/STM32F4xx_StdPeriph_Driver/src/stm32f4xx_rtc.c ****   * |  TAMPER input   |          |          |           |              |            |     Don't    
 221:App/STM32F4-Discovery/Libraries/STM32F4xx_StdPeriph_Driver/src/stm32f4xx_rtc.c ****   * |   floating      |     0    |    0     |     1     |      0       |      0     |     care     
 222:App/STM32F4-Discovery/Libraries/STM32F4xx_StdPeriph_Driver/src/stm32f4xx_rtc.c ****   * |-----------------|----------|----------|-----------|--------------|------------|--------------
 223:App/STM32F4-Discovery/Libraries/STM32F4xx_StdPeriph_Driver/src/stm32f4xx_rtc.c ****   * |  TIMESTAMP and  |          |          |           |              |            |              
 224:App/STM32F4-Discovery/Libraries/STM32F4xx_StdPeriph_Driver/src/stm32f4xx_rtc.c ****   * |  TAMPER input   |     0    |    0     |     1     |      1       |      0     |      0       
 225:App/STM32F4-Discovery/Libraries/STM32F4xx_StdPeriph_Driver/src/stm32f4xx_rtc.c ****   * |   floating      |          |          |           |              |            |              
 226:App/STM32F4-Discovery/Libraries/STM32F4xx_StdPeriph_Driver/src/stm32f4xx_rtc.c ****   * |-----------------|----------|----------|-----------|--------------|------------|--------------
 227:App/STM32F4-Discovery/Libraries/STM32F4xx_StdPeriph_Driver/src/stm32f4xx_rtc.c ****   * | TIMESTAMP input |          |          |           |              |    Don't   |              
 228:App/STM32F4-Discovery/Libraries/STM32F4xx_StdPeriph_Driver/src/stm32f4xx_rtc.c ****   * |    floating     |     0    |    0     |     0     |      1       |    care    |      0       
 229:App/STM32F4-Discovery/Libraries/STM32F4xx_StdPeriph_Driver/src/stm32f4xx_rtc.c ****   * |-----------------|----------|----------|-----------|--------------|------------|--------------
 230:App/STM32F4-Discovery/Libraries/STM32F4xx_StdPeriph_Driver/src/stm32f4xx_rtc.c ****   * |  Standard GPIO  |     0    |    0     |     0     |      0       | Don't care |  Don't care  
 231:App/STM32F4-Discovery/Libraries/STM32F4xx_StdPeriph_Driver/src/stm32f4xx_rtc.c ****   * +----------------------------------------------------------------------------------------------
 232:App/STM32F4-Discovery/Libraries/STM32F4xx_StdPeriph_Driver/src/stm32f4xx_rtc.c ****   *
 233:App/STM32F4-Discovery/Libraries/STM32F4xx_StdPeriph_Driver/src/stm32f4xx_rtc.c ****   *
 234:App/STM32F4-Discovery/Libraries/STM32F4xx_StdPeriph_Driver/src/stm32f4xx_rtc.c ****   *          ===================================================================
 235:App/STM32F4-Discovery/Libraries/STM32F4xx_StdPeriph_Driver/src/stm32f4xx_rtc.c ****   *                            Selection of RTC_AF2 alternate functions
 236:App/STM32F4-Discovery/Libraries/STM32F4xx_StdPeriph_Driver/src/stm32f4xx_rtc.c ****   *          ===================================================================
 237:App/STM32F4-Discovery/Libraries/STM32F4xx_StdPeriph_Driver/src/stm32f4xx_rtc.c ****   *          The RTC_AF2 pin (PI8) can be used for the following purposes:
 238:App/STM32F4-Discovery/Libraries/STM32F4xx_StdPeriph_Driver/src/stm32f4xx_rtc.c ****   *            - AFI_TAMPER
 239:App/STM32F4-Discovery/Libraries/STM32F4xx_StdPeriph_Driver/src/stm32f4xx_rtc.c ****   *            - AFI_TIMESTAMP
 240:App/STM32F4-Discovery/Libraries/STM32F4xx_StdPeriph_Driver/src/stm32f4xx_rtc.c ****   *
 241:App/STM32F4-Discovery/Libraries/STM32F4xx_StdPeriph_Driver/src/stm32f4xx_rtc.c ****   * +---------------------------------------------------------------------------------------+
 242:App/STM32F4-Discovery/Libraries/STM32F4xx_StdPeriph_Driver/src/stm32f4xx_rtc.c ****   * |     Pin         |AFI_TAMPER |AFI_TIMESTAMP | TAMP1INSEL |   TSINSEL    |ALARMOUTTYPE  |
 243:App/STM32F4-Discovery/Libraries/STM32F4xx_StdPeriph_Driver/src/stm32f4xx_rtc.c ****   * |  configuration  |  ENABLED  |   ENABLED    |TAMPER1 pin |TIMESTAMP pin |  AFO_ALARM   |
 244:App/STM32F4-Discovery/Libraries/STM32F4xx_StdPeriph_Driver/src/stm32f4xx_rtc.c ****   * |  and function   |           |              | selection  |  selection   |Configuration |
 245:App/STM32F4-Discovery/Libraries/STM32F4xx_StdPeriph_Driver/src/stm32f4xx_rtc.c ****   * |-----------------|-----------|--------------|------------|--------------|--------------|
 246:App/STM32F4-Discovery/Libraries/STM32F4xx_StdPeriph_Driver/src/stm32f4xx_rtc.c ****   * |  TAMPER input   |           |              |            |     Don't    |              |
 247:App/STM32F4-Discovery/Libraries/STM32F4xx_StdPeriph_Driver/src/stm32f4xx_rtc.c ****   * |   floating      |     1     |      0       |      1     |     care     |  Don't care  |
 248:App/STM32F4-Discovery/Libraries/STM32F4xx_StdPeriph_Driver/src/stm32f4xx_rtc.c ****   * |-----------------|-----------|--------------|------------|--------------|--------------|
 249:App/STM32F4-Discovery/Libraries/STM32F4xx_StdPeriph_Driver/src/stm32f4xx_rtc.c ****   * |  TIMESTAMP and  |           |              |            |              |              |
 250:App/STM32F4-Discovery/Libraries/STM32F4xx_StdPeriph_Driver/src/stm32f4xx_rtc.c ****   * |  TAMPER input   |     1     |      1       |      1     |      1       |  Don't care  |
 251:App/STM32F4-Discovery/Libraries/STM32F4xx_StdPeriph_Driver/src/stm32f4xx_rtc.c ****   * |   floating      |           |              |            |              |              |
 252:App/STM32F4-Discovery/Libraries/STM32F4xx_StdPeriph_Driver/src/stm32f4xx_rtc.c ****   * |-----------------|-----------|--------------|------------|--------------|--------------|
 253:App/STM32F4-Discovery/Libraries/STM32F4xx_StdPeriph_Driver/src/stm32f4xx_rtc.c ****   * | TIMESTAMP input |           |              |    Don't   |              |              |
 254:App/STM32F4-Discovery/Libraries/STM32F4xx_StdPeriph_Driver/src/stm32f4xx_rtc.c ****   * |    floating     |     0     |      1       |    care    |      1       |  Don't care  |
 255:App/STM32F4-Discovery/Libraries/STM32F4xx_StdPeriph_Driver/src/stm32f4xx_rtc.c ****   * |-----------------|-----------|--------------|------------|--------------|--------------|
 256:App/STM32F4-Discovery/Libraries/STM32F4xx_StdPeriph_Driver/src/stm32f4xx_rtc.c ****   * |  Standard GPIO  |     0     |      0       | Don't care |  Don't care  |  Don't care  |
 257:App/STM32F4-Discovery/Libraries/STM32F4xx_StdPeriph_Driver/src/stm32f4xx_rtc.c ****   * +---------------------------------------------------------------------------------------+
 258:App/STM32F4-Discovery/Libraries/STM32F4xx_StdPeriph_Driver/src/stm32f4xx_rtc.c ****   * 
 259:App/STM32F4-Discovery/Libraries/STM32F4xx_StdPeriph_Driver/src/stm32f4xx_rtc.c ****   *
 260:App/STM32F4-Discovery/Libraries/STM32F4xx_StdPeriph_Driver/src/stm32f4xx_rtc.c ****   *  @endverbatim
 261:App/STM32F4-Discovery/Libraries/STM32F4xx_StdPeriph_Driver/src/stm32f4xx_rtc.c ****   *
 262:App/STM32F4-Discovery/Libraries/STM32F4xx_StdPeriph_Driver/src/stm32f4xx_rtc.c ****   ******************************************************************************
 263:App/STM32F4-Discovery/Libraries/STM32F4xx_StdPeriph_Driver/src/stm32f4xx_rtc.c ****   * @attention
 264:App/STM32F4-Discovery/Libraries/STM32F4xx_StdPeriph_Driver/src/stm32f4xx_rtc.c ****   *
 265:App/STM32F4-Discovery/Libraries/STM32F4xx_StdPeriph_Driver/src/stm32f4xx_rtc.c ****   * THE PRESENT FIRMWARE WHICH IS FOR GUIDANCE ONLY AIMS AT PROVIDING CUSTOMERS
 266:App/STM32F4-Discovery/Libraries/STM32F4xx_StdPeriph_Driver/src/stm32f4xx_rtc.c ****   * WITH CODING INFORMATION REGARDING THEIR PRODUCTS IN ORDER FOR THEM TO SAVE
 267:App/STM32F4-Discovery/Libraries/STM32F4xx_StdPeriph_Driver/src/stm32f4xx_rtc.c ****   * TIME. AS A RESULT, STMICROELECTRONICS SHALL NOT BE HELD LIABLE FOR ANY
 268:App/STM32F4-Discovery/Libraries/STM32F4xx_StdPeriph_Driver/src/stm32f4xx_rtc.c ****   * DIRECT, INDIRECT OR CONSEQUENTIAL DAMAGES WITH RESPECT TO ANY CLAIMS ARISING
 269:App/STM32F4-Discovery/Libraries/STM32F4xx_StdPeriph_Driver/src/stm32f4xx_rtc.c ****   * FROM THE CONTENT OF SUCH FIRMWARE AND/OR THE USE MADE BY CUSTOMERS OF THE
 270:App/STM32F4-Discovery/Libraries/STM32F4xx_StdPeriph_Driver/src/stm32f4xx_rtc.c ****   * CODING INFORMATION CONTAINED HEREIN IN CONNECTION WITH THEIR PRODUCTS.
 271:App/STM32F4-Discovery/Libraries/STM32F4xx_StdPeriph_Driver/src/stm32f4xx_rtc.c ****   *
 272:App/STM32F4-Discovery/Libraries/STM32F4xx_StdPeriph_Driver/src/stm32f4xx_rtc.c ****   * <h2><center>&copy; COPYRIGHT 2011 STMicroelectronics</center></h2>
 273:App/STM32F4-Discovery/Libraries/STM32F4xx_StdPeriph_Driver/src/stm32f4xx_rtc.c ****   ******************************************************************************
 274:App/STM32F4-Discovery/Libraries/STM32F4xx_StdPeriph_Driver/src/stm32f4xx_rtc.c ****   */ 
 275:App/STM32F4-Discovery/Libraries/STM32F4xx_StdPeriph_Driver/src/stm32f4xx_rtc.c **** 
 276:App/STM32F4-Discovery/Libraries/STM32F4xx_StdPeriph_Driver/src/stm32f4xx_rtc.c **** /* Includes ------------------------------------------------------------------*/
 277:App/STM32F4-Discovery/Libraries/STM32F4xx_StdPeriph_Driver/src/stm32f4xx_rtc.c **** #include "stm32f4xx_rtc.h"
 278:App/STM32F4-Discovery/Libraries/STM32F4xx_StdPeriph_Driver/src/stm32f4xx_rtc.c **** #include "stm32f4xx_rcc.h"
 279:App/STM32F4-Discovery/Libraries/STM32F4xx_StdPeriph_Driver/src/stm32f4xx_rtc.c **** 
 280:App/STM32F4-Discovery/Libraries/STM32F4xx_StdPeriph_Driver/src/stm32f4xx_rtc.c **** /** @addtogroup STM32F4xx_StdPeriph_Driver
 281:App/STM32F4-Discovery/Libraries/STM32F4xx_StdPeriph_Driver/src/stm32f4xx_rtc.c ****   * @{
 282:App/STM32F4-Discovery/Libraries/STM32F4xx_StdPeriph_Driver/src/stm32f4xx_rtc.c ****   */
 283:App/STM32F4-Discovery/Libraries/STM32F4xx_StdPeriph_Driver/src/stm32f4xx_rtc.c **** 
 284:App/STM32F4-Discovery/Libraries/STM32F4xx_StdPeriph_Driver/src/stm32f4xx_rtc.c **** /** @defgroup RTC 
 285:App/STM32F4-Discovery/Libraries/STM32F4xx_StdPeriph_Driver/src/stm32f4xx_rtc.c ****   * @brief RTC driver modules
 286:App/STM32F4-Discovery/Libraries/STM32F4xx_StdPeriph_Driver/src/stm32f4xx_rtc.c ****   * @{
 287:App/STM32F4-Discovery/Libraries/STM32F4xx_StdPeriph_Driver/src/stm32f4xx_rtc.c ****   */
 288:App/STM32F4-Discovery/Libraries/STM32F4xx_StdPeriph_Driver/src/stm32f4xx_rtc.c **** 
 289:App/STM32F4-Discovery/Libraries/STM32F4xx_StdPeriph_Driver/src/stm32f4xx_rtc.c **** /* Private typedef -----------------------------------------------------------*/
 290:App/STM32F4-Discovery/Libraries/STM32F4xx_StdPeriph_Driver/src/stm32f4xx_rtc.c **** /* Private define ------------------------------------------------------------*/
 291:App/STM32F4-Discovery/Libraries/STM32F4xx_StdPeriph_Driver/src/stm32f4xx_rtc.c **** 
 292:App/STM32F4-Discovery/Libraries/STM32F4xx_StdPeriph_Driver/src/stm32f4xx_rtc.c **** /* Masks Definition */
 293:App/STM32F4-Discovery/Libraries/STM32F4xx_StdPeriph_Driver/src/stm32f4xx_rtc.c **** #define RTC_TR_RESERVED_MASK    ((uint32_t)0x007F7F7F)
 294:App/STM32F4-Discovery/Libraries/STM32F4xx_StdPeriph_Driver/src/stm32f4xx_rtc.c **** #define RTC_DR_RESERVED_MASK    ((uint32_t)0x00FFFF3F) 
 295:App/STM32F4-Discovery/Libraries/STM32F4xx_StdPeriph_Driver/src/stm32f4xx_rtc.c **** #define RTC_INIT_MASK           ((uint32_t)0xFFFFFFFF)  
 296:App/STM32F4-Discovery/Libraries/STM32F4xx_StdPeriph_Driver/src/stm32f4xx_rtc.c **** #define RTC_RSF_MASK            ((uint32_t)0xFFFFFF5F)
 297:App/STM32F4-Discovery/Libraries/STM32F4xx_StdPeriph_Driver/src/stm32f4xx_rtc.c **** #define RTC_FLAGS_MASK          ((uint32_t)(RTC_FLAG_TSOVF | RTC_FLAG_TSF | RTC_FLAG_WUTF | \
 298:App/STM32F4-Discovery/Libraries/STM32F4xx_StdPeriph_Driver/src/stm32f4xx_rtc.c ****                                             RTC_FLAG_ALRBF | RTC_FLAG_ALRAF | RTC_FLAG_INITF | \
 299:App/STM32F4-Discovery/Libraries/STM32F4xx_StdPeriph_Driver/src/stm32f4xx_rtc.c ****                                             RTC_FLAG_RSF | RTC_FLAG_INITS | RTC_FLAG_WUTWF | \
 300:App/STM32F4-Discovery/Libraries/STM32F4xx_StdPeriph_Driver/src/stm32f4xx_rtc.c ****                                             RTC_FLAG_ALRBWF | RTC_FLAG_ALRAWF | RTC_FLAG_TAMP1F ))
 301:App/STM32F4-Discovery/Libraries/STM32F4xx_StdPeriph_Driver/src/stm32f4xx_rtc.c **** 
 302:App/STM32F4-Discovery/Libraries/STM32F4xx_StdPeriph_Driver/src/stm32f4xx_rtc.c **** #define INITMODE_TIMEOUT         ((uint32_t) 0x00010000)
 303:App/STM32F4-Discovery/Libraries/STM32F4xx_StdPeriph_Driver/src/stm32f4xx_rtc.c **** #define SYNCHRO_TIMEOUT          ((uint32_t) 0x00020000)
 304:App/STM32F4-Discovery/Libraries/STM32F4xx_StdPeriph_Driver/src/stm32f4xx_rtc.c **** #define RECALPF_TIMEOUT          ((uint32_t) 0x00020000)
 305:App/STM32F4-Discovery/Libraries/STM32F4xx_StdPeriph_Driver/src/stm32f4xx_rtc.c **** #define SHPF_TIMEOUT             ((uint32_t) 0x00001000)
 306:App/STM32F4-Discovery/Libraries/STM32F4xx_StdPeriph_Driver/src/stm32f4xx_rtc.c **** 
 307:App/STM32F4-Discovery/Libraries/STM32F4xx_StdPeriph_Driver/src/stm32f4xx_rtc.c **** /* Private macro -------------------------------------------------------------*/
 308:App/STM32F4-Discovery/Libraries/STM32F4xx_StdPeriph_Driver/src/stm32f4xx_rtc.c **** /* Private variables ---------------------------------------------------------*/
 309:App/STM32F4-Discovery/Libraries/STM32F4xx_StdPeriph_Driver/src/stm32f4xx_rtc.c **** /* Private function prototypes -----------------------------------------------*/
 310:App/STM32F4-Discovery/Libraries/STM32F4xx_StdPeriph_Driver/src/stm32f4xx_rtc.c **** static uint8_t RTC_ByteToBcd2(uint8_t Value);
 311:App/STM32F4-Discovery/Libraries/STM32F4xx_StdPeriph_Driver/src/stm32f4xx_rtc.c **** static uint8_t RTC_Bcd2ToByte(uint8_t Value);
 312:App/STM32F4-Discovery/Libraries/STM32F4xx_StdPeriph_Driver/src/stm32f4xx_rtc.c **** 
 313:App/STM32F4-Discovery/Libraries/STM32F4xx_StdPeriph_Driver/src/stm32f4xx_rtc.c **** /* Private functions ---------------------------------------------------------*/
 314:App/STM32F4-Discovery/Libraries/STM32F4xx_StdPeriph_Driver/src/stm32f4xx_rtc.c **** 
 315:App/STM32F4-Discovery/Libraries/STM32F4xx_StdPeriph_Driver/src/stm32f4xx_rtc.c **** /** @defgroup RTC_Private_Functions
 316:App/STM32F4-Discovery/Libraries/STM32F4xx_StdPeriph_Driver/src/stm32f4xx_rtc.c ****   * @{
 317:App/STM32F4-Discovery/Libraries/STM32F4xx_StdPeriph_Driver/src/stm32f4xx_rtc.c ****   */ 
 318:App/STM32F4-Discovery/Libraries/STM32F4xx_StdPeriph_Driver/src/stm32f4xx_rtc.c **** 
 319:App/STM32F4-Discovery/Libraries/STM32F4xx_StdPeriph_Driver/src/stm32f4xx_rtc.c **** /** @defgroup RTC_Group1 Initialization and Configuration functions
 320:App/STM32F4-Discovery/Libraries/STM32F4xx_StdPeriph_Driver/src/stm32f4xx_rtc.c ****  *  @brief   Initialization and Configuration functions 
 321:App/STM32F4-Discovery/Libraries/STM32F4xx_StdPeriph_Driver/src/stm32f4xx_rtc.c ****  *
 322:App/STM32F4-Discovery/Libraries/STM32F4xx_StdPeriph_Driver/src/stm32f4xx_rtc.c **** @verbatim   
 323:App/STM32F4-Discovery/Libraries/STM32F4xx_StdPeriph_Driver/src/stm32f4xx_rtc.c ****  ===============================================================================
 324:App/STM32F4-Discovery/Libraries/STM32F4xx_StdPeriph_Driver/src/stm32f4xx_rtc.c ****                  Initialization and Configuration functions
 325:App/STM32F4-Discovery/Libraries/STM32F4xx_StdPeriph_Driver/src/stm32f4xx_rtc.c ****  ===============================================================================
 326:App/STM32F4-Discovery/Libraries/STM32F4xx_StdPeriph_Driver/src/stm32f4xx_rtc.c **** 
 327:App/STM32F4-Discovery/Libraries/STM32F4xx_StdPeriph_Driver/src/stm32f4xx_rtc.c ****   This section provide functions allowing to initialize and configure the RTC
 328:App/STM32F4-Discovery/Libraries/STM32F4xx_StdPeriph_Driver/src/stm32f4xx_rtc.c ****   Prescaler (Synchronous and Asynchronous), RTC Hour format, disable RTC registers
 329:App/STM32F4-Discovery/Libraries/STM32F4xx_StdPeriph_Driver/src/stm32f4xx_rtc.c ****   Write protection, enter and exit the RTC initialization mode, RTC registers
 330:App/STM32F4-Discovery/Libraries/STM32F4xx_StdPeriph_Driver/src/stm32f4xx_rtc.c ****   synchronization check and reference clock detection enable.
 331:App/STM32F4-Discovery/Libraries/STM32F4xx_StdPeriph_Driver/src/stm32f4xx_rtc.c ****   
 332:App/STM32F4-Discovery/Libraries/STM32F4xx_StdPeriph_Driver/src/stm32f4xx_rtc.c ****   1. The RTC Prescaler is programmed to generate the RTC 1Hz time base. It is
 333:App/STM32F4-Discovery/Libraries/STM32F4xx_StdPeriph_Driver/src/stm32f4xx_rtc.c ****      split into 2 programmable prescalers to minimize power consumption.
 334:App/STM32F4-Discovery/Libraries/STM32F4xx_StdPeriph_Driver/src/stm32f4xx_rtc.c ****      - A 7-bit asynchronous prescaler and A 13-bit synchronous prescaler.
 335:App/STM32F4-Discovery/Libraries/STM32F4xx_StdPeriph_Driver/src/stm32f4xx_rtc.c ****      - When both prescalers are used, it is recommended to configure the asynchronous
 336:App/STM32F4-Discovery/Libraries/STM32F4xx_StdPeriph_Driver/src/stm32f4xx_rtc.c ****        prescaler to a high value to minimize consumption.
 337:App/STM32F4-Discovery/Libraries/STM32F4xx_StdPeriph_Driver/src/stm32f4xx_rtc.c **** 
 338:App/STM32F4-Discovery/Libraries/STM32F4xx_StdPeriph_Driver/src/stm32f4xx_rtc.c ****   2. All RTC registers are Write protected. Writing to the RTC registers
 339:App/STM32F4-Discovery/Libraries/STM32F4xx_StdPeriph_Driver/src/stm32f4xx_rtc.c ****      is enabled by writing a key into the Write Protection register, RTC_WPR.
 340:App/STM32F4-Discovery/Libraries/STM32F4xx_StdPeriph_Driver/src/stm32f4xx_rtc.c **** 
 341:App/STM32F4-Discovery/Libraries/STM32F4xx_StdPeriph_Driver/src/stm32f4xx_rtc.c ****   3. To Configure the RTC Calendar, user application should enter initialization
 342:App/STM32F4-Discovery/Libraries/STM32F4xx_StdPeriph_Driver/src/stm32f4xx_rtc.c ****      mode. In this mode, the calendar counter is stopped and its value can be 
 343:App/STM32F4-Discovery/Libraries/STM32F4xx_StdPeriph_Driver/src/stm32f4xx_rtc.c ****      updated. When the initialization sequence is complete, the calendar restarts 
 344:App/STM32F4-Discovery/Libraries/STM32F4xx_StdPeriph_Driver/src/stm32f4xx_rtc.c ****      counting after 4 RTCCLK cycles.
 345:App/STM32F4-Discovery/Libraries/STM32F4xx_StdPeriph_Driver/src/stm32f4xx_rtc.c **** 
 346:App/STM32F4-Discovery/Libraries/STM32F4xx_StdPeriph_Driver/src/stm32f4xx_rtc.c ****   4. To read the calendar through the shadow registers after Calendar initialization,
 347:App/STM32F4-Discovery/Libraries/STM32F4xx_StdPeriph_Driver/src/stm32f4xx_rtc.c ****      calendar update or after wakeup from low power modes the software must first 
 348:App/STM32F4-Discovery/Libraries/STM32F4xx_StdPeriph_Driver/src/stm32f4xx_rtc.c ****      clear the RSF flag. The software must then wait until it is set again before 
 349:App/STM32F4-Discovery/Libraries/STM32F4xx_StdPeriph_Driver/src/stm32f4xx_rtc.c ****      reading the calendar, which means that the calendar registers have been 
 350:App/STM32F4-Discovery/Libraries/STM32F4xx_StdPeriph_Driver/src/stm32f4xx_rtc.c ****      correctly copied into the RTC_TR and RTC_DR shadow registers.
 351:App/STM32F4-Discovery/Libraries/STM32F4xx_StdPeriph_Driver/src/stm32f4xx_rtc.c ****      The RTC_WaitForSynchro() function implements the above software sequence 
 352:App/STM32F4-Discovery/Libraries/STM32F4xx_StdPeriph_Driver/src/stm32f4xx_rtc.c ****      (RSF clear and RSF check).
 353:App/STM32F4-Discovery/Libraries/STM32F4xx_StdPeriph_Driver/src/stm32f4xx_rtc.c **** 
 354:App/STM32F4-Discovery/Libraries/STM32F4xx_StdPeriph_Driver/src/stm32f4xx_rtc.c **** @endverbatim
 355:App/STM32F4-Discovery/Libraries/STM32F4xx_StdPeriph_Driver/src/stm32f4xx_rtc.c ****   * @{
 356:App/STM32F4-Discovery/Libraries/STM32F4xx_StdPeriph_Driver/src/stm32f4xx_rtc.c ****   */
 357:App/STM32F4-Discovery/Libraries/STM32F4xx_StdPeriph_Driver/src/stm32f4xx_rtc.c **** 
 358:App/STM32F4-Discovery/Libraries/STM32F4xx_StdPeriph_Driver/src/stm32f4xx_rtc.c **** /**
 359:App/STM32F4-Discovery/Libraries/STM32F4xx_StdPeriph_Driver/src/stm32f4xx_rtc.c ****   * @brief  Deinitializes the RTC registers to their default reset values.
 360:App/STM32F4-Discovery/Libraries/STM32F4xx_StdPeriph_Driver/src/stm32f4xx_rtc.c ****   * @note   This function doesn't reset the RTC Clock source and RTC Backup Data
 361:App/STM32F4-Discovery/Libraries/STM32F4xx_StdPeriph_Driver/src/stm32f4xx_rtc.c ****   *         registers.       
 362:App/STM32F4-Discovery/Libraries/STM32F4xx_StdPeriph_Driver/src/stm32f4xx_rtc.c ****   * @param  None
 363:App/STM32F4-Discovery/Libraries/STM32F4xx_StdPeriph_Driver/src/stm32f4xx_rtc.c ****   * @retval An ErrorStatus enumeration value:
 364:App/STM32F4-Discovery/Libraries/STM32F4xx_StdPeriph_Driver/src/stm32f4xx_rtc.c ****   *          - SUCCESS: RTC registers are deinitialized
 365:App/STM32F4-Discovery/Libraries/STM32F4xx_StdPeriph_Driver/src/stm32f4xx_rtc.c ****   *          - ERROR: RTC registers are not deinitialized
 366:App/STM32F4-Discovery/Libraries/STM32F4xx_StdPeriph_Driver/src/stm32f4xx_rtc.c ****   */
 367:App/STM32F4-Discovery/Libraries/STM32F4xx_StdPeriph_Driver/src/stm32f4xx_rtc.c **** ErrorStatus RTC_DeInit(void)
 368:App/STM32F4-Discovery/Libraries/STM32F4xx_StdPeriph_Driver/src/stm32f4xx_rtc.c **** {
  28              		.loc 1 368 0
  29              		.cfi_startproc
  30              		@ args = 0, pretend = 0, frame = 16
  31              		@ frame_needed = 1, uses_anonymous_args = 0
  32 0000 80B5     		push	{r7, lr}
  33              	.LCFI0:
  34              		.cfi_def_cfa_offset 8
  35              		.cfi_offset 7, -8
  36              		.cfi_offset 14, -4
  37 0002 84B0     		sub	sp, sp, #16
  38              	.LCFI1:
  39              		.cfi_def_cfa_offset 24
  40 0004 00AF     		add	r7, sp, #0
  41              	.LCFI2:
  42              		.cfi_def_cfa_register 7
 369:App/STM32F4-Discovery/Libraries/STM32F4xx_StdPeriph_Driver/src/stm32f4xx_rtc.c ****   __IO uint32_t wutcounter = 0x00;
  43              		.loc 1 369 0
  44 0006 0023     		movs	r3, #0
  45 0008 7B60     		str	r3, [r7, #4]
 370:App/STM32F4-Discovery/Libraries/STM32F4xx_StdPeriph_Driver/src/stm32f4xx_rtc.c ****   uint32_t wutwfstatus = 0x00;
  46              		.loc 1 370 0
  47 000a 0023     		movs	r3, #0
  48 000c BB60     		str	r3, [r7, #8]
 371:App/STM32F4-Discovery/Libraries/STM32F4xx_StdPeriph_Driver/src/stm32f4xx_rtc.c ****   ErrorStatus status = ERROR;
  49              		.loc 1 371 0
  50 000e 0023     		movs	r3, #0
  51 0010 FB73     		strb	r3, [r7, #15]
 372:App/STM32F4-Discovery/Libraries/STM32F4xx_StdPeriph_Driver/src/stm32f4xx_rtc.c ****   
 373:App/STM32F4-Discovery/Libraries/STM32F4xx_StdPeriph_Driver/src/stm32f4xx_rtc.c ****   /* Disable the write protection for RTC registers */
 374:App/STM32F4-Discovery/Libraries/STM32F4xx_StdPeriph_Driver/src/stm32f4xx_rtc.c ****   RTC->WPR = 0xCA;
  52              		.loc 1 374 0
  53 0012 304B     		ldr	r3, .L9
  54 0014 CA22     		movs	r2, #202
  55 0016 5A62     		str	r2, [r3, #36]
 375:App/STM32F4-Discovery/Libraries/STM32F4xx_StdPeriph_Driver/src/stm32f4xx_rtc.c ****   RTC->WPR = 0x53;
  56              		.loc 1 375 0
  57 0018 2E4B     		ldr	r3, .L9
  58 001a 5322     		movs	r2, #83
  59 001c 5A62     		str	r2, [r3, #36]
 376:App/STM32F4-Discovery/Libraries/STM32F4xx_StdPeriph_Driver/src/stm32f4xx_rtc.c **** 
 377:App/STM32F4-Discovery/Libraries/STM32F4xx_StdPeriph_Driver/src/stm32f4xx_rtc.c ****   /* Set Initialization mode */
 378:App/STM32F4-Discovery/Libraries/STM32F4xx_StdPeriph_Driver/src/stm32f4xx_rtc.c ****   if (RTC_EnterInitMode() == ERROR)
  60              		.loc 1 378 0
  61 001e FFF7FEFF 		bl	RTC_EnterInitMode
  62 0022 0346     		mov	r3, r0
  63 0024 002B     		cmp	r3, #0
  64 0026 02D1     		bne	.L2
 379:App/STM32F4-Discovery/Libraries/STM32F4xx_StdPeriph_Driver/src/stm32f4xx_rtc.c ****   {
 380:App/STM32F4-Discovery/Libraries/STM32F4xx_StdPeriph_Driver/src/stm32f4xx_rtc.c ****     status = ERROR;
  65              		.loc 1 380 0
  66 0028 0023     		movs	r3, #0
  67 002a FB73     		strb	r3, [r7, #15]
  68 002c 49E0     		b	.L3
  69              	.L2:
 381:App/STM32F4-Discovery/Libraries/STM32F4xx_StdPeriph_Driver/src/stm32f4xx_rtc.c ****   }  
 382:App/STM32F4-Discovery/Libraries/STM32F4xx_StdPeriph_Driver/src/stm32f4xx_rtc.c ****   else
 383:App/STM32F4-Discovery/Libraries/STM32F4xx_StdPeriph_Driver/src/stm32f4xx_rtc.c ****   {
 384:App/STM32F4-Discovery/Libraries/STM32F4xx_StdPeriph_Driver/src/stm32f4xx_rtc.c ****     /* Reset TR, DR and CR registers */
 385:App/STM32F4-Discovery/Libraries/STM32F4xx_StdPeriph_Driver/src/stm32f4xx_rtc.c ****     RTC->TR = (uint32_t)0x00000000;
  70              		.loc 1 385 0
  71 002e 294B     		ldr	r3, .L9
  72 0030 0022     		movs	r2, #0
  73 0032 1A60     		str	r2, [r3]
 386:App/STM32F4-Discovery/Libraries/STM32F4xx_StdPeriph_Driver/src/stm32f4xx_rtc.c ****     RTC->DR = (uint32_t)0x00002101;
  74              		.loc 1 386 0
  75 0034 274B     		ldr	r3, .L9
  76 0036 42F20112 		movw	r2, #8449
  77 003a 5A60     		str	r2, [r3, #4]
 387:App/STM32F4-Discovery/Libraries/STM32F4xx_StdPeriph_Driver/src/stm32f4xx_rtc.c ****     /* Reset All CR bits except CR[2:0] */
 388:App/STM32F4-Discovery/Libraries/STM32F4xx_StdPeriph_Driver/src/stm32f4xx_rtc.c ****     RTC->CR &= (uint32_t)0x00000007;
  78              		.loc 1 388 0
  79 003c 254B     		ldr	r3, .L9
  80 003e 254A     		ldr	r2, .L9
  81 0040 9268     		ldr	r2, [r2, #8]
  82 0042 02F00702 		and	r2, r2, #7
  83 0046 9A60     		str	r2, [r3, #8]
  84              	.L5:
 389:App/STM32F4-Discovery/Libraries/STM32F4xx_StdPeriph_Driver/src/stm32f4xx_rtc.c ****   
 390:App/STM32F4-Discovery/Libraries/STM32F4xx_StdPeriph_Driver/src/stm32f4xx_rtc.c ****     /* Wait till RTC WUTWF flag is set and if Time out is reached exit */
 391:App/STM32F4-Discovery/Libraries/STM32F4xx_StdPeriph_Driver/src/stm32f4xx_rtc.c ****     do
 392:App/STM32F4-Discovery/Libraries/STM32F4xx_StdPeriph_Driver/src/stm32f4xx_rtc.c ****     {
 393:App/STM32F4-Discovery/Libraries/STM32F4xx_StdPeriph_Driver/src/stm32f4xx_rtc.c ****       wutwfstatus = RTC->ISR & RTC_ISR_WUTWF;
  85              		.loc 1 393 0 discriminator 1
  86 0048 224B     		ldr	r3, .L9
  87 004a DB68     		ldr	r3, [r3, #12]
  88 004c 03F00403 		and	r3, r3, #4
  89 0050 BB60     		str	r3, [r7, #8]
 394:App/STM32F4-Discovery/Libraries/STM32F4xx_StdPeriph_Driver/src/stm32f4xx_rtc.c ****       wutcounter++;  
  90              		.loc 1 394 0 discriminator 1
  91 0052 7B68     		ldr	r3, [r7, #4]
  92 0054 0133     		adds	r3, r3, #1
  93 0056 7B60     		str	r3, [r7, #4]
 395:App/STM32F4-Discovery/Libraries/STM32F4xx_StdPeriph_Driver/src/stm32f4xx_rtc.c ****     } while((wutcounter != INITMODE_TIMEOUT) && (wutwfstatus == 0x00));
  94              		.loc 1 395 0 discriminator 1
  95 0058 7B68     		ldr	r3, [r7, #4]
  96 005a B3F5803F 		cmp	r3, #65536
  97 005e 02D0     		beq	.L4
  98 0060 BB68     		ldr	r3, [r7, #8]
  99 0062 002B     		cmp	r3, #0
 100 0064 F0D0     		beq	.L5
 101              	.L4:
 396:App/STM32F4-Discovery/Libraries/STM32F4xx_StdPeriph_Driver/src/stm32f4xx_rtc.c ****     
 397:App/STM32F4-Discovery/Libraries/STM32F4xx_StdPeriph_Driver/src/stm32f4xx_rtc.c ****     if ((RTC->ISR & RTC_ISR_WUTWF) == RESET)
 102              		.loc 1 397 0
 103 0066 1B4B     		ldr	r3, .L9
 104 0068 DB68     		ldr	r3, [r3, #12]
 105 006a 03F00403 		and	r3, r3, #4
 106 006e 002B     		cmp	r3, #0
 107 0070 02D1     		bne	.L6
 398:App/STM32F4-Discovery/Libraries/STM32F4xx_StdPeriph_Driver/src/stm32f4xx_rtc.c ****     {
 399:App/STM32F4-Discovery/Libraries/STM32F4xx_StdPeriph_Driver/src/stm32f4xx_rtc.c ****       status = ERROR;
 108              		.loc 1 399 0
 109 0072 0023     		movs	r3, #0
 110 0074 FB73     		strb	r3, [r7, #15]
 111 0076 24E0     		b	.L3
 112              	.L6:
 400:App/STM32F4-Discovery/Libraries/STM32F4xx_StdPeriph_Driver/src/stm32f4xx_rtc.c ****     }
 401:App/STM32F4-Discovery/Libraries/STM32F4xx_StdPeriph_Driver/src/stm32f4xx_rtc.c ****     else
 402:App/STM32F4-Discovery/Libraries/STM32F4xx_StdPeriph_Driver/src/stm32f4xx_rtc.c ****     {
 403:App/STM32F4-Discovery/Libraries/STM32F4xx_StdPeriph_Driver/src/stm32f4xx_rtc.c ****       /* Reset all RTC CR register bits */
 404:App/STM32F4-Discovery/Libraries/STM32F4xx_StdPeriph_Driver/src/stm32f4xx_rtc.c ****       RTC->CR &= (uint32_t)0x00000000;
 113              		.loc 1 404 0
 114 0078 164B     		ldr	r3, .L9
 115 007a 9B68     		ldr	r3, [r3, #8]
 116 007c 154B     		ldr	r3, .L9
 117 007e 0022     		movs	r2, #0
 118 0080 9A60     		str	r2, [r3, #8]
 405:App/STM32F4-Discovery/Libraries/STM32F4xx_StdPeriph_Driver/src/stm32f4xx_rtc.c ****       RTC->WUTR = (uint32_t)0x0000FFFF;
 119              		.loc 1 405 0
 120 0082 144B     		ldr	r3, .L9
 121 0084 4FF6FF72 		movw	r2, #65535
 122 0088 5A61     		str	r2, [r3, #20]
 406:App/STM32F4-Discovery/Libraries/STM32F4xx_StdPeriph_Driver/src/stm32f4xx_rtc.c ****       RTC->PRER = (uint32_t)0x007F00FF;
 123              		.loc 1 406 0
 124 008a 124B     		ldr	r3, .L9
 125 008c 124A     		ldr	r2, .L9+4
 126 008e 1A61     		str	r2, [r3, #16]
 407:App/STM32F4-Discovery/Libraries/STM32F4xx_StdPeriph_Driver/src/stm32f4xx_rtc.c ****       RTC->CALIBR = (uint32_t)0x00000000;
 127              		.loc 1 407 0
 128 0090 104B     		ldr	r3, .L9
 129 0092 0022     		movs	r2, #0
 130 0094 9A61     		str	r2, [r3, #24]
 408:App/STM32F4-Discovery/Libraries/STM32F4xx_StdPeriph_Driver/src/stm32f4xx_rtc.c ****       RTC->ALRMAR = (uint32_t)0x00000000;        
 131              		.loc 1 408 0
 132 0096 0F4B     		ldr	r3, .L9
 133 0098 0022     		movs	r2, #0
 134 009a DA61     		str	r2, [r3, #28]
 409:App/STM32F4-Discovery/Libraries/STM32F4xx_StdPeriph_Driver/src/stm32f4xx_rtc.c ****       RTC->ALRMBR = (uint32_t)0x00000000;
 135              		.loc 1 409 0
 136 009c 0D4B     		ldr	r3, .L9
 137 009e 0022     		movs	r2, #0
 138 00a0 1A62     		str	r2, [r3, #32]
 410:App/STM32F4-Discovery/Libraries/STM32F4xx_StdPeriph_Driver/src/stm32f4xx_rtc.c ****       
 411:App/STM32F4-Discovery/Libraries/STM32F4xx_StdPeriph_Driver/src/stm32f4xx_rtc.c ****       /* Reset ISR register and exit initialization mode */
 412:App/STM32F4-Discovery/Libraries/STM32F4xx_StdPeriph_Driver/src/stm32f4xx_rtc.c ****       RTC->ISR = (uint32_t)0x00000000;
 139              		.loc 1 412 0
 140 00a2 0C4B     		ldr	r3, .L9
 141 00a4 0022     		movs	r2, #0
 142 00a6 DA60     		str	r2, [r3, #12]
 413:App/STM32F4-Discovery/Libraries/STM32F4xx_StdPeriph_Driver/src/stm32f4xx_rtc.c ****       
 414:App/STM32F4-Discovery/Libraries/STM32F4xx_StdPeriph_Driver/src/stm32f4xx_rtc.c ****       /* Reset Tamper and alternate functions configuration register */
 415:App/STM32F4-Discovery/Libraries/STM32F4xx_StdPeriph_Driver/src/stm32f4xx_rtc.c ****       RTC->TAFCR = 0x00000000;
 143              		.loc 1 415 0
 144 00a8 0A4B     		ldr	r3, .L9
 145 00aa 0022     		movs	r2, #0
 146 00ac 1A64     		str	r2, [r3, #64]
 416:App/STM32F4-Discovery/Libraries/STM32F4xx_StdPeriph_Driver/src/stm32f4xx_rtc.c ****   
 417:App/STM32F4-Discovery/Libraries/STM32F4xx_StdPeriph_Driver/src/stm32f4xx_rtc.c ****       if(RTC_WaitForSynchro() == ERROR)
 147              		.loc 1 417 0
 148 00ae FFF7FEFF 		bl	RTC_WaitForSynchro
 149 00b2 0346     		mov	r3, r0
 150 00b4 002B     		cmp	r3, #0
 151 00b6 02D1     		bne	.L7
 418:App/STM32F4-Discovery/Libraries/STM32F4xx_StdPeriph_Driver/src/stm32f4xx_rtc.c ****       {
 419:App/STM32F4-Discovery/Libraries/STM32F4xx_StdPeriph_Driver/src/stm32f4xx_rtc.c ****         status = ERROR;
 152              		.loc 1 419 0
 153 00b8 0023     		movs	r3, #0
 154 00ba FB73     		strb	r3, [r7, #15]
 155 00bc 01E0     		b	.L3
 156              	.L7:
 420:App/STM32F4-Discovery/Libraries/STM32F4xx_StdPeriph_Driver/src/stm32f4xx_rtc.c ****       }
 421:App/STM32F4-Discovery/Libraries/STM32F4xx_StdPeriph_Driver/src/stm32f4xx_rtc.c ****       else
 422:App/STM32F4-Discovery/Libraries/STM32F4xx_StdPeriph_Driver/src/stm32f4xx_rtc.c ****       {
 423:App/STM32F4-Discovery/Libraries/STM32F4xx_StdPeriph_Driver/src/stm32f4xx_rtc.c ****         status = SUCCESS;      
 157              		.loc 1 423 0
 158 00be 0123     		movs	r3, #1
 159 00c0 FB73     		strb	r3, [r7, #15]
 160              	.L3:
 424:App/STM32F4-Discovery/Libraries/STM32F4xx_StdPeriph_Driver/src/stm32f4xx_rtc.c ****       }
 425:App/STM32F4-Discovery/Libraries/STM32F4xx_StdPeriph_Driver/src/stm32f4xx_rtc.c ****     }
 426:App/STM32F4-Discovery/Libraries/STM32F4xx_StdPeriph_Driver/src/stm32f4xx_rtc.c ****   }
 427:App/STM32F4-Discovery/Libraries/STM32F4xx_StdPeriph_Driver/src/stm32f4xx_rtc.c ****   
 428:App/STM32F4-Discovery/Libraries/STM32F4xx_StdPeriph_Driver/src/stm32f4xx_rtc.c ****   /* Enable the write protection for RTC registers */
 429:App/STM32F4-Discovery/Libraries/STM32F4xx_StdPeriph_Driver/src/stm32f4xx_rtc.c ****   RTC->WPR = 0xFF;  
 161              		.loc 1 429 0
 162 00c2 044B     		ldr	r3, .L9
 163 00c4 FF22     		movs	r2, #255
 164 00c6 5A62     		str	r2, [r3, #36]
 430:App/STM32F4-Discovery/Libraries/STM32F4xx_StdPeriph_Driver/src/stm32f4xx_rtc.c ****   
 431:App/STM32F4-Discovery/Libraries/STM32F4xx_StdPeriph_Driver/src/stm32f4xx_rtc.c ****   return status;
 165              		.loc 1 431 0
 166 00c8 FB7B     		ldrb	r3, [r7, #15]	@ zero_extendqisi2
 432:App/STM32F4-Discovery/Libraries/STM32F4xx_StdPeriph_Driver/src/stm32f4xx_rtc.c **** }
 167              		.loc 1 432 0
 168 00ca 1846     		mov	r0, r3
 169 00cc 1037     		adds	r7, r7, #16
 170 00ce BD46     		mov	sp, r7
 171              		@ sp needed
 172 00d0 80BD     		pop	{r7, pc}
 173              	.L10:
 174 00d2 00BF     		.align	2
 175              	.L9:
 176 00d4 00280040 		.word	1073752064
 177 00d8 FF007F00 		.word	8323327
 178              		.cfi_endproc
 179              	.LFE110:
 181              		.section	.rodata
 182              		.align	2
 183              	.LC0:
 184 0000 4170702F 		.ascii	"App/STM32F4-Discovery/Libraries/STM32F4xx_StdPeriph"
 184      53544D33 
 184      3246342D 
 184      44697363 
 184      6F766572 
 185 0033 5F447269 		.ascii	"_Driver/src/stm32f4xx_rtc.c\000"
 185      7665722F 
 185      7372632F 
 185      73746D33 
 185      32663478 
 186 004f 00       		.section	.text.RTC_Init,"ax",%progbits
 187              		.align	2
 188              		.global	RTC_Init
 189              		.thumb
 190              		.thumb_func
 192              	RTC_Init:
 193              	.LFB111:
 433:App/STM32F4-Discovery/Libraries/STM32F4xx_StdPeriph_Driver/src/stm32f4xx_rtc.c **** 
 434:App/STM32F4-Discovery/Libraries/STM32F4xx_StdPeriph_Driver/src/stm32f4xx_rtc.c **** /**
 435:App/STM32F4-Discovery/Libraries/STM32F4xx_StdPeriph_Driver/src/stm32f4xx_rtc.c ****   * @brief  Initializes the RTC registers according to the specified parameters 
 436:App/STM32F4-Discovery/Libraries/STM32F4xx_StdPeriph_Driver/src/stm32f4xx_rtc.c ****   *         in RTC_InitStruct.
 437:App/STM32F4-Discovery/Libraries/STM32F4xx_StdPeriph_Driver/src/stm32f4xx_rtc.c ****   * @param  RTC_InitStruct: pointer to a RTC_InitTypeDef structure that contains 
 438:App/STM32F4-Discovery/Libraries/STM32F4xx_StdPeriph_Driver/src/stm32f4xx_rtc.c ****   *         the configuration information for the RTC peripheral.
 439:App/STM32F4-Discovery/Libraries/STM32F4xx_StdPeriph_Driver/src/stm32f4xx_rtc.c ****   * @note   The RTC Prescaler register is write protected and can be written in 
 440:App/STM32F4-Discovery/Libraries/STM32F4xx_StdPeriph_Driver/src/stm32f4xx_rtc.c ****   *         initialization mode only.  
 441:App/STM32F4-Discovery/Libraries/STM32F4xx_StdPeriph_Driver/src/stm32f4xx_rtc.c ****   * @retval An ErrorStatus enumeration value:
 442:App/STM32F4-Discovery/Libraries/STM32F4xx_StdPeriph_Driver/src/stm32f4xx_rtc.c ****   *          - SUCCESS: RTC registers are initialized
 443:App/STM32F4-Discovery/Libraries/STM32F4xx_StdPeriph_Driver/src/stm32f4xx_rtc.c ****   *          - ERROR: RTC registers are not initialized  
 444:App/STM32F4-Discovery/Libraries/STM32F4xx_StdPeriph_Driver/src/stm32f4xx_rtc.c ****   */
 445:App/STM32F4-Discovery/Libraries/STM32F4xx_StdPeriph_Driver/src/stm32f4xx_rtc.c **** ErrorStatus RTC_Init(RTC_InitTypeDef* RTC_InitStruct)
 446:App/STM32F4-Discovery/Libraries/STM32F4xx_StdPeriph_Driver/src/stm32f4xx_rtc.c **** {
 194              		.loc 1 446 0
 195              		.cfi_startproc
 196              		@ args = 0, pretend = 0, frame = 16
 197              		@ frame_needed = 1, uses_anonymous_args = 0
 198 0000 80B5     		push	{r7, lr}
 199              	.LCFI3:
 200              		.cfi_def_cfa_offset 8
 201              		.cfi_offset 7, -8
 202              		.cfi_offset 14, -4
 203 0002 84B0     		sub	sp, sp, #16
 204              	.LCFI4:
 205              		.cfi_def_cfa_offset 24
 206 0004 00AF     		add	r7, sp, #0
 207              	.LCFI5:
 208              		.cfi_def_cfa_register 7
 209 0006 7860     		str	r0, [r7, #4]
 447:App/STM32F4-Discovery/Libraries/STM32F4xx_StdPeriph_Driver/src/stm32f4xx_rtc.c ****   ErrorStatus status = ERROR;
 210              		.loc 1 447 0
 211 0008 0023     		movs	r3, #0
 212 000a FB73     		strb	r3, [r7, #15]
 448:App/STM32F4-Discovery/Libraries/STM32F4xx_StdPeriph_Driver/src/stm32f4xx_rtc.c ****   
 449:App/STM32F4-Discovery/Libraries/STM32F4xx_StdPeriph_Driver/src/stm32f4xx_rtc.c ****   /* Check the parameters */
 450:App/STM32F4-Discovery/Libraries/STM32F4xx_StdPeriph_Driver/src/stm32f4xx_rtc.c ****   assert_param(IS_RTC_HOUR_FORMAT(RTC_InitStruct->RTC_HourFormat));
 213              		.loc 1 450 0
 214 000c 7B68     		ldr	r3, [r7, #4]
 215 000e 1B68     		ldr	r3, [r3]
 216 0010 402B     		cmp	r3, #64
 217 0012 08D0     		beq	.L12
 218              		.loc 1 450 0 is_stmt 0 discriminator 1
 219 0014 7B68     		ldr	r3, [r7, #4]
 220 0016 1B68     		ldr	r3, [r3]
 221 0018 002B     		cmp	r3, #0
 222 001a 04D0     		beq	.L12
 223 001c 2548     		ldr	r0, .L18
 224 001e 4FF4E171 		mov	r1, #450
 225 0022 FFF7FEFF 		bl	assert_failed
 226              	.L12:
 451:App/STM32F4-Discovery/Libraries/STM32F4xx_StdPeriph_Driver/src/stm32f4xx_rtc.c ****   assert_param(IS_RTC_ASYNCH_PREDIV(RTC_InitStruct->RTC_AsynchPrediv));
 227              		.loc 1 451 0 is_stmt 1
 228 0026 7B68     		ldr	r3, [r7, #4]
 229 0028 5B68     		ldr	r3, [r3, #4]
 230 002a 7F2B     		cmp	r3, #127
 231 002c 04D9     		bls	.L13
 232              		.loc 1 451 0 is_stmt 0 discriminator 1
 233 002e 2148     		ldr	r0, .L18
 234 0030 40F2C311 		movw	r1, #451
 235 0034 FFF7FEFF 		bl	assert_failed
 236              	.L13:
 452:App/STM32F4-Discovery/Libraries/STM32F4xx_StdPeriph_Driver/src/stm32f4xx_rtc.c ****   assert_param(IS_RTC_SYNCH_PREDIV(RTC_InitStruct->RTC_SynchPrediv));
 237              		.loc 1 452 0 is_stmt 1
 238 0038 7B68     		ldr	r3, [r7, #4]
 239 003a 9B68     		ldr	r3, [r3, #8]
 240 003c B3F5004F 		cmp	r3, #32768
 241 0040 04D3     		bcc	.L14
 242              		.loc 1 452 0 is_stmt 0 discriminator 1
 243 0042 1C48     		ldr	r0, .L18
 244 0044 4FF4E271 		mov	r1, #452
 245 0048 FFF7FEFF 		bl	assert_failed
 246              	.L14:
 453:App/STM32F4-Discovery/Libraries/STM32F4xx_StdPeriph_Driver/src/stm32f4xx_rtc.c **** 
 454:App/STM32F4-Discovery/Libraries/STM32F4xx_StdPeriph_Driver/src/stm32f4xx_rtc.c ****   /* Disable the write protection for RTC registers */
 455:App/STM32F4-Discovery/Libraries/STM32F4xx_StdPeriph_Driver/src/stm32f4xx_rtc.c ****   RTC->WPR = 0xCA;
 247              		.loc 1 455 0 is_stmt 1
 248 004c 1A4B     		ldr	r3, .L18+4
 249 004e CA22     		movs	r2, #202
 250 0050 5A62     		str	r2, [r3, #36]
 456:App/STM32F4-Discovery/Libraries/STM32F4xx_StdPeriph_Driver/src/stm32f4xx_rtc.c ****   RTC->WPR = 0x53;
 251              		.loc 1 456 0
 252 0052 194B     		ldr	r3, .L18+4
 253 0054 5322     		movs	r2, #83
 254 0056 5A62     		str	r2, [r3, #36]
 457:App/STM32F4-Discovery/Libraries/STM32F4xx_StdPeriph_Driver/src/stm32f4xx_rtc.c **** 
 458:App/STM32F4-Discovery/Libraries/STM32F4xx_StdPeriph_Driver/src/stm32f4xx_rtc.c ****   /* Set Initialization mode */
 459:App/STM32F4-Discovery/Libraries/STM32F4xx_StdPeriph_Driver/src/stm32f4xx_rtc.c ****   if (RTC_EnterInitMode() == ERROR)
 255              		.loc 1 459 0
 256 0058 FFF7FEFF 		bl	RTC_EnterInitMode
 257 005c 0346     		mov	r3, r0
 258 005e 002B     		cmp	r3, #0
 259 0060 02D1     		bne	.L15
 460:App/STM32F4-Discovery/Libraries/STM32F4xx_StdPeriph_Driver/src/stm32f4xx_rtc.c ****   {
 461:App/STM32F4-Discovery/Libraries/STM32F4xx_StdPeriph_Driver/src/stm32f4xx_rtc.c ****     status = ERROR;
 260              		.loc 1 461 0
 261 0062 0023     		movs	r3, #0
 262 0064 FB73     		strb	r3, [r7, #15]
 263 0066 1CE0     		b	.L16
 264              	.L15:
 462:App/STM32F4-Discovery/Libraries/STM32F4xx_StdPeriph_Driver/src/stm32f4xx_rtc.c ****   } 
 463:App/STM32F4-Discovery/Libraries/STM32F4xx_StdPeriph_Driver/src/stm32f4xx_rtc.c ****   else
 464:App/STM32F4-Discovery/Libraries/STM32F4xx_StdPeriph_Driver/src/stm32f4xx_rtc.c ****   {
 465:App/STM32F4-Discovery/Libraries/STM32F4xx_StdPeriph_Driver/src/stm32f4xx_rtc.c ****     /* Clear RTC CR FMT Bit */
 466:App/STM32F4-Discovery/Libraries/STM32F4xx_StdPeriph_Driver/src/stm32f4xx_rtc.c ****     RTC->CR &= ((uint32_t)~(RTC_CR_FMT));
 265              		.loc 1 466 0
 266 0068 134B     		ldr	r3, .L18+4
 267 006a 134A     		ldr	r2, .L18+4
 268 006c 9268     		ldr	r2, [r2, #8]
 269 006e 22F04002 		bic	r2, r2, #64
 270 0072 9A60     		str	r2, [r3, #8]
 467:App/STM32F4-Discovery/Libraries/STM32F4xx_StdPeriph_Driver/src/stm32f4xx_rtc.c ****     /* Set RTC_CR register */
 468:App/STM32F4-Discovery/Libraries/STM32F4xx_StdPeriph_Driver/src/stm32f4xx_rtc.c ****     RTC->CR |=  ((uint32_t)(RTC_InitStruct->RTC_HourFormat));
 271              		.loc 1 468 0
 272 0074 104B     		ldr	r3, .L18+4
 273 0076 104A     		ldr	r2, .L18+4
 274 0078 9168     		ldr	r1, [r2, #8]
 275 007a 7A68     		ldr	r2, [r7, #4]
 276 007c 1268     		ldr	r2, [r2]
 277 007e 0A43     		orrs	r2, r2, r1
 278 0080 9A60     		str	r2, [r3, #8]
 469:App/STM32F4-Discovery/Libraries/STM32F4xx_StdPeriph_Driver/src/stm32f4xx_rtc.c ****   
 470:App/STM32F4-Discovery/Libraries/STM32F4xx_StdPeriph_Driver/src/stm32f4xx_rtc.c ****     /* Configure the RTC PRER */
 471:App/STM32F4-Discovery/Libraries/STM32F4xx_StdPeriph_Driver/src/stm32f4xx_rtc.c ****     RTC->PRER = (uint32_t)(RTC_InitStruct->RTC_SynchPrediv);
 279              		.loc 1 471 0
 280 0082 0D4B     		ldr	r3, .L18+4
 281 0084 7A68     		ldr	r2, [r7, #4]
 282 0086 9268     		ldr	r2, [r2, #8]
 283 0088 1A61     		str	r2, [r3, #16]
 472:App/STM32F4-Discovery/Libraries/STM32F4xx_StdPeriph_Driver/src/stm32f4xx_rtc.c ****     RTC->PRER |= (uint32_t)(RTC_InitStruct->RTC_AsynchPrediv << 16);
 284              		.loc 1 472 0
 285 008a 0B4B     		ldr	r3, .L18+4
 286 008c 0A4A     		ldr	r2, .L18+4
 287 008e 1169     		ldr	r1, [r2, #16]
 288 0090 7A68     		ldr	r2, [r7, #4]
 289 0092 5268     		ldr	r2, [r2, #4]
 290 0094 1204     		lsls	r2, r2, #16
 291 0096 0A43     		orrs	r2, r2, r1
 292 0098 1A61     		str	r2, [r3, #16]
 473:App/STM32F4-Discovery/Libraries/STM32F4xx_StdPeriph_Driver/src/stm32f4xx_rtc.c **** 
 474:App/STM32F4-Discovery/Libraries/STM32F4xx_StdPeriph_Driver/src/stm32f4xx_rtc.c ****     /* Exit Initialization mode */
 475:App/STM32F4-Discovery/Libraries/STM32F4xx_StdPeriph_Driver/src/stm32f4xx_rtc.c ****     RTC_ExitInitMode();
 293              		.loc 1 475 0
 294 009a FFF7FEFF 		bl	RTC_ExitInitMode
 476:App/STM32F4-Discovery/Libraries/STM32F4xx_StdPeriph_Driver/src/stm32f4xx_rtc.c **** 
 477:App/STM32F4-Discovery/Libraries/STM32F4xx_StdPeriph_Driver/src/stm32f4xx_rtc.c ****     status = SUCCESS;    
 295              		.loc 1 477 0
 296 009e 0123     		movs	r3, #1
 297 00a0 FB73     		strb	r3, [r7, #15]
 298              	.L16:
 478:App/STM32F4-Discovery/Libraries/STM32F4xx_StdPeriph_Driver/src/stm32f4xx_rtc.c ****   }
 479:App/STM32F4-Discovery/Libraries/STM32F4xx_StdPeriph_Driver/src/stm32f4xx_rtc.c ****   /* Enable the write protection for RTC registers */
 480:App/STM32F4-Discovery/Libraries/STM32F4xx_StdPeriph_Driver/src/stm32f4xx_rtc.c ****   RTC->WPR = 0xFF; 
 299              		.loc 1 480 0
 300 00a2 054B     		ldr	r3, .L18+4
 301 00a4 FF22     		movs	r2, #255
 302 00a6 5A62     		str	r2, [r3, #36]
 481:App/STM32F4-Discovery/Libraries/STM32F4xx_StdPeriph_Driver/src/stm32f4xx_rtc.c ****   
 482:App/STM32F4-Discovery/Libraries/STM32F4xx_StdPeriph_Driver/src/stm32f4xx_rtc.c ****   return status;
 303              		.loc 1 482 0
 304 00a8 FB7B     		ldrb	r3, [r7, #15]	@ zero_extendqisi2
 483:App/STM32F4-Discovery/Libraries/STM32F4xx_StdPeriph_Driver/src/stm32f4xx_rtc.c **** }
 305              		.loc 1 483 0
 306 00aa 1846     		mov	r0, r3
 307 00ac 1037     		adds	r7, r7, #16
 308 00ae BD46     		mov	sp, r7
 309              		@ sp needed
 310 00b0 80BD     		pop	{r7, pc}
 311              	.L19:
 312 00b2 00BF     		.align	2
 313              	.L18:
 314 00b4 00000000 		.word	.LC0
 315 00b8 00280040 		.word	1073752064
 316              		.cfi_endproc
 317              	.LFE111:
 319              		.section	.text.RTC_StructInit,"ax",%progbits
 320              		.align	2
 321              		.global	RTC_StructInit
 322              		.thumb
 323              		.thumb_func
 325              	RTC_StructInit:
 326              	.LFB112:
 484:App/STM32F4-Discovery/Libraries/STM32F4xx_StdPeriph_Driver/src/stm32f4xx_rtc.c **** 
 485:App/STM32F4-Discovery/Libraries/STM32F4xx_StdPeriph_Driver/src/stm32f4xx_rtc.c **** /**
 486:App/STM32F4-Discovery/Libraries/STM32F4xx_StdPeriph_Driver/src/stm32f4xx_rtc.c ****   * @brief  Fills each RTC_InitStruct member with its default value.
 487:App/STM32F4-Discovery/Libraries/STM32F4xx_StdPeriph_Driver/src/stm32f4xx_rtc.c ****   * @param  RTC_InitStruct: pointer to a RTC_InitTypeDef structure which will be 
 488:App/STM32F4-Discovery/Libraries/STM32F4xx_StdPeriph_Driver/src/stm32f4xx_rtc.c ****   *         initialized.
 489:App/STM32F4-Discovery/Libraries/STM32F4xx_StdPeriph_Driver/src/stm32f4xx_rtc.c ****   * @retval None
 490:App/STM32F4-Discovery/Libraries/STM32F4xx_StdPeriph_Driver/src/stm32f4xx_rtc.c ****   */
 491:App/STM32F4-Discovery/Libraries/STM32F4xx_StdPeriph_Driver/src/stm32f4xx_rtc.c **** void RTC_StructInit(RTC_InitTypeDef* RTC_InitStruct)
 492:App/STM32F4-Discovery/Libraries/STM32F4xx_StdPeriph_Driver/src/stm32f4xx_rtc.c **** {
 327              		.loc 1 492 0
 328              		.cfi_startproc
 329              		@ args = 0, pretend = 0, frame = 8
 330              		@ frame_needed = 1, uses_anonymous_args = 0
 331              		@ link register save eliminated.
 332 0000 80B4     		push	{r7}
 333              	.LCFI6:
 334              		.cfi_def_cfa_offset 4
 335              		.cfi_offset 7, -4
 336 0002 83B0     		sub	sp, sp, #12
 337              	.LCFI7:
 338              		.cfi_def_cfa_offset 16
 339 0004 00AF     		add	r7, sp, #0
 340              	.LCFI8:
 341              		.cfi_def_cfa_register 7
 342 0006 7860     		str	r0, [r7, #4]
 493:App/STM32F4-Discovery/Libraries/STM32F4xx_StdPeriph_Driver/src/stm32f4xx_rtc.c ****   /* Initialize the RTC_HourFormat member */
 494:App/STM32F4-Discovery/Libraries/STM32F4xx_StdPeriph_Driver/src/stm32f4xx_rtc.c ****   RTC_InitStruct->RTC_HourFormat = RTC_HourFormat_24;
 343              		.loc 1 494 0
 344 0008 7B68     		ldr	r3, [r7, #4]
 345 000a 0022     		movs	r2, #0
 346 000c 1A60     		str	r2, [r3]
 495:App/STM32F4-Discovery/Libraries/STM32F4xx_StdPeriph_Driver/src/stm32f4xx_rtc.c ****     
 496:App/STM32F4-Discovery/Libraries/STM32F4xx_StdPeriph_Driver/src/stm32f4xx_rtc.c ****   /* Initialize the RTC_AsynchPrediv member */
 497:App/STM32F4-Discovery/Libraries/STM32F4xx_StdPeriph_Driver/src/stm32f4xx_rtc.c ****   RTC_InitStruct->RTC_AsynchPrediv = (uint32_t)0x7F;
 347              		.loc 1 497 0
 348 000e 7B68     		ldr	r3, [r7, #4]
 349 0010 7F22     		movs	r2, #127
 350 0012 5A60     		str	r2, [r3, #4]
 498:App/STM32F4-Discovery/Libraries/STM32F4xx_StdPeriph_Driver/src/stm32f4xx_rtc.c **** 
 499:App/STM32F4-Discovery/Libraries/STM32F4xx_StdPeriph_Driver/src/stm32f4xx_rtc.c ****   /* Initialize the RTC_SynchPrediv member */
 500:App/STM32F4-Discovery/Libraries/STM32F4xx_StdPeriph_Driver/src/stm32f4xx_rtc.c ****   RTC_InitStruct->RTC_SynchPrediv = (uint32_t)0xFF; 
 351              		.loc 1 500 0
 352 0014 7B68     		ldr	r3, [r7, #4]
 353 0016 FF22     		movs	r2, #255
 354 0018 9A60     		str	r2, [r3, #8]
 501:App/STM32F4-Discovery/Libraries/STM32F4xx_StdPeriph_Driver/src/stm32f4xx_rtc.c **** }
 355              		.loc 1 501 0
 356 001a 0C37     		adds	r7, r7, #12
 357 001c BD46     		mov	sp, r7
 358              		@ sp needed
 359 001e 5DF8047B 		ldr	r7, [sp], #4
 360 0022 7047     		bx	lr
 361              		.cfi_endproc
 362              	.LFE112:
 364              		.section	.text.RTC_WriteProtectionCmd,"ax",%progbits
 365              		.align	2
 366              		.global	RTC_WriteProtectionCmd
 367              		.thumb
 368              		.thumb_func
 370              	RTC_WriteProtectionCmd:
 371              	.LFB113:
 502:App/STM32F4-Discovery/Libraries/STM32F4xx_StdPeriph_Driver/src/stm32f4xx_rtc.c **** 
 503:App/STM32F4-Discovery/Libraries/STM32F4xx_StdPeriph_Driver/src/stm32f4xx_rtc.c **** /**
 504:App/STM32F4-Discovery/Libraries/STM32F4xx_StdPeriph_Driver/src/stm32f4xx_rtc.c ****   * @brief  Enables or disables the RTC registers write protection.
 505:App/STM32F4-Discovery/Libraries/STM32F4xx_StdPeriph_Driver/src/stm32f4xx_rtc.c ****   * @note   All the RTC registers are write protected except for RTC_ISR[13:8], 
 506:App/STM32F4-Discovery/Libraries/STM32F4xx_StdPeriph_Driver/src/stm32f4xx_rtc.c ****   *         RTC_TAFCR and RTC_BKPxR.
 507:App/STM32F4-Discovery/Libraries/STM32F4xx_StdPeriph_Driver/src/stm32f4xx_rtc.c ****   * @note   Writing a wrong key reactivates the write protection.
 508:App/STM32F4-Discovery/Libraries/STM32F4xx_StdPeriph_Driver/src/stm32f4xx_rtc.c ****   * @note   The protection mechanism is not affected by system reset.  
 509:App/STM32F4-Discovery/Libraries/STM32F4xx_StdPeriph_Driver/src/stm32f4xx_rtc.c ****   * @param  NewState: new state of the write protection.
 510:App/STM32F4-Discovery/Libraries/STM32F4xx_StdPeriph_Driver/src/stm32f4xx_rtc.c ****   *          This parameter can be: ENABLE or DISABLE.
 511:App/STM32F4-Discovery/Libraries/STM32F4xx_StdPeriph_Driver/src/stm32f4xx_rtc.c ****   * @retval None
 512:App/STM32F4-Discovery/Libraries/STM32F4xx_StdPeriph_Driver/src/stm32f4xx_rtc.c ****   */
 513:App/STM32F4-Discovery/Libraries/STM32F4xx_StdPeriph_Driver/src/stm32f4xx_rtc.c **** void RTC_WriteProtectionCmd(FunctionalState NewState)
 514:App/STM32F4-Discovery/Libraries/STM32F4xx_StdPeriph_Driver/src/stm32f4xx_rtc.c **** {
 372              		.loc 1 514 0
 373              		.cfi_startproc
 374              		@ args = 0, pretend = 0, frame = 8
 375              		@ frame_needed = 1, uses_anonymous_args = 0
 376 0000 80B5     		push	{r7, lr}
 377              	.LCFI9:
 378              		.cfi_def_cfa_offset 8
 379              		.cfi_offset 7, -8
 380              		.cfi_offset 14, -4
 381 0002 82B0     		sub	sp, sp, #8
 382              	.LCFI10:
 383              		.cfi_def_cfa_offset 16
 384 0004 00AF     		add	r7, sp, #0
 385              	.LCFI11:
 386              		.cfi_def_cfa_register 7
 387 0006 0346     		mov	r3, r0
 388 0008 FB71     		strb	r3, [r7, #7]
 515:App/STM32F4-Discovery/Libraries/STM32F4xx_StdPeriph_Driver/src/stm32f4xx_rtc.c ****   /* Check the parameters */
 516:App/STM32F4-Discovery/Libraries/STM32F4xx_StdPeriph_Driver/src/stm32f4xx_rtc.c ****   assert_param(IS_FUNCTIONAL_STATE(NewState));
 389              		.loc 1 516 0
 390 000a FB79     		ldrb	r3, [r7, #7]	@ zero_extendqisi2
 391 000c 002B     		cmp	r3, #0
 392 000e 07D0     		beq	.L22
 393              		.loc 1 516 0 is_stmt 0 discriminator 1
 394 0010 FB79     		ldrb	r3, [r7, #7]	@ zero_extendqisi2
 395 0012 012B     		cmp	r3, #1
 396 0014 04D0     		beq	.L22
 397 0016 0A48     		ldr	r0, .L25
 398 0018 4FF40171 		mov	r1, #516
 399 001c FFF7FEFF 		bl	assert_failed
 400              	.L22:
 517:App/STM32F4-Discovery/Libraries/STM32F4xx_StdPeriph_Driver/src/stm32f4xx_rtc.c ****     
 518:App/STM32F4-Discovery/Libraries/STM32F4xx_StdPeriph_Driver/src/stm32f4xx_rtc.c ****   if (NewState != DISABLE)
 401              		.loc 1 518 0 is_stmt 1
 402 0020 FB79     		ldrb	r3, [r7, #7]	@ zero_extendqisi2
 403 0022 002B     		cmp	r3, #0
 404 0024 03D0     		beq	.L23
 519:App/STM32F4-Discovery/Libraries/STM32F4xx_StdPeriph_Driver/src/stm32f4xx_rtc.c ****   {
 520:App/STM32F4-Discovery/Libraries/STM32F4xx_StdPeriph_Driver/src/stm32f4xx_rtc.c ****     /* Enable the write protection for RTC registers */
 521:App/STM32F4-Discovery/Libraries/STM32F4xx_StdPeriph_Driver/src/stm32f4xx_rtc.c ****     RTC->WPR = 0xFF;   
 405              		.loc 1 521 0
 406 0026 074B     		ldr	r3, .L25+4
 407 0028 FF22     		movs	r2, #255
 408 002a 5A62     		str	r2, [r3, #36]
 409 002c 05E0     		b	.L21
 410              	.L23:
 522:App/STM32F4-Discovery/Libraries/STM32F4xx_StdPeriph_Driver/src/stm32f4xx_rtc.c ****   }
 523:App/STM32F4-Discovery/Libraries/STM32F4xx_StdPeriph_Driver/src/stm32f4xx_rtc.c ****   else
 524:App/STM32F4-Discovery/Libraries/STM32F4xx_StdPeriph_Driver/src/stm32f4xx_rtc.c ****   {
 525:App/STM32F4-Discovery/Libraries/STM32F4xx_StdPeriph_Driver/src/stm32f4xx_rtc.c ****     /* Disable the write protection for RTC registers */
 526:App/STM32F4-Discovery/Libraries/STM32F4xx_StdPeriph_Driver/src/stm32f4xx_rtc.c ****     RTC->WPR = 0xCA;
 411              		.loc 1 526 0
 412 002e 054B     		ldr	r3, .L25+4
 413 0030 CA22     		movs	r2, #202
 414 0032 5A62     		str	r2, [r3, #36]
 527:App/STM32F4-Discovery/Libraries/STM32F4xx_StdPeriph_Driver/src/stm32f4xx_rtc.c ****     RTC->WPR = 0x53;    
 415              		.loc 1 527 0
 416 0034 034B     		ldr	r3, .L25+4
 417 0036 5322     		movs	r2, #83
 418 0038 5A62     		str	r2, [r3, #36]
 419              	.L21:
 528:App/STM32F4-Discovery/Libraries/STM32F4xx_StdPeriph_Driver/src/stm32f4xx_rtc.c ****   }
 529:App/STM32F4-Discovery/Libraries/STM32F4xx_StdPeriph_Driver/src/stm32f4xx_rtc.c **** }
 420              		.loc 1 529 0
 421 003a 0837     		adds	r7, r7, #8
 422 003c BD46     		mov	sp, r7
 423              		@ sp needed
 424 003e 80BD     		pop	{r7, pc}
 425              	.L26:
 426              		.align	2
 427              	.L25:
 428 0040 00000000 		.word	.LC0
 429 0044 00280040 		.word	1073752064
 430              		.cfi_endproc
 431              	.LFE113:
 433              		.section	.text.RTC_EnterInitMode,"ax",%progbits
 434              		.align	2
 435              		.global	RTC_EnterInitMode
 436              		.thumb
 437              		.thumb_func
 439              	RTC_EnterInitMode:
 440              	.LFB114:
 530:App/STM32F4-Discovery/Libraries/STM32F4xx_StdPeriph_Driver/src/stm32f4xx_rtc.c **** 
 531:App/STM32F4-Discovery/Libraries/STM32F4xx_StdPeriph_Driver/src/stm32f4xx_rtc.c **** /**
 532:App/STM32F4-Discovery/Libraries/STM32F4xx_StdPeriph_Driver/src/stm32f4xx_rtc.c ****   * @brief  Enters the RTC Initialization mode.
 533:App/STM32F4-Discovery/Libraries/STM32F4xx_StdPeriph_Driver/src/stm32f4xx_rtc.c ****   * @note   The RTC Initialization mode is write protected, use the 
 534:App/STM32F4-Discovery/Libraries/STM32F4xx_StdPeriph_Driver/src/stm32f4xx_rtc.c ****   *         RTC_WriteProtectionCmd(DISABLE) before calling this function.    
 535:App/STM32F4-Discovery/Libraries/STM32F4xx_StdPeriph_Driver/src/stm32f4xx_rtc.c ****   * @param  None
 536:App/STM32F4-Discovery/Libraries/STM32F4xx_StdPeriph_Driver/src/stm32f4xx_rtc.c ****   * @retval An ErrorStatus enumeration value:
 537:App/STM32F4-Discovery/Libraries/STM32F4xx_StdPeriph_Driver/src/stm32f4xx_rtc.c ****   *          - SUCCESS: RTC is in Init mode
 538:App/STM32F4-Discovery/Libraries/STM32F4xx_StdPeriph_Driver/src/stm32f4xx_rtc.c ****   *          - ERROR: RTC is not in Init mode  
 539:App/STM32F4-Discovery/Libraries/STM32F4xx_StdPeriph_Driver/src/stm32f4xx_rtc.c ****   */
 540:App/STM32F4-Discovery/Libraries/STM32F4xx_StdPeriph_Driver/src/stm32f4xx_rtc.c **** ErrorStatus RTC_EnterInitMode(void)
 541:App/STM32F4-Discovery/Libraries/STM32F4xx_StdPeriph_Driver/src/stm32f4xx_rtc.c **** {
 441              		.loc 1 541 0
 442              		.cfi_startproc
 443              		@ args = 0, pretend = 0, frame = 16
 444              		@ frame_needed = 1, uses_anonymous_args = 0
 445              		@ link register save eliminated.
 446 0000 80B4     		push	{r7}
 447              	.LCFI12:
 448              		.cfi_def_cfa_offset 4
 449              		.cfi_offset 7, -4
 450 0002 85B0     		sub	sp, sp, #20
 451              	.LCFI13:
 452              		.cfi_def_cfa_offset 24
 453 0004 00AF     		add	r7, sp, #0
 454              	.LCFI14:
 455              		.cfi_def_cfa_register 7
 542:App/STM32F4-Discovery/Libraries/STM32F4xx_StdPeriph_Driver/src/stm32f4xx_rtc.c ****   __IO uint32_t initcounter = 0x00;
 456              		.loc 1 542 0
 457 0006 0023     		movs	r3, #0
 458 0008 7B60     		str	r3, [r7, #4]
 543:App/STM32F4-Discovery/Libraries/STM32F4xx_StdPeriph_Driver/src/stm32f4xx_rtc.c ****   ErrorStatus status = ERROR;
 459              		.loc 1 543 0
 460 000a 0023     		movs	r3, #0
 461 000c FB73     		strb	r3, [r7, #15]
 544:App/STM32F4-Discovery/Libraries/STM32F4xx_StdPeriph_Driver/src/stm32f4xx_rtc.c ****   uint32_t initstatus = 0x00;
 462              		.loc 1 544 0
 463 000e 0023     		movs	r3, #0
 464 0010 BB60     		str	r3, [r7, #8]
 545:App/STM32F4-Discovery/Libraries/STM32F4xx_StdPeriph_Driver/src/stm32f4xx_rtc.c ****      
 546:App/STM32F4-Discovery/Libraries/STM32F4xx_StdPeriph_Driver/src/stm32f4xx_rtc.c ****   /* Check if the Initialization mode is set */
 547:App/STM32F4-Discovery/Libraries/STM32F4xx_StdPeriph_Driver/src/stm32f4xx_rtc.c ****   if ((RTC->ISR & RTC_ISR_INITF) == (uint32_t)RESET)
 465              		.loc 1 547 0
 466 0012 174B     		ldr	r3, .L35
 467 0014 DB68     		ldr	r3, [r3, #12]
 468 0016 03F04003 		and	r3, r3, #64
 469 001a 002B     		cmp	r3, #0
 470 001c 1ED1     		bne	.L28
 548:App/STM32F4-Discovery/Libraries/STM32F4xx_StdPeriph_Driver/src/stm32f4xx_rtc.c ****   {
 549:App/STM32F4-Discovery/Libraries/STM32F4xx_StdPeriph_Driver/src/stm32f4xx_rtc.c ****     /* Set the Initialization mode */
 550:App/STM32F4-Discovery/Libraries/STM32F4xx_StdPeriph_Driver/src/stm32f4xx_rtc.c ****     RTC->ISR = (uint32_t)RTC_INIT_MASK;
 471              		.loc 1 550 0
 472 001e 144B     		ldr	r3, .L35
 473 0020 4FF0FF32 		mov	r2, #-1
 474 0024 DA60     		str	r2, [r3, #12]
 475              	.L30:
 551:App/STM32F4-Discovery/Libraries/STM32F4xx_StdPeriph_Driver/src/stm32f4xx_rtc.c ****     
 552:App/STM32F4-Discovery/Libraries/STM32F4xx_StdPeriph_Driver/src/stm32f4xx_rtc.c ****     /* Wait till RTC is in INIT state and if Time out is reached exit */
 553:App/STM32F4-Discovery/Libraries/STM32F4xx_StdPeriph_Driver/src/stm32f4xx_rtc.c ****     do
 554:App/STM32F4-Discovery/Libraries/STM32F4xx_StdPeriph_Driver/src/stm32f4xx_rtc.c ****     {
 555:App/STM32F4-Discovery/Libraries/STM32F4xx_StdPeriph_Driver/src/stm32f4xx_rtc.c ****       initstatus = RTC->ISR & RTC_ISR_INITF;
 476              		.loc 1 555 0 discriminator 1
 477 0026 124B     		ldr	r3, .L35
 478 0028 DB68     		ldr	r3, [r3, #12]
 479 002a 03F04003 		and	r3, r3, #64
 480 002e BB60     		str	r3, [r7, #8]
 556:App/STM32F4-Discovery/Libraries/STM32F4xx_StdPeriph_Driver/src/stm32f4xx_rtc.c ****       initcounter++;  
 481              		.loc 1 556 0 discriminator 1
 482 0030 7B68     		ldr	r3, [r7, #4]
 483 0032 0133     		adds	r3, r3, #1
 484 0034 7B60     		str	r3, [r7, #4]
 557:App/STM32F4-Discovery/Libraries/STM32F4xx_StdPeriph_Driver/src/stm32f4xx_rtc.c ****     } while((initcounter != INITMODE_TIMEOUT) && (initstatus == 0x00));
 485              		.loc 1 557 0 discriminator 1
 486 0036 7B68     		ldr	r3, [r7, #4]
 487 0038 B3F5803F 		cmp	r3, #65536
 488 003c 02D0     		beq	.L29
 489 003e BB68     		ldr	r3, [r7, #8]
 490 0040 002B     		cmp	r3, #0
 491 0042 F0D0     		beq	.L30
 492              	.L29:
 558:App/STM32F4-Discovery/Libraries/STM32F4xx_StdPeriph_Driver/src/stm32f4xx_rtc.c ****     
 559:App/STM32F4-Discovery/Libraries/STM32F4xx_StdPeriph_Driver/src/stm32f4xx_rtc.c ****     if ((RTC->ISR & RTC_ISR_INITF) != RESET)
 493              		.loc 1 559 0
 494 0044 0A4B     		ldr	r3, .L35
 495 0046 DB68     		ldr	r3, [r3, #12]
 496 0048 03F04003 		and	r3, r3, #64
 497 004c 002B     		cmp	r3, #0
 498 004e 02D0     		beq	.L31
 560:App/STM32F4-Discovery/Libraries/STM32F4xx_StdPeriph_Driver/src/stm32f4xx_rtc.c ****     {
 561:App/STM32F4-Discovery/Libraries/STM32F4xx_StdPeriph_Driver/src/stm32f4xx_rtc.c ****       status = SUCCESS;
 499              		.loc 1 561 0
 500 0050 0123     		movs	r3, #1
 501 0052 FB73     		strb	r3, [r7, #15]
 502 0054 04E0     		b	.L33
 503              	.L31:
 562:App/STM32F4-Discovery/Libraries/STM32F4xx_StdPeriph_Driver/src/stm32f4xx_rtc.c ****     }
 563:App/STM32F4-Discovery/Libraries/STM32F4xx_StdPeriph_Driver/src/stm32f4xx_rtc.c ****     else
 564:App/STM32F4-Discovery/Libraries/STM32F4xx_StdPeriph_Driver/src/stm32f4xx_rtc.c ****     {
 565:App/STM32F4-Discovery/Libraries/STM32F4xx_StdPeriph_Driver/src/stm32f4xx_rtc.c ****       status = ERROR;
 504              		.loc 1 565 0
 505 0056 0023     		movs	r3, #0
 506 0058 FB73     		strb	r3, [r7, #15]
 507 005a 01E0     		b	.L33
 508              	.L28:
 566:App/STM32F4-Discovery/Libraries/STM32F4xx_StdPeriph_Driver/src/stm32f4xx_rtc.c ****     }        
 567:App/STM32F4-Discovery/Libraries/STM32F4xx_StdPeriph_Driver/src/stm32f4xx_rtc.c ****   }
 568:App/STM32F4-Discovery/Libraries/STM32F4xx_StdPeriph_Driver/src/stm32f4xx_rtc.c ****   else
 569:App/STM32F4-Discovery/Libraries/STM32F4xx_StdPeriph_Driver/src/stm32f4xx_rtc.c ****   {
 570:App/STM32F4-Discovery/Libraries/STM32F4xx_StdPeriph_Driver/src/stm32f4xx_rtc.c ****     status = SUCCESS;  
 509              		.loc 1 570 0
 510 005c 0123     		movs	r3, #1
 511 005e FB73     		strb	r3, [r7, #15]
 512              	.L33:
 571:App/STM32F4-Discovery/Libraries/STM32F4xx_StdPeriph_Driver/src/stm32f4xx_rtc.c ****   } 
 572:App/STM32F4-Discovery/Libraries/STM32F4xx_StdPeriph_Driver/src/stm32f4xx_rtc.c ****     
 573:App/STM32F4-Discovery/Libraries/STM32F4xx_StdPeriph_Driver/src/stm32f4xx_rtc.c ****   return (status);  
 513              		.loc 1 573 0
 514 0060 FB7B     		ldrb	r3, [r7, #15]	@ zero_extendqisi2
 574:App/STM32F4-Discovery/Libraries/STM32F4xx_StdPeriph_Driver/src/stm32f4xx_rtc.c **** }
 515              		.loc 1 574 0
 516 0062 1846     		mov	r0, r3
 517 0064 1437     		adds	r7, r7, #20
 518 0066 BD46     		mov	sp, r7
 519              		@ sp needed
 520 0068 5DF8047B 		ldr	r7, [sp], #4
 521 006c 7047     		bx	lr
 522              	.L36:
 523 006e 00BF     		.align	2
 524              	.L35:
 525 0070 00280040 		.word	1073752064
 526              		.cfi_endproc
 527              	.LFE114:
 529              		.section	.text.RTC_ExitInitMode,"ax",%progbits
 530              		.align	2
 531              		.global	RTC_ExitInitMode
 532              		.thumb
 533              		.thumb_func
 535              	RTC_ExitInitMode:
 536              	.LFB115:
 575:App/STM32F4-Discovery/Libraries/STM32F4xx_StdPeriph_Driver/src/stm32f4xx_rtc.c **** 
 576:App/STM32F4-Discovery/Libraries/STM32F4xx_StdPeriph_Driver/src/stm32f4xx_rtc.c **** /**
 577:App/STM32F4-Discovery/Libraries/STM32F4xx_StdPeriph_Driver/src/stm32f4xx_rtc.c ****   * @brief  Exits the RTC Initialization mode.
 578:App/STM32F4-Discovery/Libraries/STM32F4xx_StdPeriph_Driver/src/stm32f4xx_rtc.c ****   * @note   When the initialization sequence is complete, the calendar restarts 
 579:App/STM32F4-Discovery/Libraries/STM32F4xx_StdPeriph_Driver/src/stm32f4xx_rtc.c ****   *         counting after 4 RTCCLK cycles.  
 580:App/STM32F4-Discovery/Libraries/STM32F4xx_StdPeriph_Driver/src/stm32f4xx_rtc.c ****   * @note   The RTC Initialization mode is write protected, use the 
 581:App/STM32F4-Discovery/Libraries/STM32F4xx_StdPeriph_Driver/src/stm32f4xx_rtc.c ****   *         RTC_WriteProtectionCmd(DISABLE) before calling this function.      
 582:App/STM32F4-Discovery/Libraries/STM32F4xx_StdPeriph_Driver/src/stm32f4xx_rtc.c ****   * @param  None
 583:App/STM32F4-Discovery/Libraries/STM32F4xx_StdPeriph_Driver/src/stm32f4xx_rtc.c ****   * @retval None
 584:App/STM32F4-Discovery/Libraries/STM32F4xx_StdPeriph_Driver/src/stm32f4xx_rtc.c ****   */
 585:App/STM32F4-Discovery/Libraries/STM32F4xx_StdPeriph_Driver/src/stm32f4xx_rtc.c **** void RTC_ExitInitMode(void)
 586:App/STM32F4-Discovery/Libraries/STM32F4xx_StdPeriph_Driver/src/stm32f4xx_rtc.c **** { 
 537              		.loc 1 586 0
 538              		.cfi_startproc
 539              		@ args = 0, pretend = 0, frame = 0
 540              		@ frame_needed = 1, uses_anonymous_args = 0
 541              		@ link register save eliminated.
 542 0000 80B4     		push	{r7}
 543              	.LCFI15:
 544              		.cfi_def_cfa_offset 4
 545              		.cfi_offset 7, -4
 546 0002 00AF     		add	r7, sp, #0
 547              	.LCFI16:
 548              		.cfi_def_cfa_register 7
 587:App/STM32F4-Discovery/Libraries/STM32F4xx_StdPeriph_Driver/src/stm32f4xx_rtc.c ****   /* Exit Initialization mode */
 588:App/STM32F4-Discovery/Libraries/STM32F4xx_StdPeriph_Driver/src/stm32f4xx_rtc.c ****   RTC->ISR &= (uint32_t)~RTC_ISR_INIT;  
 549              		.loc 1 588 0
 550 0004 044B     		ldr	r3, .L38
 551 0006 044A     		ldr	r2, .L38
 552 0008 D268     		ldr	r2, [r2, #12]
 553 000a 22F08002 		bic	r2, r2, #128
 554 000e DA60     		str	r2, [r3, #12]
 589:App/STM32F4-Discovery/Libraries/STM32F4xx_StdPeriph_Driver/src/stm32f4xx_rtc.c **** }
 555              		.loc 1 589 0
 556 0010 BD46     		mov	sp, r7
 557              		@ sp needed
 558 0012 5DF8047B 		ldr	r7, [sp], #4
 559 0016 7047     		bx	lr
 560              	.L39:
 561              		.align	2
 562              	.L38:
 563 0018 00280040 		.word	1073752064
 564              		.cfi_endproc
 565              	.LFE115:
 567              		.section	.text.RTC_WaitForSynchro,"ax",%progbits
 568              		.align	2
 569              		.global	RTC_WaitForSynchro
 570              		.thumb
 571              		.thumb_func
 573              	RTC_WaitForSynchro:
 574              	.LFB116:
 590:App/STM32F4-Discovery/Libraries/STM32F4xx_StdPeriph_Driver/src/stm32f4xx_rtc.c **** 
 591:App/STM32F4-Discovery/Libraries/STM32F4xx_StdPeriph_Driver/src/stm32f4xx_rtc.c **** /**
 592:App/STM32F4-Discovery/Libraries/STM32F4xx_StdPeriph_Driver/src/stm32f4xx_rtc.c ****   * @brief  Waits until the RTC Time and Date registers (RTC_TR and RTC_DR) are 
 593:App/STM32F4-Discovery/Libraries/STM32F4xx_StdPeriph_Driver/src/stm32f4xx_rtc.c ****   *         synchronized with RTC APB clock.
 594:App/STM32F4-Discovery/Libraries/STM32F4xx_StdPeriph_Driver/src/stm32f4xx_rtc.c ****   * @note   The RTC Resynchronization mode is write protected, use the 
 595:App/STM32F4-Discovery/Libraries/STM32F4xx_StdPeriph_Driver/src/stm32f4xx_rtc.c ****   *         RTC_WriteProtectionCmd(DISABLE) before calling this function. 
 596:App/STM32F4-Discovery/Libraries/STM32F4xx_StdPeriph_Driver/src/stm32f4xx_rtc.c ****   * @note   To read the calendar through the shadow registers after Calendar 
 597:App/STM32F4-Discovery/Libraries/STM32F4xx_StdPeriph_Driver/src/stm32f4xx_rtc.c ****   *         initialization, calendar update or after wakeup from low power modes 
 598:App/STM32F4-Discovery/Libraries/STM32F4xx_StdPeriph_Driver/src/stm32f4xx_rtc.c ****   *         the software must first clear the RSF flag. 
 599:App/STM32F4-Discovery/Libraries/STM32F4xx_StdPeriph_Driver/src/stm32f4xx_rtc.c ****   *         The software must then wait until it is set again before reading 
 600:App/STM32F4-Discovery/Libraries/STM32F4xx_StdPeriph_Driver/src/stm32f4xx_rtc.c ****   *         the calendar, which means that the calendar registers have been 
 601:App/STM32F4-Discovery/Libraries/STM32F4xx_StdPeriph_Driver/src/stm32f4xx_rtc.c ****   *         correctly copied into the RTC_TR and RTC_DR shadow registers.   
 602:App/STM32F4-Discovery/Libraries/STM32F4xx_StdPeriph_Driver/src/stm32f4xx_rtc.c ****   * @param  None
 603:App/STM32F4-Discovery/Libraries/STM32F4xx_StdPeriph_Driver/src/stm32f4xx_rtc.c ****   * @retval An ErrorStatus enumeration value:
 604:App/STM32F4-Discovery/Libraries/STM32F4xx_StdPeriph_Driver/src/stm32f4xx_rtc.c ****   *          - SUCCESS: RTC registers are synchronised
 605:App/STM32F4-Discovery/Libraries/STM32F4xx_StdPeriph_Driver/src/stm32f4xx_rtc.c ****   *          - ERROR: RTC registers are not synchronised
 606:App/STM32F4-Discovery/Libraries/STM32F4xx_StdPeriph_Driver/src/stm32f4xx_rtc.c ****   */
 607:App/STM32F4-Discovery/Libraries/STM32F4xx_StdPeriph_Driver/src/stm32f4xx_rtc.c **** ErrorStatus RTC_WaitForSynchro(void)
 608:App/STM32F4-Discovery/Libraries/STM32F4xx_StdPeriph_Driver/src/stm32f4xx_rtc.c **** {
 575              		.loc 1 608 0
 576              		.cfi_startproc
 577              		@ args = 0, pretend = 0, frame = 16
 578              		@ frame_needed = 1, uses_anonymous_args = 0
 579              		@ link register save eliminated.
 580 0000 80B4     		push	{r7}
 581              	.LCFI17:
 582              		.cfi_def_cfa_offset 4
 583              		.cfi_offset 7, -4
 584 0002 85B0     		sub	sp, sp, #20
 585              	.LCFI18:
 586              		.cfi_def_cfa_offset 24
 587 0004 00AF     		add	r7, sp, #0
 588              	.LCFI19:
 589              		.cfi_def_cfa_register 7
 609:App/STM32F4-Discovery/Libraries/STM32F4xx_StdPeriph_Driver/src/stm32f4xx_rtc.c ****   __IO uint32_t synchrocounter = 0;
 590              		.loc 1 609 0
 591 0006 0023     		movs	r3, #0
 592 0008 7B60     		str	r3, [r7, #4]
 610:App/STM32F4-Discovery/Libraries/STM32F4xx_StdPeriph_Driver/src/stm32f4xx_rtc.c ****   ErrorStatus status = ERROR;
 593              		.loc 1 610 0
 594 000a 0023     		movs	r3, #0
 595 000c FB73     		strb	r3, [r7, #15]
 611:App/STM32F4-Discovery/Libraries/STM32F4xx_StdPeriph_Driver/src/stm32f4xx_rtc.c ****   uint32_t synchrostatus = 0x00;
 596              		.loc 1 611 0
 597 000e 0023     		movs	r3, #0
 598 0010 BB60     		str	r3, [r7, #8]
 612:App/STM32F4-Discovery/Libraries/STM32F4xx_StdPeriph_Driver/src/stm32f4xx_rtc.c **** 
 613:App/STM32F4-Discovery/Libraries/STM32F4xx_StdPeriph_Driver/src/stm32f4xx_rtc.c ****   /* Disable the write protection for RTC registers */
 614:App/STM32F4-Discovery/Libraries/STM32F4xx_StdPeriph_Driver/src/stm32f4xx_rtc.c ****   RTC->WPR = 0xCA;
 599              		.loc 1 614 0
 600 0012 184B     		ldr	r3, .L46
 601 0014 CA22     		movs	r2, #202
 602 0016 5A62     		str	r2, [r3, #36]
 615:App/STM32F4-Discovery/Libraries/STM32F4xx_StdPeriph_Driver/src/stm32f4xx_rtc.c ****   RTC->WPR = 0x53;
 603              		.loc 1 615 0
 604 0018 164B     		ldr	r3, .L46
 605 001a 5322     		movs	r2, #83
 606 001c 5A62     		str	r2, [r3, #36]
 616:App/STM32F4-Discovery/Libraries/STM32F4xx_StdPeriph_Driver/src/stm32f4xx_rtc.c ****     
 617:App/STM32F4-Discovery/Libraries/STM32F4xx_StdPeriph_Driver/src/stm32f4xx_rtc.c ****   /* Clear RSF flag */
 618:App/STM32F4-Discovery/Libraries/STM32F4xx_StdPeriph_Driver/src/stm32f4xx_rtc.c ****   RTC->ISR &= (uint32_t)RTC_RSF_MASK;
 607              		.loc 1 618 0
 608 001e 154B     		ldr	r3, .L46
 609 0020 144A     		ldr	r2, .L46
 610 0022 D268     		ldr	r2, [r2, #12]
 611 0024 22F0A002 		bic	r2, r2, #160
 612 0028 DA60     		str	r2, [r3, #12]
 613              	.L42:
 619:App/STM32F4-Discovery/Libraries/STM32F4xx_StdPeriph_Driver/src/stm32f4xx_rtc.c ****     
 620:App/STM32F4-Discovery/Libraries/STM32F4xx_StdPeriph_Driver/src/stm32f4xx_rtc.c ****   /* Wait the registers to be synchronised */
 621:App/STM32F4-Discovery/Libraries/STM32F4xx_StdPeriph_Driver/src/stm32f4xx_rtc.c ****   do
 622:App/STM32F4-Discovery/Libraries/STM32F4xx_StdPeriph_Driver/src/stm32f4xx_rtc.c ****   {
 623:App/STM32F4-Discovery/Libraries/STM32F4xx_StdPeriph_Driver/src/stm32f4xx_rtc.c ****     synchrostatus = RTC->ISR & RTC_ISR_RSF;
 614              		.loc 1 623 0 discriminator 1
 615 002a 124B     		ldr	r3, .L46
 616 002c DB68     		ldr	r3, [r3, #12]
 617 002e 03F02003 		and	r3, r3, #32
 618 0032 BB60     		str	r3, [r7, #8]
 624:App/STM32F4-Discovery/Libraries/STM32F4xx_StdPeriph_Driver/src/stm32f4xx_rtc.c ****     synchrocounter++;  
 619              		.loc 1 624 0 discriminator 1
 620 0034 7B68     		ldr	r3, [r7, #4]
 621 0036 0133     		adds	r3, r3, #1
 622 0038 7B60     		str	r3, [r7, #4]
 625:App/STM32F4-Discovery/Libraries/STM32F4xx_StdPeriph_Driver/src/stm32f4xx_rtc.c ****   } while((synchrocounter != SYNCHRO_TIMEOUT) && (synchrostatus == 0x00));
 623              		.loc 1 625 0 discriminator 1
 624 003a 7B68     		ldr	r3, [r7, #4]
 625 003c B3F5003F 		cmp	r3, #131072
 626 0040 02D0     		beq	.L41
 627 0042 BB68     		ldr	r3, [r7, #8]
 628 0044 002B     		cmp	r3, #0
 629 0046 F0D0     		beq	.L42
 630              	.L41:
 626:App/STM32F4-Discovery/Libraries/STM32F4xx_StdPeriph_Driver/src/stm32f4xx_rtc.c ****     
 627:App/STM32F4-Discovery/Libraries/STM32F4xx_StdPeriph_Driver/src/stm32f4xx_rtc.c ****   if ((RTC->ISR & RTC_ISR_RSF) != RESET)
 631              		.loc 1 627 0
 632 0048 0A4B     		ldr	r3, .L46
 633 004a DB68     		ldr	r3, [r3, #12]
 634 004c 03F02003 		and	r3, r3, #32
 635 0050 002B     		cmp	r3, #0
 636 0052 02D0     		beq	.L43
 628:App/STM32F4-Discovery/Libraries/STM32F4xx_StdPeriph_Driver/src/stm32f4xx_rtc.c ****   {
 629:App/STM32F4-Discovery/Libraries/STM32F4xx_StdPeriph_Driver/src/stm32f4xx_rtc.c ****     status = SUCCESS;
 637              		.loc 1 629 0
 638 0054 0123     		movs	r3, #1
 639 0056 FB73     		strb	r3, [r7, #15]
 640 0058 01E0     		b	.L44
 641              	.L43:
 630:App/STM32F4-Discovery/Libraries/STM32F4xx_StdPeriph_Driver/src/stm32f4xx_rtc.c ****   }
 631:App/STM32F4-Discovery/Libraries/STM32F4xx_StdPeriph_Driver/src/stm32f4xx_rtc.c ****   else
 632:App/STM32F4-Discovery/Libraries/STM32F4xx_StdPeriph_Driver/src/stm32f4xx_rtc.c ****   {
 633:App/STM32F4-Discovery/Libraries/STM32F4xx_StdPeriph_Driver/src/stm32f4xx_rtc.c ****     status = ERROR;
 642              		.loc 1 633 0
 643 005a 0023     		movs	r3, #0
 644 005c FB73     		strb	r3, [r7, #15]
 645              	.L44:
 634:App/STM32F4-Discovery/Libraries/STM32F4xx_StdPeriph_Driver/src/stm32f4xx_rtc.c ****   }        
 635:App/STM32F4-Discovery/Libraries/STM32F4xx_StdPeriph_Driver/src/stm32f4xx_rtc.c **** 
 636:App/STM32F4-Discovery/Libraries/STM32F4xx_StdPeriph_Driver/src/stm32f4xx_rtc.c ****   /* Enable the write protection for RTC registers */
 637:App/STM32F4-Discovery/Libraries/STM32F4xx_StdPeriph_Driver/src/stm32f4xx_rtc.c ****   RTC->WPR = 0xFF; 
 646              		.loc 1 637 0
 647 005e 054B     		ldr	r3, .L46
 648 0060 FF22     		movs	r2, #255
 649 0062 5A62     		str	r2, [r3, #36]
 638:App/STM32F4-Discovery/Libraries/STM32F4xx_StdPeriph_Driver/src/stm32f4xx_rtc.c ****     
 639:App/STM32F4-Discovery/Libraries/STM32F4xx_StdPeriph_Driver/src/stm32f4xx_rtc.c ****   return (status); 
 650              		.loc 1 639 0
 651 0064 FB7B     		ldrb	r3, [r7, #15]	@ zero_extendqisi2
 640:App/STM32F4-Discovery/Libraries/STM32F4xx_StdPeriph_Driver/src/stm32f4xx_rtc.c **** }
 652              		.loc 1 640 0
 653 0066 1846     		mov	r0, r3
 654 0068 1437     		adds	r7, r7, #20
 655 006a BD46     		mov	sp, r7
 656              		@ sp needed
 657 006c 5DF8047B 		ldr	r7, [sp], #4
 658 0070 7047     		bx	lr
 659              	.L47:
 660 0072 00BF     		.align	2
 661              	.L46:
 662 0074 00280040 		.word	1073752064
 663              		.cfi_endproc
 664              	.LFE116:
 666              		.section	.text.RTC_RefClockCmd,"ax",%progbits
 667              		.align	2
 668              		.global	RTC_RefClockCmd
 669              		.thumb
 670              		.thumb_func
 672              	RTC_RefClockCmd:
 673              	.LFB117:
 641:App/STM32F4-Discovery/Libraries/STM32F4xx_StdPeriph_Driver/src/stm32f4xx_rtc.c **** 
 642:App/STM32F4-Discovery/Libraries/STM32F4xx_StdPeriph_Driver/src/stm32f4xx_rtc.c **** /**
 643:App/STM32F4-Discovery/Libraries/STM32F4xx_StdPeriph_Driver/src/stm32f4xx_rtc.c ****   * @brief  Enables or disables the RTC reference clock detection.
 644:App/STM32F4-Discovery/Libraries/STM32F4xx_StdPeriph_Driver/src/stm32f4xx_rtc.c ****   * @param  NewState: new state of the RTC reference clock.
 645:App/STM32F4-Discovery/Libraries/STM32F4xx_StdPeriph_Driver/src/stm32f4xx_rtc.c ****   *          This parameter can be: ENABLE or DISABLE.
 646:App/STM32F4-Discovery/Libraries/STM32F4xx_StdPeriph_Driver/src/stm32f4xx_rtc.c ****   * @retval An ErrorStatus enumeration value:
 647:App/STM32F4-Discovery/Libraries/STM32F4xx_StdPeriph_Driver/src/stm32f4xx_rtc.c ****   *          - SUCCESS: RTC reference clock detection is enabled
 648:App/STM32F4-Discovery/Libraries/STM32F4xx_StdPeriph_Driver/src/stm32f4xx_rtc.c ****   *          - ERROR: RTC reference clock detection is disabled  
 649:App/STM32F4-Discovery/Libraries/STM32F4xx_StdPeriph_Driver/src/stm32f4xx_rtc.c ****   */
 650:App/STM32F4-Discovery/Libraries/STM32F4xx_StdPeriph_Driver/src/stm32f4xx_rtc.c **** ErrorStatus RTC_RefClockCmd(FunctionalState NewState)
 651:App/STM32F4-Discovery/Libraries/STM32F4xx_StdPeriph_Driver/src/stm32f4xx_rtc.c **** { 
 674              		.loc 1 651 0
 675              		.cfi_startproc
 676              		@ args = 0, pretend = 0, frame = 16
 677              		@ frame_needed = 1, uses_anonymous_args = 0
 678 0000 80B5     		push	{r7, lr}
 679              	.LCFI20:
 680              		.cfi_def_cfa_offset 8
 681              		.cfi_offset 7, -8
 682              		.cfi_offset 14, -4
 683 0002 84B0     		sub	sp, sp, #16
 684              	.LCFI21:
 685              		.cfi_def_cfa_offset 24
 686 0004 00AF     		add	r7, sp, #0
 687              	.LCFI22:
 688              		.cfi_def_cfa_register 7
 689 0006 0346     		mov	r3, r0
 690 0008 FB71     		strb	r3, [r7, #7]
 652:App/STM32F4-Discovery/Libraries/STM32F4xx_StdPeriph_Driver/src/stm32f4xx_rtc.c ****   ErrorStatus status = ERROR;
 691              		.loc 1 652 0
 692 000a 0023     		movs	r3, #0
 693 000c FB73     		strb	r3, [r7, #15]
 653:App/STM32F4-Discovery/Libraries/STM32F4xx_StdPeriph_Driver/src/stm32f4xx_rtc.c ****   
 654:App/STM32F4-Discovery/Libraries/STM32F4xx_StdPeriph_Driver/src/stm32f4xx_rtc.c ****   /* Check the parameters */
 655:App/STM32F4-Discovery/Libraries/STM32F4xx_StdPeriph_Driver/src/stm32f4xx_rtc.c ****   assert_param(IS_FUNCTIONAL_STATE(NewState));
 694              		.loc 1 655 0
 695 000e FB79     		ldrb	r3, [r7, #7]	@ zero_extendqisi2
 696 0010 002B     		cmp	r3, #0
 697 0012 07D0     		beq	.L49
 698              		.loc 1 655 0 is_stmt 0 discriminator 1
 699 0014 FB79     		ldrb	r3, [r7, #7]	@ zero_extendqisi2
 700 0016 012B     		cmp	r3, #1
 701 0018 04D0     		beq	.L49
 702 001a 1748     		ldr	r0, .L55
 703 001c 40F28F21 		movw	r1, #655
 704 0020 FFF7FEFF 		bl	assert_failed
 705              	.L49:
 656:App/STM32F4-Discovery/Libraries/STM32F4xx_StdPeriph_Driver/src/stm32f4xx_rtc.c ****   
 657:App/STM32F4-Discovery/Libraries/STM32F4xx_StdPeriph_Driver/src/stm32f4xx_rtc.c ****   /* Disable the write protection for RTC registers */
 658:App/STM32F4-Discovery/Libraries/STM32F4xx_StdPeriph_Driver/src/stm32f4xx_rtc.c ****   RTC->WPR = 0xCA;
 706              		.loc 1 658 0 is_stmt 1
 707 0024 154B     		ldr	r3, .L55+4
 708 0026 CA22     		movs	r2, #202
 709 0028 5A62     		str	r2, [r3, #36]
 659:App/STM32F4-Discovery/Libraries/STM32F4xx_StdPeriph_Driver/src/stm32f4xx_rtc.c ****   RTC->WPR = 0x53;
 710              		.loc 1 659 0
 711 002a 144B     		ldr	r3, .L55+4
 712 002c 5322     		movs	r2, #83
 713 002e 5A62     		str	r2, [r3, #36]
 660:App/STM32F4-Discovery/Libraries/STM32F4xx_StdPeriph_Driver/src/stm32f4xx_rtc.c ****     
 661:App/STM32F4-Discovery/Libraries/STM32F4xx_StdPeriph_Driver/src/stm32f4xx_rtc.c ****   /* Set Initialization mode */
 662:App/STM32F4-Discovery/Libraries/STM32F4xx_StdPeriph_Driver/src/stm32f4xx_rtc.c ****   if (RTC_EnterInitMode() == ERROR)
 714              		.loc 1 662 0
 715 0030 FFF7FEFF 		bl	RTC_EnterInitMode
 716 0034 0346     		mov	r3, r0
 717 0036 002B     		cmp	r3, #0
 718 0038 02D1     		bne	.L50
 663:App/STM32F4-Discovery/Libraries/STM32F4xx_StdPeriph_Driver/src/stm32f4xx_rtc.c ****   {
 664:App/STM32F4-Discovery/Libraries/STM32F4xx_StdPeriph_Driver/src/stm32f4xx_rtc.c ****     status = ERROR;
 719              		.loc 1 664 0
 720 003a 0023     		movs	r3, #0
 721 003c FB73     		strb	r3, [r7, #15]
 722 003e 13E0     		b	.L51
 723              	.L50:
 665:App/STM32F4-Discovery/Libraries/STM32F4xx_StdPeriph_Driver/src/stm32f4xx_rtc.c ****   } 
 666:App/STM32F4-Discovery/Libraries/STM32F4xx_StdPeriph_Driver/src/stm32f4xx_rtc.c ****   else
 667:App/STM32F4-Discovery/Libraries/STM32F4xx_StdPeriph_Driver/src/stm32f4xx_rtc.c ****   {  
 668:App/STM32F4-Discovery/Libraries/STM32F4xx_StdPeriph_Driver/src/stm32f4xx_rtc.c ****     if (NewState != DISABLE)
 724              		.loc 1 668 0
 725 0040 FB79     		ldrb	r3, [r7, #7]	@ zero_extendqisi2
 726 0042 002B     		cmp	r3, #0
 727 0044 06D0     		beq	.L52
 669:App/STM32F4-Discovery/Libraries/STM32F4xx_StdPeriph_Driver/src/stm32f4xx_rtc.c ****     {
 670:App/STM32F4-Discovery/Libraries/STM32F4xx_StdPeriph_Driver/src/stm32f4xx_rtc.c ****       /* Enable the RTC reference clock detection */
 671:App/STM32F4-Discovery/Libraries/STM32F4xx_StdPeriph_Driver/src/stm32f4xx_rtc.c ****       RTC->CR |= RTC_CR_REFCKON;   
 728              		.loc 1 671 0
 729 0046 0D4B     		ldr	r3, .L55+4
 730 0048 0C4A     		ldr	r2, .L55+4
 731 004a 9268     		ldr	r2, [r2, #8]
 732 004c 42F01002 		orr	r2, r2, #16
 733 0050 9A60     		str	r2, [r3, #8]
 734 0052 05E0     		b	.L53
 735              	.L52:
 672:App/STM32F4-Discovery/Libraries/STM32F4xx_StdPeriph_Driver/src/stm32f4xx_rtc.c ****     }
 673:App/STM32F4-Discovery/Libraries/STM32F4xx_StdPeriph_Driver/src/stm32f4xx_rtc.c ****     else
 674:App/STM32F4-Discovery/Libraries/STM32F4xx_StdPeriph_Driver/src/stm32f4xx_rtc.c ****     {
 675:App/STM32F4-Discovery/Libraries/STM32F4xx_StdPeriph_Driver/src/stm32f4xx_rtc.c ****       /* Disable the RTC reference clock detection */
 676:App/STM32F4-Discovery/Libraries/STM32F4xx_StdPeriph_Driver/src/stm32f4xx_rtc.c ****       RTC->CR &= ~RTC_CR_REFCKON;    
 736              		.loc 1 676 0
 737 0054 094B     		ldr	r3, .L55+4
 738 0056 094A     		ldr	r2, .L55+4
 739 0058 9268     		ldr	r2, [r2, #8]
 740 005a 22F01002 		bic	r2, r2, #16
 741 005e 9A60     		str	r2, [r3, #8]
 742              	.L53:
 677:App/STM32F4-Discovery/Libraries/STM32F4xx_StdPeriph_Driver/src/stm32f4xx_rtc.c ****     }
 678:App/STM32F4-Discovery/Libraries/STM32F4xx_StdPeriph_Driver/src/stm32f4xx_rtc.c ****     /* Exit Initialization mode */
 679:App/STM32F4-Discovery/Libraries/STM32F4xx_StdPeriph_Driver/src/stm32f4xx_rtc.c ****     RTC_ExitInitMode();
 743              		.loc 1 679 0
 744 0060 FFF7FEFF 		bl	RTC_ExitInitMode
 680:App/STM32F4-Discovery/Libraries/STM32F4xx_StdPeriph_Driver/src/stm32f4xx_rtc.c ****     
 681:App/STM32F4-Discovery/Libraries/STM32F4xx_StdPeriph_Driver/src/stm32f4xx_rtc.c ****     status = SUCCESS;
 745              		.loc 1 681 0
 746 0064 0123     		movs	r3, #1
 747 0066 FB73     		strb	r3, [r7, #15]
 748              	.L51:
 682:App/STM32F4-Discovery/Libraries/STM32F4xx_StdPeriph_Driver/src/stm32f4xx_rtc.c ****   }
 683:App/STM32F4-Discovery/Libraries/STM32F4xx_StdPeriph_Driver/src/stm32f4xx_rtc.c ****   
 684:App/STM32F4-Discovery/Libraries/STM32F4xx_StdPeriph_Driver/src/stm32f4xx_rtc.c ****   /* Enable the write protection for RTC registers */
 685:App/STM32F4-Discovery/Libraries/STM32F4xx_StdPeriph_Driver/src/stm32f4xx_rtc.c ****   RTC->WPR = 0xFF;  
 749              		.loc 1 685 0
 750 0068 044B     		ldr	r3, .L55+4
 751 006a FF22     		movs	r2, #255
 752 006c 5A62     		str	r2, [r3, #36]
 686:App/STM32F4-Discovery/Libraries/STM32F4xx_StdPeriph_Driver/src/stm32f4xx_rtc.c ****   
 687:App/STM32F4-Discovery/Libraries/STM32F4xx_StdPeriph_Driver/src/stm32f4xx_rtc.c ****   return status; 
 753              		.loc 1 687 0
 754 006e FB7B     		ldrb	r3, [r7, #15]	@ zero_extendqisi2
 688:App/STM32F4-Discovery/Libraries/STM32F4xx_StdPeriph_Driver/src/stm32f4xx_rtc.c **** }
 755              		.loc 1 688 0
 756 0070 1846     		mov	r0, r3
 757 0072 1037     		adds	r7, r7, #16
 758 0074 BD46     		mov	sp, r7
 759              		@ sp needed
 760 0076 80BD     		pop	{r7, pc}
 761              	.L56:
 762              		.align	2
 763              	.L55:
 764 0078 00000000 		.word	.LC0
 765 007c 00280040 		.word	1073752064
 766              		.cfi_endproc
 767              	.LFE117:
 769              		.section	.text.RTC_BypassShadowCmd,"ax",%progbits
 770              		.align	2
 771              		.global	RTC_BypassShadowCmd
 772              		.thumb
 773              		.thumb_func
 775              	RTC_BypassShadowCmd:
 776              	.LFB118:
 689:App/STM32F4-Discovery/Libraries/STM32F4xx_StdPeriph_Driver/src/stm32f4xx_rtc.c **** 
 690:App/STM32F4-Discovery/Libraries/STM32F4xx_StdPeriph_Driver/src/stm32f4xx_rtc.c **** /**
 691:App/STM32F4-Discovery/Libraries/STM32F4xx_StdPeriph_Driver/src/stm32f4xx_rtc.c ****   * @brief  Enables or Disables the Bypass Shadow feature.
 692:App/STM32F4-Discovery/Libraries/STM32F4xx_StdPeriph_Driver/src/stm32f4xx_rtc.c ****   * @note   When the Bypass Shadow is enabled the calendar value are taken 
 693:App/STM32F4-Discovery/Libraries/STM32F4xx_StdPeriph_Driver/src/stm32f4xx_rtc.c ****   *         directly from the Calendar counter.
 694:App/STM32F4-Discovery/Libraries/STM32F4xx_StdPeriph_Driver/src/stm32f4xx_rtc.c ****   * @param  NewState: new state of the Bypass Shadow feature.
 695:App/STM32F4-Discovery/Libraries/STM32F4xx_StdPeriph_Driver/src/stm32f4xx_rtc.c ****   *         This parameter can be: ENABLE or DISABLE.
 696:App/STM32F4-Discovery/Libraries/STM32F4xx_StdPeriph_Driver/src/stm32f4xx_rtc.c ****   * @retval None
 697:App/STM32F4-Discovery/Libraries/STM32F4xx_StdPeriph_Driver/src/stm32f4xx_rtc.c **** */
 698:App/STM32F4-Discovery/Libraries/STM32F4xx_StdPeriph_Driver/src/stm32f4xx_rtc.c **** void RTC_BypassShadowCmd(FunctionalState NewState)
 699:App/STM32F4-Discovery/Libraries/STM32F4xx_StdPeriph_Driver/src/stm32f4xx_rtc.c **** {
 777              		.loc 1 699 0
 778              		.cfi_startproc
 779              		@ args = 0, pretend = 0, frame = 8
 780              		@ frame_needed = 1, uses_anonymous_args = 0
 781 0000 80B5     		push	{r7, lr}
 782              	.LCFI23:
 783              		.cfi_def_cfa_offset 8
 784              		.cfi_offset 7, -8
 785              		.cfi_offset 14, -4
 786 0002 82B0     		sub	sp, sp, #8
 787              	.LCFI24:
 788              		.cfi_def_cfa_offset 16
 789 0004 00AF     		add	r7, sp, #0
 790              	.LCFI25:
 791              		.cfi_def_cfa_register 7
 792 0006 0346     		mov	r3, r0
 793 0008 FB71     		strb	r3, [r7, #7]
 700:App/STM32F4-Discovery/Libraries/STM32F4xx_StdPeriph_Driver/src/stm32f4xx_rtc.c ****   /* Check the parameters */
 701:App/STM32F4-Discovery/Libraries/STM32F4xx_StdPeriph_Driver/src/stm32f4xx_rtc.c ****   assert_param(IS_FUNCTIONAL_STATE(NewState));
 794              		.loc 1 701 0
 795 000a FB79     		ldrb	r3, [r7, #7]	@ zero_extendqisi2
 796 000c 002B     		cmp	r3, #0
 797 000e 07D0     		beq	.L58
 798              		.loc 1 701 0 is_stmt 0 discriminator 1
 799 0010 FB79     		ldrb	r3, [r7, #7]	@ zero_extendqisi2
 800 0012 012B     		cmp	r3, #1
 801 0014 04D0     		beq	.L58
 802 0016 1048     		ldr	r0, .L61
 803 0018 40F2BD21 		movw	r1, #701
 804 001c FFF7FEFF 		bl	assert_failed
 805              	.L58:
 702:App/STM32F4-Discovery/Libraries/STM32F4xx_StdPeriph_Driver/src/stm32f4xx_rtc.c **** 
 703:App/STM32F4-Discovery/Libraries/STM32F4xx_StdPeriph_Driver/src/stm32f4xx_rtc.c ****   /* Disable the write protection for RTC registers */
 704:App/STM32F4-Discovery/Libraries/STM32F4xx_StdPeriph_Driver/src/stm32f4xx_rtc.c ****   RTC->WPR = 0xCA;
 806              		.loc 1 704 0 is_stmt 1
 807 0020 0E4B     		ldr	r3, .L61+4
 808 0022 CA22     		movs	r2, #202
 809 0024 5A62     		str	r2, [r3, #36]
 705:App/STM32F4-Discovery/Libraries/STM32F4xx_StdPeriph_Driver/src/stm32f4xx_rtc.c ****   RTC->WPR = 0x53;
 810              		.loc 1 705 0
 811 0026 0D4B     		ldr	r3, .L61+4
 812 0028 5322     		movs	r2, #83
 813 002a 5A62     		str	r2, [r3, #36]
 706:App/STM32F4-Discovery/Libraries/STM32F4xx_StdPeriph_Driver/src/stm32f4xx_rtc.c ****   
 707:App/STM32F4-Discovery/Libraries/STM32F4xx_StdPeriph_Driver/src/stm32f4xx_rtc.c ****   if (NewState != DISABLE)
 814              		.loc 1 707 0
 815 002c FB79     		ldrb	r3, [r7, #7]	@ zero_extendqisi2
 816 002e 002B     		cmp	r3, #0
 817 0030 06D0     		beq	.L59
 708:App/STM32F4-Discovery/Libraries/STM32F4xx_StdPeriph_Driver/src/stm32f4xx_rtc.c ****   {
 709:App/STM32F4-Discovery/Libraries/STM32F4xx_StdPeriph_Driver/src/stm32f4xx_rtc.c ****     /* Set the BYPSHAD bit */
 710:App/STM32F4-Discovery/Libraries/STM32F4xx_StdPeriph_Driver/src/stm32f4xx_rtc.c ****     RTC->CR |= (uint8_t)RTC_CR_BYPSHAD;
 818              		.loc 1 710 0
 819 0032 0A4B     		ldr	r3, .L61+4
 820 0034 094A     		ldr	r2, .L61+4
 821 0036 9268     		ldr	r2, [r2, #8]
 822 0038 42F02002 		orr	r2, r2, #32
 823 003c 9A60     		str	r2, [r3, #8]
 824 003e 05E0     		b	.L60
 825              	.L59:
 711:App/STM32F4-Discovery/Libraries/STM32F4xx_StdPeriph_Driver/src/stm32f4xx_rtc.c ****   }
 712:App/STM32F4-Discovery/Libraries/STM32F4xx_StdPeriph_Driver/src/stm32f4xx_rtc.c ****   else
 713:App/STM32F4-Discovery/Libraries/STM32F4xx_StdPeriph_Driver/src/stm32f4xx_rtc.c ****   {
 714:App/STM32F4-Discovery/Libraries/STM32F4xx_StdPeriph_Driver/src/stm32f4xx_rtc.c ****     /* Reset the BYPSHAD bit */
 715:App/STM32F4-Discovery/Libraries/STM32F4xx_StdPeriph_Driver/src/stm32f4xx_rtc.c ****     RTC->CR &= (uint8_t)~RTC_CR_BYPSHAD;
 826              		.loc 1 715 0
 827 0040 064B     		ldr	r3, .L61+4
 828 0042 064A     		ldr	r2, .L61+4
 829 0044 9268     		ldr	r2, [r2, #8]
 830 0046 02F0DF02 		and	r2, r2, #223
 831 004a 9A60     		str	r2, [r3, #8]
 832              	.L60:
 716:App/STM32F4-Discovery/Libraries/STM32F4xx_StdPeriph_Driver/src/stm32f4xx_rtc.c ****   }
 717:App/STM32F4-Discovery/Libraries/STM32F4xx_StdPeriph_Driver/src/stm32f4xx_rtc.c **** 
 718:App/STM32F4-Discovery/Libraries/STM32F4xx_StdPeriph_Driver/src/stm32f4xx_rtc.c ****   /* Enable the write protection for RTC registers */
 719:App/STM32F4-Discovery/Libraries/STM32F4xx_StdPeriph_Driver/src/stm32f4xx_rtc.c ****   RTC->WPR = 0xFF;
 833              		.loc 1 719 0
 834 004c 034B     		ldr	r3, .L61+4
 835 004e FF22     		movs	r2, #255
 836 0050 5A62     		str	r2, [r3, #36]
 720:App/STM32F4-Discovery/Libraries/STM32F4xx_StdPeriph_Driver/src/stm32f4xx_rtc.c **** }
 837              		.loc 1 720 0
 838 0052 0837     		adds	r7, r7, #8
 839 0054 BD46     		mov	sp, r7
 840              		@ sp needed
 841 0056 80BD     		pop	{r7, pc}
 842              	.L62:
 843              		.align	2
 844              	.L61:
 845 0058 00000000 		.word	.LC0
 846 005c 00280040 		.word	1073752064
 847              		.cfi_endproc
 848              	.LFE118:
 850              		.section	.text.RTC_SetTime,"ax",%progbits
 851              		.align	2
 852              		.global	RTC_SetTime
 853              		.thumb
 854              		.thumb_func
 856              	RTC_SetTime:
 857              	.LFB119:
 721:App/STM32F4-Discovery/Libraries/STM32F4xx_StdPeriph_Driver/src/stm32f4xx_rtc.c **** 
 722:App/STM32F4-Discovery/Libraries/STM32F4xx_StdPeriph_Driver/src/stm32f4xx_rtc.c **** /**
 723:App/STM32F4-Discovery/Libraries/STM32F4xx_StdPeriph_Driver/src/stm32f4xx_rtc.c ****   * @}
 724:App/STM32F4-Discovery/Libraries/STM32F4xx_StdPeriph_Driver/src/stm32f4xx_rtc.c ****   */
 725:App/STM32F4-Discovery/Libraries/STM32F4xx_StdPeriph_Driver/src/stm32f4xx_rtc.c **** 
 726:App/STM32F4-Discovery/Libraries/STM32F4xx_StdPeriph_Driver/src/stm32f4xx_rtc.c **** /** @defgroup RTC_Group2 Time and Date configuration functions
 727:App/STM32F4-Discovery/Libraries/STM32F4xx_StdPeriph_Driver/src/stm32f4xx_rtc.c ****  *  @brief   Time and Date configuration functions 
 728:App/STM32F4-Discovery/Libraries/STM32F4xx_StdPeriph_Driver/src/stm32f4xx_rtc.c ****  *
 729:App/STM32F4-Discovery/Libraries/STM32F4xx_StdPeriph_Driver/src/stm32f4xx_rtc.c **** @verbatim   
 730:App/STM32F4-Discovery/Libraries/STM32F4xx_StdPeriph_Driver/src/stm32f4xx_rtc.c ****  ===============================================================================
 731:App/STM32F4-Discovery/Libraries/STM32F4xx_StdPeriph_Driver/src/stm32f4xx_rtc.c ****                    Time and Date configuration functions
 732:App/STM32F4-Discovery/Libraries/STM32F4xx_StdPeriph_Driver/src/stm32f4xx_rtc.c ****  ===============================================================================  
 733:App/STM32F4-Discovery/Libraries/STM32F4xx_StdPeriph_Driver/src/stm32f4xx_rtc.c **** 
 734:App/STM32F4-Discovery/Libraries/STM32F4xx_StdPeriph_Driver/src/stm32f4xx_rtc.c ****   This section provide functions allowing to program and read the RTC Calendar
 735:App/STM32F4-Discovery/Libraries/STM32F4xx_StdPeriph_Driver/src/stm32f4xx_rtc.c ****   (Time and Date).
 736:App/STM32F4-Discovery/Libraries/STM32F4xx_StdPeriph_Driver/src/stm32f4xx_rtc.c **** 
 737:App/STM32F4-Discovery/Libraries/STM32F4xx_StdPeriph_Driver/src/stm32f4xx_rtc.c **** @endverbatim
 738:App/STM32F4-Discovery/Libraries/STM32F4xx_StdPeriph_Driver/src/stm32f4xx_rtc.c ****   * @{
 739:App/STM32F4-Discovery/Libraries/STM32F4xx_StdPeriph_Driver/src/stm32f4xx_rtc.c ****   */
 740:App/STM32F4-Discovery/Libraries/STM32F4xx_StdPeriph_Driver/src/stm32f4xx_rtc.c **** 
 741:App/STM32F4-Discovery/Libraries/STM32F4xx_StdPeriph_Driver/src/stm32f4xx_rtc.c **** /**
 742:App/STM32F4-Discovery/Libraries/STM32F4xx_StdPeriph_Driver/src/stm32f4xx_rtc.c ****   * @brief  Set the RTC current time.
 743:App/STM32F4-Discovery/Libraries/STM32F4xx_StdPeriph_Driver/src/stm32f4xx_rtc.c ****   * @param  RTC_Format: specifies the format of the entered parameters.
 744:App/STM32F4-Discovery/Libraries/STM32F4xx_StdPeriph_Driver/src/stm32f4xx_rtc.c ****   *          This parameter can be  one of the following values:
 745:App/STM32F4-Discovery/Libraries/STM32F4xx_StdPeriph_Driver/src/stm32f4xx_rtc.c ****   *            @arg RTC_Format_BIN:  Binary data format 
 746:App/STM32F4-Discovery/Libraries/STM32F4xx_StdPeriph_Driver/src/stm32f4xx_rtc.c ****   *            @arg RTC_Format_BCD:  BCD data format
 747:App/STM32F4-Discovery/Libraries/STM32F4xx_StdPeriph_Driver/src/stm32f4xx_rtc.c ****   * @param  RTC_TimeStruct: pointer to a RTC_TimeTypeDef structure that contains 
 748:App/STM32F4-Discovery/Libraries/STM32F4xx_StdPeriph_Driver/src/stm32f4xx_rtc.c ****   *                        the time configuration information for the RTC.     
 749:App/STM32F4-Discovery/Libraries/STM32F4xx_StdPeriph_Driver/src/stm32f4xx_rtc.c ****   * @retval An ErrorStatus enumeration value:
 750:App/STM32F4-Discovery/Libraries/STM32F4xx_StdPeriph_Driver/src/stm32f4xx_rtc.c ****   *          - SUCCESS: RTC Time register is configured
 751:App/STM32F4-Discovery/Libraries/STM32F4xx_StdPeriph_Driver/src/stm32f4xx_rtc.c ****   *          - ERROR: RTC Time register is not configured
 752:App/STM32F4-Discovery/Libraries/STM32F4xx_StdPeriph_Driver/src/stm32f4xx_rtc.c ****   */
 753:App/STM32F4-Discovery/Libraries/STM32F4xx_StdPeriph_Driver/src/stm32f4xx_rtc.c **** ErrorStatus RTC_SetTime(uint32_t RTC_Format, RTC_TimeTypeDef* RTC_TimeStruct)
 754:App/STM32F4-Discovery/Libraries/STM32F4xx_StdPeriph_Driver/src/stm32f4xx_rtc.c **** {
 858              		.loc 1 754 0
 859              		.cfi_startproc
 860              		@ args = 0, pretend = 0, frame = 16
 861              		@ frame_needed = 1, uses_anonymous_args = 0
 862 0000 90B5     		push	{r4, r7, lr}
 863              	.LCFI26:
 864              		.cfi_def_cfa_offset 12
 865              		.cfi_offset 4, -12
 866              		.cfi_offset 7, -8
 867              		.cfi_offset 14, -4
 868 0002 85B0     		sub	sp, sp, #20
 869              	.LCFI27:
 870              		.cfi_def_cfa_offset 32
 871 0004 00AF     		add	r7, sp, #0
 872              	.LCFI28:
 873              		.cfi_def_cfa_register 7
 874 0006 7860     		str	r0, [r7, #4]
 875 0008 3960     		str	r1, [r7]
 755:App/STM32F4-Discovery/Libraries/STM32F4xx_StdPeriph_Driver/src/stm32f4xx_rtc.c ****   uint32_t tmpreg = 0;
 876              		.loc 1 755 0
 877 000a 0023     		movs	r3, #0
 878 000c FB60     		str	r3, [r7, #12]
 756:App/STM32F4-Discovery/Libraries/STM32F4xx_StdPeriph_Driver/src/stm32f4xx_rtc.c ****   ErrorStatus status = ERROR;
 879              		.loc 1 756 0
 880 000e 0023     		movs	r3, #0
 881 0010 FB72     		strb	r3, [r7, #11]
 757:App/STM32F4-Discovery/Libraries/STM32F4xx_StdPeriph_Driver/src/stm32f4xx_rtc.c ****     
 758:App/STM32F4-Discovery/Libraries/STM32F4xx_StdPeriph_Driver/src/stm32f4xx_rtc.c ****   /* Check the parameters */
 759:App/STM32F4-Discovery/Libraries/STM32F4xx_StdPeriph_Driver/src/stm32f4xx_rtc.c ****   assert_param(IS_RTC_FORMAT(RTC_Format));
 882              		.loc 1 759 0
 883 0012 7B68     		ldr	r3, [r7, #4]
 884 0014 002B     		cmp	r3, #0
 885 0016 07D0     		beq	.L64
 886              		.loc 1 759 0 is_stmt 0 discriminator 1
 887 0018 7B68     		ldr	r3, [r7, #4]
 888 001a 012B     		cmp	r3, #1
 889 001c 04D0     		beq	.L64
 890 001e 7848     		ldr	r0, .L83
 891 0020 40F2F721 		movw	r1, #759
 892 0024 FFF7FEFF 		bl	assert_failed
 893              	.L64:
 760:App/STM32F4-Discovery/Libraries/STM32F4xx_StdPeriph_Driver/src/stm32f4xx_rtc.c ****   
 761:App/STM32F4-Discovery/Libraries/STM32F4xx_StdPeriph_Driver/src/stm32f4xx_rtc.c ****   if (RTC_Format == RTC_Format_BIN)
 894              		.loc 1 761 0 is_stmt 1
 895 0028 7B68     		ldr	r3, [r7, #4]
 896 002a 002B     		cmp	r3, #0
 897 002c 3FD1     		bne	.L65
 762:App/STM32F4-Discovery/Libraries/STM32F4xx_StdPeriph_Driver/src/stm32f4xx_rtc.c ****   {
 763:App/STM32F4-Discovery/Libraries/STM32F4xx_StdPeriph_Driver/src/stm32f4xx_rtc.c ****     if ((RTC->CR & RTC_CR_FMT) != (uint32_t)RESET)
 898              		.loc 1 763 0
 899 002e 754B     		ldr	r3, .L83+4
 900 0030 9B68     		ldr	r3, [r3, #8]
 901 0032 03F04003 		and	r3, r3, #64
 902 0036 002B     		cmp	r3, #0
 903 0038 1AD0     		beq	.L66
 764:App/STM32F4-Discovery/Libraries/STM32F4xx_StdPeriph_Driver/src/stm32f4xx_rtc.c ****     {
 765:App/STM32F4-Discovery/Libraries/STM32F4xx_StdPeriph_Driver/src/stm32f4xx_rtc.c ****       assert_param(IS_RTC_HOUR12(RTC_TimeStruct->RTC_Hours));
 904              		.loc 1 765 0
 905 003a 3B68     		ldr	r3, [r7]
 906 003c 1B78     		ldrb	r3, [r3]	@ zero_extendqisi2
 907 003e 002B     		cmp	r3, #0
 908 0040 03D0     		beq	.L67
 909              		.loc 1 765 0 is_stmt 0 discriminator 2
 910 0042 3B68     		ldr	r3, [r7]
 911 0044 1B78     		ldrb	r3, [r3]	@ zero_extendqisi2
 912 0046 0C2B     		cmp	r3, #12
 913 0048 04D9     		bls	.L68
 914              	.L67:
 915              		.loc 1 765 0 discriminator 1
 916 004a 6D48     		ldr	r0, .L83
 917 004c 40F2FD21 		movw	r1, #765
 918 0050 FFF7FEFF 		bl	assert_failed
 919              	.L68:
 766:App/STM32F4-Discovery/Libraries/STM32F4xx_StdPeriph_Driver/src/stm32f4xx_rtc.c ****       assert_param(IS_RTC_H12(RTC_TimeStruct->RTC_H12));
 920              		.loc 1 766 0 is_stmt 1
 921 0054 3B68     		ldr	r3, [r7]
 922 0056 DB78     		ldrb	r3, [r3, #3]	@ zero_extendqisi2
 923 0058 002B     		cmp	r3, #0
 924 005a 15D0     		beq	.L69
 925              		.loc 1 766 0 is_stmt 0 discriminator 1
 926 005c 3B68     		ldr	r3, [r7]
 927 005e DB78     		ldrb	r3, [r3, #3]	@ zero_extendqisi2
 928 0060 402B     		cmp	r3, #64
 929 0062 11D0     		beq	.L69
 930 0064 6648     		ldr	r0, .L83
 931 0066 40F2FE21 		movw	r1, #766
 932 006a FFF7FEFF 		bl	assert_failed
 933 006e 0BE0     		b	.L69
 934              	.L66:
 767:App/STM32F4-Discovery/Libraries/STM32F4xx_StdPeriph_Driver/src/stm32f4xx_rtc.c ****     } 
 768:App/STM32F4-Discovery/Libraries/STM32F4xx_StdPeriph_Driver/src/stm32f4xx_rtc.c ****     else
 769:App/STM32F4-Discovery/Libraries/STM32F4xx_StdPeriph_Driver/src/stm32f4xx_rtc.c ****     {
 770:App/STM32F4-Discovery/Libraries/STM32F4xx_StdPeriph_Driver/src/stm32f4xx_rtc.c ****       RTC_TimeStruct->RTC_H12 = 0x00;
 935              		.loc 1 770 0 is_stmt 1
 936 0070 3B68     		ldr	r3, [r7]
 937 0072 0022     		movs	r2, #0
 938 0074 DA70     		strb	r2, [r3, #3]
 771:App/STM32F4-Discovery/Libraries/STM32F4xx_StdPeriph_Driver/src/stm32f4xx_rtc.c ****       assert_param(IS_RTC_HOUR24(RTC_TimeStruct->RTC_Hours));
 939              		.loc 1 771 0
 940 0076 3B68     		ldr	r3, [r7]
 941 0078 1B78     		ldrb	r3, [r3]	@ zero_extendqisi2
 942 007a 172B     		cmp	r3, #23
 943 007c 04D9     		bls	.L69
 944              		.loc 1 771 0 is_stmt 0 discriminator 1
 945 007e 6048     		ldr	r0, .L83
 946 0080 40F20331 		movw	r1, #771
 947 0084 FFF7FEFF 		bl	assert_failed
 948              	.L69:
 772:App/STM32F4-Discovery/Libraries/STM32F4xx_StdPeriph_Driver/src/stm32f4xx_rtc.c ****     }
 773:App/STM32F4-Discovery/Libraries/STM32F4xx_StdPeriph_Driver/src/stm32f4xx_rtc.c ****     assert_param(IS_RTC_MINUTES(RTC_TimeStruct->RTC_Minutes));
 949              		.loc 1 773 0 is_stmt 1
 950 0088 3B68     		ldr	r3, [r7]
 951 008a 5B78     		ldrb	r3, [r3, #1]	@ zero_extendqisi2
 952 008c 3B2B     		cmp	r3, #59
 953 008e 04D9     		bls	.L70
 954              		.loc 1 773 0 is_stmt 0 discriminator 1
 955 0090 5B48     		ldr	r0, .L83
 956 0092 40F20531 		movw	r1, #773
 957 0096 FFF7FEFF 		bl	assert_failed
 958              	.L70:
 774:App/STM32F4-Discovery/Libraries/STM32F4xx_StdPeriph_Driver/src/stm32f4xx_rtc.c ****     assert_param(IS_RTC_SECONDS(RTC_TimeStruct->RTC_Seconds));
 959              		.loc 1 774 0 is_stmt 1
 960 009a 3B68     		ldr	r3, [r7]
 961 009c 9B78     		ldrb	r3, [r3, #2]	@ zero_extendqisi2
 962 009e 3B2B     		cmp	r3, #59
 963 00a0 55D9     		bls	.L71
 964              		.loc 1 774 0 is_stmt 0 discriminator 1
 965 00a2 5748     		ldr	r0, .L83
 966 00a4 40F20631 		movw	r1, #774
 967 00a8 FFF7FEFF 		bl	assert_failed
 968 00ac 4FE0     		b	.L71
 969              	.L65:
 775:App/STM32F4-Discovery/Libraries/STM32F4xx_StdPeriph_Driver/src/stm32f4xx_rtc.c ****   }
 776:App/STM32F4-Discovery/Libraries/STM32F4xx_StdPeriph_Driver/src/stm32f4xx_rtc.c ****   else
 777:App/STM32F4-Discovery/Libraries/STM32F4xx_StdPeriph_Driver/src/stm32f4xx_rtc.c ****   {
 778:App/STM32F4-Discovery/Libraries/STM32F4xx_StdPeriph_Driver/src/stm32f4xx_rtc.c ****     if ((RTC->CR & RTC_CR_FMT) != (uint32_t)RESET)
 970              		.loc 1 778 0 is_stmt 1
 971 00ae 554B     		ldr	r3, .L83+4
 972 00b0 9B68     		ldr	r3, [r3, #8]
 973 00b2 03F04003 		and	r3, r3, #64
 974 00b6 002B     		cmp	r3, #0
 975 00b8 1FD0     		beq	.L72
 779:App/STM32F4-Discovery/Libraries/STM32F4xx_StdPeriph_Driver/src/stm32f4xx_rtc.c ****     {
 780:App/STM32F4-Discovery/Libraries/STM32F4xx_StdPeriph_Driver/src/stm32f4xx_rtc.c ****       tmpreg = RTC_Bcd2ToByte(RTC_TimeStruct->RTC_Hours);
 976              		.loc 1 780 0
 977 00ba 3B68     		ldr	r3, [r7]
 978 00bc 1B78     		ldrb	r3, [r3]	@ zero_extendqisi2
 979 00be 1846     		mov	r0, r3
 980 00c0 FFF7FEFF 		bl	RTC_Bcd2ToByte
 981 00c4 0346     		mov	r3, r0
 982 00c6 FB60     		str	r3, [r7, #12]
 781:App/STM32F4-Discovery/Libraries/STM32F4xx_StdPeriph_Driver/src/stm32f4xx_rtc.c ****       assert_param(IS_RTC_HOUR12(tmpreg));
 983              		.loc 1 781 0
 984 00c8 FB68     		ldr	r3, [r7, #12]
 985 00ca 002B     		cmp	r3, #0
 986 00cc 02D0     		beq	.L73
 987              		.loc 1 781 0 is_stmt 0 discriminator 2
 988 00ce FB68     		ldr	r3, [r7, #12]
 989 00d0 0C2B     		cmp	r3, #12
 990 00d2 04D9     		bls	.L74
 991              	.L73:
 992              		.loc 1 781 0 discriminator 1
 993 00d4 4A48     		ldr	r0, .L83
 994 00d6 40F20D31 		movw	r1, #781
 995 00da FFF7FEFF 		bl	assert_failed
 996              	.L74:
 782:App/STM32F4-Discovery/Libraries/STM32F4xx_StdPeriph_Driver/src/stm32f4xx_rtc.c ****       assert_param(IS_RTC_H12(RTC_TimeStruct->RTC_H12)); 
 997              		.loc 1 782 0 is_stmt 1
 998 00de 3B68     		ldr	r3, [r7]
 999 00e0 DB78     		ldrb	r3, [r3, #3]	@ zero_extendqisi2
 1000 00e2 002B     		cmp	r3, #0
 1001 00e4 19D0     		beq	.L75
 1002              		.loc 1 782 0 is_stmt 0 discriminator 1
 1003 00e6 3B68     		ldr	r3, [r7]
 1004 00e8 DB78     		ldrb	r3, [r3, #3]	@ zero_extendqisi2
 1005 00ea 402B     		cmp	r3, #64
 1006 00ec 15D0     		beq	.L75
 1007 00ee 4448     		ldr	r0, .L83
 1008 00f0 40F20E31 		movw	r1, #782
 1009 00f4 FFF7FEFF 		bl	assert_failed
 1010 00f8 0FE0     		b	.L75
 1011              	.L72:
 783:App/STM32F4-Discovery/Libraries/STM32F4xx_StdPeriph_Driver/src/stm32f4xx_rtc.c ****     } 
 784:App/STM32F4-Discovery/Libraries/STM32F4xx_StdPeriph_Driver/src/stm32f4xx_rtc.c ****     else
 785:App/STM32F4-Discovery/Libraries/STM32F4xx_StdPeriph_Driver/src/stm32f4xx_rtc.c ****     {
 786:App/STM32F4-Discovery/Libraries/STM32F4xx_StdPeriph_Driver/src/stm32f4xx_rtc.c ****       RTC_TimeStruct->RTC_H12 = 0x00;
 1012              		.loc 1 786 0 is_stmt 1
 1013 00fa 3B68     		ldr	r3, [r7]
 1014 00fc 0022     		movs	r2, #0
 1015 00fe DA70     		strb	r2, [r3, #3]
 787:App/STM32F4-Discovery/Libraries/STM32F4xx_StdPeriph_Driver/src/stm32f4xx_rtc.c ****       assert_param(IS_RTC_HOUR24(RTC_Bcd2ToByte(RTC_TimeStruct->RTC_Hours)));
 1016              		.loc 1 787 0
 1017 0100 3B68     		ldr	r3, [r7]
 1018 0102 1B78     		ldrb	r3, [r3]	@ zero_extendqisi2
 1019 0104 1846     		mov	r0, r3
 1020 0106 FFF7FEFF 		bl	RTC_Bcd2ToByte
 1021 010a 0346     		mov	r3, r0
 1022 010c 172B     		cmp	r3, #23
 1023 010e 04D9     		bls	.L75
 1024              		.loc 1 787 0 is_stmt 0 discriminator 1
 1025 0110 3B48     		ldr	r0, .L83
 1026 0112 40F21331 		movw	r1, #787
 1027 0116 FFF7FEFF 		bl	assert_failed
 1028              	.L75:
 788:App/STM32F4-Discovery/Libraries/STM32F4xx_StdPeriph_Driver/src/stm32f4xx_rtc.c ****     }
 789:App/STM32F4-Discovery/Libraries/STM32F4xx_StdPeriph_Driver/src/stm32f4xx_rtc.c ****     assert_param(IS_RTC_MINUTES(RTC_Bcd2ToByte(RTC_TimeStruct->RTC_Minutes)));
 1029              		.loc 1 789 0 is_stmt 1
 1030 011a 3B68     		ldr	r3, [r7]
 1031 011c 5B78     		ldrb	r3, [r3, #1]	@ zero_extendqisi2
 1032 011e 1846     		mov	r0, r3
 1033 0120 FFF7FEFF 		bl	RTC_Bcd2ToByte
 1034 0124 0346     		mov	r3, r0
 1035 0126 3B2B     		cmp	r3, #59
 1036 0128 04D9     		bls	.L76
 1037              		.loc 1 789 0 is_stmt 0 discriminator 1
 1038 012a 3548     		ldr	r0, .L83
 1039 012c 40F21531 		movw	r1, #789
 1040 0130 FFF7FEFF 		bl	assert_failed
 1041              	.L76:
 790:App/STM32F4-Discovery/Libraries/STM32F4xx_StdPeriph_Driver/src/stm32f4xx_rtc.c ****     assert_param(IS_RTC_SECONDS(RTC_Bcd2ToByte(RTC_TimeStruct->RTC_Seconds)));
 1042              		.loc 1 790 0 is_stmt 1
 1043 0134 3B68     		ldr	r3, [r7]
 1044 0136 9B78     		ldrb	r3, [r3, #2]	@ zero_extendqisi2
 1045 0138 1846     		mov	r0, r3
 1046 013a FFF7FEFF 		bl	RTC_Bcd2ToByte
 1047 013e 0346     		mov	r3, r0
 1048 0140 3B2B     		cmp	r3, #59
 1049 0142 04D9     		bls	.L71
 1050              		.loc 1 790 0 is_stmt 0 discriminator 1
 1051 0144 2E48     		ldr	r0, .L83
 1052 0146 40F21631 		movw	r1, #790
 1053 014a FFF7FEFF 		bl	assert_failed
 1054              	.L71:
 791:App/STM32F4-Discovery/Libraries/STM32F4xx_StdPeriph_Driver/src/stm32f4xx_rtc.c ****   }
 792:App/STM32F4-Discovery/Libraries/STM32F4xx_StdPeriph_Driver/src/stm32f4xx_rtc.c ****   
 793:App/STM32F4-Discovery/Libraries/STM32F4xx_StdPeriph_Driver/src/stm32f4xx_rtc.c ****   /* Check the input parameters format */
 794:App/STM32F4-Discovery/Libraries/STM32F4xx_StdPeriph_Driver/src/stm32f4xx_rtc.c ****   if (RTC_Format != RTC_Format_BIN)
 1055              		.loc 1 794 0 is_stmt 1
 1056 014e 7B68     		ldr	r3, [r7, #4]
 1057 0150 002B     		cmp	r3, #0
 1058 0152 0FD0     		beq	.L77
 795:App/STM32F4-Discovery/Libraries/STM32F4xx_StdPeriph_Driver/src/stm32f4xx_rtc.c ****   {
 796:App/STM32F4-Discovery/Libraries/STM32F4xx_StdPeriph_Driver/src/stm32f4xx_rtc.c ****     tmpreg = (((uint32_t)(RTC_TimeStruct->RTC_Hours) << 16) | \
 1059              		.loc 1 796 0
 1060 0154 3B68     		ldr	r3, [r7]
 1061 0156 1B78     		ldrb	r3, [r3]	@ zero_extendqisi2
 1062 0158 1A04     		lsls	r2, r3, #16
 797:App/STM32F4-Discovery/Libraries/STM32F4xx_StdPeriph_Driver/src/stm32f4xx_rtc.c ****              ((uint32_t)(RTC_TimeStruct->RTC_Minutes) << 8) | \
 1063              		.loc 1 797 0
 1064 015a 3B68     		ldr	r3, [r7]
 1065 015c 5B78     		ldrb	r3, [r3, #1]	@ zero_extendqisi2
 1066 015e 1B02     		lsls	r3, r3, #8
 796:App/STM32F4-Discovery/Libraries/STM32F4xx_StdPeriph_Driver/src/stm32f4xx_rtc.c ****     tmpreg = (((uint32_t)(RTC_TimeStruct->RTC_Hours) << 16) | \
 1067              		.loc 1 796 0
 1068 0160 1A43     		orrs	r2, r2, r3
 798:App/STM32F4-Discovery/Libraries/STM32F4xx_StdPeriph_Driver/src/stm32f4xx_rtc.c ****              ((uint32_t)RTC_TimeStruct->RTC_Seconds) | \
 1069              		.loc 1 798 0
 1070 0162 3B68     		ldr	r3, [r7]
 1071 0164 9B78     		ldrb	r3, [r3, #2]	@ zero_extendqisi2
 797:App/STM32F4-Discovery/Libraries/STM32F4xx_StdPeriph_Driver/src/stm32f4xx_rtc.c ****              ((uint32_t)(RTC_TimeStruct->RTC_Minutes) << 8) | \
 1072              		.loc 1 797 0
 1073 0166 1A43     		orrs	r2, r2, r3
 799:App/STM32F4-Discovery/Libraries/STM32F4xx_StdPeriph_Driver/src/stm32f4xx_rtc.c ****              ((uint32_t)(RTC_TimeStruct->RTC_H12) << 16)); 
 1074              		.loc 1 799 0
 1075 0168 3B68     		ldr	r3, [r7]
 1076 016a DB78     		ldrb	r3, [r3, #3]	@ zero_extendqisi2
 1077 016c 1B04     		lsls	r3, r3, #16
 796:App/STM32F4-Discovery/Libraries/STM32F4xx_StdPeriph_Driver/src/stm32f4xx_rtc.c ****     tmpreg = (((uint32_t)(RTC_TimeStruct->RTC_Hours) << 16) | \
 1078              		.loc 1 796 0
 1079 016e 1343     		orrs	r3, r3, r2
 1080 0170 FB60     		str	r3, [r7, #12]
 1081 0172 1BE0     		b	.L78
 1082              	.L77:
 800:App/STM32F4-Discovery/Libraries/STM32F4xx_StdPeriph_Driver/src/stm32f4xx_rtc.c ****   }  
 801:App/STM32F4-Discovery/Libraries/STM32F4xx_StdPeriph_Driver/src/stm32f4xx_rtc.c ****   else
 802:App/STM32F4-Discovery/Libraries/STM32F4xx_StdPeriph_Driver/src/stm32f4xx_rtc.c ****   {
 803:App/STM32F4-Discovery/Libraries/STM32F4xx_StdPeriph_Driver/src/stm32f4xx_rtc.c ****     tmpreg = (uint32_t)(((uint32_t)RTC_ByteToBcd2(RTC_TimeStruct->RTC_Hours) << 16) | \
 1083              		.loc 1 803 0
 1084 0174 3B68     		ldr	r3, [r7]
 1085 0176 1B78     		ldrb	r3, [r3]	@ zero_extendqisi2
 1086 0178 1846     		mov	r0, r3
 1087 017a FFF7FEFF 		bl	RTC_ByteToBcd2
 1088 017e 0346     		mov	r3, r0
 1089 0180 1C04     		lsls	r4, r3, #16
 804:App/STM32F4-Discovery/Libraries/STM32F4xx_StdPeriph_Driver/src/stm32f4xx_rtc.c ****                    ((uint32_t)RTC_ByteToBcd2(RTC_TimeStruct->RTC_Minutes) << 8) | \
 1090              		.loc 1 804 0
 1091 0182 3B68     		ldr	r3, [r7]
 1092 0184 5B78     		ldrb	r3, [r3, #1]	@ zero_extendqisi2
 1093 0186 1846     		mov	r0, r3
 1094 0188 FFF7FEFF 		bl	RTC_ByteToBcd2
 1095 018c 0346     		mov	r3, r0
 1096 018e 1B02     		lsls	r3, r3, #8
 803:App/STM32F4-Discovery/Libraries/STM32F4xx_StdPeriph_Driver/src/stm32f4xx_rtc.c ****     tmpreg = (uint32_t)(((uint32_t)RTC_ByteToBcd2(RTC_TimeStruct->RTC_Hours) << 16) | \
 1097              		.loc 1 803 0
 1098 0190 1C43     		orrs	r4, r4, r3
 805:App/STM32F4-Discovery/Libraries/STM32F4xx_StdPeriph_Driver/src/stm32f4xx_rtc.c ****                    ((uint32_t)RTC_ByteToBcd2(RTC_TimeStruct->RTC_Seconds)) | \
 1099              		.loc 1 805 0
 1100 0192 3B68     		ldr	r3, [r7]
 1101 0194 9B78     		ldrb	r3, [r3, #2]	@ zero_extendqisi2
 1102 0196 1846     		mov	r0, r3
 1103 0198 FFF7FEFF 		bl	RTC_ByteToBcd2
 1104 019c 0346     		mov	r3, r0
 804:App/STM32F4-Discovery/Libraries/STM32F4xx_StdPeriph_Driver/src/stm32f4xx_rtc.c ****                    ((uint32_t)RTC_ByteToBcd2(RTC_TimeStruct->RTC_Minutes) << 8) | \
 1105              		.loc 1 804 0
 1106 019e 44EA0302 		orr	r2, r4, r3
 806:App/STM32F4-Discovery/Libraries/STM32F4xx_StdPeriph_Driver/src/stm32f4xx_rtc.c ****                    (((uint32_t)RTC_TimeStruct->RTC_H12) << 16));
 1107              		.loc 1 806 0
 1108 01a2 3B68     		ldr	r3, [r7]
 1109 01a4 DB78     		ldrb	r3, [r3, #3]	@ zero_extendqisi2
 1110 01a6 1B04     		lsls	r3, r3, #16
 803:App/STM32F4-Discovery/Libraries/STM32F4xx_StdPeriph_Driver/src/stm32f4xx_rtc.c ****     tmpreg = (uint32_t)(((uint32_t)RTC_ByteToBcd2(RTC_TimeStruct->RTC_Hours) << 16) | \
 1111              		.loc 1 803 0
 1112 01a8 1343     		orrs	r3, r3, r2
 1113 01aa FB60     		str	r3, [r7, #12]
 1114              	.L78:
 807:App/STM32F4-Discovery/Libraries/STM32F4xx_StdPeriph_Driver/src/stm32f4xx_rtc.c ****   }  
 808:App/STM32F4-Discovery/Libraries/STM32F4xx_StdPeriph_Driver/src/stm32f4xx_rtc.c **** 
 809:App/STM32F4-Discovery/Libraries/STM32F4xx_StdPeriph_Driver/src/stm32f4xx_rtc.c ****   /* Disable the write protection for RTC registers */
 810:App/STM32F4-Discovery/Libraries/STM32F4xx_StdPeriph_Driver/src/stm32f4xx_rtc.c ****   RTC->WPR = 0xCA;
 1115              		.loc 1 810 0
 1116 01ac 154B     		ldr	r3, .L83+4
 1117 01ae CA22     		movs	r2, #202
 1118 01b0 5A62     		str	r2, [r3, #36]
 811:App/STM32F4-Discovery/Libraries/STM32F4xx_StdPeriph_Driver/src/stm32f4xx_rtc.c ****   RTC->WPR = 0x53;
 1119              		.loc 1 811 0
 1120 01b2 144B     		ldr	r3, .L83+4
 1121 01b4 5322     		movs	r2, #83
 1122 01b6 5A62     		str	r2, [r3, #36]
 812:App/STM32F4-Discovery/Libraries/STM32F4xx_StdPeriph_Driver/src/stm32f4xx_rtc.c **** 
 813:App/STM32F4-Discovery/Libraries/STM32F4xx_StdPeriph_Driver/src/stm32f4xx_rtc.c ****   /* Set Initialization mode */
 814:App/STM32F4-Discovery/Libraries/STM32F4xx_StdPeriph_Driver/src/stm32f4xx_rtc.c ****   if (RTC_EnterInitMode() == ERROR)
 1123              		.loc 1 814 0
 1124 01b8 FFF7FEFF 		bl	RTC_EnterInitMode
 1125 01bc 0346     		mov	r3, r0
 1126 01be 002B     		cmp	r3, #0
 1127 01c0 02D1     		bne	.L79
 815:App/STM32F4-Discovery/Libraries/STM32F4xx_StdPeriph_Driver/src/stm32f4xx_rtc.c ****   {
 816:App/STM32F4-Discovery/Libraries/STM32F4xx_StdPeriph_Driver/src/stm32f4xx_rtc.c ****     status = ERROR;
 1128              		.loc 1 816 0
 1129 01c2 0023     		movs	r3, #0
 1130 01c4 FB72     		strb	r3, [r7, #11]
 1131 01c6 12E0     		b	.L80
 1132              	.L79:
 817:App/STM32F4-Discovery/Libraries/STM32F4xx_StdPeriph_Driver/src/stm32f4xx_rtc.c ****   } 
 818:App/STM32F4-Discovery/Libraries/STM32F4xx_StdPeriph_Driver/src/stm32f4xx_rtc.c ****   else
 819:App/STM32F4-Discovery/Libraries/STM32F4xx_StdPeriph_Driver/src/stm32f4xx_rtc.c ****   {
 820:App/STM32F4-Discovery/Libraries/STM32F4xx_StdPeriph_Driver/src/stm32f4xx_rtc.c ****     /* Set the RTC_TR register */
 821:App/STM32F4-Discovery/Libraries/STM32F4xx_StdPeriph_Driver/src/stm32f4xx_rtc.c ****     RTC->TR = (uint32_t)(tmpreg & RTC_TR_RESERVED_MASK);
 1133              		.loc 1 821 0
 1134 01c8 0E4A     		ldr	r2, .L83+4
 1135 01ca FB68     		ldr	r3, [r7, #12]
 1136 01cc 03F07F33 		and	r3, r3, #2139062143
 1137 01d0 23F0FE43 		bic	r3, r3, #2130706432
 1138 01d4 1360     		str	r3, [r2]
 822:App/STM32F4-Discovery/Libraries/STM32F4xx_StdPeriph_Driver/src/stm32f4xx_rtc.c **** 
 823:App/STM32F4-Discovery/Libraries/STM32F4xx_StdPeriph_Driver/src/stm32f4xx_rtc.c ****     /* Exit Initialization mode */
 824:App/STM32F4-Discovery/Libraries/STM32F4xx_StdPeriph_Driver/src/stm32f4xx_rtc.c ****     RTC_ExitInitMode(); 
 1139              		.loc 1 824 0
 1140 01d6 FFF7FEFF 		bl	RTC_ExitInitMode
 825:App/STM32F4-Discovery/Libraries/STM32F4xx_StdPeriph_Driver/src/stm32f4xx_rtc.c **** 
 826:App/STM32F4-Discovery/Libraries/STM32F4xx_StdPeriph_Driver/src/stm32f4xx_rtc.c ****     if(RTC_WaitForSynchro() == ERROR)
 1141              		.loc 1 826 0
 1142 01da FFF7FEFF 		bl	RTC_WaitForSynchro
 1143 01de 0346     		mov	r3, r0
 1144 01e0 002B     		cmp	r3, #0
 1145 01e2 02D1     		bne	.L81
 827:App/STM32F4-Discovery/Libraries/STM32F4xx_StdPeriph_Driver/src/stm32f4xx_rtc.c ****     {
 828:App/STM32F4-Discovery/Libraries/STM32F4xx_StdPeriph_Driver/src/stm32f4xx_rtc.c ****       status = ERROR;
 1146              		.loc 1 828 0
 1147 01e4 0023     		movs	r3, #0
 1148 01e6 FB72     		strb	r3, [r7, #11]
 1149 01e8 01E0     		b	.L80
 1150              	.L81:
 829:App/STM32F4-Discovery/Libraries/STM32F4xx_StdPeriph_Driver/src/stm32f4xx_rtc.c ****     }
 830:App/STM32F4-Discovery/Libraries/STM32F4xx_StdPeriph_Driver/src/stm32f4xx_rtc.c ****     else
 831:App/STM32F4-Discovery/Libraries/STM32F4xx_StdPeriph_Driver/src/stm32f4xx_rtc.c ****     {
 832:App/STM32F4-Discovery/Libraries/STM32F4xx_StdPeriph_Driver/src/stm32f4xx_rtc.c ****       status = SUCCESS;
 1151              		.loc 1 832 0
 1152 01ea 0123     		movs	r3, #1
 1153 01ec FB72     		strb	r3, [r7, #11]
 1154              	.L80:
 833:App/STM32F4-Discovery/Libraries/STM32F4xx_StdPeriph_Driver/src/stm32f4xx_rtc.c ****     }
 834:App/STM32F4-Discovery/Libraries/STM32F4xx_StdPeriph_Driver/src/stm32f4xx_rtc.c ****   
 835:App/STM32F4-Discovery/Libraries/STM32F4xx_StdPeriph_Driver/src/stm32f4xx_rtc.c ****   }
 836:App/STM32F4-Discovery/Libraries/STM32F4xx_StdPeriph_Driver/src/stm32f4xx_rtc.c ****   /* Enable the write protection for RTC registers */
 837:App/STM32F4-Discovery/Libraries/STM32F4xx_StdPeriph_Driver/src/stm32f4xx_rtc.c ****   RTC->WPR = 0xFF; 
 1155              		.loc 1 837 0
 1156 01ee 054B     		ldr	r3, .L83+4
 1157 01f0 FF22     		movs	r2, #255
 1158 01f2 5A62     		str	r2, [r3, #36]
 838:App/STM32F4-Discovery/Libraries/STM32F4xx_StdPeriph_Driver/src/stm32f4xx_rtc.c ****     
 839:App/STM32F4-Discovery/Libraries/STM32F4xx_StdPeriph_Driver/src/stm32f4xx_rtc.c ****   return status;
 1159              		.loc 1 839 0
 1160 01f4 FB7A     		ldrb	r3, [r7, #11]	@ zero_extendqisi2
 840:App/STM32F4-Discovery/Libraries/STM32F4xx_StdPeriph_Driver/src/stm32f4xx_rtc.c **** }
 1161              		.loc 1 840 0
 1162 01f6 1846     		mov	r0, r3
 1163 01f8 1437     		adds	r7, r7, #20
 1164 01fa BD46     		mov	sp, r7
 1165              		@ sp needed
 1166 01fc 90BD     		pop	{r4, r7, pc}
 1167              	.L84:
 1168 01fe 00BF     		.align	2
 1169              	.L83:
 1170 0200 00000000 		.word	.LC0
 1171 0204 00280040 		.word	1073752064
 1172              		.cfi_endproc
 1173              	.LFE119:
 1175              		.section	.text.RTC_TimeStructInit,"ax",%progbits
 1176              		.align	2
 1177              		.global	RTC_TimeStructInit
 1178              		.thumb
 1179              		.thumb_func
 1181              	RTC_TimeStructInit:
 1182              	.LFB120:
 841:App/STM32F4-Discovery/Libraries/STM32F4xx_StdPeriph_Driver/src/stm32f4xx_rtc.c **** 
 842:App/STM32F4-Discovery/Libraries/STM32F4xx_StdPeriph_Driver/src/stm32f4xx_rtc.c **** /**
 843:App/STM32F4-Discovery/Libraries/STM32F4xx_StdPeriph_Driver/src/stm32f4xx_rtc.c ****   * @brief  Fills each RTC_TimeStruct member with its default value
 844:App/STM32F4-Discovery/Libraries/STM32F4xx_StdPeriph_Driver/src/stm32f4xx_rtc.c ****   *         (Time = 00h:00min:00sec).
 845:App/STM32F4-Discovery/Libraries/STM32F4xx_StdPeriph_Driver/src/stm32f4xx_rtc.c ****   * @param  RTC_TimeStruct: pointer to a RTC_TimeTypeDef structure which will be 
 846:App/STM32F4-Discovery/Libraries/STM32F4xx_StdPeriph_Driver/src/stm32f4xx_rtc.c ****   *         initialized.
 847:App/STM32F4-Discovery/Libraries/STM32F4xx_StdPeriph_Driver/src/stm32f4xx_rtc.c ****   * @retval None
 848:App/STM32F4-Discovery/Libraries/STM32F4xx_StdPeriph_Driver/src/stm32f4xx_rtc.c ****   */
 849:App/STM32F4-Discovery/Libraries/STM32F4xx_StdPeriph_Driver/src/stm32f4xx_rtc.c **** void RTC_TimeStructInit(RTC_TimeTypeDef* RTC_TimeStruct)
 850:App/STM32F4-Discovery/Libraries/STM32F4xx_StdPeriph_Driver/src/stm32f4xx_rtc.c **** {
 1183              		.loc 1 850 0
 1184              		.cfi_startproc
 1185              		@ args = 0, pretend = 0, frame = 8
 1186              		@ frame_needed = 1, uses_anonymous_args = 0
 1187              		@ link register save eliminated.
 1188 0000 80B4     		push	{r7}
 1189              	.LCFI29:
 1190              		.cfi_def_cfa_offset 4
 1191              		.cfi_offset 7, -4
 1192 0002 83B0     		sub	sp, sp, #12
 1193              	.LCFI30:
 1194              		.cfi_def_cfa_offset 16
 1195 0004 00AF     		add	r7, sp, #0
 1196              	.LCFI31:
 1197              		.cfi_def_cfa_register 7
 1198 0006 7860     		str	r0, [r7, #4]
 851:App/STM32F4-Discovery/Libraries/STM32F4xx_StdPeriph_Driver/src/stm32f4xx_rtc.c ****   /* Time = 00h:00min:00sec */
 852:App/STM32F4-Discovery/Libraries/STM32F4xx_StdPeriph_Driver/src/stm32f4xx_rtc.c ****   RTC_TimeStruct->RTC_H12 = RTC_H12_AM;
 1199              		.loc 1 852 0
 1200 0008 7B68     		ldr	r3, [r7, #4]
 1201 000a 0022     		movs	r2, #0
 1202 000c DA70     		strb	r2, [r3, #3]
 853:App/STM32F4-Discovery/Libraries/STM32F4xx_StdPeriph_Driver/src/stm32f4xx_rtc.c ****   RTC_TimeStruct->RTC_Hours = 0;
 1203              		.loc 1 853 0
 1204 000e 7B68     		ldr	r3, [r7, #4]
 1205 0010 0022     		movs	r2, #0
 1206 0012 1A70     		strb	r2, [r3]
 854:App/STM32F4-Discovery/Libraries/STM32F4xx_StdPeriph_Driver/src/stm32f4xx_rtc.c ****   RTC_TimeStruct->RTC_Minutes = 0;
 1207              		.loc 1 854 0
 1208 0014 7B68     		ldr	r3, [r7, #4]
 1209 0016 0022     		movs	r2, #0
 1210 0018 5A70     		strb	r2, [r3, #1]
 855:App/STM32F4-Discovery/Libraries/STM32F4xx_StdPeriph_Driver/src/stm32f4xx_rtc.c ****   RTC_TimeStruct->RTC_Seconds = 0; 
 1211              		.loc 1 855 0
 1212 001a 7B68     		ldr	r3, [r7, #4]
 1213 001c 0022     		movs	r2, #0
 1214 001e 9A70     		strb	r2, [r3, #2]
 856:App/STM32F4-Discovery/Libraries/STM32F4xx_StdPeriph_Driver/src/stm32f4xx_rtc.c **** }
 1215              		.loc 1 856 0
 1216 0020 0C37     		adds	r7, r7, #12
 1217 0022 BD46     		mov	sp, r7
 1218              		@ sp needed
 1219 0024 5DF8047B 		ldr	r7, [sp], #4
 1220 0028 7047     		bx	lr
 1221              		.cfi_endproc
 1222              	.LFE120:
 1224 002a 00BF     		.section	.text.RTC_GetTime,"ax",%progbits
 1225              		.align	2
 1226              		.global	RTC_GetTime
 1227              		.thumb
 1228              		.thumb_func
 1230              	RTC_GetTime:
 1231              	.LFB121:
 857:App/STM32F4-Discovery/Libraries/STM32F4xx_StdPeriph_Driver/src/stm32f4xx_rtc.c **** 
 858:App/STM32F4-Discovery/Libraries/STM32F4xx_StdPeriph_Driver/src/stm32f4xx_rtc.c **** /**
 859:App/STM32F4-Discovery/Libraries/STM32F4xx_StdPeriph_Driver/src/stm32f4xx_rtc.c ****   * @brief  Get the RTC current Time.
 860:App/STM32F4-Discovery/Libraries/STM32F4xx_StdPeriph_Driver/src/stm32f4xx_rtc.c ****   * @param  RTC_Format: specifies the format of the returned parameters.
 861:App/STM32F4-Discovery/Libraries/STM32F4xx_StdPeriph_Driver/src/stm32f4xx_rtc.c ****   *          This parameter can be  one of the following values:
 862:App/STM32F4-Discovery/Libraries/STM32F4xx_StdPeriph_Driver/src/stm32f4xx_rtc.c ****   *            @arg RTC_Format_BIN:  Binary data format 
 863:App/STM32F4-Discovery/Libraries/STM32F4xx_StdPeriph_Driver/src/stm32f4xx_rtc.c ****   *            @arg RTC_Format_BCD:  BCD data format
 864:App/STM32F4-Discovery/Libraries/STM32F4xx_StdPeriph_Driver/src/stm32f4xx_rtc.c ****   * @param  RTC_TimeStruct: pointer to a RTC_TimeTypeDef structure that will 
 865:App/STM32F4-Discovery/Libraries/STM32F4xx_StdPeriph_Driver/src/stm32f4xx_rtc.c ****   *                        contain the returned current time configuration.     
 866:App/STM32F4-Discovery/Libraries/STM32F4xx_StdPeriph_Driver/src/stm32f4xx_rtc.c ****   * @retval None
 867:App/STM32F4-Discovery/Libraries/STM32F4xx_StdPeriph_Driver/src/stm32f4xx_rtc.c ****   */
 868:App/STM32F4-Discovery/Libraries/STM32F4xx_StdPeriph_Driver/src/stm32f4xx_rtc.c **** void RTC_GetTime(uint32_t RTC_Format, RTC_TimeTypeDef* RTC_TimeStruct)
 869:App/STM32F4-Discovery/Libraries/STM32F4xx_StdPeriph_Driver/src/stm32f4xx_rtc.c **** {
 1232              		.loc 1 869 0
 1233              		.cfi_startproc
 1234              		@ args = 0, pretend = 0, frame = 16
 1235              		@ frame_needed = 1, uses_anonymous_args = 0
 1236 0000 80B5     		push	{r7, lr}
 1237              	.LCFI32:
 1238              		.cfi_def_cfa_offset 8
 1239              		.cfi_offset 7, -8
 1240              		.cfi_offset 14, -4
 1241 0002 84B0     		sub	sp, sp, #16
 1242              	.LCFI33:
 1243              		.cfi_def_cfa_offset 24
 1244 0004 00AF     		add	r7, sp, #0
 1245              	.LCFI34:
 1246              		.cfi_def_cfa_register 7
 1247 0006 7860     		str	r0, [r7, #4]
 1248 0008 3960     		str	r1, [r7]
 870:App/STM32F4-Discovery/Libraries/STM32F4xx_StdPeriph_Driver/src/stm32f4xx_rtc.c ****   uint32_t tmpreg = 0;
 1249              		.loc 1 870 0
 1250 000a 0023     		movs	r3, #0
 1251 000c FB60     		str	r3, [r7, #12]
 871:App/STM32F4-Discovery/Libraries/STM32F4xx_StdPeriph_Driver/src/stm32f4xx_rtc.c **** 
 872:App/STM32F4-Discovery/Libraries/STM32F4xx_StdPeriph_Driver/src/stm32f4xx_rtc.c ****   /* Check the parameters */
 873:App/STM32F4-Discovery/Libraries/STM32F4xx_StdPeriph_Driver/src/stm32f4xx_rtc.c ****   assert_param(IS_RTC_FORMAT(RTC_Format));
 1252              		.loc 1 873 0
 1253 000e 7B68     		ldr	r3, [r7, #4]
 1254 0010 002B     		cmp	r3, #0
 1255 0012 07D0     		beq	.L87
 1256              		.loc 1 873 0 is_stmt 0 discriminator 1
 1257 0014 7B68     		ldr	r3, [r7, #4]
 1258 0016 012B     		cmp	r3, #1
 1259 0018 04D0     		beq	.L87
 1260 001a 2448     		ldr	r0, .L89
 1261 001c 40F26931 		movw	r1, #873
 1262 0020 FFF7FEFF 		bl	assert_failed
 1263              	.L87:
 874:App/STM32F4-Discovery/Libraries/STM32F4xx_StdPeriph_Driver/src/stm32f4xx_rtc.c **** 
 875:App/STM32F4-Discovery/Libraries/STM32F4xx_StdPeriph_Driver/src/stm32f4xx_rtc.c ****   /* Get the RTC_TR register */
 876:App/STM32F4-Discovery/Libraries/STM32F4xx_StdPeriph_Driver/src/stm32f4xx_rtc.c ****   tmpreg = (uint32_t)(RTC->TR & RTC_TR_RESERVED_MASK); 
 1264              		.loc 1 876 0 is_stmt 1
 1265 0024 224B     		ldr	r3, .L89+4
 1266 0026 1B68     		ldr	r3, [r3]
 1267 0028 03F07F33 		and	r3, r3, #2139062143
 1268 002c 23F0FE43 		bic	r3, r3, #2130706432
 1269 0030 FB60     		str	r3, [r7, #12]
 877:App/STM32F4-Discovery/Libraries/STM32F4xx_StdPeriph_Driver/src/stm32f4xx_rtc.c ****   
 878:App/STM32F4-Discovery/Libraries/STM32F4xx_StdPeriph_Driver/src/stm32f4xx_rtc.c ****   /* Fill the structure fields with the read parameters */
 879:App/STM32F4-Discovery/Libraries/STM32F4xx_StdPeriph_Driver/src/stm32f4xx_rtc.c ****   RTC_TimeStruct->RTC_Hours = (uint8_t)((tmpreg & (RTC_TR_HT | RTC_TR_HU)) >> 16);
 1270              		.loc 1 879 0
 1271 0032 FB68     		ldr	r3, [r7, #12]
 1272 0034 03F47C13 		and	r3, r3, #4128768
 1273 0038 1B0C     		lsrs	r3, r3, #16
 1274 003a DAB2     		uxtb	r2, r3
 1275 003c 3B68     		ldr	r3, [r7]
 1276 003e 1A70     		strb	r2, [r3]
 880:App/STM32F4-Discovery/Libraries/STM32F4xx_StdPeriph_Driver/src/stm32f4xx_rtc.c ****   RTC_TimeStruct->RTC_Minutes = (uint8_t)((tmpreg & (RTC_TR_MNT | RTC_TR_MNU)) >>8);
 1277              		.loc 1 880 0
 1278 0040 FB68     		ldr	r3, [r7, #12]
 1279 0042 03F4FE43 		and	r3, r3, #32512
 1280 0046 1B0A     		lsrs	r3, r3, #8
 1281 0048 DAB2     		uxtb	r2, r3
 1282 004a 3B68     		ldr	r3, [r7]
 1283 004c 5A70     		strb	r2, [r3, #1]
 881:App/STM32F4-Discovery/Libraries/STM32F4xx_StdPeriph_Driver/src/stm32f4xx_rtc.c ****   RTC_TimeStruct->RTC_Seconds = (uint8_t)(tmpreg & (RTC_TR_ST | RTC_TR_SU));
 1284              		.loc 1 881 0
 1285 004e FB68     		ldr	r3, [r7, #12]
 1286 0050 DBB2     		uxtb	r3, r3
 1287 0052 03F07F03 		and	r3, r3, #127
 1288 0056 DAB2     		uxtb	r2, r3
 1289 0058 3B68     		ldr	r3, [r7]
 1290 005a 9A70     		strb	r2, [r3, #2]
 882:App/STM32F4-Discovery/Libraries/STM32F4xx_StdPeriph_Driver/src/stm32f4xx_rtc.c ****   RTC_TimeStruct->RTC_H12 = (uint8_t)((tmpreg & (RTC_TR_PM)) >> 16);  
 1291              		.loc 1 882 0
 1292 005c FB68     		ldr	r3, [r7, #12]
 1293 005e 03F48003 		and	r3, r3, #4194304
 1294 0062 1B0C     		lsrs	r3, r3, #16
 1295 0064 DAB2     		uxtb	r2, r3
 1296 0066 3B68     		ldr	r3, [r7]
 1297 0068 DA70     		strb	r2, [r3, #3]
 883:App/STM32F4-Discovery/Libraries/STM32F4xx_StdPeriph_Driver/src/stm32f4xx_rtc.c **** 
 884:App/STM32F4-Discovery/Libraries/STM32F4xx_StdPeriph_Driver/src/stm32f4xx_rtc.c ****   /* Check the input parameters format */
 885:App/STM32F4-Discovery/Libraries/STM32F4xx_StdPeriph_Driver/src/stm32f4xx_rtc.c ****   if (RTC_Format == RTC_Format_BIN)
 1298              		.loc 1 885 0
 1299 006a 7B68     		ldr	r3, [r7, #4]
 1300 006c 002B     		cmp	r3, #0
 1301 006e 1AD1     		bne	.L86
 886:App/STM32F4-Discovery/Libraries/STM32F4xx_StdPeriph_Driver/src/stm32f4xx_rtc.c ****   {
 887:App/STM32F4-Discovery/Libraries/STM32F4xx_StdPeriph_Driver/src/stm32f4xx_rtc.c ****     /* Convert the structure parameters to Binary format */
 888:App/STM32F4-Discovery/Libraries/STM32F4xx_StdPeriph_Driver/src/stm32f4xx_rtc.c ****     RTC_TimeStruct->RTC_Hours = (uint8_t)RTC_Bcd2ToByte(RTC_TimeStruct->RTC_Hours);
 1302              		.loc 1 888 0
 1303 0070 3B68     		ldr	r3, [r7]
 1304 0072 1B78     		ldrb	r3, [r3]	@ zero_extendqisi2
 1305 0074 1846     		mov	r0, r3
 1306 0076 FFF7FEFF 		bl	RTC_Bcd2ToByte
 1307 007a 0346     		mov	r3, r0
 1308 007c 1A46     		mov	r2, r3
 1309 007e 3B68     		ldr	r3, [r7]
 1310 0080 1A70     		strb	r2, [r3]
 889:App/STM32F4-Discovery/Libraries/STM32F4xx_StdPeriph_Driver/src/stm32f4xx_rtc.c ****     RTC_TimeStruct->RTC_Minutes = (uint8_t)RTC_Bcd2ToByte(RTC_TimeStruct->RTC_Minutes);
 1311              		.loc 1 889 0
 1312 0082 3B68     		ldr	r3, [r7]
 1313 0084 5B78     		ldrb	r3, [r3, #1]	@ zero_extendqisi2
 1314 0086 1846     		mov	r0, r3
 1315 0088 FFF7FEFF 		bl	RTC_Bcd2ToByte
 1316 008c 0346     		mov	r3, r0
 1317 008e 1A46     		mov	r2, r3
 1318 0090 3B68     		ldr	r3, [r7]
 1319 0092 5A70     		strb	r2, [r3, #1]
 890:App/STM32F4-Discovery/Libraries/STM32F4xx_StdPeriph_Driver/src/stm32f4xx_rtc.c ****     RTC_TimeStruct->RTC_Seconds = (uint8_t)RTC_Bcd2ToByte(RTC_TimeStruct->RTC_Seconds);   
 1320              		.loc 1 890 0
 1321 0094 3B68     		ldr	r3, [r7]
 1322 0096 9B78     		ldrb	r3, [r3, #2]	@ zero_extendqisi2
 1323 0098 1846     		mov	r0, r3
 1324 009a FFF7FEFF 		bl	RTC_Bcd2ToByte
 1325 009e 0346     		mov	r3, r0
 1326 00a0 1A46     		mov	r2, r3
 1327 00a2 3B68     		ldr	r3, [r7]
 1328 00a4 9A70     		strb	r2, [r3, #2]
 1329              	.L86:
 891:App/STM32F4-Discovery/Libraries/STM32F4xx_StdPeriph_Driver/src/stm32f4xx_rtc.c ****   }
 892:App/STM32F4-Discovery/Libraries/STM32F4xx_StdPeriph_Driver/src/stm32f4xx_rtc.c **** }
 1330              		.loc 1 892 0
 1331 00a6 1037     		adds	r7, r7, #16
 1332 00a8 BD46     		mov	sp, r7
 1333              		@ sp needed
 1334 00aa 80BD     		pop	{r7, pc}
 1335              	.L90:
 1336              		.align	2
 1337              	.L89:
 1338 00ac 00000000 		.word	.LC0
 1339 00b0 00280040 		.word	1073752064
 1340              		.cfi_endproc
 1341              	.LFE121:
 1343              		.section	.text.RTC_GetSubSecond,"ax",%progbits
 1344              		.align	2
 1345              		.global	RTC_GetSubSecond
 1346              		.thumb
 1347              		.thumb_func
 1349              	RTC_GetSubSecond:
 1350              	.LFB122:
 893:App/STM32F4-Discovery/Libraries/STM32F4xx_StdPeriph_Driver/src/stm32f4xx_rtc.c **** 
 894:App/STM32F4-Discovery/Libraries/STM32F4xx_StdPeriph_Driver/src/stm32f4xx_rtc.c **** /**
 895:App/STM32F4-Discovery/Libraries/STM32F4xx_StdPeriph_Driver/src/stm32f4xx_rtc.c ****   * @brief  Gets the RTC current Calendar Subseconds value.
 896:App/STM32F4-Discovery/Libraries/STM32F4xx_StdPeriph_Driver/src/stm32f4xx_rtc.c ****   * @note   This function freeze the Time and Date registers after reading the 
 897:App/STM32F4-Discovery/Libraries/STM32F4xx_StdPeriph_Driver/src/stm32f4xx_rtc.c ****   *         SSR register.
 898:App/STM32F4-Discovery/Libraries/STM32F4xx_StdPeriph_Driver/src/stm32f4xx_rtc.c ****   * @param  None
 899:App/STM32F4-Discovery/Libraries/STM32F4xx_StdPeriph_Driver/src/stm32f4xx_rtc.c ****   * @retval RTC current Calendar Subseconds value.
 900:App/STM32F4-Discovery/Libraries/STM32F4xx_StdPeriph_Driver/src/stm32f4xx_rtc.c ****   */
 901:App/STM32F4-Discovery/Libraries/STM32F4xx_StdPeriph_Driver/src/stm32f4xx_rtc.c **** uint32_t RTC_GetSubSecond(void)
 902:App/STM32F4-Discovery/Libraries/STM32F4xx_StdPeriph_Driver/src/stm32f4xx_rtc.c **** {
 1351              		.loc 1 902 0
 1352              		.cfi_startproc
 1353              		@ args = 0, pretend = 0, frame = 8
 1354              		@ frame_needed = 1, uses_anonymous_args = 0
 1355              		@ link register save eliminated.
 1356 0000 80B4     		push	{r7}
 1357              	.LCFI35:
 1358              		.cfi_def_cfa_offset 4
 1359              		.cfi_offset 7, -4
 1360 0002 83B0     		sub	sp, sp, #12
 1361              	.LCFI36:
 1362              		.cfi_def_cfa_offset 16
 1363 0004 00AF     		add	r7, sp, #0
 1364              	.LCFI37:
 1365              		.cfi_def_cfa_register 7
 903:App/STM32F4-Discovery/Libraries/STM32F4xx_StdPeriph_Driver/src/stm32f4xx_rtc.c ****   uint32_t tmpreg = 0;
 1366              		.loc 1 903 0
 1367 0006 0023     		movs	r3, #0
 1368 0008 7B60     		str	r3, [r7, #4]
 904:App/STM32F4-Discovery/Libraries/STM32F4xx_StdPeriph_Driver/src/stm32f4xx_rtc.c ****   
 905:App/STM32F4-Discovery/Libraries/STM32F4xx_StdPeriph_Driver/src/stm32f4xx_rtc.c ****   /* Get subseconds values from the correspondent registers*/
 906:App/STM32F4-Discovery/Libraries/STM32F4xx_StdPeriph_Driver/src/stm32f4xx_rtc.c ****   tmpreg = (uint32_t)(RTC->SSR);
 1369              		.loc 1 906 0
 1370 000a 064B     		ldr	r3, .L93
 1371 000c 9B6A     		ldr	r3, [r3, #40]
 1372 000e 7B60     		str	r3, [r7, #4]
 907:App/STM32F4-Discovery/Libraries/STM32F4xx_StdPeriph_Driver/src/stm32f4xx_rtc.c ****   
 908:App/STM32F4-Discovery/Libraries/STM32F4xx_StdPeriph_Driver/src/stm32f4xx_rtc.c ****   /* Read DR register to unfroze calendar registers */
 909:App/STM32F4-Discovery/Libraries/STM32F4xx_StdPeriph_Driver/src/stm32f4xx_rtc.c ****   (void) (RTC->DR);
 1373              		.loc 1 909 0
 1374 0010 044B     		ldr	r3, .L93
 1375 0012 5B68     		ldr	r3, [r3, #4]
 910:App/STM32F4-Discovery/Libraries/STM32F4xx_StdPeriph_Driver/src/stm32f4xx_rtc.c ****   
 911:App/STM32F4-Discovery/Libraries/STM32F4xx_StdPeriph_Driver/src/stm32f4xx_rtc.c ****   return (tmpreg);
 1376              		.loc 1 911 0
 1377 0014 7B68     		ldr	r3, [r7, #4]
 912:App/STM32F4-Discovery/Libraries/STM32F4xx_StdPeriph_Driver/src/stm32f4xx_rtc.c **** }
 1378              		.loc 1 912 0
 1379 0016 1846     		mov	r0, r3
 1380 0018 0C37     		adds	r7, r7, #12
 1381 001a BD46     		mov	sp, r7
 1382              		@ sp needed
 1383 001c 5DF8047B 		ldr	r7, [sp], #4
 1384 0020 7047     		bx	lr
 1385              	.L94:
 1386 0022 00BF     		.align	2
 1387              	.L93:
 1388 0024 00280040 		.word	1073752064
 1389              		.cfi_endproc
 1390              	.LFE122:
 1392              		.section	.text.RTC_SetDate,"ax",%progbits
 1393              		.align	2
 1394              		.global	RTC_SetDate
 1395              		.thumb
 1396              		.thumb_func
 1398              	RTC_SetDate:
 1399              	.LFB123:
 913:App/STM32F4-Discovery/Libraries/STM32F4xx_StdPeriph_Driver/src/stm32f4xx_rtc.c **** 
 914:App/STM32F4-Discovery/Libraries/STM32F4xx_StdPeriph_Driver/src/stm32f4xx_rtc.c **** /**
 915:App/STM32F4-Discovery/Libraries/STM32F4xx_StdPeriph_Driver/src/stm32f4xx_rtc.c ****   * @brief  Set the RTC current date.
 916:App/STM32F4-Discovery/Libraries/STM32F4xx_StdPeriph_Driver/src/stm32f4xx_rtc.c ****   * @param  RTC_Format: specifies the format of the entered parameters.
 917:App/STM32F4-Discovery/Libraries/STM32F4xx_StdPeriph_Driver/src/stm32f4xx_rtc.c ****   *          This parameter can be  one of the following values:
 918:App/STM32F4-Discovery/Libraries/STM32F4xx_StdPeriph_Driver/src/stm32f4xx_rtc.c ****   *            @arg RTC_Format_BIN:  Binary data format 
 919:App/STM32F4-Discovery/Libraries/STM32F4xx_StdPeriph_Driver/src/stm32f4xx_rtc.c ****   *            @arg RTC_Format_BCD:  BCD data format
 920:App/STM32F4-Discovery/Libraries/STM32F4xx_StdPeriph_Driver/src/stm32f4xx_rtc.c ****   * @param  RTC_DateStruct: pointer to a RTC_DateTypeDef structure that contains 
 921:App/STM32F4-Discovery/Libraries/STM32F4xx_StdPeriph_Driver/src/stm32f4xx_rtc.c ****   *                         the date configuration information for the RTC.
 922:App/STM32F4-Discovery/Libraries/STM32F4xx_StdPeriph_Driver/src/stm32f4xx_rtc.c ****   * @retval An ErrorStatus enumeration value:
 923:App/STM32F4-Discovery/Libraries/STM32F4xx_StdPeriph_Driver/src/stm32f4xx_rtc.c ****   *          - SUCCESS: RTC Date register is configured
 924:App/STM32F4-Discovery/Libraries/STM32F4xx_StdPeriph_Driver/src/stm32f4xx_rtc.c ****   *          - ERROR: RTC Date register is not configured
 925:App/STM32F4-Discovery/Libraries/STM32F4xx_StdPeriph_Driver/src/stm32f4xx_rtc.c ****   */
 926:App/STM32F4-Discovery/Libraries/STM32F4xx_StdPeriph_Driver/src/stm32f4xx_rtc.c **** ErrorStatus RTC_SetDate(uint32_t RTC_Format, RTC_DateTypeDef* RTC_DateStruct)
 927:App/STM32F4-Discovery/Libraries/STM32F4xx_StdPeriph_Driver/src/stm32f4xx_rtc.c **** {
 1400              		.loc 1 927 0
 1401              		.cfi_startproc
 1402              		@ args = 0, pretend = 0, frame = 16
 1403              		@ frame_needed = 1, uses_anonymous_args = 0
 1404 0000 90B5     		push	{r4, r7, lr}
 1405              	.LCFI38:
 1406              		.cfi_def_cfa_offset 12
 1407              		.cfi_offset 4, -12
 1408              		.cfi_offset 7, -8
 1409              		.cfi_offset 14, -4
 1410 0002 85B0     		sub	sp, sp, #20
 1411              	.LCFI39:
 1412              		.cfi_def_cfa_offset 32
 1413 0004 00AF     		add	r7, sp, #0
 1414              	.LCFI40:
 1415              		.cfi_def_cfa_register 7
 1416 0006 7860     		str	r0, [r7, #4]
 1417 0008 3960     		str	r1, [r7]
 928:App/STM32F4-Discovery/Libraries/STM32F4xx_StdPeriph_Driver/src/stm32f4xx_rtc.c ****   uint32_t tmpreg = 0;
 1418              		.loc 1 928 0
 1419 000a 0023     		movs	r3, #0
 1420 000c FB60     		str	r3, [r7, #12]
 929:App/STM32F4-Discovery/Libraries/STM32F4xx_StdPeriph_Driver/src/stm32f4xx_rtc.c ****   ErrorStatus status = ERROR;
 1421              		.loc 1 929 0
 1422 000e 0023     		movs	r3, #0
 1423 0010 FB72     		strb	r3, [r7, #11]
 930:App/STM32F4-Discovery/Libraries/STM32F4xx_StdPeriph_Driver/src/stm32f4xx_rtc.c ****   
 931:App/STM32F4-Discovery/Libraries/STM32F4xx_StdPeriph_Driver/src/stm32f4xx_rtc.c ****   /* Check the parameters */
 932:App/STM32F4-Discovery/Libraries/STM32F4xx_StdPeriph_Driver/src/stm32f4xx_rtc.c ****   assert_param(IS_RTC_FORMAT(RTC_Format));
 1424              		.loc 1 932 0
 1425 0012 7B68     		ldr	r3, [r7, #4]
 1426 0014 002B     		cmp	r3, #0
 1427 0016 07D0     		beq	.L96
 1428              		.loc 1 932 0 is_stmt 0 discriminator 1
 1429 0018 7B68     		ldr	r3, [r7, #4]
 1430 001a 012B     		cmp	r3, #1
 1431 001c 04D0     		beq	.L96
 1432 001e 7448     		ldr	r0, .L116
 1433 0020 4FF46971 		mov	r1, #932
 1434 0024 FFF7FEFF 		bl	assert_failed
 1435              	.L96:
 933:App/STM32F4-Discovery/Libraries/STM32F4xx_StdPeriph_Driver/src/stm32f4xx_rtc.c **** 
 934:App/STM32F4-Discovery/Libraries/STM32F4xx_StdPeriph_Driver/src/stm32f4xx_rtc.c ****   if ((RTC_Format == RTC_Format_BIN) && ((RTC_DateStruct->RTC_Month & 0x10) == 0x10))
 1436              		.loc 1 934 0 is_stmt 1
 1437 0028 7B68     		ldr	r3, [r7, #4]
 1438 002a 002B     		cmp	r3, #0
 1439 002c 0ED1     		bne	.L97
 1440              		.loc 1 934 0 is_stmt 0 discriminator 1
 1441 002e 3B68     		ldr	r3, [r7]
 1442 0030 5B78     		ldrb	r3, [r3, #1]	@ zero_extendqisi2
 1443 0032 03F01003 		and	r3, r3, #16
 1444 0036 002B     		cmp	r3, #0
 1445 0038 08D0     		beq	.L97
 935:App/STM32F4-Discovery/Libraries/STM32F4xx_StdPeriph_Driver/src/stm32f4xx_rtc.c ****   {
 936:App/STM32F4-Discovery/Libraries/STM32F4xx_StdPeriph_Driver/src/stm32f4xx_rtc.c ****     RTC_DateStruct->RTC_Month = (RTC_DateStruct->RTC_Month & (uint32_t)~(0x10)) + 0x0A;
 1446              		.loc 1 936 0 is_stmt 1
 1447 003a 3B68     		ldr	r3, [r7]
 1448 003c 5B78     		ldrb	r3, [r3, #1]	@ zero_extendqisi2
 1449 003e 23F01003 		bic	r3, r3, #16
 1450 0042 DBB2     		uxtb	r3, r3
 1451 0044 0A33     		adds	r3, r3, #10
 1452 0046 DAB2     		uxtb	r2, r3
 1453 0048 3B68     		ldr	r3, [r7]
 1454 004a 5A70     		strb	r2, [r3, #1]
 1455              	.L97:
 937:App/STM32F4-Discovery/Libraries/STM32F4xx_StdPeriph_Driver/src/stm32f4xx_rtc.c ****   }  
 938:App/STM32F4-Discovery/Libraries/STM32F4xx_StdPeriph_Driver/src/stm32f4xx_rtc.c ****   if (RTC_Format == RTC_Format_BIN)
 1456              		.loc 1 938 0
 1457 004c 7B68     		ldr	r3, [r7, #4]
 1458 004e 002B     		cmp	r3, #0
 1459 0050 23D1     		bne	.L98
 939:App/STM32F4-Discovery/Libraries/STM32F4xx_StdPeriph_Driver/src/stm32f4xx_rtc.c ****   {
 940:App/STM32F4-Discovery/Libraries/STM32F4xx_StdPeriph_Driver/src/stm32f4xx_rtc.c ****     assert_param(IS_RTC_YEAR(RTC_DateStruct->RTC_Year));
 1460              		.loc 1 940 0
 1461 0052 3B68     		ldr	r3, [r7]
 1462 0054 DB78     		ldrb	r3, [r3, #3]	@ zero_extendqisi2
 1463 0056 632B     		cmp	r3, #99
 1464 0058 04D9     		bls	.L99
 1465              		.loc 1 940 0 is_stmt 0 discriminator 1
 1466 005a 6548     		ldr	r0, .L116
 1467 005c 4FF46B71 		mov	r1, #940
 1468 0060 FFF7FEFF 		bl	assert_failed
 1469              	.L99:
 941:App/STM32F4-Discovery/Libraries/STM32F4xx_StdPeriph_Driver/src/stm32f4xx_rtc.c ****     assert_param(IS_RTC_MONTH(RTC_DateStruct->RTC_Month));
 1470              		.loc 1 941 0 is_stmt 1
 1471 0064 3B68     		ldr	r3, [r7]
 1472 0066 5B78     		ldrb	r3, [r3, #1]	@ zero_extendqisi2
 1473 0068 002B     		cmp	r3, #0
 1474 006a 03D0     		beq	.L100
 1475              		.loc 1 941 0 is_stmt 0 discriminator 2
 1476 006c 3B68     		ldr	r3, [r7]
 1477 006e 5B78     		ldrb	r3, [r3, #1]	@ zero_extendqisi2
 1478 0070 0C2B     		cmp	r3, #12
 1479 0072 04D9     		bls	.L101
 1480              	.L100:
 1481              		.loc 1 941 0 discriminator 1
 1482 0074 5E48     		ldr	r0, .L116
 1483 0076 40F2AD31 		movw	r1, #941
 1484 007a FFF7FEFF 		bl	assert_failed
 1485              	.L101:
 942:App/STM32F4-Discovery/Libraries/STM32F4xx_StdPeriph_Driver/src/stm32f4xx_rtc.c ****     assert_param(IS_RTC_DATE(RTC_DateStruct->RTC_Date));
 1486              		.loc 1 942 0 is_stmt 1
 1487 007e 3B68     		ldr	r3, [r7]
 1488 0080 9B78     		ldrb	r3, [r3, #2]	@ zero_extendqisi2
 1489 0082 002B     		cmp	r3, #0
 1490 0084 03D0     		beq	.L102
 1491              		.loc 1 942 0 is_stmt 0 discriminator 2
 1492 0086 3B68     		ldr	r3, [r7]
 1493 0088 9B78     		ldrb	r3, [r3, #2]	@ zero_extendqisi2
 1494 008a 1F2B     		cmp	r3, #31
 1495 008c 36D9     		bls	.L104
 1496              	.L102:
 1497              		.loc 1 942 0 discriminator 1
 1498 008e 5848     		ldr	r0, .L116
 1499 0090 40F2AE31 		movw	r1, #942
 1500 0094 FFF7FEFF 		bl	assert_failed
 1501 0098 30E0     		b	.L104
 1502              	.L98:
 943:App/STM32F4-Discovery/Libraries/STM32F4xx_StdPeriph_Driver/src/stm32f4xx_rtc.c ****   }
 944:App/STM32F4-Discovery/Libraries/STM32F4xx_StdPeriph_Driver/src/stm32f4xx_rtc.c ****   else
 945:App/STM32F4-Discovery/Libraries/STM32F4xx_StdPeriph_Driver/src/stm32f4xx_rtc.c ****   {
 946:App/STM32F4-Discovery/Libraries/STM32F4xx_StdPeriph_Driver/src/stm32f4xx_rtc.c ****     assert_param(IS_RTC_YEAR(RTC_Bcd2ToByte(RTC_DateStruct->RTC_Year)));
 1503              		.loc 1 946 0 is_stmt 1
 1504 009a 3B68     		ldr	r3, [r7]
 1505 009c DB78     		ldrb	r3, [r3, #3]	@ zero_extendqisi2
 1506 009e 1846     		mov	r0, r3
 1507 00a0 FFF7FEFF 		bl	RTC_Bcd2ToByte
 1508 00a4 0346     		mov	r3, r0
 1509 00a6 632B     		cmp	r3, #99
 1510 00a8 04D9     		bls	.L105
 1511              		.loc 1 946 0 is_stmt 0 discriminator 1
 1512 00aa 5148     		ldr	r0, .L116
 1513 00ac 40F2B231 		movw	r1, #946
 1514 00b0 FFF7FEFF 		bl	assert_failed
 1515              	.L105:
 947:App/STM32F4-Discovery/Libraries/STM32F4xx_StdPeriph_Driver/src/stm32f4xx_rtc.c ****     tmpreg = RTC_Bcd2ToByte(RTC_DateStruct->RTC_Month);
 1516              		.loc 1 947 0 is_stmt 1
 1517 00b4 3B68     		ldr	r3, [r7]
 1518 00b6 5B78     		ldrb	r3, [r3, #1]	@ zero_extendqisi2
 1519 00b8 1846     		mov	r0, r3
 1520 00ba FFF7FEFF 		bl	RTC_Bcd2ToByte
 1521 00be 0346     		mov	r3, r0
 1522 00c0 FB60     		str	r3, [r7, #12]
 948:App/STM32F4-Discovery/Libraries/STM32F4xx_StdPeriph_Driver/src/stm32f4xx_rtc.c ****     assert_param(IS_RTC_MONTH(tmpreg));
 1523              		.loc 1 948 0
 1524 00c2 FB68     		ldr	r3, [r7, #12]
 1525 00c4 002B     		cmp	r3, #0
 1526 00c6 02D0     		beq	.L106
 1527              		.loc 1 948 0 is_stmt 0 discriminator 2
 1528 00c8 FB68     		ldr	r3, [r7, #12]
 1529 00ca 0C2B     		cmp	r3, #12
 1530 00cc 04D9     		bls	.L107
 1531              	.L106:
 1532              		.loc 1 948 0 discriminator 1
 1533 00ce 4848     		ldr	r0, .L116
 1534 00d0 4FF46D71 		mov	r1, #948
 1535 00d4 FFF7FEFF 		bl	assert_failed
 1536              	.L107:
 949:App/STM32F4-Discovery/Libraries/STM32F4xx_StdPeriph_Driver/src/stm32f4xx_rtc.c ****     tmpreg = RTC_Bcd2ToByte(RTC_DateStruct->RTC_Date);
 1537              		.loc 1 949 0 is_stmt 1
 1538 00d8 3B68     		ldr	r3, [r7]
 1539 00da 9B78     		ldrb	r3, [r3, #2]	@ zero_extendqisi2
 1540 00dc 1846     		mov	r0, r3
 1541 00de FFF7FEFF 		bl	RTC_Bcd2ToByte
 1542 00e2 0346     		mov	r3, r0
 1543 00e4 FB60     		str	r3, [r7, #12]
 950:App/STM32F4-Discovery/Libraries/STM32F4xx_StdPeriph_Driver/src/stm32f4xx_rtc.c ****     assert_param(IS_RTC_DATE(tmpreg));
 1544              		.loc 1 950 0
 1545 00e6 FB68     		ldr	r3, [r7, #12]
 1546 00e8 002B     		cmp	r3, #0
 1547 00ea 02D0     		beq	.L108
 1548              		.loc 1 950 0 is_stmt 0 discriminator 2
 1549 00ec FB68     		ldr	r3, [r7, #12]
 1550 00ee 1F2B     		cmp	r3, #31
 1551 00f0 04D9     		bls	.L104
 1552              	.L108:
 1553              		.loc 1 950 0 discriminator 1
 1554 00f2 3F48     		ldr	r0, .L116
 1555 00f4 40F2B631 		movw	r1, #950
 1556 00f8 FFF7FEFF 		bl	assert_failed
 1557              	.L104:
 951:App/STM32F4-Discovery/Libraries/STM32F4xx_StdPeriph_Driver/src/stm32f4xx_rtc.c ****   }
 952:App/STM32F4-Discovery/Libraries/STM32F4xx_StdPeriph_Driver/src/stm32f4xx_rtc.c ****   assert_param(IS_RTC_WEEKDAY(RTC_DateStruct->RTC_WeekDay));
 1558              		.loc 1 952 0 is_stmt 1
 1559 00fc 3B68     		ldr	r3, [r7]
 1560 00fe 1B78     		ldrb	r3, [r3]	@ zero_extendqisi2
 1561 0100 012B     		cmp	r3, #1
 1562 0102 1CD0     		beq	.L109
 1563              		.loc 1 952 0 is_stmt 0 discriminator 1
 1564 0104 3B68     		ldr	r3, [r7]
 1565 0106 1B78     		ldrb	r3, [r3]	@ zero_extendqisi2
 1566 0108 022B     		cmp	r3, #2
 1567 010a 18D0     		beq	.L109
 1568 010c 3B68     		ldr	r3, [r7]
 1569 010e 1B78     		ldrb	r3, [r3]	@ zero_extendqisi2
 1570 0110 032B     		cmp	r3, #3
 1571 0112 14D0     		beq	.L109
 1572 0114 3B68     		ldr	r3, [r7]
 1573 0116 1B78     		ldrb	r3, [r3]	@ zero_extendqisi2
 1574 0118 042B     		cmp	r3, #4
 1575 011a 10D0     		beq	.L109
 1576 011c 3B68     		ldr	r3, [r7]
 1577 011e 1B78     		ldrb	r3, [r3]	@ zero_extendqisi2
 1578 0120 052B     		cmp	r3, #5
 1579 0122 0CD0     		beq	.L109
 1580 0124 3B68     		ldr	r3, [r7]
 1581 0126 1B78     		ldrb	r3, [r3]	@ zero_extendqisi2
 1582 0128 062B     		cmp	r3, #6
 1583 012a 08D0     		beq	.L109
 1584 012c 3B68     		ldr	r3, [r7]
 1585 012e 1B78     		ldrb	r3, [r3]	@ zero_extendqisi2
 1586 0130 072B     		cmp	r3, #7
 1587 0132 04D0     		beq	.L109
 1588 0134 2E48     		ldr	r0, .L116
 1589 0136 4FF46E71 		mov	r1, #952
 1590 013a FFF7FEFF 		bl	assert_failed
 1591              	.L109:
 953:App/STM32F4-Discovery/Libraries/STM32F4xx_StdPeriph_Driver/src/stm32f4xx_rtc.c **** 
 954:App/STM32F4-Discovery/Libraries/STM32F4xx_StdPeriph_Driver/src/stm32f4xx_rtc.c ****   /* Check the input parameters format */
 955:App/STM32F4-Discovery/Libraries/STM32F4xx_StdPeriph_Driver/src/stm32f4xx_rtc.c ****   if (RTC_Format != RTC_Format_BIN)
 1592              		.loc 1 955 0 is_stmt 1
 1593 013e 7B68     		ldr	r3, [r7, #4]
 1594 0140 002B     		cmp	r3, #0
 1595 0142 0FD0     		beq	.L110
 956:App/STM32F4-Discovery/Libraries/STM32F4xx_StdPeriph_Driver/src/stm32f4xx_rtc.c ****   {
 957:App/STM32F4-Discovery/Libraries/STM32F4xx_StdPeriph_Driver/src/stm32f4xx_rtc.c ****     tmpreg = ((((uint32_t)RTC_DateStruct->RTC_Year) << 16) | \
 1596              		.loc 1 957 0
 1597 0144 3B68     		ldr	r3, [r7]
 1598 0146 DB78     		ldrb	r3, [r3, #3]	@ zero_extendqisi2
 1599 0148 1A04     		lsls	r2, r3, #16
 958:App/STM32F4-Discovery/Libraries/STM32F4xx_StdPeriph_Driver/src/stm32f4xx_rtc.c ****               (((uint32_t)RTC_DateStruct->RTC_Month) << 8) | \
 1600              		.loc 1 958 0
 1601 014a 3B68     		ldr	r3, [r7]
 1602 014c 5B78     		ldrb	r3, [r3, #1]	@ zero_extendqisi2
 1603 014e 1B02     		lsls	r3, r3, #8
 957:App/STM32F4-Discovery/Libraries/STM32F4xx_StdPeriph_Driver/src/stm32f4xx_rtc.c ****     tmpreg = ((((uint32_t)RTC_DateStruct->RTC_Year) << 16) | \
 1604              		.loc 1 957 0
 1605 0150 1A43     		orrs	r2, r2, r3
 959:App/STM32F4-Discovery/Libraries/STM32F4xx_StdPeriph_Driver/src/stm32f4xx_rtc.c ****               ((uint32_t)RTC_DateStruct->RTC_Date) | \
 1606              		.loc 1 959 0
 1607 0152 3B68     		ldr	r3, [r7]
 1608 0154 9B78     		ldrb	r3, [r3, #2]	@ zero_extendqisi2
 958:App/STM32F4-Discovery/Libraries/STM32F4xx_StdPeriph_Driver/src/stm32f4xx_rtc.c ****               (((uint32_t)RTC_DateStruct->RTC_Month) << 8) | \
 1609              		.loc 1 958 0
 1610 0156 1A43     		orrs	r2, r2, r3
 960:App/STM32F4-Discovery/Libraries/STM32F4xx_StdPeriph_Driver/src/stm32f4xx_rtc.c ****               (((uint32_t)RTC_DateStruct->RTC_WeekDay) << 13)); 
 1611              		.loc 1 960 0
 1612 0158 3B68     		ldr	r3, [r7]
 1613 015a 1B78     		ldrb	r3, [r3]	@ zero_extendqisi2
 1614 015c 5B03     		lsls	r3, r3, #13
 957:App/STM32F4-Discovery/Libraries/STM32F4xx_StdPeriph_Driver/src/stm32f4xx_rtc.c ****     tmpreg = ((((uint32_t)RTC_DateStruct->RTC_Year) << 16) | \
 1615              		.loc 1 957 0
 1616 015e 1343     		orrs	r3, r3, r2
 1617 0160 FB60     		str	r3, [r7, #12]
 1618 0162 1BE0     		b	.L111
 1619              	.L110:
 961:App/STM32F4-Discovery/Libraries/STM32F4xx_StdPeriph_Driver/src/stm32f4xx_rtc.c ****   }  
 962:App/STM32F4-Discovery/Libraries/STM32F4xx_StdPeriph_Driver/src/stm32f4xx_rtc.c ****   else
 963:App/STM32F4-Discovery/Libraries/STM32F4xx_StdPeriph_Driver/src/stm32f4xx_rtc.c ****   {
 964:App/STM32F4-Discovery/Libraries/STM32F4xx_StdPeriph_Driver/src/stm32f4xx_rtc.c ****     tmpreg = (((uint32_t)RTC_ByteToBcd2(RTC_DateStruct->RTC_Year) << 16) | \
 1620              		.loc 1 964 0
 1621 0164 3B68     		ldr	r3, [r7]
 1622 0166 DB78     		ldrb	r3, [r3, #3]	@ zero_extendqisi2
 1623 0168 1846     		mov	r0, r3
 1624 016a FFF7FEFF 		bl	RTC_ByteToBcd2
 1625 016e 0346     		mov	r3, r0
 1626 0170 1C04     		lsls	r4, r3, #16
 965:App/STM32F4-Discovery/Libraries/STM32F4xx_StdPeriph_Driver/src/stm32f4xx_rtc.c ****               ((uint32_t)RTC_ByteToBcd2(RTC_DateStruct->RTC_Month) << 8) | \
 1627              		.loc 1 965 0
 1628 0172 3B68     		ldr	r3, [r7]
 1629 0174 5B78     		ldrb	r3, [r3, #1]	@ zero_extendqisi2
 1630 0176 1846     		mov	r0, r3
 1631 0178 FFF7FEFF 		bl	RTC_ByteToBcd2
 1632 017c 0346     		mov	r3, r0
 1633 017e 1B02     		lsls	r3, r3, #8
 964:App/STM32F4-Discovery/Libraries/STM32F4xx_StdPeriph_Driver/src/stm32f4xx_rtc.c ****     tmpreg = (((uint32_t)RTC_ByteToBcd2(RTC_DateStruct->RTC_Year) << 16) | \
 1634              		.loc 1 964 0
 1635 0180 1C43     		orrs	r4, r4, r3
 966:App/STM32F4-Discovery/Libraries/STM32F4xx_StdPeriph_Driver/src/stm32f4xx_rtc.c ****               ((uint32_t)RTC_ByteToBcd2(RTC_DateStruct->RTC_Date)) | \
 1636              		.loc 1 966 0
 1637 0182 3B68     		ldr	r3, [r7]
 1638 0184 9B78     		ldrb	r3, [r3, #2]	@ zero_extendqisi2
 1639 0186 1846     		mov	r0, r3
 1640 0188 FFF7FEFF 		bl	RTC_ByteToBcd2
 1641 018c 0346     		mov	r3, r0
 965:App/STM32F4-Discovery/Libraries/STM32F4xx_StdPeriph_Driver/src/stm32f4xx_rtc.c ****               ((uint32_t)RTC_ByteToBcd2(RTC_DateStruct->RTC_Month) << 8) | \
 1642              		.loc 1 965 0
 1643 018e 44EA0302 		orr	r2, r4, r3
 967:App/STM32F4-Discovery/Libraries/STM32F4xx_StdPeriph_Driver/src/stm32f4xx_rtc.c ****               ((uint32_t)RTC_DateStruct->RTC_WeekDay << 13));
 1644              		.loc 1 967 0
 1645 0192 3B68     		ldr	r3, [r7]
 1646 0194 1B78     		ldrb	r3, [r3]	@ zero_extendqisi2
 1647 0196 5B03     		lsls	r3, r3, #13
 964:App/STM32F4-Discovery/Libraries/STM32F4xx_StdPeriph_Driver/src/stm32f4xx_rtc.c ****     tmpreg = (((uint32_t)RTC_ByteToBcd2(RTC_DateStruct->RTC_Year) << 16) | \
 1648              		.loc 1 964 0
 1649 0198 1343     		orrs	r3, r3, r2
 1650 019a FB60     		str	r3, [r7, #12]
 1651              	.L111:
 968:App/STM32F4-Discovery/Libraries/STM32F4xx_StdPeriph_Driver/src/stm32f4xx_rtc.c ****   }
 969:App/STM32F4-Discovery/Libraries/STM32F4xx_StdPeriph_Driver/src/stm32f4xx_rtc.c **** 
 970:App/STM32F4-Discovery/Libraries/STM32F4xx_StdPeriph_Driver/src/stm32f4xx_rtc.c ****   /* Disable the write protection for RTC registers */
 971:App/STM32F4-Discovery/Libraries/STM32F4xx_StdPeriph_Driver/src/stm32f4xx_rtc.c ****   RTC->WPR = 0xCA;
 1652              		.loc 1 971 0
 1653 019c 154B     		ldr	r3, .L116+4
 1654 019e CA22     		movs	r2, #202
 1655 01a0 5A62     		str	r2, [r3, #36]
 972:App/STM32F4-Discovery/Libraries/STM32F4xx_StdPeriph_Driver/src/stm32f4xx_rtc.c ****   RTC->WPR = 0x53;
 1656              		.loc 1 972 0
 1657 01a2 144B     		ldr	r3, .L116+4
 1658 01a4 5322     		movs	r2, #83
 1659 01a6 5A62     		str	r2, [r3, #36]
 973:App/STM32F4-Discovery/Libraries/STM32F4xx_StdPeriph_Driver/src/stm32f4xx_rtc.c **** 
 974:App/STM32F4-Discovery/Libraries/STM32F4xx_StdPeriph_Driver/src/stm32f4xx_rtc.c ****   /* Set Initialization mode */
 975:App/STM32F4-Discovery/Libraries/STM32F4xx_StdPeriph_Driver/src/stm32f4xx_rtc.c ****   if (RTC_EnterInitMode() == ERROR)
 1660              		.loc 1 975 0
 1661 01a8 FFF7FEFF 		bl	RTC_EnterInitMode
 1662 01ac 0346     		mov	r3, r0
 1663 01ae 002B     		cmp	r3, #0
 1664 01b0 02D1     		bne	.L112
 976:App/STM32F4-Discovery/Libraries/STM32F4xx_StdPeriph_Driver/src/stm32f4xx_rtc.c ****   {
 977:App/STM32F4-Discovery/Libraries/STM32F4xx_StdPeriph_Driver/src/stm32f4xx_rtc.c ****     status = ERROR;
 1665              		.loc 1 977 0
 1666 01b2 0023     		movs	r3, #0
 1667 01b4 FB72     		strb	r3, [r7, #11]
 1668 01b6 12E0     		b	.L113
 1669              	.L112:
 978:App/STM32F4-Discovery/Libraries/STM32F4xx_StdPeriph_Driver/src/stm32f4xx_rtc.c ****   } 
 979:App/STM32F4-Discovery/Libraries/STM32F4xx_StdPeriph_Driver/src/stm32f4xx_rtc.c ****   else
 980:App/STM32F4-Discovery/Libraries/STM32F4xx_StdPeriph_Driver/src/stm32f4xx_rtc.c ****   {
 981:App/STM32F4-Discovery/Libraries/STM32F4xx_StdPeriph_Driver/src/stm32f4xx_rtc.c ****     /* Set the RTC_DR register */
 982:App/STM32F4-Discovery/Libraries/STM32F4xx_StdPeriph_Driver/src/stm32f4xx_rtc.c ****     RTC->DR = (uint32_t)(tmpreg & RTC_DR_RESERVED_MASK);
 1670              		.loc 1 982 0
 1671 01b8 0E4A     		ldr	r2, .L116+4
 1672 01ba FB68     		ldr	r3, [r7, #12]
 1673 01bc 23F07F43 		bic	r3, r3, #-16777216
 1674 01c0 23F0C003 		bic	r3, r3, #192
 1675 01c4 5360     		str	r3, [r2, #4]
 983:App/STM32F4-Discovery/Libraries/STM32F4xx_StdPeriph_Driver/src/stm32f4xx_rtc.c **** 
 984:App/STM32F4-Discovery/Libraries/STM32F4xx_StdPeriph_Driver/src/stm32f4xx_rtc.c ****     /* Exit Initialization mode */
 985:App/STM32F4-Discovery/Libraries/STM32F4xx_StdPeriph_Driver/src/stm32f4xx_rtc.c ****     RTC_ExitInitMode(); 
 1676              		.loc 1 985 0
 1677 01c6 FFF7FEFF 		bl	RTC_ExitInitMode
 986:App/STM32F4-Discovery/Libraries/STM32F4xx_StdPeriph_Driver/src/stm32f4xx_rtc.c **** 
 987:App/STM32F4-Discovery/Libraries/STM32F4xx_StdPeriph_Driver/src/stm32f4xx_rtc.c ****     if(RTC_WaitForSynchro() == ERROR)
 1678              		.loc 1 987 0
 1679 01ca FFF7FEFF 		bl	RTC_WaitForSynchro
 1680 01ce 0346     		mov	r3, r0
 1681 01d0 002B     		cmp	r3, #0
 1682 01d2 02D1     		bne	.L114
 988:App/STM32F4-Discovery/Libraries/STM32F4xx_StdPeriph_Driver/src/stm32f4xx_rtc.c ****     {
 989:App/STM32F4-Discovery/Libraries/STM32F4xx_StdPeriph_Driver/src/stm32f4xx_rtc.c ****       status = ERROR;
 1683              		.loc 1 989 0
 1684 01d4 0023     		movs	r3, #0
 1685 01d6 FB72     		strb	r3, [r7, #11]
 1686 01d8 01E0     		b	.L113
 1687              	.L114:
 990:App/STM32F4-Discovery/Libraries/STM32F4xx_StdPeriph_Driver/src/stm32f4xx_rtc.c ****     }
 991:App/STM32F4-Discovery/Libraries/STM32F4xx_StdPeriph_Driver/src/stm32f4xx_rtc.c ****     else
 992:App/STM32F4-Discovery/Libraries/STM32F4xx_StdPeriph_Driver/src/stm32f4xx_rtc.c ****     {
 993:App/STM32F4-Discovery/Libraries/STM32F4xx_StdPeriph_Driver/src/stm32f4xx_rtc.c ****       status = SUCCESS;
 1688              		.loc 1 993 0
 1689 01da 0123     		movs	r3, #1
 1690 01dc FB72     		strb	r3, [r7, #11]
 1691              	.L113:
 994:App/STM32F4-Discovery/Libraries/STM32F4xx_StdPeriph_Driver/src/stm32f4xx_rtc.c ****     }
 995:App/STM32F4-Discovery/Libraries/STM32F4xx_StdPeriph_Driver/src/stm32f4xx_rtc.c ****   }
 996:App/STM32F4-Discovery/Libraries/STM32F4xx_StdPeriph_Driver/src/stm32f4xx_rtc.c ****   /* Enable the write protection for RTC registers */
 997:App/STM32F4-Discovery/Libraries/STM32F4xx_StdPeriph_Driver/src/stm32f4xx_rtc.c ****   RTC->WPR = 0xFF;   
 1692              		.loc 1 997 0
 1693 01de 054B     		ldr	r3, .L116+4
 1694 01e0 FF22     		movs	r2, #255
 1695 01e2 5A62     		str	r2, [r3, #36]
 998:App/STM32F4-Discovery/Libraries/STM32F4xx_StdPeriph_Driver/src/stm32f4xx_rtc.c ****   
 999:App/STM32F4-Discovery/Libraries/STM32F4xx_StdPeriph_Driver/src/stm32f4xx_rtc.c ****   return status;
 1696              		.loc 1 999 0
 1697 01e4 FB7A     		ldrb	r3, [r7, #11]	@ zero_extendqisi2
1000:App/STM32F4-Discovery/Libraries/STM32F4xx_StdPeriph_Driver/src/stm32f4xx_rtc.c **** }
 1698              		.loc 1 1000 0
 1699 01e6 1846     		mov	r0, r3
 1700 01e8 1437     		adds	r7, r7, #20
 1701 01ea BD46     		mov	sp, r7
 1702              		@ sp needed
 1703 01ec 90BD     		pop	{r4, r7, pc}
 1704              	.L117:
 1705 01ee 00BF     		.align	2
 1706              	.L116:
 1707 01f0 00000000 		.word	.LC0
 1708 01f4 00280040 		.word	1073752064
 1709              		.cfi_endproc
 1710              	.LFE123:
 1712              		.section	.text.RTC_DateStructInit,"ax",%progbits
 1713              		.align	2
 1714              		.global	RTC_DateStructInit
 1715              		.thumb
 1716              		.thumb_func
 1718              	RTC_DateStructInit:
 1719              	.LFB124:
1001:App/STM32F4-Discovery/Libraries/STM32F4xx_StdPeriph_Driver/src/stm32f4xx_rtc.c **** 
1002:App/STM32F4-Discovery/Libraries/STM32F4xx_StdPeriph_Driver/src/stm32f4xx_rtc.c **** /**
1003:App/STM32F4-Discovery/Libraries/STM32F4xx_StdPeriph_Driver/src/stm32f4xx_rtc.c ****   * @brief  Fills each RTC_DateStruct member with its default value
1004:App/STM32F4-Discovery/Libraries/STM32F4xx_StdPeriph_Driver/src/stm32f4xx_rtc.c ****   *         (Monday, January 01 xx00).
1005:App/STM32F4-Discovery/Libraries/STM32F4xx_StdPeriph_Driver/src/stm32f4xx_rtc.c ****   * @param  RTC_DateStruct: pointer to a RTC_DateTypeDef structure which will be 
1006:App/STM32F4-Discovery/Libraries/STM32F4xx_StdPeriph_Driver/src/stm32f4xx_rtc.c ****   *         initialized.
1007:App/STM32F4-Discovery/Libraries/STM32F4xx_StdPeriph_Driver/src/stm32f4xx_rtc.c ****   * @retval None
1008:App/STM32F4-Discovery/Libraries/STM32F4xx_StdPeriph_Driver/src/stm32f4xx_rtc.c ****   */
1009:App/STM32F4-Discovery/Libraries/STM32F4xx_StdPeriph_Driver/src/stm32f4xx_rtc.c **** void RTC_DateStructInit(RTC_DateTypeDef* RTC_DateStruct)
1010:App/STM32F4-Discovery/Libraries/STM32F4xx_StdPeriph_Driver/src/stm32f4xx_rtc.c **** {
 1720              		.loc 1 1010 0
 1721              		.cfi_startproc
 1722              		@ args = 0, pretend = 0, frame = 8
 1723              		@ frame_needed = 1, uses_anonymous_args = 0
 1724              		@ link register save eliminated.
 1725 0000 80B4     		push	{r7}
 1726              	.LCFI41:
 1727              		.cfi_def_cfa_offset 4
 1728              		.cfi_offset 7, -4
 1729 0002 83B0     		sub	sp, sp, #12
 1730              	.LCFI42:
 1731              		.cfi_def_cfa_offset 16
 1732 0004 00AF     		add	r7, sp, #0
 1733              	.LCFI43:
 1734              		.cfi_def_cfa_register 7
 1735 0006 7860     		str	r0, [r7, #4]
1011:App/STM32F4-Discovery/Libraries/STM32F4xx_StdPeriph_Driver/src/stm32f4xx_rtc.c ****   /* Monday, January 01 xx00 */
1012:App/STM32F4-Discovery/Libraries/STM32F4xx_StdPeriph_Driver/src/stm32f4xx_rtc.c ****   RTC_DateStruct->RTC_WeekDay = RTC_Weekday_Monday;
 1736              		.loc 1 1012 0
 1737 0008 7B68     		ldr	r3, [r7, #4]
 1738 000a 0122     		movs	r2, #1
 1739 000c 1A70     		strb	r2, [r3]
1013:App/STM32F4-Discovery/Libraries/STM32F4xx_StdPeriph_Driver/src/stm32f4xx_rtc.c ****   RTC_DateStruct->RTC_Date = 1;
 1740              		.loc 1 1013 0
 1741 000e 7B68     		ldr	r3, [r7, #4]
 1742 0010 0122     		movs	r2, #1
 1743 0012 9A70     		strb	r2, [r3, #2]
1014:App/STM32F4-Discovery/Libraries/STM32F4xx_StdPeriph_Driver/src/stm32f4xx_rtc.c ****   RTC_DateStruct->RTC_Month = RTC_Month_January;
 1744              		.loc 1 1014 0
 1745 0014 7B68     		ldr	r3, [r7, #4]
 1746 0016 0122     		movs	r2, #1
 1747 0018 5A70     		strb	r2, [r3, #1]
1015:App/STM32F4-Discovery/Libraries/STM32F4xx_StdPeriph_Driver/src/stm32f4xx_rtc.c ****   RTC_DateStruct->RTC_Year = 0;
 1748              		.loc 1 1015 0
 1749 001a 7B68     		ldr	r3, [r7, #4]
 1750 001c 0022     		movs	r2, #0
 1751 001e DA70     		strb	r2, [r3, #3]
1016:App/STM32F4-Discovery/Libraries/STM32F4xx_StdPeriph_Driver/src/stm32f4xx_rtc.c **** }
 1752              		.loc 1 1016 0
 1753 0020 0C37     		adds	r7, r7, #12
 1754 0022 BD46     		mov	sp, r7
 1755              		@ sp needed
 1756 0024 5DF8047B 		ldr	r7, [sp], #4
 1757 0028 7047     		bx	lr
 1758              		.cfi_endproc
 1759              	.LFE124:
 1761 002a 00BF     		.section	.text.RTC_GetDate,"ax",%progbits
 1762              		.align	2
 1763              		.global	RTC_GetDate
 1764              		.thumb
 1765              		.thumb_func
 1767              	RTC_GetDate:
 1768              	.LFB125:
1017:App/STM32F4-Discovery/Libraries/STM32F4xx_StdPeriph_Driver/src/stm32f4xx_rtc.c **** 
1018:App/STM32F4-Discovery/Libraries/STM32F4xx_StdPeriph_Driver/src/stm32f4xx_rtc.c **** /**
1019:App/STM32F4-Discovery/Libraries/STM32F4xx_StdPeriph_Driver/src/stm32f4xx_rtc.c ****   * @brief  Get the RTC current date. 
1020:App/STM32F4-Discovery/Libraries/STM32F4xx_StdPeriph_Driver/src/stm32f4xx_rtc.c ****   * @param  RTC_Format: specifies the format of the returned parameters.
1021:App/STM32F4-Discovery/Libraries/STM32F4xx_StdPeriph_Driver/src/stm32f4xx_rtc.c ****   *          This parameter can be one of the following values:
1022:App/STM32F4-Discovery/Libraries/STM32F4xx_StdPeriph_Driver/src/stm32f4xx_rtc.c ****   *            @arg RTC_Format_BIN: Binary data format 
1023:App/STM32F4-Discovery/Libraries/STM32F4xx_StdPeriph_Driver/src/stm32f4xx_rtc.c ****   *            @arg RTC_Format_BCD: BCD data format
1024:App/STM32F4-Discovery/Libraries/STM32F4xx_StdPeriph_Driver/src/stm32f4xx_rtc.c ****   * @param RTC_DateStruct: pointer to a RTC_DateTypeDef structure that will 
1025:App/STM32F4-Discovery/Libraries/STM32F4xx_StdPeriph_Driver/src/stm32f4xx_rtc.c ****   *                        contain the returned current date configuration.     
1026:App/STM32F4-Discovery/Libraries/STM32F4xx_StdPeriph_Driver/src/stm32f4xx_rtc.c ****   * @retval None
1027:App/STM32F4-Discovery/Libraries/STM32F4xx_StdPeriph_Driver/src/stm32f4xx_rtc.c ****   */
1028:App/STM32F4-Discovery/Libraries/STM32F4xx_StdPeriph_Driver/src/stm32f4xx_rtc.c **** void RTC_GetDate(uint32_t RTC_Format, RTC_DateTypeDef* RTC_DateStruct)
1029:App/STM32F4-Discovery/Libraries/STM32F4xx_StdPeriph_Driver/src/stm32f4xx_rtc.c **** {
 1769              		.loc 1 1029 0
 1770              		.cfi_startproc
 1771              		@ args = 0, pretend = 0, frame = 16
 1772              		@ frame_needed = 1, uses_anonymous_args = 0
 1773 0000 80B5     		push	{r7, lr}
 1774              	.LCFI44:
 1775              		.cfi_def_cfa_offset 8
 1776              		.cfi_offset 7, -8
 1777              		.cfi_offset 14, -4
 1778 0002 84B0     		sub	sp, sp, #16
 1779              	.LCFI45:
 1780              		.cfi_def_cfa_offset 24
 1781 0004 00AF     		add	r7, sp, #0
 1782              	.LCFI46:
 1783              		.cfi_def_cfa_register 7
 1784 0006 7860     		str	r0, [r7, #4]
 1785 0008 3960     		str	r1, [r7]
1030:App/STM32F4-Discovery/Libraries/STM32F4xx_StdPeriph_Driver/src/stm32f4xx_rtc.c ****   uint32_t tmpreg = 0;
 1786              		.loc 1 1030 0
 1787 000a 0023     		movs	r3, #0
 1788 000c FB60     		str	r3, [r7, #12]
1031:App/STM32F4-Discovery/Libraries/STM32F4xx_StdPeriph_Driver/src/stm32f4xx_rtc.c **** 
1032:App/STM32F4-Discovery/Libraries/STM32F4xx_StdPeriph_Driver/src/stm32f4xx_rtc.c ****   /* Check the parameters */
1033:App/STM32F4-Discovery/Libraries/STM32F4xx_StdPeriph_Driver/src/stm32f4xx_rtc.c ****   assert_param(IS_RTC_FORMAT(RTC_Format));
 1789              		.loc 1 1033 0
 1790 000e 7B68     		ldr	r3, [r7, #4]
 1791 0010 002B     		cmp	r3, #0
 1792 0012 07D0     		beq	.L120
 1793              		.loc 1 1033 0 is_stmt 0 discriminator 1
 1794 0014 7B68     		ldr	r3, [r7, #4]
 1795 0016 012B     		cmp	r3, #1
 1796 0018 04D0     		beq	.L120
 1797 001a 2448     		ldr	r0, .L122
 1798 001c 40F20941 		movw	r1, #1033
 1799 0020 FFF7FEFF 		bl	assert_failed
 1800              	.L120:
1034:App/STM32F4-Discovery/Libraries/STM32F4xx_StdPeriph_Driver/src/stm32f4xx_rtc.c ****   
1035:App/STM32F4-Discovery/Libraries/STM32F4xx_StdPeriph_Driver/src/stm32f4xx_rtc.c ****   /* Get the RTC_TR register */
1036:App/STM32F4-Discovery/Libraries/STM32F4xx_StdPeriph_Driver/src/stm32f4xx_rtc.c ****   tmpreg = (uint32_t)(RTC->DR & RTC_DR_RESERVED_MASK); 
 1801              		.loc 1 1036 0 is_stmt 1
 1802 0024 224B     		ldr	r3, .L122+4
 1803 0026 5B68     		ldr	r3, [r3, #4]
 1804 0028 23F07F43 		bic	r3, r3, #-16777216
 1805 002c 23F0C003 		bic	r3, r3, #192
 1806 0030 FB60     		str	r3, [r7, #12]
1037:App/STM32F4-Discovery/Libraries/STM32F4xx_StdPeriph_Driver/src/stm32f4xx_rtc.c **** 
1038:App/STM32F4-Discovery/Libraries/STM32F4xx_StdPeriph_Driver/src/stm32f4xx_rtc.c ****   /* Fill the structure fields with the read parameters */
1039:App/STM32F4-Discovery/Libraries/STM32F4xx_StdPeriph_Driver/src/stm32f4xx_rtc.c ****   RTC_DateStruct->RTC_Year = (uint8_t)((tmpreg & (RTC_DR_YT | RTC_DR_YU)) >> 16);
 1807              		.loc 1 1039 0
 1808 0032 FB68     		ldr	r3, [r7, #12]
 1809 0034 03F47F03 		and	r3, r3, #16711680
 1810 0038 1B0C     		lsrs	r3, r3, #16
 1811 003a DAB2     		uxtb	r2, r3
 1812 003c 3B68     		ldr	r3, [r7]
 1813 003e DA70     		strb	r2, [r3, #3]
1040:App/STM32F4-Discovery/Libraries/STM32F4xx_StdPeriph_Driver/src/stm32f4xx_rtc.c ****   RTC_DateStruct->RTC_Month = (uint8_t)((tmpreg & (RTC_DR_MT | RTC_DR_MU)) >> 8);
 1814              		.loc 1 1040 0
 1815 0040 FB68     		ldr	r3, [r7, #12]
 1816 0042 03F4F853 		and	r3, r3, #7936
 1817 0046 1B0A     		lsrs	r3, r3, #8
 1818 0048 DAB2     		uxtb	r2, r3
 1819 004a 3B68     		ldr	r3, [r7]
 1820 004c 5A70     		strb	r2, [r3, #1]
1041:App/STM32F4-Discovery/Libraries/STM32F4xx_StdPeriph_Driver/src/stm32f4xx_rtc.c ****   RTC_DateStruct->RTC_Date = (uint8_t)(tmpreg & (RTC_DR_DT | RTC_DR_DU));
 1821              		.loc 1 1041 0
 1822 004e FB68     		ldr	r3, [r7, #12]
 1823 0050 DBB2     		uxtb	r3, r3
 1824 0052 03F03F03 		and	r3, r3, #63
 1825 0056 DAB2     		uxtb	r2, r3
 1826 0058 3B68     		ldr	r3, [r7]
 1827 005a 9A70     		strb	r2, [r3, #2]
1042:App/STM32F4-Discovery/Libraries/STM32F4xx_StdPeriph_Driver/src/stm32f4xx_rtc.c ****   RTC_DateStruct->RTC_WeekDay = (uint8_t)((tmpreg & (RTC_DR_WDU)) >> 13);
 1828              		.loc 1 1042 0
 1829 005c FB68     		ldr	r3, [r7, #12]
 1830 005e 03F46043 		and	r3, r3, #57344
 1831 0062 5B0B     		lsrs	r3, r3, #13
 1832 0064 DAB2     		uxtb	r2, r3
 1833 0066 3B68     		ldr	r3, [r7]
 1834 0068 1A70     		strb	r2, [r3]
1043:App/STM32F4-Discovery/Libraries/STM32F4xx_StdPeriph_Driver/src/stm32f4xx_rtc.c **** 
1044:App/STM32F4-Discovery/Libraries/STM32F4xx_StdPeriph_Driver/src/stm32f4xx_rtc.c ****   /* Check the input parameters format */
1045:App/STM32F4-Discovery/Libraries/STM32F4xx_StdPeriph_Driver/src/stm32f4xx_rtc.c ****   if (RTC_Format == RTC_Format_BIN)
 1835              		.loc 1 1045 0
 1836 006a 7B68     		ldr	r3, [r7, #4]
 1837 006c 002B     		cmp	r3, #0
 1838 006e 1AD1     		bne	.L119
1046:App/STM32F4-Discovery/Libraries/STM32F4xx_StdPeriph_Driver/src/stm32f4xx_rtc.c ****   {
1047:App/STM32F4-Discovery/Libraries/STM32F4xx_StdPeriph_Driver/src/stm32f4xx_rtc.c ****     /* Convert the structure parameters to Binary format */
1048:App/STM32F4-Discovery/Libraries/STM32F4xx_StdPeriph_Driver/src/stm32f4xx_rtc.c ****     RTC_DateStruct->RTC_Year = (uint8_t)RTC_Bcd2ToByte(RTC_DateStruct->RTC_Year);
 1839              		.loc 1 1048 0
 1840 0070 3B68     		ldr	r3, [r7]
 1841 0072 DB78     		ldrb	r3, [r3, #3]	@ zero_extendqisi2
 1842 0074 1846     		mov	r0, r3
 1843 0076 FFF7FEFF 		bl	RTC_Bcd2ToByte
 1844 007a 0346     		mov	r3, r0
 1845 007c 1A46     		mov	r2, r3
 1846 007e 3B68     		ldr	r3, [r7]
 1847 0080 DA70     		strb	r2, [r3, #3]
1049:App/STM32F4-Discovery/Libraries/STM32F4xx_StdPeriph_Driver/src/stm32f4xx_rtc.c ****     RTC_DateStruct->RTC_Month = (uint8_t)RTC_Bcd2ToByte(RTC_DateStruct->RTC_Month);
 1848              		.loc 1 1049 0
 1849 0082 3B68     		ldr	r3, [r7]
 1850 0084 5B78     		ldrb	r3, [r3, #1]	@ zero_extendqisi2
 1851 0086 1846     		mov	r0, r3
 1852 0088 FFF7FEFF 		bl	RTC_Bcd2ToByte
 1853 008c 0346     		mov	r3, r0
 1854 008e 1A46     		mov	r2, r3
 1855 0090 3B68     		ldr	r3, [r7]
 1856 0092 5A70     		strb	r2, [r3, #1]
1050:App/STM32F4-Discovery/Libraries/STM32F4xx_StdPeriph_Driver/src/stm32f4xx_rtc.c ****     RTC_DateStruct->RTC_Date = (uint8_t)RTC_Bcd2ToByte(RTC_DateStruct->RTC_Date);
 1857              		.loc 1 1050 0
 1858 0094 3B68     		ldr	r3, [r7]
 1859 0096 9B78     		ldrb	r3, [r3, #2]	@ zero_extendqisi2
 1860 0098 1846     		mov	r0, r3
 1861 009a FFF7FEFF 		bl	RTC_Bcd2ToByte
 1862 009e 0346     		mov	r3, r0
 1863 00a0 1A46     		mov	r2, r3
 1864 00a2 3B68     		ldr	r3, [r7]
 1865 00a4 9A70     		strb	r2, [r3, #2]
 1866              	.L119:
1051:App/STM32F4-Discovery/Libraries/STM32F4xx_StdPeriph_Driver/src/stm32f4xx_rtc.c ****   }
1052:App/STM32F4-Discovery/Libraries/STM32F4xx_StdPeriph_Driver/src/stm32f4xx_rtc.c **** }
 1867              		.loc 1 1052 0
 1868 00a6 1037     		adds	r7, r7, #16
 1869 00a8 BD46     		mov	sp, r7
 1870              		@ sp needed
 1871 00aa 80BD     		pop	{r7, pc}
 1872              	.L123:
 1873              		.align	2
 1874              	.L122:
 1875 00ac 00000000 		.word	.LC0
 1876 00b0 00280040 		.word	1073752064
 1877              		.cfi_endproc
 1878              	.LFE125:
 1880              		.section	.text.RTC_SetAlarm,"ax",%progbits
 1881              		.align	2
 1882              		.global	RTC_SetAlarm
 1883              		.thumb
 1884              		.thumb_func
 1886              	RTC_SetAlarm:
 1887              	.LFB126:
1053:App/STM32F4-Discovery/Libraries/STM32F4xx_StdPeriph_Driver/src/stm32f4xx_rtc.c **** 
1054:App/STM32F4-Discovery/Libraries/STM32F4xx_StdPeriph_Driver/src/stm32f4xx_rtc.c **** /**
1055:App/STM32F4-Discovery/Libraries/STM32F4xx_StdPeriph_Driver/src/stm32f4xx_rtc.c ****   * @}
1056:App/STM32F4-Discovery/Libraries/STM32F4xx_StdPeriph_Driver/src/stm32f4xx_rtc.c ****   */
1057:App/STM32F4-Discovery/Libraries/STM32F4xx_StdPeriph_Driver/src/stm32f4xx_rtc.c **** 
1058:App/STM32F4-Discovery/Libraries/STM32F4xx_StdPeriph_Driver/src/stm32f4xx_rtc.c **** /** @defgroup RTC_Group3 Alarms configuration functions
1059:App/STM32F4-Discovery/Libraries/STM32F4xx_StdPeriph_Driver/src/stm32f4xx_rtc.c ****  *  @brief   Alarms (Alarm A and Alarm B) configuration functions 
1060:App/STM32F4-Discovery/Libraries/STM32F4xx_StdPeriph_Driver/src/stm32f4xx_rtc.c ****  *
1061:App/STM32F4-Discovery/Libraries/STM32F4xx_StdPeriph_Driver/src/stm32f4xx_rtc.c **** @verbatim   
1062:App/STM32F4-Discovery/Libraries/STM32F4xx_StdPeriph_Driver/src/stm32f4xx_rtc.c ****  ===============================================================================
1063:App/STM32F4-Discovery/Libraries/STM32F4xx_StdPeriph_Driver/src/stm32f4xx_rtc.c ****               Alarms (Alarm A and Alarm B) configuration functions
1064:App/STM32F4-Discovery/Libraries/STM32F4xx_StdPeriph_Driver/src/stm32f4xx_rtc.c ****  ===============================================================================  
1065:App/STM32F4-Discovery/Libraries/STM32F4xx_StdPeriph_Driver/src/stm32f4xx_rtc.c **** 
1066:App/STM32F4-Discovery/Libraries/STM32F4xx_StdPeriph_Driver/src/stm32f4xx_rtc.c ****   This section provide functions allowing to program and read the RTC Alarms.
1067:App/STM32F4-Discovery/Libraries/STM32F4xx_StdPeriph_Driver/src/stm32f4xx_rtc.c **** 
1068:App/STM32F4-Discovery/Libraries/STM32F4xx_StdPeriph_Driver/src/stm32f4xx_rtc.c **** @endverbatim
1069:App/STM32F4-Discovery/Libraries/STM32F4xx_StdPeriph_Driver/src/stm32f4xx_rtc.c ****   * @{
1070:App/STM32F4-Discovery/Libraries/STM32F4xx_StdPeriph_Driver/src/stm32f4xx_rtc.c ****   */
1071:App/STM32F4-Discovery/Libraries/STM32F4xx_StdPeriph_Driver/src/stm32f4xx_rtc.c **** 
1072:App/STM32F4-Discovery/Libraries/STM32F4xx_StdPeriph_Driver/src/stm32f4xx_rtc.c **** /**
1073:App/STM32F4-Discovery/Libraries/STM32F4xx_StdPeriph_Driver/src/stm32f4xx_rtc.c ****   * @brief  Set the specified RTC Alarm.
1074:App/STM32F4-Discovery/Libraries/STM32F4xx_StdPeriph_Driver/src/stm32f4xx_rtc.c ****   * @note   The Alarm register can only be written when the corresponding Alarm
1075:App/STM32F4-Discovery/Libraries/STM32F4xx_StdPeriph_Driver/src/stm32f4xx_rtc.c ****   *         is disabled (Use the RTC_AlarmCmd(DISABLE)).    
1076:App/STM32F4-Discovery/Libraries/STM32F4xx_StdPeriph_Driver/src/stm32f4xx_rtc.c ****   * @param  RTC_Format: specifies the format of the returned parameters.
1077:App/STM32F4-Discovery/Libraries/STM32F4xx_StdPeriph_Driver/src/stm32f4xx_rtc.c ****   *          This parameter can be one of the following values:
1078:App/STM32F4-Discovery/Libraries/STM32F4xx_StdPeriph_Driver/src/stm32f4xx_rtc.c ****   *            @arg RTC_Format_BIN: Binary data format 
1079:App/STM32F4-Discovery/Libraries/STM32F4xx_StdPeriph_Driver/src/stm32f4xx_rtc.c ****   *            @arg RTC_Format_BCD: BCD data format
1080:App/STM32F4-Discovery/Libraries/STM32F4xx_StdPeriph_Driver/src/stm32f4xx_rtc.c ****   * @param  RTC_Alarm: specifies the alarm to be configured.
1081:App/STM32F4-Discovery/Libraries/STM32F4xx_StdPeriph_Driver/src/stm32f4xx_rtc.c ****   *          This parameter can be one of the following values:
1082:App/STM32F4-Discovery/Libraries/STM32F4xx_StdPeriph_Driver/src/stm32f4xx_rtc.c ****   *            @arg RTC_Alarm_A: to select Alarm A
1083:App/STM32F4-Discovery/Libraries/STM32F4xx_StdPeriph_Driver/src/stm32f4xx_rtc.c ****   *            @arg RTC_Alarm_B: to select Alarm B  
1084:App/STM32F4-Discovery/Libraries/STM32F4xx_StdPeriph_Driver/src/stm32f4xx_rtc.c ****   * @param  RTC_AlarmStruct: pointer to a RTC_AlarmTypeDef structure that 
1085:App/STM32F4-Discovery/Libraries/STM32F4xx_StdPeriph_Driver/src/stm32f4xx_rtc.c ****   *                          contains the alarm configuration parameters.     
1086:App/STM32F4-Discovery/Libraries/STM32F4xx_StdPeriph_Driver/src/stm32f4xx_rtc.c ****   * @retval None
1087:App/STM32F4-Discovery/Libraries/STM32F4xx_StdPeriph_Driver/src/stm32f4xx_rtc.c ****   */
1088:App/STM32F4-Discovery/Libraries/STM32F4xx_StdPeriph_Driver/src/stm32f4xx_rtc.c **** void RTC_SetAlarm(uint32_t RTC_Format, uint32_t RTC_Alarm, RTC_AlarmTypeDef* RTC_AlarmStruct)
1089:App/STM32F4-Discovery/Libraries/STM32F4xx_StdPeriph_Driver/src/stm32f4xx_rtc.c **** {
 1888              		.loc 1 1089 0
 1889              		.cfi_startproc
 1890              		@ args = 0, pretend = 0, frame = 24
 1891              		@ frame_needed = 1, uses_anonymous_args = 0
 1892 0000 90B5     		push	{r4, r7, lr}
 1893              	.LCFI47:
 1894              		.cfi_def_cfa_offset 12
 1895              		.cfi_offset 4, -12
 1896              		.cfi_offset 7, -8
 1897              		.cfi_offset 14, -4
 1898 0002 87B0     		sub	sp, sp, #28
 1899              	.LCFI48:
 1900              		.cfi_def_cfa_offset 40
 1901 0004 00AF     		add	r7, sp, #0
 1902              	.LCFI49:
 1903              		.cfi_def_cfa_register 7
 1904 0006 F860     		str	r0, [r7, #12]
 1905 0008 B960     		str	r1, [r7, #8]
 1906 000a 7A60     		str	r2, [r7, #4]
1090:App/STM32F4-Discovery/Libraries/STM32F4xx_StdPeriph_Driver/src/stm32f4xx_rtc.c ****   uint32_t tmpreg = 0;
 1907              		.loc 1 1090 0
 1908 000c 0023     		movs	r3, #0
 1909 000e 7B61     		str	r3, [r7, #20]
1091:App/STM32F4-Discovery/Libraries/STM32F4xx_StdPeriph_Driver/src/stm32f4xx_rtc.c ****   
1092:App/STM32F4-Discovery/Libraries/STM32F4xx_StdPeriph_Driver/src/stm32f4xx_rtc.c ****   /* Check the parameters */
1093:App/STM32F4-Discovery/Libraries/STM32F4xx_StdPeriph_Driver/src/stm32f4xx_rtc.c ****   assert_param(IS_RTC_FORMAT(RTC_Format));
 1910              		.loc 1 1093 0
 1911 0010 FB68     		ldr	r3, [r7, #12]
 1912 0012 002B     		cmp	r3, #0
 1913 0014 07D0     		beq	.L125
 1914              		.loc 1 1093 0 is_stmt 0 discriminator 1
 1915 0016 FB68     		ldr	r3, [r7, #12]
 1916 0018 012B     		cmp	r3, #1
 1917 001a 04D0     		beq	.L125
 1918 001c A648     		ldr	r0, .L153
 1919 001e 40F24541 		movw	r1, #1093
 1920 0022 FFF7FEFF 		bl	assert_failed
 1921              	.L125:
1094:App/STM32F4-Discovery/Libraries/STM32F4xx_StdPeriph_Driver/src/stm32f4xx_rtc.c ****   assert_param(IS_RTC_ALARM(RTC_Alarm));
 1922              		.loc 1 1094 0 is_stmt 1
 1923 0026 BB68     		ldr	r3, [r7, #8]
 1924 0028 B3F5807F 		cmp	r3, #256
 1925 002c 08D0     		beq	.L126
 1926              		.loc 1 1094 0 is_stmt 0 discriminator 1
 1927 002e BB68     		ldr	r3, [r7, #8]
 1928 0030 B3F5007F 		cmp	r3, #512
 1929 0034 04D0     		beq	.L126
 1930 0036 A048     		ldr	r0, .L153
 1931 0038 40F24641 		movw	r1, #1094
 1932 003c FFF7FEFF 		bl	assert_failed
 1933              	.L126:
1095:App/STM32F4-Discovery/Libraries/STM32F4xx_StdPeriph_Driver/src/stm32f4xx_rtc.c ****   assert_param(IS_ALARM_MASK(RTC_AlarmStruct->RTC_AlarmMask));
 1934              		.loc 1 1095 0 is_stmt 1
 1935 0040 7B68     		ldr	r3, [r7, #4]
 1936 0042 5B68     		ldr	r3, [r3, #4]
 1937 0044 03F07F33 		and	r3, r3, #2139062143
 1938 0048 002B     		cmp	r3, #0
 1939 004a 04D0     		beq	.L127
 1940              		.loc 1 1095 0 is_stmt 0 discriminator 1
 1941 004c 9A48     		ldr	r0, .L153
 1942 004e 40F24741 		movw	r1, #1095
 1943 0052 FFF7FEFF 		bl	assert_failed
 1944              	.L127:
1096:App/STM32F4-Discovery/Libraries/STM32F4xx_StdPeriph_Driver/src/stm32f4xx_rtc.c ****   assert_param(IS_RTC_ALARM_DATE_WEEKDAY_SEL(RTC_AlarmStruct->RTC_AlarmDateWeekDaySel));
 1945              		.loc 1 1096 0 is_stmt 1
 1946 0056 7B68     		ldr	r3, [r7, #4]
 1947 0058 9B68     		ldr	r3, [r3, #8]
 1948 005a 002B     		cmp	r3, #0
 1949 005c 09D0     		beq	.L128
 1950              		.loc 1 1096 0 is_stmt 0 discriminator 1
 1951 005e 7B68     		ldr	r3, [r7, #4]
 1952 0060 9B68     		ldr	r3, [r3, #8]
 1953 0062 B3F1804F 		cmp	r3, #1073741824
 1954 0066 04D0     		beq	.L128
 1955 0068 9348     		ldr	r0, .L153
 1956 006a 4FF48961 		mov	r1, #1096
 1957 006e FFF7FEFF 		bl	assert_failed
 1958              	.L128:
1097:App/STM32F4-Discovery/Libraries/STM32F4xx_StdPeriph_Driver/src/stm32f4xx_rtc.c **** 
1098:App/STM32F4-Discovery/Libraries/STM32F4xx_StdPeriph_Driver/src/stm32f4xx_rtc.c ****   if (RTC_Format == RTC_Format_BIN)
 1959              		.loc 1 1098 0 is_stmt 1
 1960 0072 FB68     		ldr	r3, [r7, #12]
 1961 0074 002B     		cmp	r3, #0
 1962 0076 7AD1     		bne	.L129
1099:App/STM32F4-Discovery/Libraries/STM32F4xx_StdPeriph_Driver/src/stm32f4xx_rtc.c ****   {
1100:App/STM32F4-Discovery/Libraries/STM32F4xx_StdPeriph_Driver/src/stm32f4xx_rtc.c ****     if ((RTC->CR & RTC_CR_FMT) != (uint32_t)RESET)
 1963              		.loc 1 1100 0
 1964 0078 904B     		ldr	r3, .L153+4
 1965 007a 9B68     		ldr	r3, [r3, #8]
 1966 007c 03F04003 		and	r3, r3, #64
 1967 0080 002B     		cmp	r3, #0
 1968 0082 1AD0     		beq	.L130
1101:App/STM32F4-Discovery/Libraries/STM32F4xx_StdPeriph_Driver/src/stm32f4xx_rtc.c ****     {
1102:App/STM32F4-Discovery/Libraries/STM32F4xx_StdPeriph_Driver/src/stm32f4xx_rtc.c ****       assert_param(IS_RTC_HOUR12(RTC_AlarmStruct->RTC_AlarmTime.RTC_Hours));
 1969              		.loc 1 1102 0
 1970 0084 7B68     		ldr	r3, [r7, #4]
 1971 0086 1B78     		ldrb	r3, [r3]	@ zero_extendqisi2
 1972 0088 002B     		cmp	r3, #0
 1973 008a 03D0     		beq	.L131
 1974              		.loc 1 1102 0 is_stmt 0 discriminator 2
 1975 008c 7B68     		ldr	r3, [r7, #4]
 1976 008e 1B78     		ldrb	r3, [r3]	@ zero_extendqisi2
 1977 0090 0C2B     		cmp	r3, #12
 1978 0092 04D9     		bls	.L132
 1979              	.L131:
 1980              		.loc 1 1102 0 discriminator 1
 1981 0094 8848     		ldr	r0, .L153
 1982 0096 40F24E41 		movw	r1, #1102
 1983 009a FFF7FEFF 		bl	assert_failed
 1984              	.L132:
1103:App/STM32F4-Discovery/Libraries/STM32F4xx_StdPeriph_Driver/src/stm32f4xx_rtc.c ****       assert_param(IS_RTC_H12(RTC_AlarmStruct->RTC_AlarmTime.RTC_H12));
 1985              		.loc 1 1103 0 is_stmt 1
 1986 009e 7B68     		ldr	r3, [r7, #4]
 1987 00a0 DB78     		ldrb	r3, [r3, #3]	@ zero_extendqisi2
 1988 00a2 002B     		cmp	r3, #0
 1989 00a4 15D0     		beq	.L133
 1990              		.loc 1 1103 0 is_stmt 0 discriminator 1
 1991 00a6 7B68     		ldr	r3, [r7, #4]
 1992 00a8 DB78     		ldrb	r3, [r3, #3]	@ zero_extendqisi2
 1993 00aa 402B     		cmp	r3, #64
 1994 00ac 11D0     		beq	.L133
 1995 00ae 8248     		ldr	r0, .L153
 1996 00b0 40F24F41 		movw	r1, #1103
 1997 00b4 FFF7FEFF 		bl	assert_failed
 1998 00b8 0BE0     		b	.L133
 1999              	.L130:
1104:App/STM32F4-Discovery/Libraries/STM32F4xx_StdPeriph_Driver/src/stm32f4xx_rtc.c ****     } 
1105:App/STM32F4-Discovery/Libraries/STM32F4xx_StdPeriph_Driver/src/stm32f4xx_rtc.c ****     else
1106:App/STM32F4-Discovery/Libraries/STM32F4xx_StdPeriph_Driver/src/stm32f4xx_rtc.c ****     {
1107:App/STM32F4-Discovery/Libraries/STM32F4xx_StdPeriph_Driver/src/stm32f4xx_rtc.c ****       RTC_AlarmStruct->RTC_AlarmTime.RTC_H12 = 0x00;
 2000              		.loc 1 1107 0 is_stmt 1
 2001 00ba 7B68     		ldr	r3, [r7, #4]
 2002 00bc 0022     		movs	r2, #0
 2003 00be DA70     		strb	r2, [r3, #3]
1108:App/STM32F4-Discovery/Libraries/STM32F4xx_StdPeriph_Driver/src/stm32f4xx_rtc.c ****       assert_param(IS_RTC_HOUR24(RTC_AlarmStruct->RTC_AlarmTime.RTC_Hours));
 2004              		.loc 1 1108 0
 2005 00c0 7B68     		ldr	r3, [r7, #4]
 2006 00c2 1B78     		ldrb	r3, [r3]	@ zero_extendqisi2
 2007 00c4 172B     		cmp	r3, #23
 2008 00c6 04D9     		bls	.L133
 2009              		.loc 1 1108 0 is_stmt 0 discriminator 1
 2010 00c8 7B48     		ldr	r0, .L153
 2011 00ca 40F25441 		movw	r1, #1108
 2012 00ce FFF7FEFF 		bl	assert_failed
 2013              	.L133:
1109:App/STM32F4-Discovery/Libraries/STM32F4xx_StdPeriph_Driver/src/stm32f4xx_rtc.c ****     }
1110:App/STM32F4-Discovery/Libraries/STM32F4xx_StdPeriph_Driver/src/stm32f4xx_rtc.c ****     assert_param(IS_RTC_MINUTES(RTC_AlarmStruct->RTC_AlarmTime.RTC_Minutes));
 2014              		.loc 1 1110 0 is_stmt 1
 2015 00d2 7B68     		ldr	r3, [r7, #4]
 2016 00d4 5B78     		ldrb	r3, [r3, #1]	@ zero_extendqisi2
 2017 00d6 3B2B     		cmp	r3, #59
 2018 00d8 04D9     		bls	.L134
 2019              		.loc 1 1110 0 is_stmt 0 discriminator 1
 2020 00da 7748     		ldr	r0, .L153
 2021 00dc 40F25641 		movw	r1, #1110
 2022 00e0 FFF7FEFF 		bl	assert_failed
 2023              	.L134:
1111:App/STM32F4-Discovery/Libraries/STM32F4xx_StdPeriph_Driver/src/stm32f4xx_rtc.c ****     assert_param(IS_RTC_SECONDS(RTC_AlarmStruct->RTC_AlarmTime.RTC_Seconds));
 2024              		.loc 1 1111 0 is_stmt 1
 2025 00e4 7B68     		ldr	r3, [r7, #4]
 2026 00e6 9B78     		ldrb	r3, [r3, #2]	@ zero_extendqisi2
 2027 00e8 3B2B     		cmp	r3, #59
 2028 00ea 04D9     		bls	.L135
 2029              		.loc 1 1111 0 is_stmt 0 discriminator 1
 2030 00ec 7248     		ldr	r0, .L153
 2031 00ee 40F25741 		movw	r1, #1111
 2032 00f2 FFF7FEFF 		bl	assert_failed
 2033              	.L135:
1112:App/STM32F4-Discovery/Libraries/STM32F4xx_StdPeriph_Driver/src/stm32f4xx_rtc.c ****     
1113:App/STM32F4-Discovery/Libraries/STM32F4xx_StdPeriph_Driver/src/stm32f4xx_rtc.c ****     if(RTC_AlarmStruct->RTC_AlarmDateWeekDaySel == RTC_AlarmDateWeekDaySel_Date)
 2034              		.loc 1 1113 0 is_stmt 1
 2035 00f6 7B68     		ldr	r3, [r7, #4]
 2036 00f8 9B68     		ldr	r3, [r3, #8]
 2037 00fa 002B     		cmp	r3, #0
 2038 00fc 0ED1     		bne	.L136
1114:App/STM32F4-Discovery/Libraries/STM32F4xx_StdPeriph_Driver/src/stm32f4xx_rtc.c ****     {
1115:App/STM32F4-Discovery/Libraries/STM32F4xx_StdPeriph_Driver/src/stm32f4xx_rtc.c ****       assert_param(IS_RTC_ALARM_DATE_WEEKDAY_DATE(RTC_AlarmStruct->RTC_AlarmDateWeekDay));
 2039              		.loc 1 1115 0
 2040 00fe 7B68     		ldr	r3, [r7, #4]
 2041 0100 1B7B     		ldrb	r3, [r3, #12]	@ zero_extendqisi2
 2042 0102 002B     		cmp	r3, #0
 2043 0104 04D0     		beq	.L137
 2044              		.loc 1 1115 0 is_stmt 0 discriminator 2
 2045 0106 7B68     		ldr	r3, [r7, #4]
 2046 0108 1B7B     		ldrb	r3, [r3, #12]	@ zero_extendqisi2
 2047 010a 1F2B     		cmp	r3, #31
 2048 010c 40F2B780 		bls	.L139
 2049              	.L137:
 2050              		.loc 1 1115 0 discriminator 1
 2051 0110 6948     		ldr	r0, .L153
 2052 0112 40F25B41 		movw	r1, #1115
 2053 0116 FFF7FEFF 		bl	assert_failed
 2054 011a B0E0     		b	.L139
 2055              	.L136:
1116:App/STM32F4-Discovery/Libraries/STM32F4xx_StdPeriph_Driver/src/stm32f4xx_rtc.c ****     }
1117:App/STM32F4-Discovery/Libraries/STM32F4xx_StdPeriph_Driver/src/stm32f4xx_rtc.c ****     else
1118:App/STM32F4-Discovery/Libraries/STM32F4xx_StdPeriph_Driver/src/stm32f4xx_rtc.c ****     {
1119:App/STM32F4-Discovery/Libraries/STM32F4xx_StdPeriph_Driver/src/stm32f4xx_rtc.c ****       assert_param(IS_RTC_ALARM_DATE_WEEKDAY_WEEKDAY(RTC_AlarmStruct->RTC_AlarmDateWeekDay));
 2056              		.loc 1 1119 0 is_stmt 1
 2057 011c 7B68     		ldr	r3, [r7, #4]
 2058 011e 1B7B     		ldrb	r3, [r3, #12]	@ zero_extendqisi2
 2059 0120 012B     		cmp	r3, #1
 2060 0122 00F0AC80 		beq	.L139
 2061              		.loc 1 1119 0 is_stmt 0 discriminator 1
 2062 0126 7B68     		ldr	r3, [r7, #4]
 2063 0128 1B7B     		ldrb	r3, [r3, #12]	@ zero_extendqisi2
 2064 012a 022B     		cmp	r3, #2
 2065 012c 00F0A780 		beq	.L139
 2066 0130 7B68     		ldr	r3, [r7, #4]
 2067 0132 1B7B     		ldrb	r3, [r3, #12]	@ zero_extendqisi2
 2068 0134 032B     		cmp	r3, #3
 2069 0136 00F0A280 		beq	.L139
 2070 013a 7B68     		ldr	r3, [r7, #4]
 2071 013c 1B7B     		ldrb	r3, [r3, #12]	@ zero_extendqisi2
 2072 013e 042B     		cmp	r3, #4
 2073 0140 00F09D80 		beq	.L139
 2074 0144 7B68     		ldr	r3, [r7, #4]
 2075 0146 1B7B     		ldrb	r3, [r3, #12]	@ zero_extendqisi2
 2076 0148 052B     		cmp	r3, #5
 2077 014a 00F09880 		beq	.L139
 2078 014e 7B68     		ldr	r3, [r7, #4]
 2079 0150 1B7B     		ldrb	r3, [r3, #12]	@ zero_extendqisi2
 2080 0152 062B     		cmp	r3, #6
 2081 0154 00F09380 		beq	.L139
 2082 0158 7B68     		ldr	r3, [r7, #4]
 2083 015a 1B7B     		ldrb	r3, [r3, #12]	@ zero_extendqisi2
 2084 015c 072B     		cmp	r3, #7
 2085 015e 00F08E80 		beq	.L139
 2086 0162 5548     		ldr	r0, .L153
 2087 0164 40F25F41 		movw	r1, #1119
 2088 0168 FFF7FEFF 		bl	assert_failed
 2089 016c 87E0     		b	.L139
 2090              	.L129:
1120:App/STM32F4-Discovery/Libraries/STM32F4xx_StdPeriph_Driver/src/stm32f4xx_rtc.c ****     }
1121:App/STM32F4-Discovery/Libraries/STM32F4xx_StdPeriph_Driver/src/stm32f4xx_rtc.c ****   }
1122:App/STM32F4-Discovery/Libraries/STM32F4xx_StdPeriph_Driver/src/stm32f4xx_rtc.c ****   else
1123:App/STM32F4-Discovery/Libraries/STM32F4xx_StdPeriph_Driver/src/stm32f4xx_rtc.c ****   {
1124:App/STM32F4-Discovery/Libraries/STM32F4xx_StdPeriph_Driver/src/stm32f4xx_rtc.c ****     if ((RTC->CR & RTC_CR_FMT) != (uint32_t)RESET)
 2091              		.loc 1 1124 0 is_stmt 1
 2092 016e 534B     		ldr	r3, .L153+4
 2093 0170 9B68     		ldr	r3, [r3, #8]
 2094 0172 03F04003 		and	r3, r3, #64
 2095 0176 002B     		cmp	r3, #0
 2096 0178 1FD0     		beq	.L140
1125:App/STM32F4-Discovery/Libraries/STM32F4xx_StdPeriph_Driver/src/stm32f4xx_rtc.c ****     {
1126:App/STM32F4-Discovery/Libraries/STM32F4xx_StdPeriph_Driver/src/stm32f4xx_rtc.c ****       tmpreg = RTC_Bcd2ToByte(RTC_AlarmStruct->RTC_AlarmTime.RTC_Hours);
 2097              		.loc 1 1126 0
 2098 017a 7B68     		ldr	r3, [r7, #4]
 2099 017c 1B78     		ldrb	r3, [r3]	@ zero_extendqisi2
 2100 017e 1846     		mov	r0, r3
 2101 0180 FFF7FEFF 		bl	RTC_Bcd2ToByte
 2102 0184 0346     		mov	r3, r0
 2103 0186 7B61     		str	r3, [r7, #20]
1127:App/STM32F4-Discovery/Libraries/STM32F4xx_StdPeriph_Driver/src/stm32f4xx_rtc.c ****       assert_param(IS_RTC_HOUR12(tmpreg));
 2104              		.loc 1 1127 0
 2105 0188 7B69     		ldr	r3, [r7, #20]
 2106 018a 002B     		cmp	r3, #0
 2107 018c 02D0     		beq	.L141
 2108              		.loc 1 1127 0 is_stmt 0 discriminator 2
 2109 018e 7B69     		ldr	r3, [r7, #20]
 2110 0190 0C2B     		cmp	r3, #12
 2111 0192 04D9     		bls	.L142
 2112              	.L141:
 2113              		.loc 1 1127 0 discriminator 1
 2114 0194 4848     		ldr	r0, .L153
 2115 0196 40F26741 		movw	r1, #1127
 2116 019a FFF7FEFF 		bl	assert_failed
 2117              	.L142:
1128:App/STM32F4-Discovery/Libraries/STM32F4xx_StdPeriph_Driver/src/stm32f4xx_rtc.c ****       assert_param(IS_RTC_H12(RTC_AlarmStruct->RTC_AlarmTime.RTC_H12));
 2118              		.loc 1 1128 0 is_stmt 1
 2119 019e 7B68     		ldr	r3, [r7, #4]
 2120 01a0 DB78     		ldrb	r3, [r3, #3]	@ zero_extendqisi2
 2121 01a2 002B     		cmp	r3, #0
 2122 01a4 19D0     		beq	.L143
 2123              		.loc 1 1128 0 is_stmt 0 discriminator 1
 2124 01a6 7B68     		ldr	r3, [r7, #4]
 2125 01a8 DB78     		ldrb	r3, [r3, #3]	@ zero_extendqisi2
 2126 01aa 402B     		cmp	r3, #64
 2127 01ac 15D0     		beq	.L143
 2128 01ae 4248     		ldr	r0, .L153
 2129 01b0 4FF48D61 		mov	r1, #1128
 2130 01b4 FFF7FEFF 		bl	assert_failed
 2131 01b8 0FE0     		b	.L143
 2132              	.L140:
1129:App/STM32F4-Discovery/Libraries/STM32F4xx_StdPeriph_Driver/src/stm32f4xx_rtc.c ****     } 
1130:App/STM32F4-Discovery/Libraries/STM32F4xx_StdPeriph_Driver/src/stm32f4xx_rtc.c ****     else
1131:App/STM32F4-Discovery/Libraries/STM32F4xx_StdPeriph_Driver/src/stm32f4xx_rtc.c ****     {
1132:App/STM32F4-Discovery/Libraries/STM32F4xx_StdPeriph_Driver/src/stm32f4xx_rtc.c ****       RTC_AlarmStruct->RTC_AlarmTime.RTC_H12 = 0x00;
 2133              		.loc 1 1132 0 is_stmt 1
 2134 01ba 7B68     		ldr	r3, [r7, #4]
 2135 01bc 0022     		movs	r2, #0
 2136 01be DA70     		strb	r2, [r3, #3]
1133:App/STM32F4-Discovery/Libraries/STM32F4xx_StdPeriph_Driver/src/stm32f4xx_rtc.c ****       assert_param(IS_RTC_HOUR24(RTC_Bcd2ToByte(RTC_AlarmStruct->RTC_AlarmTime.RTC_Hours)));
 2137              		.loc 1 1133 0
 2138 01c0 7B68     		ldr	r3, [r7, #4]
 2139 01c2 1B78     		ldrb	r3, [r3]	@ zero_extendqisi2
 2140 01c4 1846     		mov	r0, r3
 2141 01c6 FFF7FEFF 		bl	RTC_Bcd2ToByte
 2142 01ca 0346     		mov	r3, r0
 2143 01cc 172B     		cmp	r3, #23
 2144 01ce 04D9     		bls	.L143
 2145              		.loc 1 1133 0 is_stmt 0 discriminator 1
 2146 01d0 3948     		ldr	r0, .L153
 2147 01d2 40F26D41 		movw	r1, #1133
 2148 01d6 FFF7FEFF 		bl	assert_failed
 2149              	.L143:
1134:App/STM32F4-Discovery/Libraries/STM32F4xx_StdPeriph_Driver/src/stm32f4xx_rtc.c ****     }
1135:App/STM32F4-Discovery/Libraries/STM32F4xx_StdPeriph_Driver/src/stm32f4xx_rtc.c ****     
1136:App/STM32F4-Discovery/Libraries/STM32F4xx_StdPeriph_Driver/src/stm32f4xx_rtc.c ****     assert_param(IS_RTC_MINUTES(RTC_Bcd2ToByte(RTC_AlarmStruct->RTC_AlarmTime.RTC_Minutes)));
 2150              		.loc 1 1136 0 is_stmt 1
 2151 01da 7B68     		ldr	r3, [r7, #4]
 2152 01dc 5B78     		ldrb	r3, [r3, #1]	@ zero_extendqisi2
 2153 01de 1846     		mov	r0, r3
 2154 01e0 FFF7FEFF 		bl	RTC_Bcd2ToByte
 2155 01e4 0346     		mov	r3, r0
 2156 01e6 3B2B     		cmp	r3, #59
 2157 01e8 04D9     		bls	.L144
 2158              		.loc 1 1136 0 is_stmt 0 discriminator 1
 2159 01ea 3348     		ldr	r0, .L153
 2160 01ec 4FF48E61 		mov	r1, #1136
 2161 01f0 FFF7FEFF 		bl	assert_failed
 2162              	.L144:
1137:App/STM32F4-Discovery/Libraries/STM32F4xx_StdPeriph_Driver/src/stm32f4xx_rtc.c ****     assert_param(IS_RTC_SECONDS(RTC_Bcd2ToByte(RTC_AlarmStruct->RTC_AlarmTime.RTC_Seconds)));
 2163              		.loc 1 1137 0 is_stmt 1
 2164 01f4 7B68     		ldr	r3, [r7, #4]
 2165 01f6 9B78     		ldrb	r3, [r3, #2]	@ zero_extendqisi2
 2166 01f8 1846     		mov	r0, r3
 2167 01fa FFF7FEFF 		bl	RTC_Bcd2ToByte
 2168 01fe 0346     		mov	r3, r0
 2169 0200 3B2B     		cmp	r3, #59
 2170 0202 04D9     		bls	.L145
 2171              		.loc 1 1137 0 is_stmt 0 discriminator 1
 2172 0204 2C48     		ldr	r0, .L153
 2173 0206 40F27141 		movw	r1, #1137
 2174 020a FFF7FEFF 		bl	assert_failed
 2175              	.L145:
1138:App/STM32F4-Discovery/Libraries/STM32F4xx_StdPeriph_Driver/src/stm32f4xx_rtc.c ****     
1139:App/STM32F4-Discovery/Libraries/STM32F4xx_StdPeriph_Driver/src/stm32f4xx_rtc.c ****     if(RTC_AlarmStruct->RTC_AlarmDateWeekDaySel == RTC_AlarmDateWeekDaySel_Date)
 2176              		.loc 1 1139 0 is_stmt 1
 2177 020e 7B68     		ldr	r3, [r7, #4]
 2178 0210 9B68     		ldr	r3, [r3, #8]
 2179 0212 002B     		cmp	r3, #0
 2180 0214 12D1     		bne	.L146
1140:App/STM32F4-Discovery/Libraries/STM32F4xx_StdPeriph_Driver/src/stm32f4xx_rtc.c ****     {
1141:App/STM32F4-Discovery/Libraries/STM32F4xx_StdPeriph_Driver/src/stm32f4xx_rtc.c ****       tmpreg = RTC_Bcd2ToByte(RTC_AlarmStruct->RTC_AlarmDateWeekDay);
 2181              		.loc 1 1141 0
 2182 0216 7B68     		ldr	r3, [r7, #4]
 2183 0218 1B7B     		ldrb	r3, [r3, #12]	@ zero_extendqisi2
 2184 021a 1846     		mov	r0, r3
 2185 021c FFF7FEFF 		bl	RTC_Bcd2ToByte
 2186 0220 0346     		mov	r3, r0
 2187 0222 7B61     		str	r3, [r7, #20]
1142:App/STM32F4-Discovery/Libraries/STM32F4xx_StdPeriph_Driver/src/stm32f4xx_rtc.c ****       assert_param(IS_RTC_ALARM_DATE_WEEKDAY_DATE(tmpreg));    
 2188              		.loc 1 1142 0
 2189 0224 7B69     		ldr	r3, [r7, #20]
 2190 0226 002B     		cmp	r3, #0
 2191 0228 02D0     		beq	.L147
 2192              		.loc 1 1142 0 is_stmt 0 discriminator 2
 2193 022a 7B69     		ldr	r3, [r7, #20]
 2194 022c 1F2B     		cmp	r3, #31
 2195 022e 26D9     		bls	.L139
 2196              	.L147:
 2197              		.loc 1 1142 0 discriminator 1
 2198 0230 2148     		ldr	r0, .L153
 2199 0232 40F27641 		movw	r1, #1142
 2200 0236 FFF7FEFF 		bl	assert_failed
 2201 023a 20E0     		b	.L139
 2202              	.L146:
1143:App/STM32F4-Discovery/Libraries/STM32F4xx_StdPeriph_Driver/src/stm32f4xx_rtc.c ****     }
1144:App/STM32F4-Discovery/Libraries/STM32F4xx_StdPeriph_Driver/src/stm32f4xx_rtc.c ****     else
1145:App/STM32F4-Discovery/Libraries/STM32F4xx_StdPeriph_Driver/src/stm32f4xx_rtc.c ****     {
1146:App/STM32F4-Discovery/Libraries/STM32F4xx_StdPeriph_Driver/src/stm32f4xx_rtc.c ****       tmpreg = RTC_Bcd2ToByte(RTC_AlarmStruct->RTC_AlarmDateWeekDay);
 2203              		.loc 1 1146 0 is_stmt 1
 2204 023c 7B68     		ldr	r3, [r7, #4]
 2205 023e 1B7B     		ldrb	r3, [r3, #12]	@ zero_extendqisi2
 2206 0240 1846     		mov	r0, r3
 2207 0242 FFF7FEFF 		bl	RTC_Bcd2ToByte
 2208 0246 0346     		mov	r3, r0
 2209 0248 7B61     		str	r3, [r7, #20]
1147:App/STM32F4-Discovery/Libraries/STM32F4xx_StdPeriph_Driver/src/stm32f4xx_rtc.c ****       assert_param(IS_RTC_ALARM_DATE_WEEKDAY_WEEKDAY(tmpreg));      
 2210              		.loc 1 1147 0
 2211 024a 7B69     		ldr	r3, [r7, #20]
 2212 024c 012B     		cmp	r3, #1
 2213 024e 16D0     		beq	.L139
 2214              		.loc 1 1147 0 is_stmt 0 discriminator 1
 2215 0250 7B69     		ldr	r3, [r7, #20]
 2216 0252 022B     		cmp	r3, #2
 2217 0254 13D0     		beq	.L139
 2218 0256 7B69     		ldr	r3, [r7, #20]
 2219 0258 032B     		cmp	r3, #3
 2220 025a 10D0     		beq	.L139
 2221 025c 7B69     		ldr	r3, [r7, #20]
 2222 025e 042B     		cmp	r3, #4
 2223 0260 0DD0     		beq	.L139
 2224 0262 7B69     		ldr	r3, [r7, #20]
 2225 0264 052B     		cmp	r3, #5
 2226 0266 0AD0     		beq	.L139
 2227 0268 7B69     		ldr	r3, [r7, #20]
 2228 026a 062B     		cmp	r3, #6
 2229 026c 07D0     		beq	.L139
 2230 026e 7B69     		ldr	r3, [r7, #20]
 2231 0270 072B     		cmp	r3, #7
 2232 0272 04D0     		beq	.L139
 2233 0274 1048     		ldr	r0, .L153
 2234 0276 40F27B41 		movw	r1, #1147
 2235 027a FFF7FEFF 		bl	assert_failed
 2236              	.L139:
1148:App/STM32F4-Discovery/Libraries/STM32F4xx_StdPeriph_Driver/src/stm32f4xx_rtc.c ****     }    
1149:App/STM32F4-Discovery/Libraries/STM32F4xx_StdPeriph_Driver/src/stm32f4xx_rtc.c ****   }
1150:App/STM32F4-Discovery/Libraries/STM32F4xx_StdPeriph_Driver/src/stm32f4xx_rtc.c **** 
1151:App/STM32F4-Discovery/Libraries/STM32F4xx_StdPeriph_Driver/src/stm32f4xx_rtc.c ****   /* Check the input parameters format */
1152:App/STM32F4-Discovery/Libraries/STM32F4xx_StdPeriph_Driver/src/stm32f4xx_rtc.c ****   if (RTC_Format != RTC_Format_BIN)
 2237              		.loc 1 1152 0 is_stmt 1
 2238 027e FB68     		ldr	r3, [r7, #12]
 2239 0280 002B     		cmp	r3, #0
 2240 0282 1DD0     		beq	.L149
1153:App/STM32F4-Discovery/Libraries/STM32F4xx_StdPeriph_Driver/src/stm32f4xx_rtc.c ****   {
1154:App/STM32F4-Discovery/Libraries/STM32F4xx_StdPeriph_Driver/src/stm32f4xx_rtc.c ****     tmpreg = (((uint32_t)(RTC_AlarmStruct->RTC_AlarmTime.RTC_Hours) << 16) | \
 2241              		.loc 1 1154 0
 2242 0284 7B68     		ldr	r3, [r7, #4]
 2243 0286 1B78     		ldrb	r3, [r3]	@ zero_extendqisi2
 2244 0288 1A04     		lsls	r2, r3, #16
1155:App/STM32F4-Discovery/Libraries/STM32F4xx_StdPeriph_Driver/src/stm32f4xx_rtc.c ****               ((uint32_t)(RTC_AlarmStruct->RTC_AlarmTime.RTC_Minutes) << 8) | \
 2245              		.loc 1 1155 0
 2246 028a 7B68     		ldr	r3, [r7, #4]
 2247 028c 5B78     		ldrb	r3, [r3, #1]	@ zero_extendqisi2
 2248 028e 1B02     		lsls	r3, r3, #8
1154:App/STM32F4-Discovery/Libraries/STM32F4xx_StdPeriph_Driver/src/stm32f4xx_rtc.c ****     tmpreg = (((uint32_t)(RTC_AlarmStruct->RTC_AlarmTime.RTC_Hours) << 16) | \
 2249              		.loc 1 1154 0
 2250 0290 1A43     		orrs	r2, r2, r3
1156:App/STM32F4-Discovery/Libraries/STM32F4xx_StdPeriph_Driver/src/stm32f4xx_rtc.c ****               ((uint32_t)RTC_AlarmStruct->RTC_AlarmTime.RTC_Seconds) | \
 2251              		.loc 1 1156 0
 2252 0292 7B68     		ldr	r3, [r7, #4]
 2253 0294 9B78     		ldrb	r3, [r3, #2]	@ zero_extendqisi2
1155:App/STM32F4-Discovery/Libraries/STM32F4xx_StdPeriph_Driver/src/stm32f4xx_rtc.c ****               ((uint32_t)(RTC_AlarmStruct->RTC_AlarmTime.RTC_Minutes) << 8) | \
 2254              		.loc 1 1155 0
 2255 0296 1A43     		orrs	r2, r2, r3
1157:App/STM32F4-Discovery/Libraries/STM32F4xx_StdPeriph_Driver/src/stm32f4xx_rtc.c ****               ((uint32_t)(RTC_AlarmStruct->RTC_AlarmTime.RTC_H12) << 16) | \
 2256              		.loc 1 1157 0
 2257 0298 7B68     		ldr	r3, [r7, #4]
 2258 029a DB78     		ldrb	r3, [r3, #3]	@ zero_extendqisi2
 2259 029c 1B04     		lsls	r3, r3, #16
1156:App/STM32F4-Discovery/Libraries/STM32F4xx_StdPeriph_Driver/src/stm32f4xx_rtc.c ****               ((uint32_t)RTC_AlarmStruct->RTC_AlarmTime.RTC_Seconds) | \
 2260              		.loc 1 1156 0
 2261 029e 1A43     		orrs	r2, r2, r3
1158:App/STM32F4-Discovery/Libraries/STM32F4xx_StdPeriph_Driver/src/stm32f4xx_rtc.c ****               ((uint32_t)(RTC_AlarmStruct->RTC_AlarmDateWeekDay) << 24) | \
 2262              		.loc 1 1158 0
 2263 02a0 7B68     		ldr	r3, [r7, #4]
 2264 02a2 1B7B     		ldrb	r3, [r3, #12]	@ zero_extendqisi2
 2265 02a4 1B06     		lsls	r3, r3, #24
1157:App/STM32F4-Discovery/Libraries/STM32F4xx_StdPeriph_Driver/src/stm32f4xx_rtc.c ****               ((uint32_t)(RTC_AlarmStruct->RTC_AlarmTime.RTC_H12) << 16) | \
 2266              		.loc 1 1157 0
 2267 02a6 1A43     		orrs	r2, r2, r3
1159:App/STM32F4-Discovery/Libraries/STM32F4xx_StdPeriph_Driver/src/stm32f4xx_rtc.c ****               ((uint32_t)RTC_AlarmStruct->RTC_AlarmDateWeekDaySel) | \
 2268              		.loc 1 1159 0
 2269 02a8 7B68     		ldr	r3, [r7, #4]
 2270 02aa 9B68     		ldr	r3, [r3, #8]
1158:App/STM32F4-Discovery/Libraries/STM32F4xx_StdPeriph_Driver/src/stm32f4xx_rtc.c ****               ((uint32_t)(RTC_AlarmStruct->RTC_AlarmDateWeekDay) << 24) | \
 2271              		.loc 1 1158 0
 2272 02ac 1A43     		orrs	r2, r2, r3
1160:App/STM32F4-Discovery/Libraries/STM32F4xx_StdPeriph_Driver/src/stm32f4xx_rtc.c ****               ((uint32_t)RTC_AlarmStruct->RTC_AlarmMask)); 
 2273              		.loc 1 1160 0
 2274 02ae 7B68     		ldr	r3, [r7, #4]
 2275 02b0 5B68     		ldr	r3, [r3, #4]
1154:App/STM32F4-Discovery/Libraries/STM32F4xx_StdPeriph_Driver/src/stm32f4xx_rtc.c ****     tmpreg = (((uint32_t)(RTC_AlarmStruct->RTC_AlarmTime.RTC_Hours) << 16) | \
 2276              		.loc 1 1154 0
 2277 02b2 1343     		orrs	r3, r3, r2
 2278 02b4 7B61     		str	r3, [r7, #20]
 2279 02b6 2FE0     		b	.L150
 2280              	.L154:
 2281              		.align	2
 2282              	.L153:
 2283 02b8 00000000 		.word	.LC0
 2284 02bc 00280040 		.word	1073752064
 2285              	.L149:
1161:App/STM32F4-Discovery/Libraries/STM32F4xx_StdPeriph_Driver/src/stm32f4xx_rtc.c ****   }  
1162:App/STM32F4-Discovery/Libraries/STM32F4xx_StdPeriph_Driver/src/stm32f4xx_rtc.c ****   else
1163:App/STM32F4-Discovery/Libraries/STM32F4xx_StdPeriph_Driver/src/stm32f4xx_rtc.c ****   {
1164:App/STM32F4-Discovery/Libraries/STM32F4xx_StdPeriph_Driver/src/stm32f4xx_rtc.c ****     tmpreg = (((uint32_t)RTC_ByteToBcd2(RTC_AlarmStruct->RTC_AlarmTime.RTC_Hours) << 16) | \
 2286              		.loc 1 1164 0
 2287 02c0 7B68     		ldr	r3, [r7, #4]
 2288 02c2 1B78     		ldrb	r3, [r3]	@ zero_extendqisi2
 2289 02c4 1846     		mov	r0, r3
 2290 02c6 FFF7FEFF 		bl	RTC_ByteToBcd2
 2291 02ca 0346     		mov	r3, r0
 2292 02cc 1C04     		lsls	r4, r3, #16
1165:App/STM32F4-Discovery/Libraries/STM32F4xx_StdPeriph_Driver/src/stm32f4xx_rtc.c ****               ((uint32_t)RTC_ByteToBcd2(RTC_AlarmStruct->RTC_AlarmTime.RTC_Minutes) << 8) | \
 2293              		.loc 1 1165 0
 2294 02ce 7B68     		ldr	r3, [r7, #4]
 2295 02d0 5B78     		ldrb	r3, [r3, #1]	@ zero_extendqisi2
 2296 02d2 1846     		mov	r0, r3
 2297 02d4 FFF7FEFF 		bl	RTC_ByteToBcd2
 2298 02d8 0346     		mov	r3, r0
 2299 02da 1B02     		lsls	r3, r3, #8
1164:App/STM32F4-Discovery/Libraries/STM32F4xx_StdPeriph_Driver/src/stm32f4xx_rtc.c ****     tmpreg = (((uint32_t)RTC_ByteToBcd2(RTC_AlarmStruct->RTC_AlarmTime.RTC_Hours) << 16) | \
 2300              		.loc 1 1164 0
 2301 02dc 1C43     		orrs	r4, r4, r3
1166:App/STM32F4-Discovery/Libraries/STM32F4xx_StdPeriph_Driver/src/stm32f4xx_rtc.c ****               ((uint32_t)RTC_ByteToBcd2(RTC_AlarmStruct->RTC_AlarmTime.RTC_Seconds)) | \
 2302              		.loc 1 1166 0
 2303 02de 7B68     		ldr	r3, [r7, #4]
 2304 02e0 9B78     		ldrb	r3, [r3, #2]	@ zero_extendqisi2
 2305 02e2 1846     		mov	r0, r3
 2306 02e4 FFF7FEFF 		bl	RTC_ByteToBcd2
 2307 02e8 0346     		mov	r3, r0
1165:App/STM32F4-Discovery/Libraries/STM32F4xx_StdPeriph_Driver/src/stm32f4xx_rtc.c ****               ((uint32_t)RTC_ByteToBcd2(RTC_AlarmStruct->RTC_AlarmTime.RTC_Minutes) << 8) | \
 2308              		.loc 1 1165 0
 2309 02ea 44EA0302 		orr	r2, r4, r3
1167:App/STM32F4-Discovery/Libraries/STM32F4xx_StdPeriph_Driver/src/stm32f4xx_rtc.c ****               ((uint32_t)(RTC_AlarmStruct->RTC_AlarmTime.RTC_H12) << 16) | \
 2310              		.loc 1 1167 0
 2311 02ee 7B68     		ldr	r3, [r7, #4]
 2312 02f0 DB78     		ldrb	r3, [r3, #3]	@ zero_extendqisi2
 2313 02f2 1B04     		lsls	r3, r3, #16
1166:App/STM32F4-Discovery/Libraries/STM32F4xx_StdPeriph_Driver/src/stm32f4xx_rtc.c ****               ((uint32_t)RTC_ByteToBcd2(RTC_AlarmStruct->RTC_AlarmTime.RTC_Seconds)) | \
 2314              		.loc 1 1166 0
 2315 02f4 42EA0304 		orr	r4, r2, r3
1168:App/STM32F4-Discovery/Libraries/STM32F4xx_StdPeriph_Driver/src/stm32f4xx_rtc.c ****               ((uint32_t)RTC_ByteToBcd2(RTC_AlarmStruct->RTC_AlarmDateWeekDay) << 24) | \
 2316              		.loc 1 1168 0
 2317 02f8 7B68     		ldr	r3, [r7, #4]
 2318 02fa 1B7B     		ldrb	r3, [r3, #12]	@ zero_extendqisi2
 2319 02fc 1846     		mov	r0, r3
 2320 02fe FFF7FEFF 		bl	RTC_ByteToBcd2
 2321 0302 0346     		mov	r3, r0
 2322 0304 1B06     		lsls	r3, r3, #24
1167:App/STM32F4-Discovery/Libraries/STM32F4xx_StdPeriph_Driver/src/stm32f4xx_rtc.c ****               ((uint32_t)(RTC_AlarmStruct->RTC_AlarmTime.RTC_H12) << 16) | \
 2323              		.loc 1 1167 0
 2324 0306 44EA0302 		orr	r2, r4, r3
1169:App/STM32F4-Discovery/Libraries/STM32F4xx_StdPeriph_Driver/src/stm32f4xx_rtc.c ****               ((uint32_t)RTC_AlarmStruct->RTC_AlarmDateWeekDaySel) | \
 2325              		.loc 1 1169 0
 2326 030a 7B68     		ldr	r3, [r7, #4]
 2327 030c 9B68     		ldr	r3, [r3, #8]
1168:App/STM32F4-Discovery/Libraries/STM32F4xx_StdPeriph_Driver/src/stm32f4xx_rtc.c ****               ((uint32_t)RTC_ByteToBcd2(RTC_AlarmStruct->RTC_AlarmDateWeekDay) << 24) | \
 2328              		.loc 1 1168 0
 2329 030e 1A43     		orrs	r2, r2, r3
1170:App/STM32F4-Discovery/Libraries/STM32F4xx_StdPeriph_Driver/src/stm32f4xx_rtc.c ****               ((uint32_t)RTC_AlarmStruct->RTC_AlarmMask)); 
 2330              		.loc 1 1170 0
 2331 0310 7B68     		ldr	r3, [r7, #4]
 2332 0312 5B68     		ldr	r3, [r3, #4]
1164:App/STM32F4-Discovery/Libraries/STM32F4xx_StdPeriph_Driver/src/stm32f4xx_rtc.c ****     tmpreg = (((uint32_t)RTC_ByteToBcd2(RTC_AlarmStruct->RTC_AlarmTime.RTC_Hours) << 16) | \
 2333              		.loc 1 1164 0
 2334 0314 1343     		orrs	r3, r3, r2
 2335 0316 7B61     		str	r3, [r7, #20]
 2336              	.L150:
1171:App/STM32F4-Discovery/Libraries/STM32F4xx_StdPeriph_Driver/src/stm32f4xx_rtc.c ****   } 
1172:App/STM32F4-Discovery/Libraries/STM32F4xx_StdPeriph_Driver/src/stm32f4xx_rtc.c **** 
1173:App/STM32F4-Discovery/Libraries/STM32F4xx_StdPeriph_Driver/src/stm32f4xx_rtc.c ****   /* Disable the write protection for RTC registers */
1174:App/STM32F4-Discovery/Libraries/STM32F4xx_StdPeriph_Driver/src/stm32f4xx_rtc.c ****   RTC->WPR = 0xCA;
 2337              		.loc 1 1174 0
 2338 0318 0B4B     		ldr	r3, .L155
 2339 031a CA22     		movs	r2, #202
 2340 031c 5A62     		str	r2, [r3, #36]
1175:App/STM32F4-Discovery/Libraries/STM32F4xx_StdPeriph_Driver/src/stm32f4xx_rtc.c ****   RTC->WPR = 0x53;
 2341              		.loc 1 1175 0
 2342 031e 0A4B     		ldr	r3, .L155
 2343 0320 5322     		movs	r2, #83
 2344 0322 5A62     		str	r2, [r3, #36]
1176:App/STM32F4-Discovery/Libraries/STM32F4xx_StdPeriph_Driver/src/stm32f4xx_rtc.c **** 
1177:App/STM32F4-Discovery/Libraries/STM32F4xx_StdPeriph_Driver/src/stm32f4xx_rtc.c ****   /* Configure the Alarm register */
1178:App/STM32F4-Discovery/Libraries/STM32F4xx_StdPeriph_Driver/src/stm32f4xx_rtc.c ****   if (RTC_Alarm == RTC_Alarm_A)
 2345              		.loc 1 1178 0
 2346 0324 BB68     		ldr	r3, [r7, #8]
 2347 0326 B3F5807F 		cmp	r3, #256
 2348 032a 03D1     		bne	.L151
1179:App/STM32F4-Discovery/Libraries/STM32F4xx_StdPeriph_Driver/src/stm32f4xx_rtc.c ****   {
1180:App/STM32F4-Discovery/Libraries/STM32F4xx_StdPeriph_Driver/src/stm32f4xx_rtc.c ****     RTC->ALRMAR = (uint32_t)tmpreg;
 2349              		.loc 1 1180 0
 2350 032c 064B     		ldr	r3, .L155
 2351 032e 7A69     		ldr	r2, [r7, #20]
 2352 0330 DA61     		str	r2, [r3, #28]
 2353 0332 02E0     		b	.L152
 2354              	.L151:
1181:App/STM32F4-Discovery/Libraries/STM32F4xx_StdPeriph_Driver/src/stm32f4xx_rtc.c ****   }
1182:App/STM32F4-Discovery/Libraries/STM32F4xx_StdPeriph_Driver/src/stm32f4xx_rtc.c ****   else
1183:App/STM32F4-Discovery/Libraries/STM32F4xx_StdPeriph_Driver/src/stm32f4xx_rtc.c ****   {
1184:App/STM32F4-Discovery/Libraries/STM32F4xx_StdPeriph_Driver/src/stm32f4xx_rtc.c ****     RTC->ALRMBR = (uint32_t)tmpreg;
 2355              		.loc 1 1184 0
 2356 0334 044B     		ldr	r3, .L155
 2357 0336 7A69     		ldr	r2, [r7, #20]
 2358 0338 1A62     		str	r2, [r3, #32]
 2359              	.L152:
1185:App/STM32F4-Discovery/Libraries/STM32F4xx_StdPeriph_Driver/src/stm32f4xx_rtc.c ****   }
1186:App/STM32F4-Discovery/Libraries/STM32F4xx_StdPeriph_Driver/src/stm32f4xx_rtc.c **** 
1187:App/STM32F4-Discovery/Libraries/STM32F4xx_StdPeriph_Driver/src/stm32f4xx_rtc.c ****   /* Enable the write protection for RTC registers */
1188:App/STM32F4-Discovery/Libraries/STM32F4xx_StdPeriph_Driver/src/stm32f4xx_rtc.c ****   RTC->WPR = 0xFF;   
 2360              		.loc 1 1188 0
 2361 033a 034B     		ldr	r3, .L155
 2362 033c FF22     		movs	r2, #255
 2363 033e 5A62     		str	r2, [r3, #36]
1189:App/STM32F4-Discovery/Libraries/STM32F4xx_StdPeriph_Driver/src/stm32f4xx_rtc.c **** }
 2364              		.loc 1 1189 0
 2365 0340 1C37     		adds	r7, r7, #28
 2366 0342 BD46     		mov	sp, r7
 2367              		@ sp needed
 2368 0344 90BD     		pop	{r4, r7, pc}
 2369              	.L156:
 2370 0346 00BF     		.align	2
 2371              	.L155:
 2372 0348 00280040 		.word	1073752064
 2373              		.cfi_endproc
 2374              	.LFE126:
 2376              		.section	.text.RTC_AlarmStructInit,"ax",%progbits
 2377              		.align	2
 2378              		.global	RTC_AlarmStructInit
 2379              		.thumb
 2380              		.thumb_func
 2382              	RTC_AlarmStructInit:
 2383              	.LFB127:
1190:App/STM32F4-Discovery/Libraries/STM32F4xx_StdPeriph_Driver/src/stm32f4xx_rtc.c **** 
1191:App/STM32F4-Discovery/Libraries/STM32F4xx_StdPeriph_Driver/src/stm32f4xx_rtc.c **** /**
1192:App/STM32F4-Discovery/Libraries/STM32F4xx_StdPeriph_Driver/src/stm32f4xx_rtc.c ****   * @brief  Fills each RTC_AlarmStruct member with its default value
1193:App/STM32F4-Discovery/Libraries/STM32F4xx_StdPeriph_Driver/src/stm32f4xx_rtc.c ****   *         (Time = 00h:00mn:00sec / Date = 1st day of the month/Mask =
1194:App/STM32F4-Discovery/Libraries/STM32F4xx_StdPeriph_Driver/src/stm32f4xx_rtc.c ****   *         all fields are masked).
1195:App/STM32F4-Discovery/Libraries/STM32F4xx_StdPeriph_Driver/src/stm32f4xx_rtc.c ****   * @param  RTC_AlarmStruct: pointer to a @ref RTC_AlarmTypeDef structure which
1196:App/STM32F4-Discovery/Libraries/STM32F4xx_StdPeriph_Driver/src/stm32f4xx_rtc.c ****   *         will be initialized.
1197:App/STM32F4-Discovery/Libraries/STM32F4xx_StdPeriph_Driver/src/stm32f4xx_rtc.c ****   * @retval None
1198:App/STM32F4-Discovery/Libraries/STM32F4xx_StdPeriph_Driver/src/stm32f4xx_rtc.c ****   */
1199:App/STM32F4-Discovery/Libraries/STM32F4xx_StdPeriph_Driver/src/stm32f4xx_rtc.c **** void RTC_AlarmStructInit(RTC_AlarmTypeDef* RTC_AlarmStruct)
1200:App/STM32F4-Discovery/Libraries/STM32F4xx_StdPeriph_Driver/src/stm32f4xx_rtc.c **** {
 2384              		.loc 1 1200 0
 2385              		.cfi_startproc
 2386              		@ args = 0, pretend = 0, frame = 8
 2387              		@ frame_needed = 1, uses_anonymous_args = 0
 2388              		@ link register save eliminated.
 2389 0000 80B4     		push	{r7}
 2390              	.LCFI50:
 2391              		.cfi_def_cfa_offset 4
 2392              		.cfi_offset 7, -4
 2393 0002 83B0     		sub	sp, sp, #12
 2394              	.LCFI51:
 2395              		.cfi_def_cfa_offset 16
 2396 0004 00AF     		add	r7, sp, #0
 2397              	.LCFI52:
 2398              		.cfi_def_cfa_register 7
 2399 0006 7860     		str	r0, [r7, #4]
1201:App/STM32F4-Discovery/Libraries/STM32F4xx_StdPeriph_Driver/src/stm32f4xx_rtc.c ****   /* Alarm Time Settings : Time = 00h:00mn:00sec */
1202:App/STM32F4-Discovery/Libraries/STM32F4xx_StdPeriph_Driver/src/stm32f4xx_rtc.c ****   RTC_AlarmStruct->RTC_AlarmTime.RTC_H12 = RTC_H12_AM;
 2400              		.loc 1 1202 0
 2401 0008 7B68     		ldr	r3, [r7, #4]
 2402 000a 0022     		movs	r2, #0
 2403 000c DA70     		strb	r2, [r3, #3]
1203:App/STM32F4-Discovery/Libraries/STM32F4xx_StdPeriph_Driver/src/stm32f4xx_rtc.c ****   RTC_AlarmStruct->RTC_AlarmTime.RTC_Hours = 0;
 2404              		.loc 1 1203 0
 2405 000e 7B68     		ldr	r3, [r7, #4]
 2406 0010 0022     		movs	r2, #0
 2407 0012 1A70     		strb	r2, [r3]
1204:App/STM32F4-Discovery/Libraries/STM32F4xx_StdPeriph_Driver/src/stm32f4xx_rtc.c ****   RTC_AlarmStruct->RTC_AlarmTime.RTC_Minutes = 0;
 2408              		.loc 1 1204 0
 2409 0014 7B68     		ldr	r3, [r7, #4]
 2410 0016 0022     		movs	r2, #0
 2411 0018 5A70     		strb	r2, [r3, #1]
1205:App/STM32F4-Discovery/Libraries/STM32F4xx_StdPeriph_Driver/src/stm32f4xx_rtc.c ****   RTC_AlarmStruct->RTC_AlarmTime.RTC_Seconds = 0;
 2412              		.loc 1 1205 0
 2413 001a 7B68     		ldr	r3, [r7, #4]
 2414 001c 0022     		movs	r2, #0
 2415 001e 9A70     		strb	r2, [r3, #2]
1206:App/STM32F4-Discovery/Libraries/STM32F4xx_StdPeriph_Driver/src/stm32f4xx_rtc.c **** 
1207:App/STM32F4-Discovery/Libraries/STM32F4xx_StdPeriph_Driver/src/stm32f4xx_rtc.c ****   /* Alarm Date Settings : Date = 1st day of the month */
1208:App/STM32F4-Discovery/Libraries/STM32F4xx_StdPeriph_Driver/src/stm32f4xx_rtc.c ****   RTC_AlarmStruct->RTC_AlarmDateWeekDaySel = RTC_AlarmDateWeekDaySel_Date;
 2416              		.loc 1 1208 0
 2417 0020 7B68     		ldr	r3, [r7, #4]
 2418 0022 0022     		movs	r2, #0
 2419 0024 9A60     		str	r2, [r3, #8]
1209:App/STM32F4-Discovery/Libraries/STM32F4xx_StdPeriph_Driver/src/stm32f4xx_rtc.c ****   RTC_AlarmStruct->RTC_AlarmDateWeekDay = 1;
 2420              		.loc 1 1209 0
 2421 0026 7B68     		ldr	r3, [r7, #4]
 2422 0028 0122     		movs	r2, #1
 2423 002a 1A73     		strb	r2, [r3, #12]
1210:App/STM32F4-Discovery/Libraries/STM32F4xx_StdPeriph_Driver/src/stm32f4xx_rtc.c **** 
1211:App/STM32F4-Discovery/Libraries/STM32F4xx_StdPeriph_Driver/src/stm32f4xx_rtc.c ****   /* Alarm Masks Settings : Mask =  all fields are not masked */
1212:App/STM32F4-Discovery/Libraries/STM32F4xx_StdPeriph_Driver/src/stm32f4xx_rtc.c ****   RTC_AlarmStruct->RTC_AlarmMask = RTC_AlarmMask_None;
 2424              		.loc 1 1212 0
 2425 002c 7B68     		ldr	r3, [r7, #4]
 2426 002e 0022     		movs	r2, #0
 2427 0030 5A60     		str	r2, [r3, #4]
1213:App/STM32F4-Discovery/Libraries/STM32F4xx_StdPeriph_Driver/src/stm32f4xx_rtc.c **** }
 2428              		.loc 1 1213 0
 2429 0032 0C37     		adds	r7, r7, #12
 2430 0034 BD46     		mov	sp, r7
 2431              		@ sp needed
 2432 0036 5DF8047B 		ldr	r7, [sp], #4
 2433 003a 7047     		bx	lr
 2434              		.cfi_endproc
 2435              	.LFE127:
 2437              		.section	.text.RTC_GetAlarm,"ax",%progbits
 2438              		.align	2
 2439              		.global	RTC_GetAlarm
 2440              		.thumb
 2441              		.thumb_func
 2443              	RTC_GetAlarm:
 2444              	.LFB128:
1214:App/STM32F4-Discovery/Libraries/STM32F4xx_StdPeriph_Driver/src/stm32f4xx_rtc.c **** 
1215:App/STM32F4-Discovery/Libraries/STM32F4xx_StdPeriph_Driver/src/stm32f4xx_rtc.c **** /**
1216:App/STM32F4-Discovery/Libraries/STM32F4xx_StdPeriph_Driver/src/stm32f4xx_rtc.c ****   * @brief  Get the RTC Alarm value and masks.
1217:App/STM32F4-Discovery/Libraries/STM32F4xx_StdPeriph_Driver/src/stm32f4xx_rtc.c ****   * @param  RTC_Format: specifies the format of the output parameters.
1218:App/STM32F4-Discovery/Libraries/STM32F4xx_StdPeriph_Driver/src/stm32f4xx_rtc.c ****   *          This parameter can be one of the following values:
1219:App/STM32F4-Discovery/Libraries/STM32F4xx_StdPeriph_Driver/src/stm32f4xx_rtc.c ****   *            @arg RTC_Format_BIN: Binary data format 
1220:App/STM32F4-Discovery/Libraries/STM32F4xx_StdPeriph_Driver/src/stm32f4xx_rtc.c ****   *            @arg RTC_Format_BCD: BCD data format
1221:App/STM32F4-Discovery/Libraries/STM32F4xx_StdPeriph_Driver/src/stm32f4xx_rtc.c ****   * @param  RTC_Alarm: specifies the alarm to be read.
1222:App/STM32F4-Discovery/Libraries/STM32F4xx_StdPeriph_Driver/src/stm32f4xx_rtc.c ****   *          This parameter can be one of the following values:
1223:App/STM32F4-Discovery/Libraries/STM32F4xx_StdPeriph_Driver/src/stm32f4xx_rtc.c ****   *            @arg RTC_Alarm_A: to select Alarm A
1224:App/STM32F4-Discovery/Libraries/STM32F4xx_StdPeriph_Driver/src/stm32f4xx_rtc.c ****   *            @arg RTC_Alarm_B: to select Alarm B  
1225:App/STM32F4-Discovery/Libraries/STM32F4xx_StdPeriph_Driver/src/stm32f4xx_rtc.c ****   * @param  RTC_AlarmStruct: pointer to a RTC_AlarmTypeDef structure that will 
1226:App/STM32F4-Discovery/Libraries/STM32F4xx_StdPeriph_Driver/src/stm32f4xx_rtc.c ****   *                          contains the output alarm configuration values.     
1227:App/STM32F4-Discovery/Libraries/STM32F4xx_StdPeriph_Driver/src/stm32f4xx_rtc.c ****   * @retval None
1228:App/STM32F4-Discovery/Libraries/STM32F4xx_StdPeriph_Driver/src/stm32f4xx_rtc.c ****   */
1229:App/STM32F4-Discovery/Libraries/STM32F4xx_StdPeriph_Driver/src/stm32f4xx_rtc.c **** void RTC_GetAlarm(uint32_t RTC_Format, uint32_t RTC_Alarm, RTC_AlarmTypeDef* RTC_AlarmStruct)
1230:App/STM32F4-Discovery/Libraries/STM32F4xx_StdPeriph_Driver/src/stm32f4xx_rtc.c **** {
 2445              		.loc 1 1230 0
 2446              		.cfi_startproc
 2447              		@ args = 0, pretend = 0, frame = 24
 2448              		@ frame_needed = 1, uses_anonymous_args = 0
 2449 0000 80B5     		push	{r7, lr}
 2450              	.LCFI53:
 2451              		.cfi_def_cfa_offset 8
 2452              		.cfi_offset 7, -8
 2453              		.cfi_offset 14, -4
 2454 0002 86B0     		sub	sp, sp, #24
 2455              	.LCFI54:
 2456              		.cfi_def_cfa_offset 32
 2457 0004 00AF     		add	r7, sp, #0
 2458              	.LCFI55:
 2459              		.cfi_def_cfa_register 7
 2460 0006 F860     		str	r0, [r7, #12]
 2461 0008 B960     		str	r1, [r7, #8]
 2462 000a 7A60     		str	r2, [r7, #4]
1231:App/STM32F4-Discovery/Libraries/STM32F4xx_StdPeriph_Driver/src/stm32f4xx_rtc.c ****   uint32_t tmpreg = 0;
 2463              		.loc 1 1231 0
 2464 000c 0023     		movs	r3, #0
 2465 000e 7B61     		str	r3, [r7, #20]
1232:App/STM32F4-Discovery/Libraries/STM32F4xx_StdPeriph_Driver/src/stm32f4xx_rtc.c **** 
1233:App/STM32F4-Discovery/Libraries/STM32F4xx_StdPeriph_Driver/src/stm32f4xx_rtc.c ****   /* Check the parameters */
1234:App/STM32F4-Discovery/Libraries/STM32F4xx_StdPeriph_Driver/src/stm32f4xx_rtc.c ****   assert_param(IS_RTC_FORMAT(RTC_Format));
 2466              		.loc 1 1234 0
 2467 0010 FB68     		ldr	r3, [r7, #12]
 2468 0012 002B     		cmp	r3, #0
 2469 0014 07D0     		beq	.L159
 2470              		.loc 1 1234 0 is_stmt 0 discriminator 1
 2471 0016 FB68     		ldr	r3, [r7, #12]
 2472 0018 012B     		cmp	r3, #1
 2473 001a 04D0     		beq	.L159
 2474 001c 3948     		ldr	r0, .L164
 2475 001e 40F2D241 		movw	r1, #1234
 2476 0022 FFF7FEFF 		bl	assert_failed
 2477              	.L159:
1235:App/STM32F4-Discovery/Libraries/STM32F4xx_StdPeriph_Driver/src/stm32f4xx_rtc.c ****   assert_param(IS_RTC_ALARM(RTC_Alarm)); 
 2478              		.loc 1 1235 0 is_stmt 1
 2479 0026 BB68     		ldr	r3, [r7, #8]
 2480 0028 B3F5807F 		cmp	r3, #256
 2481 002c 08D0     		beq	.L160
 2482              		.loc 1 1235 0 is_stmt 0 discriminator 1
 2483 002e BB68     		ldr	r3, [r7, #8]
 2484 0030 B3F5007F 		cmp	r3, #512
 2485 0034 04D0     		beq	.L160
 2486 0036 3348     		ldr	r0, .L164
 2487 0038 40F2D341 		movw	r1, #1235
 2488 003c FFF7FEFF 		bl	assert_failed
 2489              	.L160:
1236:App/STM32F4-Discovery/Libraries/STM32F4xx_StdPeriph_Driver/src/stm32f4xx_rtc.c **** 
1237:App/STM32F4-Discovery/Libraries/STM32F4xx_StdPeriph_Driver/src/stm32f4xx_rtc.c ****   /* Get the RTC_ALRMxR register */
1238:App/STM32F4-Discovery/Libraries/STM32F4xx_StdPeriph_Driver/src/stm32f4xx_rtc.c ****   if (RTC_Alarm == RTC_Alarm_A)
 2490              		.loc 1 1238 0 is_stmt 1
 2491 0040 BB68     		ldr	r3, [r7, #8]
 2492 0042 B3F5807F 		cmp	r3, #256
 2493 0046 03D1     		bne	.L161
1239:App/STM32F4-Discovery/Libraries/STM32F4xx_StdPeriph_Driver/src/stm32f4xx_rtc.c ****   {
1240:App/STM32F4-Discovery/Libraries/STM32F4xx_StdPeriph_Driver/src/stm32f4xx_rtc.c ****     tmpreg = (uint32_t)(RTC->ALRMAR);
 2494              		.loc 1 1240 0
 2495 0048 2F4B     		ldr	r3, .L164+4
 2496 004a DB69     		ldr	r3, [r3, #28]
 2497 004c 7B61     		str	r3, [r7, #20]
 2498 004e 02E0     		b	.L162
 2499              	.L161:
1241:App/STM32F4-Discovery/Libraries/STM32F4xx_StdPeriph_Driver/src/stm32f4xx_rtc.c ****   }
1242:App/STM32F4-Discovery/Libraries/STM32F4xx_StdPeriph_Driver/src/stm32f4xx_rtc.c ****   else
1243:App/STM32F4-Discovery/Libraries/STM32F4xx_StdPeriph_Driver/src/stm32f4xx_rtc.c ****   {
1244:App/STM32F4-Discovery/Libraries/STM32F4xx_StdPeriph_Driver/src/stm32f4xx_rtc.c ****     tmpreg = (uint32_t)(RTC->ALRMBR);
 2500              		.loc 1 1244 0
 2501 0050 2D4B     		ldr	r3, .L164+4
 2502 0052 1B6A     		ldr	r3, [r3, #32]
 2503 0054 7B61     		str	r3, [r7, #20]
 2504              	.L162:
1245:App/STM32F4-Discovery/Libraries/STM32F4xx_StdPeriph_Driver/src/stm32f4xx_rtc.c ****   }
1246:App/STM32F4-Discovery/Libraries/STM32F4xx_StdPeriph_Driver/src/stm32f4xx_rtc.c **** 
1247:App/STM32F4-Discovery/Libraries/STM32F4xx_StdPeriph_Driver/src/stm32f4xx_rtc.c ****   /* Fill the structure with the read parameters */
1248:App/STM32F4-Discovery/Libraries/STM32F4xx_StdPeriph_Driver/src/stm32f4xx_rtc.c ****   RTC_AlarmStruct->RTC_AlarmTime.RTC_Hours = (uint32_t)((tmpreg & (RTC_ALRMAR_HT | \
 2505              		.loc 1 1248 0
 2506 0056 7B69     		ldr	r3, [r7, #20]
 2507 0058 03F47C13 		and	r3, r3, #4128768
 2508 005c 1B0C     		lsrs	r3, r3, #16
 2509 005e DAB2     		uxtb	r2, r3
 2510 0060 7B68     		ldr	r3, [r7, #4]
 2511 0062 1A70     		strb	r2, [r3]
1249:App/STM32F4-Discovery/Libraries/STM32F4xx_StdPeriph_Driver/src/stm32f4xx_rtc.c ****                                                      RTC_ALRMAR_HU)) >> 16);
1250:App/STM32F4-Discovery/Libraries/STM32F4xx_StdPeriph_Driver/src/stm32f4xx_rtc.c ****   RTC_AlarmStruct->RTC_AlarmTime.RTC_Minutes = (uint32_t)((tmpreg & (RTC_ALRMAR_MNT | \
 2512              		.loc 1 1250 0
 2513 0064 7B69     		ldr	r3, [r7, #20]
 2514 0066 03F4FE43 		and	r3, r3, #32512
 2515 006a 1B0A     		lsrs	r3, r3, #8
 2516 006c DAB2     		uxtb	r2, r3
 2517 006e 7B68     		ldr	r3, [r7, #4]
 2518 0070 5A70     		strb	r2, [r3, #1]
1251:App/STM32F4-Discovery/Libraries/STM32F4xx_StdPeriph_Driver/src/stm32f4xx_rtc.c ****                                                      RTC_ALRMAR_MNU)) >> 8);
1252:App/STM32F4-Discovery/Libraries/STM32F4xx_StdPeriph_Driver/src/stm32f4xx_rtc.c ****   RTC_AlarmStruct->RTC_AlarmTime.RTC_Seconds = (uint32_t)(tmpreg & (RTC_ALRMAR_ST | \
 2519              		.loc 1 1252 0
 2520 0072 7B69     		ldr	r3, [r7, #20]
 2521 0074 DBB2     		uxtb	r3, r3
 2522 0076 03F07F03 		and	r3, r3, #127
 2523 007a DAB2     		uxtb	r2, r3
 2524 007c 7B68     		ldr	r3, [r7, #4]
 2525 007e 9A70     		strb	r2, [r3, #2]
1253:App/STM32F4-Discovery/Libraries/STM32F4xx_StdPeriph_Driver/src/stm32f4xx_rtc.c ****                                                      RTC_ALRMAR_SU));
1254:App/STM32F4-Discovery/Libraries/STM32F4xx_StdPeriph_Driver/src/stm32f4xx_rtc.c ****   RTC_AlarmStruct->RTC_AlarmTime.RTC_H12 = (uint32_t)((tmpreg & RTC_ALRMAR_PM) >> 16);
 2526              		.loc 1 1254 0
 2527 0080 7B69     		ldr	r3, [r7, #20]
 2528 0082 03F48003 		and	r3, r3, #4194304
 2529 0086 1B0C     		lsrs	r3, r3, #16
 2530 0088 DAB2     		uxtb	r2, r3
 2531 008a 7B68     		ldr	r3, [r7, #4]
 2532 008c DA70     		strb	r2, [r3, #3]
1255:App/STM32F4-Discovery/Libraries/STM32F4xx_StdPeriph_Driver/src/stm32f4xx_rtc.c ****   RTC_AlarmStruct->RTC_AlarmDateWeekDay = (uint32_t)((tmpreg & (RTC_ALRMAR_DT | RTC_ALRMAR_DU)) >> 
 2533              		.loc 1 1255 0
 2534 008e 7B69     		ldr	r3, [r7, #20]
 2535 0090 03F07C53 		and	r3, r3, #1056964608
 2536 0094 1B0E     		lsrs	r3, r3, #24
 2537 0096 DAB2     		uxtb	r2, r3
 2538 0098 7B68     		ldr	r3, [r7, #4]
 2539 009a 1A73     		strb	r2, [r3, #12]
1256:App/STM32F4-Discovery/Libraries/STM32F4xx_StdPeriph_Driver/src/stm32f4xx_rtc.c ****   RTC_AlarmStruct->RTC_AlarmDateWeekDaySel = (uint32_t)(tmpreg & RTC_ALRMAR_WDSEL);
 2540              		.loc 1 1256 0
 2541 009c 7B69     		ldr	r3, [r7, #20]
 2542 009e 03F08042 		and	r2, r3, #1073741824
 2543 00a2 7B68     		ldr	r3, [r7, #4]
 2544 00a4 9A60     		str	r2, [r3, #8]
1257:App/STM32F4-Discovery/Libraries/STM32F4xx_StdPeriph_Driver/src/stm32f4xx_rtc.c ****   RTC_AlarmStruct->RTC_AlarmMask = (uint32_t)(tmpreg & RTC_AlarmMask_All);
 2545              		.loc 1 1257 0
 2546 00a6 7B69     		ldr	r3, [r7, #20]
 2547 00a8 03F08032 		and	r2, r3, #-2139062144
 2548 00ac 7B68     		ldr	r3, [r7, #4]
 2549 00ae 5A60     		str	r2, [r3, #4]
1258:App/STM32F4-Discovery/Libraries/STM32F4xx_StdPeriph_Driver/src/stm32f4xx_rtc.c **** 
1259:App/STM32F4-Discovery/Libraries/STM32F4xx_StdPeriph_Driver/src/stm32f4xx_rtc.c ****   if (RTC_Format == RTC_Format_BIN)
 2550              		.loc 1 1259 0
 2551 00b0 FB68     		ldr	r3, [r7, #12]
 2552 00b2 002B     		cmp	r3, #0
 2553 00b4 23D1     		bne	.L158
1260:App/STM32F4-Discovery/Libraries/STM32F4xx_StdPeriph_Driver/src/stm32f4xx_rtc.c ****   {
1261:App/STM32F4-Discovery/Libraries/STM32F4xx_StdPeriph_Driver/src/stm32f4xx_rtc.c ****     RTC_AlarmStruct->RTC_AlarmTime.RTC_Hours = RTC_Bcd2ToByte(RTC_AlarmStruct-> \
 2554              		.loc 1 1261 0
 2555 00b6 7B68     		ldr	r3, [r7, #4]
 2556 00b8 1B78     		ldrb	r3, [r3]	@ zero_extendqisi2
 2557 00ba 1846     		mov	r0, r3
 2558 00bc FFF7FEFF 		bl	RTC_Bcd2ToByte
 2559 00c0 0346     		mov	r3, r0
 2560 00c2 1A46     		mov	r2, r3
 2561 00c4 7B68     		ldr	r3, [r7, #4]
 2562 00c6 1A70     		strb	r2, [r3]
1262:App/STM32F4-Discovery/Libraries/STM32F4xx_StdPeriph_Driver/src/stm32f4xx_rtc.c ****                                                         RTC_AlarmTime.RTC_Hours);
1263:App/STM32F4-Discovery/Libraries/STM32F4xx_StdPeriph_Driver/src/stm32f4xx_rtc.c ****     RTC_AlarmStruct->RTC_AlarmTime.RTC_Minutes = RTC_Bcd2ToByte(RTC_AlarmStruct-> \
 2563              		.loc 1 1263 0
 2564 00c8 7B68     		ldr	r3, [r7, #4]
 2565 00ca 5B78     		ldrb	r3, [r3, #1]	@ zero_extendqisi2
 2566 00cc 1846     		mov	r0, r3
 2567 00ce FFF7FEFF 		bl	RTC_Bcd2ToByte
 2568 00d2 0346     		mov	r3, r0
 2569 00d4 1A46     		mov	r2, r3
 2570 00d6 7B68     		ldr	r3, [r7, #4]
 2571 00d8 5A70     		strb	r2, [r3, #1]
1264:App/STM32F4-Discovery/Libraries/STM32F4xx_StdPeriph_Driver/src/stm32f4xx_rtc.c ****                                                         RTC_AlarmTime.RTC_Minutes);
1265:App/STM32F4-Discovery/Libraries/STM32F4xx_StdPeriph_Driver/src/stm32f4xx_rtc.c ****     RTC_AlarmStruct->RTC_AlarmTime.RTC_Seconds = RTC_Bcd2ToByte(RTC_AlarmStruct-> \
 2572              		.loc 1 1265 0
 2573 00da 7B68     		ldr	r3, [r7, #4]
 2574 00dc 9B78     		ldrb	r3, [r3, #2]	@ zero_extendqisi2
 2575 00de 1846     		mov	r0, r3
 2576 00e0 FFF7FEFF 		bl	RTC_Bcd2ToByte
 2577 00e4 0346     		mov	r3, r0
 2578 00e6 1A46     		mov	r2, r3
 2579 00e8 7B68     		ldr	r3, [r7, #4]
 2580 00ea 9A70     		strb	r2, [r3, #2]
1266:App/STM32F4-Discovery/Libraries/STM32F4xx_StdPeriph_Driver/src/stm32f4xx_rtc.c ****                                                         RTC_AlarmTime.RTC_Seconds);
1267:App/STM32F4-Discovery/Libraries/STM32F4xx_StdPeriph_Driver/src/stm32f4xx_rtc.c ****     RTC_AlarmStruct->RTC_AlarmDateWeekDay = RTC_Bcd2ToByte(RTC_AlarmStruct->RTC_AlarmDateWeekDay);
 2581              		.loc 1 1267 0
 2582 00ec 7B68     		ldr	r3, [r7, #4]
 2583 00ee 1B7B     		ldrb	r3, [r3, #12]	@ zero_extendqisi2
 2584 00f0 1846     		mov	r0, r3
 2585 00f2 FFF7FEFF 		bl	RTC_Bcd2ToByte
 2586 00f6 0346     		mov	r3, r0
 2587 00f8 1A46     		mov	r2, r3
 2588 00fa 7B68     		ldr	r3, [r7, #4]
 2589 00fc 1A73     		strb	r2, [r3, #12]
 2590              	.L158:
1268:App/STM32F4-Discovery/Libraries/STM32F4xx_StdPeriph_Driver/src/stm32f4xx_rtc.c ****   }  
1269:App/STM32F4-Discovery/Libraries/STM32F4xx_StdPeriph_Driver/src/stm32f4xx_rtc.c **** }
 2591              		.loc 1 1269 0
 2592 00fe 1837     		adds	r7, r7, #24
 2593 0100 BD46     		mov	sp, r7
 2594              		@ sp needed
 2595 0102 80BD     		pop	{r7, pc}
 2596              	.L165:
 2597              		.align	2
 2598              	.L164:
 2599 0104 00000000 		.word	.LC0
 2600 0108 00280040 		.word	1073752064
 2601              		.cfi_endproc
 2602              	.LFE128:
 2604              		.section	.text.RTC_AlarmCmd,"ax",%progbits
 2605              		.align	2
 2606              		.global	RTC_AlarmCmd
 2607              		.thumb
 2608              		.thumb_func
 2610              	RTC_AlarmCmd:
 2611              	.LFB129:
1270:App/STM32F4-Discovery/Libraries/STM32F4xx_StdPeriph_Driver/src/stm32f4xx_rtc.c **** 
1271:App/STM32F4-Discovery/Libraries/STM32F4xx_StdPeriph_Driver/src/stm32f4xx_rtc.c **** /**
1272:App/STM32F4-Discovery/Libraries/STM32F4xx_StdPeriph_Driver/src/stm32f4xx_rtc.c ****   * @brief  Enables or disables the specified RTC Alarm.
1273:App/STM32F4-Discovery/Libraries/STM32F4xx_StdPeriph_Driver/src/stm32f4xx_rtc.c ****   * @param  RTC_Alarm: specifies the alarm to be configured.
1274:App/STM32F4-Discovery/Libraries/STM32F4xx_StdPeriph_Driver/src/stm32f4xx_rtc.c ****   *          This parameter can be any combination of the following values:
1275:App/STM32F4-Discovery/Libraries/STM32F4xx_StdPeriph_Driver/src/stm32f4xx_rtc.c ****   *            @arg RTC_Alarm_A: to select Alarm A
1276:App/STM32F4-Discovery/Libraries/STM32F4xx_StdPeriph_Driver/src/stm32f4xx_rtc.c ****   *            @arg RTC_Alarm_B: to select Alarm B  
1277:App/STM32F4-Discovery/Libraries/STM32F4xx_StdPeriph_Driver/src/stm32f4xx_rtc.c ****   * @param  NewState: new state of the specified alarm.
1278:App/STM32F4-Discovery/Libraries/STM32F4xx_StdPeriph_Driver/src/stm32f4xx_rtc.c ****   *          This parameter can be: ENABLE or DISABLE.
1279:App/STM32F4-Discovery/Libraries/STM32F4xx_StdPeriph_Driver/src/stm32f4xx_rtc.c ****   * @retval An ErrorStatus enumeration value:
1280:App/STM32F4-Discovery/Libraries/STM32F4xx_StdPeriph_Driver/src/stm32f4xx_rtc.c ****   *          - SUCCESS: RTC Alarm is enabled/disabled
1281:App/STM32F4-Discovery/Libraries/STM32F4xx_StdPeriph_Driver/src/stm32f4xx_rtc.c ****   *          - ERROR: RTC Alarm is not enabled/disabled  
1282:App/STM32F4-Discovery/Libraries/STM32F4xx_StdPeriph_Driver/src/stm32f4xx_rtc.c ****   */
1283:App/STM32F4-Discovery/Libraries/STM32F4xx_StdPeriph_Driver/src/stm32f4xx_rtc.c **** ErrorStatus RTC_AlarmCmd(uint32_t RTC_Alarm, FunctionalState NewState)
1284:App/STM32F4-Discovery/Libraries/STM32F4xx_StdPeriph_Driver/src/stm32f4xx_rtc.c **** {
 2612              		.loc 1 1284 0
 2613              		.cfi_startproc
 2614              		@ args = 0, pretend = 0, frame = 24
 2615              		@ frame_needed = 1, uses_anonymous_args = 0
 2616 0000 80B5     		push	{r7, lr}
 2617              	.LCFI56:
 2618              		.cfi_def_cfa_offset 8
 2619              		.cfi_offset 7, -8
 2620              		.cfi_offset 14, -4
 2621 0002 86B0     		sub	sp, sp, #24
 2622              	.LCFI57:
 2623              		.cfi_def_cfa_offset 32
 2624 0004 00AF     		add	r7, sp, #0
 2625              	.LCFI58:
 2626              		.cfi_def_cfa_register 7
 2627 0006 7860     		str	r0, [r7, #4]
 2628 0008 0B46     		mov	r3, r1
 2629 000a FB70     		strb	r3, [r7, #3]
1285:App/STM32F4-Discovery/Libraries/STM32F4xx_StdPeriph_Driver/src/stm32f4xx_rtc.c ****   __IO uint32_t alarmcounter = 0x00;
 2630              		.loc 1 1285 0
 2631 000c 0023     		movs	r3, #0
 2632 000e FB60     		str	r3, [r7, #12]
1286:App/STM32F4-Discovery/Libraries/STM32F4xx_StdPeriph_Driver/src/stm32f4xx_rtc.c ****   uint32_t alarmstatus = 0x00;
 2633              		.loc 1 1286 0
 2634 0010 0023     		movs	r3, #0
 2635 0012 3B61     		str	r3, [r7, #16]
1287:App/STM32F4-Discovery/Libraries/STM32F4xx_StdPeriph_Driver/src/stm32f4xx_rtc.c ****   ErrorStatus status = ERROR;
 2636              		.loc 1 1287 0
 2637 0014 0023     		movs	r3, #0
 2638 0016 FB75     		strb	r3, [r7, #23]
1288:App/STM32F4-Discovery/Libraries/STM32F4xx_StdPeriph_Driver/src/stm32f4xx_rtc.c ****     
1289:App/STM32F4-Discovery/Libraries/STM32F4xx_StdPeriph_Driver/src/stm32f4xx_rtc.c ****   /* Check the parameters */
1290:App/STM32F4-Discovery/Libraries/STM32F4xx_StdPeriph_Driver/src/stm32f4xx_rtc.c ****   assert_param(IS_RTC_CMD_ALARM(RTC_Alarm));
 2639              		.loc 1 1290 0
 2640 0018 7B68     		ldr	r3, [r7, #4]
 2641 001a 03F44073 		and	r3, r3, #768
 2642 001e 002B     		cmp	r3, #0
 2643 0020 04D1     		bne	.L167
 2644              		.loc 1 1290 0 is_stmt 0 discriminator 1
 2645 0022 2648     		ldr	r0, .L175
 2646 0024 40F20A51 		movw	r1, #1290
 2647 0028 FFF7FEFF 		bl	assert_failed
 2648              	.L167:
1291:App/STM32F4-Discovery/Libraries/STM32F4xx_StdPeriph_Driver/src/stm32f4xx_rtc.c ****   assert_param(IS_FUNCTIONAL_STATE(NewState));
 2649              		.loc 1 1291 0 is_stmt 1
 2650 002c FB78     		ldrb	r3, [r7, #3]	@ zero_extendqisi2
 2651 002e 002B     		cmp	r3, #0
 2652 0030 07D0     		beq	.L168
 2653              		.loc 1 1291 0 is_stmt 0 discriminator 1
 2654 0032 FB78     		ldrb	r3, [r7, #3]	@ zero_extendqisi2
 2655 0034 012B     		cmp	r3, #1
 2656 0036 04D0     		beq	.L168
 2657 0038 2048     		ldr	r0, .L175
 2658 003a 40F20B51 		movw	r1, #1291
 2659 003e FFF7FEFF 		bl	assert_failed
 2660              	.L168:
1292:App/STM32F4-Discovery/Libraries/STM32F4xx_StdPeriph_Driver/src/stm32f4xx_rtc.c **** 
1293:App/STM32F4-Discovery/Libraries/STM32F4xx_StdPeriph_Driver/src/stm32f4xx_rtc.c ****   /* Disable the write protection for RTC registers */
1294:App/STM32F4-Discovery/Libraries/STM32F4xx_StdPeriph_Driver/src/stm32f4xx_rtc.c ****   RTC->WPR = 0xCA;
 2661              		.loc 1 1294 0 is_stmt 1
 2662 0042 1F4B     		ldr	r3, .L175+4
 2663 0044 CA22     		movs	r2, #202
 2664 0046 5A62     		str	r2, [r3, #36]
1295:App/STM32F4-Discovery/Libraries/STM32F4xx_StdPeriph_Driver/src/stm32f4xx_rtc.c ****   RTC->WPR = 0x53;
 2665              		.loc 1 1295 0
 2666 0048 1D4B     		ldr	r3, .L175+4
 2667 004a 5322     		movs	r2, #83
 2668 004c 5A62     		str	r2, [r3, #36]
1296:App/STM32F4-Discovery/Libraries/STM32F4xx_StdPeriph_Driver/src/stm32f4xx_rtc.c **** 
1297:App/STM32F4-Discovery/Libraries/STM32F4xx_StdPeriph_Driver/src/stm32f4xx_rtc.c ****   /* Configure the Alarm state */
1298:App/STM32F4-Discovery/Libraries/STM32F4xx_StdPeriph_Driver/src/stm32f4xx_rtc.c ****   if (NewState != DISABLE)
 2669              		.loc 1 1298 0
 2670 004e FB78     		ldrb	r3, [r7, #3]	@ zero_extendqisi2
 2671 0050 002B     		cmp	r3, #0
 2672 0052 08D0     		beq	.L169
1299:App/STM32F4-Discovery/Libraries/STM32F4xx_StdPeriph_Driver/src/stm32f4xx_rtc.c ****   {
1300:App/STM32F4-Discovery/Libraries/STM32F4xx_StdPeriph_Driver/src/stm32f4xx_rtc.c ****     RTC->CR |= (uint32_t)RTC_Alarm;
 2673              		.loc 1 1300 0
 2674 0054 1A4B     		ldr	r3, .L175+4
 2675 0056 1A4A     		ldr	r2, .L175+4
 2676 0058 9168     		ldr	r1, [r2, #8]
 2677 005a 7A68     		ldr	r2, [r7, #4]
 2678 005c 0A43     		orrs	r2, r2, r1
 2679 005e 9A60     		str	r2, [r3, #8]
1301:App/STM32F4-Discovery/Libraries/STM32F4xx_StdPeriph_Driver/src/stm32f4xx_rtc.c **** 
1302:App/STM32F4-Discovery/Libraries/STM32F4xx_StdPeriph_Driver/src/stm32f4xx_rtc.c ****     status = SUCCESS;    
 2680              		.loc 1 1302 0
 2681 0060 0123     		movs	r3, #1
 2682 0062 FB75     		strb	r3, [r7, #23]
 2683 0064 22E0     		b	.L170
 2684              	.L169:
1303:App/STM32F4-Discovery/Libraries/STM32F4xx_StdPeriph_Driver/src/stm32f4xx_rtc.c ****   }
1304:App/STM32F4-Discovery/Libraries/STM32F4xx_StdPeriph_Driver/src/stm32f4xx_rtc.c ****   else
1305:App/STM32F4-Discovery/Libraries/STM32F4xx_StdPeriph_Driver/src/stm32f4xx_rtc.c ****   { 
1306:App/STM32F4-Discovery/Libraries/STM32F4xx_StdPeriph_Driver/src/stm32f4xx_rtc.c ****     /* Disable the Alarm in RTC_CR register */
1307:App/STM32F4-Discovery/Libraries/STM32F4xx_StdPeriph_Driver/src/stm32f4xx_rtc.c ****     RTC->CR &= (uint32_t)~RTC_Alarm;
 2685              		.loc 1 1307 0
 2686 0066 164B     		ldr	r3, .L175+4
 2687 0068 154A     		ldr	r2, .L175+4
 2688 006a 9168     		ldr	r1, [r2, #8]
 2689 006c 7A68     		ldr	r2, [r7, #4]
 2690 006e D243     		mvns	r2, r2
 2691 0070 0A40     		ands	r2, r2, r1
 2692 0072 9A60     		str	r2, [r3, #8]
 2693              	.L172:
1308:App/STM32F4-Discovery/Libraries/STM32F4xx_StdPeriph_Driver/src/stm32f4xx_rtc.c ****    
1309:App/STM32F4-Discovery/Libraries/STM32F4xx_StdPeriph_Driver/src/stm32f4xx_rtc.c ****     /* Wait till RTC ALRxWF flag is set and if Time out is reached exit */
1310:App/STM32F4-Discovery/Libraries/STM32F4xx_StdPeriph_Driver/src/stm32f4xx_rtc.c ****     do
1311:App/STM32F4-Discovery/Libraries/STM32F4xx_StdPeriph_Driver/src/stm32f4xx_rtc.c ****     {
1312:App/STM32F4-Discovery/Libraries/STM32F4xx_StdPeriph_Driver/src/stm32f4xx_rtc.c ****       alarmstatus = RTC->ISR & (RTC_Alarm >> 8);
 2694              		.loc 1 1312 0 discriminator 1
 2695 0074 124B     		ldr	r3, .L175+4
 2696 0076 DA68     		ldr	r2, [r3, #12]
 2697 0078 7B68     		ldr	r3, [r7, #4]
 2698 007a 1B0A     		lsrs	r3, r3, #8
 2699 007c 1340     		ands	r3, r3, r2
 2700 007e 3B61     		str	r3, [r7, #16]
1313:App/STM32F4-Discovery/Libraries/STM32F4xx_StdPeriph_Driver/src/stm32f4xx_rtc.c ****       alarmcounter++;  
 2701              		.loc 1 1313 0 discriminator 1
 2702 0080 FB68     		ldr	r3, [r7, #12]
 2703 0082 0133     		adds	r3, r3, #1
 2704 0084 FB60     		str	r3, [r7, #12]
1314:App/STM32F4-Discovery/Libraries/STM32F4xx_StdPeriph_Driver/src/stm32f4xx_rtc.c ****     } while((alarmcounter != INITMODE_TIMEOUT) && (alarmstatus == 0x00));
 2705              		.loc 1 1314 0 discriminator 1
 2706 0086 FB68     		ldr	r3, [r7, #12]
 2707 0088 B3F5803F 		cmp	r3, #65536
 2708 008c 02D0     		beq	.L171
 2709 008e 3B69     		ldr	r3, [r7, #16]
 2710 0090 002B     		cmp	r3, #0
 2711 0092 EFD0     		beq	.L172
 2712              	.L171:
1315:App/STM32F4-Discovery/Libraries/STM32F4xx_StdPeriph_Driver/src/stm32f4xx_rtc.c ****     
1316:App/STM32F4-Discovery/Libraries/STM32F4xx_StdPeriph_Driver/src/stm32f4xx_rtc.c ****     if ((RTC->ISR & (RTC_Alarm >> 8)) == RESET)
 2713              		.loc 1 1316 0
 2714 0094 0A4B     		ldr	r3, .L175+4
 2715 0096 DA68     		ldr	r2, [r3, #12]
 2716 0098 7B68     		ldr	r3, [r7, #4]
 2717 009a 1B0A     		lsrs	r3, r3, #8
 2718 009c 1340     		ands	r3, r3, r2
 2719 009e 002B     		cmp	r3, #0
 2720 00a0 02D1     		bne	.L173
1317:App/STM32F4-Discovery/Libraries/STM32F4xx_StdPeriph_Driver/src/stm32f4xx_rtc.c ****     {
1318:App/STM32F4-Discovery/Libraries/STM32F4xx_StdPeriph_Driver/src/stm32f4xx_rtc.c ****       status = ERROR;
 2721              		.loc 1 1318 0
 2722 00a2 0023     		movs	r3, #0
 2723 00a4 FB75     		strb	r3, [r7, #23]
 2724 00a6 01E0     		b	.L170
 2725              	.L173:
1319:App/STM32F4-Discovery/Libraries/STM32F4xx_StdPeriph_Driver/src/stm32f4xx_rtc.c ****     } 
1320:App/STM32F4-Discovery/Libraries/STM32F4xx_StdPeriph_Driver/src/stm32f4xx_rtc.c ****     else
1321:App/STM32F4-Discovery/Libraries/STM32F4xx_StdPeriph_Driver/src/stm32f4xx_rtc.c ****     {
1322:App/STM32F4-Discovery/Libraries/STM32F4xx_StdPeriph_Driver/src/stm32f4xx_rtc.c ****       status = SUCCESS;
 2726              		.loc 1 1322 0
 2727 00a8 0123     		movs	r3, #1
 2728 00aa FB75     		strb	r3, [r7, #23]
 2729              	.L170:
1323:App/STM32F4-Discovery/Libraries/STM32F4xx_StdPeriph_Driver/src/stm32f4xx_rtc.c ****     }        
1324:App/STM32F4-Discovery/Libraries/STM32F4xx_StdPeriph_Driver/src/stm32f4xx_rtc.c ****   } 
1325:App/STM32F4-Discovery/Libraries/STM32F4xx_StdPeriph_Driver/src/stm32f4xx_rtc.c **** 
1326:App/STM32F4-Discovery/Libraries/STM32F4xx_StdPeriph_Driver/src/stm32f4xx_rtc.c ****   /* Enable the write protection for RTC registers */
1327:App/STM32F4-Discovery/Libraries/STM32F4xx_StdPeriph_Driver/src/stm32f4xx_rtc.c ****   RTC->WPR = 0xFF; 
 2730              		.loc 1 1327 0
 2731 00ac 044B     		ldr	r3, .L175+4
 2732 00ae FF22     		movs	r2, #255
 2733 00b0 5A62     		str	r2, [r3, #36]
1328:App/STM32F4-Discovery/Libraries/STM32F4xx_StdPeriph_Driver/src/stm32f4xx_rtc.c ****   
1329:App/STM32F4-Discovery/Libraries/STM32F4xx_StdPeriph_Driver/src/stm32f4xx_rtc.c ****   return status;
 2734              		.loc 1 1329 0
 2735 00b2 FB7D     		ldrb	r3, [r7, #23]	@ zero_extendqisi2
1330:App/STM32F4-Discovery/Libraries/STM32F4xx_StdPeriph_Driver/src/stm32f4xx_rtc.c **** }
 2736              		.loc 1 1330 0
 2737 00b4 1846     		mov	r0, r3
 2738 00b6 1837     		adds	r7, r7, #24
 2739 00b8 BD46     		mov	sp, r7
 2740              		@ sp needed
 2741 00ba 80BD     		pop	{r7, pc}
 2742              	.L176:
 2743              		.align	2
 2744              	.L175:
 2745 00bc 00000000 		.word	.LC0
 2746 00c0 00280040 		.word	1073752064
 2747              		.cfi_endproc
 2748              	.LFE129:
 2750              		.section	.text.RTC_AlarmSubSecondConfig,"ax",%progbits
 2751              		.align	2
 2752              		.global	RTC_AlarmSubSecondConfig
 2753              		.thumb
 2754              		.thumb_func
 2756              	RTC_AlarmSubSecondConfig:
 2757              	.LFB130:
1331:App/STM32F4-Discovery/Libraries/STM32F4xx_StdPeriph_Driver/src/stm32f4xx_rtc.c **** 
1332:App/STM32F4-Discovery/Libraries/STM32F4xx_StdPeriph_Driver/src/stm32f4xx_rtc.c **** /**
1333:App/STM32F4-Discovery/Libraries/STM32F4xx_StdPeriph_Driver/src/stm32f4xx_rtc.c ****   * @brief  Configure the RTC AlarmA/B Subseconds value and mask.*
1334:App/STM32F4-Discovery/Libraries/STM32F4xx_StdPeriph_Driver/src/stm32f4xx_rtc.c ****   * @note   This function is performed only when the Alarm is disabled. 
1335:App/STM32F4-Discovery/Libraries/STM32F4xx_StdPeriph_Driver/src/stm32f4xx_rtc.c ****   * @param  RTC_Alarm: specifies the alarm to be configured.
1336:App/STM32F4-Discovery/Libraries/STM32F4xx_StdPeriph_Driver/src/stm32f4xx_rtc.c ****   *   This parameter can be one of the following values:
1337:App/STM32F4-Discovery/Libraries/STM32F4xx_StdPeriph_Driver/src/stm32f4xx_rtc.c ****   *     @arg RTC_Alarm_A: to select Alarm A
1338:App/STM32F4-Discovery/Libraries/STM32F4xx_StdPeriph_Driver/src/stm32f4xx_rtc.c ****   *     @arg RTC_Alarm_B: to select Alarm B
1339:App/STM32F4-Discovery/Libraries/STM32F4xx_StdPeriph_Driver/src/stm32f4xx_rtc.c ****   * @param  RTC_AlarmSubSecondValue: specifies the Subseconds value.
1340:App/STM32F4-Discovery/Libraries/STM32F4xx_StdPeriph_Driver/src/stm32f4xx_rtc.c ****   *   This parameter can be a value from 0 to 0x00007FFF.
1341:App/STM32F4-Discovery/Libraries/STM32F4xx_StdPeriph_Driver/src/stm32f4xx_rtc.c ****   * @param  RTC_AlarmSubSecondMask:  specifies the Subseconds Mask.
1342:App/STM32F4-Discovery/Libraries/STM32F4xx_StdPeriph_Driver/src/stm32f4xx_rtc.c ****   *   This parameter can be any combination of the following values:
1343:App/STM32F4-Discovery/Libraries/STM32F4xx_StdPeriph_Driver/src/stm32f4xx_rtc.c ****   *     @arg RTC_AlarmSubSecondMask_All    : All Alarm SS fields are masked.
1344:App/STM32F4-Discovery/Libraries/STM32F4xx_StdPeriph_Driver/src/stm32f4xx_rtc.c ****   *                                          There is no comparison on sub seconds for Alarm.
1345:App/STM32F4-Discovery/Libraries/STM32F4xx_StdPeriph_Driver/src/stm32f4xx_rtc.c ****   *     @arg RTC_AlarmSubSecondMask_SS14_1 : SS[14:1] are don't care in Alarm comparison.
1346:App/STM32F4-Discovery/Libraries/STM32F4xx_StdPeriph_Driver/src/stm32f4xx_rtc.c ****   *                                          Only SS[0] is compared
1347:App/STM32F4-Discovery/Libraries/STM32F4xx_StdPeriph_Driver/src/stm32f4xx_rtc.c ****   *     @arg RTC_AlarmSubSecondMask_SS14_2 : SS[14:2] are don't care in Alarm comparison.
1348:App/STM32F4-Discovery/Libraries/STM32F4xx_StdPeriph_Driver/src/stm32f4xx_rtc.c ****   *                                          Only SS[1:0] are compared
1349:App/STM32F4-Discovery/Libraries/STM32F4xx_StdPeriph_Driver/src/stm32f4xx_rtc.c ****   *     @arg RTC_AlarmSubSecondMask_SS14_3 : SS[14:3] are don't care in Alarm comparison.
1350:App/STM32F4-Discovery/Libraries/STM32F4xx_StdPeriph_Driver/src/stm32f4xx_rtc.c ****   *                                          Only SS[2:0] are compared
1351:App/STM32F4-Discovery/Libraries/STM32F4xx_StdPeriph_Driver/src/stm32f4xx_rtc.c ****   *     @arg RTC_AlarmSubSecondMask_SS14_4 : SS[14:4] are don't care in Alarm comparison.
1352:App/STM32F4-Discovery/Libraries/STM32F4xx_StdPeriph_Driver/src/stm32f4xx_rtc.c ****   *                                          Only SS[3:0] are compared
1353:App/STM32F4-Discovery/Libraries/STM32F4xx_StdPeriph_Driver/src/stm32f4xx_rtc.c ****   *     @arg RTC_AlarmSubSecondMask_SS14_5 : SS[14:5] are don't care in Alarm comparison.
1354:App/STM32F4-Discovery/Libraries/STM32F4xx_StdPeriph_Driver/src/stm32f4xx_rtc.c ****   *                                          Only SS[4:0] are compared
1355:App/STM32F4-Discovery/Libraries/STM32F4xx_StdPeriph_Driver/src/stm32f4xx_rtc.c ****   *     @arg RTC_AlarmSubSecondMask_SS14_6 : SS[14:6] are don't care in Alarm comparison.
1356:App/STM32F4-Discovery/Libraries/STM32F4xx_StdPeriph_Driver/src/stm32f4xx_rtc.c ****   *                                          Only SS[5:0] are compared
1357:App/STM32F4-Discovery/Libraries/STM32F4xx_StdPeriph_Driver/src/stm32f4xx_rtc.c ****   *     @arg RTC_AlarmSubSecondMask_SS14_7 : SS[14:7] are don't care in Alarm comparison.
1358:App/STM32F4-Discovery/Libraries/STM32F4xx_StdPeriph_Driver/src/stm32f4xx_rtc.c ****   *                                          Only SS[6:0] are compared
1359:App/STM32F4-Discovery/Libraries/STM32F4xx_StdPeriph_Driver/src/stm32f4xx_rtc.c ****   *     @arg RTC_AlarmSubSecondMask_SS14_8 : SS[14:8] are don't care in Alarm comparison.
1360:App/STM32F4-Discovery/Libraries/STM32F4xx_StdPeriph_Driver/src/stm32f4xx_rtc.c ****   *                                          Only SS[7:0] are compared
1361:App/STM32F4-Discovery/Libraries/STM32F4xx_StdPeriph_Driver/src/stm32f4xx_rtc.c ****   *     @arg RTC_AlarmSubSecondMask_SS14_9 : SS[14:9] are don't care in Alarm comparison.
1362:App/STM32F4-Discovery/Libraries/STM32F4xx_StdPeriph_Driver/src/stm32f4xx_rtc.c ****   *                                          Only SS[8:0] are compared
1363:App/STM32F4-Discovery/Libraries/STM32F4xx_StdPeriph_Driver/src/stm32f4xx_rtc.c ****   *     @arg RTC_AlarmSubSecondMask_SS14_10: SS[14:10] are don't care in Alarm comparison.
1364:App/STM32F4-Discovery/Libraries/STM32F4xx_StdPeriph_Driver/src/stm32f4xx_rtc.c ****   *                                          Only SS[9:0] are compared
1365:App/STM32F4-Discovery/Libraries/STM32F4xx_StdPeriph_Driver/src/stm32f4xx_rtc.c ****   *     @arg RTC_AlarmSubSecondMask_SS14_11: SS[14:11] are don't care in Alarm comparison.
1366:App/STM32F4-Discovery/Libraries/STM32F4xx_StdPeriph_Driver/src/stm32f4xx_rtc.c ****   *                                          Only SS[10:0] are compared
1367:App/STM32F4-Discovery/Libraries/STM32F4xx_StdPeriph_Driver/src/stm32f4xx_rtc.c ****   *     @arg RTC_AlarmSubSecondMask_SS14_12: SS[14:12] are don't care in Alarm comparison.
1368:App/STM32F4-Discovery/Libraries/STM32F4xx_StdPeriph_Driver/src/stm32f4xx_rtc.c ****   *                                          Only SS[11:0] are compared
1369:App/STM32F4-Discovery/Libraries/STM32F4xx_StdPeriph_Driver/src/stm32f4xx_rtc.c ****   *     @arg RTC_AlarmSubSecondMask_SS14_13: SS[14:13] are don't care in Alarm comparison.
1370:App/STM32F4-Discovery/Libraries/STM32F4xx_StdPeriph_Driver/src/stm32f4xx_rtc.c ****   *                                          Only SS[12:0] are compared
1371:App/STM32F4-Discovery/Libraries/STM32F4xx_StdPeriph_Driver/src/stm32f4xx_rtc.c ****   *     @arg RTC_AlarmSubSecondMask_SS14   : SS[14] is don't care in Alarm comparison.
1372:App/STM32F4-Discovery/Libraries/STM32F4xx_StdPeriph_Driver/src/stm32f4xx_rtc.c ****   *                                          Only SS[13:0] are compared
1373:App/STM32F4-Discovery/Libraries/STM32F4xx_StdPeriph_Driver/src/stm32f4xx_rtc.c ****   *     @arg RTC_AlarmSubSecondMask_None   : SS[14:0] are compared and must match
1374:App/STM32F4-Discovery/Libraries/STM32F4xx_StdPeriph_Driver/src/stm32f4xx_rtc.c ****   *                                          to activate alarm
1375:App/STM32F4-Discovery/Libraries/STM32F4xx_StdPeriph_Driver/src/stm32f4xx_rtc.c ****   * @retval None
1376:App/STM32F4-Discovery/Libraries/STM32F4xx_StdPeriph_Driver/src/stm32f4xx_rtc.c ****   */
1377:App/STM32F4-Discovery/Libraries/STM32F4xx_StdPeriph_Driver/src/stm32f4xx_rtc.c **** void RTC_AlarmSubSecondConfig(uint32_t RTC_Alarm, uint32_t RTC_AlarmSubSecondValue, uint32_t RTC_Al
1378:App/STM32F4-Discovery/Libraries/STM32F4xx_StdPeriph_Driver/src/stm32f4xx_rtc.c **** {
 2758              		.loc 1 1378 0
 2759              		.cfi_startproc
 2760              		@ args = 0, pretend = 0, frame = 24
 2761              		@ frame_needed = 1, uses_anonymous_args = 0
 2762 0000 80B5     		push	{r7, lr}
 2763              	.LCFI59:
 2764              		.cfi_def_cfa_offset 8
 2765              		.cfi_offset 7, -8
 2766              		.cfi_offset 14, -4
 2767 0002 86B0     		sub	sp, sp, #24
 2768              	.LCFI60:
 2769              		.cfi_def_cfa_offset 32
 2770 0004 00AF     		add	r7, sp, #0
 2771              	.LCFI61:
 2772              		.cfi_def_cfa_register 7
 2773 0006 F860     		str	r0, [r7, #12]
 2774 0008 B960     		str	r1, [r7, #8]
 2775 000a 7A60     		str	r2, [r7, #4]
1379:App/STM32F4-Discovery/Libraries/STM32F4xx_StdPeriph_Driver/src/stm32f4xx_rtc.c ****   uint32_t tmpreg = 0;
 2776              		.loc 1 1379 0
 2777 000c 0023     		movs	r3, #0
 2778 000e 7B61     		str	r3, [r7, #20]
1380:App/STM32F4-Discovery/Libraries/STM32F4xx_StdPeriph_Driver/src/stm32f4xx_rtc.c **** 
1381:App/STM32F4-Discovery/Libraries/STM32F4xx_StdPeriph_Driver/src/stm32f4xx_rtc.c ****   /* Check the parameters */
1382:App/STM32F4-Discovery/Libraries/STM32F4xx_StdPeriph_Driver/src/stm32f4xx_rtc.c ****   assert_param(IS_RTC_ALARM(RTC_Alarm));
 2779              		.loc 1 1382 0
 2780 0010 FB68     		ldr	r3, [r7, #12]
 2781 0012 B3F5807F 		cmp	r3, #256
 2782 0016 08D0     		beq	.L178
 2783              		.loc 1 1382 0 is_stmt 0 discriminator 1
 2784 0018 FB68     		ldr	r3, [r7, #12]
 2785 001a B3F5007F 		cmp	r3, #512
 2786 001e 04D0     		beq	.L178
 2787 0020 3648     		ldr	r0, .L183
 2788 0022 40F26651 		movw	r1, #1382
 2789 0026 FFF7FEFF 		bl	assert_failed
 2790              	.L178:
1383:App/STM32F4-Discovery/Libraries/STM32F4xx_StdPeriph_Driver/src/stm32f4xx_rtc.c ****   assert_param(IS_RTC_ALARM_SUB_SECOND_VALUE(RTC_AlarmSubSecondValue));
 2791              		.loc 1 1383 0 is_stmt 1
 2792 002a BB68     		ldr	r3, [r7, #8]
 2793 002c B3F5004F 		cmp	r3, #32768
 2794 0030 04D3     		bcc	.L179
 2795              		.loc 1 1383 0 is_stmt 0 discriminator 1
 2796 0032 3248     		ldr	r0, .L183
 2797 0034 40F26751 		movw	r1, #1383
 2798 0038 FFF7FEFF 		bl	assert_failed
 2799              	.L179:
1384:App/STM32F4-Discovery/Libraries/STM32F4xx_StdPeriph_Driver/src/stm32f4xx_rtc.c ****   assert_param(IS_RTC_ALARM_SUB_SECOND_MASK(RTC_AlarmSubSecondMask));
 2800              		.loc 1 1384 0 is_stmt 1
 2801 003c 7B68     		ldr	r3, [r7, #4]
 2802 003e 002B     		cmp	r3, #0
 2803 0040 40D0     		beq	.L180
 2804              		.loc 1 1384 0 is_stmt 0 discriminator 1
 2805 0042 7B68     		ldr	r3, [r7, #4]
 2806 0044 B3F1807F 		cmp	r3, #16777216
 2807 0048 3CD0     		beq	.L180
 2808 004a 7B68     		ldr	r3, [r7, #4]
 2809 004c B3F1007F 		cmp	r3, #33554432
 2810 0050 38D0     		beq	.L180
 2811 0052 7B68     		ldr	r3, [r7, #4]
 2812 0054 B3F1407F 		cmp	r3, #50331648
 2813 0058 34D0     		beq	.L180
 2814 005a 7B68     		ldr	r3, [r7, #4]
 2815 005c B3F1806F 		cmp	r3, #67108864
 2816 0060 30D0     		beq	.L180
 2817 0062 7B68     		ldr	r3, [r7, #4]
 2818 0064 B3F1A06F 		cmp	r3, #83886080
 2819 0068 2CD0     		beq	.L180
 2820 006a 7B68     		ldr	r3, [r7, #4]
 2821 006c B3F1C06F 		cmp	r3, #100663296
 2822 0070 28D0     		beq	.L180
 2823 0072 7B68     		ldr	r3, [r7, #4]
 2824 0074 B3F1E06F 		cmp	r3, #117440512
 2825 0078 24D0     		beq	.L180
 2826 007a 7B68     		ldr	r3, [r7, #4]
 2827 007c B3F1006F 		cmp	r3, #134217728
 2828 0080 20D0     		beq	.L180
 2829 0082 7B68     		ldr	r3, [r7, #4]
 2830 0084 B3F1106F 		cmp	r3, #150994944
 2831 0088 1CD0     		beq	.L180
 2832 008a 7B68     		ldr	r3, [r7, #4]
 2833 008c B3F1206F 		cmp	r3, #167772160
 2834 0090 18D0     		beq	.L180
 2835 0092 7B68     		ldr	r3, [r7, #4]
 2836 0094 B3F1306F 		cmp	r3, #184549376
 2837 0098 14D0     		beq	.L180
 2838 009a 7B68     		ldr	r3, [r7, #4]
 2839 009c B3F1406F 		cmp	r3, #201326592
 2840 00a0 10D0     		beq	.L180
 2841 00a2 7B68     		ldr	r3, [r7, #4]
 2842 00a4 B3F1506F 		cmp	r3, #218103808
 2843 00a8 0CD0     		beq	.L180
 2844 00aa 7B68     		ldr	r3, [r7, #4]
 2845 00ac B3F1606F 		cmp	r3, #234881024
 2846 00b0 08D0     		beq	.L180
 2847 00b2 7B68     		ldr	r3, [r7, #4]
 2848 00b4 B3F1706F 		cmp	r3, #251658240
 2849 00b8 04D0     		beq	.L180
 2850 00ba 1048     		ldr	r0, .L183
 2851 00bc 4FF4AD61 		mov	r1, #1384
 2852 00c0 FFF7FEFF 		bl	assert_failed
 2853              	.L180:
1385:App/STM32F4-Discovery/Libraries/STM32F4xx_StdPeriph_Driver/src/stm32f4xx_rtc.c ****   
1386:App/STM32F4-Discovery/Libraries/STM32F4xx_StdPeriph_Driver/src/stm32f4xx_rtc.c ****   /* Disable the write protection for RTC registers */
1387:App/STM32F4-Discovery/Libraries/STM32F4xx_StdPeriph_Driver/src/stm32f4xx_rtc.c ****   RTC->WPR = 0xCA;
 2854              		.loc 1 1387 0 is_stmt 1
 2855 00c4 0E4B     		ldr	r3, .L183+4
 2856 00c6 CA22     		movs	r2, #202
 2857 00c8 5A62     		str	r2, [r3, #36]
1388:App/STM32F4-Discovery/Libraries/STM32F4xx_StdPeriph_Driver/src/stm32f4xx_rtc.c ****   RTC->WPR = 0x53;
 2858              		.loc 1 1388 0
 2859 00ca 0D4B     		ldr	r3, .L183+4
 2860 00cc 5322     		movs	r2, #83
 2861 00ce 5A62     		str	r2, [r3, #36]
1389:App/STM32F4-Discovery/Libraries/STM32F4xx_StdPeriph_Driver/src/stm32f4xx_rtc.c ****   
1390:App/STM32F4-Discovery/Libraries/STM32F4xx_StdPeriph_Driver/src/stm32f4xx_rtc.c ****   /* Configure the Alarm A or Alarm B SubSecond registers */
1391:App/STM32F4-Discovery/Libraries/STM32F4xx_StdPeriph_Driver/src/stm32f4xx_rtc.c ****   tmpreg = (uint32_t) (uint32_t)(RTC_AlarmSubSecondValue) | (uint32_t)(RTC_AlarmSubSecondMask);
 2862              		.loc 1 1391 0
 2863 00d0 BA68     		ldr	r2, [r7, #8]
 2864 00d2 7B68     		ldr	r3, [r7, #4]
 2865 00d4 1343     		orrs	r3, r3, r2
 2866 00d6 7B61     		str	r3, [r7, #20]
1392:App/STM32F4-Discovery/Libraries/STM32F4xx_StdPeriph_Driver/src/stm32f4xx_rtc.c ****   
1393:App/STM32F4-Discovery/Libraries/STM32F4xx_StdPeriph_Driver/src/stm32f4xx_rtc.c ****   if (RTC_Alarm == RTC_Alarm_A)
 2867              		.loc 1 1393 0
 2868 00d8 FB68     		ldr	r3, [r7, #12]
 2869 00da B3F5807F 		cmp	r3, #256
 2870 00de 03D1     		bne	.L181
1394:App/STM32F4-Discovery/Libraries/STM32F4xx_StdPeriph_Driver/src/stm32f4xx_rtc.c ****   {
1395:App/STM32F4-Discovery/Libraries/STM32F4xx_StdPeriph_Driver/src/stm32f4xx_rtc.c ****     /* Configure the AlarmA SubSecond register */
1396:App/STM32F4-Discovery/Libraries/STM32F4xx_StdPeriph_Driver/src/stm32f4xx_rtc.c ****     RTC->ALRMASSR = tmpreg;
 2871              		.loc 1 1396 0
 2872 00e0 074B     		ldr	r3, .L183+4
 2873 00e2 7A69     		ldr	r2, [r7, #20]
 2874 00e4 5A64     		str	r2, [r3, #68]
 2875 00e6 02E0     		b	.L182
 2876              	.L181:
1397:App/STM32F4-Discovery/Libraries/STM32F4xx_StdPeriph_Driver/src/stm32f4xx_rtc.c ****   }
1398:App/STM32F4-Discovery/Libraries/STM32F4xx_StdPeriph_Driver/src/stm32f4xx_rtc.c ****   else
1399:App/STM32F4-Discovery/Libraries/STM32F4xx_StdPeriph_Driver/src/stm32f4xx_rtc.c ****   {
1400:App/STM32F4-Discovery/Libraries/STM32F4xx_StdPeriph_Driver/src/stm32f4xx_rtc.c ****     /* Configure the Alarm B SubSecond register */
1401:App/STM32F4-Discovery/Libraries/STM32F4xx_StdPeriph_Driver/src/stm32f4xx_rtc.c ****     RTC->ALRMBSSR = tmpreg;
 2877              		.loc 1 1401 0
 2878 00e8 054B     		ldr	r3, .L183+4
 2879 00ea 7A69     		ldr	r2, [r7, #20]
 2880 00ec 9A64     		str	r2, [r3, #72]
 2881              	.L182:
1402:App/STM32F4-Discovery/Libraries/STM32F4xx_StdPeriph_Driver/src/stm32f4xx_rtc.c ****   }
1403:App/STM32F4-Discovery/Libraries/STM32F4xx_StdPeriph_Driver/src/stm32f4xx_rtc.c **** 
1404:App/STM32F4-Discovery/Libraries/STM32F4xx_StdPeriph_Driver/src/stm32f4xx_rtc.c ****   /* Enable the write protection for RTC registers */
1405:App/STM32F4-Discovery/Libraries/STM32F4xx_StdPeriph_Driver/src/stm32f4xx_rtc.c ****   RTC->WPR = 0xFF;
 2882              		.loc 1 1405 0
 2883 00ee 044B     		ldr	r3, .L183+4
 2884 00f0 FF22     		movs	r2, #255
 2885 00f2 5A62     		str	r2, [r3, #36]
1406:App/STM32F4-Discovery/Libraries/STM32F4xx_StdPeriph_Driver/src/stm32f4xx_rtc.c **** 
1407:App/STM32F4-Discovery/Libraries/STM32F4xx_StdPeriph_Driver/src/stm32f4xx_rtc.c **** }
 2886              		.loc 1 1407 0
 2887 00f4 1837     		adds	r7, r7, #24
 2888 00f6 BD46     		mov	sp, r7
 2889              		@ sp needed
 2890 00f8 80BD     		pop	{r7, pc}
 2891              	.L184:
 2892 00fa 00BF     		.align	2
 2893              	.L183:
 2894 00fc 00000000 		.word	.LC0
 2895 0100 00280040 		.word	1073752064
 2896              		.cfi_endproc
 2897              	.LFE130:
 2899              		.section	.text.RTC_GetAlarmSubSecond,"ax",%progbits
 2900              		.align	2
 2901              		.global	RTC_GetAlarmSubSecond
 2902              		.thumb
 2903              		.thumb_func
 2905              	RTC_GetAlarmSubSecond:
 2906              	.LFB131:
1408:App/STM32F4-Discovery/Libraries/STM32F4xx_StdPeriph_Driver/src/stm32f4xx_rtc.c **** 
1409:App/STM32F4-Discovery/Libraries/STM32F4xx_StdPeriph_Driver/src/stm32f4xx_rtc.c **** /**
1410:App/STM32F4-Discovery/Libraries/STM32F4xx_StdPeriph_Driver/src/stm32f4xx_rtc.c ****   * @brief  Gets the RTC Alarm Subseconds value.
1411:App/STM32F4-Discovery/Libraries/STM32F4xx_StdPeriph_Driver/src/stm32f4xx_rtc.c ****   * @param  RTC_Alarm: specifies the alarm to be read.
1412:App/STM32F4-Discovery/Libraries/STM32F4xx_StdPeriph_Driver/src/stm32f4xx_rtc.c ****   *   This parameter can be one of the following values:
1413:App/STM32F4-Discovery/Libraries/STM32F4xx_StdPeriph_Driver/src/stm32f4xx_rtc.c ****   *     @arg RTC_Alarm_A: to select Alarm A
1414:App/STM32F4-Discovery/Libraries/STM32F4xx_StdPeriph_Driver/src/stm32f4xx_rtc.c ****   *     @arg RTC_Alarm_B: to select Alarm B
1415:App/STM32F4-Discovery/Libraries/STM32F4xx_StdPeriph_Driver/src/stm32f4xx_rtc.c ****   * @param  None
1416:App/STM32F4-Discovery/Libraries/STM32F4xx_StdPeriph_Driver/src/stm32f4xx_rtc.c ****   * @retval RTC Alarm Subseconds value.
1417:App/STM32F4-Discovery/Libraries/STM32F4xx_StdPeriph_Driver/src/stm32f4xx_rtc.c ****   */
1418:App/STM32F4-Discovery/Libraries/STM32F4xx_StdPeriph_Driver/src/stm32f4xx_rtc.c **** uint32_t RTC_GetAlarmSubSecond(uint32_t RTC_Alarm)
1419:App/STM32F4-Discovery/Libraries/STM32F4xx_StdPeriph_Driver/src/stm32f4xx_rtc.c **** {
 2907              		.loc 1 1419 0
 2908              		.cfi_startproc
 2909              		@ args = 0, pretend = 0, frame = 16
 2910              		@ frame_needed = 1, uses_anonymous_args = 0
 2911              		@ link register save eliminated.
 2912 0000 80B4     		push	{r7}
 2913              	.LCFI62:
 2914              		.cfi_def_cfa_offset 4
 2915              		.cfi_offset 7, -4
 2916 0002 85B0     		sub	sp, sp, #20
 2917              	.LCFI63:
 2918              		.cfi_def_cfa_offset 24
 2919 0004 00AF     		add	r7, sp, #0
 2920              	.LCFI64:
 2921              		.cfi_def_cfa_register 7
 2922 0006 7860     		str	r0, [r7, #4]
1420:App/STM32F4-Discovery/Libraries/STM32F4xx_StdPeriph_Driver/src/stm32f4xx_rtc.c ****   uint32_t tmpreg = 0;
 2923              		.loc 1 1420 0
 2924 0008 0023     		movs	r3, #0
 2925 000a FB60     		str	r3, [r7, #12]
1421:App/STM32F4-Discovery/Libraries/STM32F4xx_StdPeriph_Driver/src/stm32f4xx_rtc.c ****   
1422:App/STM32F4-Discovery/Libraries/STM32F4xx_StdPeriph_Driver/src/stm32f4xx_rtc.c ****   /* Get the RTC_ALRMxR register */
1423:App/STM32F4-Discovery/Libraries/STM32F4xx_StdPeriph_Driver/src/stm32f4xx_rtc.c ****   if (RTC_Alarm == RTC_Alarm_A)
 2926              		.loc 1 1423 0
 2927 000c 7B68     		ldr	r3, [r7, #4]
 2928 000e B3F5807F 		cmp	r3, #256
 2929 0012 05D1     		bne	.L186
1424:App/STM32F4-Discovery/Libraries/STM32F4xx_StdPeriph_Driver/src/stm32f4xx_rtc.c ****   {
1425:App/STM32F4-Discovery/Libraries/STM32F4xx_StdPeriph_Driver/src/stm32f4xx_rtc.c ****     tmpreg = (uint32_t)((RTC->ALRMASSR) & RTC_ALRMASSR_SS);
 2930              		.loc 1 1425 0
 2931 0014 084B     		ldr	r3, .L189
 2932 0016 5B6C     		ldr	r3, [r3, #68]
 2933 0018 C3F30E03 		ubfx	r3, r3, #0, #15
 2934 001c FB60     		str	r3, [r7, #12]
 2935 001e 04E0     		b	.L187
 2936              	.L186:
1426:App/STM32F4-Discovery/Libraries/STM32F4xx_StdPeriph_Driver/src/stm32f4xx_rtc.c ****   }
1427:App/STM32F4-Discovery/Libraries/STM32F4xx_StdPeriph_Driver/src/stm32f4xx_rtc.c ****   else
1428:App/STM32F4-Discovery/Libraries/STM32F4xx_StdPeriph_Driver/src/stm32f4xx_rtc.c ****   {
1429:App/STM32F4-Discovery/Libraries/STM32F4xx_StdPeriph_Driver/src/stm32f4xx_rtc.c ****     tmpreg = (uint32_t)((RTC->ALRMBSSR) & RTC_ALRMBSSR_SS);
 2937              		.loc 1 1429 0
 2938 0020 054B     		ldr	r3, .L189
 2939 0022 9B6C     		ldr	r3, [r3, #72]
 2940 0024 C3F30E03 		ubfx	r3, r3, #0, #15
 2941 0028 FB60     		str	r3, [r7, #12]
 2942              	.L187:
1430:App/STM32F4-Discovery/Libraries/STM32F4xx_StdPeriph_Driver/src/stm32f4xx_rtc.c ****   } 
1431:App/STM32F4-Discovery/Libraries/STM32F4xx_StdPeriph_Driver/src/stm32f4xx_rtc.c ****   
1432:App/STM32F4-Discovery/Libraries/STM32F4xx_StdPeriph_Driver/src/stm32f4xx_rtc.c ****   return (tmpreg);
 2943              		.loc 1 1432 0
 2944 002a FB68     		ldr	r3, [r7, #12]
1433:App/STM32F4-Discovery/Libraries/STM32F4xx_StdPeriph_Driver/src/stm32f4xx_rtc.c **** }
 2945              		.loc 1 1433 0
 2946 002c 1846     		mov	r0, r3
 2947 002e 1437     		adds	r7, r7, #20
 2948 0030 BD46     		mov	sp, r7
 2949              		@ sp needed
 2950 0032 5DF8047B 		ldr	r7, [sp], #4
 2951 0036 7047     		bx	lr
 2952              	.L190:
 2953              		.align	2
 2954              	.L189:
 2955 0038 00280040 		.word	1073752064
 2956              		.cfi_endproc
 2957              	.LFE131:
 2959              		.section	.text.RTC_WakeUpClockConfig,"ax",%progbits
 2960              		.align	2
 2961              		.global	RTC_WakeUpClockConfig
 2962              		.thumb
 2963              		.thumb_func
 2965              	RTC_WakeUpClockConfig:
 2966              	.LFB132:
1434:App/STM32F4-Discovery/Libraries/STM32F4xx_StdPeriph_Driver/src/stm32f4xx_rtc.c **** 
1435:App/STM32F4-Discovery/Libraries/STM32F4xx_StdPeriph_Driver/src/stm32f4xx_rtc.c **** /**
1436:App/STM32F4-Discovery/Libraries/STM32F4xx_StdPeriph_Driver/src/stm32f4xx_rtc.c ****   * @}
1437:App/STM32F4-Discovery/Libraries/STM32F4xx_StdPeriph_Driver/src/stm32f4xx_rtc.c ****   */
1438:App/STM32F4-Discovery/Libraries/STM32F4xx_StdPeriph_Driver/src/stm32f4xx_rtc.c **** 
1439:App/STM32F4-Discovery/Libraries/STM32F4xx_StdPeriph_Driver/src/stm32f4xx_rtc.c **** /** @defgroup RTC_Group4 WakeUp Timer configuration functions
1440:App/STM32F4-Discovery/Libraries/STM32F4xx_StdPeriph_Driver/src/stm32f4xx_rtc.c ****  *  @brief   WakeUp Timer configuration functions 
1441:App/STM32F4-Discovery/Libraries/STM32F4xx_StdPeriph_Driver/src/stm32f4xx_rtc.c ****  *
1442:App/STM32F4-Discovery/Libraries/STM32F4xx_StdPeriph_Driver/src/stm32f4xx_rtc.c **** @verbatim   
1443:App/STM32F4-Discovery/Libraries/STM32F4xx_StdPeriph_Driver/src/stm32f4xx_rtc.c ****  ===============================================================================
1444:App/STM32F4-Discovery/Libraries/STM32F4xx_StdPeriph_Driver/src/stm32f4xx_rtc.c ****                      WakeUp Timer configuration functions
1445:App/STM32F4-Discovery/Libraries/STM32F4xx_StdPeriph_Driver/src/stm32f4xx_rtc.c ****  ===============================================================================  
1446:App/STM32F4-Discovery/Libraries/STM32F4xx_StdPeriph_Driver/src/stm32f4xx_rtc.c **** 
1447:App/STM32F4-Discovery/Libraries/STM32F4xx_StdPeriph_Driver/src/stm32f4xx_rtc.c ****   This section provide functions allowing to program and read the RTC WakeUp.
1448:App/STM32F4-Discovery/Libraries/STM32F4xx_StdPeriph_Driver/src/stm32f4xx_rtc.c **** 
1449:App/STM32F4-Discovery/Libraries/STM32F4xx_StdPeriph_Driver/src/stm32f4xx_rtc.c **** @endverbatim
1450:App/STM32F4-Discovery/Libraries/STM32F4xx_StdPeriph_Driver/src/stm32f4xx_rtc.c ****   * @{
1451:App/STM32F4-Discovery/Libraries/STM32F4xx_StdPeriph_Driver/src/stm32f4xx_rtc.c ****   */
1452:App/STM32F4-Discovery/Libraries/STM32F4xx_StdPeriph_Driver/src/stm32f4xx_rtc.c **** 
1453:App/STM32F4-Discovery/Libraries/STM32F4xx_StdPeriph_Driver/src/stm32f4xx_rtc.c **** /**
1454:App/STM32F4-Discovery/Libraries/STM32F4xx_StdPeriph_Driver/src/stm32f4xx_rtc.c ****   * @brief  Configures the RTC Wakeup clock source.
1455:App/STM32F4-Discovery/Libraries/STM32F4xx_StdPeriph_Driver/src/stm32f4xx_rtc.c ****   * @note   The WakeUp Clock source can only be changed when the RTC WakeUp
1456:App/STM32F4-Discovery/Libraries/STM32F4xx_StdPeriph_Driver/src/stm32f4xx_rtc.c ****   *         is disabled (Use the RTC_WakeUpCmd(DISABLE)).      
1457:App/STM32F4-Discovery/Libraries/STM32F4xx_StdPeriph_Driver/src/stm32f4xx_rtc.c ****   * @param  RTC_WakeUpClock: Wakeup Clock source.
1458:App/STM32F4-Discovery/Libraries/STM32F4xx_StdPeriph_Driver/src/stm32f4xx_rtc.c ****   *          This parameter can be one of the following values:
1459:App/STM32F4-Discovery/Libraries/STM32F4xx_StdPeriph_Driver/src/stm32f4xx_rtc.c ****   *            @arg RTC_WakeUpClock_RTCCLK_Div16: RTC Wakeup Counter Clock = RTCCLK/16
1460:App/STM32F4-Discovery/Libraries/STM32F4xx_StdPeriph_Driver/src/stm32f4xx_rtc.c ****   *            @arg RTC_WakeUpClock_RTCCLK_Div8: RTC Wakeup Counter Clock = RTCCLK/8
1461:App/STM32F4-Discovery/Libraries/STM32F4xx_StdPeriph_Driver/src/stm32f4xx_rtc.c ****   *            @arg RTC_WakeUpClock_RTCCLK_Div4: RTC Wakeup Counter Clock = RTCCLK/4
1462:App/STM32F4-Discovery/Libraries/STM32F4xx_StdPeriph_Driver/src/stm32f4xx_rtc.c ****   *            @arg RTC_WakeUpClock_RTCCLK_Div2: RTC Wakeup Counter Clock = RTCCLK/2
1463:App/STM32F4-Discovery/Libraries/STM32F4xx_StdPeriph_Driver/src/stm32f4xx_rtc.c ****   *            @arg RTC_WakeUpClock_CK_SPRE_16bits: RTC Wakeup Counter Clock = CK_SPRE
1464:App/STM32F4-Discovery/Libraries/STM32F4xx_StdPeriph_Driver/src/stm32f4xx_rtc.c ****   *            @arg RTC_WakeUpClock_CK_SPRE_17bits: RTC Wakeup Counter Clock = CK_SPRE
1465:App/STM32F4-Discovery/Libraries/STM32F4xx_StdPeriph_Driver/src/stm32f4xx_rtc.c ****   * @retval None
1466:App/STM32F4-Discovery/Libraries/STM32F4xx_StdPeriph_Driver/src/stm32f4xx_rtc.c ****   */
1467:App/STM32F4-Discovery/Libraries/STM32F4xx_StdPeriph_Driver/src/stm32f4xx_rtc.c **** void RTC_WakeUpClockConfig(uint32_t RTC_WakeUpClock)
1468:App/STM32F4-Discovery/Libraries/STM32F4xx_StdPeriph_Driver/src/stm32f4xx_rtc.c **** {
 2967              		.loc 1 1468 0
 2968              		.cfi_startproc
 2969              		@ args = 0, pretend = 0, frame = 8
 2970              		@ frame_needed = 1, uses_anonymous_args = 0
 2971 0000 80B5     		push	{r7, lr}
 2972              	.LCFI65:
 2973              		.cfi_def_cfa_offset 8
 2974              		.cfi_offset 7, -8
 2975              		.cfi_offset 14, -4
 2976 0002 82B0     		sub	sp, sp, #8
 2977              	.LCFI66:
 2978              		.cfi_def_cfa_offset 16
 2979 0004 00AF     		add	r7, sp, #0
 2980              	.LCFI67:
 2981              		.cfi_def_cfa_register 7
 2982 0006 7860     		str	r0, [r7, #4]
1469:App/STM32F4-Discovery/Libraries/STM32F4xx_StdPeriph_Driver/src/stm32f4xx_rtc.c ****   /* Check the parameters */
1470:App/STM32F4-Discovery/Libraries/STM32F4xx_StdPeriph_Driver/src/stm32f4xx_rtc.c ****   assert_param(IS_RTC_WAKEUP_CLOCK(RTC_WakeUpClock));
 2983              		.loc 1 1470 0
 2984 0008 7B68     		ldr	r3, [r7, #4]
 2985 000a 002B     		cmp	r3, #0
 2986 000c 13D0     		beq	.L192
 2987              		.loc 1 1470 0 is_stmt 0 discriminator 1
 2988 000e 7B68     		ldr	r3, [r7, #4]
 2989 0010 012B     		cmp	r3, #1
 2990 0012 10D0     		beq	.L192
 2991 0014 7B68     		ldr	r3, [r7, #4]
 2992 0016 022B     		cmp	r3, #2
 2993 0018 0DD0     		beq	.L192
 2994 001a 7B68     		ldr	r3, [r7, #4]
 2995 001c 032B     		cmp	r3, #3
 2996 001e 0AD0     		beq	.L192
 2997 0020 7B68     		ldr	r3, [r7, #4]
 2998 0022 042B     		cmp	r3, #4
 2999 0024 07D0     		beq	.L192
 3000 0026 7B68     		ldr	r3, [r7, #4]
 3001 0028 062B     		cmp	r3, #6
 3002 002a 04D0     		beq	.L192
 3003 002c 0E48     		ldr	r0, .L193
 3004 002e 40F2BE51 		movw	r1, #1470
 3005 0032 FFF7FEFF 		bl	assert_failed
 3006              	.L192:
1471:App/STM32F4-Discovery/Libraries/STM32F4xx_StdPeriph_Driver/src/stm32f4xx_rtc.c **** 
1472:App/STM32F4-Discovery/Libraries/STM32F4xx_StdPeriph_Driver/src/stm32f4xx_rtc.c ****   /* Disable the write protection for RTC registers */
1473:App/STM32F4-Discovery/Libraries/STM32F4xx_StdPeriph_Driver/src/stm32f4xx_rtc.c ****   RTC->WPR = 0xCA;
 3007              		.loc 1 1473 0 is_stmt 1
 3008 0036 0D4B     		ldr	r3, .L193+4
 3009 0038 CA22     		movs	r2, #202
 3010 003a 5A62     		str	r2, [r3, #36]
1474:App/STM32F4-Discovery/Libraries/STM32F4xx_StdPeriph_Driver/src/stm32f4xx_rtc.c ****   RTC->WPR = 0x53;
 3011              		.loc 1 1474 0
 3012 003c 0B4B     		ldr	r3, .L193+4
 3013 003e 5322     		movs	r2, #83
 3014 0040 5A62     		str	r2, [r3, #36]
1475:App/STM32F4-Discovery/Libraries/STM32F4xx_StdPeriph_Driver/src/stm32f4xx_rtc.c **** 
1476:App/STM32F4-Discovery/Libraries/STM32F4xx_StdPeriph_Driver/src/stm32f4xx_rtc.c ****   /* Clear the Wakeup Timer clock source bits in CR register */
1477:App/STM32F4-Discovery/Libraries/STM32F4xx_StdPeriph_Driver/src/stm32f4xx_rtc.c ****   RTC->CR &= (uint32_t)~RTC_CR_WUCKSEL;
 3015              		.loc 1 1477 0
 3016 0042 0A4B     		ldr	r3, .L193+4
 3017 0044 094A     		ldr	r2, .L193+4
 3018 0046 9268     		ldr	r2, [r2, #8]
 3019 0048 22F00702 		bic	r2, r2, #7
 3020 004c 9A60     		str	r2, [r3, #8]
1478:App/STM32F4-Discovery/Libraries/STM32F4xx_StdPeriph_Driver/src/stm32f4xx_rtc.c **** 
1479:App/STM32F4-Discovery/Libraries/STM32F4xx_StdPeriph_Driver/src/stm32f4xx_rtc.c ****   /* Configure the clock source */
1480:App/STM32F4-Discovery/Libraries/STM32F4xx_StdPeriph_Driver/src/stm32f4xx_rtc.c ****   RTC->CR |= (uint32_t)RTC_WakeUpClock;
 3021              		.loc 1 1480 0
 3022 004e 074B     		ldr	r3, .L193+4
 3023 0050 064A     		ldr	r2, .L193+4
 3024 0052 9168     		ldr	r1, [r2, #8]
 3025 0054 7A68     		ldr	r2, [r7, #4]
 3026 0056 0A43     		orrs	r2, r2, r1
 3027 0058 9A60     		str	r2, [r3, #8]
1481:App/STM32F4-Discovery/Libraries/STM32F4xx_StdPeriph_Driver/src/stm32f4xx_rtc.c ****   
1482:App/STM32F4-Discovery/Libraries/STM32F4xx_StdPeriph_Driver/src/stm32f4xx_rtc.c ****   /* Enable the write protection for RTC registers */
1483:App/STM32F4-Discovery/Libraries/STM32F4xx_StdPeriph_Driver/src/stm32f4xx_rtc.c ****   RTC->WPR = 0xFF; 
 3028              		.loc 1 1483 0
 3029 005a 044B     		ldr	r3, .L193+4
 3030 005c FF22     		movs	r2, #255
 3031 005e 5A62     		str	r2, [r3, #36]
1484:App/STM32F4-Discovery/Libraries/STM32F4xx_StdPeriph_Driver/src/stm32f4xx_rtc.c **** }
 3032              		.loc 1 1484 0
 3033 0060 0837     		adds	r7, r7, #8
 3034 0062 BD46     		mov	sp, r7
 3035              		@ sp needed
 3036 0064 80BD     		pop	{r7, pc}
 3037              	.L194:
 3038 0066 00BF     		.align	2
 3039              	.L193:
 3040 0068 00000000 		.word	.LC0
 3041 006c 00280040 		.word	1073752064
 3042              		.cfi_endproc
 3043              	.LFE132:
 3045              		.section	.text.RTC_SetWakeUpCounter,"ax",%progbits
 3046              		.align	2
 3047              		.global	RTC_SetWakeUpCounter
 3048              		.thumb
 3049              		.thumb_func
 3051              	RTC_SetWakeUpCounter:
 3052              	.LFB133:
1485:App/STM32F4-Discovery/Libraries/STM32F4xx_StdPeriph_Driver/src/stm32f4xx_rtc.c **** 
1486:App/STM32F4-Discovery/Libraries/STM32F4xx_StdPeriph_Driver/src/stm32f4xx_rtc.c **** /**
1487:App/STM32F4-Discovery/Libraries/STM32F4xx_StdPeriph_Driver/src/stm32f4xx_rtc.c ****   * @brief  Configures the RTC Wakeup counter.
1488:App/STM32F4-Discovery/Libraries/STM32F4xx_StdPeriph_Driver/src/stm32f4xx_rtc.c ****   * @note   The RTC WakeUp counter can only be written when the RTC WakeUp
1489:App/STM32F4-Discovery/Libraries/STM32F4xx_StdPeriph_Driver/src/stm32f4xx_rtc.c ****   *         is disabled (Use the RTC_WakeUpCmd(DISABLE)).        
1490:App/STM32F4-Discovery/Libraries/STM32F4xx_StdPeriph_Driver/src/stm32f4xx_rtc.c ****   * @param  RTC_WakeUpCounter: specifies the WakeUp counter.
1491:App/STM32F4-Discovery/Libraries/STM32F4xx_StdPeriph_Driver/src/stm32f4xx_rtc.c ****   *          This parameter can be a value from 0x0000 to 0xFFFF. 
1492:App/STM32F4-Discovery/Libraries/STM32F4xx_StdPeriph_Driver/src/stm32f4xx_rtc.c ****   * @retval None
1493:App/STM32F4-Discovery/Libraries/STM32F4xx_StdPeriph_Driver/src/stm32f4xx_rtc.c ****   */
1494:App/STM32F4-Discovery/Libraries/STM32F4xx_StdPeriph_Driver/src/stm32f4xx_rtc.c **** void RTC_SetWakeUpCounter(uint32_t RTC_WakeUpCounter)
1495:App/STM32F4-Discovery/Libraries/STM32F4xx_StdPeriph_Driver/src/stm32f4xx_rtc.c **** {
 3053              		.loc 1 1495 0
 3054              		.cfi_startproc
 3055              		@ args = 0, pretend = 0, frame = 8
 3056              		@ frame_needed = 1, uses_anonymous_args = 0
 3057 0000 80B5     		push	{r7, lr}
 3058              	.LCFI68:
 3059              		.cfi_def_cfa_offset 8
 3060              		.cfi_offset 7, -8
 3061              		.cfi_offset 14, -4
 3062 0002 82B0     		sub	sp, sp, #8
 3063              	.LCFI69:
 3064              		.cfi_def_cfa_offset 16
 3065 0004 00AF     		add	r7, sp, #0
 3066              	.LCFI70:
 3067              		.cfi_def_cfa_register 7
 3068 0006 7860     		str	r0, [r7, #4]
1496:App/STM32F4-Discovery/Libraries/STM32F4xx_StdPeriph_Driver/src/stm32f4xx_rtc.c ****   /* Check the parameters */
1497:App/STM32F4-Discovery/Libraries/STM32F4xx_StdPeriph_Driver/src/stm32f4xx_rtc.c ****   assert_param(IS_RTC_WAKEUP_COUNTER(RTC_WakeUpCounter));
 3069              		.loc 1 1497 0
 3070 0008 7B68     		ldr	r3, [r7, #4]
 3071 000a B3F5803F 		cmp	r3, #65536
 3072 000e 04D3     		bcc	.L196
 3073              		.loc 1 1497 0 is_stmt 0 discriminator 1
 3074 0010 0948     		ldr	r0, .L197
 3075 0012 40F2D951 		movw	r1, #1497
 3076 0016 FFF7FEFF 		bl	assert_failed
 3077              	.L196:
1498:App/STM32F4-Discovery/Libraries/STM32F4xx_StdPeriph_Driver/src/stm32f4xx_rtc.c ****   
1499:App/STM32F4-Discovery/Libraries/STM32F4xx_StdPeriph_Driver/src/stm32f4xx_rtc.c ****   /* Disable the write protection for RTC registers */
1500:App/STM32F4-Discovery/Libraries/STM32F4xx_StdPeriph_Driver/src/stm32f4xx_rtc.c ****   RTC->WPR = 0xCA;
 3078              		.loc 1 1500 0 is_stmt 1
 3079 001a 084B     		ldr	r3, .L197+4
 3080 001c CA22     		movs	r2, #202
 3081 001e 5A62     		str	r2, [r3, #36]
1501:App/STM32F4-Discovery/Libraries/STM32F4xx_StdPeriph_Driver/src/stm32f4xx_rtc.c ****   RTC->WPR = 0x53;
 3082              		.loc 1 1501 0
 3083 0020 064B     		ldr	r3, .L197+4
 3084 0022 5322     		movs	r2, #83
 3085 0024 5A62     		str	r2, [r3, #36]
1502:App/STM32F4-Discovery/Libraries/STM32F4xx_StdPeriph_Driver/src/stm32f4xx_rtc.c ****   
1503:App/STM32F4-Discovery/Libraries/STM32F4xx_StdPeriph_Driver/src/stm32f4xx_rtc.c ****   /* Configure the Wakeup Timer counter */
1504:App/STM32F4-Discovery/Libraries/STM32F4xx_StdPeriph_Driver/src/stm32f4xx_rtc.c ****   RTC->WUTR = (uint32_t)RTC_WakeUpCounter;
 3086              		.loc 1 1504 0
 3087 0026 054B     		ldr	r3, .L197+4
 3088 0028 7A68     		ldr	r2, [r7, #4]
 3089 002a 5A61     		str	r2, [r3, #20]
1505:App/STM32F4-Discovery/Libraries/STM32F4xx_StdPeriph_Driver/src/stm32f4xx_rtc.c ****   
1506:App/STM32F4-Discovery/Libraries/STM32F4xx_StdPeriph_Driver/src/stm32f4xx_rtc.c ****   /* Enable the write protection for RTC registers */
1507:App/STM32F4-Discovery/Libraries/STM32F4xx_StdPeriph_Driver/src/stm32f4xx_rtc.c ****   RTC->WPR = 0xFF; 
 3090              		.loc 1 1507 0
 3091 002c 034B     		ldr	r3, .L197+4
 3092 002e FF22     		movs	r2, #255
 3093 0030 5A62     		str	r2, [r3, #36]
1508:App/STM32F4-Discovery/Libraries/STM32F4xx_StdPeriph_Driver/src/stm32f4xx_rtc.c **** }
 3094              		.loc 1 1508 0
 3095 0032 0837     		adds	r7, r7, #8
 3096 0034 BD46     		mov	sp, r7
 3097              		@ sp needed
 3098 0036 80BD     		pop	{r7, pc}
 3099              	.L198:
 3100              		.align	2
 3101              	.L197:
 3102 0038 00000000 		.word	.LC0
 3103 003c 00280040 		.word	1073752064
 3104              		.cfi_endproc
 3105              	.LFE133:
 3107              		.section	.text.RTC_GetWakeUpCounter,"ax",%progbits
 3108              		.align	2
 3109              		.global	RTC_GetWakeUpCounter
 3110              		.thumb
 3111              		.thumb_func
 3113              	RTC_GetWakeUpCounter:
 3114              	.LFB134:
1509:App/STM32F4-Discovery/Libraries/STM32F4xx_StdPeriph_Driver/src/stm32f4xx_rtc.c **** 
1510:App/STM32F4-Discovery/Libraries/STM32F4xx_StdPeriph_Driver/src/stm32f4xx_rtc.c **** /**
1511:App/STM32F4-Discovery/Libraries/STM32F4xx_StdPeriph_Driver/src/stm32f4xx_rtc.c ****   * @brief  Returns the RTC WakeUp timer counter value.
1512:App/STM32F4-Discovery/Libraries/STM32F4xx_StdPeriph_Driver/src/stm32f4xx_rtc.c ****   * @param  None
1513:App/STM32F4-Discovery/Libraries/STM32F4xx_StdPeriph_Driver/src/stm32f4xx_rtc.c ****   * @retval The RTC WakeUp Counter value.
1514:App/STM32F4-Discovery/Libraries/STM32F4xx_StdPeriph_Driver/src/stm32f4xx_rtc.c ****   */
1515:App/STM32F4-Discovery/Libraries/STM32F4xx_StdPeriph_Driver/src/stm32f4xx_rtc.c **** uint32_t RTC_GetWakeUpCounter(void)
1516:App/STM32F4-Discovery/Libraries/STM32F4xx_StdPeriph_Driver/src/stm32f4xx_rtc.c **** {
 3115              		.loc 1 1516 0
 3116              		.cfi_startproc
 3117              		@ args = 0, pretend = 0, frame = 0
 3118              		@ frame_needed = 1, uses_anonymous_args = 0
 3119              		@ link register save eliminated.
 3120 0000 80B4     		push	{r7}
 3121              	.LCFI71:
 3122              		.cfi_def_cfa_offset 4
 3123              		.cfi_offset 7, -4
 3124 0002 00AF     		add	r7, sp, #0
 3125              	.LCFI72:
 3126              		.cfi_def_cfa_register 7
1517:App/STM32F4-Discovery/Libraries/STM32F4xx_StdPeriph_Driver/src/stm32f4xx_rtc.c ****   /* Get the counter value */
1518:App/STM32F4-Discovery/Libraries/STM32F4xx_StdPeriph_Driver/src/stm32f4xx_rtc.c ****   return ((uint32_t)(RTC->WUTR & RTC_WUTR_WUT));
 3127              		.loc 1 1518 0
 3128 0004 034B     		ldr	r3, .L201
 3129 0006 5B69     		ldr	r3, [r3, #20]
 3130 0008 9BB2     		uxth	r3, r3
1519:App/STM32F4-Discovery/Libraries/STM32F4xx_StdPeriph_Driver/src/stm32f4xx_rtc.c **** }
 3131              		.loc 1 1519 0
 3132 000a 1846     		mov	r0, r3
 3133 000c BD46     		mov	sp, r7
 3134              		@ sp needed
 3135 000e 5DF8047B 		ldr	r7, [sp], #4
 3136 0012 7047     		bx	lr
 3137              	.L202:
 3138              		.align	2
 3139              	.L201:
 3140 0014 00280040 		.word	1073752064
 3141              		.cfi_endproc
 3142              	.LFE134:
 3144              		.section	.text.RTC_WakeUpCmd,"ax",%progbits
 3145              		.align	2
 3146              		.global	RTC_WakeUpCmd
 3147              		.thumb
 3148              		.thumb_func
 3150              	RTC_WakeUpCmd:
 3151              	.LFB135:
1520:App/STM32F4-Discovery/Libraries/STM32F4xx_StdPeriph_Driver/src/stm32f4xx_rtc.c **** 
1521:App/STM32F4-Discovery/Libraries/STM32F4xx_StdPeriph_Driver/src/stm32f4xx_rtc.c **** /**
1522:App/STM32F4-Discovery/Libraries/STM32F4xx_StdPeriph_Driver/src/stm32f4xx_rtc.c ****   * @brief  Enables or Disables the RTC WakeUp timer.
1523:App/STM32F4-Discovery/Libraries/STM32F4xx_StdPeriph_Driver/src/stm32f4xx_rtc.c ****   * @param  NewState: new state of the WakeUp timer.
1524:App/STM32F4-Discovery/Libraries/STM32F4xx_StdPeriph_Driver/src/stm32f4xx_rtc.c ****   *          This parameter can be: ENABLE or DISABLE.
1525:App/STM32F4-Discovery/Libraries/STM32F4xx_StdPeriph_Driver/src/stm32f4xx_rtc.c ****   * @retval None
1526:App/STM32F4-Discovery/Libraries/STM32F4xx_StdPeriph_Driver/src/stm32f4xx_rtc.c ****   */
1527:App/STM32F4-Discovery/Libraries/STM32F4xx_StdPeriph_Driver/src/stm32f4xx_rtc.c **** ErrorStatus RTC_WakeUpCmd(FunctionalState NewState)
1528:App/STM32F4-Discovery/Libraries/STM32F4xx_StdPeriph_Driver/src/stm32f4xx_rtc.c **** {
 3152              		.loc 1 1528 0
 3153              		.cfi_startproc
 3154              		@ args = 0, pretend = 0, frame = 24
 3155              		@ frame_needed = 1, uses_anonymous_args = 0
 3156 0000 80B5     		push	{r7, lr}
 3157              	.LCFI73:
 3158              		.cfi_def_cfa_offset 8
 3159              		.cfi_offset 7, -8
 3160              		.cfi_offset 14, -4
 3161 0002 86B0     		sub	sp, sp, #24
 3162              	.LCFI74:
 3163              		.cfi_def_cfa_offset 32
 3164 0004 00AF     		add	r7, sp, #0
 3165              	.LCFI75:
 3166              		.cfi_def_cfa_register 7
 3167 0006 0346     		mov	r3, r0
 3168 0008 FB71     		strb	r3, [r7, #7]
1529:App/STM32F4-Discovery/Libraries/STM32F4xx_StdPeriph_Driver/src/stm32f4xx_rtc.c ****   __IO uint32_t wutcounter = 0x00;
 3169              		.loc 1 1529 0
 3170 000a 0023     		movs	r3, #0
 3171 000c FB60     		str	r3, [r7, #12]
1530:App/STM32F4-Discovery/Libraries/STM32F4xx_StdPeriph_Driver/src/stm32f4xx_rtc.c ****   uint32_t wutwfstatus = 0x00;
 3172              		.loc 1 1530 0
 3173 000e 0023     		movs	r3, #0
 3174 0010 3B61     		str	r3, [r7, #16]
1531:App/STM32F4-Discovery/Libraries/STM32F4xx_StdPeriph_Driver/src/stm32f4xx_rtc.c ****   ErrorStatus status = ERROR;
 3175              		.loc 1 1531 0
 3176 0012 0023     		movs	r3, #0
 3177 0014 FB75     		strb	r3, [r7, #23]
1532:App/STM32F4-Discovery/Libraries/STM32F4xx_StdPeriph_Driver/src/stm32f4xx_rtc.c ****   
1533:App/STM32F4-Discovery/Libraries/STM32F4xx_StdPeriph_Driver/src/stm32f4xx_rtc.c ****   /* Check the parameters */
1534:App/STM32F4-Discovery/Libraries/STM32F4xx_StdPeriph_Driver/src/stm32f4xx_rtc.c ****   assert_param(IS_FUNCTIONAL_STATE(NewState));
 3178              		.loc 1 1534 0
 3179 0016 FB79     		ldrb	r3, [r7, #7]	@ zero_extendqisi2
 3180 0018 002B     		cmp	r3, #0
 3181 001a 07D0     		beq	.L204
 3182              		.loc 1 1534 0 is_stmt 0 discriminator 1
 3183 001c FB79     		ldrb	r3, [r7, #7]	@ zero_extendqisi2
 3184 001e 012B     		cmp	r3, #1
 3185 0020 04D0     		beq	.L204
 3186 0022 1F48     		ldr	r0, .L211
 3187 0024 40F2FE51 		movw	r1, #1534
 3188 0028 FFF7FEFF 		bl	assert_failed
 3189              	.L204:
1535:App/STM32F4-Discovery/Libraries/STM32F4xx_StdPeriph_Driver/src/stm32f4xx_rtc.c **** 
1536:App/STM32F4-Discovery/Libraries/STM32F4xx_StdPeriph_Driver/src/stm32f4xx_rtc.c ****   /* Disable the write protection for RTC registers */
1537:App/STM32F4-Discovery/Libraries/STM32F4xx_StdPeriph_Driver/src/stm32f4xx_rtc.c ****   RTC->WPR = 0xCA;
 3190              		.loc 1 1537 0 is_stmt 1
 3191 002c 1D4B     		ldr	r3, .L211+4
 3192 002e CA22     		movs	r2, #202
 3193 0030 5A62     		str	r2, [r3, #36]
1538:App/STM32F4-Discovery/Libraries/STM32F4xx_StdPeriph_Driver/src/stm32f4xx_rtc.c ****   RTC->WPR = 0x53;
 3194              		.loc 1 1538 0
 3195 0032 1C4B     		ldr	r3, .L211+4
 3196 0034 5322     		movs	r2, #83
 3197 0036 5A62     		str	r2, [r3, #36]
1539:App/STM32F4-Discovery/Libraries/STM32F4xx_StdPeriph_Driver/src/stm32f4xx_rtc.c **** 
1540:App/STM32F4-Discovery/Libraries/STM32F4xx_StdPeriph_Driver/src/stm32f4xx_rtc.c ****   if (NewState != DISABLE)
 3198              		.loc 1 1540 0
 3199 0038 FB79     		ldrb	r3, [r7, #7]	@ zero_extendqisi2
 3200 003a 002B     		cmp	r3, #0
 3201 003c 08D0     		beq	.L205
1541:App/STM32F4-Discovery/Libraries/STM32F4xx_StdPeriph_Driver/src/stm32f4xx_rtc.c ****   {
1542:App/STM32F4-Discovery/Libraries/STM32F4xx_StdPeriph_Driver/src/stm32f4xx_rtc.c ****     /* Enable the Wakeup Timer */
1543:App/STM32F4-Discovery/Libraries/STM32F4xx_StdPeriph_Driver/src/stm32f4xx_rtc.c ****     RTC->CR |= (uint32_t)RTC_CR_WUTE;
 3202              		.loc 1 1543 0
 3203 003e 194B     		ldr	r3, .L211+4
 3204 0040 184A     		ldr	r2, .L211+4
 3205 0042 9268     		ldr	r2, [r2, #8]
 3206 0044 42F48062 		orr	r2, r2, #1024
 3207 0048 9A60     		str	r2, [r3, #8]
1544:App/STM32F4-Discovery/Libraries/STM32F4xx_StdPeriph_Driver/src/stm32f4xx_rtc.c ****     status = SUCCESS;    
 3208              		.loc 1 1544 0
 3209 004a 0123     		movs	r3, #1
 3210 004c FB75     		strb	r3, [r7, #23]
 3211 004e 1FE0     		b	.L206
 3212              	.L205:
1545:App/STM32F4-Discovery/Libraries/STM32F4xx_StdPeriph_Driver/src/stm32f4xx_rtc.c ****   }
1546:App/STM32F4-Discovery/Libraries/STM32F4xx_StdPeriph_Driver/src/stm32f4xx_rtc.c ****   else
1547:App/STM32F4-Discovery/Libraries/STM32F4xx_StdPeriph_Driver/src/stm32f4xx_rtc.c ****   {
1548:App/STM32F4-Discovery/Libraries/STM32F4xx_StdPeriph_Driver/src/stm32f4xx_rtc.c ****     /* Disable the Wakeup Timer */
1549:App/STM32F4-Discovery/Libraries/STM32F4xx_StdPeriph_Driver/src/stm32f4xx_rtc.c ****     RTC->CR &= (uint32_t)~RTC_CR_WUTE;
 3213              		.loc 1 1549 0
 3214 0050 144B     		ldr	r3, .L211+4
 3215 0052 144A     		ldr	r2, .L211+4
 3216 0054 9268     		ldr	r2, [r2, #8]
 3217 0056 22F48062 		bic	r2, r2, #1024
 3218 005a 9A60     		str	r2, [r3, #8]
 3219              	.L208:
1550:App/STM32F4-Discovery/Libraries/STM32F4xx_StdPeriph_Driver/src/stm32f4xx_rtc.c ****     /* Wait till RTC WUTWF flag is set and if Time out is reached exit */
1551:App/STM32F4-Discovery/Libraries/STM32F4xx_StdPeriph_Driver/src/stm32f4xx_rtc.c ****     do
1552:App/STM32F4-Discovery/Libraries/STM32F4xx_StdPeriph_Driver/src/stm32f4xx_rtc.c ****     {
1553:App/STM32F4-Discovery/Libraries/STM32F4xx_StdPeriph_Driver/src/stm32f4xx_rtc.c ****       wutwfstatus = RTC->ISR & RTC_ISR_WUTWF;
 3220              		.loc 1 1553 0 discriminator 1
 3221 005c 114B     		ldr	r3, .L211+4
 3222 005e DB68     		ldr	r3, [r3, #12]
 3223 0060 03F00403 		and	r3, r3, #4
 3224 0064 3B61     		str	r3, [r7, #16]
1554:App/STM32F4-Discovery/Libraries/STM32F4xx_StdPeriph_Driver/src/stm32f4xx_rtc.c ****       wutcounter++;  
 3225              		.loc 1 1554 0 discriminator 1
 3226 0066 FB68     		ldr	r3, [r7, #12]
 3227 0068 0133     		adds	r3, r3, #1
 3228 006a FB60     		str	r3, [r7, #12]
1555:App/STM32F4-Discovery/Libraries/STM32F4xx_StdPeriph_Driver/src/stm32f4xx_rtc.c ****     } while((wutcounter != INITMODE_TIMEOUT) && (wutwfstatus == 0x00));
 3229              		.loc 1 1555 0 discriminator 1
 3230 006c FB68     		ldr	r3, [r7, #12]
 3231 006e B3F5803F 		cmp	r3, #65536
 3232 0072 02D0     		beq	.L207
 3233 0074 3B69     		ldr	r3, [r7, #16]
 3234 0076 002B     		cmp	r3, #0
 3235 0078 F0D0     		beq	.L208
 3236              	.L207:
1556:App/STM32F4-Discovery/Libraries/STM32F4xx_StdPeriph_Driver/src/stm32f4xx_rtc.c ****     
1557:App/STM32F4-Discovery/Libraries/STM32F4xx_StdPeriph_Driver/src/stm32f4xx_rtc.c ****     if ((RTC->ISR & RTC_ISR_WUTWF) == RESET)
 3237              		.loc 1 1557 0
 3238 007a 0A4B     		ldr	r3, .L211+4
 3239 007c DB68     		ldr	r3, [r3, #12]
 3240 007e 03F00403 		and	r3, r3, #4
 3241 0082 002B     		cmp	r3, #0
 3242 0084 02D1     		bne	.L209
1558:App/STM32F4-Discovery/Libraries/STM32F4xx_StdPeriph_Driver/src/stm32f4xx_rtc.c ****     {
1559:App/STM32F4-Discovery/Libraries/STM32F4xx_StdPeriph_Driver/src/stm32f4xx_rtc.c ****       status = ERROR;
 3243              		.loc 1 1559 0
 3244 0086 0023     		movs	r3, #0
 3245 0088 FB75     		strb	r3, [r7, #23]
 3246 008a 01E0     		b	.L206
 3247              	.L209:
1560:App/STM32F4-Discovery/Libraries/STM32F4xx_StdPeriph_Driver/src/stm32f4xx_rtc.c ****     }
1561:App/STM32F4-Discovery/Libraries/STM32F4xx_StdPeriph_Driver/src/stm32f4xx_rtc.c ****     else
1562:App/STM32F4-Discovery/Libraries/STM32F4xx_StdPeriph_Driver/src/stm32f4xx_rtc.c ****     {
1563:App/STM32F4-Discovery/Libraries/STM32F4xx_StdPeriph_Driver/src/stm32f4xx_rtc.c ****       status = SUCCESS;
 3248              		.loc 1 1563 0
 3249 008c 0123     		movs	r3, #1
 3250 008e FB75     		strb	r3, [r7, #23]
 3251              	.L206:
1564:App/STM32F4-Discovery/Libraries/STM32F4xx_StdPeriph_Driver/src/stm32f4xx_rtc.c ****     }    
1565:App/STM32F4-Discovery/Libraries/STM32F4xx_StdPeriph_Driver/src/stm32f4xx_rtc.c ****   }
1566:App/STM32F4-Discovery/Libraries/STM32F4xx_StdPeriph_Driver/src/stm32f4xx_rtc.c **** 
1567:App/STM32F4-Discovery/Libraries/STM32F4xx_StdPeriph_Driver/src/stm32f4xx_rtc.c ****   /* Enable the write protection for RTC registers */
1568:App/STM32F4-Discovery/Libraries/STM32F4xx_StdPeriph_Driver/src/stm32f4xx_rtc.c ****   RTC->WPR = 0xFF; 
 3252              		.loc 1 1568 0
 3253 0090 044B     		ldr	r3, .L211+4
 3254 0092 FF22     		movs	r2, #255
 3255 0094 5A62     		str	r2, [r3, #36]
1569:App/STM32F4-Discovery/Libraries/STM32F4xx_StdPeriph_Driver/src/stm32f4xx_rtc.c ****   
1570:App/STM32F4-Discovery/Libraries/STM32F4xx_StdPeriph_Driver/src/stm32f4xx_rtc.c ****   return status;
 3256              		.loc 1 1570 0
 3257 0096 FB7D     		ldrb	r3, [r7, #23]	@ zero_extendqisi2
1571:App/STM32F4-Discovery/Libraries/STM32F4xx_StdPeriph_Driver/src/stm32f4xx_rtc.c **** }
 3258              		.loc 1 1571 0
 3259 0098 1846     		mov	r0, r3
 3260 009a 1837     		adds	r7, r7, #24
 3261 009c BD46     		mov	sp, r7
 3262              		@ sp needed
 3263 009e 80BD     		pop	{r7, pc}
 3264              	.L212:
 3265              		.align	2
 3266              	.L211:
 3267 00a0 00000000 		.word	.LC0
 3268 00a4 00280040 		.word	1073752064
 3269              		.cfi_endproc
 3270              	.LFE135:
 3272              		.section	.text.RTC_DayLightSavingConfig,"ax",%progbits
 3273              		.align	2
 3274              		.global	RTC_DayLightSavingConfig
 3275              		.thumb
 3276              		.thumb_func
 3278              	RTC_DayLightSavingConfig:
 3279              	.LFB136:
1572:App/STM32F4-Discovery/Libraries/STM32F4xx_StdPeriph_Driver/src/stm32f4xx_rtc.c **** 
1573:App/STM32F4-Discovery/Libraries/STM32F4xx_StdPeriph_Driver/src/stm32f4xx_rtc.c **** /**
1574:App/STM32F4-Discovery/Libraries/STM32F4xx_StdPeriph_Driver/src/stm32f4xx_rtc.c ****   * @}
1575:App/STM32F4-Discovery/Libraries/STM32F4xx_StdPeriph_Driver/src/stm32f4xx_rtc.c ****   */
1576:App/STM32F4-Discovery/Libraries/STM32F4xx_StdPeriph_Driver/src/stm32f4xx_rtc.c **** 
1577:App/STM32F4-Discovery/Libraries/STM32F4xx_StdPeriph_Driver/src/stm32f4xx_rtc.c **** /** @defgroup RTC_Group5 Daylight Saving configuration functions
1578:App/STM32F4-Discovery/Libraries/STM32F4xx_StdPeriph_Driver/src/stm32f4xx_rtc.c ****  *  @brief   Daylight Saving configuration functions 
1579:App/STM32F4-Discovery/Libraries/STM32F4xx_StdPeriph_Driver/src/stm32f4xx_rtc.c ****  *
1580:App/STM32F4-Discovery/Libraries/STM32F4xx_StdPeriph_Driver/src/stm32f4xx_rtc.c **** @verbatim   
1581:App/STM32F4-Discovery/Libraries/STM32F4xx_StdPeriph_Driver/src/stm32f4xx_rtc.c ****  ===============================================================================
1582:App/STM32F4-Discovery/Libraries/STM32F4xx_StdPeriph_Driver/src/stm32f4xx_rtc.c ****                     Daylight Saving configuration functions
1583:App/STM32F4-Discovery/Libraries/STM32F4xx_StdPeriph_Driver/src/stm32f4xx_rtc.c ****  ===============================================================================  
1584:App/STM32F4-Discovery/Libraries/STM32F4xx_StdPeriph_Driver/src/stm32f4xx_rtc.c **** 
1585:App/STM32F4-Discovery/Libraries/STM32F4xx_StdPeriph_Driver/src/stm32f4xx_rtc.c ****   This section provide functions allowing to configure the RTC DayLight Saving.
1586:App/STM32F4-Discovery/Libraries/STM32F4xx_StdPeriph_Driver/src/stm32f4xx_rtc.c **** 
1587:App/STM32F4-Discovery/Libraries/STM32F4xx_StdPeriph_Driver/src/stm32f4xx_rtc.c **** @endverbatim
1588:App/STM32F4-Discovery/Libraries/STM32F4xx_StdPeriph_Driver/src/stm32f4xx_rtc.c ****   * @{
1589:App/STM32F4-Discovery/Libraries/STM32F4xx_StdPeriph_Driver/src/stm32f4xx_rtc.c ****   */
1590:App/STM32F4-Discovery/Libraries/STM32F4xx_StdPeriph_Driver/src/stm32f4xx_rtc.c **** 
1591:App/STM32F4-Discovery/Libraries/STM32F4xx_StdPeriph_Driver/src/stm32f4xx_rtc.c **** /**
1592:App/STM32F4-Discovery/Libraries/STM32F4xx_StdPeriph_Driver/src/stm32f4xx_rtc.c ****   * @brief  Adds or substract one hour from the current time.
1593:App/STM32F4-Discovery/Libraries/STM32F4xx_StdPeriph_Driver/src/stm32f4xx_rtc.c ****   * @param  RTC_DayLightSaveOperation: the value of hour adjustment. 
1594:App/STM32F4-Discovery/Libraries/STM32F4xx_StdPeriph_Driver/src/stm32f4xx_rtc.c ****   *          This parameter can be one of the following values:
1595:App/STM32F4-Discovery/Libraries/STM32F4xx_StdPeriph_Driver/src/stm32f4xx_rtc.c ****   *            @arg RTC_DayLightSaving_SUB1H: Substract one hour (winter time)
1596:App/STM32F4-Discovery/Libraries/STM32F4xx_StdPeriph_Driver/src/stm32f4xx_rtc.c ****   *            @arg RTC_DayLightSaving_ADD1H: Add one hour (summer time)
1597:App/STM32F4-Discovery/Libraries/STM32F4xx_StdPeriph_Driver/src/stm32f4xx_rtc.c ****   * @param  RTC_StoreOperation: Specifies the value to be written in the BCK bit 
1598:App/STM32F4-Discovery/Libraries/STM32F4xx_StdPeriph_Driver/src/stm32f4xx_rtc.c ****   *                            in CR register to store the operation.
1599:App/STM32F4-Discovery/Libraries/STM32F4xx_StdPeriph_Driver/src/stm32f4xx_rtc.c ****   *          This parameter can be one of the following values:
1600:App/STM32F4-Discovery/Libraries/STM32F4xx_StdPeriph_Driver/src/stm32f4xx_rtc.c ****   *            @arg RTC_StoreOperation_Reset: BCK Bit Reset
1601:App/STM32F4-Discovery/Libraries/STM32F4xx_StdPeriph_Driver/src/stm32f4xx_rtc.c ****   *            @arg RTC_StoreOperation_Set: BCK Bit Set
1602:App/STM32F4-Discovery/Libraries/STM32F4xx_StdPeriph_Driver/src/stm32f4xx_rtc.c ****   * @retval None
1603:App/STM32F4-Discovery/Libraries/STM32F4xx_StdPeriph_Driver/src/stm32f4xx_rtc.c ****   */
1604:App/STM32F4-Discovery/Libraries/STM32F4xx_StdPeriph_Driver/src/stm32f4xx_rtc.c **** void RTC_DayLightSavingConfig(uint32_t RTC_DayLightSaving, uint32_t RTC_StoreOperation)
1605:App/STM32F4-Discovery/Libraries/STM32F4xx_StdPeriph_Driver/src/stm32f4xx_rtc.c **** {
 3280              		.loc 1 1605 0
 3281              		.cfi_startproc
 3282              		@ args = 0, pretend = 0, frame = 8
 3283              		@ frame_needed = 1, uses_anonymous_args = 0
 3284 0000 80B5     		push	{r7, lr}
 3285              	.LCFI76:
 3286              		.cfi_def_cfa_offset 8
 3287              		.cfi_offset 7, -8
 3288              		.cfi_offset 14, -4
 3289 0002 82B0     		sub	sp, sp, #8
 3290              	.LCFI77:
 3291              		.cfi_def_cfa_offset 16
 3292 0004 00AF     		add	r7, sp, #0
 3293              	.LCFI78:
 3294              		.cfi_def_cfa_register 7
 3295 0006 7860     		str	r0, [r7, #4]
 3296 0008 3960     		str	r1, [r7]
1606:App/STM32F4-Discovery/Libraries/STM32F4xx_StdPeriph_Driver/src/stm32f4xx_rtc.c ****   /* Check the parameters */
1607:App/STM32F4-Discovery/Libraries/STM32F4xx_StdPeriph_Driver/src/stm32f4xx_rtc.c ****   assert_param(IS_RTC_DAYLIGHT_SAVING(RTC_DayLightSaving));
 3297              		.loc 1 1607 0
 3298 000a 7B68     		ldr	r3, [r7, #4]
 3299 000c B3F5003F 		cmp	r3, #131072
 3300 0010 08D0     		beq	.L214
 3301              		.loc 1 1607 0 is_stmt 0 discriminator 1
 3302 0012 7B68     		ldr	r3, [r7, #4]
 3303 0014 B3F5803F 		cmp	r3, #65536
 3304 0018 04D0     		beq	.L214
 3305 001a 1548     		ldr	r0, .L216
 3306 001c 40F24761 		movw	r1, #1607
 3307 0020 FFF7FEFF 		bl	assert_failed
 3308              	.L214:
1608:App/STM32F4-Discovery/Libraries/STM32F4xx_StdPeriph_Driver/src/stm32f4xx_rtc.c ****   assert_param(IS_RTC_STORE_OPERATION(RTC_StoreOperation));
 3309              		.loc 1 1608 0 is_stmt 1
 3310 0024 3B68     		ldr	r3, [r7]
 3311 0026 002B     		cmp	r3, #0
 3312 0028 08D0     		beq	.L215
 3313              		.loc 1 1608 0 is_stmt 0 discriminator 1
 3314 002a 3B68     		ldr	r3, [r7]
 3315 002c B3F5802F 		cmp	r3, #262144
 3316 0030 04D0     		beq	.L215
 3317 0032 0F48     		ldr	r0, .L216
 3318 0034 4FF4C961 		mov	r1, #1608
 3319 0038 FFF7FEFF 		bl	assert_failed
 3320              	.L215:
1609:App/STM32F4-Discovery/Libraries/STM32F4xx_StdPeriph_Driver/src/stm32f4xx_rtc.c **** 
1610:App/STM32F4-Discovery/Libraries/STM32F4xx_StdPeriph_Driver/src/stm32f4xx_rtc.c ****   /* Disable the write protection for RTC registers */
1611:App/STM32F4-Discovery/Libraries/STM32F4xx_StdPeriph_Driver/src/stm32f4xx_rtc.c ****   RTC->WPR = 0xCA;
 3321              		.loc 1 1611 0 is_stmt 1
 3322 003c 0D4B     		ldr	r3, .L216+4
 3323 003e CA22     		movs	r2, #202
 3324 0040 5A62     		str	r2, [r3, #36]
1612:App/STM32F4-Discovery/Libraries/STM32F4xx_StdPeriph_Driver/src/stm32f4xx_rtc.c ****   RTC->WPR = 0x53;
 3325              		.loc 1 1612 0
 3326 0042 0C4B     		ldr	r3, .L216+4
 3327 0044 5322     		movs	r2, #83
 3328 0046 5A62     		str	r2, [r3, #36]
1613:App/STM32F4-Discovery/Libraries/STM32F4xx_StdPeriph_Driver/src/stm32f4xx_rtc.c **** 
1614:App/STM32F4-Discovery/Libraries/STM32F4xx_StdPeriph_Driver/src/stm32f4xx_rtc.c ****   /* Clear the bits to be configured */
1615:App/STM32F4-Discovery/Libraries/STM32F4xx_StdPeriph_Driver/src/stm32f4xx_rtc.c ****   RTC->CR &= (uint32_t)~(RTC_CR_BCK);
 3329              		.loc 1 1615 0
 3330 0048 0A4B     		ldr	r3, .L216+4
 3331 004a 0A4A     		ldr	r2, .L216+4
 3332 004c 9268     		ldr	r2, [r2, #8]
 3333 004e 22F48022 		bic	r2, r2, #262144
 3334 0052 9A60     		str	r2, [r3, #8]
1616:App/STM32F4-Discovery/Libraries/STM32F4xx_StdPeriph_Driver/src/stm32f4xx_rtc.c **** 
1617:App/STM32F4-Discovery/Libraries/STM32F4xx_StdPeriph_Driver/src/stm32f4xx_rtc.c ****   /* Configure the RTC_CR register */
1618:App/STM32F4-Discovery/Libraries/STM32F4xx_StdPeriph_Driver/src/stm32f4xx_rtc.c ****   RTC->CR |= (uint32_t)(RTC_DayLightSaving | RTC_StoreOperation);
 3335              		.loc 1 1618 0
 3336 0054 074B     		ldr	r3, .L216+4
 3337 0056 074A     		ldr	r2, .L216+4
 3338 0058 9168     		ldr	r1, [r2, #8]
 3339 005a 7868     		ldr	r0, [r7, #4]
 3340 005c 3A68     		ldr	r2, [r7]
 3341 005e 0243     		orrs	r2, r2, r0
 3342 0060 0A43     		orrs	r2, r2, r1
 3343 0062 9A60     		str	r2, [r3, #8]
1619:App/STM32F4-Discovery/Libraries/STM32F4xx_StdPeriph_Driver/src/stm32f4xx_rtc.c **** 
1620:App/STM32F4-Discovery/Libraries/STM32F4xx_StdPeriph_Driver/src/stm32f4xx_rtc.c ****   /* Enable the write protection for RTC registers */
1621:App/STM32F4-Discovery/Libraries/STM32F4xx_StdPeriph_Driver/src/stm32f4xx_rtc.c ****   RTC->WPR = 0xFF; 
 3344              		.loc 1 1621 0
 3345 0064 034B     		ldr	r3, .L216+4
 3346 0066 FF22     		movs	r2, #255
 3347 0068 5A62     		str	r2, [r3, #36]
1622:App/STM32F4-Discovery/Libraries/STM32F4xx_StdPeriph_Driver/src/stm32f4xx_rtc.c **** }
 3348              		.loc 1 1622 0
 3349 006a 0837     		adds	r7, r7, #8
 3350 006c BD46     		mov	sp, r7
 3351              		@ sp needed
 3352 006e 80BD     		pop	{r7, pc}
 3353              	.L217:
 3354              		.align	2
 3355              	.L216:
 3356 0070 00000000 		.word	.LC0
 3357 0074 00280040 		.word	1073752064
 3358              		.cfi_endproc
 3359              	.LFE136:
 3361              		.section	.text.RTC_GetStoreOperation,"ax",%progbits
 3362              		.align	2
 3363              		.global	RTC_GetStoreOperation
 3364              		.thumb
 3365              		.thumb_func
 3367              	RTC_GetStoreOperation:
 3368              	.LFB137:
1623:App/STM32F4-Discovery/Libraries/STM32F4xx_StdPeriph_Driver/src/stm32f4xx_rtc.c **** 
1624:App/STM32F4-Discovery/Libraries/STM32F4xx_StdPeriph_Driver/src/stm32f4xx_rtc.c **** /**
1625:App/STM32F4-Discovery/Libraries/STM32F4xx_StdPeriph_Driver/src/stm32f4xx_rtc.c ****   * @brief  Returns the RTC Day Light Saving stored operation.
1626:App/STM32F4-Discovery/Libraries/STM32F4xx_StdPeriph_Driver/src/stm32f4xx_rtc.c ****   * @param  None
1627:App/STM32F4-Discovery/Libraries/STM32F4xx_StdPeriph_Driver/src/stm32f4xx_rtc.c ****   * @retval RTC Day Light Saving stored operation.
1628:App/STM32F4-Discovery/Libraries/STM32F4xx_StdPeriph_Driver/src/stm32f4xx_rtc.c ****   *          - RTC_StoreOperation_Reset
1629:App/STM32F4-Discovery/Libraries/STM32F4xx_StdPeriph_Driver/src/stm32f4xx_rtc.c ****   *          - RTC_StoreOperation_Set       
1630:App/STM32F4-Discovery/Libraries/STM32F4xx_StdPeriph_Driver/src/stm32f4xx_rtc.c ****   */
1631:App/STM32F4-Discovery/Libraries/STM32F4xx_StdPeriph_Driver/src/stm32f4xx_rtc.c **** uint32_t RTC_GetStoreOperation(void)
1632:App/STM32F4-Discovery/Libraries/STM32F4xx_StdPeriph_Driver/src/stm32f4xx_rtc.c **** {
 3369              		.loc 1 1632 0
 3370              		.cfi_startproc
 3371              		@ args = 0, pretend = 0, frame = 0
 3372              		@ frame_needed = 1, uses_anonymous_args = 0
 3373              		@ link register save eliminated.
 3374 0000 80B4     		push	{r7}
 3375              	.LCFI79:
 3376              		.cfi_def_cfa_offset 4
 3377              		.cfi_offset 7, -4
 3378 0002 00AF     		add	r7, sp, #0
 3379              	.LCFI80:
 3380              		.cfi_def_cfa_register 7
1633:App/STM32F4-Discovery/Libraries/STM32F4xx_StdPeriph_Driver/src/stm32f4xx_rtc.c ****   return (RTC->CR & RTC_CR_BCK);
 3381              		.loc 1 1633 0
 3382 0004 044B     		ldr	r3, .L220
 3383 0006 9B68     		ldr	r3, [r3, #8]
 3384 0008 03F48023 		and	r3, r3, #262144
1634:App/STM32F4-Discovery/Libraries/STM32F4xx_StdPeriph_Driver/src/stm32f4xx_rtc.c **** }
 3385              		.loc 1 1634 0
 3386 000c 1846     		mov	r0, r3
 3387 000e BD46     		mov	sp, r7
 3388              		@ sp needed
 3389 0010 5DF8047B 		ldr	r7, [sp], #4
 3390 0014 7047     		bx	lr
 3391              	.L221:
 3392 0016 00BF     		.align	2
 3393              	.L220:
 3394 0018 00280040 		.word	1073752064
 3395              		.cfi_endproc
 3396              	.LFE137:
 3398              		.section	.text.RTC_OutputConfig,"ax",%progbits
 3399              		.align	2
 3400              		.global	RTC_OutputConfig
 3401              		.thumb
 3402              		.thumb_func
 3404              	RTC_OutputConfig:
 3405              	.LFB138:
1635:App/STM32F4-Discovery/Libraries/STM32F4xx_StdPeriph_Driver/src/stm32f4xx_rtc.c **** 
1636:App/STM32F4-Discovery/Libraries/STM32F4xx_StdPeriph_Driver/src/stm32f4xx_rtc.c **** /**
1637:App/STM32F4-Discovery/Libraries/STM32F4xx_StdPeriph_Driver/src/stm32f4xx_rtc.c ****   * @}
1638:App/STM32F4-Discovery/Libraries/STM32F4xx_StdPeriph_Driver/src/stm32f4xx_rtc.c ****   */
1639:App/STM32F4-Discovery/Libraries/STM32F4xx_StdPeriph_Driver/src/stm32f4xx_rtc.c **** 
1640:App/STM32F4-Discovery/Libraries/STM32F4xx_StdPeriph_Driver/src/stm32f4xx_rtc.c **** /** @defgroup RTC_Group6 Output pin Configuration function
1641:App/STM32F4-Discovery/Libraries/STM32F4xx_StdPeriph_Driver/src/stm32f4xx_rtc.c ****  *  @brief   Output pin Configuration function 
1642:App/STM32F4-Discovery/Libraries/STM32F4xx_StdPeriph_Driver/src/stm32f4xx_rtc.c ****  *
1643:App/STM32F4-Discovery/Libraries/STM32F4xx_StdPeriph_Driver/src/stm32f4xx_rtc.c **** @verbatim   
1644:App/STM32F4-Discovery/Libraries/STM32F4xx_StdPeriph_Driver/src/stm32f4xx_rtc.c ****  ===============================================================================
1645:App/STM32F4-Discovery/Libraries/STM32F4xx_StdPeriph_Driver/src/stm32f4xx_rtc.c ****                          Output pin Configuration function
1646:App/STM32F4-Discovery/Libraries/STM32F4xx_StdPeriph_Driver/src/stm32f4xx_rtc.c ****  ===============================================================================  
1647:App/STM32F4-Discovery/Libraries/STM32F4xx_StdPeriph_Driver/src/stm32f4xx_rtc.c **** 
1648:App/STM32F4-Discovery/Libraries/STM32F4xx_StdPeriph_Driver/src/stm32f4xx_rtc.c ****   This section provide functions allowing to configure the RTC Output source.
1649:App/STM32F4-Discovery/Libraries/STM32F4xx_StdPeriph_Driver/src/stm32f4xx_rtc.c **** 
1650:App/STM32F4-Discovery/Libraries/STM32F4xx_StdPeriph_Driver/src/stm32f4xx_rtc.c **** @endverbatim
1651:App/STM32F4-Discovery/Libraries/STM32F4xx_StdPeriph_Driver/src/stm32f4xx_rtc.c ****   * @{
1652:App/STM32F4-Discovery/Libraries/STM32F4xx_StdPeriph_Driver/src/stm32f4xx_rtc.c ****   */
1653:App/STM32F4-Discovery/Libraries/STM32F4xx_StdPeriph_Driver/src/stm32f4xx_rtc.c **** 
1654:App/STM32F4-Discovery/Libraries/STM32F4xx_StdPeriph_Driver/src/stm32f4xx_rtc.c **** /**
1655:App/STM32F4-Discovery/Libraries/STM32F4xx_StdPeriph_Driver/src/stm32f4xx_rtc.c ****   * @brief  Configures the RTC output source (AFO_ALARM).
1656:App/STM32F4-Discovery/Libraries/STM32F4xx_StdPeriph_Driver/src/stm32f4xx_rtc.c ****   * @param  RTC_Output: Specifies which signal will be routed to the RTC output. 
1657:App/STM32F4-Discovery/Libraries/STM32F4xx_StdPeriph_Driver/src/stm32f4xx_rtc.c ****   *          This parameter can be one of the following values:
1658:App/STM32F4-Discovery/Libraries/STM32F4xx_StdPeriph_Driver/src/stm32f4xx_rtc.c ****   *            @arg RTC_Output_Disable: No output selected
1659:App/STM32F4-Discovery/Libraries/STM32F4xx_StdPeriph_Driver/src/stm32f4xx_rtc.c ****   *            @arg RTC_Output_AlarmA: signal of AlarmA mapped to output
1660:App/STM32F4-Discovery/Libraries/STM32F4xx_StdPeriph_Driver/src/stm32f4xx_rtc.c ****   *            @arg RTC_Output_AlarmB: signal of AlarmB mapped to output
1661:App/STM32F4-Discovery/Libraries/STM32F4xx_StdPeriph_Driver/src/stm32f4xx_rtc.c ****   *            @arg RTC_Output_WakeUp: signal of WakeUp mapped to output
1662:App/STM32F4-Discovery/Libraries/STM32F4xx_StdPeriph_Driver/src/stm32f4xx_rtc.c ****   * @param  RTC_OutputPolarity: Specifies the polarity of the output signal. 
1663:App/STM32F4-Discovery/Libraries/STM32F4xx_StdPeriph_Driver/src/stm32f4xx_rtc.c ****   *          This parameter can be one of the following:
1664:App/STM32F4-Discovery/Libraries/STM32F4xx_StdPeriph_Driver/src/stm32f4xx_rtc.c ****   *            @arg RTC_OutputPolarity_High: The output pin is high when the 
1665:App/STM32F4-Discovery/Libraries/STM32F4xx_StdPeriph_Driver/src/stm32f4xx_rtc.c ****   *                                 ALRAF/ALRBF/WUTF is high (depending on OSEL)
1666:App/STM32F4-Discovery/Libraries/STM32F4xx_StdPeriph_Driver/src/stm32f4xx_rtc.c ****   *            @arg RTC_OutputPolarity_Low: The output pin is low when the 
1667:App/STM32F4-Discovery/Libraries/STM32F4xx_StdPeriph_Driver/src/stm32f4xx_rtc.c ****   *                                 ALRAF/ALRBF/WUTF is high (depending on OSEL)
1668:App/STM32F4-Discovery/Libraries/STM32F4xx_StdPeriph_Driver/src/stm32f4xx_rtc.c ****   * @retval None
1669:App/STM32F4-Discovery/Libraries/STM32F4xx_StdPeriph_Driver/src/stm32f4xx_rtc.c ****   */
1670:App/STM32F4-Discovery/Libraries/STM32F4xx_StdPeriph_Driver/src/stm32f4xx_rtc.c **** void RTC_OutputConfig(uint32_t RTC_Output, uint32_t RTC_OutputPolarity)
1671:App/STM32F4-Discovery/Libraries/STM32F4xx_StdPeriph_Driver/src/stm32f4xx_rtc.c **** {
 3406              		.loc 1 1671 0
 3407              		.cfi_startproc
 3408              		@ args = 0, pretend = 0, frame = 8
 3409              		@ frame_needed = 1, uses_anonymous_args = 0
 3410 0000 80B5     		push	{r7, lr}
 3411              	.LCFI81:
 3412              		.cfi_def_cfa_offset 8
 3413              		.cfi_offset 7, -8
 3414              		.cfi_offset 14, -4
 3415 0002 82B0     		sub	sp, sp, #8
 3416              	.LCFI82:
 3417              		.cfi_def_cfa_offset 16
 3418 0004 00AF     		add	r7, sp, #0
 3419              	.LCFI83:
 3420              		.cfi_def_cfa_register 7
 3421 0006 7860     		str	r0, [r7, #4]
 3422 0008 3960     		str	r1, [r7]
1672:App/STM32F4-Discovery/Libraries/STM32F4xx_StdPeriph_Driver/src/stm32f4xx_rtc.c ****   /* Check the parameters */
1673:App/STM32F4-Discovery/Libraries/STM32F4xx_StdPeriph_Driver/src/stm32f4xx_rtc.c ****   assert_param(IS_RTC_OUTPUT(RTC_Output));
 3423              		.loc 1 1673 0
 3424 000a 7B68     		ldr	r3, [r7, #4]
 3425 000c 002B     		cmp	r3, #0
 3426 000e 10D0     		beq	.L223
 3427              		.loc 1 1673 0 is_stmt 0 discriminator 1
 3428 0010 7B68     		ldr	r3, [r7, #4]
 3429 0012 B3F5001F 		cmp	r3, #2097152
 3430 0016 0CD0     		beq	.L223
 3431 0018 7B68     		ldr	r3, [r7, #4]
 3432 001a B3F5800F 		cmp	r3, #4194304
 3433 001e 08D0     		beq	.L223
 3434 0020 7B68     		ldr	r3, [r7, #4]
 3435 0022 B3F5C00F 		cmp	r3, #6291456
 3436 0026 04D0     		beq	.L223
 3437 0028 1548     		ldr	r0, .L225
 3438 002a 40F28961 		movw	r1, #1673
 3439 002e FFF7FEFF 		bl	assert_failed
 3440              	.L223:
1674:App/STM32F4-Discovery/Libraries/STM32F4xx_StdPeriph_Driver/src/stm32f4xx_rtc.c ****   assert_param(IS_RTC_OUTPUT_POL(RTC_OutputPolarity));
 3441              		.loc 1 1674 0 is_stmt 1
 3442 0032 3B68     		ldr	r3, [r7]
 3443 0034 002B     		cmp	r3, #0
 3444 0036 08D0     		beq	.L224
 3445              		.loc 1 1674 0 is_stmt 0 discriminator 1
 3446 0038 3B68     		ldr	r3, [r7]
 3447 003a B3F5801F 		cmp	r3, #1048576
 3448 003e 04D0     		beq	.L224
 3449 0040 0F48     		ldr	r0, .L225
 3450 0042 40F28A61 		movw	r1, #1674
 3451 0046 FFF7FEFF 		bl	assert_failed
 3452              	.L224:
1675:App/STM32F4-Discovery/Libraries/STM32F4xx_StdPeriph_Driver/src/stm32f4xx_rtc.c **** 
1676:App/STM32F4-Discovery/Libraries/STM32F4xx_StdPeriph_Driver/src/stm32f4xx_rtc.c ****   /* Disable the write protection for RTC registers */
1677:App/STM32F4-Discovery/Libraries/STM32F4xx_StdPeriph_Driver/src/stm32f4xx_rtc.c ****   RTC->WPR = 0xCA;
 3453              		.loc 1 1677 0 is_stmt 1
 3454 004a 0E4B     		ldr	r3, .L225+4
 3455 004c CA22     		movs	r2, #202
 3456 004e 5A62     		str	r2, [r3, #36]
1678:App/STM32F4-Discovery/Libraries/STM32F4xx_StdPeriph_Driver/src/stm32f4xx_rtc.c ****   RTC->WPR = 0x53;
 3457              		.loc 1 1678 0
 3458 0050 0C4B     		ldr	r3, .L225+4
 3459 0052 5322     		movs	r2, #83
 3460 0054 5A62     		str	r2, [r3, #36]
1679:App/STM32F4-Discovery/Libraries/STM32F4xx_StdPeriph_Driver/src/stm32f4xx_rtc.c **** 
1680:App/STM32F4-Discovery/Libraries/STM32F4xx_StdPeriph_Driver/src/stm32f4xx_rtc.c ****   /* Clear the bits to be configured */
1681:App/STM32F4-Discovery/Libraries/STM32F4xx_StdPeriph_Driver/src/stm32f4xx_rtc.c ****   RTC->CR &= (uint32_t)~(RTC_CR_OSEL | RTC_CR_POL);
 3461              		.loc 1 1681 0
 3462 0056 0B4B     		ldr	r3, .L225+4
 3463 0058 0A4A     		ldr	r2, .L225+4
 3464 005a 9268     		ldr	r2, [r2, #8]
 3465 005c 22F4E002 		bic	r2, r2, #7340032
 3466 0060 9A60     		str	r2, [r3, #8]
1682:App/STM32F4-Discovery/Libraries/STM32F4xx_StdPeriph_Driver/src/stm32f4xx_rtc.c **** 
1683:App/STM32F4-Discovery/Libraries/STM32F4xx_StdPeriph_Driver/src/stm32f4xx_rtc.c ****   /* Configure the output selection and polarity */
1684:App/STM32F4-Discovery/Libraries/STM32F4xx_StdPeriph_Driver/src/stm32f4xx_rtc.c ****   RTC->CR |= (uint32_t)(RTC_Output | RTC_OutputPolarity);
 3467              		.loc 1 1684 0
 3468 0062 084B     		ldr	r3, .L225+4
 3469 0064 074A     		ldr	r2, .L225+4
 3470 0066 9168     		ldr	r1, [r2, #8]
 3471 0068 7868     		ldr	r0, [r7, #4]
 3472 006a 3A68     		ldr	r2, [r7]
 3473 006c 0243     		orrs	r2, r2, r0
 3474 006e 0A43     		orrs	r2, r2, r1
 3475 0070 9A60     		str	r2, [r3, #8]
1685:App/STM32F4-Discovery/Libraries/STM32F4xx_StdPeriph_Driver/src/stm32f4xx_rtc.c **** 
1686:App/STM32F4-Discovery/Libraries/STM32F4xx_StdPeriph_Driver/src/stm32f4xx_rtc.c ****   /* Enable the write protection for RTC registers */
1687:App/STM32F4-Discovery/Libraries/STM32F4xx_StdPeriph_Driver/src/stm32f4xx_rtc.c ****   RTC->WPR = 0xFF; 
 3476              		.loc 1 1687 0
 3477 0072 044B     		ldr	r3, .L225+4
 3478 0074 FF22     		movs	r2, #255
 3479 0076 5A62     		str	r2, [r3, #36]
1688:App/STM32F4-Discovery/Libraries/STM32F4xx_StdPeriph_Driver/src/stm32f4xx_rtc.c **** }
 3480              		.loc 1 1688 0
 3481 0078 0837     		adds	r7, r7, #8
 3482 007a BD46     		mov	sp, r7
 3483              		@ sp needed
 3484 007c 80BD     		pop	{r7, pc}
 3485              	.L226:
 3486 007e 00BF     		.align	2
 3487              	.L225:
 3488 0080 00000000 		.word	.LC0
 3489 0084 00280040 		.word	1073752064
 3490              		.cfi_endproc
 3491              	.LFE138:
 3493              		.section	.text.RTC_CoarseCalibConfig,"ax",%progbits
 3494              		.align	2
 3495              		.global	RTC_CoarseCalibConfig
 3496              		.thumb
 3497              		.thumb_func
 3499              	RTC_CoarseCalibConfig:
 3500              	.LFB139:
1689:App/STM32F4-Discovery/Libraries/STM32F4xx_StdPeriph_Driver/src/stm32f4xx_rtc.c **** 
1690:App/STM32F4-Discovery/Libraries/STM32F4xx_StdPeriph_Driver/src/stm32f4xx_rtc.c **** /**
1691:App/STM32F4-Discovery/Libraries/STM32F4xx_StdPeriph_Driver/src/stm32f4xx_rtc.c ****   * @}
1692:App/STM32F4-Discovery/Libraries/STM32F4xx_StdPeriph_Driver/src/stm32f4xx_rtc.c ****   */
1693:App/STM32F4-Discovery/Libraries/STM32F4xx_StdPeriph_Driver/src/stm32f4xx_rtc.c **** 
1694:App/STM32F4-Discovery/Libraries/STM32F4xx_StdPeriph_Driver/src/stm32f4xx_rtc.c **** /** @defgroup RTC_Group7 Digital Calibration configuration functions
1695:App/STM32F4-Discovery/Libraries/STM32F4xx_StdPeriph_Driver/src/stm32f4xx_rtc.c ****  *  @brief   Coarse Calibration configuration functions 
1696:App/STM32F4-Discovery/Libraries/STM32F4xx_StdPeriph_Driver/src/stm32f4xx_rtc.c ****  *
1697:App/STM32F4-Discovery/Libraries/STM32F4xx_StdPeriph_Driver/src/stm32f4xx_rtc.c **** @verbatim   
1698:App/STM32F4-Discovery/Libraries/STM32F4xx_StdPeriph_Driver/src/stm32f4xx_rtc.c ****  ===============================================================================
1699:App/STM32F4-Discovery/Libraries/STM32F4xx_StdPeriph_Driver/src/stm32f4xx_rtc.c ****                   Digital Calibration configuration functions
1700:App/STM32F4-Discovery/Libraries/STM32F4xx_StdPeriph_Driver/src/stm32f4xx_rtc.c ****  ===============================================================================  
1701:App/STM32F4-Discovery/Libraries/STM32F4xx_StdPeriph_Driver/src/stm32f4xx_rtc.c **** 
1702:App/STM32F4-Discovery/Libraries/STM32F4xx_StdPeriph_Driver/src/stm32f4xx_rtc.c **** @endverbatim
1703:App/STM32F4-Discovery/Libraries/STM32F4xx_StdPeriph_Driver/src/stm32f4xx_rtc.c ****   * @{
1704:App/STM32F4-Discovery/Libraries/STM32F4xx_StdPeriph_Driver/src/stm32f4xx_rtc.c ****   */
1705:App/STM32F4-Discovery/Libraries/STM32F4xx_StdPeriph_Driver/src/stm32f4xx_rtc.c **** 
1706:App/STM32F4-Discovery/Libraries/STM32F4xx_StdPeriph_Driver/src/stm32f4xx_rtc.c **** /**
1707:App/STM32F4-Discovery/Libraries/STM32F4xx_StdPeriph_Driver/src/stm32f4xx_rtc.c ****   * @brief  Configures the Coarse calibration parameters.
1708:App/STM32F4-Discovery/Libraries/STM32F4xx_StdPeriph_Driver/src/stm32f4xx_rtc.c ****   * @param  RTC_CalibSign: specifies the sign of the coarse calibration value.
1709:App/STM32F4-Discovery/Libraries/STM32F4xx_StdPeriph_Driver/src/stm32f4xx_rtc.c ****   *          This parameter can be  one of the following values:
1710:App/STM32F4-Discovery/Libraries/STM32F4xx_StdPeriph_Driver/src/stm32f4xx_rtc.c ****   *            @arg RTC_CalibSign_Positive: The value sign is positive 
1711:App/STM32F4-Discovery/Libraries/STM32F4xx_StdPeriph_Driver/src/stm32f4xx_rtc.c ****   *            @arg RTC_CalibSign_Negative: The value sign is negative
1712:App/STM32F4-Discovery/Libraries/STM32F4xx_StdPeriph_Driver/src/stm32f4xx_rtc.c ****   * @param  Value: value of coarse calibration expressed in ppm (coded on 5 bits).
1713:App/STM32F4-Discovery/Libraries/STM32F4xx_StdPeriph_Driver/src/stm32f4xx_rtc.c ****   *    
1714:App/STM32F4-Discovery/Libraries/STM32F4xx_StdPeriph_Driver/src/stm32f4xx_rtc.c ****   * @note   This Calibration value should be between 0 and 63 when using negative
1715:App/STM32F4-Discovery/Libraries/STM32F4xx_StdPeriph_Driver/src/stm32f4xx_rtc.c ****   *         sign with a 2-ppm step.
1716:App/STM32F4-Discovery/Libraries/STM32F4xx_StdPeriph_Driver/src/stm32f4xx_rtc.c ****   *           
1717:App/STM32F4-Discovery/Libraries/STM32F4xx_StdPeriph_Driver/src/stm32f4xx_rtc.c ****   * @note   This Calibration value should be between 0 and 126 when using positive
1718:App/STM32F4-Discovery/Libraries/STM32F4xx_StdPeriph_Driver/src/stm32f4xx_rtc.c ****   *         sign with a 4-ppm step.
1719:App/STM32F4-Discovery/Libraries/STM32F4xx_StdPeriph_Driver/src/stm32f4xx_rtc.c ****   *           
1720:App/STM32F4-Discovery/Libraries/STM32F4xx_StdPeriph_Driver/src/stm32f4xx_rtc.c ****   * @retval An ErrorStatus enumeration value:
1721:App/STM32F4-Discovery/Libraries/STM32F4xx_StdPeriph_Driver/src/stm32f4xx_rtc.c ****   *          - SUCCESS: RTC Coarse calibration are initialized
1722:App/STM32F4-Discovery/Libraries/STM32F4xx_StdPeriph_Driver/src/stm32f4xx_rtc.c ****   *          - ERROR: RTC Coarse calibration are not initialized     
1723:App/STM32F4-Discovery/Libraries/STM32F4xx_StdPeriph_Driver/src/stm32f4xx_rtc.c ****   */
1724:App/STM32F4-Discovery/Libraries/STM32F4xx_StdPeriph_Driver/src/stm32f4xx_rtc.c **** ErrorStatus RTC_CoarseCalibConfig(uint32_t RTC_CalibSign, uint32_t Value)
1725:App/STM32F4-Discovery/Libraries/STM32F4xx_StdPeriph_Driver/src/stm32f4xx_rtc.c **** {
 3501              		.loc 1 1725 0
 3502              		.cfi_startproc
 3503              		@ args = 0, pretend = 0, frame = 16
 3504              		@ frame_needed = 1, uses_anonymous_args = 0
 3505 0000 80B5     		push	{r7, lr}
 3506              	.LCFI84:
 3507              		.cfi_def_cfa_offset 8
 3508              		.cfi_offset 7, -8
 3509              		.cfi_offset 14, -4
 3510 0002 84B0     		sub	sp, sp, #16
 3511              	.LCFI85:
 3512              		.cfi_def_cfa_offset 24
 3513 0004 00AF     		add	r7, sp, #0
 3514              	.LCFI86:
 3515              		.cfi_def_cfa_register 7
 3516 0006 7860     		str	r0, [r7, #4]
 3517 0008 3960     		str	r1, [r7]
1726:App/STM32F4-Discovery/Libraries/STM32F4xx_StdPeriph_Driver/src/stm32f4xx_rtc.c ****   ErrorStatus status = ERROR;
 3518              		.loc 1 1726 0
 3519 000a 0023     		movs	r3, #0
 3520 000c FB73     		strb	r3, [r7, #15]
1727:App/STM32F4-Discovery/Libraries/STM32F4xx_StdPeriph_Driver/src/stm32f4xx_rtc.c ****    
1728:App/STM32F4-Discovery/Libraries/STM32F4xx_StdPeriph_Driver/src/stm32f4xx_rtc.c ****   /* Check the parameters */
1729:App/STM32F4-Discovery/Libraries/STM32F4xx_StdPeriph_Driver/src/stm32f4xx_rtc.c ****   assert_param(IS_RTC_CALIB_SIGN(RTC_CalibSign));
 3521              		.loc 1 1729 0
 3522 000e 7B68     		ldr	r3, [r7, #4]
 3523 0010 002B     		cmp	r3, #0
 3524 0012 07D0     		beq	.L228
 3525              		.loc 1 1729 0 is_stmt 0 discriminator 1
 3526 0014 7B68     		ldr	r3, [r7, #4]
 3527 0016 802B     		cmp	r3, #128
 3528 0018 04D0     		beq	.L228
 3529 001a 1648     		ldr	r0, .L233
 3530 001c 40F2C161 		movw	r1, #1729
 3531 0020 FFF7FEFF 		bl	assert_failed
 3532              	.L228:
1730:App/STM32F4-Discovery/Libraries/STM32F4xx_StdPeriph_Driver/src/stm32f4xx_rtc.c ****   assert_param(IS_RTC_CALIB_VALUE(Value)); 
 3533              		.loc 1 1730 0 is_stmt 1
 3534 0024 3B68     		ldr	r3, [r7]
 3535 0026 1F2B     		cmp	r3, #31
 3536 0028 04D9     		bls	.L229
 3537              		.loc 1 1730 0 is_stmt 0 discriminator 1
 3538 002a 1248     		ldr	r0, .L233
 3539 002c 40F2C261 		movw	r1, #1730
 3540 0030 FFF7FEFF 		bl	assert_failed
 3541              	.L229:
1731:App/STM32F4-Discovery/Libraries/STM32F4xx_StdPeriph_Driver/src/stm32f4xx_rtc.c **** 
1732:App/STM32F4-Discovery/Libraries/STM32F4xx_StdPeriph_Driver/src/stm32f4xx_rtc.c ****   /* Disable the write protection for RTC registers */
1733:App/STM32F4-Discovery/Libraries/STM32F4xx_StdPeriph_Driver/src/stm32f4xx_rtc.c ****   RTC->WPR = 0xCA;
 3542              		.loc 1 1733 0 is_stmt 1
 3543 0034 104B     		ldr	r3, .L233+4
 3544 0036 CA22     		movs	r2, #202
 3545 0038 5A62     		str	r2, [r3, #36]
1734:App/STM32F4-Discovery/Libraries/STM32F4xx_StdPeriph_Driver/src/stm32f4xx_rtc.c ****   RTC->WPR = 0x53;
 3546              		.loc 1 1734 0
 3547 003a 0F4B     		ldr	r3, .L233+4
 3548 003c 5322     		movs	r2, #83
 3549 003e 5A62     		str	r2, [r3, #36]
1735:App/STM32F4-Discovery/Libraries/STM32F4xx_StdPeriph_Driver/src/stm32f4xx_rtc.c **** 
1736:App/STM32F4-Discovery/Libraries/STM32F4xx_StdPeriph_Driver/src/stm32f4xx_rtc.c ****   /* Set Initialization mode */
1737:App/STM32F4-Discovery/Libraries/STM32F4xx_StdPeriph_Driver/src/stm32f4xx_rtc.c ****   if (RTC_EnterInitMode() == ERROR)
 3550              		.loc 1 1737 0
 3551 0040 FFF7FEFF 		bl	RTC_EnterInitMode
 3552 0044 0346     		mov	r3, r0
 3553 0046 002B     		cmp	r3, #0
 3554 0048 02D1     		bne	.L230
1738:App/STM32F4-Discovery/Libraries/STM32F4xx_StdPeriph_Driver/src/stm32f4xx_rtc.c ****   {
1739:App/STM32F4-Discovery/Libraries/STM32F4xx_StdPeriph_Driver/src/stm32f4xx_rtc.c ****     status = ERROR;
 3555              		.loc 1 1739 0
 3556 004a 0023     		movs	r3, #0
 3557 004c FB73     		strb	r3, [r7, #15]
 3558 004e 08E0     		b	.L231
 3559              	.L230:
1740:App/STM32F4-Discovery/Libraries/STM32F4xx_StdPeriph_Driver/src/stm32f4xx_rtc.c ****   } 
1741:App/STM32F4-Discovery/Libraries/STM32F4xx_StdPeriph_Driver/src/stm32f4xx_rtc.c ****   else
1742:App/STM32F4-Discovery/Libraries/STM32F4xx_StdPeriph_Driver/src/stm32f4xx_rtc.c ****   {
1743:App/STM32F4-Discovery/Libraries/STM32F4xx_StdPeriph_Driver/src/stm32f4xx_rtc.c ****     /* Set the coarse calibration value */
1744:App/STM32F4-Discovery/Libraries/STM32F4xx_StdPeriph_Driver/src/stm32f4xx_rtc.c ****     RTC->CALIBR = (uint32_t)(RTC_CalibSign | Value);
 3560              		.loc 1 1744 0
 3561 0050 094B     		ldr	r3, .L233+4
 3562 0052 7968     		ldr	r1, [r7, #4]
 3563 0054 3A68     		ldr	r2, [r7]
 3564 0056 0A43     		orrs	r2, r2, r1
 3565 0058 9A61     		str	r2, [r3, #24]
1745:App/STM32F4-Discovery/Libraries/STM32F4xx_StdPeriph_Driver/src/stm32f4xx_rtc.c ****     /* Exit Initialization mode */
1746:App/STM32F4-Discovery/Libraries/STM32F4xx_StdPeriph_Driver/src/stm32f4xx_rtc.c ****     RTC_ExitInitMode();
 3566              		.loc 1 1746 0
 3567 005a FFF7FEFF 		bl	RTC_ExitInitMode
1747:App/STM32F4-Discovery/Libraries/STM32F4xx_StdPeriph_Driver/src/stm32f4xx_rtc.c ****     
1748:App/STM32F4-Discovery/Libraries/STM32F4xx_StdPeriph_Driver/src/stm32f4xx_rtc.c ****     status = SUCCESS;
 3568              		.loc 1 1748 0
 3569 005e 0123     		movs	r3, #1
 3570 0060 FB73     		strb	r3, [r7, #15]
 3571              	.L231:
1749:App/STM32F4-Discovery/Libraries/STM32F4xx_StdPeriph_Driver/src/stm32f4xx_rtc.c ****   } 
1750:App/STM32F4-Discovery/Libraries/STM32F4xx_StdPeriph_Driver/src/stm32f4xx_rtc.c **** 
1751:App/STM32F4-Discovery/Libraries/STM32F4xx_StdPeriph_Driver/src/stm32f4xx_rtc.c ****   /* Enable the write protection for RTC registers */
1752:App/STM32F4-Discovery/Libraries/STM32F4xx_StdPeriph_Driver/src/stm32f4xx_rtc.c ****   RTC->WPR = 0xFF; 
 3572              		.loc 1 1752 0
 3573 0062 054B     		ldr	r3, .L233+4
 3574 0064 FF22     		movs	r2, #255
 3575 0066 5A62     		str	r2, [r3, #36]
1753:App/STM32F4-Discovery/Libraries/STM32F4xx_StdPeriph_Driver/src/stm32f4xx_rtc.c ****   
1754:App/STM32F4-Discovery/Libraries/STM32F4xx_StdPeriph_Driver/src/stm32f4xx_rtc.c ****   return status;
 3576              		.loc 1 1754 0
 3577 0068 FB7B     		ldrb	r3, [r7, #15]	@ zero_extendqisi2
1755:App/STM32F4-Discovery/Libraries/STM32F4xx_StdPeriph_Driver/src/stm32f4xx_rtc.c **** }
 3578              		.loc 1 1755 0
 3579 006a 1846     		mov	r0, r3
 3580 006c 1037     		adds	r7, r7, #16
 3581 006e BD46     		mov	sp, r7
 3582              		@ sp needed
 3583 0070 80BD     		pop	{r7, pc}
 3584              	.L234:
 3585 0072 00BF     		.align	2
 3586              	.L233:
 3587 0074 00000000 		.word	.LC0
 3588 0078 00280040 		.word	1073752064
 3589              		.cfi_endproc
 3590              	.LFE139:
 3592              		.section	.text.RTC_CoarseCalibCmd,"ax",%progbits
 3593              		.align	2
 3594              		.global	RTC_CoarseCalibCmd
 3595              		.thumb
 3596              		.thumb_func
 3598              	RTC_CoarseCalibCmd:
 3599              	.LFB140:
1756:App/STM32F4-Discovery/Libraries/STM32F4xx_StdPeriph_Driver/src/stm32f4xx_rtc.c **** 
1757:App/STM32F4-Discovery/Libraries/STM32F4xx_StdPeriph_Driver/src/stm32f4xx_rtc.c **** /**
1758:App/STM32F4-Discovery/Libraries/STM32F4xx_StdPeriph_Driver/src/stm32f4xx_rtc.c ****   * @brief  Enables or disables the Coarse calibration process.
1759:App/STM32F4-Discovery/Libraries/STM32F4xx_StdPeriph_Driver/src/stm32f4xx_rtc.c ****   * @param  NewState: new state of the Coarse calibration.
1760:App/STM32F4-Discovery/Libraries/STM32F4xx_StdPeriph_Driver/src/stm32f4xx_rtc.c ****   *          This parameter can be: ENABLE or DISABLE.
1761:App/STM32F4-Discovery/Libraries/STM32F4xx_StdPeriph_Driver/src/stm32f4xx_rtc.c ****   * @retval An ErrorStatus enumeration value:
1762:App/STM32F4-Discovery/Libraries/STM32F4xx_StdPeriph_Driver/src/stm32f4xx_rtc.c ****   *          - SUCCESS: RTC Coarse calibration are enabled/disabled
1763:App/STM32F4-Discovery/Libraries/STM32F4xx_StdPeriph_Driver/src/stm32f4xx_rtc.c ****   *          - ERROR: RTC Coarse calibration are not enabled/disabled    
1764:App/STM32F4-Discovery/Libraries/STM32F4xx_StdPeriph_Driver/src/stm32f4xx_rtc.c ****   */
1765:App/STM32F4-Discovery/Libraries/STM32F4xx_StdPeriph_Driver/src/stm32f4xx_rtc.c **** ErrorStatus RTC_CoarseCalibCmd(FunctionalState NewState)
1766:App/STM32F4-Discovery/Libraries/STM32F4xx_StdPeriph_Driver/src/stm32f4xx_rtc.c **** {
 3600              		.loc 1 1766 0
 3601              		.cfi_startproc
 3602              		@ args = 0, pretend = 0, frame = 16
 3603              		@ frame_needed = 1, uses_anonymous_args = 0
 3604 0000 80B5     		push	{r7, lr}
 3605              	.LCFI87:
 3606              		.cfi_def_cfa_offset 8
 3607              		.cfi_offset 7, -8
 3608              		.cfi_offset 14, -4
 3609 0002 84B0     		sub	sp, sp, #16
 3610              	.LCFI88:
 3611              		.cfi_def_cfa_offset 24
 3612 0004 00AF     		add	r7, sp, #0
 3613              	.LCFI89:
 3614              		.cfi_def_cfa_register 7
 3615 0006 0346     		mov	r3, r0
 3616 0008 FB71     		strb	r3, [r7, #7]
1767:App/STM32F4-Discovery/Libraries/STM32F4xx_StdPeriph_Driver/src/stm32f4xx_rtc.c ****   ErrorStatus status = ERROR;
 3617              		.loc 1 1767 0
 3618 000a 0023     		movs	r3, #0
 3619 000c FB73     		strb	r3, [r7, #15]
1768:App/STM32F4-Discovery/Libraries/STM32F4xx_StdPeriph_Driver/src/stm32f4xx_rtc.c ****   
1769:App/STM32F4-Discovery/Libraries/STM32F4xx_StdPeriph_Driver/src/stm32f4xx_rtc.c ****   /* Check the parameters */
1770:App/STM32F4-Discovery/Libraries/STM32F4xx_StdPeriph_Driver/src/stm32f4xx_rtc.c ****   assert_param(IS_FUNCTIONAL_STATE(NewState));
 3620              		.loc 1 1770 0
 3621 000e FB79     		ldrb	r3, [r7, #7]	@ zero_extendqisi2
 3622 0010 002B     		cmp	r3, #0
 3623 0012 07D0     		beq	.L236
 3624              		.loc 1 1770 0 is_stmt 0 discriminator 1
 3625 0014 FB79     		ldrb	r3, [r7, #7]	@ zero_extendqisi2
 3626 0016 012B     		cmp	r3, #1
 3627 0018 04D0     		beq	.L236
 3628 001a 1748     		ldr	r0, .L242
 3629 001c 40F2EA61 		movw	r1, #1770
 3630 0020 FFF7FEFF 		bl	assert_failed
 3631              	.L236:
1771:App/STM32F4-Discovery/Libraries/STM32F4xx_StdPeriph_Driver/src/stm32f4xx_rtc.c **** 
1772:App/STM32F4-Discovery/Libraries/STM32F4xx_StdPeriph_Driver/src/stm32f4xx_rtc.c ****   /* Disable the write protection for RTC registers */
1773:App/STM32F4-Discovery/Libraries/STM32F4xx_StdPeriph_Driver/src/stm32f4xx_rtc.c ****   RTC->WPR = 0xCA;
 3632              		.loc 1 1773 0 is_stmt 1
 3633 0024 154B     		ldr	r3, .L242+4
 3634 0026 CA22     		movs	r2, #202
 3635 0028 5A62     		str	r2, [r3, #36]
1774:App/STM32F4-Discovery/Libraries/STM32F4xx_StdPeriph_Driver/src/stm32f4xx_rtc.c ****   RTC->WPR = 0x53;
 3636              		.loc 1 1774 0
 3637 002a 144B     		ldr	r3, .L242+4
 3638 002c 5322     		movs	r2, #83
 3639 002e 5A62     		str	r2, [r3, #36]
1775:App/STM32F4-Discovery/Libraries/STM32F4xx_StdPeriph_Driver/src/stm32f4xx_rtc.c ****   
1776:App/STM32F4-Discovery/Libraries/STM32F4xx_StdPeriph_Driver/src/stm32f4xx_rtc.c ****   /* Set Initialization mode */
1777:App/STM32F4-Discovery/Libraries/STM32F4xx_StdPeriph_Driver/src/stm32f4xx_rtc.c ****   if (RTC_EnterInitMode() == ERROR)
 3640              		.loc 1 1777 0
 3641 0030 FFF7FEFF 		bl	RTC_EnterInitMode
 3642 0034 0346     		mov	r3, r0
 3643 0036 002B     		cmp	r3, #0
 3644 0038 02D1     		bne	.L237
1778:App/STM32F4-Discovery/Libraries/STM32F4xx_StdPeriph_Driver/src/stm32f4xx_rtc.c ****   {
1779:App/STM32F4-Discovery/Libraries/STM32F4xx_StdPeriph_Driver/src/stm32f4xx_rtc.c ****     status =  ERROR;
 3645              		.loc 1 1779 0
 3646 003a 0023     		movs	r3, #0
 3647 003c FB73     		strb	r3, [r7, #15]
 3648 003e 13E0     		b	.L238
 3649              	.L237:
1780:App/STM32F4-Discovery/Libraries/STM32F4xx_StdPeriph_Driver/src/stm32f4xx_rtc.c ****   }
1781:App/STM32F4-Discovery/Libraries/STM32F4xx_StdPeriph_Driver/src/stm32f4xx_rtc.c ****   else
1782:App/STM32F4-Discovery/Libraries/STM32F4xx_StdPeriph_Driver/src/stm32f4xx_rtc.c ****   {
1783:App/STM32F4-Discovery/Libraries/STM32F4xx_StdPeriph_Driver/src/stm32f4xx_rtc.c ****     if (NewState != DISABLE)
 3650              		.loc 1 1783 0
 3651 0040 FB79     		ldrb	r3, [r7, #7]	@ zero_extendqisi2
 3652 0042 002B     		cmp	r3, #0
 3653 0044 06D0     		beq	.L239
1784:App/STM32F4-Discovery/Libraries/STM32F4xx_StdPeriph_Driver/src/stm32f4xx_rtc.c ****     {
1785:App/STM32F4-Discovery/Libraries/STM32F4xx_StdPeriph_Driver/src/stm32f4xx_rtc.c ****       /* Enable the Coarse Calibration */
1786:App/STM32F4-Discovery/Libraries/STM32F4xx_StdPeriph_Driver/src/stm32f4xx_rtc.c ****       RTC->CR |= (uint32_t)RTC_CR_DCE;
 3654              		.loc 1 1786 0
 3655 0046 0D4B     		ldr	r3, .L242+4
 3656 0048 0C4A     		ldr	r2, .L242+4
 3657 004a 9268     		ldr	r2, [r2, #8]
 3658 004c 42F08002 		orr	r2, r2, #128
 3659 0050 9A60     		str	r2, [r3, #8]
 3660 0052 05E0     		b	.L240
 3661              	.L239:
1787:App/STM32F4-Discovery/Libraries/STM32F4xx_StdPeriph_Driver/src/stm32f4xx_rtc.c ****     }
1788:App/STM32F4-Discovery/Libraries/STM32F4xx_StdPeriph_Driver/src/stm32f4xx_rtc.c ****     else
1789:App/STM32F4-Discovery/Libraries/STM32F4xx_StdPeriph_Driver/src/stm32f4xx_rtc.c ****     { 
1790:App/STM32F4-Discovery/Libraries/STM32F4xx_StdPeriph_Driver/src/stm32f4xx_rtc.c ****       /* Disable the Coarse Calibration */
1791:App/STM32F4-Discovery/Libraries/STM32F4xx_StdPeriph_Driver/src/stm32f4xx_rtc.c ****       RTC->CR &= (uint32_t)~RTC_CR_DCE;
 3662              		.loc 1 1791 0
 3663 0054 094B     		ldr	r3, .L242+4
 3664 0056 094A     		ldr	r2, .L242+4
 3665 0058 9268     		ldr	r2, [r2, #8]
 3666 005a 22F08002 		bic	r2, r2, #128
 3667 005e 9A60     		str	r2, [r3, #8]
 3668              	.L240:
1792:App/STM32F4-Discovery/Libraries/STM32F4xx_StdPeriph_Driver/src/stm32f4xx_rtc.c ****     }
1793:App/STM32F4-Discovery/Libraries/STM32F4xx_StdPeriph_Driver/src/stm32f4xx_rtc.c ****     /* Exit Initialization mode */
1794:App/STM32F4-Discovery/Libraries/STM32F4xx_StdPeriph_Driver/src/stm32f4xx_rtc.c ****     RTC_ExitInitMode();
 3669              		.loc 1 1794 0
 3670 0060 FFF7FEFF 		bl	RTC_ExitInitMode
1795:App/STM32F4-Discovery/Libraries/STM32F4xx_StdPeriph_Driver/src/stm32f4xx_rtc.c ****     
1796:App/STM32F4-Discovery/Libraries/STM32F4xx_StdPeriph_Driver/src/stm32f4xx_rtc.c ****     status = SUCCESS;
 3671              		.loc 1 1796 0
 3672 0064 0123     		movs	r3, #1
 3673 0066 FB73     		strb	r3, [r7, #15]
 3674              	.L238:
1797:App/STM32F4-Discovery/Libraries/STM32F4xx_StdPeriph_Driver/src/stm32f4xx_rtc.c ****   } 
1798:App/STM32F4-Discovery/Libraries/STM32F4xx_StdPeriph_Driver/src/stm32f4xx_rtc.c ****   
1799:App/STM32F4-Discovery/Libraries/STM32F4xx_StdPeriph_Driver/src/stm32f4xx_rtc.c ****   /* Enable the write protection for RTC registers */
1800:App/STM32F4-Discovery/Libraries/STM32F4xx_StdPeriph_Driver/src/stm32f4xx_rtc.c ****   RTC->WPR = 0xFF; 
 3675              		.loc 1 1800 0
 3676 0068 044B     		ldr	r3, .L242+4
 3677 006a FF22     		movs	r2, #255
 3678 006c 5A62     		str	r2, [r3, #36]
1801:App/STM32F4-Discovery/Libraries/STM32F4xx_StdPeriph_Driver/src/stm32f4xx_rtc.c ****   
1802:App/STM32F4-Discovery/Libraries/STM32F4xx_StdPeriph_Driver/src/stm32f4xx_rtc.c ****   return status;
 3679              		.loc 1 1802 0
 3680 006e FB7B     		ldrb	r3, [r7, #15]	@ zero_extendqisi2
1803:App/STM32F4-Discovery/Libraries/STM32F4xx_StdPeriph_Driver/src/stm32f4xx_rtc.c **** }
 3681              		.loc 1 1803 0
 3682 0070 1846     		mov	r0, r3
 3683 0072 1037     		adds	r7, r7, #16
 3684 0074 BD46     		mov	sp, r7
 3685              		@ sp needed
 3686 0076 80BD     		pop	{r7, pc}
 3687              	.L243:
 3688              		.align	2
 3689              	.L242:
 3690 0078 00000000 		.word	.LC0
 3691 007c 00280040 		.word	1073752064
 3692              		.cfi_endproc
 3693              	.LFE140:
 3695              		.section	.text.RTC_CalibOutputCmd,"ax",%progbits
 3696              		.align	2
 3697              		.global	RTC_CalibOutputCmd
 3698              		.thumb
 3699              		.thumb_func
 3701              	RTC_CalibOutputCmd:
 3702              	.LFB141:
1804:App/STM32F4-Discovery/Libraries/STM32F4xx_StdPeriph_Driver/src/stm32f4xx_rtc.c **** 
1805:App/STM32F4-Discovery/Libraries/STM32F4xx_StdPeriph_Driver/src/stm32f4xx_rtc.c **** /**
1806:App/STM32F4-Discovery/Libraries/STM32F4xx_StdPeriph_Driver/src/stm32f4xx_rtc.c ****   * @brief  Enables or disables the RTC clock to be output through the relative pin.
1807:App/STM32F4-Discovery/Libraries/STM32F4xx_StdPeriph_Driver/src/stm32f4xx_rtc.c ****   * @param  NewState: new state of the digital calibration Output.
1808:App/STM32F4-Discovery/Libraries/STM32F4xx_StdPeriph_Driver/src/stm32f4xx_rtc.c ****   *          This parameter can be: ENABLE or DISABLE.
1809:App/STM32F4-Discovery/Libraries/STM32F4xx_StdPeriph_Driver/src/stm32f4xx_rtc.c ****   * @retval None
1810:App/STM32F4-Discovery/Libraries/STM32F4xx_StdPeriph_Driver/src/stm32f4xx_rtc.c ****   */
1811:App/STM32F4-Discovery/Libraries/STM32F4xx_StdPeriph_Driver/src/stm32f4xx_rtc.c **** void RTC_CalibOutputCmd(FunctionalState NewState)
1812:App/STM32F4-Discovery/Libraries/STM32F4xx_StdPeriph_Driver/src/stm32f4xx_rtc.c **** {
 3703              		.loc 1 1812 0
 3704              		.cfi_startproc
 3705              		@ args = 0, pretend = 0, frame = 8
 3706              		@ frame_needed = 1, uses_anonymous_args = 0
 3707 0000 80B5     		push	{r7, lr}
 3708              	.LCFI90:
 3709              		.cfi_def_cfa_offset 8
 3710              		.cfi_offset 7, -8
 3711              		.cfi_offset 14, -4
 3712 0002 82B0     		sub	sp, sp, #8
 3713              	.LCFI91:
 3714              		.cfi_def_cfa_offset 16
 3715 0004 00AF     		add	r7, sp, #0
 3716              	.LCFI92:
 3717              		.cfi_def_cfa_register 7
 3718 0006 0346     		mov	r3, r0
 3719 0008 FB71     		strb	r3, [r7, #7]
1813:App/STM32F4-Discovery/Libraries/STM32F4xx_StdPeriph_Driver/src/stm32f4xx_rtc.c ****   /* Check the parameters */
1814:App/STM32F4-Discovery/Libraries/STM32F4xx_StdPeriph_Driver/src/stm32f4xx_rtc.c ****   assert_param(IS_FUNCTIONAL_STATE(NewState));
 3720              		.loc 1 1814 0
 3721 000a FB79     		ldrb	r3, [r7, #7]	@ zero_extendqisi2
 3722 000c 002B     		cmp	r3, #0
 3723 000e 07D0     		beq	.L245
 3724              		.loc 1 1814 0 is_stmt 0 discriminator 1
 3725 0010 FB79     		ldrb	r3, [r7, #7]	@ zero_extendqisi2
 3726 0012 012B     		cmp	r3, #1
 3727 0014 04D0     		beq	.L245
 3728 0016 1048     		ldr	r0, .L248
 3729 0018 40F21671 		movw	r1, #1814
 3730 001c FFF7FEFF 		bl	assert_failed
 3731              	.L245:
1815:App/STM32F4-Discovery/Libraries/STM32F4xx_StdPeriph_Driver/src/stm32f4xx_rtc.c ****   
1816:App/STM32F4-Discovery/Libraries/STM32F4xx_StdPeriph_Driver/src/stm32f4xx_rtc.c ****   /* Disable the write protection for RTC registers */
1817:App/STM32F4-Discovery/Libraries/STM32F4xx_StdPeriph_Driver/src/stm32f4xx_rtc.c ****   RTC->WPR = 0xCA;
 3732              		.loc 1 1817 0 is_stmt 1
 3733 0020 0E4B     		ldr	r3, .L248+4
 3734 0022 CA22     		movs	r2, #202
 3735 0024 5A62     		str	r2, [r3, #36]
1818:App/STM32F4-Discovery/Libraries/STM32F4xx_StdPeriph_Driver/src/stm32f4xx_rtc.c ****   RTC->WPR = 0x53;
 3736              		.loc 1 1818 0
 3737 0026 0D4B     		ldr	r3, .L248+4
 3738 0028 5322     		movs	r2, #83
 3739 002a 5A62     		str	r2, [r3, #36]
1819:App/STM32F4-Discovery/Libraries/STM32F4xx_StdPeriph_Driver/src/stm32f4xx_rtc.c ****   
1820:App/STM32F4-Discovery/Libraries/STM32F4xx_StdPeriph_Driver/src/stm32f4xx_rtc.c ****   if (NewState != DISABLE)
 3740              		.loc 1 1820 0
 3741 002c FB79     		ldrb	r3, [r7, #7]	@ zero_extendqisi2
 3742 002e 002B     		cmp	r3, #0
 3743 0030 06D0     		beq	.L246
1821:App/STM32F4-Discovery/Libraries/STM32F4xx_StdPeriph_Driver/src/stm32f4xx_rtc.c ****   {
1822:App/STM32F4-Discovery/Libraries/STM32F4xx_StdPeriph_Driver/src/stm32f4xx_rtc.c ****     /* Enable the RTC clock output */
1823:App/STM32F4-Discovery/Libraries/STM32F4xx_StdPeriph_Driver/src/stm32f4xx_rtc.c ****     RTC->CR |= (uint32_t)RTC_CR_COE;
 3744              		.loc 1 1823 0
 3745 0032 0A4B     		ldr	r3, .L248+4
 3746 0034 094A     		ldr	r2, .L248+4
 3747 0036 9268     		ldr	r2, [r2, #8]
 3748 0038 42F40002 		orr	r2, r2, #8388608
 3749 003c 9A60     		str	r2, [r3, #8]
 3750 003e 05E0     		b	.L247
 3751              	.L246:
1824:App/STM32F4-Discovery/Libraries/STM32F4xx_StdPeriph_Driver/src/stm32f4xx_rtc.c ****   }
1825:App/STM32F4-Discovery/Libraries/STM32F4xx_StdPeriph_Driver/src/stm32f4xx_rtc.c ****   else
1826:App/STM32F4-Discovery/Libraries/STM32F4xx_StdPeriph_Driver/src/stm32f4xx_rtc.c ****   { 
1827:App/STM32F4-Discovery/Libraries/STM32F4xx_StdPeriph_Driver/src/stm32f4xx_rtc.c ****     /* Disable the RTC clock output */
1828:App/STM32F4-Discovery/Libraries/STM32F4xx_StdPeriph_Driver/src/stm32f4xx_rtc.c ****     RTC->CR &= (uint32_t)~RTC_CR_COE;
 3752              		.loc 1 1828 0
 3753 0040 064B     		ldr	r3, .L248+4
 3754 0042 064A     		ldr	r2, .L248+4
 3755 0044 9268     		ldr	r2, [r2, #8]
 3756 0046 22F40002 		bic	r2, r2, #8388608
 3757 004a 9A60     		str	r2, [r3, #8]
 3758              	.L247:
1829:App/STM32F4-Discovery/Libraries/STM32F4xx_StdPeriph_Driver/src/stm32f4xx_rtc.c ****   }
1830:App/STM32F4-Discovery/Libraries/STM32F4xx_StdPeriph_Driver/src/stm32f4xx_rtc.c ****   
1831:App/STM32F4-Discovery/Libraries/STM32F4xx_StdPeriph_Driver/src/stm32f4xx_rtc.c ****   /* Enable the write protection for RTC registers */
1832:App/STM32F4-Discovery/Libraries/STM32F4xx_StdPeriph_Driver/src/stm32f4xx_rtc.c ****   RTC->WPR = 0xFF; 
 3759              		.loc 1 1832 0
 3760 004c 034B     		ldr	r3, .L248+4
 3761 004e FF22     		movs	r2, #255
 3762 0050 5A62     		str	r2, [r3, #36]
1833:App/STM32F4-Discovery/Libraries/STM32F4xx_StdPeriph_Driver/src/stm32f4xx_rtc.c **** }
 3763              		.loc 1 1833 0
 3764 0052 0837     		adds	r7, r7, #8
 3765 0054 BD46     		mov	sp, r7
 3766              		@ sp needed
 3767 0056 80BD     		pop	{r7, pc}
 3768              	.L249:
 3769              		.align	2
 3770              	.L248:
 3771 0058 00000000 		.word	.LC0
 3772 005c 00280040 		.word	1073752064
 3773              		.cfi_endproc
 3774              	.LFE141:
 3776              		.section	.text.RTC_CalibOutputConfig,"ax",%progbits
 3777              		.align	2
 3778              		.global	RTC_CalibOutputConfig
 3779              		.thumb
 3780              		.thumb_func
 3782              	RTC_CalibOutputConfig:
 3783              	.LFB142:
1834:App/STM32F4-Discovery/Libraries/STM32F4xx_StdPeriph_Driver/src/stm32f4xx_rtc.c **** 
1835:App/STM32F4-Discovery/Libraries/STM32F4xx_StdPeriph_Driver/src/stm32f4xx_rtc.c **** /**
1836:App/STM32F4-Discovery/Libraries/STM32F4xx_StdPeriph_Driver/src/stm32f4xx_rtc.c ****   * @brief  Configure the Calibration Pinout (RTC_CALIB) Selection (1Hz or 512Hz).
1837:App/STM32F4-Discovery/Libraries/STM32F4xx_StdPeriph_Driver/src/stm32f4xx_rtc.c ****   * @param  RTC_CalibOutput : Select the Calibration output Selection .
1838:App/STM32F4-Discovery/Libraries/STM32F4xx_StdPeriph_Driver/src/stm32f4xx_rtc.c ****   *   This parameter can be one of the following values:
1839:App/STM32F4-Discovery/Libraries/STM32F4xx_StdPeriph_Driver/src/stm32f4xx_rtc.c ****   *     @arg RTC_CalibOutput_512Hz: A signal has a regular waveform at 512Hz. 
1840:App/STM32F4-Discovery/Libraries/STM32F4xx_StdPeriph_Driver/src/stm32f4xx_rtc.c ****   *     @arg RTC_CalibOutput_1Hz  : A signal has a regular waveform at 1Hz.
1841:App/STM32F4-Discovery/Libraries/STM32F4xx_StdPeriph_Driver/src/stm32f4xx_rtc.c ****   * @retval None
1842:App/STM32F4-Discovery/Libraries/STM32F4xx_StdPeriph_Driver/src/stm32f4xx_rtc.c **** */
1843:App/STM32F4-Discovery/Libraries/STM32F4xx_StdPeriph_Driver/src/stm32f4xx_rtc.c **** void RTC_CalibOutputConfig(uint32_t RTC_CalibOutput)
1844:App/STM32F4-Discovery/Libraries/STM32F4xx_StdPeriph_Driver/src/stm32f4xx_rtc.c **** {
 3784              		.loc 1 1844 0
 3785              		.cfi_startproc
 3786              		@ args = 0, pretend = 0, frame = 8
 3787              		@ frame_needed = 1, uses_anonymous_args = 0
 3788 0000 80B5     		push	{r7, lr}
 3789              	.LCFI93:
 3790              		.cfi_def_cfa_offset 8
 3791              		.cfi_offset 7, -8
 3792              		.cfi_offset 14, -4
 3793 0002 82B0     		sub	sp, sp, #8
 3794              	.LCFI94:
 3795              		.cfi_def_cfa_offset 16
 3796 0004 00AF     		add	r7, sp, #0
 3797              	.LCFI95:
 3798              		.cfi_def_cfa_register 7
 3799 0006 7860     		str	r0, [r7, #4]
1845:App/STM32F4-Discovery/Libraries/STM32F4xx_StdPeriph_Driver/src/stm32f4xx_rtc.c ****   /* Check the parameters */
1846:App/STM32F4-Discovery/Libraries/STM32F4xx_StdPeriph_Driver/src/stm32f4xx_rtc.c ****   assert_param(IS_RTC_CALIB_OUTPUT(RTC_CalibOutput));
 3800              		.loc 1 1846 0
 3801 0008 7B68     		ldr	r3, [r7, #4]
 3802 000a 002B     		cmp	r3, #0
 3803 000c 08D0     		beq	.L251
 3804              		.loc 1 1846 0 is_stmt 0 discriminator 1
 3805 000e 7B68     		ldr	r3, [r7, #4]
 3806 0010 B3F5002F 		cmp	r3, #524288
 3807 0014 04D0     		beq	.L251
 3808 0016 0E48     		ldr	r0, .L252
 3809 0018 40F23671 		movw	r1, #1846
 3810 001c FFF7FEFF 		bl	assert_failed
 3811              	.L251:
1847:App/STM32F4-Discovery/Libraries/STM32F4xx_StdPeriph_Driver/src/stm32f4xx_rtc.c **** 
1848:App/STM32F4-Discovery/Libraries/STM32F4xx_StdPeriph_Driver/src/stm32f4xx_rtc.c ****   /* Disable the write protection for RTC registers */
1849:App/STM32F4-Discovery/Libraries/STM32F4xx_StdPeriph_Driver/src/stm32f4xx_rtc.c ****   RTC->WPR = 0xCA;
 3812              		.loc 1 1849 0 is_stmt 1
 3813 0020 0C4B     		ldr	r3, .L252+4
 3814 0022 CA22     		movs	r2, #202
 3815 0024 5A62     		str	r2, [r3, #36]
1850:App/STM32F4-Discovery/Libraries/STM32F4xx_StdPeriph_Driver/src/stm32f4xx_rtc.c ****   RTC->WPR = 0x53;
 3816              		.loc 1 1850 0
 3817 0026 0B4B     		ldr	r3, .L252+4
 3818 0028 5322     		movs	r2, #83
 3819 002a 5A62     		str	r2, [r3, #36]
1851:App/STM32F4-Discovery/Libraries/STM32F4xx_StdPeriph_Driver/src/stm32f4xx_rtc.c ****   
1852:App/STM32F4-Discovery/Libraries/STM32F4xx_StdPeriph_Driver/src/stm32f4xx_rtc.c ****   /*clear flags before config*/
1853:App/STM32F4-Discovery/Libraries/STM32F4xx_StdPeriph_Driver/src/stm32f4xx_rtc.c ****   RTC->CR &= (uint32_t)~(RTC_CR_COSEL);
 3820              		.loc 1 1853 0
 3821 002c 094B     		ldr	r3, .L252+4
 3822 002e 094A     		ldr	r2, .L252+4
 3823 0030 9268     		ldr	r2, [r2, #8]
 3824 0032 22F40022 		bic	r2, r2, #524288
 3825 0036 9A60     		str	r2, [r3, #8]
1854:App/STM32F4-Discovery/Libraries/STM32F4xx_StdPeriph_Driver/src/stm32f4xx_rtc.c **** 
1855:App/STM32F4-Discovery/Libraries/STM32F4xx_StdPeriph_Driver/src/stm32f4xx_rtc.c ****   /* Configure the RTC_CR register */
1856:App/STM32F4-Discovery/Libraries/STM32F4xx_StdPeriph_Driver/src/stm32f4xx_rtc.c ****   RTC->CR |= (uint32_t)RTC_CalibOutput;
 3826              		.loc 1 1856 0
 3827 0038 064B     		ldr	r3, .L252+4
 3828 003a 064A     		ldr	r2, .L252+4
 3829 003c 9168     		ldr	r1, [r2, #8]
 3830 003e 7A68     		ldr	r2, [r7, #4]
 3831 0040 0A43     		orrs	r2, r2, r1
 3832 0042 9A60     		str	r2, [r3, #8]
1857:App/STM32F4-Discovery/Libraries/STM32F4xx_StdPeriph_Driver/src/stm32f4xx_rtc.c **** 
1858:App/STM32F4-Discovery/Libraries/STM32F4xx_StdPeriph_Driver/src/stm32f4xx_rtc.c ****   /* Enable the write protection for RTC registers */
1859:App/STM32F4-Discovery/Libraries/STM32F4xx_StdPeriph_Driver/src/stm32f4xx_rtc.c ****   RTC->WPR = 0xFF;
 3833              		.loc 1 1859 0
 3834 0044 034B     		ldr	r3, .L252+4
 3835 0046 FF22     		movs	r2, #255
 3836 0048 5A62     		str	r2, [r3, #36]
1860:App/STM32F4-Discovery/Libraries/STM32F4xx_StdPeriph_Driver/src/stm32f4xx_rtc.c **** }
 3837              		.loc 1 1860 0
 3838 004a 0837     		adds	r7, r7, #8
 3839 004c BD46     		mov	sp, r7
 3840              		@ sp needed
 3841 004e 80BD     		pop	{r7, pc}
 3842              	.L253:
 3843              		.align	2
 3844              	.L252:
 3845 0050 00000000 		.word	.LC0
 3846 0054 00280040 		.word	1073752064
 3847              		.cfi_endproc
 3848              	.LFE142:
 3850              		.section	.text.RTC_SmoothCalibConfig,"ax",%progbits
 3851              		.align	2
 3852              		.global	RTC_SmoothCalibConfig
 3853              		.thumb
 3854              		.thumb_func
 3856              	RTC_SmoothCalibConfig:
 3857              	.LFB143:
1861:App/STM32F4-Discovery/Libraries/STM32F4xx_StdPeriph_Driver/src/stm32f4xx_rtc.c **** 
1862:App/STM32F4-Discovery/Libraries/STM32F4xx_StdPeriph_Driver/src/stm32f4xx_rtc.c **** /**
1863:App/STM32F4-Discovery/Libraries/STM32F4xx_StdPeriph_Driver/src/stm32f4xx_rtc.c ****   * @brief  Configures the Smooth Calibration Settings.
1864:App/STM32F4-Discovery/Libraries/STM32F4xx_StdPeriph_Driver/src/stm32f4xx_rtc.c ****   * @param  RTC_SmoothCalibPeriod : Select the Smooth Calibration Period.
1865:App/STM32F4-Discovery/Libraries/STM32F4xx_StdPeriph_Driver/src/stm32f4xx_rtc.c ****   *   This parameter can be can be one of the following values:
1866:App/STM32F4-Discovery/Libraries/STM32F4xx_StdPeriph_Driver/src/stm32f4xx_rtc.c ****   *     @arg RTC_SmoothCalibPeriod_32sec : The smooth calibration periode is 32s.
1867:App/STM32F4-Discovery/Libraries/STM32F4xx_StdPeriph_Driver/src/stm32f4xx_rtc.c ****   *     @arg RTC_SmoothCalibPeriod_16sec : The smooth calibration periode is 16s.
1868:App/STM32F4-Discovery/Libraries/STM32F4xx_StdPeriph_Driver/src/stm32f4xx_rtc.c ****   *     @arg RTC_SmoothCalibPeriod_8sec  : The smooth calibartion periode is 8s.
1869:App/STM32F4-Discovery/Libraries/STM32F4xx_StdPeriph_Driver/src/stm32f4xx_rtc.c ****   * @param  RTC_SmoothCalibPlusPulses : Select to Set or reset the CALP bit.
1870:App/STM32F4-Discovery/Libraries/STM32F4xx_StdPeriph_Driver/src/stm32f4xx_rtc.c ****   *   This parameter can be one of the following values:
1871:App/STM32F4-Discovery/Libraries/STM32F4xx_StdPeriph_Driver/src/stm32f4xx_rtc.c ****   *     @arg RTC_SmoothCalibPlusPulses_Set  : Add one RTCCLK puls every 2**11 pulses.
1872:App/STM32F4-Discovery/Libraries/STM32F4xx_StdPeriph_Driver/src/stm32f4xx_rtc.c ****   *     @arg RTC_SmoothCalibPlusPulses_Reset: No RTCCLK pulses are added.
1873:App/STM32F4-Discovery/Libraries/STM32F4xx_StdPeriph_Driver/src/stm32f4xx_rtc.c ****   * @param  RTC_SmouthCalibMinusPulsesValue: Select the value of CALM[8:0] bits.
1874:App/STM32F4-Discovery/Libraries/STM32F4xx_StdPeriph_Driver/src/stm32f4xx_rtc.c ****   *   This parameter can be one any value from 0 to 0x000001FF.
1875:App/STM32F4-Discovery/Libraries/STM32F4xx_StdPeriph_Driver/src/stm32f4xx_rtc.c ****   * @retval An ErrorStatus enumeration value:
1876:App/STM32F4-Discovery/Libraries/STM32F4xx_StdPeriph_Driver/src/stm32f4xx_rtc.c ****   *          - SUCCESS: RTC Calib registers are configured
1877:App/STM32F4-Discovery/Libraries/STM32F4xx_StdPeriph_Driver/src/stm32f4xx_rtc.c ****   *          - ERROR: RTC Calib registers are not configured
1878:App/STM32F4-Discovery/Libraries/STM32F4xx_StdPeriph_Driver/src/stm32f4xx_rtc.c **** */
1879:App/STM32F4-Discovery/Libraries/STM32F4xx_StdPeriph_Driver/src/stm32f4xx_rtc.c **** ErrorStatus RTC_SmoothCalibConfig(uint32_t RTC_SmoothCalibPeriod,
1880:App/STM32F4-Discovery/Libraries/STM32F4xx_StdPeriph_Driver/src/stm32f4xx_rtc.c ****                                   uint32_t RTC_SmoothCalibPlusPulses,
1881:App/STM32F4-Discovery/Libraries/STM32F4xx_StdPeriph_Driver/src/stm32f4xx_rtc.c ****                                   uint32_t RTC_SmouthCalibMinusPulsesValue)
1882:App/STM32F4-Discovery/Libraries/STM32F4xx_StdPeriph_Driver/src/stm32f4xx_rtc.c **** {
 3858              		.loc 1 1882 0
 3859              		.cfi_startproc
 3860              		@ args = 0, pretend = 0, frame = 24
 3861              		@ frame_needed = 1, uses_anonymous_args = 0
 3862 0000 80B5     		push	{r7, lr}
 3863              	.LCFI96:
 3864              		.cfi_def_cfa_offset 8
 3865              		.cfi_offset 7, -8
 3866              		.cfi_offset 14, -4
 3867 0002 86B0     		sub	sp, sp, #24
 3868              	.LCFI97:
 3869              		.cfi_def_cfa_offset 32
 3870 0004 00AF     		add	r7, sp, #0
 3871              	.LCFI98:
 3872              		.cfi_def_cfa_register 7
 3873 0006 F860     		str	r0, [r7, #12]
 3874 0008 B960     		str	r1, [r7, #8]
 3875 000a 7A60     		str	r2, [r7, #4]
1883:App/STM32F4-Discovery/Libraries/STM32F4xx_StdPeriph_Driver/src/stm32f4xx_rtc.c ****   ErrorStatus status = ERROR;
 3876              		.loc 1 1883 0
 3877 000c 0023     		movs	r3, #0
 3878 000e FB75     		strb	r3, [r7, #23]
1884:App/STM32F4-Discovery/Libraries/STM32F4xx_StdPeriph_Driver/src/stm32f4xx_rtc.c ****   uint32_t recalpfcount = 0;
 3879              		.loc 1 1884 0
 3880 0010 0023     		movs	r3, #0
 3881 0012 3B61     		str	r3, [r7, #16]
1885:App/STM32F4-Discovery/Libraries/STM32F4xx_StdPeriph_Driver/src/stm32f4xx_rtc.c **** 
1886:App/STM32F4-Discovery/Libraries/STM32F4xx_StdPeriph_Driver/src/stm32f4xx_rtc.c ****   /* Check the parameters */
1887:App/STM32F4-Discovery/Libraries/STM32F4xx_StdPeriph_Driver/src/stm32f4xx_rtc.c ****   assert_param(IS_RTC_SMOOTH_CALIB_PERIOD(RTC_SmoothCalibPeriod));
 3882              		.loc 1 1887 0
 3883 0014 FB68     		ldr	r3, [r7, #12]
 3884 0016 002B     		cmp	r3, #0
 3885 0018 0CD0     		beq	.L255
 3886              		.loc 1 1887 0 is_stmt 0 discriminator 1
 3887 001a FB68     		ldr	r3, [r7, #12]
 3888 001c B3F5005F 		cmp	r3, #8192
 3889 0020 08D0     		beq	.L255
 3890 0022 FB68     		ldr	r3, [r7, #12]
 3891 0024 B3F5804F 		cmp	r3, #16384
 3892 0028 04D0     		beq	.L255
 3893 002a 2748     		ldr	r0, .L264
 3894 002c 40F25F71 		movw	r1, #1887
 3895 0030 FFF7FEFF 		bl	assert_failed
 3896              	.L255:
1888:App/STM32F4-Discovery/Libraries/STM32F4xx_StdPeriph_Driver/src/stm32f4xx_rtc.c ****   assert_param(IS_RTC_SMOOTH_CALIB_PLUS(RTC_SmoothCalibPlusPulses));
 3897              		.loc 1 1888 0 is_stmt 1
 3898 0034 BB68     		ldr	r3, [r7, #8]
 3899 0036 B3F5004F 		cmp	r3, #32768
 3900 003a 07D0     		beq	.L256
 3901              		.loc 1 1888 0 is_stmt 0 discriminator 1
 3902 003c BB68     		ldr	r3, [r7, #8]
 3903 003e 002B     		cmp	r3, #0
 3904 0040 04D0     		beq	.L256
 3905 0042 2148     		ldr	r0, .L264
 3906 0044 4FF4EC61 		mov	r1, #1888
 3907 0048 FFF7FEFF 		bl	assert_failed
 3908              	.L256:
1889:App/STM32F4-Discovery/Libraries/STM32F4xx_StdPeriph_Driver/src/stm32f4xx_rtc.c ****   assert_param(IS_RTC_SMOOTH_CALIB_MINUS(RTC_SmouthCalibMinusPulsesValue));
 3909              		.loc 1 1889 0 is_stmt 1
 3910 004c 7B68     		ldr	r3, [r7, #4]
 3911 004e B3F5007F 		cmp	r3, #512
 3912 0052 04D3     		bcc	.L257
 3913              		.loc 1 1889 0 is_stmt 0 discriminator 1
 3914 0054 1C48     		ldr	r0, .L264
 3915 0056 40F26171 		movw	r1, #1889
 3916 005a FFF7FEFF 		bl	assert_failed
 3917              	.L257:
1890:App/STM32F4-Discovery/Libraries/STM32F4xx_StdPeriph_Driver/src/stm32f4xx_rtc.c **** 
1891:App/STM32F4-Discovery/Libraries/STM32F4xx_StdPeriph_Driver/src/stm32f4xx_rtc.c ****   /* Disable the write protection for RTC registers */
1892:App/STM32F4-Discovery/Libraries/STM32F4xx_StdPeriph_Driver/src/stm32f4xx_rtc.c ****   RTC->WPR = 0xCA;
 3918              		.loc 1 1892 0 is_stmt 1
 3919 005e 1B4B     		ldr	r3, .L264+4
 3920 0060 CA22     		movs	r2, #202
 3921 0062 5A62     		str	r2, [r3, #36]
1893:App/STM32F4-Discovery/Libraries/STM32F4xx_StdPeriph_Driver/src/stm32f4xx_rtc.c ****   RTC->WPR = 0x53;
 3922              		.loc 1 1893 0
 3923 0064 194B     		ldr	r3, .L264+4
 3924 0066 5322     		movs	r2, #83
 3925 0068 5A62     		str	r2, [r3, #36]
1894:App/STM32F4-Discovery/Libraries/STM32F4xx_StdPeriph_Driver/src/stm32f4xx_rtc.c ****   
1895:App/STM32F4-Discovery/Libraries/STM32F4xx_StdPeriph_Driver/src/stm32f4xx_rtc.c ****   /* check if a calibration is pending*/
1896:App/STM32F4-Discovery/Libraries/STM32F4xx_StdPeriph_Driver/src/stm32f4xx_rtc.c ****   if ((RTC->ISR & RTC_ISR_RECALPF) != RESET)
 3926              		.loc 1 1896 0
 3927 006a 184B     		ldr	r3, .L264+4
 3928 006c DB68     		ldr	r3, [r3, #12]
 3929 006e 03F48033 		and	r3, r3, #65536
 3930 0072 002B     		cmp	r3, #0
 3931 0074 0DD0     		beq	.L258
1897:App/STM32F4-Discovery/Libraries/STM32F4xx_StdPeriph_Driver/src/stm32f4xx_rtc.c ****   {
1898:App/STM32F4-Discovery/Libraries/STM32F4xx_StdPeriph_Driver/src/stm32f4xx_rtc.c ****     /* wait until the Calibration is completed*/
1899:App/STM32F4-Discovery/Libraries/STM32F4xx_StdPeriph_Driver/src/stm32f4xx_rtc.c ****     while (((RTC->ISR & RTC_ISR_RECALPF) != RESET) && (recalpfcount != RECALPF_TIMEOUT))
 3932              		.loc 1 1899 0
 3933 0076 02E0     		b	.L259
 3934              	.L260:
1900:App/STM32F4-Discovery/Libraries/STM32F4xx_StdPeriph_Driver/src/stm32f4xx_rtc.c ****     {
1901:App/STM32F4-Discovery/Libraries/STM32F4xx_StdPeriph_Driver/src/stm32f4xx_rtc.c ****       recalpfcount++;
 3935              		.loc 1 1901 0
 3936 0078 3B69     		ldr	r3, [r7, #16]
 3937 007a 0133     		adds	r3, r3, #1
 3938 007c 3B61     		str	r3, [r7, #16]
 3939              	.L259:
1899:App/STM32F4-Discovery/Libraries/STM32F4xx_StdPeriph_Driver/src/stm32f4xx_rtc.c ****     while (((RTC->ISR & RTC_ISR_RECALPF) != RESET) && (recalpfcount != RECALPF_TIMEOUT))
 3940              		.loc 1 1899 0 discriminator 1
 3941 007e 134B     		ldr	r3, .L264+4
 3942 0080 DB68     		ldr	r3, [r3, #12]
 3943 0082 03F48033 		and	r3, r3, #65536
 3944 0086 002B     		cmp	r3, #0
 3945 0088 03D0     		beq	.L258
1899:App/STM32F4-Discovery/Libraries/STM32F4xx_StdPeriph_Driver/src/stm32f4xx_rtc.c ****     while (((RTC->ISR & RTC_ISR_RECALPF) != RESET) && (recalpfcount != RECALPF_TIMEOUT))
 3946              		.loc 1 1899 0 is_stmt 0 discriminator 2
 3947 008a 3B69     		ldr	r3, [r7, #16]
 3948 008c B3F5003F 		cmp	r3, #131072
 3949 0090 F2D1     		bne	.L260
 3950              	.L258:
1902:App/STM32F4-Discovery/Libraries/STM32F4xx_StdPeriph_Driver/src/stm32f4xx_rtc.c ****     }
1903:App/STM32F4-Discovery/Libraries/STM32F4xx_StdPeriph_Driver/src/stm32f4xx_rtc.c ****   }
1904:App/STM32F4-Discovery/Libraries/STM32F4xx_StdPeriph_Driver/src/stm32f4xx_rtc.c **** 
1905:App/STM32F4-Discovery/Libraries/STM32F4xx_StdPeriph_Driver/src/stm32f4xx_rtc.c ****   /* check if the calibration pending is completed or if there is no calibration operation at all*/
1906:App/STM32F4-Discovery/Libraries/STM32F4xx_StdPeriph_Driver/src/stm32f4xx_rtc.c ****   if ((RTC->ISR & RTC_ISR_RECALPF) == RESET)
 3951              		.loc 1 1906 0 is_stmt 1
 3952 0092 0E4B     		ldr	r3, .L264+4
 3953 0094 DB68     		ldr	r3, [r3, #12]
 3954 0096 03F48033 		and	r3, r3, #65536
 3955 009a 002B     		cmp	r3, #0
 3956 009c 09D1     		bne	.L261
1907:App/STM32F4-Discovery/Libraries/STM32F4xx_StdPeriph_Driver/src/stm32f4xx_rtc.c ****   {
1908:App/STM32F4-Discovery/Libraries/STM32F4xx_StdPeriph_Driver/src/stm32f4xx_rtc.c ****     /* Configure the Smooth calibration settings */
1909:App/STM32F4-Discovery/Libraries/STM32F4xx_StdPeriph_Driver/src/stm32f4xx_rtc.c ****     RTC->CALR = (uint32_t)((uint32_t)RTC_SmoothCalibPeriod | (uint32_t)RTC_SmoothCalibPlusPulses | 
 3957              		.loc 1 1909 0
 3958 009e 0B4B     		ldr	r3, .L264+4
 3959 00a0 F968     		ldr	r1, [r7, #12]
 3960 00a2 BA68     		ldr	r2, [r7, #8]
 3961 00a4 1143     		orrs	r1, r1, r2
 3962 00a6 7A68     		ldr	r2, [r7, #4]
 3963 00a8 0A43     		orrs	r2, r2, r1
 3964 00aa DA63     		str	r2, [r3, #60]
1910:App/STM32F4-Discovery/Libraries/STM32F4xx_StdPeriph_Driver/src/stm32f4xx_rtc.c **** 
1911:App/STM32F4-Discovery/Libraries/STM32F4xx_StdPeriph_Driver/src/stm32f4xx_rtc.c ****     status = SUCCESS;
 3965              		.loc 1 1911 0
 3966 00ac 0123     		movs	r3, #1
 3967 00ae FB75     		strb	r3, [r7, #23]
 3968 00b0 01E0     		b	.L262
 3969              	.L261:
1912:App/STM32F4-Discovery/Libraries/STM32F4xx_StdPeriph_Driver/src/stm32f4xx_rtc.c ****   }
1913:App/STM32F4-Discovery/Libraries/STM32F4xx_StdPeriph_Driver/src/stm32f4xx_rtc.c ****   else
1914:App/STM32F4-Discovery/Libraries/STM32F4xx_StdPeriph_Driver/src/stm32f4xx_rtc.c ****   {
1915:App/STM32F4-Discovery/Libraries/STM32F4xx_StdPeriph_Driver/src/stm32f4xx_rtc.c ****     status = ERROR;
 3970              		.loc 1 1915 0
 3971 00b2 0023     		movs	r3, #0
 3972 00b4 FB75     		strb	r3, [r7, #23]
 3973              	.L262:
1916:App/STM32F4-Discovery/Libraries/STM32F4xx_StdPeriph_Driver/src/stm32f4xx_rtc.c ****   }
1917:App/STM32F4-Discovery/Libraries/STM32F4xx_StdPeriph_Driver/src/stm32f4xx_rtc.c **** 
1918:App/STM32F4-Discovery/Libraries/STM32F4xx_StdPeriph_Driver/src/stm32f4xx_rtc.c ****   /* Enable the write protection for RTC registers */
1919:App/STM32F4-Discovery/Libraries/STM32F4xx_StdPeriph_Driver/src/stm32f4xx_rtc.c ****   RTC->WPR = 0xFF;
 3974              		.loc 1 1919 0
 3975 00b6 054B     		ldr	r3, .L264+4
 3976 00b8 FF22     		movs	r2, #255
 3977 00ba 5A62     		str	r2, [r3, #36]
1920:App/STM32F4-Discovery/Libraries/STM32F4xx_StdPeriph_Driver/src/stm32f4xx_rtc.c ****   
1921:App/STM32F4-Discovery/Libraries/STM32F4xx_StdPeriph_Driver/src/stm32f4xx_rtc.c ****   return (ErrorStatus)(status);
 3978              		.loc 1 1921 0
 3979 00bc FB7D     		ldrb	r3, [r7, #23]	@ zero_extendqisi2
1922:App/STM32F4-Discovery/Libraries/STM32F4xx_StdPeriph_Driver/src/stm32f4xx_rtc.c **** }
 3980              		.loc 1 1922 0
 3981 00be 1846     		mov	r0, r3
 3982 00c0 1837     		adds	r7, r7, #24
 3983 00c2 BD46     		mov	sp, r7
 3984              		@ sp needed
 3985 00c4 80BD     		pop	{r7, pc}
 3986              	.L265:
 3987 00c6 00BF     		.align	2
 3988              	.L264:
 3989 00c8 00000000 		.word	.LC0
 3990 00cc 00280040 		.word	1073752064
 3991              		.cfi_endproc
 3992              	.LFE143:
 3994              		.section	.text.RTC_TimeStampCmd,"ax",%progbits
 3995              		.align	2
 3996              		.global	RTC_TimeStampCmd
 3997              		.thumb
 3998              		.thumb_func
 4000              	RTC_TimeStampCmd:
 4001              	.LFB144:
1923:App/STM32F4-Discovery/Libraries/STM32F4xx_StdPeriph_Driver/src/stm32f4xx_rtc.c **** 
1924:App/STM32F4-Discovery/Libraries/STM32F4xx_StdPeriph_Driver/src/stm32f4xx_rtc.c **** /**
1925:App/STM32F4-Discovery/Libraries/STM32F4xx_StdPeriph_Driver/src/stm32f4xx_rtc.c ****   * @}
1926:App/STM32F4-Discovery/Libraries/STM32F4xx_StdPeriph_Driver/src/stm32f4xx_rtc.c ****   */
1927:App/STM32F4-Discovery/Libraries/STM32F4xx_StdPeriph_Driver/src/stm32f4xx_rtc.c **** 
1928:App/STM32F4-Discovery/Libraries/STM32F4xx_StdPeriph_Driver/src/stm32f4xx_rtc.c **** 
1929:App/STM32F4-Discovery/Libraries/STM32F4xx_StdPeriph_Driver/src/stm32f4xx_rtc.c **** /** @defgroup RTC_Group8 TimeStamp configuration functions
1930:App/STM32F4-Discovery/Libraries/STM32F4xx_StdPeriph_Driver/src/stm32f4xx_rtc.c ****  *  @brief   TimeStamp configuration functions 
1931:App/STM32F4-Discovery/Libraries/STM32F4xx_StdPeriph_Driver/src/stm32f4xx_rtc.c ****  *
1932:App/STM32F4-Discovery/Libraries/STM32F4xx_StdPeriph_Driver/src/stm32f4xx_rtc.c **** @verbatim   
1933:App/STM32F4-Discovery/Libraries/STM32F4xx_StdPeriph_Driver/src/stm32f4xx_rtc.c ****  ===============================================================================
1934:App/STM32F4-Discovery/Libraries/STM32F4xx_StdPeriph_Driver/src/stm32f4xx_rtc.c ****                        TimeStamp configuration functions
1935:App/STM32F4-Discovery/Libraries/STM32F4xx_StdPeriph_Driver/src/stm32f4xx_rtc.c ****  ===============================================================================  
1936:App/STM32F4-Discovery/Libraries/STM32F4xx_StdPeriph_Driver/src/stm32f4xx_rtc.c **** 
1937:App/STM32F4-Discovery/Libraries/STM32F4xx_StdPeriph_Driver/src/stm32f4xx_rtc.c **** @endverbatim
1938:App/STM32F4-Discovery/Libraries/STM32F4xx_StdPeriph_Driver/src/stm32f4xx_rtc.c ****   * @{
1939:App/STM32F4-Discovery/Libraries/STM32F4xx_StdPeriph_Driver/src/stm32f4xx_rtc.c ****   */
1940:App/STM32F4-Discovery/Libraries/STM32F4xx_StdPeriph_Driver/src/stm32f4xx_rtc.c **** 
1941:App/STM32F4-Discovery/Libraries/STM32F4xx_StdPeriph_Driver/src/stm32f4xx_rtc.c **** /**
1942:App/STM32F4-Discovery/Libraries/STM32F4xx_StdPeriph_Driver/src/stm32f4xx_rtc.c ****   * @brief  Enables or Disables the RTC TimeStamp functionality with the 
1943:App/STM32F4-Discovery/Libraries/STM32F4xx_StdPeriph_Driver/src/stm32f4xx_rtc.c ****   *         specified time stamp pin stimulating edge.
1944:App/STM32F4-Discovery/Libraries/STM32F4xx_StdPeriph_Driver/src/stm32f4xx_rtc.c ****   * @param  RTC_TimeStampEdge: Specifies the pin edge on which the TimeStamp is 
1945:App/STM32F4-Discovery/Libraries/STM32F4xx_StdPeriph_Driver/src/stm32f4xx_rtc.c ****   *         activated.
1946:App/STM32F4-Discovery/Libraries/STM32F4xx_StdPeriph_Driver/src/stm32f4xx_rtc.c ****   *          This parameter can be one of the following:
1947:App/STM32F4-Discovery/Libraries/STM32F4xx_StdPeriph_Driver/src/stm32f4xx_rtc.c ****   *            @arg RTC_TimeStampEdge_Rising: the Time stamp event occurs on the rising 
1948:App/STM32F4-Discovery/Libraries/STM32F4xx_StdPeriph_Driver/src/stm32f4xx_rtc.c ****   *                                    edge of the related pin.
1949:App/STM32F4-Discovery/Libraries/STM32F4xx_StdPeriph_Driver/src/stm32f4xx_rtc.c ****   *            @arg RTC_TimeStampEdge_Falling: the Time stamp event occurs on the 
1950:App/STM32F4-Discovery/Libraries/STM32F4xx_StdPeriph_Driver/src/stm32f4xx_rtc.c ****   *                                     falling edge of the related pin.
1951:App/STM32F4-Discovery/Libraries/STM32F4xx_StdPeriph_Driver/src/stm32f4xx_rtc.c ****   * @param  NewState: new state of the TimeStamp.
1952:App/STM32F4-Discovery/Libraries/STM32F4xx_StdPeriph_Driver/src/stm32f4xx_rtc.c ****   *          This parameter can be: ENABLE or DISABLE.
1953:App/STM32F4-Discovery/Libraries/STM32F4xx_StdPeriph_Driver/src/stm32f4xx_rtc.c ****   * @retval None
1954:App/STM32F4-Discovery/Libraries/STM32F4xx_StdPeriph_Driver/src/stm32f4xx_rtc.c ****   */
1955:App/STM32F4-Discovery/Libraries/STM32F4xx_StdPeriph_Driver/src/stm32f4xx_rtc.c **** void RTC_TimeStampCmd(uint32_t RTC_TimeStampEdge, FunctionalState NewState)
1956:App/STM32F4-Discovery/Libraries/STM32F4xx_StdPeriph_Driver/src/stm32f4xx_rtc.c **** {
 4002              		.loc 1 1956 0
 4003              		.cfi_startproc
 4004              		@ args = 0, pretend = 0, frame = 16
 4005              		@ frame_needed = 1, uses_anonymous_args = 0
 4006 0000 80B5     		push	{r7, lr}
 4007              	.LCFI99:
 4008              		.cfi_def_cfa_offset 8
 4009              		.cfi_offset 7, -8
 4010              		.cfi_offset 14, -4
 4011 0002 84B0     		sub	sp, sp, #16
 4012              	.LCFI100:
 4013              		.cfi_def_cfa_offset 24
 4014 0004 00AF     		add	r7, sp, #0
 4015              	.LCFI101:
 4016              		.cfi_def_cfa_register 7
 4017 0006 7860     		str	r0, [r7, #4]
 4018 0008 0B46     		mov	r3, r1
 4019 000a FB70     		strb	r3, [r7, #3]
1957:App/STM32F4-Discovery/Libraries/STM32F4xx_StdPeriph_Driver/src/stm32f4xx_rtc.c ****   uint32_t tmpreg = 0;
 4020              		.loc 1 1957 0
 4021 000c 0023     		movs	r3, #0
 4022 000e FB60     		str	r3, [r7, #12]
1958:App/STM32F4-Discovery/Libraries/STM32F4xx_StdPeriph_Driver/src/stm32f4xx_rtc.c **** 
1959:App/STM32F4-Discovery/Libraries/STM32F4xx_StdPeriph_Driver/src/stm32f4xx_rtc.c ****   /* Check the parameters */
1960:App/STM32F4-Discovery/Libraries/STM32F4xx_StdPeriph_Driver/src/stm32f4xx_rtc.c ****   assert_param(IS_RTC_TIMESTAMP_EDGE(RTC_TimeStampEdge));
 4023              		.loc 1 1960 0
 4024 0010 7B68     		ldr	r3, [r7, #4]
 4025 0012 002B     		cmp	r3, #0
 4026 0014 07D0     		beq	.L267
 4027              		.loc 1 1960 0 is_stmt 0 discriminator 1
 4028 0016 7B68     		ldr	r3, [r7, #4]
 4029 0018 082B     		cmp	r3, #8
 4030 001a 04D0     		beq	.L267
 4031 001c 1948     		ldr	r0, .L271
 4032 001e 4FF4F561 		mov	r1, #1960
 4033 0022 FFF7FEFF 		bl	assert_failed
 4034              	.L267:
1961:App/STM32F4-Discovery/Libraries/STM32F4xx_StdPeriph_Driver/src/stm32f4xx_rtc.c ****   assert_param(IS_FUNCTIONAL_STATE(NewState));
 4035              		.loc 1 1961 0 is_stmt 1
 4036 0026 FB78     		ldrb	r3, [r7, #3]	@ zero_extendqisi2
 4037 0028 002B     		cmp	r3, #0
 4038 002a 07D0     		beq	.L268
 4039              		.loc 1 1961 0 is_stmt 0 discriminator 1
 4040 002c FB78     		ldrb	r3, [r7, #3]	@ zero_extendqisi2
 4041 002e 012B     		cmp	r3, #1
 4042 0030 04D0     		beq	.L268
 4043 0032 1448     		ldr	r0, .L271
 4044 0034 40F2A971 		movw	r1, #1961
 4045 0038 FFF7FEFF 		bl	assert_failed
 4046              	.L268:
1962:App/STM32F4-Discovery/Libraries/STM32F4xx_StdPeriph_Driver/src/stm32f4xx_rtc.c **** 
1963:App/STM32F4-Discovery/Libraries/STM32F4xx_StdPeriph_Driver/src/stm32f4xx_rtc.c ****   /* Get the RTC_CR register and clear the bits to be configured */
1964:App/STM32F4-Discovery/Libraries/STM32F4xx_StdPeriph_Driver/src/stm32f4xx_rtc.c ****   tmpreg = (uint32_t)(RTC->CR & (uint32_t)~(RTC_CR_TSEDGE | RTC_CR_TSE));
 4047              		.loc 1 1964 0 is_stmt 1
 4048 003c 124B     		ldr	r3, .L271+4
 4049 003e 9B68     		ldr	r3, [r3, #8]
 4050 0040 23F40063 		bic	r3, r3, #2048
 4051 0044 23F00803 		bic	r3, r3, #8
 4052 0048 FB60     		str	r3, [r7, #12]
1965:App/STM32F4-Discovery/Libraries/STM32F4xx_StdPeriph_Driver/src/stm32f4xx_rtc.c **** 
1966:App/STM32F4-Discovery/Libraries/STM32F4xx_StdPeriph_Driver/src/stm32f4xx_rtc.c ****   /* Get the new configuration */
1967:App/STM32F4-Discovery/Libraries/STM32F4xx_StdPeriph_Driver/src/stm32f4xx_rtc.c ****   if (NewState != DISABLE)
 4053              		.loc 1 1967 0
 4054 004a FB78     		ldrb	r3, [r7, #3]	@ zero_extendqisi2
 4055 004c 002B     		cmp	r3, #0
 4056 004e 06D0     		beq	.L269
1968:App/STM32F4-Discovery/Libraries/STM32F4xx_StdPeriph_Driver/src/stm32f4xx_rtc.c ****   {
1969:App/STM32F4-Discovery/Libraries/STM32F4xx_StdPeriph_Driver/src/stm32f4xx_rtc.c ****     tmpreg |= (uint32_t)(RTC_TimeStampEdge | RTC_CR_TSE);
 4057              		.loc 1 1969 0
 4058 0050 7A68     		ldr	r2, [r7, #4]
 4059 0052 FB68     		ldr	r3, [r7, #12]
 4060 0054 1343     		orrs	r3, r3, r2
 4061 0056 43F40063 		orr	r3, r3, #2048
 4062 005a FB60     		str	r3, [r7, #12]
 4063 005c 03E0     		b	.L270
 4064              	.L269:
1970:App/STM32F4-Discovery/Libraries/STM32F4xx_StdPeriph_Driver/src/stm32f4xx_rtc.c ****   }
1971:App/STM32F4-Discovery/Libraries/STM32F4xx_StdPeriph_Driver/src/stm32f4xx_rtc.c ****   else
1972:App/STM32F4-Discovery/Libraries/STM32F4xx_StdPeriph_Driver/src/stm32f4xx_rtc.c ****   {
1973:App/STM32F4-Discovery/Libraries/STM32F4xx_StdPeriph_Driver/src/stm32f4xx_rtc.c ****     tmpreg |= (uint32_t)(RTC_TimeStampEdge);
 4065              		.loc 1 1973 0
 4066 005e FA68     		ldr	r2, [r7, #12]
 4067 0060 7B68     		ldr	r3, [r7, #4]
 4068 0062 1343     		orrs	r3, r3, r2
 4069 0064 FB60     		str	r3, [r7, #12]
 4070              	.L270:
1974:App/STM32F4-Discovery/Libraries/STM32F4xx_StdPeriph_Driver/src/stm32f4xx_rtc.c ****   }
1975:App/STM32F4-Discovery/Libraries/STM32F4xx_StdPeriph_Driver/src/stm32f4xx_rtc.c **** 
1976:App/STM32F4-Discovery/Libraries/STM32F4xx_StdPeriph_Driver/src/stm32f4xx_rtc.c ****   /* Disable the write protection for RTC registers */
1977:App/STM32F4-Discovery/Libraries/STM32F4xx_StdPeriph_Driver/src/stm32f4xx_rtc.c ****   RTC->WPR = 0xCA;
 4071              		.loc 1 1977 0
 4072 0066 084B     		ldr	r3, .L271+4
 4073 0068 CA22     		movs	r2, #202
 4074 006a 5A62     		str	r2, [r3, #36]
1978:App/STM32F4-Discovery/Libraries/STM32F4xx_StdPeriph_Driver/src/stm32f4xx_rtc.c ****   RTC->WPR = 0x53;
 4075              		.loc 1 1978 0
 4076 006c 064B     		ldr	r3, .L271+4
 4077 006e 5322     		movs	r2, #83
 4078 0070 5A62     		str	r2, [r3, #36]
1979:App/STM32F4-Discovery/Libraries/STM32F4xx_StdPeriph_Driver/src/stm32f4xx_rtc.c **** 
1980:App/STM32F4-Discovery/Libraries/STM32F4xx_StdPeriph_Driver/src/stm32f4xx_rtc.c ****   /* Configure the Time Stamp TSEDGE and Enable bits */
1981:App/STM32F4-Discovery/Libraries/STM32F4xx_StdPeriph_Driver/src/stm32f4xx_rtc.c ****   RTC->CR = (uint32_t)tmpreg;
 4079              		.loc 1 1981 0
 4080 0072 054B     		ldr	r3, .L271+4
 4081 0074 FA68     		ldr	r2, [r7, #12]
 4082 0076 9A60     		str	r2, [r3, #8]
1982:App/STM32F4-Discovery/Libraries/STM32F4xx_StdPeriph_Driver/src/stm32f4xx_rtc.c **** 
1983:App/STM32F4-Discovery/Libraries/STM32F4xx_StdPeriph_Driver/src/stm32f4xx_rtc.c ****   /* Enable the write protection for RTC registers */
1984:App/STM32F4-Discovery/Libraries/STM32F4xx_StdPeriph_Driver/src/stm32f4xx_rtc.c ****   RTC->WPR = 0xFF; 
 4083              		.loc 1 1984 0
 4084 0078 034B     		ldr	r3, .L271+4
 4085 007a FF22     		movs	r2, #255
 4086 007c 5A62     		str	r2, [r3, #36]
1985:App/STM32F4-Discovery/Libraries/STM32F4xx_StdPeriph_Driver/src/stm32f4xx_rtc.c **** }
 4087              		.loc 1 1985 0
 4088 007e 1037     		adds	r7, r7, #16
 4089 0080 BD46     		mov	sp, r7
 4090              		@ sp needed
 4091 0082 80BD     		pop	{r7, pc}
 4092              	.L272:
 4093              		.align	2
 4094              	.L271:
 4095 0084 00000000 		.word	.LC0
 4096 0088 00280040 		.word	1073752064
 4097              		.cfi_endproc
 4098              	.LFE144:
 4100              		.section	.text.RTC_GetTimeStamp,"ax",%progbits
 4101              		.align	2
 4102              		.global	RTC_GetTimeStamp
 4103              		.thumb
 4104              		.thumb_func
 4106              	RTC_GetTimeStamp:
 4107              	.LFB145:
1986:App/STM32F4-Discovery/Libraries/STM32F4xx_StdPeriph_Driver/src/stm32f4xx_rtc.c **** 
1987:App/STM32F4-Discovery/Libraries/STM32F4xx_StdPeriph_Driver/src/stm32f4xx_rtc.c **** /**
1988:App/STM32F4-Discovery/Libraries/STM32F4xx_StdPeriph_Driver/src/stm32f4xx_rtc.c ****   * @brief  Get the RTC TimeStamp value and masks.
1989:App/STM32F4-Discovery/Libraries/STM32F4xx_StdPeriph_Driver/src/stm32f4xx_rtc.c ****   * @param  RTC_Format: specifies the format of the output parameters.
1990:App/STM32F4-Discovery/Libraries/STM32F4xx_StdPeriph_Driver/src/stm32f4xx_rtc.c ****   *          This parameter can be one of the following values:
1991:App/STM32F4-Discovery/Libraries/STM32F4xx_StdPeriph_Driver/src/stm32f4xx_rtc.c ****   *            @arg RTC_Format_BIN: Binary data format 
1992:App/STM32F4-Discovery/Libraries/STM32F4xx_StdPeriph_Driver/src/stm32f4xx_rtc.c ****   *            @arg RTC_Format_BCD: BCD data format
1993:App/STM32F4-Discovery/Libraries/STM32F4xx_StdPeriph_Driver/src/stm32f4xx_rtc.c ****   * @param RTC_StampTimeStruct: pointer to a RTC_TimeTypeDef structure that will 
1994:App/STM32F4-Discovery/Libraries/STM32F4xx_StdPeriph_Driver/src/stm32f4xx_rtc.c ****   *                             contains the TimeStamp time values. 
1995:App/STM32F4-Discovery/Libraries/STM32F4xx_StdPeriph_Driver/src/stm32f4xx_rtc.c ****   * @param RTC_StampDateStruct: pointer to a RTC_DateTypeDef structure that will 
1996:App/STM32F4-Discovery/Libraries/STM32F4xx_StdPeriph_Driver/src/stm32f4xx_rtc.c ****   *                             contains the TimeStamp date values.     
1997:App/STM32F4-Discovery/Libraries/STM32F4xx_StdPeriph_Driver/src/stm32f4xx_rtc.c ****   * @retval None
1998:App/STM32F4-Discovery/Libraries/STM32F4xx_StdPeriph_Driver/src/stm32f4xx_rtc.c ****   */
1999:App/STM32F4-Discovery/Libraries/STM32F4xx_StdPeriph_Driver/src/stm32f4xx_rtc.c **** void RTC_GetTimeStamp(uint32_t RTC_Format, RTC_TimeTypeDef* RTC_StampTimeStruct, 
2000:App/STM32F4-Discovery/Libraries/STM32F4xx_StdPeriph_Driver/src/stm32f4xx_rtc.c ****                                       RTC_DateTypeDef* RTC_StampDateStruct)
2001:App/STM32F4-Discovery/Libraries/STM32F4xx_StdPeriph_Driver/src/stm32f4xx_rtc.c **** {
 4108              		.loc 1 2001 0
 4109              		.cfi_startproc
 4110              		@ args = 0, pretend = 0, frame = 24
 4111              		@ frame_needed = 1, uses_anonymous_args = 0
 4112 0000 80B5     		push	{r7, lr}
 4113              	.LCFI102:
 4114              		.cfi_def_cfa_offset 8
 4115              		.cfi_offset 7, -8
 4116              		.cfi_offset 14, -4
 4117 0002 86B0     		sub	sp, sp, #24
 4118              	.LCFI103:
 4119              		.cfi_def_cfa_offset 32
 4120 0004 00AF     		add	r7, sp, #0
 4121              	.LCFI104:
 4122              		.cfi_def_cfa_register 7
 4123 0006 F860     		str	r0, [r7, #12]
 4124 0008 B960     		str	r1, [r7, #8]
 4125 000a 7A60     		str	r2, [r7, #4]
2002:App/STM32F4-Discovery/Libraries/STM32F4xx_StdPeriph_Driver/src/stm32f4xx_rtc.c ****   uint32_t tmptime = 0, tmpdate = 0;
 4126              		.loc 1 2002 0
 4127 000c 0023     		movs	r3, #0
 4128 000e 7B61     		str	r3, [r7, #20]
 4129 0010 0023     		movs	r3, #0
 4130 0012 3B61     		str	r3, [r7, #16]
2003:App/STM32F4-Discovery/Libraries/STM32F4xx_StdPeriph_Driver/src/stm32f4xx_rtc.c **** 
2004:App/STM32F4-Discovery/Libraries/STM32F4xx_StdPeriph_Driver/src/stm32f4xx_rtc.c ****   /* Check the parameters */
2005:App/STM32F4-Discovery/Libraries/STM32F4xx_StdPeriph_Driver/src/stm32f4xx_rtc.c ****   assert_param(IS_RTC_FORMAT(RTC_Format));
 4131              		.loc 1 2005 0
 4132 0014 FB68     		ldr	r3, [r7, #12]
 4133 0016 002B     		cmp	r3, #0
 4134 0018 07D0     		beq	.L274
 4135              		.loc 1 2005 0 is_stmt 0 discriminator 1
 4136 001a FB68     		ldr	r3, [r7, #12]
 4137 001c 012B     		cmp	r3, #1
 4138 001e 04D0     		beq	.L274
 4139 0020 4148     		ldr	r0, .L276
 4140 0022 40F2D571 		movw	r1, #2005
 4141 0026 FFF7FEFF 		bl	assert_failed
 4142              	.L274:
2006:App/STM32F4-Discovery/Libraries/STM32F4xx_StdPeriph_Driver/src/stm32f4xx_rtc.c **** 
2007:App/STM32F4-Discovery/Libraries/STM32F4xx_StdPeriph_Driver/src/stm32f4xx_rtc.c ****   /* Get the TimeStamp time and date registers values */
2008:App/STM32F4-Discovery/Libraries/STM32F4xx_StdPeriph_Driver/src/stm32f4xx_rtc.c ****   tmptime = (uint32_t)(RTC->TSTR & RTC_TR_RESERVED_MASK);
 4143              		.loc 1 2008 0 is_stmt 1
 4144 002a 404B     		ldr	r3, .L276+4
 4145 002c 1B6B     		ldr	r3, [r3, #48]
 4146 002e 03F07F33 		and	r3, r3, #2139062143
 4147 0032 23F0FE43 		bic	r3, r3, #2130706432
 4148 0036 7B61     		str	r3, [r7, #20]
2009:App/STM32F4-Discovery/Libraries/STM32F4xx_StdPeriph_Driver/src/stm32f4xx_rtc.c ****   tmpdate = (uint32_t)(RTC->TSDR & RTC_DR_RESERVED_MASK);
 4149              		.loc 1 2009 0
 4150 0038 3C4B     		ldr	r3, .L276+4
 4151 003a 5B6B     		ldr	r3, [r3, #52]
 4152 003c 23F07F43 		bic	r3, r3, #-16777216
 4153 0040 23F0C003 		bic	r3, r3, #192
 4154 0044 3B61     		str	r3, [r7, #16]
2010:App/STM32F4-Discovery/Libraries/STM32F4xx_StdPeriph_Driver/src/stm32f4xx_rtc.c **** 
2011:App/STM32F4-Discovery/Libraries/STM32F4xx_StdPeriph_Driver/src/stm32f4xx_rtc.c ****   /* Fill the Time structure fields with the read parameters */
2012:App/STM32F4-Discovery/Libraries/STM32F4xx_StdPeriph_Driver/src/stm32f4xx_rtc.c ****   RTC_StampTimeStruct->RTC_Hours = (uint8_t)((tmptime & (RTC_TR_HT | RTC_TR_HU)) >> 16);
 4155              		.loc 1 2012 0
 4156 0046 7B69     		ldr	r3, [r7, #20]
 4157 0048 03F47C13 		and	r3, r3, #4128768
 4158 004c 1B0C     		lsrs	r3, r3, #16
 4159 004e DAB2     		uxtb	r2, r3
 4160 0050 BB68     		ldr	r3, [r7, #8]
 4161 0052 1A70     		strb	r2, [r3]
2013:App/STM32F4-Discovery/Libraries/STM32F4xx_StdPeriph_Driver/src/stm32f4xx_rtc.c ****   RTC_StampTimeStruct->RTC_Minutes = (uint8_t)((tmptime & (RTC_TR_MNT | RTC_TR_MNU)) >> 8);
 4162              		.loc 1 2013 0
 4163 0054 7B69     		ldr	r3, [r7, #20]
 4164 0056 03F4FE43 		and	r3, r3, #32512
 4165 005a 1B0A     		lsrs	r3, r3, #8
 4166 005c DAB2     		uxtb	r2, r3
 4167 005e BB68     		ldr	r3, [r7, #8]
 4168 0060 5A70     		strb	r2, [r3, #1]
2014:App/STM32F4-Discovery/Libraries/STM32F4xx_StdPeriph_Driver/src/stm32f4xx_rtc.c ****   RTC_StampTimeStruct->RTC_Seconds = (uint8_t)(tmptime & (RTC_TR_ST | RTC_TR_SU));
 4169              		.loc 1 2014 0
 4170 0062 7B69     		ldr	r3, [r7, #20]
 4171 0064 DBB2     		uxtb	r3, r3
 4172 0066 03F07F03 		and	r3, r3, #127
 4173 006a DAB2     		uxtb	r2, r3
 4174 006c BB68     		ldr	r3, [r7, #8]
 4175 006e 9A70     		strb	r2, [r3, #2]
2015:App/STM32F4-Discovery/Libraries/STM32F4xx_StdPeriph_Driver/src/stm32f4xx_rtc.c ****   RTC_StampTimeStruct->RTC_H12 = (uint8_t)((tmptime & (RTC_TR_PM)) >> 16);  
 4176              		.loc 1 2015 0
 4177 0070 7B69     		ldr	r3, [r7, #20]
 4178 0072 03F48003 		and	r3, r3, #4194304
 4179 0076 1B0C     		lsrs	r3, r3, #16
 4180 0078 DAB2     		uxtb	r2, r3
 4181 007a BB68     		ldr	r3, [r7, #8]
 4182 007c DA70     		strb	r2, [r3, #3]
2016:App/STM32F4-Discovery/Libraries/STM32F4xx_StdPeriph_Driver/src/stm32f4xx_rtc.c **** 
2017:App/STM32F4-Discovery/Libraries/STM32F4xx_StdPeriph_Driver/src/stm32f4xx_rtc.c ****   /* Fill the Date structure fields with the read parameters */
2018:App/STM32F4-Discovery/Libraries/STM32F4xx_StdPeriph_Driver/src/stm32f4xx_rtc.c ****   RTC_StampDateStruct->RTC_Year = 0;
 4183              		.loc 1 2018 0
 4184 007e 7B68     		ldr	r3, [r7, #4]
 4185 0080 0022     		movs	r2, #0
 4186 0082 DA70     		strb	r2, [r3, #3]
2019:App/STM32F4-Discovery/Libraries/STM32F4xx_StdPeriph_Driver/src/stm32f4xx_rtc.c ****   RTC_StampDateStruct->RTC_Month = (uint8_t)((tmpdate & (RTC_DR_MT | RTC_DR_MU)) >> 8);
 4187              		.loc 1 2019 0
 4188 0084 3B69     		ldr	r3, [r7, #16]
 4189 0086 03F4F853 		and	r3, r3, #7936
 4190 008a 1B0A     		lsrs	r3, r3, #8
 4191 008c DAB2     		uxtb	r2, r3
 4192 008e 7B68     		ldr	r3, [r7, #4]
 4193 0090 5A70     		strb	r2, [r3, #1]
2020:App/STM32F4-Discovery/Libraries/STM32F4xx_StdPeriph_Driver/src/stm32f4xx_rtc.c ****   RTC_StampDateStruct->RTC_Date = (uint8_t)(tmpdate & (RTC_DR_DT | RTC_DR_DU));
 4194              		.loc 1 2020 0
 4195 0092 3B69     		ldr	r3, [r7, #16]
 4196 0094 DBB2     		uxtb	r3, r3
 4197 0096 03F03F03 		and	r3, r3, #63
 4198 009a DAB2     		uxtb	r2, r3
 4199 009c 7B68     		ldr	r3, [r7, #4]
 4200 009e 9A70     		strb	r2, [r3, #2]
2021:App/STM32F4-Discovery/Libraries/STM32F4xx_StdPeriph_Driver/src/stm32f4xx_rtc.c ****   RTC_StampDateStruct->RTC_WeekDay = (uint8_t)((tmpdate & (RTC_DR_WDU)) >> 13);
 4201              		.loc 1 2021 0
 4202 00a0 3B69     		ldr	r3, [r7, #16]
 4203 00a2 03F46043 		and	r3, r3, #57344
 4204 00a6 5B0B     		lsrs	r3, r3, #13
 4205 00a8 DAB2     		uxtb	r2, r3
 4206 00aa 7B68     		ldr	r3, [r7, #4]
 4207 00ac 1A70     		strb	r2, [r3]
2022:App/STM32F4-Discovery/Libraries/STM32F4xx_StdPeriph_Driver/src/stm32f4xx_rtc.c **** 
2023:App/STM32F4-Discovery/Libraries/STM32F4xx_StdPeriph_Driver/src/stm32f4xx_rtc.c ****   /* Check the input parameters format */
2024:App/STM32F4-Discovery/Libraries/STM32F4xx_StdPeriph_Driver/src/stm32f4xx_rtc.c ****   if (RTC_Format == RTC_Format_BIN)
 4208              		.loc 1 2024 0
 4209 00ae FB68     		ldr	r3, [r7, #12]
 4210 00b0 002B     		cmp	r3, #0
 4211 00b2 35D1     		bne	.L273
2025:App/STM32F4-Discovery/Libraries/STM32F4xx_StdPeriph_Driver/src/stm32f4xx_rtc.c ****   {
2026:App/STM32F4-Discovery/Libraries/STM32F4xx_StdPeriph_Driver/src/stm32f4xx_rtc.c ****     /* Convert the Time structure parameters to Binary format */
2027:App/STM32F4-Discovery/Libraries/STM32F4xx_StdPeriph_Driver/src/stm32f4xx_rtc.c ****     RTC_StampTimeStruct->RTC_Hours = (uint8_t)RTC_Bcd2ToByte(RTC_StampTimeStruct->RTC_Hours);
 4212              		.loc 1 2027 0
 4213 00b4 BB68     		ldr	r3, [r7, #8]
 4214 00b6 1B78     		ldrb	r3, [r3]	@ zero_extendqisi2
 4215 00b8 1846     		mov	r0, r3
 4216 00ba FFF7FEFF 		bl	RTC_Bcd2ToByte
 4217 00be 0346     		mov	r3, r0
 4218 00c0 1A46     		mov	r2, r3
 4219 00c2 BB68     		ldr	r3, [r7, #8]
 4220 00c4 1A70     		strb	r2, [r3]
2028:App/STM32F4-Discovery/Libraries/STM32F4xx_StdPeriph_Driver/src/stm32f4xx_rtc.c ****     RTC_StampTimeStruct->RTC_Minutes = (uint8_t)RTC_Bcd2ToByte(RTC_StampTimeStruct->RTC_Minutes);
 4221              		.loc 1 2028 0
 4222 00c6 BB68     		ldr	r3, [r7, #8]
 4223 00c8 5B78     		ldrb	r3, [r3, #1]	@ zero_extendqisi2
 4224 00ca 1846     		mov	r0, r3
 4225 00cc FFF7FEFF 		bl	RTC_Bcd2ToByte
 4226 00d0 0346     		mov	r3, r0
 4227 00d2 1A46     		mov	r2, r3
 4228 00d4 BB68     		ldr	r3, [r7, #8]
 4229 00d6 5A70     		strb	r2, [r3, #1]
2029:App/STM32F4-Discovery/Libraries/STM32F4xx_StdPeriph_Driver/src/stm32f4xx_rtc.c ****     RTC_StampTimeStruct->RTC_Seconds = (uint8_t)RTC_Bcd2ToByte(RTC_StampTimeStruct->RTC_Seconds);
 4230              		.loc 1 2029 0
 4231 00d8 BB68     		ldr	r3, [r7, #8]
 4232 00da 9B78     		ldrb	r3, [r3, #2]	@ zero_extendqisi2
 4233 00dc 1846     		mov	r0, r3
 4234 00de FFF7FEFF 		bl	RTC_Bcd2ToByte
 4235 00e2 0346     		mov	r3, r0
 4236 00e4 1A46     		mov	r2, r3
 4237 00e6 BB68     		ldr	r3, [r7, #8]
 4238 00e8 9A70     		strb	r2, [r3, #2]
2030:App/STM32F4-Discovery/Libraries/STM32F4xx_StdPeriph_Driver/src/stm32f4xx_rtc.c **** 
2031:App/STM32F4-Discovery/Libraries/STM32F4xx_StdPeriph_Driver/src/stm32f4xx_rtc.c ****     /* Convert the Date structure parameters to Binary format */
2032:App/STM32F4-Discovery/Libraries/STM32F4xx_StdPeriph_Driver/src/stm32f4xx_rtc.c ****     RTC_StampDateStruct->RTC_Month = (uint8_t)RTC_Bcd2ToByte(RTC_StampDateStruct->RTC_Month);
 4239              		.loc 1 2032 0
 4240 00ea 7B68     		ldr	r3, [r7, #4]
 4241 00ec 5B78     		ldrb	r3, [r3, #1]	@ zero_extendqisi2
 4242 00ee 1846     		mov	r0, r3
 4243 00f0 FFF7FEFF 		bl	RTC_Bcd2ToByte
 4244 00f4 0346     		mov	r3, r0
 4245 00f6 1A46     		mov	r2, r3
 4246 00f8 7B68     		ldr	r3, [r7, #4]
 4247 00fa 5A70     		strb	r2, [r3, #1]
2033:App/STM32F4-Discovery/Libraries/STM32F4xx_StdPeriph_Driver/src/stm32f4xx_rtc.c ****     RTC_StampDateStruct->RTC_Date = (uint8_t)RTC_Bcd2ToByte(RTC_StampDateStruct->RTC_Date);
 4248              		.loc 1 2033 0
 4249 00fc 7B68     		ldr	r3, [r7, #4]
 4250 00fe 9B78     		ldrb	r3, [r3, #2]	@ zero_extendqisi2
 4251 0100 1846     		mov	r0, r3
 4252 0102 FFF7FEFF 		bl	RTC_Bcd2ToByte
 4253 0106 0346     		mov	r3, r0
 4254 0108 1A46     		mov	r2, r3
 4255 010a 7B68     		ldr	r3, [r7, #4]
 4256 010c 9A70     		strb	r2, [r3, #2]
2034:App/STM32F4-Discovery/Libraries/STM32F4xx_StdPeriph_Driver/src/stm32f4xx_rtc.c ****     RTC_StampDateStruct->RTC_WeekDay = (uint8_t)RTC_Bcd2ToByte(RTC_StampDateStruct->RTC_WeekDay);
 4257              		.loc 1 2034 0
 4258 010e 7B68     		ldr	r3, [r7, #4]
 4259 0110 1B78     		ldrb	r3, [r3]	@ zero_extendqisi2
 4260 0112 1846     		mov	r0, r3
 4261 0114 FFF7FEFF 		bl	RTC_Bcd2ToByte
 4262 0118 0346     		mov	r3, r0
 4263 011a 1A46     		mov	r2, r3
 4264 011c 7B68     		ldr	r3, [r7, #4]
 4265 011e 1A70     		strb	r2, [r3]
 4266              	.L273:
2035:App/STM32F4-Discovery/Libraries/STM32F4xx_StdPeriph_Driver/src/stm32f4xx_rtc.c ****   }
2036:App/STM32F4-Discovery/Libraries/STM32F4xx_StdPeriph_Driver/src/stm32f4xx_rtc.c **** }
 4267              		.loc 1 2036 0
 4268 0120 1837     		adds	r7, r7, #24
 4269 0122 BD46     		mov	sp, r7
 4270              		@ sp needed
 4271 0124 80BD     		pop	{r7, pc}
 4272              	.L277:
 4273 0126 00BF     		.align	2
 4274              	.L276:
 4275 0128 00000000 		.word	.LC0
 4276 012c 00280040 		.word	1073752064
 4277              		.cfi_endproc
 4278              	.LFE145:
 4280              		.section	.text.RTC_GetTimeStampSubSecond,"ax",%progbits
 4281              		.align	2
 4282              		.global	RTC_GetTimeStampSubSecond
 4283              		.thumb
 4284              		.thumb_func
 4286              	RTC_GetTimeStampSubSecond:
 4287              	.LFB146:
2037:App/STM32F4-Discovery/Libraries/STM32F4xx_StdPeriph_Driver/src/stm32f4xx_rtc.c **** 
2038:App/STM32F4-Discovery/Libraries/STM32F4xx_StdPeriph_Driver/src/stm32f4xx_rtc.c **** /**
2039:App/STM32F4-Discovery/Libraries/STM32F4xx_StdPeriph_Driver/src/stm32f4xx_rtc.c ****   * @brief  Get the RTC timestamp Subseconds value.
2040:App/STM32F4-Discovery/Libraries/STM32F4xx_StdPeriph_Driver/src/stm32f4xx_rtc.c ****   * @param  None
2041:App/STM32F4-Discovery/Libraries/STM32F4xx_StdPeriph_Driver/src/stm32f4xx_rtc.c ****   * @retval RTC current timestamp Subseconds value.
2042:App/STM32F4-Discovery/Libraries/STM32F4xx_StdPeriph_Driver/src/stm32f4xx_rtc.c ****   */
2043:App/STM32F4-Discovery/Libraries/STM32F4xx_StdPeriph_Driver/src/stm32f4xx_rtc.c **** uint32_t RTC_GetTimeStampSubSecond(void)
2044:App/STM32F4-Discovery/Libraries/STM32F4xx_StdPeriph_Driver/src/stm32f4xx_rtc.c **** {
 4288              		.loc 1 2044 0
 4289              		.cfi_startproc
 4290              		@ args = 0, pretend = 0, frame = 0
 4291              		@ frame_needed = 1, uses_anonymous_args = 0
 4292              		@ link register save eliminated.
 4293 0000 80B4     		push	{r7}
 4294              	.LCFI105:
 4295              		.cfi_def_cfa_offset 4
 4296              		.cfi_offset 7, -4
 4297 0002 00AF     		add	r7, sp, #0
 4298              	.LCFI106:
 4299              		.cfi_def_cfa_register 7
2045:App/STM32F4-Discovery/Libraries/STM32F4xx_StdPeriph_Driver/src/stm32f4xx_rtc.c ****   /* Get timestamp subseconds values from the correspondent registers */
2046:App/STM32F4-Discovery/Libraries/STM32F4xx_StdPeriph_Driver/src/stm32f4xx_rtc.c ****   return (uint32_t)(RTC->TSSSR);
 4300              		.loc 1 2046 0
 4301 0004 034B     		ldr	r3, .L280
 4302 0006 9B6B     		ldr	r3, [r3, #56]
2047:App/STM32F4-Discovery/Libraries/STM32F4xx_StdPeriph_Driver/src/stm32f4xx_rtc.c **** }
 4303              		.loc 1 2047 0
 4304 0008 1846     		mov	r0, r3
 4305 000a BD46     		mov	sp, r7
 4306              		@ sp needed
 4307 000c 5DF8047B 		ldr	r7, [sp], #4
 4308 0010 7047     		bx	lr
 4309              	.L281:
 4310 0012 00BF     		.align	2
 4311              	.L280:
 4312 0014 00280040 		.word	1073752064
 4313              		.cfi_endproc
 4314              	.LFE146:
 4316              		.section	.text.RTC_TamperTriggerConfig,"ax",%progbits
 4317              		.align	2
 4318              		.global	RTC_TamperTriggerConfig
 4319              		.thumb
 4320              		.thumb_func
 4322              	RTC_TamperTriggerConfig:
 4323              	.LFB147:
2048:App/STM32F4-Discovery/Libraries/STM32F4xx_StdPeriph_Driver/src/stm32f4xx_rtc.c **** 
2049:App/STM32F4-Discovery/Libraries/STM32F4xx_StdPeriph_Driver/src/stm32f4xx_rtc.c **** /**
2050:App/STM32F4-Discovery/Libraries/STM32F4xx_StdPeriph_Driver/src/stm32f4xx_rtc.c ****   * @}
2051:App/STM32F4-Discovery/Libraries/STM32F4xx_StdPeriph_Driver/src/stm32f4xx_rtc.c ****   */
2052:App/STM32F4-Discovery/Libraries/STM32F4xx_StdPeriph_Driver/src/stm32f4xx_rtc.c **** 
2053:App/STM32F4-Discovery/Libraries/STM32F4xx_StdPeriph_Driver/src/stm32f4xx_rtc.c **** /** @defgroup RTC_Group9 Tampers configuration functions
2054:App/STM32F4-Discovery/Libraries/STM32F4xx_StdPeriph_Driver/src/stm32f4xx_rtc.c ****  *  @brief   Tampers configuration functions 
2055:App/STM32F4-Discovery/Libraries/STM32F4xx_StdPeriph_Driver/src/stm32f4xx_rtc.c ****  *
2056:App/STM32F4-Discovery/Libraries/STM32F4xx_StdPeriph_Driver/src/stm32f4xx_rtc.c **** @verbatim   
2057:App/STM32F4-Discovery/Libraries/STM32F4xx_StdPeriph_Driver/src/stm32f4xx_rtc.c ****  ===============================================================================
2058:App/STM32F4-Discovery/Libraries/STM32F4xx_StdPeriph_Driver/src/stm32f4xx_rtc.c ****                        Tampers configuration functions
2059:App/STM32F4-Discovery/Libraries/STM32F4xx_StdPeriph_Driver/src/stm32f4xx_rtc.c ****  ===============================================================================  
2060:App/STM32F4-Discovery/Libraries/STM32F4xx_StdPeriph_Driver/src/stm32f4xx_rtc.c **** 
2061:App/STM32F4-Discovery/Libraries/STM32F4xx_StdPeriph_Driver/src/stm32f4xx_rtc.c **** @endverbatim
2062:App/STM32F4-Discovery/Libraries/STM32F4xx_StdPeriph_Driver/src/stm32f4xx_rtc.c ****   * @{
2063:App/STM32F4-Discovery/Libraries/STM32F4xx_StdPeriph_Driver/src/stm32f4xx_rtc.c ****   */
2064:App/STM32F4-Discovery/Libraries/STM32F4xx_StdPeriph_Driver/src/stm32f4xx_rtc.c **** 
2065:App/STM32F4-Discovery/Libraries/STM32F4xx_StdPeriph_Driver/src/stm32f4xx_rtc.c **** /**
2066:App/STM32F4-Discovery/Libraries/STM32F4xx_StdPeriph_Driver/src/stm32f4xx_rtc.c ****   * @brief  Configures the select Tamper pin edge.
2067:App/STM32F4-Discovery/Libraries/STM32F4xx_StdPeriph_Driver/src/stm32f4xx_rtc.c ****   * @param  RTC_Tamper: Selected tamper pin.
2068:App/STM32F4-Discovery/Libraries/STM32F4xx_StdPeriph_Driver/src/stm32f4xx_rtc.c ****   *          This parameter can be RTC_Tamper_1.
2069:App/STM32F4-Discovery/Libraries/STM32F4xx_StdPeriph_Driver/src/stm32f4xx_rtc.c ****   * @param  RTC_TamperTrigger: Specifies the trigger on the tamper pin that 
2070:App/STM32F4-Discovery/Libraries/STM32F4xx_StdPeriph_Driver/src/stm32f4xx_rtc.c ****   *         stimulates tamper event. 
2071:App/STM32F4-Discovery/Libraries/STM32F4xx_StdPeriph_Driver/src/stm32f4xx_rtc.c ****   *   This parameter can be one of the following values:
2072:App/STM32F4-Discovery/Libraries/STM32F4xx_StdPeriph_Driver/src/stm32f4xx_rtc.c ****   *     @arg RTC_TamperTrigger_RisingEdge: Rising Edge of the tamper pin causes tamper event.
2073:App/STM32F4-Discovery/Libraries/STM32F4xx_StdPeriph_Driver/src/stm32f4xx_rtc.c ****   *     @arg RTC_TamperTrigger_FallingEdge: Falling Edge of the tamper pin causes tamper event.
2074:App/STM32F4-Discovery/Libraries/STM32F4xx_StdPeriph_Driver/src/stm32f4xx_rtc.c ****   *     @arg RTC_TamperTrigger_LowLevel: Low Level of the tamper pin causes tamper event.
2075:App/STM32F4-Discovery/Libraries/STM32F4xx_StdPeriph_Driver/src/stm32f4xx_rtc.c ****   *     @arg RTC_TamperTrigger_HighLevel: High Level of the tamper pin causes tamper event.
2076:App/STM32F4-Discovery/Libraries/STM32F4xx_StdPeriph_Driver/src/stm32f4xx_rtc.c ****   * @retval None
2077:App/STM32F4-Discovery/Libraries/STM32F4xx_StdPeriph_Driver/src/stm32f4xx_rtc.c ****   */
2078:App/STM32F4-Discovery/Libraries/STM32F4xx_StdPeriph_Driver/src/stm32f4xx_rtc.c **** void RTC_TamperTriggerConfig(uint32_t RTC_Tamper, uint32_t RTC_TamperTrigger)
2079:App/STM32F4-Discovery/Libraries/STM32F4xx_StdPeriph_Driver/src/stm32f4xx_rtc.c **** {
 4324              		.loc 1 2079 0
 4325              		.cfi_startproc
 4326              		@ args = 0, pretend = 0, frame = 8
 4327              		@ frame_needed = 1, uses_anonymous_args = 0
 4328 0000 80B5     		push	{r7, lr}
 4329              	.LCFI107:
 4330              		.cfi_def_cfa_offset 8
 4331              		.cfi_offset 7, -8
 4332              		.cfi_offset 14, -4
 4333 0002 82B0     		sub	sp, sp, #8
 4334              	.LCFI108:
 4335              		.cfi_def_cfa_offset 16
 4336 0004 00AF     		add	r7, sp, #0
 4337              	.LCFI109:
 4338              		.cfi_def_cfa_register 7
 4339 0006 7860     		str	r0, [r7, #4]
 4340 0008 3960     		str	r1, [r7]
2080:App/STM32F4-Discovery/Libraries/STM32F4xx_StdPeriph_Driver/src/stm32f4xx_rtc.c ****   /* Check the parameters */
2081:App/STM32F4-Discovery/Libraries/STM32F4xx_StdPeriph_Driver/src/stm32f4xx_rtc.c ****   assert_param(IS_RTC_TAMPER(RTC_Tamper)); 
 4341              		.loc 1 2081 0
 4342 000a 7B68     		ldr	r3, [r7, #4]
 4343 000c 012B     		cmp	r3, #1
 4344 000e 04D0     		beq	.L283
 4345              		.loc 1 2081 0 is_stmt 0 discriminator 1
 4346 0010 1548     		ldr	r0, .L287
 4347 0012 40F62101 		movw	r1, #2081
 4348 0016 FFF7FEFF 		bl	assert_failed
 4349              	.L283:
2082:App/STM32F4-Discovery/Libraries/STM32F4xx_StdPeriph_Driver/src/stm32f4xx_rtc.c ****   assert_param(IS_RTC_TAMPER_TRIGGER(RTC_TamperTrigger));
 4350              		.loc 1 2082 0 is_stmt 1
 4351 001a 3B68     		ldr	r3, [r7]
 4352 001c 002B     		cmp	r3, #0
 4353 001e 0DD0     		beq	.L284
 4354              		.loc 1 2082 0 is_stmt 0 discriminator 1
 4355 0020 3B68     		ldr	r3, [r7]
 4356 0022 012B     		cmp	r3, #1
 4357 0024 0AD0     		beq	.L284
 4358 0026 3B68     		ldr	r3, [r7]
 4359 0028 002B     		cmp	r3, #0
 4360 002a 07D0     		beq	.L284
 4361 002c 3B68     		ldr	r3, [r7]
 4362 002e 012B     		cmp	r3, #1
 4363 0030 04D0     		beq	.L284
 4364 0032 0D48     		ldr	r0, .L287
 4365 0034 40F62201 		movw	r1, #2082
 4366 0038 FFF7FEFF 		bl	assert_failed
 4367              	.L284:
2083:App/STM32F4-Discovery/Libraries/STM32F4xx_StdPeriph_Driver/src/stm32f4xx_rtc.c ****  
2084:App/STM32F4-Discovery/Libraries/STM32F4xx_StdPeriph_Driver/src/stm32f4xx_rtc.c ****   if (RTC_TamperTrigger == RTC_TamperTrigger_RisingEdge)
 4368              		.loc 1 2084 0 is_stmt 1
 4369 003c 3B68     		ldr	r3, [r7]
 4370 003e 002B     		cmp	r3, #0
 4371 0040 08D1     		bne	.L285
2085:App/STM32F4-Discovery/Libraries/STM32F4xx_StdPeriph_Driver/src/stm32f4xx_rtc.c ****   {  
2086:App/STM32F4-Discovery/Libraries/STM32F4xx_StdPeriph_Driver/src/stm32f4xx_rtc.c ****     /* Configure the RTC_TAFCR register */
2087:App/STM32F4-Discovery/Libraries/STM32F4xx_StdPeriph_Driver/src/stm32f4xx_rtc.c ****     RTC->TAFCR &= (uint32_t)((uint32_t)~(RTC_Tamper << 1));	
 4372              		.loc 1 2087 0
 4373 0042 0A4B     		ldr	r3, .L287+4
 4374 0044 094A     		ldr	r2, .L287+4
 4375 0046 116C     		ldr	r1, [r2, #64]
 4376 0048 7A68     		ldr	r2, [r7, #4]
 4377 004a 5200     		lsls	r2, r2, #1
 4378 004c D243     		mvns	r2, r2
 4379 004e 0A40     		ands	r2, r2, r1
 4380 0050 1A64     		str	r2, [r3, #64]
 4381 0052 06E0     		b	.L282
 4382              	.L285:
2088:App/STM32F4-Discovery/Libraries/STM32F4xx_StdPeriph_Driver/src/stm32f4xx_rtc.c ****   }
2089:App/STM32F4-Discovery/Libraries/STM32F4xx_StdPeriph_Driver/src/stm32f4xx_rtc.c ****   else
2090:App/STM32F4-Discovery/Libraries/STM32F4xx_StdPeriph_Driver/src/stm32f4xx_rtc.c ****   { 
2091:App/STM32F4-Discovery/Libraries/STM32F4xx_StdPeriph_Driver/src/stm32f4xx_rtc.c ****     /* Configure the RTC_TAFCR register */
2092:App/STM32F4-Discovery/Libraries/STM32F4xx_StdPeriph_Driver/src/stm32f4xx_rtc.c ****     RTC->TAFCR |= (uint32_t)(RTC_Tamper << 1);  
 4383              		.loc 1 2092 0
 4384 0054 054B     		ldr	r3, .L287+4
 4385 0056 054A     		ldr	r2, .L287+4
 4386 0058 116C     		ldr	r1, [r2, #64]
 4387 005a 7A68     		ldr	r2, [r7, #4]
 4388 005c 5200     		lsls	r2, r2, #1
 4389 005e 0A43     		orrs	r2, r2, r1
 4390 0060 1A64     		str	r2, [r3, #64]
 4391              	.L282:
2093:App/STM32F4-Discovery/Libraries/STM32F4xx_StdPeriph_Driver/src/stm32f4xx_rtc.c ****   }  
2094:App/STM32F4-Discovery/Libraries/STM32F4xx_StdPeriph_Driver/src/stm32f4xx_rtc.c **** }
 4392              		.loc 1 2094 0
 4393 0062 0837     		adds	r7, r7, #8
 4394 0064 BD46     		mov	sp, r7
 4395              		@ sp needed
 4396 0066 80BD     		pop	{r7, pc}
 4397              	.L288:
 4398              		.align	2
 4399              	.L287:
 4400 0068 00000000 		.word	.LC0
 4401 006c 00280040 		.word	1073752064
 4402              		.cfi_endproc
 4403              	.LFE147:
 4405              		.section	.text.RTC_TamperCmd,"ax",%progbits
 4406              		.align	2
 4407              		.global	RTC_TamperCmd
 4408              		.thumb
 4409              		.thumb_func
 4411              	RTC_TamperCmd:
 4412              	.LFB148:
2095:App/STM32F4-Discovery/Libraries/STM32F4xx_StdPeriph_Driver/src/stm32f4xx_rtc.c **** 
2096:App/STM32F4-Discovery/Libraries/STM32F4xx_StdPeriph_Driver/src/stm32f4xx_rtc.c **** /**
2097:App/STM32F4-Discovery/Libraries/STM32F4xx_StdPeriph_Driver/src/stm32f4xx_rtc.c ****   * @brief  Enables or Disables the Tamper detection.
2098:App/STM32F4-Discovery/Libraries/STM32F4xx_StdPeriph_Driver/src/stm32f4xx_rtc.c ****   * @param  RTC_Tamper: Selected tamper pin.
2099:App/STM32F4-Discovery/Libraries/STM32F4xx_StdPeriph_Driver/src/stm32f4xx_rtc.c ****   *          This parameter can be RTC_Tamper_1.
2100:App/STM32F4-Discovery/Libraries/STM32F4xx_StdPeriph_Driver/src/stm32f4xx_rtc.c ****   * @param  NewState: new state of the tamper pin.
2101:App/STM32F4-Discovery/Libraries/STM32F4xx_StdPeriph_Driver/src/stm32f4xx_rtc.c ****   *          This parameter can be: ENABLE or DISABLE.                   
2102:App/STM32F4-Discovery/Libraries/STM32F4xx_StdPeriph_Driver/src/stm32f4xx_rtc.c ****   * @retval None
2103:App/STM32F4-Discovery/Libraries/STM32F4xx_StdPeriph_Driver/src/stm32f4xx_rtc.c ****   */
2104:App/STM32F4-Discovery/Libraries/STM32F4xx_StdPeriph_Driver/src/stm32f4xx_rtc.c **** void RTC_TamperCmd(uint32_t RTC_Tamper, FunctionalState NewState)
2105:App/STM32F4-Discovery/Libraries/STM32F4xx_StdPeriph_Driver/src/stm32f4xx_rtc.c **** {
 4413              		.loc 1 2105 0
 4414              		.cfi_startproc
 4415              		@ args = 0, pretend = 0, frame = 8
 4416              		@ frame_needed = 1, uses_anonymous_args = 0
 4417 0000 80B5     		push	{r7, lr}
 4418              	.LCFI110:
 4419              		.cfi_def_cfa_offset 8
 4420              		.cfi_offset 7, -8
 4421              		.cfi_offset 14, -4
 4422 0002 82B0     		sub	sp, sp, #8
 4423              	.LCFI111:
 4424              		.cfi_def_cfa_offset 16
 4425 0004 00AF     		add	r7, sp, #0
 4426              	.LCFI112:
 4427              		.cfi_def_cfa_register 7
 4428 0006 7860     		str	r0, [r7, #4]
 4429 0008 0B46     		mov	r3, r1
 4430 000a FB70     		strb	r3, [r7, #3]
2106:App/STM32F4-Discovery/Libraries/STM32F4xx_StdPeriph_Driver/src/stm32f4xx_rtc.c ****   /* Check the parameters */
2107:App/STM32F4-Discovery/Libraries/STM32F4xx_StdPeriph_Driver/src/stm32f4xx_rtc.c ****   assert_param(IS_RTC_TAMPER(RTC_Tamper));  
 4431              		.loc 1 2107 0
 4432 000c 7B68     		ldr	r3, [r7, #4]
 4433 000e 012B     		cmp	r3, #1
 4434 0010 04D0     		beq	.L290
 4435              		.loc 1 2107 0 is_stmt 0 discriminator 1
 4436 0012 1248     		ldr	r0, .L294
 4437 0014 40F63B01 		movw	r1, #2107
 4438 0018 FFF7FEFF 		bl	assert_failed
 4439              	.L290:
2108:App/STM32F4-Discovery/Libraries/STM32F4xx_StdPeriph_Driver/src/stm32f4xx_rtc.c ****   assert_param(IS_FUNCTIONAL_STATE(NewState));
 4440              		.loc 1 2108 0 is_stmt 1
 4441 001c FB78     		ldrb	r3, [r7, #3]	@ zero_extendqisi2
 4442 001e 002B     		cmp	r3, #0
 4443 0020 07D0     		beq	.L291
 4444              		.loc 1 2108 0 is_stmt 0 discriminator 1
 4445 0022 FB78     		ldrb	r3, [r7, #3]	@ zero_extendqisi2
 4446 0024 012B     		cmp	r3, #1
 4447 0026 04D0     		beq	.L291
 4448 0028 0C48     		ldr	r0, .L294
 4449 002a 40F63C01 		movw	r1, #2108
 4450 002e FFF7FEFF 		bl	assert_failed
 4451              	.L291:
2109:App/STM32F4-Discovery/Libraries/STM32F4xx_StdPeriph_Driver/src/stm32f4xx_rtc.c ****   
2110:App/STM32F4-Discovery/Libraries/STM32F4xx_StdPeriph_Driver/src/stm32f4xx_rtc.c ****   if (NewState != DISABLE)
 4452              		.loc 1 2110 0 is_stmt 1
 4453 0032 FB78     		ldrb	r3, [r7, #3]	@ zero_extendqisi2
 4454 0034 002B     		cmp	r3, #0
 4455 0036 06D0     		beq	.L292
2111:App/STM32F4-Discovery/Libraries/STM32F4xx_StdPeriph_Driver/src/stm32f4xx_rtc.c ****   {
2112:App/STM32F4-Discovery/Libraries/STM32F4xx_StdPeriph_Driver/src/stm32f4xx_rtc.c ****     /* Enable the selected Tamper pin */
2113:App/STM32F4-Discovery/Libraries/STM32F4xx_StdPeriph_Driver/src/stm32f4xx_rtc.c ****     RTC->TAFCR |= (uint32_t)RTC_Tamper;
 4456              		.loc 1 2113 0
 4457 0038 094B     		ldr	r3, .L294+4
 4458 003a 094A     		ldr	r2, .L294+4
 4459 003c 116C     		ldr	r1, [r2, #64]
 4460 003e 7A68     		ldr	r2, [r7, #4]
 4461 0040 0A43     		orrs	r2, r2, r1
 4462 0042 1A64     		str	r2, [r3, #64]
 4463 0044 06E0     		b	.L289
 4464              	.L292:
2114:App/STM32F4-Discovery/Libraries/STM32F4xx_StdPeriph_Driver/src/stm32f4xx_rtc.c ****   }
2115:App/STM32F4-Discovery/Libraries/STM32F4xx_StdPeriph_Driver/src/stm32f4xx_rtc.c ****   else
2116:App/STM32F4-Discovery/Libraries/STM32F4xx_StdPeriph_Driver/src/stm32f4xx_rtc.c ****   {
2117:App/STM32F4-Discovery/Libraries/STM32F4xx_StdPeriph_Driver/src/stm32f4xx_rtc.c ****     /* Disable the selected Tamper pin */
2118:App/STM32F4-Discovery/Libraries/STM32F4xx_StdPeriph_Driver/src/stm32f4xx_rtc.c ****     RTC->TAFCR &= (uint32_t)~RTC_Tamper;    
 4465              		.loc 1 2118 0
 4466 0046 064B     		ldr	r3, .L294+4
 4467 0048 054A     		ldr	r2, .L294+4
 4468 004a 116C     		ldr	r1, [r2, #64]
 4469 004c 7A68     		ldr	r2, [r7, #4]
 4470 004e D243     		mvns	r2, r2
 4471 0050 0A40     		ands	r2, r2, r1
 4472 0052 1A64     		str	r2, [r3, #64]
 4473              	.L289:
2119:App/STM32F4-Discovery/Libraries/STM32F4xx_StdPeriph_Driver/src/stm32f4xx_rtc.c ****   }  
2120:App/STM32F4-Discovery/Libraries/STM32F4xx_StdPeriph_Driver/src/stm32f4xx_rtc.c **** }
 4474              		.loc 1 2120 0
 4475 0054 0837     		adds	r7, r7, #8
 4476 0056 BD46     		mov	sp, r7
 4477              		@ sp needed
 4478 0058 80BD     		pop	{r7, pc}
 4479              	.L295:
 4480 005a 00BF     		.align	2
 4481              	.L294:
 4482 005c 00000000 		.word	.LC0
 4483 0060 00280040 		.word	1073752064
 4484              		.cfi_endproc
 4485              	.LFE148:
 4487              		.section	.text.RTC_TamperFilterConfig,"ax",%progbits
 4488              		.align	2
 4489              		.global	RTC_TamperFilterConfig
 4490              		.thumb
 4491              		.thumb_func
 4493              	RTC_TamperFilterConfig:
 4494              	.LFB149:
2121:App/STM32F4-Discovery/Libraries/STM32F4xx_StdPeriph_Driver/src/stm32f4xx_rtc.c **** 
2122:App/STM32F4-Discovery/Libraries/STM32F4xx_StdPeriph_Driver/src/stm32f4xx_rtc.c **** /**
2123:App/STM32F4-Discovery/Libraries/STM32F4xx_StdPeriph_Driver/src/stm32f4xx_rtc.c ****   * @brief  Configures the Tampers Filter.
2124:App/STM32F4-Discovery/Libraries/STM32F4xx_StdPeriph_Driver/src/stm32f4xx_rtc.c ****   * @param  RTC_TamperFilter: Specifies the tampers filter.
2125:App/STM32F4-Discovery/Libraries/STM32F4xx_StdPeriph_Driver/src/stm32f4xx_rtc.c ****   *   This parameter can be one of the following values:
2126:App/STM32F4-Discovery/Libraries/STM32F4xx_StdPeriph_Driver/src/stm32f4xx_rtc.c ****   *     @arg RTC_TamperFilter_Disable: Tamper filter is disabled.
2127:App/STM32F4-Discovery/Libraries/STM32F4xx_StdPeriph_Driver/src/stm32f4xx_rtc.c ****   *     @arg RTC_TamperFilter_2Sample: Tamper is activated after 2 consecutive 
2128:App/STM32F4-Discovery/Libraries/STM32F4xx_StdPeriph_Driver/src/stm32f4xx_rtc.c ****   *                                    samples at the active level 
2129:App/STM32F4-Discovery/Libraries/STM32F4xx_StdPeriph_Driver/src/stm32f4xx_rtc.c ****   *     @arg RTC_TamperFilter_4Sample: Tamper is activated after 4 consecutive 
2130:App/STM32F4-Discovery/Libraries/STM32F4xx_StdPeriph_Driver/src/stm32f4xx_rtc.c ****   *                                    samples at the active level
2131:App/STM32F4-Discovery/Libraries/STM32F4xx_StdPeriph_Driver/src/stm32f4xx_rtc.c ****   *     @arg RTC_TamperFilter_8Sample: Tamper is activated after 8 consecutive 
2132:App/STM32F4-Discovery/Libraries/STM32F4xx_StdPeriph_Driver/src/stm32f4xx_rtc.c ****   *                                    samples at the active level 
2133:App/STM32F4-Discovery/Libraries/STM32F4xx_StdPeriph_Driver/src/stm32f4xx_rtc.c ****   * @retval None
2134:App/STM32F4-Discovery/Libraries/STM32F4xx_StdPeriph_Driver/src/stm32f4xx_rtc.c ****   */
2135:App/STM32F4-Discovery/Libraries/STM32F4xx_StdPeriph_Driver/src/stm32f4xx_rtc.c **** void RTC_TamperFilterConfig(uint32_t RTC_TamperFilter)
2136:App/STM32F4-Discovery/Libraries/STM32F4xx_StdPeriph_Driver/src/stm32f4xx_rtc.c **** {
 4495              		.loc 1 2136 0
 4496              		.cfi_startproc
 4497              		@ args = 0, pretend = 0, frame = 8
 4498              		@ frame_needed = 1, uses_anonymous_args = 0
 4499 0000 80B5     		push	{r7, lr}
 4500              	.LCFI113:
 4501              		.cfi_def_cfa_offset 8
 4502              		.cfi_offset 7, -8
 4503              		.cfi_offset 14, -4
 4504 0002 82B0     		sub	sp, sp, #8
 4505              	.LCFI114:
 4506              		.cfi_def_cfa_offset 16
 4507 0004 00AF     		add	r7, sp, #0
 4508              	.LCFI115:
 4509              		.cfi_def_cfa_register 7
 4510 0006 7860     		str	r0, [r7, #4]
2137:App/STM32F4-Discovery/Libraries/STM32F4xx_StdPeriph_Driver/src/stm32f4xx_rtc.c ****   /* Check the parameters */
2138:App/STM32F4-Discovery/Libraries/STM32F4xx_StdPeriph_Driver/src/stm32f4xx_rtc.c ****   assert_param(IS_RTC_TAMPER_FILTER(RTC_TamperFilter));
 4511              		.loc 1 2138 0
 4512 0008 7B68     		ldr	r3, [r7, #4]
 4513 000a 002B     		cmp	r3, #0
 4514 000c 10D0     		beq	.L297
 4515              		.loc 1 2138 0 is_stmt 0 discriminator 1
 4516 000e 7B68     		ldr	r3, [r7, #4]
 4517 0010 B3F5006F 		cmp	r3, #2048
 4518 0014 0CD0     		beq	.L297
 4519 0016 7B68     		ldr	r3, [r7, #4]
 4520 0018 B3F5805F 		cmp	r3, #4096
 4521 001c 08D0     		beq	.L297
 4522 001e 7B68     		ldr	r3, [r7, #4]
 4523 0020 B3F5C05F 		cmp	r3, #6144
 4524 0024 04D0     		beq	.L297
 4525 0026 0A48     		ldr	r0, .L298
 4526 0028 40F65A01 		movw	r1, #2138
 4527 002c FFF7FEFF 		bl	assert_failed
 4528              	.L297:
2139:App/STM32F4-Discovery/Libraries/STM32F4xx_StdPeriph_Driver/src/stm32f4xx_rtc.c ****    
2140:App/STM32F4-Discovery/Libraries/STM32F4xx_StdPeriph_Driver/src/stm32f4xx_rtc.c ****   /* Clear TAMPFLT[1:0] bits in the RTC_TAFCR register */
2141:App/STM32F4-Discovery/Libraries/STM32F4xx_StdPeriph_Driver/src/stm32f4xx_rtc.c ****   RTC->TAFCR &= (uint32_t)~(RTC_TAFCR_TAMPFLT);
 4529              		.loc 1 2141 0 is_stmt 1
 4530 0030 084B     		ldr	r3, .L298+4
 4531 0032 084A     		ldr	r2, .L298+4
 4532 0034 126C     		ldr	r2, [r2, #64]
 4533 0036 22F4C052 		bic	r2, r2, #6144
 4534 003a 1A64     		str	r2, [r3, #64]
2142:App/STM32F4-Discovery/Libraries/STM32F4xx_StdPeriph_Driver/src/stm32f4xx_rtc.c **** 
2143:App/STM32F4-Discovery/Libraries/STM32F4xx_StdPeriph_Driver/src/stm32f4xx_rtc.c ****   /* Configure the RTC_TAFCR register */
2144:App/STM32F4-Discovery/Libraries/STM32F4xx_StdPeriph_Driver/src/stm32f4xx_rtc.c ****   RTC->TAFCR |= (uint32_t)RTC_TamperFilter;
 4535              		.loc 1 2144 0
 4536 003c 054B     		ldr	r3, .L298+4
 4537 003e 054A     		ldr	r2, .L298+4
 4538 0040 116C     		ldr	r1, [r2, #64]
 4539 0042 7A68     		ldr	r2, [r7, #4]
 4540 0044 0A43     		orrs	r2, r2, r1
 4541 0046 1A64     		str	r2, [r3, #64]
2145:App/STM32F4-Discovery/Libraries/STM32F4xx_StdPeriph_Driver/src/stm32f4xx_rtc.c **** }
 4542              		.loc 1 2145 0
 4543 0048 0837     		adds	r7, r7, #8
 4544 004a BD46     		mov	sp, r7
 4545              		@ sp needed
 4546 004c 80BD     		pop	{r7, pc}
 4547              	.L299:
 4548 004e 00BF     		.align	2
 4549              	.L298:
 4550 0050 00000000 		.word	.LC0
 4551 0054 00280040 		.word	1073752064
 4552              		.cfi_endproc
 4553              	.LFE149:
 4555              		.section	.text.RTC_TamperSamplingFreqConfig,"ax",%progbits
 4556              		.align	2
 4557              		.global	RTC_TamperSamplingFreqConfig
 4558              		.thumb
 4559              		.thumb_func
 4561              	RTC_TamperSamplingFreqConfig:
 4562              	.LFB150:
2146:App/STM32F4-Discovery/Libraries/STM32F4xx_StdPeriph_Driver/src/stm32f4xx_rtc.c **** 
2147:App/STM32F4-Discovery/Libraries/STM32F4xx_StdPeriph_Driver/src/stm32f4xx_rtc.c **** /**
2148:App/STM32F4-Discovery/Libraries/STM32F4xx_StdPeriph_Driver/src/stm32f4xx_rtc.c ****   * @brief  Configures the Tampers Sampling Frequency.
2149:App/STM32F4-Discovery/Libraries/STM32F4xx_StdPeriph_Driver/src/stm32f4xx_rtc.c ****   * @param  RTC_TamperSamplingFreq: Specifies the tampers Sampling Frequency.
2150:App/STM32F4-Discovery/Libraries/STM32F4xx_StdPeriph_Driver/src/stm32f4xx_rtc.c ****   *   This parameter can be one of the following values:
2151:App/STM32F4-Discovery/Libraries/STM32F4xx_StdPeriph_Driver/src/stm32f4xx_rtc.c ****   *     @arg RTC_TamperSamplingFreq_RTCCLK_Div32768: Each of the tamper inputs are sampled
2152:App/STM32F4-Discovery/Libraries/STM32F4xx_StdPeriph_Driver/src/stm32f4xx_rtc.c ****   *                                           with a frequency =  RTCCLK / 32768
2153:App/STM32F4-Discovery/Libraries/STM32F4xx_StdPeriph_Driver/src/stm32f4xx_rtc.c ****   *     @arg RTC_TamperSamplingFreq_RTCCLK_Div16384: Each of the tamper inputs are sampled
2154:App/STM32F4-Discovery/Libraries/STM32F4xx_StdPeriph_Driver/src/stm32f4xx_rtc.c ****   *                                           with a frequency =  RTCCLK / 16384
2155:App/STM32F4-Discovery/Libraries/STM32F4xx_StdPeriph_Driver/src/stm32f4xx_rtc.c ****   *     @arg RTC_TamperSamplingFreq_RTCCLK_Div8192: Each of the tamper inputs are sampled
2156:App/STM32F4-Discovery/Libraries/STM32F4xx_StdPeriph_Driver/src/stm32f4xx_rtc.c ****   *                                           with a frequency =  RTCCLK / 8192
2157:App/STM32F4-Discovery/Libraries/STM32F4xx_StdPeriph_Driver/src/stm32f4xx_rtc.c ****   *     @arg RTC_TamperSamplingFreq_RTCCLK_Div4096: Each of the tamper inputs are sampled
2158:App/STM32F4-Discovery/Libraries/STM32F4xx_StdPeriph_Driver/src/stm32f4xx_rtc.c ****   *                                           with a frequency =  RTCCLK / 4096
2159:App/STM32F4-Discovery/Libraries/STM32F4xx_StdPeriph_Driver/src/stm32f4xx_rtc.c ****   *     @arg RTC_TamperSamplingFreq_RTCCLK_Div2048: Each of the tamper inputs are sampled
2160:App/STM32F4-Discovery/Libraries/STM32F4xx_StdPeriph_Driver/src/stm32f4xx_rtc.c ****   *                                           with a frequency =  RTCCLK / 2048
2161:App/STM32F4-Discovery/Libraries/STM32F4xx_StdPeriph_Driver/src/stm32f4xx_rtc.c ****   *     @arg RTC_TamperSamplingFreq_RTCCLK_Div1024: Each of the tamper inputs are sampled
2162:App/STM32F4-Discovery/Libraries/STM32F4xx_StdPeriph_Driver/src/stm32f4xx_rtc.c ****   *                                           with a frequency =  RTCCLK / 1024
2163:App/STM32F4-Discovery/Libraries/STM32F4xx_StdPeriph_Driver/src/stm32f4xx_rtc.c ****   *     @arg RTC_TamperSamplingFreq_RTCCLK_Div512: Each of the tamper inputs are sampled
2164:App/STM32F4-Discovery/Libraries/STM32F4xx_StdPeriph_Driver/src/stm32f4xx_rtc.c ****   *                                           with a frequency =  RTCCLK / 512  
2165:App/STM32F4-Discovery/Libraries/STM32F4xx_StdPeriph_Driver/src/stm32f4xx_rtc.c ****   *     @arg RTC_TamperSamplingFreq_RTCCLK_Div256: Each of the tamper inputs are sampled
2166:App/STM32F4-Discovery/Libraries/STM32F4xx_StdPeriph_Driver/src/stm32f4xx_rtc.c ****   *                                           with a frequency =  RTCCLK / 256  
2167:App/STM32F4-Discovery/Libraries/STM32F4xx_StdPeriph_Driver/src/stm32f4xx_rtc.c ****   * @retval None
2168:App/STM32F4-Discovery/Libraries/STM32F4xx_StdPeriph_Driver/src/stm32f4xx_rtc.c ****   */
2169:App/STM32F4-Discovery/Libraries/STM32F4xx_StdPeriph_Driver/src/stm32f4xx_rtc.c **** void RTC_TamperSamplingFreqConfig(uint32_t RTC_TamperSamplingFreq)
2170:App/STM32F4-Discovery/Libraries/STM32F4xx_StdPeriph_Driver/src/stm32f4xx_rtc.c **** {
 4563              		.loc 1 2170 0
 4564              		.cfi_startproc
 4565              		@ args = 0, pretend = 0, frame = 8
 4566              		@ frame_needed = 1, uses_anonymous_args = 0
 4567 0000 80B5     		push	{r7, lr}
 4568              	.LCFI116:
 4569              		.cfi_def_cfa_offset 8
 4570              		.cfi_offset 7, -8
 4571              		.cfi_offset 14, -4
 4572 0002 82B0     		sub	sp, sp, #8
 4573              	.LCFI117:
 4574              		.cfi_def_cfa_offset 16
 4575 0004 00AF     		add	r7, sp, #0
 4576              	.LCFI118:
 4577              		.cfi_def_cfa_register 7
 4578 0006 7860     		str	r0, [r7, #4]
2171:App/STM32F4-Discovery/Libraries/STM32F4xx_StdPeriph_Driver/src/stm32f4xx_rtc.c ****   /* Check the parameters */
2172:App/STM32F4-Discovery/Libraries/STM32F4xx_StdPeriph_Driver/src/stm32f4xx_rtc.c ****   assert_param(IS_RTC_TAMPER_SAMPLING_FREQ(RTC_TamperSamplingFreq));
 4579              		.loc 1 2172 0
 4580 0008 7B68     		ldr	r3, [r7, #4]
 4581 000a 002B     		cmp	r3, #0
 4582 000c 20D0     		beq	.L301
 4583              		.loc 1 2172 0 is_stmt 0 discriminator 1
 4584 000e 7B68     		ldr	r3, [r7, #4]
 4585 0010 B3F5807F 		cmp	r3, #256
 4586 0014 1CD0     		beq	.L301
 4587 0016 7B68     		ldr	r3, [r7, #4]
 4588 0018 B3F5007F 		cmp	r3, #512
 4589 001c 18D0     		beq	.L301
 4590 001e 7B68     		ldr	r3, [r7, #4]
 4591 0020 B3F5407F 		cmp	r3, #768
 4592 0024 14D0     		beq	.L301
 4593 0026 7B68     		ldr	r3, [r7, #4]
 4594 0028 B3F5806F 		cmp	r3, #1024
 4595 002c 10D0     		beq	.L301
 4596 002e 7B68     		ldr	r3, [r7, #4]
 4597 0030 B3F5A06F 		cmp	r3, #1280
 4598 0034 0CD0     		beq	.L301
 4599 0036 7B68     		ldr	r3, [r7, #4]
 4600 0038 B3F5C06F 		cmp	r3, #1536
 4601 003c 08D0     		beq	.L301
 4602 003e 7B68     		ldr	r3, [r7, #4]
 4603 0040 B3F5E06F 		cmp	r3, #1792
 4604 0044 04D0     		beq	.L301
 4605 0046 0A48     		ldr	r0, .L302
 4606 0048 40F67C01 		movw	r1, #2172
 4607 004c FFF7FEFF 		bl	assert_failed
 4608              	.L301:
2173:App/STM32F4-Discovery/Libraries/STM32F4xx_StdPeriph_Driver/src/stm32f4xx_rtc.c ****  
2174:App/STM32F4-Discovery/Libraries/STM32F4xx_StdPeriph_Driver/src/stm32f4xx_rtc.c ****   /* Clear TAMPFREQ[2:0] bits in the RTC_TAFCR register */
2175:App/STM32F4-Discovery/Libraries/STM32F4xx_StdPeriph_Driver/src/stm32f4xx_rtc.c ****   RTC->TAFCR &= (uint32_t)~(RTC_TAFCR_TAMPFREQ);
 4609              		.loc 1 2175 0 is_stmt 1
 4610 0050 084B     		ldr	r3, .L302+4
 4611 0052 084A     		ldr	r2, .L302+4
 4612 0054 126C     		ldr	r2, [r2, #64]
 4613 0056 22F4E062 		bic	r2, r2, #1792
 4614 005a 1A64     		str	r2, [r3, #64]
2176:App/STM32F4-Discovery/Libraries/STM32F4xx_StdPeriph_Driver/src/stm32f4xx_rtc.c **** 
2177:App/STM32F4-Discovery/Libraries/STM32F4xx_StdPeriph_Driver/src/stm32f4xx_rtc.c ****   /* Configure the RTC_TAFCR register */
2178:App/STM32F4-Discovery/Libraries/STM32F4xx_StdPeriph_Driver/src/stm32f4xx_rtc.c ****   RTC->TAFCR |= (uint32_t)RTC_TamperSamplingFreq;
 4615              		.loc 1 2178 0
 4616 005c 054B     		ldr	r3, .L302+4
 4617 005e 054A     		ldr	r2, .L302+4
 4618 0060 116C     		ldr	r1, [r2, #64]
 4619 0062 7A68     		ldr	r2, [r7, #4]
 4620 0064 0A43     		orrs	r2, r2, r1
 4621 0066 1A64     		str	r2, [r3, #64]
2179:App/STM32F4-Discovery/Libraries/STM32F4xx_StdPeriph_Driver/src/stm32f4xx_rtc.c **** }
 4622              		.loc 1 2179 0
 4623 0068 0837     		adds	r7, r7, #8
 4624 006a BD46     		mov	sp, r7
 4625              		@ sp needed
 4626 006c 80BD     		pop	{r7, pc}
 4627              	.L303:
 4628 006e 00BF     		.align	2
 4629              	.L302:
 4630 0070 00000000 		.word	.LC0
 4631 0074 00280040 		.word	1073752064
 4632              		.cfi_endproc
 4633              	.LFE150:
 4635              		.section	.text.RTC_TamperPinsPrechargeDuration,"ax",%progbits
 4636              		.align	2
 4637              		.global	RTC_TamperPinsPrechargeDuration
 4638              		.thumb
 4639              		.thumb_func
 4641              	RTC_TamperPinsPrechargeDuration:
 4642              	.LFB151:
2180:App/STM32F4-Discovery/Libraries/STM32F4xx_StdPeriph_Driver/src/stm32f4xx_rtc.c **** 
2181:App/STM32F4-Discovery/Libraries/STM32F4xx_StdPeriph_Driver/src/stm32f4xx_rtc.c **** /**
2182:App/STM32F4-Discovery/Libraries/STM32F4xx_StdPeriph_Driver/src/stm32f4xx_rtc.c ****   * @brief  Configures the Tampers Pins input Precharge Duration.
2183:App/STM32F4-Discovery/Libraries/STM32F4xx_StdPeriph_Driver/src/stm32f4xx_rtc.c ****   * @param  RTC_TamperPrechargeDuration: Specifies the Tampers Pins input
2184:App/STM32F4-Discovery/Libraries/STM32F4xx_StdPeriph_Driver/src/stm32f4xx_rtc.c ****   *         Precharge Duration.
2185:App/STM32F4-Discovery/Libraries/STM32F4xx_StdPeriph_Driver/src/stm32f4xx_rtc.c ****   *   This parameter can be one of the following values:
2186:App/STM32F4-Discovery/Libraries/STM32F4xx_StdPeriph_Driver/src/stm32f4xx_rtc.c ****   *     @arg RTC_TamperPrechargeDuration_1RTCCLK: Tamper pins are pre-charged before sampling durin
2187:App/STM32F4-Discovery/Libraries/STM32F4xx_StdPeriph_Driver/src/stm32f4xx_rtc.c ****   *     @arg RTC_TamperPrechargeDuration_2RTCCLK: Tamper pins are pre-charged before sampling durin
2188:App/STM32F4-Discovery/Libraries/STM32F4xx_StdPeriph_Driver/src/stm32f4xx_rtc.c ****   *     @arg RTC_TamperPrechargeDuration_4RTCCLK: Tamper pins are pre-charged before sampling durin
2189:App/STM32F4-Discovery/Libraries/STM32F4xx_StdPeriph_Driver/src/stm32f4xx_rtc.c ****   *     @arg RTC_TamperPrechargeDuration_8RTCCLK: Tamper pins are pre-charged before sampling durin
2190:App/STM32F4-Discovery/Libraries/STM32F4xx_StdPeriph_Driver/src/stm32f4xx_rtc.c ****   * @retval None
2191:App/STM32F4-Discovery/Libraries/STM32F4xx_StdPeriph_Driver/src/stm32f4xx_rtc.c ****   */
2192:App/STM32F4-Discovery/Libraries/STM32F4xx_StdPeriph_Driver/src/stm32f4xx_rtc.c **** void RTC_TamperPinsPrechargeDuration(uint32_t RTC_TamperPrechargeDuration)
2193:App/STM32F4-Discovery/Libraries/STM32F4xx_StdPeriph_Driver/src/stm32f4xx_rtc.c **** {
 4643              		.loc 1 2193 0
 4644              		.cfi_startproc
 4645              		@ args = 0, pretend = 0, frame = 8
 4646              		@ frame_needed = 1, uses_anonymous_args = 0
 4647 0000 80B5     		push	{r7, lr}
 4648              	.LCFI119:
 4649              		.cfi_def_cfa_offset 8
 4650              		.cfi_offset 7, -8
 4651              		.cfi_offset 14, -4
 4652 0002 82B0     		sub	sp, sp, #8
 4653              	.LCFI120:
 4654              		.cfi_def_cfa_offset 16
 4655 0004 00AF     		add	r7, sp, #0
 4656              	.LCFI121:
 4657              		.cfi_def_cfa_register 7
 4658 0006 7860     		str	r0, [r7, #4]
2194:App/STM32F4-Discovery/Libraries/STM32F4xx_StdPeriph_Driver/src/stm32f4xx_rtc.c ****   /* Check the parameters */
2195:App/STM32F4-Discovery/Libraries/STM32F4xx_StdPeriph_Driver/src/stm32f4xx_rtc.c ****   assert_param(IS_RTC_TAMPER_PRECHARGE_DURATION(RTC_TamperPrechargeDuration));
 4659              		.loc 1 2195 0
 4660 0008 7B68     		ldr	r3, [r7, #4]
 4661 000a 002B     		cmp	r3, #0
 4662 000c 10D0     		beq	.L305
 4663              		.loc 1 2195 0 is_stmt 0 discriminator 1
 4664 000e 7B68     		ldr	r3, [r7, #4]
 4665 0010 B3F5005F 		cmp	r3, #8192
 4666 0014 0CD0     		beq	.L305
 4667 0016 7B68     		ldr	r3, [r7, #4]
 4668 0018 B3F5804F 		cmp	r3, #16384
 4669 001c 08D0     		beq	.L305
 4670 001e 7B68     		ldr	r3, [r7, #4]
 4671 0020 B3F5C04F 		cmp	r3, #24576
 4672 0024 04D0     		beq	.L305
 4673 0026 0A48     		ldr	r0, .L306
 4674 0028 40F69301 		movw	r1, #2195
 4675 002c FFF7FEFF 		bl	assert_failed
 4676              	.L305:
2196:App/STM32F4-Discovery/Libraries/STM32F4xx_StdPeriph_Driver/src/stm32f4xx_rtc.c ****    
2197:App/STM32F4-Discovery/Libraries/STM32F4xx_StdPeriph_Driver/src/stm32f4xx_rtc.c ****   /* Clear TAMPPRCH[1:0] bits in the RTC_TAFCR register */
2198:App/STM32F4-Discovery/Libraries/STM32F4xx_StdPeriph_Driver/src/stm32f4xx_rtc.c ****   RTC->TAFCR &= (uint32_t)~(RTC_TAFCR_TAMPPRCH);
 4677              		.loc 1 2198 0 is_stmt 1
 4678 0030 084B     		ldr	r3, .L306+4
 4679 0032 084A     		ldr	r2, .L306+4
 4680 0034 126C     		ldr	r2, [r2, #64]
 4681 0036 22F4C042 		bic	r2, r2, #24576
 4682 003a 1A64     		str	r2, [r3, #64]
2199:App/STM32F4-Discovery/Libraries/STM32F4xx_StdPeriph_Driver/src/stm32f4xx_rtc.c **** 
2200:App/STM32F4-Discovery/Libraries/STM32F4xx_StdPeriph_Driver/src/stm32f4xx_rtc.c ****   /* Configure the RTC_TAFCR register */
2201:App/STM32F4-Discovery/Libraries/STM32F4xx_StdPeriph_Driver/src/stm32f4xx_rtc.c ****   RTC->TAFCR |= (uint32_t)RTC_TamperPrechargeDuration;
 4683              		.loc 1 2201 0
 4684 003c 054B     		ldr	r3, .L306+4
 4685 003e 054A     		ldr	r2, .L306+4
 4686 0040 116C     		ldr	r1, [r2, #64]
 4687 0042 7A68     		ldr	r2, [r7, #4]
 4688 0044 0A43     		orrs	r2, r2, r1
 4689 0046 1A64     		str	r2, [r3, #64]
2202:App/STM32F4-Discovery/Libraries/STM32F4xx_StdPeriph_Driver/src/stm32f4xx_rtc.c **** }
 4690              		.loc 1 2202 0
 4691 0048 0837     		adds	r7, r7, #8
 4692 004a BD46     		mov	sp, r7
 4693              		@ sp needed
 4694 004c 80BD     		pop	{r7, pc}
 4695              	.L307:
 4696 004e 00BF     		.align	2
 4697              	.L306:
 4698 0050 00000000 		.word	.LC0
 4699 0054 00280040 		.word	1073752064
 4700              		.cfi_endproc
 4701              	.LFE151:
 4703              		.section	.text.RTC_TimeStampOnTamperDetectionCmd,"ax",%progbits
 4704              		.align	2
 4705              		.global	RTC_TimeStampOnTamperDetectionCmd
 4706              		.thumb
 4707              		.thumb_func
 4709              	RTC_TimeStampOnTamperDetectionCmd:
 4710              	.LFB152:
2203:App/STM32F4-Discovery/Libraries/STM32F4xx_StdPeriph_Driver/src/stm32f4xx_rtc.c **** 
2204:App/STM32F4-Discovery/Libraries/STM32F4xx_StdPeriph_Driver/src/stm32f4xx_rtc.c **** /**
2205:App/STM32F4-Discovery/Libraries/STM32F4xx_StdPeriph_Driver/src/stm32f4xx_rtc.c ****   * @brief  Enables or Disables the TimeStamp on Tamper Detection Event.
2206:App/STM32F4-Discovery/Libraries/STM32F4xx_StdPeriph_Driver/src/stm32f4xx_rtc.c ****   * @note   The timestamp is valid even the TSE bit in tamper control register 
2207:App/STM32F4-Discovery/Libraries/STM32F4xx_StdPeriph_Driver/src/stm32f4xx_rtc.c ****   *         is reset.   
2208:App/STM32F4-Discovery/Libraries/STM32F4xx_StdPeriph_Driver/src/stm32f4xx_rtc.c ****   * @param  NewState: new state of the timestamp on tamper event.
2209:App/STM32F4-Discovery/Libraries/STM32F4xx_StdPeriph_Driver/src/stm32f4xx_rtc.c ****   *         This parameter can be: ENABLE or DISABLE.
2210:App/STM32F4-Discovery/Libraries/STM32F4xx_StdPeriph_Driver/src/stm32f4xx_rtc.c ****   * @retval None
2211:App/STM32F4-Discovery/Libraries/STM32F4xx_StdPeriph_Driver/src/stm32f4xx_rtc.c ****   */
2212:App/STM32F4-Discovery/Libraries/STM32F4xx_StdPeriph_Driver/src/stm32f4xx_rtc.c **** void RTC_TimeStampOnTamperDetectionCmd(FunctionalState NewState)
2213:App/STM32F4-Discovery/Libraries/STM32F4xx_StdPeriph_Driver/src/stm32f4xx_rtc.c **** {
 4711              		.loc 1 2213 0
 4712              		.cfi_startproc
 4713              		@ args = 0, pretend = 0, frame = 8
 4714              		@ frame_needed = 1, uses_anonymous_args = 0
 4715 0000 80B5     		push	{r7, lr}
 4716              	.LCFI122:
 4717              		.cfi_def_cfa_offset 8
 4718              		.cfi_offset 7, -8
 4719              		.cfi_offset 14, -4
 4720 0002 82B0     		sub	sp, sp, #8
 4721              	.LCFI123:
 4722              		.cfi_def_cfa_offset 16
 4723 0004 00AF     		add	r7, sp, #0
 4724              	.LCFI124:
 4725              		.cfi_def_cfa_register 7
 4726 0006 0346     		mov	r3, r0
 4727 0008 FB71     		strb	r3, [r7, #7]
2214:App/STM32F4-Discovery/Libraries/STM32F4xx_StdPeriph_Driver/src/stm32f4xx_rtc.c ****   /* Check the parameters */
2215:App/STM32F4-Discovery/Libraries/STM32F4xx_StdPeriph_Driver/src/stm32f4xx_rtc.c ****   assert_param(IS_FUNCTIONAL_STATE(NewState));
 4728              		.loc 1 2215 0
 4729 000a FB79     		ldrb	r3, [r7, #7]	@ zero_extendqisi2
 4730 000c 002B     		cmp	r3, #0
 4731 000e 07D0     		beq	.L309
 4732              		.loc 1 2215 0 is_stmt 0 discriminator 1
 4733 0010 FB79     		ldrb	r3, [r7, #7]	@ zero_extendqisi2
 4734 0012 012B     		cmp	r3, #1
 4735 0014 04D0     		beq	.L309
 4736 0016 0C48     		ldr	r0, .L312
 4737 0018 40F6A701 		movw	r1, #2215
 4738 001c FFF7FEFF 		bl	assert_failed
 4739              	.L309:
2216:App/STM32F4-Discovery/Libraries/STM32F4xx_StdPeriph_Driver/src/stm32f4xx_rtc.c ****    
2217:App/STM32F4-Discovery/Libraries/STM32F4xx_StdPeriph_Driver/src/stm32f4xx_rtc.c ****   if (NewState != DISABLE)
 4740              		.loc 1 2217 0 is_stmt 1
 4741 0020 FB79     		ldrb	r3, [r7, #7]	@ zero_extendqisi2
 4742 0022 002B     		cmp	r3, #0
 4743 0024 06D0     		beq	.L310
2218:App/STM32F4-Discovery/Libraries/STM32F4xx_StdPeriph_Driver/src/stm32f4xx_rtc.c ****   {
2219:App/STM32F4-Discovery/Libraries/STM32F4xx_StdPeriph_Driver/src/stm32f4xx_rtc.c ****     /* Save timestamp on tamper detection event */
2220:App/STM32F4-Discovery/Libraries/STM32F4xx_StdPeriph_Driver/src/stm32f4xx_rtc.c ****     RTC->TAFCR |= (uint32_t)RTC_TAFCR_TAMPTS;
 4744              		.loc 1 2220 0
 4745 0026 094B     		ldr	r3, .L312+4
 4746 0028 084A     		ldr	r2, .L312+4
 4747 002a 126C     		ldr	r2, [r2, #64]
 4748 002c 42F08002 		orr	r2, r2, #128
 4749 0030 1A64     		str	r2, [r3, #64]
 4750 0032 05E0     		b	.L308
 4751              	.L310:
2221:App/STM32F4-Discovery/Libraries/STM32F4xx_StdPeriph_Driver/src/stm32f4xx_rtc.c ****   }
2222:App/STM32F4-Discovery/Libraries/STM32F4xx_StdPeriph_Driver/src/stm32f4xx_rtc.c ****   else
2223:App/STM32F4-Discovery/Libraries/STM32F4xx_StdPeriph_Driver/src/stm32f4xx_rtc.c ****   {
2224:App/STM32F4-Discovery/Libraries/STM32F4xx_StdPeriph_Driver/src/stm32f4xx_rtc.c ****     /* Tamper detection does not cause a timestamp to be saved */
2225:App/STM32F4-Discovery/Libraries/STM32F4xx_StdPeriph_Driver/src/stm32f4xx_rtc.c ****     RTC->TAFCR &= (uint32_t)~RTC_TAFCR_TAMPTS;    
 4752              		.loc 1 2225 0
 4753 0034 054B     		ldr	r3, .L312+4
 4754 0036 054A     		ldr	r2, .L312+4
 4755 0038 126C     		ldr	r2, [r2, #64]
 4756 003a 22F08002 		bic	r2, r2, #128
 4757 003e 1A64     		str	r2, [r3, #64]
 4758              	.L308:
2226:App/STM32F4-Discovery/Libraries/STM32F4xx_StdPeriph_Driver/src/stm32f4xx_rtc.c ****   }
2227:App/STM32F4-Discovery/Libraries/STM32F4xx_StdPeriph_Driver/src/stm32f4xx_rtc.c **** }
 4759              		.loc 1 2227 0
 4760 0040 0837     		adds	r7, r7, #8
 4761 0042 BD46     		mov	sp, r7
 4762              		@ sp needed
 4763 0044 80BD     		pop	{r7, pc}
 4764              	.L313:
 4765 0046 00BF     		.align	2
 4766              	.L312:
 4767 0048 00000000 		.word	.LC0
 4768 004c 00280040 		.word	1073752064
 4769              		.cfi_endproc
 4770              	.LFE152:
 4772              		.section	.text.RTC_TamperPullUpCmd,"ax",%progbits
 4773              		.align	2
 4774              		.global	RTC_TamperPullUpCmd
 4775              		.thumb
 4776              		.thumb_func
 4778              	RTC_TamperPullUpCmd:
 4779              	.LFB153:
2228:App/STM32F4-Discovery/Libraries/STM32F4xx_StdPeriph_Driver/src/stm32f4xx_rtc.c **** 
2229:App/STM32F4-Discovery/Libraries/STM32F4xx_StdPeriph_Driver/src/stm32f4xx_rtc.c **** /**
2230:App/STM32F4-Discovery/Libraries/STM32F4xx_StdPeriph_Driver/src/stm32f4xx_rtc.c ****   * @brief  Enables or Disables the Precharge of Tamper pin.
2231:App/STM32F4-Discovery/Libraries/STM32F4xx_StdPeriph_Driver/src/stm32f4xx_rtc.c ****   * @param  NewState: new state of tamper pull up.
2232:App/STM32F4-Discovery/Libraries/STM32F4xx_StdPeriph_Driver/src/stm32f4xx_rtc.c ****   *   This parameter can be: ENABLE or DISABLE.                   
2233:App/STM32F4-Discovery/Libraries/STM32F4xx_StdPeriph_Driver/src/stm32f4xx_rtc.c ****   * @retval None
2234:App/STM32F4-Discovery/Libraries/STM32F4xx_StdPeriph_Driver/src/stm32f4xx_rtc.c ****   */
2235:App/STM32F4-Discovery/Libraries/STM32F4xx_StdPeriph_Driver/src/stm32f4xx_rtc.c **** void RTC_TamperPullUpCmd(FunctionalState NewState)
2236:App/STM32F4-Discovery/Libraries/STM32F4xx_StdPeriph_Driver/src/stm32f4xx_rtc.c **** {
 4780              		.loc 1 2236 0
 4781              		.cfi_startproc
 4782              		@ args = 0, pretend = 0, frame = 8
 4783              		@ frame_needed = 1, uses_anonymous_args = 0
 4784 0000 80B5     		push	{r7, lr}
 4785              	.LCFI125:
 4786              		.cfi_def_cfa_offset 8
 4787              		.cfi_offset 7, -8
 4788              		.cfi_offset 14, -4
 4789 0002 82B0     		sub	sp, sp, #8
 4790              	.LCFI126:
 4791              		.cfi_def_cfa_offset 16
 4792 0004 00AF     		add	r7, sp, #0
 4793              	.LCFI127:
 4794              		.cfi_def_cfa_register 7
 4795 0006 0346     		mov	r3, r0
 4796 0008 FB71     		strb	r3, [r7, #7]
2237:App/STM32F4-Discovery/Libraries/STM32F4xx_StdPeriph_Driver/src/stm32f4xx_rtc.c ****   /* Check the parameters */
2238:App/STM32F4-Discovery/Libraries/STM32F4xx_StdPeriph_Driver/src/stm32f4xx_rtc.c ****   assert_param(IS_FUNCTIONAL_STATE(NewState));
 4797              		.loc 1 2238 0
 4798 000a FB79     		ldrb	r3, [r7, #7]	@ zero_extendqisi2
 4799 000c 002B     		cmp	r3, #0
 4800 000e 07D0     		beq	.L315
 4801              		.loc 1 2238 0 is_stmt 0 discriminator 1
 4802 0010 FB79     		ldrb	r3, [r7, #7]	@ zero_extendqisi2
 4803 0012 012B     		cmp	r3, #1
 4804 0014 04D0     		beq	.L315
 4805 0016 0C48     		ldr	r0, .L318
 4806 0018 40F6BE01 		movw	r1, #2238
 4807 001c FFF7FEFF 		bl	assert_failed
 4808              	.L315:
2239:App/STM32F4-Discovery/Libraries/STM32F4xx_StdPeriph_Driver/src/stm32f4xx_rtc.c ****   
2240:App/STM32F4-Discovery/Libraries/STM32F4xx_StdPeriph_Driver/src/stm32f4xx_rtc.c ****  if (NewState != DISABLE)
 4809              		.loc 1 2240 0 is_stmt 1
 4810 0020 FB79     		ldrb	r3, [r7, #7]	@ zero_extendqisi2
 4811 0022 002B     		cmp	r3, #0
 4812 0024 06D0     		beq	.L316
2241:App/STM32F4-Discovery/Libraries/STM32F4xx_StdPeriph_Driver/src/stm32f4xx_rtc.c ****   {
2242:App/STM32F4-Discovery/Libraries/STM32F4xx_StdPeriph_Driver/src/stm32f4xx_rtc.c ****     /* Enable precharge of the selected Tamper pin */
2243:App/STM32F4-Discovery/Libraries/STM32F4xx_StdPeriph_Driver/src/stm32f4xx_rtc.c ****     RTC->TAFCR &= (uint32_t)~RTC_TAFCR_TAMPPUDIS; 
 4813              		.loc 1 2243 0
 4814 0026 094B     		ldr	r3, .L318+4
 4815 0028 084A     		ldr	r2, .L318+4
 4816 002a 126C     		ldr	r2, [r2, #64]
 4817 002c 22F40042 		bic	r2, r2, #32768
 4818 0030 1A64     		str	r2, [r3, #64]
 4819 0032 05E0     		b	.L314
 4820              	.L316:
2244:App/STM32F4-Discovery/Libraries/STM32F4xx_StdPeriph_Driver/src/stm32f4xx_rtc.c ****   }
2245:App/STM32F4-Discovery/Libraries/STM32F4xx_StdPeriph_Driver/src/stm32f4xx_rtc.c ****   else
2246:App/STM32F4-Discovery/Libraries/STM32F4xx_StdPeriph_Driver/src/stm32f4xx_rtc.c ****   {
2247:App/STM32F4-Discovery/Libraries/STM32F4xx_StdPeriph_Driver/src/stm32f4xx_rtc.c ****     /* Disable precharge of the selected Tamper pin */
2248:App/STM32F4-Discovery/Libraries/STM32F4xx_StdPeriph_Driver/src/stm32f4xx_rtc.c ****     RTC->TAFCR |= (uint32_t)RTC_TAFCR_TAMPPUDIS;    
 4821              		.loc 1 2248 0
 4822 0034 054B     		ldr	r3, .L318+4
 4823 0036 054A     		ldr	r2, .L318+4
 4824 0038 126C     		ldr	r2, [r2, #64]
 4825 003a 42F40042 		orr	r2, r2, #32768
 4826 003e 1A64     		str	r2, [r3, #64]
 4827              	.L314:
2249:App/STM32F4-Discovery/Libraries/STM32F4xx_StdPeriph_Driver/src/stm32f4xx_rtc.c ****   } 
2250:App/STM32F4-Discovery/Libraries/STM32F4xx_StdPeriph_Driver/src/stm32f4xx_rtc.c **** }
 4828              		.loc 1 2250 0
 4829 0040 0837     		adds	r7, r7, #8
 4830 0042 BD46     		mov	sp, r7
 4831              		@ sp needed
 4832 0044 80BD     		pop	{r7, pc}
 4833              	.L319:
 4834 0046 00BF     		.align	2
 4835              	.L318:
 4836 0048 00000000 		.word	.LC0
 4837 004c 00280040 		.word	1073752064
 4838              		.cfi_endproc
 4839              	.LFE153:
 4841              		.section	.text.RTC_WriteBackupRegister,"ax",%progbits
 4842              		.align	2
 4843              		.global	RTC_WriteBackupRegister
 4844              		.thumb
 4845              		.thumb_func
 4847              	RTC_WriteBackupRegister:
 4848              	.LFB154:
2251:App/STM32F4-Discovery/Libraries/STM32F4xx_StdPeriph_Driver/src/stm32f4xx_rtc.c **** 
2252:App/STM32F4-Discovery/Libraries/STM32F4xx_StdPeriph_Driver/src/stm32f4xx_rtc.c **** /**
2253:App/STM32F4-Discovery/Libraries/STM32F4xx_StdPeriph_Driver/src/stm32f4xx_rtc.c ****   * @}
2254:App/STM32F4-Discovery/Libraries/STM32F4xx_StdPeriph_Driver/src/stm32f4xx_rtc.c ****   */
2255:App/STM32F4-Discovery/Libraries/STM32F4xx_StdPeriph_Driver/src/stm32f4xx_rtc.c **** 
2256:App/STM32F4-Discovery/Libraries/STM32F4xx_StdPeriph_Driver/src/stm32f4xx_rtc.c **** /** @defgroup RTC_Group10 Backup Data Registers configuration functions
2257:App/STM32F4-Discovery/Libraries/STM32F4xx_StdPeriph_Driver/src/stm32f4xx_rtc.c ****  *  @brief   Backup Data Registers configuration functions  
2258:App/STM32F4-Discovery/Libraries/STM32F4xx_StdPeriph_Driver/src/stm32f4xx_rtc.c ****  *
2259:App/STM32F4-Discovery/Libraries/STM32F4xx_StdPeriph_Driver/src/stm32f4xx_rtc.c **** @verbatim   
2260:App/STM32F4-Discovery/Libraries/STM32F4xx_StdPeriph_Driver/src/stm32f4xx_rtc.c ****  ===============================================================================
2261:App/STM32F4-Discovery/Libraries/STM32F4xx_StdPeriph_Driver/src/stm32f4xx_rtc.c ****                        Backup Data Registers configuration functions 
2262:App/STM32F4-Discovery/Libraries/STM32F4xx_StdPeriph_Driver/src/stm32f4xx_rtc.c ****  ===============================================================================  
2263:App/STM32F4-Discovery/Libraries/STM32F4xx_StdPeriph_Driver/src/stm32f4xx_rtc.c **** 
2264:App/STM32F4-Discovery/Libraries/STM32F4xx_StdPeriph_Driver/src/stm32f4xx_rtc.c **** @endverbatim
2265:App/STM32F4-Discovery/Libraries/STM32F4xx_StdPeriph_Driver/src/stm32f4xx_rtc.c ****   * @{
2266:App/STM32F4-Discovery/Libraries/STM32F4xx_StdPeriph_Driver/src/stm32f4xx_rtc.c ****   */
2267:App/STM32F4-Discovery/Libraries/STM32F4xx_StdPeriph_Driver/src/stm32f4xx_rtc.c **** 
2268:App/STM32F4-Discovery/Libraries/STM32F4xx_StdPeriph_Driver/src/stm32f4xx_rtc.c **** /**
2269:App/STM32F4-Discovery/Libraries/STM32F4xx_StdPeriph_Driver/src/stm32f4xx_rtc.c ****   * @brief  Writes a data in a specified RTC Backup data register.
2270:App/STM32F4-Discovery/Libraries/STM32F4xx_StdPeriph_Driver/src/stm32f4xx_rtc.c ****   * @param  RTC_BKP_DR: RTC Backup data Register number.
2271:App/STM32F4-Discovery/Libraries/STM32F4xx_StdPeriph_Driver/src/stm32f4xx_rtc.c ****   *          This parameter can be: RTC_BKP_DRx where x can be from 0 to 19 to 
2272:App/STM32F4-Discovery/Libraries/STM32F4xx_StdPeriph_Driver/src/stm32f4xx_rtc.c ****   *                          specify the register.
2273:App/STM32F4-Discovery/Libraries/STM32F4xx_StdPeriph_Driver/src/stm32f4xx_rtc.c ****   * @param  Data: Data to be written in the specified RTC Backup data register.                    
2274:App/STM32F4-Discovery/Libraries/STM32F4xx_StdPeriph_Driver/src/stm32f4xx_rtc.c ****   * @retval None
2275:App/STM32F4-Discovery/Libraries/STM32F4xx_StdPeriph_Driver/src/stm32f4xx_rtc.c ****   */
2276:App/STM32F4-Discovery/Libraries/STM32F4xx_StdPeriph_Driver/src/stm32f4xx_rtc.c **** void RTC_WriteBackupRegister(uint32_t RTC_BKP_DR, uint32_t Data)
2277:App/STM32F4-Discovery/Libraries/STM32F4xx_StdPeriph_Driver/src/stm32f4xx_rtc.c **** {
 4849              		.loc 1 2277 0
 4850              		.cfi_startproc
 4851              		@ args = 0, pretend = 0, frame = 16
 4852              		@ frame_needed = 1, uses_anonymous_args = 0
 4853 0000 80B5     		push	{r7, lr}
 4854              	.LCFI128:
 4855              		.cfi_def_cfa_offset 8
 4856              		.cfi_offset 7, -8
 4857              		.cfi_offset 14, -4
 4858 0002 84B0     		sub	sp, sp, #16
 4859              	.LCFI129:
 4860              		.cfi_def_cfa_offset 24
 4861 0004 00AF     		add	r7, sp, #0
 4862              	.LCFI130:
 4863              		.cfi_def_cfa_register 7
 4864 0006 7860     		str	r0, [r7, #4]
 4865 0008 3960     		str	r1, [r7]
2278:App/STM32F4-Discovery/Libraries/STM32F4xx_StdPeriph_Driver/src/stm32f4xx_rtc.c ****   __IO uint32_t tmp = 0;
 4866              		.loc 1 2278 0
 4867 000a 0023     		movs	r3, #0
 4868 000c FB60     		str	r3, [r7, #12]
2279:App/STM32F4-Discovery/Libraries/STM32F4xx_StdPeriph_Driver/src/stm32f4xx_rtc.c ****   
2280:App/STM32F4-Discovery/Libraries/STM32F4xx_StdPeriph_Driver/src/stm32f4xx_rtc.c ****   /* Check the parameters */
2281:App/STM32F4-Discovery/Libraries/STM32F4xx_StdPeriph_Driver/src/stm32f4xx_rtc.c ****   assert_param(IS_RTC_BKP(RTC_BKP_DR));
 4869              		.loc 1 2281 0
 4870 000e 7B68     		ldr	r3, [r7, #4]
 4871 0010 002B     		cmp	r3, #0
 4872 0012 3DD0     		beq	.L321
 4873              		.loc 1 2281 0 is_stmt 0 discriminator 1
 4874 0014 7B68     		ldr	r3, [r7, #4]
 4875 0016 012B     		cmp	r3, #1
 4876 0018 3AD0     		beq	.L321
 4877 001a 7B68     		ldr	r3, [r7, #4]
 4878 001c 022B     		cmp	r3, #2
 4879 001e 37D0     		beq	.L321
 4880 0020 7B68     		ldr	r3, [r7, #4]
 4881 0022 032B     		cmp	r3, #3
 4882 0024 34D0     		beq	.L321
 4883 0026 7B68     		ldr	r3, [r7, #4]
 4884 0028 042B     		cmp	r3, #4
 4885 002a 31D0     		beq	.L321
 4886 002c 7B68     		ldr	r3, [r7, #4]
 4887 002e 052B     		cmp	r3, #5
 4888 0030 2ED0     		beq	.L321
 4889 0032 7B68     		ldr	r3, [r7, #4]
 4890 0034 062B     		cmp	r3, #6
 4891 0036 2BD0     		beq	.L321
 4892 0038 7B68     		ldr	r3, [r7, #4]
 4893 003a 072B     		cmp	r3, #7
 4894 003c 28D0     		beq	.L321
 4895 003e 7B68     		ldr	r3, [r7, #4]
 4896 0040 082B     		cmp	r3, #8
 4897 0042 25D0     		beq	.L321
 4898 0044 7B68     		ldr	r3, [r7, #4]
 4899 0046 092B     		cmp	r3, #9
 4900 0048 22D0     		beq	.L321
 4901 004a 7B68     		ldr	r3, [r7, #4]
 4902 004c 0A2B     		cmp	r3, #10
 4903 004e 1FD0     		beq	.L321
 4904 0050 7B68     		ldr	r3, [r7, #4]
 4905 0052 0B2B     		cmp	r3, #11
 4906 0054 1CD0     		beq	.L321
 4907 0056 7B68     		ldr	r3, [r7, #4]
 4908 0058 0C2B     		cmp	r3, #12
 4909 005a 19D0     		beq	.L321
 4910 005c 7B68     		ldr	r3, [r7, #4]
 4911 005e 0D2B     		cmp	r3, #13
 4912 0060 16D0     		beq	.L321
 4913 0062 7B68     		ldr	r3, [r7, #4]
 4914 0064 0E2B     		cmp	r3, #14
 4915 0066 13D0     		beq	.L321
 4916 0068 7B68     		ldr	r3, [r7, #4]
 4917 006a 0F2B     		cmp	r3, #15
 4918 006c 10D0     		beq	.L321
 4919 006e 7B68     		ldr	r3, [r7, #4]
 4920 0070 102B     		cmp	r3, #16
 4921 0072 0DD0     		beq	.L321
 4922 0074 7B68     		ldr	r3, [r7, #4]
 4923 0076 112B     		cmp	r3, #17
 4924 0078 0AD0     		beq	.L321
 4925 007a 7B68     		ldr	r3, [r7, #4]
 4926 007c 122B     		cmp	r3, #18
 4927 007e 07D0     		beq	.L321
 4928 0080 7B68     		ldr	r3, [r7, #4]
 4929 0082 132B     		cmp	r3, #19
 4930 0084 04D0     		beq	.L321
 4931 0086 0948     		ldr	r0, .L322
 4932 0088 40F6E901 		movw	r1, #2281
 4933 008c FFF7FEFF 		bl	assert_failed
 4934              	.L321:
2282:App/STM32F4-Discovery/Libraries/STM32F4xx_StdPeriph_Driver/src/stm32f4xx_rtc.c **** 
2283:App/STM32F4-Discovery/Libraries/STM32F4xx_StdPeriph_Driver/src/stm32f4xx_rtc.c ****   tmp = RTC_BASE + 0x50;
 4935              		.loc 1 2283 0 is_stmt 1
 4936 0090 074B     		ldr	r3, .L322+4
 4937 0092 FB60     		str	r3, [r7, #12]
2284:App/STM32F4-Discovery/Libraries/STM32F4xx_StdPeriph_Driver/src/stm32f4xx_rtc.c ****   tmp += (RTC_BKP_DR * 4);
 4938              		.loc 1 2284 0
 4939 0094 7B68     		ldr	r3, [r7, #4]
 4940 0096 9A00     		lsls	r2, r3, #2
 4941 0098 FB68     		ldr	r3, [r7, #12]
 4942 009a 1344     		add	r3, r3, r2
 4943 009c FB60     		str	r3, [r7, #12]
2285:App/STM32F4-Discovery/Libraries/STM32F4xx_StdPeriph_Driver/src/stm32f4xx_rtc.c **** 
2286:App/STM32F4-Discovery/Libraries/STM32F4xx_StdPeriph_Driver/src/stm32f4xx_rtc.c ****   /* Write the specified register */
2287:App/STM32F4-Discovery/Libraries/STM32F4xx_StdPeriph_Driver/src/stm32f4xx_rtc.c ****   *(__IO uint32_t *)tmp = (uint32_t)Data;
 4944              		.loc 1 2287 0
 4945 009e FB68     		ldr	r3, [r7, #12]
 4946 00a0 3A68     		ldr	r2, [r7]
 4947 00a2 1A60     		str	r2, [r3]
2288:App/STM32F4-Discovery/Libraries/STM32F4xx_StdPeriph_Driver/src/stm32f4xx_rtc.c **** }
 4948              		.loc 1 2288 0
 4949 00a4 1037     		adds	r7, r7, #16
 4950 00a6 BD46     		mov	sp, r7
 4951              		@ sp needed
 4952 00a8 80BD     		pop	{r7, pc}
 4953              	.L323:
 4954 00aa 00BF     		.align	2
 4955              	.L322:
 4956 00ac 00000000 		.word	.LC0
 4957 00b0 50280040 		.word	1073752144
 4958              		.cfi_endproc
 4959              	.LFE154:
 4961              		.section	.text.RTC_ReadBackupRegister,"ax",%progbits
 4962              		.align	2
 4963              		.global	RTC_ReadBackupRegister
 4964              		.thumb
 4965              		.thumb_func
 4967              	RTC_ReadBackupRegister:
 4968              	.LFB155:
2289:App/STM32F4-Discovery/Libraries/STM32F4xx_StdPeriph_Driver/src/stm32f4xx_rtc.c **** 
2290:App/STM32F4-Discovery/Libraries/STM32F4xx_StdPeriph_Driver/src/stm32f4xx_rtc.c **** /**
2291:App/STM32F4-Discovery/Libraries/STM32F4xx_StdPeriph_Driver/src/stm32f4xx_rtc.c ****   * @brief  Reads data from the specified RTC Backup data Register.
2292:App/STM32F4-Discovery/Libraries/STM32F4xx_StdPeriph_Driver/src/stm32f4xx_rtc.c ****   * @param  RTC_BKP_DR: RTC Backup data Register number.
2293:App/STM32F4-Discovery/Libraries/STM32F4xx_StdPeriph_Driver/src/stm32f4xx_rtc.c ****   *          This parameter can be: RTC_BKP_DRx where x can be from 0 to 19 to 
2294:App/STM32F4-Discovery/Libraries/STM32F4xx_StdPeriph_Driver/src/stm32f4xx_rtc.c ****   *                          specify the register.                   
2295:App/STM32F4-Discovery/Libraries/STM32F4xx_StdPeriph_Driver/src/stm32f4xx_rtc.c ****   * @retval None
2296:App/STM32F4-Discovery/Libraries/STM32F4xx_StdPeriph_Driver/src/stm32f4xx_rtc.c ****   */
2297:App/STM32F4-Discovery/Libraries/STM32F4xx_StdPeriph_Driver/src/stm32f4xx_rtc.c **** uint32_t RTC_ReadBackupRegister(uint32_t RTC_BKP_DR)
2298:App/STM32F4-Discovery/Libraries/STM32F4xx_StdPeriph_Driver/src/stm32f4xx_rtc.c **** {
 4969              		.loc 1 2298 0
 4970              		.cfi_startproc
 4971              		@ args = 0, pretend = 0, frame = 16
 4972              		@ frame_needed = 1, uses_anonymous_args = 0
 4973 0000 80B5     		push	{r7, lr}
 4974              	.LCFI131:
 4975              		.cfi_def_cfa_offset 8
 4976              		.cfi_offset 7, -8
 4977              		.cfi_offset 14, -4
 4978 0002 84B0     		sub	sp, sp, #16
 4979              	.LCFI132:
 4980              		.cfi_def_cfa_offset 24
 4981 0004 00AF     		add	r7, sp, #0
 4982              	.LCFI133:
 4983              		.cfi_def_cfa_register 7
 4984 0006 7860     		str	r0, [r7, #4]
2299:App/STM32F4-Discovery/Libraries/STM32F4xx_StdPeriph_Driver/src/stm32f4xx_rtc.c ****   __IO uint32_t tmp = 0;
 4985              		.loc 1 2299 0
 4986 0008 0023     		movs	r3, #0
 4987 000a FB60     		str	r3, [r7, #12]
2300:App/STM32F4-Discovery/Libraries/STM32F4xx_StdPeriph_Driver/src/stm32f4xx_rtc.c ****   
2301:App/STM32F4-Discovery/Libraries/STM32F4xx_StdPeriph_Driver/src/stm32f4xx_rtc.c ****   /* Check the parameters */
2302:App/STM32F4-Discovery/Libraries/STM32F4xx_StdPeriph_Driver/src/stm32f4xx_rtc.c ****   assert_param(IS_RTC_BKP(RTC_BKP_DR));
 4988              		.loc 1 2302 0
 4989 000c 7B68     		ldr	r3, [r7, #4]
 4990 000e 002B     		cmp	r3, #0
 4991 0010 3DD0     		beq	.L325
 4992              		.loc 1 2302 0 is_stmt 0 discriminator 1
 4993 0012 7B68     		ldr	r3, [r7, #4]
 4994 0014 012B     		cmp	r3, #1
 4995 0016 3AD0     		beq	.L325
 4996 0018 7B68     		ldr	r3, [r7, #4]
 4997 001a 022B     		cmp	r3, #2
 4998 001c 37D0     		beq	.L325
 4999 001e 7B68     		ldr	r3, [r7, #4]
 5000 0020 032B     		cmp	r3, #3
 5001 0022 34D0     		beq	.L325
 5002 0024 7B68     		ldr	r3, [r7, #4]
 5003 0026 042B     		cmp	r3, #4
 5004 0028 31D0     		beq	.L325
 5005 002a 7B68     		ldr	r3, [r7, #4]
 5006 002c 052B     		cmp	r3, #5
 5007 002e 2ED0     		beq	.L325
 5008 0030 7B68     		ldr	r3, [r7, #4]
 5009 0032 062B     		cmp	r3, #6
 5010 0034 2BD0     		beq	.L325
 5011 0036 7B68     		ldr	r3, [r7, #4]
 5012 0038 072B     		cmp	r3, #7
 5013 003a 28D0     		beq	.L325
 5014 003c 7B68     		ldr	r3, [r7, #4]
 5015 003e 082B     		cmp	r3, #8
 5016 0040 25D0     		beq	.L325
 5017 0042 7B68     		ldr	r3, [r7, #4]
 5018 0044 092B     		cmp	r3, #9
 5019 0046 22D0     		beq	.L325
 5020 0048 7B68     		ldr	r3, [r7, #4]
 5021 004a 0A2B     		cmp	r3, #10
 5022 004c 1FD0     		beq	.L325
 5023 004e 7B68     		ldr	r3, [r7, #4]
 5024 0050 0B2B     		cmp	r3, #11
 5025 0052 1CD0     		beq	.L325
 5026 0054 7B68     		ldr	r3, [r7, #4]
 5027 0056 0C2B     		cmp	r3, #12
 5028 0058 19D0     		beq	.L325
 5029 005a 7B68     		ldr	r3, [r7, #4]
 5030 005c 0D2B     		cmp	r3, #13
 5031 005e 16D0     		beq	.L325
 5032 0060 7B68     		ldr	r3, [r7, #4]
 5033 0062 0E2B     		cmp	r3, #14
 5034 0064 13D0     		beq	.L325
 5035 0066 7B68     		ldr	r3, [r7, #4]
 5036 0068 0F2B     		cmp	r3, #15
 5037 006a 10D0     		beq	.L325
 5038 006c 7B68     		ldr	r3, [r7, #4]
 5039 006e 102B     		cmp	r3, #16
 5040 0070 0DD0     		beq	.L325
 5041 0072 7B68     		ldr	r3, [r7, #4]
 5042 0074 112B     		cmp	r3, #17
 5043 0076 0AD0     		beq	.L325
 5044 0078 7B68     		ldr	r3, [r7, #4]
 5045 007a 122B     		cmp	r3, #18
 5046 007c 07D0     		beq	.L325
 5047 007e 7B68     		ldr	r3, [r7, #4]
 5048 0080 132B     		cmp	r3, #19
 5049 0082 04D0     		beq	.L325
 5050 0084 0848     		ldr	r0, .L327
 5051 0086 40F6FE01 		movw	r1, #2302
 5052 008a FFF7FEFF 		bl	assert_failed
 5053              	.L325:
2303:App/STM32F4-Discovery/Libraries/STM32F4xx_StdPeriph_Driver/src/stm32f4xx_rtc.c **** 
2304:App/STM32F4-Discovery/Libraries/STM32F4xx_StdPeriph_Driver/src/stm32f4xx_rtc.c ****   tmp = RTC_BASE + 0x50;
 5054              		.loc 1 2304 0 is_stmt 1
 5055 008e 074B     		ldr	r3, .L327+4
 5056 0090 FB60     		str	r3, [r7, #12]
2305:App/STM32F4-Discovery/Libraries/STM32F4xx_StdPeriph_Driver/src/stm32f4xx_rtc.c ****   tmp += (RTC_BKP_DR * 4);
 5057              		.loc 1 2305 0
 5058 0092 7B68     		ldr	r3, [r7, #4]
 5059 0094 9A00     		lsls	r2, r3, #2
 5060 0096 FB68     		ldr	r3, [r7, #12]
 5061 0098 1344     		add	r3, r3, r2
 5062 009a FB60     		str	r3, [r7, #12]
2306:App/STM32F4-Discovery/Libraries/STM32F4xx_StdPeriph_Driver/src/stm32f4xx_rtc.c ****   
2307:App/STM32F4-Discovery/Libraries/STM32F4xx_StdPeriph_Driver/src/stm32f4xx_rtc.c ****   /* Read the specified register */
2308:App/STM32F4-Discovery/Libraries/STM32F4xx_StdPeriph_Driver/src/stm32f4xx_rtc.c ****   return (*(__IO uint32_t *)tmp);
 5063              		.loc 1 2308 0
 5064 009c FB68     		ldr	r3, [r7, #12]
 5065 009e 1B68     		ldr	r3, [r3]
2309:App/STM32F4-Discovery/Libraries/STM32F4xx_StdPeriph_Driver/src/stm32f4xx_rtc.c **** }
 5066              		.loc 1 2309 0
 5067 00a0 1846     		mov	r0, r3
 5068 00a2 1037     		adds	r7, r7, #16
 5069 00a4 BD46     		mov	sp, r7
 5070              		@ sp needed
 5071 00a6 80BD     		pop	{r7, pc}
 5072              	.L328:
 5073              		.align	2
 5074              	.L327:
 5075 00a8 00000000 		.word	.LC0
 5076 00ac 50280040 		.word	1073752144
 5077              		.cfi_endproc
 5078              	.LFE155:
 5080              		.section	.text.RTC_TamperPinSelection,"ax",%progbits
 5081              		.align	2
 5082              		.global	RTC_TamperPinSelection
 5083              		.thumb
 5084              		.thumb_func
 5086              	RTC_TamperPinSelection:
 5087              	.LFB156:
2310:App/STM32F4-Discovery/Libraries/STM32F4xx_StdPeriph_Driver/src/stm32f4xx_rtc.c **** 
2311:App/STM32F4-Discovery/Libraries/STM32F4xx_StdPeriph_Driver/src/stm32f4xx_rtc.c **** /**
2312:App/STM32F4-Discovery/Libraries/STM32F4xx_StdPeriph_Driver/src/stm32f4xx_rtc.c ****   * @}
2313:App/STM32F4-Discovery/Libraries/STM32F4xx_StdPeriph_Driver/src/stm32f4xx_rtc.c ****   */
2314:App/STM32F4-Discovery/Libraries/STM32F4xx_StdPeriph_Driver/src/stm32f4xx_rtc.c **** 
2315:App/STM32F4-Discovery/Libraries/STM32F4xx_StdPeriph_Driver/src/stm32f4xx_rtc.c **** /** @defgroup RTC_Group11 RTC Tamper and TimeStamp Pins Selection and Output Type Config configurat
2316:App/STM32F4-Discovery/Libraries/STM32F4xx_StdPeriph_Driver/src/stm32f4xx_rtc.c ****  *  @brief   RTC Tamper and TimeStamp Pins Selection and Output Type Config 
2317:App/STM32F4-Discovery/Libraries/STM32F4xx_StdPeriph_Driver/src/stm32f4xx_rtc.c ****  *           configuration functions  
2318:App/STM32F4-Discovery/Libraries/STM32F4xx_StdPeriph_Driver/src/stm32f4xx_rtc.c ****  *
2319:App/STM32F4-Discovery/Libraries/STM32F4xx_StdPeriph_Driver/src/stm32f4xx_rtc.c **** @verbatim   
2320:App/STM32F4-Discovery/Libraries/STM32F4xx_StdPeriph_Driver/src/stm32f4xx_rtc.c ****  ===============================================================================
2321:App/STM32F4-Discovery/Libraries/STM32F4xx_StdPeriph_Driver/src/stm32f4xx_rtc.c ****   RTC Tamper and TimeStamp Pins Selection and Output Type Config configuration 
2322:App/STM32F4-Discovery/Libraries/STM32F4xx_StdPeriph_Driver/src/stm32f4xx_rtc.c ****   functions 
2323:App/STM32F4-Discovery/Libraries/STM32F4xx_StdPeriph_Driver/src/stm32f4xx_rtc.c ****  ===============================================================================  
2324:App/STM32F4-Discovery/Libraries/STM32F4xx_StdPeriph_Driver/src/stm32f4xx_rtc.c **** 
2325:App/STM32F4-Discovery/Libraries/STM32F4xx_StdPeriph_Driver/src/stm32f4xx_rtc.c **** @endverbatim
2326:App/STM32F4-Discovery/Libraries/STM32F4xx_StdPeriph_Driver/src/stm32f4xx_rtc.c ****   * @{
2327:App/STM32F4-Discovery/Libraries/STM32F4xx_StdPeriph_Driver/src/stm32f4xx_rtc.c ****   */
2328:App/STM32F4-Discovery/Libraries/STM32F4xx_StdPeriph_Driver/src/stm32f4xx_rtc.c **** 
2329:App/STM32F4-Discovery/Libraries/STM32F4xx_StdPeriph_Driver/src/stm32f4xx_rtc.c **** /**
2330:App/STM32F4-Discovery/Libraries/STM32F4xx_StdPeriph_Driver/src/stm32f4xx_rtc.c ****   * @brief  Selects the RTC Tamper Pin.
2331:App/STM32F4-Discovery/Libraries/STM32F4xx_StdPeriph_Driver/src/stm32f4xx_rtc.c ****   * @param  RTC_TamperPin: specifies the RTC Tamper Pin.
2332:App/STM32F4-Discovery/Libraries/STM32F4xx_StdPeriph_Driver/src/stm32f4xx_rtc.c ****   *          This parameter can be one of the following values:
2333:App/STM32F4-Discovery/Libraries/STM32F4xx_StdPeriph_Driver/src/stm32f4xx_rtc.c ****   *            @arg RTC_TamperPin_PC13: PC13 is selected as RTC Tamper Pin.
2334:App/STM32F4-Discovery/Libraries/STM32F4xx_StdPeriph_Driver/src/stm32f4xx_rtc.c ****   *            @arg RTC_TamperPin_PI8: PI8 is selected as RTC Tamper Pin.    
2335:App/STM32F4-Discovery/Libraries/STM32F4xx_StdPeriph_Driver/src/stm32f4xx_rtc.c ****   * @retval None
2336:App/STM32F4-Discovery/Libraries/STM32F4xx_StdPeriph_Driver/src/stm32f4xx_rtc.c ****   */
2337:App/STM32F4-Discovery/Libraries/STM32F4xx_StdPeriph_Driver/src/stm32f4xx_rtc.c **** void RTC_TamperPinSelection(uint32_t RTC_TamperPin)
2338:App/STM32F4-Discovery/Libraries/STM32F4xx_StdPeriph_Driver/src/stm32f4xx_rtc.c **** {
 5088              		.loc 1 2338 0
 5089              		.cfi_startproc
 5090              		@ args = 0, pretend = 0, frame = 8
 5091              		@ frame_needed = 1, uses_anonymous_args = 0
 5092 0000 80B5     		push	{r7, lr}
 5093              	.LCFI134:
 5094              		.cfi_def_cfa_offset 8
 5095              		.cfi_offset 7, -8
 5096              		.cfi_offset 14, -4
 5097 0002 82B0     		sub	sp, sp, #8
 5098              	.LCFI135:
 5099              		.cfi_def_cfa_offset 16
 5100 0004 00AF     		add	r7, sp, #0
 5101              	.LCFI136:
 5102              		.cfi_def_cfa_register 7
 5103 0006 7860     		str	r0, [r7, #4]
2339:App/STM32F4-Discovery/Libraries/STM32F4xx_StdPeriph_Driver/src/stm32f4xx_rtc.c ****   /* Check the parameters */
2340:App/STM32F4-Discovery/Libraries/STM32F4xx_StdPeriph_Driver/src/stm32f4xx_rtc.c ****   assert_param(IS_RTC_TAMPER_PIN(RTC_TamperPin));
 5104              		.loc 1 2340 0
 5105 0008 7B68     		ldr	r3, [r7, #4]
 5106 000a 002B     		cmp	r3, #0
 5107 000c 08D0     		beq	.L330
 5108              		.loc 1 2340 0 is_stmt 0 discriminator 1
 5109 000e 7B68     		ldr	r3, [r7, #4]
 5110 0010 B3F5803F 		cmp	r3, #65536
 5111 0014 04D0     		beq	.L330
 5112 0016 0A48     		ldr	r0, .L331
 5113 0018 40F62411 		movw	r1, #2340
 5114 001c FFF7FEFF 		bl	assert_failed
 5115              	.L330:
2341:App/STM32F4-Discovery/Libraries/STM32F4xx_StdPeriph_Driver/src/stm32f4xx_rtc.c ****   
2342:App/STM32F4-Discovery/Libraries/STM32F4xx_StdPeriph_Driver/src/stm32f4xx_rtc.c ****   RTC->TAFCR &= (uint32_t)~(RTC_TAFCR_TAMPINSEL);
 5116              		.loc 1 2342 0 is_stmt 1
 5117 0020 084B     		ldr	r3, .L331+4
 5118 0022 084A     		ldr	r2, .L331+4
 5119 0024 126C     		ldr	r2, [r2, #64]
 5120 0026 22F48032 		bic	r2, r2, #65536
 5121 002a 1A64     		str	r2, [r3, #64]
2343:App/STM32F4-Discovery/Libraries/STM32F4xx_StdPeriph_Driver/src/stm32f4xx_rtc.c ****   RTC->TAFCR |= (uint32_t)(RTC_TamperPin);  
 5122              		.loc 1 2343 0
 5123 002c 054B     		ldr	r3, .L331+4
 5124 002e 054A     		ldr	r2, .L331+4
 5125 0030 116C     		ldr	r1, [r2, #64]
 5126 0032 7A68     		ldr	r2, [r7, #4]
 5127 0034 0A43     		orrs	r2, r2, r1
 5128 0036 1A64     		str	r2, [r3, #64]
2344:App/STM32F4-Discovery/Libraries/STM32F4xx_StdPeriph_Driver/src/stm32f4xx_rtc.c **** }
 5129              		.loc 1 2344 0
 5130 0038 0837     		adds	r7, r7, #8
 5131 003a BD46     		mov	sp, r7
 5132              		@ sp needed
 5133 003c 80BD     		pop	{r7, pc}
 5134              	.L332:
 5135 003e 00BF     		.align	2
 5136              	.L331:
 5137 0040 00000000 		.word	.LC0
 5138 0044 00280040 		.word	1073752064
 5139              		.cfi_endproc
 5140              	.LFE156:
 5142              		.section	.text.RTC_TimeStampPinSelection,"ax",%progbits
 5143              		.align	2
 5144              		.global	RTC_TimeStampPinSelection
 5145              		.thumb
 5146              		.thumb_func
 5148              	RTC_TimeStampPinSelection:
 5149              	.LFB157:
2345:App/STM32F4-Discovery/Libraries/STM32F4xx_StdPeriph_Driver/src/stm32f4xx_rtc.c **** 
2346:App/STM32F4-Discovery/Libraries/STM32F4xx_StdPeriph_Driver/src/stm32f4xx_rtc.c **** /**
2347:App/STM32F4-Discovery/Libraries/STM32F4xx_StdPeriph_Driver/src/stm32f4xx_rtc.c ****   * @brief  Selects the RTC TimeStamp Pin.
2348:App/STM32F4-Discovery/Libraries/STM32F4xx_StdPeriph_Driver/src/stm32f4xx_rtc.c ****   * @param  RTC_TimeStampPin: specifies the RTC TimeStamp Pin.
2349:App/STM32F4-Discovery/Libraries/STM32F4xx_StdPeriph_Driver/src/stm32f4xx_rtc.c ****   *          This parameter can be one of the following values:
2350:App/STM32F4-Discovery/Libraries/STM32F4xx_StdPeriph_Driver/src/stm32f4xx_rtc.c ****   *            @arg RTC_TimeStampPin_PC13: PC13 is selected as RTC TimeStamp Pin.
2351:App/STM32F4-Discovery/Libraries/STM32F4xx_StdPeriph_Driver/src/stm32f4xx_rtc.c ****   *            @arg RTC_TimeStampPin_PI8: PI8 is selected as RTC TimeStamp Pin.    
2352:App/STM32F4-Discovery/Libraries/STM32F4xx_StdPeriph_Driver/src/stm32f4xx_rtc.c ****   * @retval None
2353:App/STM32F4-Discovery/Libraries/STM32F4xx_StdPeriph_Driver/src/stm32f4xx_rtc.c ****   */
2354:App/STM32F4-Discovery/Libraries/STM32F4xx_StdPeriph_Driver/src/stm32f4xx_rtc.c **** void RTC_TimeStampPinSelection(uint32_t RTC_TimeStampPin)
2355:App/STM32F4-Discovery/Libraries/STM32F4xx_StdPeriph_Driver/src/stm32f4xx_rtc.c **** {
 5150              		.loc 1 2355 0
 5151              		.cfi_startproc
 5152              		@ args = 0, pretend = 0, frame = 8
 5153              		@ frame_needed = 1, uses_anonymous_args = 0
 5154 0000 80B5     		push	{r7, lr}
 5155              	.LCFI137:
 5156              		.cfi_def_cfa_offset 8
 5157              		.cfi_offset 7, -8
 5158              		.cfi_offset 14, -4
 5159 0002 82B0     		sub	sp, sp, #8
 5160              	.LCFI138:
 5161              		.cfi_def_cfa_offset 16
 5162 0004 00AF     		add	r7, sp, #0
 5163              	.LCFI139:
 5164              		.cfi_def_cfa_register 7
 5165 0006 7860     		str	r0, [r7, #4]
2356:App/STM32F4-Discovery/Libraries/STM32F4xx_StdPeriph_Driver/src/stm32f4xx_rtc.c ****   /* Check the parameters */
2357:App/STM32F4-Discovery/Libraries/STM32F4xx_StdPeriph_Driver/src/stm32f4xx_rtc.c ****   assert_param(IS_RTC_TIMESTAMP_PIN(RTC_TimeStampPin));
 5166              		.loc 1 2357 0
 5167 0008 7B68     		ldr	r3, [r7, #4]
 5168 000a 002B     		cmp	r3, #0
 5169 000c 08D0     		beq	.L334
 5170              		.loc 1 2357 0 is_stmt 0 discriminator 1
 5171 000e 7B68     		ldr	r3, [r7, #4]
 5172 0010 B3F5003F 		cmp	r3, #131072
 5173 0014 04D0     		beq	.L334
 5174 0016 0A48     		ldr	r0, .L335
 5175 0018 40F63511 		movw	r1, #2357
 5176 001c FFF7FEFF 		bl	assert_failed
 5177              	.L334:
2358:App/STM32F4-Discovery/Libraries/STM32F4xx_StdPeriph_Driver/src/stm32f4xx_rtc.c ****   
2359:App/STM32F4-Discovery/Libraries/STM32F4xx_StdPeriph_Driver/src/stm32f4xx_rtc.c ****   RTC->TAFCR &= (uint32_t)~(RTC_TAFCR_TSINSEL);
 5178              		.loc 1 2359 0 is_stmt 1
 5179 0020 084B     		ldr	r3, .L335+4
 5180 0022 084A     		ldr	r2, .L335+4
 5181 0024 126C     		ldr	r2, [r2, #64]
 5182 0026 22F40032 		bic	r2, r2, #131072
 5183 002a 1A64     		str	r2, [r3, #64]
2360:App/STM32F4-Discovery/Libraries/STM32F4xx_StdPeriph_Driver/src/stm32f4xx_rtc.c ****   RTC->TAFCR |= (uint32_t)(RTC_TimeStampPin);  
 5184              		.loc 1 2360 0
 5185 002c 054B     		ldr	r3, .L335+4
 5186 002e 054A     		ldr	r2, .L335+4
 5187 0030 116C     		ldr	r1, [r2, #64]
 5188 0032 7A68     		ldr	r2, [r7, #4]
 5189 0034 0A43     		orrs	r2, r2, r1
 5190 0036 1A64     		str	r2, [r3, #64]
2361:App/STM32F4-Discovery/Libraries/STM32F4xx_StdPeriph_Driver/src/stm32f4xx_rtc.c **** }
 5191              		.loc 1 2361 0
 5192 0038 0837     		adds	r7, r7, #8
 5193 003a BD46     		mov	sp, r7
 5194              		@ sp needed
 5195 003c 80BD     		pop	{r7, pc}
 5196              	.L336:
 5197 003e 00BF     		.align	2
 5198              	.L335:
 5199 0040 00000000 		.word	.LC0
 5200 0044 00280040 		.word	1073752064
 5201              		.cfi_endproc
 5202              	.LFE157:
 5204              		.section	.text.RTC_OutputTypeConfig,"ax",%progbits
 5205              		.align	2
 5206              		.global	RTC_OutputTypeConfig
 5207              		.thumb
 5208              		.thumb_func
 5210              	RTC_OutputTypeConfig:
 5211              	.LFB158:
2362:App/STM32F4-Discovery/Libraries/STM32F4xx_StdPeriph_Driver/src/stm32f4xx_rtc.c **** 
2363:App/STM32F4-Discovery/Libraries/STM32F4xx_StdPeriph_Driver/src/stm32f4xx_rtc.c **** /**
2364:App/STM32F4-Discovery/Libraries/STM32F4xx_StdPeriph_Driver/src/stm32f4xx_rtc.c ****   * @brief  Configures the RTC Output Pin mode. 
2365:App/STM32F4-Discovery/Libraries/STM32F4xx_StdPeriph_Driver/src/stm32f4xx_rtc.c ****   * @param  RTC_OutputType: specifies the RTC Output (PC13) pin mode.
2366:App/STM32F4-Discovery/Libraries/STM32F4xx_StdPeriph_Driver/src/stm32f4xx_rtc.c ****   *          This parameter can be one of the following values:
2367:App/STM32F4-Discovery/Libraries/STM32F4xx_StdPeriph_Driver/src/stm32f4xx_rtc.c ****   *            @arg RTC_OutputType_OpenDrain: RTC Output (PC13) is configured in 
2368:App/STM32F4-Discovery/Libraries/STM32F4xx_StdPeriph_Driver/src/stm32f4xx_rtc.c ****   *                                    Open Drain mode.
2369:App/STM32F4-Discovery/Libraries/STM32F4xx_StdPeriph_Driver/src/stm32f4xx_rtc.c ****   *            @arg RTC_OutputType_PushPull:  RTC Output (PC13) is configured in 
2370:App/STM32F4-Discovery/Libraries/STM32F4xx_StdPeriph_Driver/src/stm32f4xx_rtc.c ****   *                                    Push Pull mode.    
2371:App/STM32F4-Discovery/Libraries/STM32F4xx_StdPeriph_Driver/src/stm32f4xx_rtc.c ****   * @retval None
2372:App/STM32F4-Discovery/Libraries/STM32F4xx_StdPeriph_Driver/src/stm32f4xx_rtc.c ****   */
2373:App/STM32F4-Discovery/Libraries/STM32F4xx_StdPeriph_Driver/src/stm32f4xx_rtc.c **** void RTC_OutputTypeConfig(uint32_t RTC_OutputType)
2374:App/STM32F4-Discovery/Libraries/STM32F4xx_StdPeriph_Driver/src/stm32f4xx_rtc.c **** {
 5212              		.loc 1 2374 0
 5213              		.cfi_startproc
 5214              		@ args = 0, pretend = 0, frame = 8
 5215              		@ frame_needed = 1, uses_anonymous_args = 0
 5216 0000 80B5     		push	{r7, lr}
 5217              	.LCFI140:
 5218              		.cfi_def_cfa_offset 8
 5219              		.cfi_offset 7, -8
 5220              		.cfi_offset 14, -4
 5221 0002 82B0     		sub	sp, sp, #8
 5222              	.LCFI141:
 5223              		.cfi_def_cfa_offset 16
 5224 0004 00AF     		add	r7, sp, #0
 5225              	.LCFI142:
 5226              		.cfi_def_cfa_register 7
 5227 0006 7860     		str	r0, [r7, #4]
2375:App/STM32F4-Discovery/Libraries/STM32F4xx_StdPeriph_Driver/src/stm32f4xx_rtc.c ****   /* Check the parameters */
2376:App/STM32F4-Discovery/Libraries/STM32F4xx_StdPeriph_Driver/src/stm32f4xx_rtc.c ****   assert_param(IS_RTC_OUTPUT_TYPE(RTC_OutputType));
 5228              		.loc 1 2376 0
 5229 0008 7B68     		ldr	r3, [r7, #4]
 5230 000a 002B     		cmp	r3, #0
 5231 000c 08D0     		beq	.L338
 5232              		.loc 1 2376 0 is_stmt 0 discriminator 1
 5233 000e 7B68     		ldr	r3, [r7, #4]
 5234 0010 B3F5802F 		cmp	r3, #262144
 5235 0014 04D0     		beq	.L338
 5236 0016 0A48     		ldr	r0, .L339
 5237 0018 40F64811 		movw	r1, #2376
 5238 001c FFF7FEFF 		bl	assert_failed
 5239              	.L338:
2377:App/STM32F4-Discovery/Libraries/STM32F4xx_StdPeriph_Driver/src/stm32f4xx_rtc.c ****   
2378:App/STM32F4-Discovery/Libraries/STM32F4xx_StdPeriph_Driver/src/stm32f4xx_rtc.c ****   RTC->TAFCR &= (uint32_t)~(RTC_TAFCR_ALARMOUTTYPE);
 5240              		.loc 1 2378 0 is_stmt 1
 5241 0020 084B     		ldr	r3, .L339+4
 5242 0022 084A     		ldr	r2, .L339+4
 5243 0024 126C     		ldr	r2, [r2, #64]
 5244 0026 22F48022 		bic	r2, r2, #262144
 5245 002a 1A64     		str	r2, [r3, #64]
2379:App/STM32F4-Discovery/Libraries/STM32F4xx_StdPeriph_Driver/src/stm32f4xx_rtc.c ****   RTC->TAFCR |= (uint32_t)(RTC_OutputType);  
 5246              		.loc 1 2379 0
 5247 002c 054B     		ldr	r3, .L339+4
 5248 002e 054A     		ldr	r2, .L339+4
 5249 0030 116C     		ldr	r1, [r2, #64]
 5250 0032 7A68     		ldr	r2, [r7, #4]
 5251 0034 0A43     		orrs	r2, r2, r1
 5252 0036 1A64     		str	r2, [r3, #64]
2380:App/STM32F4-Discovery/Libraries/STM32F4xx_StdPeriph_Driver/src/stm32f4xx_rtc.c **** }
 5253              		.loc 1 2380 0
 5254 0038 0837     		adds	r7, r7, #8
 5255 003a BD46     		mov	sp, r7
 5256              		@ sp needed
 5257 003c 80BD     		pop	{r7, pc}
 5258              	.L340:
 5259 003e 00BF     		.align	2
 5260              	.L339:
 5261 0040 00000000 		.word	.LC0
 5262 0044 00280040 		.word	1073752064
 5263              		.cfi_endproc
 5264              	.LFE158:
 5266              		.section	.text.RTC_SynchroShiftConfig,"ax",%progbits
 5267              		.align	2
 5268              		.global	RTC_SynchroShiftConfig
 5269              		.thumb
 5270              		.thumb_func
 5272              	RTC_SynchroShiftConfig:
 5273              	.LFB159:
2381:App/STM32F4-Discovery/Libraries/STM32F4xx_StdPeriph_Driver/src/stm32f4xx_rtc.c **** 
2382:App/STM32F4-Discovery/Libraries/STM32F4xx_StdPeriph_Driver/src/stm32f4xx_rtc.c **** /**
2383:App/STM32F4-Discovery/Libraries/STM32F4xx_StdPeriph_Driver/src/stm32f4xx_rtc.c ****   * @}
2384:App/STM32F4-Discovery/Libraries/STM32F4xx_StdPeriph_Driver/src/stm32f4xx_rtc.c ****   */
2385:App/STM32F4-Discovery/Libraries/STM32F4xx_StdPeriph_Driver/src/stm32f4xx_rtc.c **** 
2386:App/STM32F4-Discovery/Libraries/STM32F4xx_StdPeriph_Driver/src/stm32f4xx_rtc.c **** /** @defgroup RTC_Group12 Shift control synchronisation functions
2387:App/STM32F4-Discovery/Libraries/STM32F4xx_StdPeriph_Driver/src/stm32f4xx_rtc.c ****  *  @brief   Shift control synchronisation functions 
2388:App/STM32F4-Discovery/Libraries/STM32F4xx_StdPeriph_Driver/src/stm32f4xx_rtc.c ****  *
2389:App/STM32F4-Discovery/Libraries/STM32F4xx_StdPeriph_Driver/src/stm32f4xx_rtc.c **** @verbatim   
2390:App/STM32F4-Discovery/Libraries/STM32F4xx_StdPeriph_Driver/src/stm32f4xx_rtc.c ****  ===============================================================================
2391:App/STM32F4-Discovery/Libraries/STM32F4xx_StdPeriph_Driver/src/stm32f4xx_rtc.c ****                    Shift control synchronisation functions
2392:App/STM32F4-Discovery/Libraries/STM32F4xx_StdPeriph_Driver/src/stm32f4xx_rtc.c ****  ===============================================================================  
2393:App/STM32F4-Discovery/Libraries/STM32F4xx_StdPeriph_Driver/src/stm32f4xx_rtc.c **** 
2394:App/STM32F4-Discovery/Libraries/STM32F4xx_StdPeriph_Driver/src/stm32f4xx_rtc.c **** @endverbatim
2395:App/STM32F4-Discovery/Libraries/STM32F4xx_StdPeriph_Driver/src/stm32f4xx_rtc.c ****   * @{
2396:App/STM32F4-Discovery/Libraries/STM32F4xx_StdPeriph_Driver/src/stm32f4xx_rtc.c ****   */
2397:App/STM32F4-Discovery/Libraries/STM32F4xx_StdPeriph_Driver/src/stm32f4xx_rtc.c **** 
2398:App/STM32F4-Discovery/Libraries/STM32F4xx_StdPeriph_Driver/src/stm32f4xx_rtc.c **** /**
2399:App/STM32F4-Discovery/Libraries/STM32F4xx_StdPeriph_Driver/src/stm32f4xx_rtc.c ****   * @brief  Configures the Synchronization Shift Control Settings.
2400:App/STM32F4-Discovery/Libraries/STM32F4xx_StdPeriph_Driver/src/stm32f4xx_rtc.c ****   * @note   When REFCKON is set, firmware must not write to Shift control register 
2401:App/STM32F4-Discovery/Libraries/STM32F4xx_StdPeriph_Driver/src/stm32f4xx_rtc.c ****   * @param  RTC_ShiftAdd1S : Select to add or not 1 second to the time Calendar.
2402:App/STM32F4-Discovery/Libraries/STM32F4xx_StdPeriph_Driver/src/stm32f4xx_rtc.c ****   *   This parameter can be one of the following values :
2403:App/STM32F4-Discovery/Libraries/STM32F4xx_StdPeriph_Driver/src/stm32f4xx_rtc.c ****   *     @arg RTC_ShiftAdd1S_Set  : Add one second to the clock calendar. 
2404:App/STM32F4-Discovery/Libraries/STM32F4xx_StdPeriph_Driver/src/stm32f4xx_rtc.c ****   *     @arg RTC_ShiftAdd1S_Reset: No effect.
2405:App/STM32F4-Discovery/Libraries/STM32F4xx_StdPeriph_Driver/src/stm32f4xx_rtc.c ****   * @param  RTC_ShiftSubFS: Select the number of Second Fractions to Substitute.
2406:App/STM32F4-Discovery/Libraries/STM32F4xx_StdPeriph_Driver/src/stm32f4xx_rtc.c ****   *         This parameter can be one any value from 0 to 0x7FFF.
2407:App/STM32F4-Discovery/Libraries/STM32F4xx_StdPeriph_Driver/src/stm32f4xx_rtc.c ****   * @retval An ErrorStatus enumeration value:
2408:App/STM32F4-Discovery/Libraries/STM32F4xx_StdPeriph_Driver/src/stm32f4xx_rtc.c ****   *          - SUCCESS: RTC Shift registers are configured
2409:App/STM32F4-Discovery/Libraries/STM32F4xx_StdPeriph_Driver/src/stm32f4xx_rtc.c ****   *          - ERROR: RTC Shift registers are not configured
2410:App/STM32F4-Discovery/Libraries/STM32F4xx_StdPeriph_Driver/src/stm32f4xx_rtc.c **** */
2411:App/STM32F4-Discovery/Libraries/STM32F4xx_StdPeriph_Driver/src/stm32f4xx_rtc.c **** ErrorStatus RTC_SynchroShiftConfig(uint32_t RTC_ShiftAdd1S, uint32_t RTC_ShiftSubFS)
2412:App/STM32F4-Discovery/Libraries/STM32F4xx_StdPeriph_Driver/src/stm32f4xx_rtc.c **** {
 5274              		.loc 1 2412 0
 5275              		.cfi_startproc
 5276              		@ args = 0, pretend = 0, frame = 16
 5277              		@ frame_needed = 1, uses_anonymous_args = 0
 5278 0000 80B5     		push	{r7, lr}
 5279              	.LCFI143:
 5280              		.cfi_def_cfa_offset 8
 5281              		.cfi_offset 7, -8
 5282              		.cfi_offset 14, -4
 5283 0002 84B0     		sub	sp, sp, #16
 5284              	.LCFI144:
 5285              		.cfi_def_cfa_offset 24
 5286 0004 00AF     		add	r7, sp, #0
 5287              	.LCFI145:
 5288              		.cfi_def_cfa_register 7
 5289 0006 7860     		str	r0, [r7, #4]
 5290 0008 3960     		str	r1, [r7]
2413:App/STM32F4-Discovery/Libraries/STM32F4xx_StdPeriph_Driver/src/stm32f4xx_rtc.c ****   ErrorStatus status = ERROR;
 5291              		.loc 1 2413 0
 5292 000a 0023     		movs	r3, #0
 5293 000c FB73     		strb	r3, [r7, #15]
2414:App/STM32F4-Discovery/Libraries/STM32F4xx_StdPeriph_Driver/src/stm32f4xx_rtc.c ****   uint32_t shpfcount = 0;
 5294              		.loc 1 2414 0
 5295 000e 0023     		movs	r3, #0
 5296 0010 BB60     		str	r3, [r7, #8]
2415:App/STM32F4-Discovery/Libraries/STM32F4xx_StdPeriph_Driver/src/stm32f4xx_rtc.c **** 
2416:App/STM32F4-Discovery/Libraries/STM32F4xx_StdPeriph_Driver/src/stm32f4xx_rtc.c ****   /* Check the parameters */
2417:App/STM32F4-Discovery/Libraries/STM32F4xx_StdPeriph_Driver/src/stm32f4xx_rtc.c ****   assert_param(IS_RTC_SHIFT_ADD1S(RTC_ShiftAdd1S));
 5297              		.loc 1 2417 0
 5298 0012 7B68     		ldr	r3, [r7, #4]
 5299 0014 002B     		cmp	r3, #0
 5300 0016 08D0     		beq	.L342
 5301              		.loc 1 2417 0 is_stmt 0 discriminator 1
 5302 0018 7B68     		ldr	r3, [r7, #4]
 5303 001a B3F1004F 		cmp	r3, #-2147483648
 5304 001e 04D0     		beq	.L342
 5305 0020 2848     		ldr	r0, .L354
 5306 0022 40F67111 		movw	r1, #2417
 5307 0026 FFF7FEFF 		bl	assert_failed
 5308              	.L342:
2418:App/STM32F4-Discovery/Libraries/STM32F4xx_StdPeriph_Driver/src/stm32f4xx_rtc.c ****   assert_param(IS_RTC_SHIFT_SUBFS(RTC_ShiftSubFS));
 5309              		.loc 1 2418 0 is_stmt 1
 5310 002a 3B68     		ldr	r3, [r7]
 5311 002c B3F5004F 		cmp	r3, #32768
 5312 0030 04D3     		bcc	.L343
 5313              		.loc 1 2418 0 is_stmt 0 discriminator 1
 5314 0032 2448     		ldr	r0, .L354
 5315 0034 40F67211 		movw	r1, #2418
 5316 0038 FFF7FEFF 		bl	assert_failed
 5317              	.L343:
2419:App/STM32F4-Discovery/Libraries/STM32F4xx_StdPeriph_Driver/src/stm32f4xx_rtc.c **** 
2420:App/STM32F4-Discovery/Libraries/STM32F4xx_StdPeriph_Driver/src/stm32f4xx_rtc.c ****   /* Disable the write protection for RTC registers */
2421:App/STM32F4-Discovery/Libraries/STM32F4xx_StdPeriph_Driver/src/stm32f4xx_rtc.c ****   RTC->WPR = 0xCA;
 5318              		.loc 1 2421 0 is_stmt 1
 5319 003c 224B     		ldr	r3, .L354+4
 5320 003e CA22     		movs	r2, #202
 5321 0040 5A62     		str	r2, [r3, #36]
2422:App/STM32F4-Discovery/Libraries/STM32F4xx_StdPeriph_Driver/src/stm32f4xx_rtc.c ****   RTC->WPR = 0x53;
 5322              		.loc 1 2422 0
 5323 0042 214B     		ldr	r3, .L354+4
 5324 0044 5322     		movs	r2, #83
 5325 0046 5A62     		str	r2, [r3, #36]
2423:App/STM32F4-Discovery/Libraries/STM32F4xx_StdPeriph_Driver/src/stm32f4xx_rtc.c ****   
2424:App/STM32F4-Discovery/Libraries/STM32F4xx_StdPeriph_Driver/src/stm32f4xx_rtc.c ****   /* Check if a Shift is pending*/
2425:App/STM32F4-Discovery/Libraries/STM32F4xx_StdPeriph_Driver/src/stm32f4xx_rtc.c ****   if ((RTC->ISR & RTC_ISR_SHPF) != RESET)
 5326              		.loc 1 2425 0
 5327 0048 1F4B     		ldr	r3, .L354+4
 5328 004a DB68     		ldr	r3, [r3, #12]
 5329 004c 03F00803 		and	r3, r3, #8
 5330 0050 002B     		cmp	r3, #0
 5331 0052 0DD0     		beq	.L344
2426:App/STM32F4-Discovery/Libraries/STM32F4xx_StdPeriph_Driver/src/stm32f4xx_rtc.c ****   {
2427:App/STM32F4-Discovery/Libraries/STM32F4xx_StdPeriph_Driver/src/stm32f4xx_rtc.c ****     /* Wait until the shift is completed*/
2428:App/STM32F4-Discovery/Libraries/STM32F4xx_StdPeriph_Driver/src/stm32f4xx_rtc.c ****     while (((RTC->ISR & RTC_ISR_SHPF) != RESET) && (shpfcount != SHPF_TIMEOUT))
 5332              		.loc 1 2428 0
 5333 0054 02E0     		b	.L345
 5334              	.L346:
2429:App/STM32F4-Discovery/Libraries/STM32F4xx_StdPeriph_Driver/src/stm32f4xx_rtc.c ****     {
2430:App/STM32F4-Discovery/Libraries/STM32F4xx_StdPeriph_Driver/src/stm32f4xx_rtc.c ****       shpfcount++;
 5335              		.loc 1 2430 0
 5336 0056 BB68     		ldr	r3, [r7, #8]
 5337 0058 0133     		adds	r3, r3, #1
 5338 005a BB60     		str	r3, [r7, #8]
 5339              	.L345:
2428:App/STM32F4-Discovery/Libraries/STM32F4xx_StdPeriph_Driver/src/stm32f4xx_rtc.c ****     while (((RTC->ISR & RTC_ISR_SHPF) != RESET) && (shpfcount != SHPF_TIMEOUT))
 5340              		.loc 1 2428 0 discriminator 1
 5341 005c 1A4B     		ldr	r3, .L354+4
 5342 005e DB68     		ldr	r3, [r3, #12]
 5343 0060 03F00803 		and	r3, r3, #8
 5344 0064 002B     		cmp	r3, #0
 5345 0066 03D0     		beq	.L344
2428:App/STM32F4-Discovery/Libraries/STM32F4xx_StdPeriph_Driver/src/stm32f4xx_rtc.c ****     while (((RTC->ISR & RTC_ISR_SHPF) != RESET) && (shpfcount != SHPF_TIMEOUT))
 5346              		.loc 1 2428 0 is_stmt 0 discriminator 2
 5347 0068 BB68     		ldr	r3, [r7, #8]
 5348 006a B3F5805F 		cmp	r3, #4096
 5349 006e F2D1     		bne	.L346
 5350              	.L344:
2431:App/STM32F4-Discovery/Libraries/STM32F4xx_StdPeriph_Driver/src/stm32f4xx_rtc.c ****     }
2432:App/STM32F4-Discovery/Libraries/STM32F4xx_StdPeriph_Driver/src/stm32f4xx_rtc.c ****   }
2433:App/STM32F4-Discovery/Libraries/STM32F4xx_StdPeriph_Driver/src/stm32f4xx_rtc.c **** 
2434:App/STM32F4-Discovery/Libraries/STM32F4xx_StdPeriph_Driver/src/stm32f4xx_rtc.c ****   /* Check if the Shift pending is completed or if there is no Shift operation at all*/
2435:App/STM32F4-Discovery/Libraries/STM32F4xx_StdPeriph_Driver/src/stm32f4xx_rtc.c ****   if ((RTC->ISR & RTC_ISR_SHPF) == RESET)
 5351              		.loc 1 2435 0 is_stmt 1
 5352 0070 154B     		ldr	r3, .L354+4
 5353 0072 DB68     		ldr	r3, [r3, #12]
 5354 0074 03F00803 		and	r3, r3, #8
 5355 0078 002B     		cmp	r3, #0
 5356 007a 18D1     		bne	.L347
2436:App/STM32F4-Discovery/Libraries/STM32F4xx_StdPeriph_Driver/src/stm32f4xx_rtc.c ****   {
2437:App/STM32F4-Discovery/Libraries/STM32F4xx_StdPeriph_Driver/src/stm32f4xx_rtc.c ****     /* check if the reference clock detection is disabled */
2438:App/STM32F4-Discovery/Libraries/STM32F4xx_StdPeriph_Driver/src/stm32f4xx_rtc.c ****     if((RTC->CR & RTC_CR_REFCKON) == RESET)
 5357              		.loc 1 2438 0
 5358 007c 124B     		ldr	r3, .L354+4
 5359 007e 9B68     		ldr	r3, [r3, #8]
 5360 0080 03F01003 		and	r3, r3, #16
 5361 0084 002B     		cmp	r3, #0
 5362 0086 0FD1     		bne	.L348
2439:App/STM32F4-Discovery/Libraries/STM32F4xx_StdPeriph_Driver/src/stm32f4xx_rtc.c ****     {
2440:App/STM32F4-Discovery/Libraries/STM32F4xx_StdPeriph_Driver/src/stm32f4xx_rtc.c ****       /* Configure the Shift settings */
2441:App/STM32F4-Discovery/Libraries/STM32F4xx_StdPeriph_Driver/src/stm32f4xx_rtc.c ****       RTC->SHIFTR = (uint32_t)(uint32_t)(RTC_ShiftSubFS) | (uint32_t)(RTC_ShiftAdd1S);
 5363              		.loc 1 2441 0
 5364 0088 0F4B     		ldr	r3, .L354+4
 5365 008a 3968     		ldr	r1, [r7]
 5366 008c 7A68     		ldr	r2, [r7, #4]
 5367 008e 0A43     		orrs	r2, r2, r1
 5368 0090 DA62     		str	r2, [r3, #44]
2442:App/STM32F4-Discovery/Libraries/STM32F4xx_StdPeriph_Driver/src/stm32f4xx_rtc.c ****     
2443:App/STM32F4-Discovery/Libraries/STM32F4xx_StdPeriph_Driver/src/stm32f4xx_rtc.c ****       if(RTC_WaitForSynchro() == ERROR)
 5369              		.loc 1 2443 0
 5370 0092 FFF7FEFF 		bl	RTC_WaitForSynchro
 5371 0096 0346     		mov	r3, r0
 5372 0098 002B     		cmp	r3, #0
 5373 009a 02D1     		bne	.L349
2444:App/STM32F4-Discovery/Libraries/STM32F4xx_StdPeriph_Driver/src/stm32f4xx_rtc.c ****       {
2445:App/STM32F4-Discovery/Libraries/STM32F4xx_StdPeriph_Driver/src/stm32f4xx_rtc.c ****         status = ERROR;
 5374              		.loc 1 2445 0
 5375 009c 0023     		movs	r3, #0
 5376 009e FB73     		strb	r3, [r7, #15]
 5377 00a0 07E0     		b	.L352
 5378              	.L349:
2446:App/STM32F4-Discovery/Libraries/STM32F4xx_StdPeriph_Driver/src/stm32f4xx_rtc.c ****       }
2447:App/STM32F4-Discovery/Libraries/STM32F4xx_StdPeriph_Driver/src/stm32f4xx_rtc.c ****       else
2448:App/STM32F4-Discovery/Libraries/STM32F4xx_StdPeriph_Driver/src/stm32f4xx_rtc.c ****       {
2449:App/STM32F4-Discovery/Libraries/STM32F4xx_StdPeriph_Driver/src/stm32f4xx_rtc.c ****         status = SUCCESS;
 5379              		.loc 1 2449 0
 5380 00a2 0123     		movs	r3, #1
 5381 00a4 FB73     		strb	r3, [r7, #15]
 5382 00a6 04E0     		b	.L352
 5383              	.L348:
2450:App/STM32F4-Discovery/Libraries/STM32F4xx_StdPeriph_Driver/src/stm32f4xx_rtc.c ****       }
2451:App/STM32F4-Discovery/Libraries/STM32F4xx_StdPeriph_Driver/src/stm32f4xx_rtc.c ****     }
2452:App/STM32F4-Discovery/Libraries/STM32F4xx_StdPeriph_Driver/src/stm32f4xx_rtc.c ****     else
2453:App/STM32F4-Discovery/Libraries/STM32F4xx_StdPeriph_Driver/src/stm32f4xx_rtc.c ****     {
2454:App/STM32F4-Discovery/Libraries/STM32F4xx_StdPeriph_Driver/src/stm32f4xx_rtc.c ****       status = ERROR;
 5384              		.loc 1 2454 0
 5385 00a8 0023     		movs	r3, #0
 5386 00aa FB73     		strb	r3, [r7, #15]
 5387 00ac 01E0     		b	.L352
 5388              	.L347:
2455:App/STM32F4-Discovery/Libraries/STM32F4xx_StdPeriph_Driver/src/stm32f4xx_rtc.c ****     }
2456:App/STM32F4-Discovery/Libraries/STM32F4xx_StdPeriph_Driver/src/stm32f4xx_rtc.c ****   }
2457:App/STM32F4-Discovery/Libraries/STM32F4xx_StdPeriph_Driver/src/stm32f4xx_rtc.c ****   else
2458:App/STM32F4-Discovery/Libraries/STM32F4xx_StdPeriph_Driver/src/stm32f4xx_rtc.c ****   {
2459:App/STM32F4-Discovery/Libraries/STM32F4xx_StdPeriph_Driver/src/stm32f4xx_rtc.c ****     status = ERROR;
 5389              		.loc 1 2459 0
 5390 00ae 0023     		movs	r3, #0
 5391 00b0 FB73     		strb	r3, [r7, #15]
 5392              	.L352:
2460:App/STM32F4-Discovery/Libraries/STM32F4xx_StdPeriph_Driver/src/stm32f4xx_rtc.c ****   }
2461:App/STM32F4-Discovery/Libraries/STM32F4xx_StdPeriph_Driver/src/stm32f4xx_rtc.c **** 
2462:App/STM32F4-Discovery/Libraries/STM32F4xx_StdPeriph_Driver/src/stm32f4xx_rtc.c ****   /* Enable the write protection for RTC registers */
2463:App/STM32F4-Discovery/Libraries/STM32F4xx_StdPeriph_Driver/src/stm32f4xx_rtc.c ****   RTC->WPR = 0xFF;
 5393              		.loc 1 2463 0
 5394 00b2 054B     		ldr	r3, .L354+4
 5395 00b4 FF22     		movs	r2, #255
 5396 00b6 5A62     		str	r2, [r3, #36]
2464:App/STM32F4-Discovery/Libraries/STM32F4xx_StdPeriph_Driver/src/stm32f4xx_rtc.c ****   
2465:App/STM32F4-Discovery/Libraries/STM32F4xx_StdPeriph_Driver/src/stm32f4xx_rtc.c ****   return (ErrorStatus)(status);
 5397              		.loc 1 2465 0
 5398 00b8 FB7B     		ldrb	r3, [r7, #15]	@ zero_extendqisi2
2466:App/STM32F4-Discovery/Libraries/STM32F4xx_StdPeriph_Driver/src/stm32f4xx_rtc.c **** }
 5399              		.loc 1 2466 0
 5400 00ba 1846     		mov	r0, r3
 5401 00bc 1037     		adds	r7, r7, #16
 5402 00be BD46     		mov	sp, r7
 5403              		@ sp needed
 5404 00c0 80BD     		pop	{r7, pc}
 5405              	.L355:
 5406 00c2 00BF     		.align	2
 5407              	.L354:
 5408 00c4 00000000 		.word	.LC0
 5409 00c8 00280040 		.word	1073752064
 5410              		.cfi_endproc
 5411              	.LFE159:
 5413              		.section	.text.RTC_ITConfig,"ax",%progbits
 5414              		.align	2
 5415              		.global	RTC_ITConfig
 5416              		.thumb
 5417              		.thumb_func
 5419              	RTC_ITConfig:
 5420              	.LFB160:
2467:App/STM32F4-Discovery/Libraries/STM32F4xx_StdPeriph_Driver/src/stm32f4xx_rtc.c **** 
2468:App/STM32F4-Discovery/Libraries/STM32F4xx_StdPeriph_Driver/src/stm32f4xx_rtc.c **** /**
2469:App/STM32F4-Discovery/Libraries/STM32F4xx_StdPeriph_Driver/src/stm32f4xx_rtc.c ****   * @}
2470:App/STM32F4-Discovery/Libraries/STM32F4xx_StdPeriph_Driver/src/stm32f4xx_rtc.c ****   */
2471:App/STM32F4-Discovery/Libraries/STM32F4xx_StdPeriph_Driver/src/stm32f4xx_rtc.c **** 
2472:App/STM32F4-Discovery/Libraries/STM32F4xx_StdPeriph_Driver/src/stm32f4xx_rtc.c **** /** @defgroup RTC_Group13 Interrupts and flags management functions
2473:App/STM32F4-Discovery/Libraries/STM32F4xx_StdPeriph_Driver/src/stm32f4xx_rtc.c ****  *  @brief   Interrupts and flags management functions  
2474:App/STM32F4-Discovery/Libraries/STM32F4xx_StdPeriph_Driver/src/stm32f4xx_rtc.c ****  *
2475:App/STM32F4-Discovery/Libraries/STM32F4xx_StdPeriph_Driver/src/stm32f4xx_rtc.c **** @verbatim   
2476:App/STM32F4-Discovery/Libraries/STM32F4xx_StdPeriph_Driver/src/stm32f4xx_rtc.c ****  ===============================================================================
2477:App/STM32F4-Discovery/Libraries/STM32F4xx_StdPeriph_Driver/src/stm32f4xx_rtc.c ****                        Interrupts and flags management functions
2478:App/STM32F4-Discovery/Libraries/STM32F4xx_StdPeriph_Driver/src/stm32f4xx_rtc.c ****  ===============================================================================  
2479:App/STM32F4-Discovery/Libraries/STM32F4xx_StdPeriph_Driver/src/stm32f4xx_rtc.c ****  All RTC interrupts are connected to the EXTI controller.
2480:App/STM32F4-Discovery/Libraries/STM32F4xx_StdPeriph_Driver/src/stm32f4xx_rtc.c ****  
2481:App/STM32F4-Discovery/Libraries/STM32F4xx_StdPeriph_Driver/src/stm32f4xx_rtc.c ****  - To enable the RTC Alarm interrupt, the following sequence is required:
2482:App/STM32F4-Discovery/Libraries/STM32F4xx_StdPeriph_Driver/src/stm32f4xx_rtc.c ****    - Configure and enable the EXTI Line 17 in interrupt mode and select the rising 
2483:App/STM32F4-Discovery/Libraries/STM32F4xx_StdPeriph_Driver/src/stm32f4xx_rtc.c ****      edge sensitivity using the EXTI_Init() function.
2484:App/STM32F4-Discovery/Libraries/STM32F4xx_StdPeriph_Driver/src/stm32f4xx_rtc.c ****    - Configure and enable the RTC_Alarm IRQ channel in the NVIC using the NVIC_Init()
2485:App/STM32F4-Discovery/Libraries/STM32F4xx_StdPeriph_Driver/src/stm32f4xx_rtc.c ****      function.
2486:App/STM32F4-Discovery/Libraries/STM32F4xx_StdPeriph_Driver/src/stm32f4xx_rtc.c ****    - Configure the RTC to generate RTC alarms (Alarm A and/or Alarm B) using
2487:App/STM32F4-Discovery/Libraries/STM32F4xx_StdPeriph_Driver/src/stm32f4xx_rtc.c ****      the RTC_SetAlarm() and RTC_AlarmCmd() functions.
2488:App/STM32F4-Discovery/Libraries/STM32F4xx_StdPeriph_Driver/src/stm32f4xx_rtc.c **** 
2489:App/STM32F4-Discovery/Libraries/STM32F4xx_StdPeriph_Driver/src/stm32f4xx_rtc.c ****  - To enable the RTC Wakeup interrupt, the following sequence is required:
2490:App/STM32F4-Discovery/Libraries/STM32F4xx_StdPeriph_Driver/src/stm32f4xx_rtc.c ****    - Configure and enable the EXTI Line 22 in interrupt mode and select the rising 
2491:App/STM32F4-Discovery/Libraries/STM32F4xx_StdPeriph_Driver/src/stm32f4xx_rtc.c ****      edge sensitivity using the EXTI_Init() function.
2492:App/STM32F4-Discovery/Libraries/STM32F4xx_StdPeriph_Driver/src/stm32f4xx_rtc.c ****    - Configure and enable the RTC_WKUP IRQ channel in the NVIC using the NVIC_Init()
2493:App/STM32F4-Discovery/Libraries/STM32F4xx_StdPeriph_Driver/src/stm32f4xx_rtc.c ****      function.
2494:App/STM32F4-Discovery/Libraries/STM32F4xx_StdPeriph_Driver/src/stm32f4xx_rtc.c ****    - Configure the RTC to generate the RTC wakeup timer event using the 
2495:App/STM32F4-Discovery/Libraries/STM32F4xx_StdPeriph_Driver/src/stm32f4xx_rtc.c ****      RTC_WakeUpClockConfig(), RTC_SetWakeUpCounter() and RTC_WakeUpCmd() functions.
2496:App/STM32F4-Discovery/Libraries/STM32F4xx_StdPeriph_Driver/src/stm32f4xx_rtc.c **** 
2497:App/STM32F4-Discovery/Libraries/STM32F4xx_StdPeriph_Driver/src/stm32f4xx_rtc.c ****  - To enable the RTC Tamper interrupt, the following sequence is required:
2498:App/STM32F4-Discovery/Libraries/STM32F4xx_StdPeriph_Driver/src/stm32f4xx_rtc.c ****    - Configure and enable the EXTI Line 21 in interrupt mode and select the rising 
2499:App/STM32F4-Discovery/Libraries/STM32F4xx_StdPeriph_Driver/src/stm32f4xx_rtc.c ****      edge sensitivity using the EXTI_Init() function.
2500:App/STM32F4-Discovery/Libraries/STM32F4xx_StdPeriph_Driver/src/stm32f4xx_rtc.c ****    - Configure and enable the TAMP_STAMP IRQ channel in the NVIC using the NVIC_Init()
2501:App/STM32F4-Discovery/Libraries/STM32F4xx_StdPeriph_Driver/src/stm32f4xx_rtc.c ****      function.
2502:App/STM32F4-Discovery/Libraries/STM32F4xx_StdPeriph_Driver/src/stm32f4xx_rtc.c ****    - Configure the RTC to detect the RTC tamper event using the 
2503:App/STM32F4-Discovery/Libraries/STM32F4xx_StdPeriph_Driver/src/stm32f4xx_rtc.c ****      RTC_TamperTriggerConfig() and RTC_TamperCmd() functions.
2504:App/STM32F4-Discovery/Libraries/STM32F4xx_StdPeriph_Driver/src/stm32f4xx_rtc.c **** 
2505:App/STM32F4-Discovery/Libraries/STM32F4xx_StdPeriph_Driver/src/stm32f4xx_rtc.c ****  - To enable the RTC TimeStamp interrupt, the following sequence is required:
2506:App/STM32F4-Discovery/Libraries/STM32F4xx_StdPeriph_Driver/src/stm32f4xx_rtc.c ****    - Configure and enable the EXTI Line 21 in interrupt mode and select the rising 
2507:App/STM32F4-Discovery/Libraries/STM32F4xx_StdPeriph_Driver/src/stm32f4xx_rtc.c ****      edge sensitivity using the EXTI_Init() function.
2508:App/STM32F4-Discovery/Libraries/STM32F4xx_StdPeriph_Driver/src/stm32f4xx_rtc.c ****    - Configure and enable the TAMP_STAMP IRQ channel in the NVIC using the NVIC_Init()
2509:App/STM32F4-Discovery/Libraries/STM32F4xx_StdPeriph_Driver/src/stm32f4xx_rtc.c ****      function.
2510:App/STM32F4-Discovery/Libraries/STM32F4xx_StdPeriph_Driver/src/stm32f4xx_rtc.c ****    - Configure the RTC to detect the RTC time-stamp event using the 
2511:App/STM32F4-Discovery/Libraries/STM32F4xx_StdPeriph_Driver/src/stm32f4xx_rtc.c ****      RTC_TimeStampCmd() functions.
2512:App/STM32F4-Discovery/Libraries/STM32F4xx_StdPeriph_Driver/src/stm32f4xx_rtc.c **** 
2513:App/STM32F4-Discovery/Libraries/STM32F4xx_StdPeriph_Driver/src/stm32f4xx_rtc.c **** @endverbatim
2514:App/STM32F4-Discovery/Libraries/STM32F4xx_StdPeriph_Driver/src/stm32f4xx_rtc.c ****   * @{
2515:App/STM32F4-Discovery/Libraries/STM32F4xx_StdPeriph_Driver/src/stm32f4xx_rtc.c ****   */
2516:App/STM32F4-Discovery/Libraries/STM32F4xx_StdPeriph_Driver/src/stm32f4xx_rtc.c **** 
2517:App/STM32F4-Discovery/Libraries/STM32F4xx_StdPeriph_Driver/src/stm32f4xx_rtc.c **** /**
2518:App/STM32F4-Discovery/Libraries/STM32F4xx_StdPeriph_Driver/src/stm32f4xx_rtc.c ****   * @brief  Enables or disables the specified RTC interrupts.
2519:App/STM32F4-Discovery/Libraries/STM32F4xx_StdPeriph_Driver/src/stm32f4xx_rtc.c ****   * @param  RTC_IT: specifies the RTC interrupt sources to be enabled or disabled. 
2520:App/STM32F4-Discovery/Libraries/STM32F4xx_StdPeriph_Driver/src/stm32f4xx_rtc.c ****   *          This parameter can be any combination of the following values:
2521:App/STM32F4-Discovery/Libraries/STM32F4xx_StdPeriph_Driver/src/stm32f4xx_rtc.c ****   *            @arg RTC_IT_TS:  Time Stamp interrupt mask
2522:App/STM32F4-Discovery/Libraries/STM32F4xx_StdPeriph_Driver/src/stm32f4xx_rtc.c ****   *            @arg RTC_IT_WUT:  WakeUp Timer interrupt mask
2523:App/STM32F4-Discovery/Libraries/STM32F4xx_StdPeriph_Driver/src/stm32f4xx_rtc.c ****   *            @arg RTC_IT_ALRB:  Alarm B interrupt mask
2524:App/STM32F4-Discovery/Libraries/STM32F4xx_StdPeriph_Driver/src/stm32f4xx_rtc.c ****   *            @arg RTC_IT_ALRA:  Alarm A interrupt mask
2525:App/STM32F4-Discovery/Libraries/STM32F4xx_StdPeriph_Driver/src/stm32f4xx_rtc.c ****   *            @arg RTC_IT_TAMP: Tamper event interrupt mask
2526:App/STM32F4-Discovery/Libraries/STM32F4xx_StdPeriph_Driver/src/stm32f4xx_rtc.c ****   * @param  NewState: new state of the specified RTC interrupts.
2527:App/STM32F4-Discovery/Libraries/STM32F4xx_StdPeriph_Driver/src/stm32f4xx_rtc.c ****   *          This parameter can be: ENABLE or DISABLE.
2528:App/STM32F4-Discovery/Libraries/STM32F4xx_StdPeriph_Driver/src/stm32f4xx_rtc.c ****   * @retval None
2529:App/STM32F4-Discovery/Libraries/STM32F4xx_StdPeriph_Driver/src/stm32f4xx_rtc.c ****   */
2530:App/STM32F4-Discovery/Libraries/STM32F4xx_StdPeriph_Driver/src/stm32f4xx_rtc.c **** void RTC_ITConfig(uint32_t RTC_IT, FunctionalState NewState)
2531:App/STM32F4-Discovery/Libraries/STM32F4xx_StdPeriph_Driver/src/stm32f4xx_rtc.c **** {
 5421              		.loc 1 2531 0
 5422              		.cfi_startproc
 5423              		@ args = 0, pretend = 0, frame = 8
 5424              		@ frame_needed = 1, uses_anonymous_args = 0
 5425 0000 80B5     		push	{r7, lr}
 5426              	.LCFI146:
 5427              		.cfi_def_cfa_offset 8
 5428              		.cfi_offset 7, -8
 5429              		.cfi_offset 14, -4
 5430 0002 82B0     		sub	sp, sp, #8
 5431              	.LCFI147:
 5432              		.cfi_def_cfa_offset 16
 5433 0004 00AF     		add	r7, sp, #0
 5434              	.LCFI148:
 5435              		.cfi_def_cfa_register 7
 5436 0006 7860     		str	r0, [r7, #4]
 5437 0008 0B46     		mov	r3, r1
 5438 000a FB70     		strb	r3, [r7, #3]
2532:App/STM32F4-Discovery/Libraries/STM32F4xx_StdPeriph_Driver/src/stm32f4xx_rtc.c ****   /* Check the parameters */
2533:App/STM32F4-Discovery/Libraries/STM32F4xx_StdPeriph_Driver/src/stm32f4xx_rtc.c ****   assert_param(IS_RTC_CONFIG_IT(RTC_IT));
 5439              		.loc 1 2533 0
 5440 000c 7B68     		ldr	r3, [r7, #4]
 5441 000e 002B     		cmp	r3, #0
 5442 0010 06D0     		beq	.L357
 5443              		.loc 1 2533 0 is_stmt 0 discriminator 2
 5444 0012 7B68     		ldr	r3, [r7, #4]
 5445 0014 23F47043 		bic	r3, r3, #61440
 5446 0018 23F00403 		bic	r3, r3, #4
 5447 001c 002B     		cmp	r3, #0
 5448 001e 04D0     		beq	.L358
 5449              	.L357:
 5450              		.loc 1 2533 0 discriminator 1
 5451 0020 2048     		ldr	r0, .L362
 5452 0022 40F6E511 		movw	r1, #2533
 5453 0026 FFF7FEFF 		bl	assert_failed
 5454              	.L358:
2534:App/STM32F4-Discovery/Libraries/STM32F4xx_StdPeriph_Driver/src/stm32f4xx_rtc.c ****   assert_param(IS_FUNCTIONAL_STATE(NewState));
 5455              		.loc 1 2534 0 is_stmt 1
 5456 002a FB78     		ldrb	r3, [r7, #3]	@ zero_extendqisi2
 5457 002c 002B     		cmp	r3, #0
 5458 002e 07D0     		beq	.L359
 5459              		.loc 1 2534 0 is_stmt 0 discriminator 1
 5460 0030 FB78     		ldrb	r3, [r7, #3]	@ zero_extendqisi2
 5461 0032 012B     		cmp	r3, #1
 5462 0034 04D0     		beq	.L359
 5463 0036 1B48     		ldr	r0, .L362
 5464 0038 40F6E611 		movw	r1, #2534
 5465 003c FFF7FEFF 		bl	assert_failed
 5466              	.L359:
2535:App/STM32F4-Discovery/Libraries/STM32F4xx_StdPeriph_Driver/src/stm32f4xx_rtc.c **** 
2536:App/STM32F4-Discovery/Libraries/STM32F4xx_StdPeriph_Driver/src/stm32f4xx_rtc.c ****   /* Disable the write protection for RTC registers */
2537:App/STM32F4-Discovery/Libraries/STM32F4xx_StdPeriph_Driver/src/stm32f4xx_rtc.c ****   RTC->WPR = 0xCA;
 5467              		.loc 1 2537 0 is_stmt 1
 5468 0040 194B     		ldr	r3, .L362+4
 5469 0042 CA22     		movs	r2, #202
 5470 0044 5A62     		str	r2, [r3, #36]
2538:App/STM32F4-Discovery/Libraries/STM32F4xx_StdPeriph_Driver/src/stm32f4xx_rtc.c ****   RTC->WPR = 0x53;
 5471              		.loc 1 2538 0
 5472 0046 184B     		ldr	r3, .L362+4
 5473 0048 5322     		movs	r2, #83
 5474 004a 5A62     		str	r2, [r3, #36]
2539:App/STM32F4-Discovery/Libraries/STM32F4xx_StdPeriph_Driver/src/stm32f4xx_rtc.c **** 
2540:App/STM32F4-Discovery/Libraries/STM32F4xx_StdPeriph_Driver/src/stm32f4xx_rtc.c ****   if (NewState != DISABLE)
 5475              		.loc 1 2540 0
 5476 004c FB78     		ldrb	r3, [r7, #3]	@ zero_extendqisi2
 5477 004e 002B     		cmp	r3, #0
 5478 0050 10D0     		beq	.L360
2541:App/STM32F4-Discovery/Libraries/STM32F4xx_StdPeriph_Driver/src/stm32f4xx_rtc.c ****   {
2542:App/STM32F4-Discovery/Libraries/STM32F4xx_StdPeriph_Driver/src/stm32f4xx_rtc.c ****     /* Configure the Interrupts in the RTC_CR register */
2543:App/STM32F4-Discovery/Libraries/STM32F4xx_StdPeriph_Driver/src/stm32f4xx_rtc.c ****     RTC->CR |= (uint32_t)(RTC_IT & ~RTC_TAFCR_TAMPIE);
 5479              		.loc 1 2543 0
 5480 0052 154B     		ldr	r3, .L362+4
 5481 0054 144A     		ldr	r2, .L362+4
 5482 0056 9168     		ldr	r1, [r2, #8]
 5483 0058 7A68     		ldr	r2, [r7, #4]
 5484 005a 22F00402 		bic	r2, r2, #4
 5485 005e 0A43     		orrs	r2, r2, r1
 5486 0060 9A60     		str	r2, [r3, #8]
2544:App/STM32F4-Discovery/Libraries/STM32F4xx_StdPeriph_Driver/src/stm32f4xx_rtc.c ****     /* Configure the Tamper Interrupt in the RTC_TAFCR */
2545:App/STM32F4-Discovery/Libraries/STM32F4xx_StdPeriph_Driver/src/stm32f4xx_rtc.c ****     RTC->TAFCR |= (uint32_t)(RTC_IT & RTC_TAFCR_TAMPIE);
 5487              		.loc 1 2545 0
 5488 0062 114B     		ldr	r3, .L362+4
 5489 0064 104A     		ldr	r2, .L362+4
 5490 0066 116C     		ldr	r1, [r2, #64]
 5491 0068 7A68     		ldr	r2, [r7, #4]
 5492 006a 02F00402 		and	r2, r2, #4
 5493 006e 0A43     		orrs	r2, r2, r1
 5494 0070 1A64     		str	r2, [r3, #64]
 5495 0072 11E0     		b	.L361
 5496              	.L360:
2546:App/STM32F4-Discovery/Libraries/STM32F4xx_StdPeriph_Driver/src/stm32f4xx_rtc.c ****   }
2547:App/STM32F4-Discovery/Libraries/STM32F4xx_StdPeriph_Driver/src/stm32f4xx_rtc.c ****   else
2548:App/STM32F4-Discovery/Libraries/STM32F4xx_StdPeriph_Driver/src/stm32f4xx_rtc.c ****   {
2549:App/STM32F4-Discovery/Libraries/STM32F4xx_StdPeriph_Driver/src/stm32f4xx_rtc.c ****     /* Configure the Interrupts in the RTC_CR register */
2550:App/STM32F4-Discovery/Libraries/STM32F4xx_StdPeriph_Driver/src/stm32f4xx_rtc.c ****     RTC->CR &= (uint32_t)~(RTC_IT & (uint32_t)~RTC_TAFCR_TAMPIE);
 5497              		.loc 1 2550 0
 5498 0074 0C4B     		ldr	r3, .L362+4
 5499 0076 0C4A     		ldr	r2, .L362+4
 5500 0078 9168     		ldr	r1, [r2, #8]
 5501 007a 7A68     		ldr	r2, [r7, #4]
 5502 007c 22F00402 		bic	r2, r2, #4
 5503 0080 D243     		mvns	r2, r2
 5504 0082 0A40     		ands	r2, r2, r1
 5505 0084 9A60     		str	r2, [r3, #8]
2551:App/STM32F4-Discovery/Libraries/STM32F4xx_StdPeriph_Driver/src/stm32f4xx_rtc.c ****     /* Configure the Tamper Interrupt in the RTC_TAFCR */
2552:App/STM32F4-Discovery/Libraries/STM32F4xx_StdPeriph_Driver/src/stm32f4xx_rtc.c ****     RTC->TAFCR &= (uint32_t)~(RTC_IT & RTC_TAFCR_TAMPIE);
 5506              		.loc 1 2552 0
 5507 0086 084B     		ldr	r3, .L362+4
 5508 0088 074A     		ldr	r2, .L362+4
 5509 008a 116C     		ldr	r1, [r2, #64]
 5510 008c 7A68     		ldr	r2, [r7, #4]
 5511 008e 02F00402 		and	r2, r2, #4
 5512 0092 D243     		mvns	r2, r2
 5513 0094 0A40     		ands	r2, r2, r1
 5514 0096 1A64     		str	r2, [r3, #64]
 5515              	.L361:
2553:App/STM32F4-Discovery/Libraries/STM32F4xx_StdPeriph_Driver/src/stm32f4xx_rtc.c ****   }
2554:App/STM32F4-Discovery/Libraries/STM32F4xx_StdPeriph_Driver/src/stm32f4xx_rtc.c ****   /* Enable the write protection for RTC registers */
2555:App/STM32F4-Discovery/Libraries/STM32F4xx_StdPeriph_Driver/src/stm32f4xx_rtc.c ****   RTC->WPR = 0xFF; 
 5516              		.loc 1 2555 0
 5517 0098 034B     		ldr	r3, .L362+4
 5518 009a FF22     		movs	r2, #255
 5519 009c 5A62     		str	r2, [r3, #36]
2556:App/STM32F4-Discovery/Libraries/STM32F4xx_StdPeriph_Driver/src/stm32f4xx_rtc.c **** }
 5520              		.loc 1 2556 0
 5521 009e 0837     		adds	r7, r7, #8
 5522 00a0 BD46     		mov	sp, r7
 5523              		@ sp needed
 5524 00a2 80BD     		pop	{r7, pc}
 5525              	.L363:
 5526              		.align	2
 5527              	.L362:
 5528 00a4 00000000 		.word	.LC0
 5529 00a8 00280040 		.word	1073752064
 5530              		.cfi_endproc
 5531              	.LFE160:
 5533              		.section	.text.RTC_GetFlagStatus,"ax",%progbits
 5534              		.align	2
 5535              		.global	RTC_GetFlagStatus
 5536              		.thumb
 5537              		.thumb_func
 5539              	RTC_GetFlagStatus:
 5540              	.LFB161:
2557:App/STM32F4-Discovery/Libraries/STM32F4xx_StdPeriph_Driver/src/stm32f4xx_rtc.c **** 
2558:App/STM32F4-Discovery/Libraries/STM32F4xx_StdPeriph_Driver/src/stm32f4xx_rtc.c **** /**
2559:App/STM32F4-Discovery/Libraries/STM32F4xx_StdPeriph_Driver/src/stm32f4xx_rtc.c ****   * @brief  Checks whether the specified RTC flag is set or not.
2560:App/STM32F4-Discovery/Libraries/STM32F4xx_StdPeriph_Driver/src/stm32f4xx_rtc.c ****   * @param  RTC_FLAG: specifies the flag to check.
2561:App/STM32F4-Discovery/Libraries/STM32F4xx_StdPeriph_Driver/src/stm32f4xx_rtc.c ****   *          This parameter can be one of the following values:
2562:App/STM32F4-Discovery/Libraries/STM32F4xx_StdPeriph_Driver/src/stm32f4xx_rtc.c ****   *            @arg RTC_FLAG_TAMP1F: Tamper 1 event flag
2563:App/STM32F4-Discovery/Libraries/STM32F4xx_StdPeriph_Driver/src/stm32f4xx_rtc.c ****   *            @arg RTC_FLAG_TSOVF: Time Stamp OverFlow flag
2564:App/STM32F4-Discovery/Libraries/STM32F4xx_StdPeriph_Driver/src/stm32f4xx_rtc.c ****   *            @arg RTC_FLAG_TSF: Time Stamp event flag
2565:App/STM32F4-Discovery/Libraries/STM32F4xx_StdPeriph_Driver/src/stm32f4xx_rtc.c ****   *            @arg RTC_FLAG_WUTF: WakeUp Timer flag
2566:App/STM32F4-Discovery/Libraries/STM32F4xx_StdPeriph_Driver/src/stm32f4xx_rtc.c ****   *            @arg RTC_FLAG_ALRBF: Alarm B flag
2567:App/STM32F4-Discovery/Libraries/STM32F4xx_StdPeriph_Driver/src/stm32f4xx_rtc.c ****   *            @arg RTC_FLAG_ALRAF: Alarm A flag
2568:App/STM32F4-Discovery/Libraries/STM32F4xx_StdPeriph_Driver/src/stm32f4xx_rtc.c ****   *            @arg RTC_FLAG_INITF: Initialization mode flag
2569:App/STM32F4-Discovery/Libraries/STM32F4xx_StdPeriph_Driver/src/stm32f4xx_rtc.c ****   *            @arg RTC_FLAG_RSF: Registers Synchronized flag
2570:App/STM32F4-Discovery/Libraries/STM32F4xx_StdPeriph_Driver/src/stm32f4xx_rtc.c ****   *            @arg RTC_FLAG_INITS: Registers Configured flag
2571:App/STM32F4-Discovery/Libraries/STM32F4xx_StdPeriph_Driver/src/stm32f4xx_rtc.c ****   *            @arg RTC_FLAG_WUTWF: WakeUp Timer Write flag
2572:App/STM32F4-Discovery/Libraries/STM32F4xx_StdPeriph_Driver/src/stm32f4xx_rtc.c ****   *            @arg RTC_FLAG_ALRBWF: Alarm B Write flag
2573:App/STM32F4-Discovery/Libraries/STM32F4xx_StdPeriph_Driver/src/stm32f4xx_rtc.c ****   *            @arg RTC_FLAG_ALRAWF: Alarm A write flag
2574:App/STM32F4-Discovery/Libraries/STM32F4xx_StdPeriph_Driver/src/stm32f4xx_rtc.c ****   * @retval The new state of RTC_FLAG (SET or RESET).
2575:App/STM32F4-Discovery/Libraries/STM32F4xx_StdPeriph_Driver/src/stm32f4xx_rtc.c ****   */
2576:App/STM32F4-Discovery/Libraries/STM32F4xx_StdPeriph_Driver/src/stm32f4xx_rtc.c **** FlagStatus RTC_GetFlagStatus(uint32_t RTC_FLAG)
2577:App/STM32F4-Discovery/Libraries/STM32F4xx_StdPeriph_Driver/src/stm32f4xx_rtc.c **** {
 5541              		.loc 1 2577 0
 5542              		.cfi_startproc
 5543              		@ args = 0, pretend = 0, frame = 16
 5544              		@ frame_needed = 1, uses_anonymous_args = 0
 5545 0000 80B5     		push	{r7, lr}
 5546              	.LCFI149:
 5547              		.cfi_def_cfa_offset 8
 5548              		.cfi_offset 7, -8
 5549              		.cfi_offset 14, -4
 5550 0002 84B0     		sub	sp, sp, #16
 5551              	.LCFI150:
 5552              		.cfi_def_cfa_offset 24
 5553 0004 00AF     		add	r7, sp, #0
 5554              	.LCFI151:
 5555              		.cfi_def_cfa_register 7
 5556 0006 7860     		str	r0, [r7, #4]
2578:App/STM32F4-Discovery/Libraries/STM32F4xx_StdPeriph_Driver/src/stm32f4xx_rtc.c ****   FlagStatus bitstatus = RESET;
 5557              		.loc 1 2578 0
 5558 0008 0023     		movs	r3, #0
 5559 000a FB73     		strb	r3, [r7, #15]
2579:App/STM32F4-Discovery/Libraries/STM32F4xx_StdPeriph_Driver/src/stm32f4xx_rtc.c ****   uint32_t tmpreg = 0;
 5560              		.loc 1 2579 0
 5561 000c 0023     		movs	r3, #0
 5562 000e BB60     		str	r3, [r7, #8]
2580:App/STM32F4-Discovery/Libraries/STM32F4xx_StdPeriph_Driver/src/stm32f4xx_rtc.c ****   
2581:App/STM32F4-Discovery/Libraries/STM32F4xx_StdPeriph_Driver/src/stm32f4xx_rtc.c ****   /* Check the parameters */
2582:App/STM32F4-Discovery/Libraries/STM32F4xx_StdPeriph_Driver/src/stm32f4xx_rtc.c ****   assert_param(IS_RTC_GET_FLAG(RTC_FLAG));
 5563              		.loc 1 2582 0
 5564 0010 7B68     		ldr	r3, [r7, #4]
 5565 0012 B3F5805F 		cmp	r3, #4096
 5566 0016 2ED0     		beq	.L365
 5567              		.loc 1 2582 0 is_stmt 0 discriminator 1
 5568 0018 7B68     		ldr	r3, [r7, #4]
 5569 001a B3F5006F 		cmp	r3, #2048
 5570 001e 2AD0     		beq	.L365
 5571 0020 7B68     		ldr	r3, [r7, #4]
 5572 0022 B3F5806F 		cmp	r3, #1024
 5573 0026 26D0     		beq	.L365
 5574 0028 7B68     		ldr	r3, [r7, #4]
 5575 002a B3F5007F 		cmp	r3, #512
 5576 002e 22D0     		beq	.L365
 5577 0030 7B68     		ldr	r3, [r7, #4]
 5578 0032 B3F5807F 		cmp	r3, #256
 5579 0036 1ED0     		beq	.L365
 5580 0038 7B68     		ldr	r3, [r7, #4]
 5581 003a 402B     		cmp	r3, #64
 5582 003c 1BD0     		beq	.L365
 5583 003e 7B68     		ldr	r3, [r7, #4]
 5584 0040 202B     		cmp	r3, #32
 5585 0042 18D0     		beq	.L365
 5586 0044 7B68     		ldr	r3, [r7, #4]
 5587 0046 042B     		cmp	r3, #4
 5588 0048 15D0     		beq	.L365
 5589 004a 7B68     		ldr	r3, [r7, #4]
 5590 004c 022B     		cmp	r3, #2
 5591 004e 12D0     		beq	.L365
 5592 0050 7B68     		ldr	r3, [r7, #4]
 5593 0052 012B     		cmp	r3, #1
 5594 0054 0FD0     		beq	.L365
 5595 0056 7B68     		ldr	r3, [r7, #4]
 5596 0058 B3F5005F 		cmp	r3, #8192
 5597 005c 0BD0     		beq	.L365
 5598 005e 7B68     		ldr	r3, [r7, #4]
 5599 0060 B3F5803F 		cmp	r3, #65536
 5600 0064 07D0     		beq	.L365
 5601 0066 7B68     		ldr	r3, [r7, #4]
 5602 0068 082B     		cmp	r3, #8
 5603 006a 04D0     		beq	.L365
 5604 006c 0C48     		ldr	r0, .L369
 5605 006e 40F61621 		movw	r1, #2582
 5606 0072 FFF7FEFF 		bl	assert_failed
 5607              	.L365:
2583:App/STM32F4-Discovery/Libraries/STM32F4xx_StdPeriph_Driver/src/stm32f4xx_rtc.c ****   
2584:App/STM32F4-Discovery/Libraries/STM32F4xx_StdPeriph_Driver/src/stm32f4xx_rtc.c ****   /* Get all the flags */
2585:App/STM32F4-Discovery/Libraries/STM32F4xx_StdPeriph_Driver/src/stm32f4xx_rtc.c ****   tmpreg = (uint32_t)(RTC->ISR & RTC_FLAGS_MASK);
 5608              		.loc 1 2585 0 is_stmt 1
 5609 0076 0B4B     		ldr	r3, .L369+4
 5610 0078 DA68     		ldr	r2, [r3, #12]
 5611 007a 43F67773 		movw	r3, #16247
 5612 007e 1340     		ands	r3, r3, r2
 5613 0080 BB60     		str	r3, [r7, #8]
2586:App/STM32F4-Discovery/Libraries/STM32F4xx_StdPeriph_Driver/src/stm32f4xx_rtc.c ****   
2587:App/STM32F4-Discovery/Libraries/STM32F4xx_StdPeriph_Driver/src/stm32f4xx_rtc.c ****   /* Return the status of the flag */
2588:App/STM32F4-Discovery/Libraries/STM32F4xx_StdPeriph_Driver/src/stm32f4xx_rtc.c ****   if ((tmpreg & RTC_FLAG) != (uint32_t)RESET)
 5614              		.loc 1 2588 0
 5615 0082 BA68     		ldr	r2, [r7, #8]
 5616 0084 7B68     		ldr	r3, [r7, #4]
 5617 0086 1340     		ands	r3, r3, r2
 5618 0088 002B     		cmp	r3, #0
 5619 008a 02D0     		beq	.L366
2589:App/STM32F4-Discovery/Libraries/STM32F4xx_StdPeriph_Driver/src/stm32f4xx_rtc.c ****   {
2590:App/STM32F4-Discovery/Libraries/STM32F4xx_StdPeriph_Driver/src/stm32f4xx_rtc.c ****     bitstatus = SET;
 5620              		.loc 1 2590 0
 5621 008c 0123     		movs	r3, #1
 5622 008e FB73     		strb	r3, [r7, #15]
 5623 0090 01E0     		b	.L367
 5624              	.L366:
2591:App/STM32F4-Discovery/Libraries/STM32F4xx_StdPeriph_Driver/src/stm32f4xx_rtc.c ****   }
2592:App/STM32F4-Discovery/Libraries/STM32F4xx_StdPeriph_Driver/src/stm32f4xx_rtc.c ****   else
2593:App/STM32F4-Discovery/Libraries/STM32F4xx_StdPeriph_Driver/src/stm32f4xx_rtc.c ****   {
2594:App/STM32F4-Discovery/Libraries/STM32F4xx_StdPeriph_Driver/src/stm32f4xx_rtc.c ****     bitstatus = RESET;
 5625              		.loc 1 2594 0
 5626 0092 0023     		movs	r3, #0
 5627 0094 FB73     		strb	r3, [r7, #15]
 5628              	.L367:
2595:App/STM32F4-Discovery/Libraries/STM32F4xx_StdPeriph_Driver/src/stm32f4xx_rtc.c ****   }
2596:App/STM32F4-Discovery/Libraries/STM32F4xx_StdPeriph_Driver/src/stm32f4xx_rtc.c ****   return bitstatus;
 5629              		.loc 1 2596 0
 5630 0096 FB7B     		ldrb	r3, [r7, #15]	@ zero_extendqisi2
2597:App/STM32F4-Discovery/Libraries/STM32F4xx_StdPeriph_Driver/src/stm32f4xx_rtc.c **** }
 5631              		.loc 1 2597 0
 5632 0098 1846     		mov	r0, r3
 5633 009a 1037     		adds	r7, r7, #16
 5634 009c BD46     		mov	sp, r7
 5635              		@ sp needed
 5636 009e 80BD     		pop	{r7, pc}
 5637              	.L370:
 5638              		.align	2
 5639              	.L369:
 5640 00a0 00000000 		.word	.LC0
 5641 00a4 00280040 		.word	1073752064
 5642              		.cfi_endproc
 5643              	.LFE161:
 5645              		.section	.text.RTC_ClearFlag,"ax",%progbits
 5646              		.align	2
 5647              		.global	RTC_ClearFlag
 5648              		.thumb
 5649              		.thumb_func
 5651              	RTC_ClearFlag:
 5652              	.LFB162:
2598:App/STM32F4-Discovery/Libraries/STM32F4xx_StdPeriph_Driver/src/stm32f4xx_rtc.c **** 
2599:App/STM32F4-Discovery/Libraries/STM32F4xx_StdPeriph_Driver/src/stm32f4xx_rtc.c **** /**
2600:App/STM32F4-Discovery/Libraries/STM32F4xx_StdPeriph_Driver/src/stm32f4xx_rtc.c ****   * @brief  Clears the RTC's pending flags.
2601:App/STM32F4-Discovery/Libraries/STM32F4xx_StdPeriph_Driver/src/stm32f4xx_rtc.c ****   * @param  RTC_FLAG: specifies the RTC flag to clear.
2602:App/STM32F4-Discovery/Libraries/STM32F4xx_StdPeriph_Driver/src/stm32f4xx_rtc.c ****   *          This parameter can be any combination of the following values:
2603:App/STM32F4-Discovery/Libraries/STM32F4xx_StdPeriph_Driver/src/stm32f4xx_rtc.c ****   *            @arg RTC_FLAG_TAMP1F: Tamper 1 event flag
2604:App/STM32F4-Discovery/Libraries/STM32F4xx_StdPeriph_Driver/src/stm32f4xx_rtc.c ****   *            @arg RTC_FLAG_TSOVF: Time Stamp Overflow flag 
2605:App/STM32F4-Discovery/Libraries/STM32F4xx_StdPeriph_Driver/src/stm32f4xx_rtc.c ****   *            @arg RTC_FLAG_TSF: Time Stamp event flag
2606:App/STM32F4-Discovery/Libraries/STM32F4xx_StdPeriph_Driver/src/stm32f4xx_rtc.c ****   *            @arg RTC_FLAG_WUTF: WakeUp Timer flag
2607:App/STM32F4-Discovery/Libraries/STM32F4xx_StdPeriph_Driver/src/stm32f4xx_rtc.c ****   *            @arg RTC_FLAG_ALRBF: Alarm B flag
2608:App/STM32F4-Discovery/Libraries/STM32F4xx_StdPeriph_Driver/src/stm32f4xx_rtc.c ****   *            @arg RTC_FLAG_ALRAF: Alarm A flag
2609:App/STM32F4-Discovery/Libraries/STM32F4xx_StdPeriph_Driver/src/stm32f4xx_rtc.c ****   *            @arg RTC_FLAG_RSF: Registers Synchronized flag
2610:App/STM32F4-Discovery/Libraries/STM32F4xx_StdPeriph_Driver/src/stm32f4xx_rtc.c ****   * @retval None
2611:App/STM32F4-Discovery/Libraries/STM32F4xx_StdPeriph_Driver/src/stm32f4xx_rtc.c ****   */
2612:App/STM32F4-Discovery/Libraries/STM32F4xx_StdPeriph_Driver/src/stm32f4xx_rtc.c **** void RTC_ClearFlag(uint32_t RTC_FLAG)
2613:App/STM32F4-Discovery/Libraries/STM32F4xx_StdPeriph_Driver/src/stm32f4xx_rtc.c **** {
 5653              		.loc 1 2613 0
 5654              		.cfi_startproc
 5655              		@ args = 0, pretend = 0, frame = 8
 5656              		@ frame_needed = 1, uses_anonymous_args = 0
 5657 0000 80B5     		push	{r7, lr}
 5658              	.LCFI152:
 5659              		.cfi_def_cfa_offset 8
 5660              		.cfi_offset 7, -8
 5661              		.cfi_offset 14, -4
 5662 0002 82B0     		sub	sp, sp, #8
 5663              	.LCFI153:
 5664              		.cfi_def_cfa_offset 16
 5665 0004 00AF     		add	r7, sp, #0
 5666              	.LCFI154:
 5667              		.cfi_def_cfa_register 7
 5668 0006 7860     		str	r0, [r7, #4]
2614:App/STM32F4-Discovery/Libraries/STM32F4xx_StdPeriph_Driver/src/stm32f4xx_rtc.c ****   /* Check the parameters */
2615:App/STM32F4-Discovery/Libraries/STM32F4xx_StdPeriph_Driver/src/stm32f4xx_rtc.c ****   assert_param(IS_RTC_CLEAR_FLAG(RTC_FLAG));
 5669              		.loc 1 2615 0
 5670 0008 7B68     		ldr	r3, [r7, #4]
 5671 000a 002B     		cmp	r3, #0
 5672 000c 06D0     		beq	.L372
 5673              		.loc 1 2615 0 is_stmt 0 discriminator 2
 5674 000e 7B68     		ldr	r3, [r7, #4]
 5675 0010 23F47F43 		bic	r3, r3, #65280
 5676 0014 23F02003 		bic	r3, r3, #32
 5677 0018 002B     		cmp	r3, #0
 5678 001a 04D0     		beq	.L373
 5679              	.L372:
 5680              		.loc 1 2615 0 discriminator 1
 5681 001c 0948     		ldr	r0, .L374
 5682 001e 40F63721 		movw	r1, #2615
 5683 0022 FFF7FEFF 		bl	assert_failed
 5684              	.L373:
2616:App/STM32F4-Discovery/Libraries/STM32F4xx_StdPeriph_Driver/src/stm32f4xx_rtc.c **** 
2617:App/STM32F4-Discovery/Libraries/STM32F4xx_StdPeriph_Driver/src/stm32f4xx_rtc.c ****   /* Clear the Flags in the RTC_ISR register */
2618:App/STM32F4-Discovery/Libraries/STM32F4xx_StdPeriph_Driver/src/stm32f4xx_rtc.c ****   RTC->ISR = (uint32_t)((uint32_t)(~((RTC_FLAG | RTC_ISR_INIT)& 0x0000FFFF) | (uint32_t)(RTC->ISR &
 5685              		.loc 1 2618 0 is_stmt 1
 5686 0026 084B     		ldr	r3, .L374+4
 5687 0028 7A68     		ldr	r2, [r7, #4]
 5688 002a 92B2     		uxth	r2, r2
 5689 002c 42F08002 		orr	r2, r2, #128
 5690 0030 D143     		mvns	r1, r2
 5691 0032 054A     		ldr	r2, .L374+4
 5692 0034 D268     		ldr	r2, [r2, #12]
 5693 0036 02F08002 		and	r2, r2, #128
 5694 003a 0A43     		orrs	r2, r2, r1
 5695 003c DA60     		str	r2, [r3, #12]
2619:App/STM32F4-Discovery/Libraries/STM32F4xx_StdPeriph_Driver/src/stm32f4xx_rtc.c **** }
 5696              		.loc 1 2619 0
 5697 003e 0837     		adds	r7, r7, #8
 5698 0040 BD46     		mov	sp, r7
 5699              		@ sp needed
 5700 0042 80BD     		pop	{r7, pc}
 5701              	.L375:
 5702              		.align	2
 5703              	.L374:
 5704 0044 00000000 		.word	.LC0
 5705 0048 00280040 		.word	1073752064
 5706              		.cfi_endproc
 5707              	.LFE162:
 5709              		.section	.text.RTC_GetITStatus,"ax",%progbits
 5710              		.align	2
 5711              		.global	RTC_GetITStatus
 5712              		.thumb
 5713              		.thumb_func
 5715              	RTC_GetITStatus:
 5716              	.LFB163:
2620:App/STM32F4-Discovery/Libraries/STM32F4xx_StdPeriph_Driver/src/stm32f4xx_rtc.c **** 
2621:App/STM32F4-Discovery/Libraries/STM32F4xx_StdPeriph_Driver/src/stm32f4xx_rtc.c **** /**
2622:App/STM32F4-Discovery/Libraries/STM32F4xx_StdPeriph_Driver/src/stm32f4xx_rtc.c ****   * @brief  Checks whether the specified RTC interrupt has occurred or not.
2623:App/STM32F4-Discovery/Libraries/STM32F4xx_StdPeriph_Driver/src/stm32f4xx_rtc.c ****   * @param  RTC_IT: specifies the RTC interrupt source to check.
2624:App/STM32F4-Discovery/Libraries/STM32F4xx_StdPeriph_Driver/src/stm32f4xx_rtc.c ****   *          This parameter can be one of the following values:
2625:App/STM32F4-Discovery/Libraries/STM32F4xx_StdPeriph_Driver/src/stm32f4xx_rtc.c ****   *            @arg RTC_IT_TS: Time Stamp interrupt 
2626:App/STM32F4-Discovery/Libraries/STM32F4xx_StdPeriph_Driver/src/stm32f4xx_rtc.c ****   *            @arg RTC_IT_WUT: WakeUp Timer interrupt 
2627:App/STM32F4-Discovery/Libraries/STM32F4xx_StdPeriph_Driver/src/stm32f4xx_rtc.c ****   *            @arg RTC_IT_ALRB: Alarm B interrupt 
2628:App/STM32F4-Discovery/Libraries/STM32F4xx_StdPeriph_Driver/src/stm32f4xx_rtc.c ****   *            @arg RTC_IT_ALRA: Alarm A interrupt 
2629:App/STM32F4-Discovery/Libraries/STM32F4xx_StdPeriph_Driver/src/stm32f4xx_rtc.c ****   *            @arg RTC_IT_TAMP1: Tamper 1 event interrupt 
2630:App/STM32F4-Discovery/Libraries/STM32F4xx_StdPeriph_Driver/src/stm32f4xx_rtc.c ****   * @retval The new state of RTC_IT (SET or RESET).
2631:App/STM32F4-Discovery/Libraries/STM32F4xx_StdPeriph_Driver/src/stm32f4xx_rtc.c ****   */
2632:App/STM32F4-Discovery/Libraries/STM32F4xx_StdPeriph_Driver/src/stm32f4xx_rtc.c **** ITStatus RTC_GetITStatus(uint32_t RTC_IT)
2633:App/STM32F4-Discovery/Libraries/STM32F4xx_StdPeriph_Driver/src/stm32f4xx_rtc.c **** {
 5717              		.loc 1 2633 0
 5718              		.cfi_startproc
 5719              		@ args = 0, pretend = 0, frame = 24
 5720              		@ frame_needed = 1, uses_anonymous_args = 0
 5721 0000 80B5     		push	{r7, lr}
 5722              	.LCFI155:
 5723              		.cfi_def_cfa_offset 8
 5724              		.cfi_offset 7, -8
 5725              		.cfi_offset 14, -4
 5726 0002 86B0     		sub	sp, sp, #24
 5727              	.LCFI156:
 5728              		.cfi_def_cfa_offset 32
 5729 0004 00AF     		add	r7, sp, #0
 5730              	.LCFI157:
 5731              		.cfi_def_cfa_register 7
 5732 0006 7860     		str	r0, [r7, #4]
2634:App/STM32F4-Discovery/Libraries/STM32F4xx_StdPeriph_Driver/src/stm32f4xx_rtc.c ****   ITStatus bitstatus = RESET;
 5733              		.loc 1 2634 0
 5734 0008 0023     		movs	r3, #0
 5735 000a FB75     		strb	r3, [r7, #23]
2635:App/STM32F4-Discovery/Libraries/STM32F4xx_StdPeriph_Driver/src/stm32f4xx_rtc.c ****   uint32_t tmpreg = 0, enablestatus = 0;
 5736              		.loc 1 2635 0
 5737 000c 0023     		movs	r3, #0
 5738 000e 3B61     		str	r3, [r7, #16]
 5739 0010 0023     		movs	r3, #0
 5740 0012 FB60     		str	r3, [r7, #12]
2636:App/STM32F4-Discovery/Libraries/STM32F4xx_StdPeriph_Driver/src/stm32f4xx_rtc.c ****  
2637:App/STM32F4-Discovery/Libraries/STM32F4xx_StdPeriph_Driver/src/stm32f4xx_rtc.c ****   /* Check the parameters */
2638:App/STM32F4-Discovery/Libraries/STM32F4xx_StdPeriph_Driver/src/stm32f4xx_rtc.c ****   assert_param(IS_RTC_GET_IT(RTC_IT));
 5741              		.loc 1 2638 0
 5742 0014 7B68     		ldr	r3, [r7, #4]
 5743 0016 B3F5004F 		cmp	r3, #32768
 5744 001a 14D0     		beq	.L377
 5745              		.loc 1 2638 0 is_stmt 0 discriminator 1
 5746 001c 7B68     		ldr	r3, [r7, #4]
 5747 001e B3F5804F 		cmp	r3, #16384
 5748 0022 10D0     		beq	.L377
 5749 0024 7B68     		ldr	r3, [r7, #4]
 5750 0026 B3F5005F 		cmp	r3, #8192
 5751 002a 0CD0     		beq	.L377
 5752 002c 7B68     		ldr	r3, [r7, #4]
 5753 002e B3F5805F 		cmp	r3, #4096
 5754 0032 08D0     		beq	.L377
 5755 0034 7B68     		ldr	r3, [r7, #4]
 5756 0036 B3F5003F 		cmp	r3, #131072
 5757 003a 04D0     		beq	.L377
 5758 003c 1548     		ldr	r0, .L381
 5759 003e 40F64E21 		movw	r1, #2638
 5760 0042 FFF7FEFF 		bl	assert_failed
 5761              	.L377:
2639:App/STM32F4-Discovery/Libraries/STM32F4xx_StdPeriph_Driver/src/stm32f4xx_rtc.c ****   
2640:App/STM32F4-Discovery/Libraries/STM32F4xx_StdPeriph_Driver/src/stm32f4xx_rtc.c ****   /* Get the TAMPER Interrupt enable bit and pending bit */
2641:App/STM32F4-Discovery/Libraries/STM32F4xx_StdPeriph_Driver/src/stm32f4xx_rtc.c ****   tmpreg = (uint32_t)(RTC->TAFCR & (RTC_TAFCR_TAMPIE));
 5762              		.loc 1 2641 0 is_stmt 1
 5763 0046 144B     		ldr	r3, .L381+4
 5764 0048 1B6C     		ldr	r3, [r3, #64]
 5765 004a 03F00403 		and	r3, r3, #4
 5766 004e 3B61     		str	r3, [r7, #16]
2642:App/STM32F4-Discovery/Libraries/STM32F4xx_StdPeriph_Driver/src/stm32f4xx_rtc.c ****  
2643:App/STM32F4-Discovery/Libraries/STM32F4xx_StdPeriph_Driver/src/stm32f4xx_rtc.c ****   /* Get the Interrupt enable Status */
2644:App/STM32F4-Discovery/Libraries/STM32F4xx_StdPeriph_Driver/src/stm32f4xx_rtc.c ****   enablestatus = (uint32_t)((RTC->CR & RTC_IT) | (tmpreg & (RTC_IT >> 15)));
 5767              		.loc 1 2644 0
 5768 0050 114B     		ldr	r3, .L381+4
 5769 0052 9A68     		ldr	r2, [r3, #8]
 5770 0054 7B68     		ldr	r3, [r7, #4]
 5771 0056 1A40     		ands	r2, r2, r3
 5772 0058 7B68     		ldr	r3, [r7, #4]
 5773 005a D90B     		lsrs	r1, r3, #15
 5774 005c 3B69     		ldr	r3, [r7, #16]
 5775 005e 0B40     		ands	r3, r3, r1
 5776 0060 1343     		orrs	r3, r3, r2
 5777 0062 FB60     		str	r3, [r7, #12]
2645:App/STM32F4-Discovery/Libraries/STM32F4xx_StdPeriph_Driver/src/stm32f4xx_rtc.c ****   
2646:App/STM32F4-Discovery/Libraries/STM32F4xx_StdPeriph_Driver/src/stm32f4xx_rtc.c ****   /* Get the Interrupt pending bit */
2647:App/STM32F4-Discovery/Libraries/STM32F4xx_StdPeriph_Driver/src/stm32f4xx_rtc.c ****   tmpreg = (uint32_t)((RTC->ISR & (uint32_t)(RTC_IT >> 4)));
 5778              		.loc 1 2647 0
 5779 0064 0C4B     		ldr	r3, .L381+4
 5780 0066 DA68     		ldr	r2, [r3, #12]
 5781 0068 7B68     		ldr	r3, [r7, #4]
 5782 006a 1B09     		lsrs	r3, r3, #4
 5783 006c 1340     		ands	r3, r3, r2
 5784 006e 3B61     		str	r3, [r7, #16]
2648:App/STM32F4-Discovery/Libraries/STM32F4xx_StdPeriph_Driver/src/stm32f4xx_rtc.c ****   
2649:App/STM32F4-Discovery/Libraries/STM32F4xx_StdPeriph_Driver/src/stm32f4xx_rtc.c ****   /* Get the status of the Interrupt */
2650:App/STM32F4-Discovery/Libraries/STM32F4xx_StdPeriph_Driver/src/stm32f4xx_rtc.c ****   if ((enablestatus != (uint32_t)RESET) && ((tmpreg & 0x0000FFFF) != (uint32_t)RESET))
 5785              		.loc 1 2650 0
 5786 0070 FB68     		ldr	r3, [r7, #12]
 5787 0072 002B     		cmp	r3, #0
 5788 0074 06D0     		beq	.L378
 5789              		.loc 1 2650 0 is_stmt 0 discriminator 1
 5790 0076 3B69     		ldr	r3, [r7, #16]
 5791 0078 9BB2     		uxth	r3, r3
 5792 007a 002B     		cmp	r3, #0
 5793 007c 02D0     		beq	.L378
2651:App/STM32F4-Discovery/Libraries/STM32F4xx_StdPeriph_Driver/src/stm32f4xx_rtc.c ****   {
2652:App/STM32F4-Discovery/Libraries/STM32F4xx_StdPeriph_Driver/src/stm32f4xx_rtc.c ****     bitstatus = SET;
 5794              		.loc 1 2652 0 is_stmt 1
 5795 007e 0123     		movs	r3, #1
 5796 0080 FB75     		strb	r3, [r7, #23]
 5797 0082 01E0     		b	.L379
 5798              	.L378:
2653:App/STM32F4-Discovery/Libraries/STM32F4xx_StdPeriph_Driver/src/stm32f4xx_rtc.c ****   }
2654:App/STM32F4-Discovery/Libraries/STM32F4xx_StdPeriph_Driver/src/stm32f4xx_rtc.c ****   else
2655:App/STM32F4-Discovery/Libraries/STM32F4xx_StdPeriph_Driver/src/stm32f4xx_rtc.c ****   {
2656:App/STM32F4-Discovery/Libraries/STM32F4xx_StdPeriph_Driver/src/stm32f4xx_rtc.c ****     bitstatus = RESET;
 5799              		.loc 1 2656 0
 5800 0084 0023     		movs	r3, #0
 5801 0086 FB75     		strb	r3, [r7, #23]
 5802              	.L379:
2657:App/STM32F4-Discovery/Libraries/STM32F4xx_StdPeriph_Driver/src/stm32f4xx_rtc.c ****   }
2658:App/STM32F4-Discovery/Libraries/STM32F4xx_StdPeriph_Driver/src/stm32f4xx_rtc.c ****   return bitstatus;
 5803              		.loc 1 2658 0
 5804 0088 FB7D     		ldrb	r3, [r7, #23]	@ zero_extendqisi2
2659:App/STM32F4-Discovery/Libraries/STM32F4xx_StdPeriph_Driver/src/stm32f4xx_rtc.c **** }
 5805              		.loc 1 2659 0
 5806 008a 1846     		mov	r0, r3
 5807 008c 1837     		adds	r7, r7, #24
 5808 008e BD46     		mov	sp, r7
 5809              		@ sp needed
 5810 0090 80BD     		pop	{r7, pc}
 5811              	.L382:
 5812 0092 00BF     		.align	2
 5813              	.L381:
 5814 0094 00000000 		.word	.LC0
 5815 0098 00280040 		.word	1073752064
 5816              		.cfi_endproc
 5817              	.LFE163:
 5819              		.section	.text.RTC_ClearITPendingBit,"ax",%progbits
 5820              		.align	2
 5821              		.global	RTC_ClearITPendingBit
 5822              		.thumb
 5823              		.thumb_func
 5825              	RTC_ClearITPendingBit:
 5826              	.LFB164:
2660:App/STM32F4-Discovery/Libraries/STM32F4xx_StdPeriph_Driver/src/stm32f4xx_rtc.c **** 
2661:App/STM32F4-Discovery/Libraries/STM32F4xx_StdPeriph_Driver/src/stm32f4xx_rtc.c **** /**
2662:App/STM32F4-Discovery/Libraries/STM32F4xx_StdPeriph_Driver/src/stm32f4xx_rtc.c ****   * @brief  Clears the RTC's interrupt pending bits.
2663:App/STM32F4-Discovery/Libraries/STM32F4xx_StdPeriph_Driver/src/stm32f4xx_rtc.c ****   * @param  RTC_IT: specifies the RTC interrupt pending bit to clear.
2664:App/STM32F4-Discovery/Libraries/STM32F4xx_StdPeriph_Driver/src/stm32f4xx_rtc.c ****   *          This parameter can be any combination of the following values:
2665:App/STM32F4-Discovery/Libraries/STM32F4xx_StdPeriph_Driver/src/stm32f4xx_rtc.c ****   *            @arg RTC_IT_TS: Time Stamp interrupt 
2666:App/STM32F4-Discovery/Libraries/STM32F4xx_StdPeriph_Driver/src/stm32f4xx_rtc.c ****   *            @arg RTC_IT_WUT: WakeUp Timer interrupt 
2667:App/STM32F4-Discovery/Libraries/STM32F4xx_StdPeriph_Driver/src/stm32f4xx_rtc.c ****   *            @arg RTC_IT_ALRB: Alarm B interrupt 
2668:App/STM32F4-Discovery/Libraries/STM32F4xx_StdPeriph_Driver/src/stm32f4xx_rtc.c ****   *            @arg RTC_IT_ALRA: Alarm A interrupt 
2669:App/STM32F4-Discovery/Libraries/STM32F4xx_StdPeriph_Driver/src/stm32f4xx_rtc.c ****   *            @arg RTC_IT_TAMP1: Tamper 1 event interrupt 
2670:App/STM32F4-Discovery/Libraries/STM32F4xx_StdPeriph_Driver/src/stm32f4xx_rtc.c ****   * @retval None
2671:App/STM32F4-Discovery/Libraries/STM32F4xx_StdPeriph_Driver/src/stm32f4xx_rtc.c ****   */
2672:App/STM32F4-Discovery/Libraries/STM32F4xx_StdPeriph_Driver/src/stm32f4xx_rtc.c **** void RTC_ClearITPendingBit(uint32_t RTC_IT)
2673:App/STM32F4-Discovery/Libraries/STM32F4xx_StdPeriph_Driver/src/stm32f4xx_rtc.c **** {
 5827              		.loc 1 2673 0
 5828              		.cfi_startproc
 5829              		@ args = 0, pretend = 0, frame = 16
 5830              		@ frame_needed = 1, uses_anonymous_args = 0
 5831 0000 80B5     		push	{r7, lr}
 5832              	.LCFI158:
 5833              		.cfi_def_cfa_offset 8
 5834              		.cfi_offset 7, -8
 5835              		.cfi_offset 14, -4
 5836 0002 84B0     		sub	sp, sp, #16
 5837              	.LCFI159:
 5838              		.cfi_def_cfa_offset 24
 5839 0004 00AF     		add	r7, sp, #0
 5840              	.LCFI160:
 5841              		.cfi_def_cfa_register 7
 5842 0006 7860     		str	r0, [r7, #4]
2674:App/STM32F4-Discovery/Libraries/STM32F4xx_StdPeriph_Driver/src/stm32f4xx_rtc.c ****   uint32_t tmpreg = 0;
 5843              		.loc 1 2674 0
 5844 0008 0023     		movs	r3, #0
 5845 000a FB60     		str	r3, [r7, #12]
2675:App/STM32F4-Discovery/Libraries/STM32F4xx_StdPeriph_Driver/src/stm32f4xx_rtc.c **** 
2676:App/STM32F4-Discovery/Libraries/STM32F4xx_StdPeriph_Driver/src/stm32f4xx_rtc.c ****   /* Check the parameters */
2677:App/STM32F4-Discovery/Libraries/STM32F4xx_StdPeriph_Driver/src/stm32f4xx_rtc.c ****   assert_param(IS_RTC_CLEAR_IT(RTC_IT));
 5846              		.loc 1 2677 0
 5847 000c 7B68     		ldr	r3, [r7, #4]
 5848 000e 002B     		cmp	r3, #0
 5849 0010 04D0     		beq	.L384
 5850              		.loc 1 2677 0 is_stmt 0 discriminator 2
 5851 0012 7B68     		ldr	r3, [r7, #4]
 5852 0014 23F43C33 		bic	r3, r3, #192512
 5853 0018 002B     		cmp	r3, #0
 5854 001a 04D0     		beq	.L385
 5855              	.L384:
 5856              		.loc 1 2677 0 discriminator 1
 5857 001c 0B48     		ldr	r0, .L386
 5858 001e 40F67521 		movw	r1, #2677
 5859 0022 FFF7FEFF 		bl	assert_failed
 5860              	.L385:
2678:App/STM32F4-Discovery/Libraries/STM32F4xx_StdPeriph_Driver/src/stm32f4xx_rtc.c **** 
2679:App/STM32F4-Discovery/Libraries/STM32F4xx_StdPeriph_Driver/src/stm32f4xx_rtc.c ****   /* Get the RTC_ISR Interrupt pending bits mask */
2680:App/STM32F4-Discovery/Libraries/STM32F4xx_StdPeriph_Driver/src/stm32f4xx_rtc.c ****   tmpreg = (uint32_t)(RTC_IT >> 4);
 5861              		.loc 1 2680 0 is_stmt 1
 5862 0026 7B68     		ldr	r3, [r7, #4]
 5863 0028 1B09     		lsrs	r3, r3, #4
 5864 002a FB60     		str	r3, [r7, #12]
2681:App/STM32F4-Discovery/Libraries/STM32F4xx_StdPeriph_Driver/src/stm32f4xx_rtc.c **** 
2682:App/STM32F4-Discovery/Libraries/STM32F4xx_StdPeriph_Driver/src/stm32f4xx_rtc.c ****   /* Clear the interrupt pending bits in the RTC_ISR register */
2683:App/STM32F4-Discovery/Libraries/STM32F4xx_StdPeriph_Driver/src/stm32f4xx_rtc.c ****   RTC->ISR = (uint32_t)((uint32_t)(~((tmpreg | RTC_ISR_INIT)& 0x0000FFFF) | (uint32_t)(RTC->ISR & R
 5865              		.loc 1 2683 0
 5866 002c 084B     		ldr	r3, .L386+4
 5867 002e FA68     		ldr	r2, [r7, #12]
 5868 0030 92B2     		uxth	r2, r2
 5869 0032 42F08002 		orr	r2, r2, #128
 5870 0036 D143     		mvns	r1, r2
 5871 0038 054A     		ldr	r2, .L386+4
 5872 003a D268     		ldr	r2, [r2, #12]
 5873 003c 02F08002 		and	r2, r2, #128
 5874 0040 0A43     		orrs	r2, r2, r1
 5875 0042 DA60     		str	r2, [r3, #12]
2684:App/STM32F4-Discovery/Libraries/STM32F4xx_StdPeriph_Driver/src/stm32f4xx_rtc.c **** }
 5876              		.loc 1 2684 0
 5877 0044 1037     		adds	r7, r7, #16
 5878 0046 BD46     		mov	sp, r7
 5879              		@ sp needed
 5880 0048 80BD     		pop	{r7, pc}
 5881              	.L387:
 5882 004a 00BF     		.align	2
 5883              	.L386:
 5884 004c 00000000 		.word	.LC0
 5885 0050 00280040 		.word	1073752064
 5886              		.cfi_endproc
 5887              	.LFE164:
 5889              		.section	.text.RTC_ByteToBcd2,"ax",%progbits
 5890              		.align	2
 5891              		.thumb
 5892              		.thumb_func
 5894              	RTC_ByteToBcd2:
 5895              	.LFB165:
2685:App/STM32F4-Discovery/Libraries/STM32F4xx_StdPeriph_Driver/src/stm32f4xx_rtc.c **** 
2686:App/STM32F4-Discovery/Libraries/STM32F4xx_StdPeriph_Driver/src/stm32f4xx_rtc.c **** /**
2687:App/STM32F4-Discovery/Libraries/STM32F4xx_StdPeriph_Driver/src/stm32f4xx_rtc.c ****   * @}
2688:App/STM32F4-Discovery/Libraries/STM32F4xx_StdPeriph_Driver/src/stm32f4xx_rtc.c ****   */
2689:App/STM32F4-Discovery/Libraries/STM32F4xx_StdPeriph_Driver/src/stm32f4xx_rtc.c **** 
2690:App/STM32F4-Discovery/Libraries/STM32F4xx_StdPeriph_Driver/src/stm32f4xx_rtc.c **** /**
2691:App/STM32F4-Discovery/Libraries/STM32F4xx_StdPeriph_Driver/src/stm32f4xx_rtc.c ****   * @brief  Converts a 2 digit decimal to BCD format.
2692:App/STM32F4-Discovery/Libraries/STM32F4xx_StdPeriph_Driver/src/stm32f4xx_rtc.c ****   * @param  Value: Byte to be converted.
2693:App/STM32F4-Discovery/Libraries/STM32F4xx_StdPeriph_Driver/src/stm32f4xx_rtc.c ****   * @retval Converted byte
2694:App/STM32F4-Discovery/Libraries/STM32F4xx_StdPeriph_Driver/src/stm32f4xx_rtc.c ****   */
2695:App/STM32F4-Discovery/Libraries/STM32F4xx_StdPeriph_Driver/src/stm32f4xx_rtc.c **** static uint8_t RTC_ByteToBcd2(uint8_t Value)
2696:App/STM32F4-Discovery/Libraries/STM32F4xx_StdPeriph_Driver/src/stm32f4xx_rtc.c **** {
 5896              		.loc 1 2696 0
 5897              		.cfi_startproc
 5898              		@ args = 0, pretend = 0, frame = 16
 5899              		@ frame_needed = 1, uses_anonymous_args = 0
 5900              		@ link register save eliminated.
 5901 0000 80B4     		push	{r7}
 5902              	.LCFI161:
 5903              		.cfi_def_cfa_offset 4
 5904              		.cfi_offset 7, -4
 5905 0002 85B0     		sub	sp, sp, #20
 5906              	.LCFI162:
 5907              		.cfi_def_cfa_offset 24
 5908 0004 00AF     		add	r7, sp, #0
 5909              	.LCFI163:
 5910              		.cfi_def_cfa_register 7
 5911 0006 0346     		mov	r3, r0
 5912 0008 FB71     		strb	r3, [r7, #7]
2697:App/STM32F4-Discovery/Libraries/STM32F4xx_StdPeriph_Driver/src/stm32f4xx_rtc.c ****   uint8_t bcdhigh = 0;
 5913              		.loc 1 2697 0
 5914 000a 0023     		movs	r3, #0
 5915 000c FB73     		strb	r3, [r7, #15]
2698:App/STM32F4-Discovery/Libraries/STM32F4xx_StdPeriph_Driver/src/stm32f4xx_rtc.c ****   
2699:App/STM32F4-Discovery/Libraries/STM32F4xx_StdPeriph_Driver/src/stm32f4xx_rtc.c ****   while (Value >= 10)
 5916              		.loc 1 2699 0
 5917 000e 05E0     		b	.L389
 5918              	.L390:
2700:App/STM32F4-Discovery/Libraries/STM32F4xx_StdPeriph_Driver/src/stm32f4xx_rtc.c ****   {
2701:App/STM32F4-Discovery/Libraries/STM32F4xx_StdPeriph_Driver/src/stm32f4xx_rtc.c ****     bcdhigh++;
 5919              		.loc 1 2701 0
 5920 0010 FB7B     		ldrb	r3, [r7, #15]	@ zero_extendqisi2
 5921 0012 0133     		adds	r3, r3, #1
 5922 0014 FB73     		strb	r3, [r7, #15]
2702:App/STM32F4-Discovery/Libraries/STM32F4xx_StdPeriph_Driver/src/stm32f4xx_rtc.c ****     Value -= 10;
 5923              		.loc 1 2702 0
 5924 0016 FB79     		ldrb	r3, [r7, #7]
 5925 0018 0A3B     		subs	r3, r3, #10
 5926 001a FB71     		strb	r3, [r7, #7]
 5927              	.L389:
2699:App/STM32F4-Discovery/Libraries/STM32F4xx_StdPeriph_Driver/src/stm32f4xx_rtc.c ****   while (Value >= 10)
 5928              		.loc 1 2699 0 discriminator 1
 5929 001c FB79     		ldrb	r3, [r7, #7]	@ zero_extendqisi2
 5930 001e 092B     		cmp	r3, #9
 5931 0020 F6D8     		bhi	.L390
2703:App/STM32F4-Discovery/Libraries/STM32F4xx_StdPeriph_Driver/src/stm32f4xx_rtc.c ****   }
2704:App/STM32F4-Discovery/Libraries/STM32F4xx_StdPeriph_Driver/src/stm32f4xx_rtc.c ****   
2705:App/STM32F4-Discovery/Libraries/STM32F4xx_StdPeriph_Driver/src/stm32f4xx_rtc.c ****   return  ((uint8_t)(bcdhigh << 4) | Value);
 5932              		.loc 1 2705 0
 5933 0022 FB7B     		ldrb	r3, [r7, #15]
 5934 0024 1B01     		lsls	r3, r3, #4
 5935 0026 DAB2     		uxtb	r2, r3
 5936 0028 FB79     		ldrb	r3, [r7, #7]
 5937 002a 1343     		orrs	r3, r3, r2
 5938 002c DBB2     		uxtb	r3, r3
2706:App/STM32F4-Discovery/Libraries/STM32F4xx_StdPeriph_Driver/src/stm32f4xx_rtc.c **** }
 5939              		.loc 1 2706 0
 5940 002e 1846     		mov	r0, r3
 5941 0030 1437     		adds	r7, r7, #20
 5942 0032 BD46     		mov	sp, r7
 5943              		@ sp needed
 5944 0034 5DF8047B 		ldr	r7, [sp], #4
 5945 0038 7047     		bx	lr
 5946              		.cfi_endproc
 5947              	.LFE165:
 5949 003a 00BF     		.section	.text.RTC_Bcd2ToByte,"ax",%progbits
 5950              		.align	2
 5951              		.thumb
 5952              		.thumb_func
 5954              	RTC_Bcd2ToByte:
 5955              	.LFB166:
2707:App/STM32F4-Discovery/Libraries/STM32F4xx_StdPeriph_Driver/src/stm32f4xx_rtc.c **** 
2708:App/STM32F4-Discovery/Libraries/STM32F4xx_StdPeriph_Driver/src/stm32f4xx_rtc.c **** /**
2709:App/STM32F4-Discovery/Libraries/STM32F4xx_StdPeriph_Driver/src/stm32f4xx_rtc.c ****   * @brief  Convert from 2 digit BCD to Binary.
2710:App/STM32F4-Discovery/Libraries/STM32F4xx_StdPeriph_Driver/src/stm32f4xx_rtc.c ****   * @param  Value: BCD value to be converted.
2711:App/STM32F4-Discovery/Libraries/STM32F4xx_StdPeriph_Driver/src/stm32f4xx_rtc.c ****   * @retval Converted word
2712:App/STM32F4-Discovery/Libraries/STM32F4xx_StdPeriph_Driver/src/stm32f4xx_rtc.c ****   */
2713:App/STM32F4-Discovery/Libraries/STM32F4xx_StdPeriph_Driver/src/stm32f4xx_rtc.c **** static uint8_t RTC_Bcd2ToByte(uint8_t Value)
2714:App/STM32F4-Discovery/Libraries/STM32F4xx_StdPeriph_Driver/src/stm32f4xx_rtc.c **** {
 5956              		.loc 1 2714 0
 5957              		.cfi_startproc
 5958              		@ args = 0, pretend = 0, frame = 16
 5959              		@ frame_needed = 1, uses_anonymous_args = 0
 5960              		@ link register save eliminated.
 5961 0000 80B4     		push	{r7}
 5962              	.LCFI164:
 5963              		.cfi_def_cfa_offset 4
 5964              		.cfi_offset 7, -4
 5965 0002 85B0     		sub	sp, sp, #20
 5966              	.LCFI165:
 5967              		.cfi_def_cfa_offset 24
 5968 0004 00AF     		add	r7, sp, #0
 5969              	.LCFI166:
 5970              		.cfi_def_cfa_register 7
 5971 0006 0346     		mov	r3, r0
 5972 0008 FB71     		strb	r3, [r7, #7]
2715:App/STM32F4-Discovery/Libraries/STM32F4xx_StdPeriph_Driver/src/stm32f4xx_rtc.c ****   uint8_t tmp = 0;
 5973              		.loc 1 2715 0
 5974 000a 0023     		movs	r3, #0
 5975 000c FB73     		strb	r3, [r7, #15]
2716:App/STM32F4-Discovery/Libraries/STM32F4xx_StdPeriph_Driver/src/stm32f4xx_rtc.c ****   tmp = ((uint8_t)(Value & (uint8_t)0xF0) >> (uint8_t)0x4) * 10;
 5976              		.loc 1 2716 0
 5977 000e FB79     		ldrb	r3, [r7, #7]	@ zero_extendqisi2
 5978 0010 1B09     		lsrs	r3, r3, #4
 5979 0012 DBB2     		uxtb	r3, r3
 5980 0014 1A46     		mov	r2, r3
 5981 0016 9200     		lsls	r2, r2, #2
 5982 0018 1344     		add	r3, r3, r2
 5983 001a 5B00     		lsls	r3, r3, #1
 5984 001c FB73     		strb	r3, [r7, #15]
2717:App/STM32F4-Discovery/Libraries/STM32F4xx_StdPeriph_Driver/src/stm32f4xx_rtc.c ****   return (tmp + (Value & (uint8_t)0x0F));
 5985              		.loc 1 2717 0
 5986 001e FB79     		ldrb	r3, [r7, #7]
 5987 0020 03F00F03 		and	r3, r3, #15
 5988 0024 DAB2     		uxtb	r2, r3
 5989 0026 FB7B     		ldrb	r3, [r7, #15]
 5990 0028 1344     		add	r3, r3, r2
 5991 002a DBB2     		uxtb	r3, r3
2718:App/STM32F4-Discovery/Libraries/STM32F4xx_StdPeriph_Driver/src/stm32f4xx_rtc.c **** }
 5992              		.loc 1 2718 0
 5993 002c 1846     		mov	r0, r3
 5994 002e 1437     		adds	r7, r7, #20
 5995 0030 BD46     		mov	sp, r7
 5996              		@ sp needed
 5997 0032 5DF8047B 		ldr	r7, [sp], #4
 5998 0036 7047     		bx	lr
 5999              		.cfi_endproc
 6000              	.LFE166:
 6002              		.text
 6003              	.Letext0:
 6004              		.file 2 "/home/shihyu/data/STM32F4/gcc-arm-none-eabi-4_8-2013q4/arm-none-eabi/include/stdint.h"
 6005              		.file 3 "App/STM32F4-Discovery/Libraries/CMSIS/ST/STM32F4xx/Include/stm32f4xx.h"
 6006              		.file 4 "App/STM32F4-Discovery/Libraries/STM32F4xx_StdPeriph_Driver/inc/stm32f4xx_rtc.h"
 6007              		.file 5 "App/STM32F4-Discovery/Libraries/CMSIS/Include/core_cm4.h"
DEFINED SYMBOLS
                            *ABS*:00000000 stm32f4xx_rtc.c
     /tmp/ccHWSL8g.s:20     .text.RTC_DeInit:00000000 $t
     /tmp/ccHWSL8g.s:25     .text.RTC_DeInit:00000000 RTC_DeInit
     /tmp/ccHWSL8g.s:439    .text.RTC_EnterInitMode:00000000 RTC_EnterInitMode
     /tmp/ccHWSL8g.s:573    .text.RTC_WaitForSynchro:00000000 RTC_WaitForSynchro
     /tmp/ccHWSL8g.s:176    .text.RTC_DeInit:000000d4 $d
     /tmp/ccHWSL8g.s:182    .rodata:00000000 $d
     /tmp/ccHWSL8g.s:187    .text.RTC_Init:00000000 $t
     /tmp/ccHWSL8g.s:192    .text.RTC_Init:00000000 RTC_Init
     /tmp/ccHWSL8g.s:535    .text.RTC_ExitInitMode:00000000 RTC_ExitInitMode
     /tmp/ccHWSL8g.s:314    .text.RTC_Init:000000b4 $d
     /tmp/ccHWSL8g.s:320    .text.RTC_StructInit:00000000 $t
     /tmp/ccHWSL8g.s:325    .text.RTC_StructInit:00000000 RTC_StructInit
     /tmp/ccHWSL8g.s:365    .text.RTC_WriteProtectionCmd:00000000 $t
     /tmp/ccHWSL8g.s:370    .text.RTC_WriteProtectionCmd:00000000 RTC_WriteProtectionCmd
     /tmp/ccHWSL8g.s:428    .text.RTC_WriteProtectionCmd:00000040 $d
     /tmp/ccHWSL8g.s:434    .text.RTC_EnterInitMode:00000000 $t
     /tmp/ccHWSL8g.s:525    .text.RTC_EnterInitMode:00000070 $d
     /tmp/ccHWSL8g.s:530    .text.RTC_ExitInitMode:00000000 $t
     /tmp/ccHWSL8g.s:563    .text.RTC_ExitInitMode:00000018 $d
     /tmp/ccHWSL8g.s:568    .text.RTC_WaitForSynchro:00000000 $t
     /tmp/ccHWSL8g.s:662    .text.RTC_WaitForSynchro:00000074 $d
     /tmp/ccHWSL8g.s:667    .text.RTC_RefClockCmd:00000000 $t
     /tmp/ccHWSL8g.s:672    .text.RTC_RefClockCmd:00000000 RTC_RefClockCmd
     /tmp/ccHWSL8g.s:764    .text.RTC_RefClockCmd:00000078 $d
     /tmp/ccHWSL8g.s:770    .text.RTC_BypassShadowCmd:00000000 $t
     /tmp/ccHWSL8g.s:775    .text.RTC_BypassShadowCmd:00000000 RTC_BypassShadowCmd
     /tmp/ccHWSL8g.s:845    .text.RTC_BypassShadowCmd:00000058 $d
     /tmp/ccHWSL8g.s:851    .text.RTC_SetTime:00000000 $t
     /tmp/ccHWSL8g.s:856    .text.RTC_SetTime:00000000 RTC_SetTime
     /tmp/ccHWSL8g.s:5954   .text.RTC_Bcd2ToByte:00000000 RTC_Bcd2ToByte
     /tmp/ccHWSL8g.s:5894   .text.RTC_ByteToBcd2:00000000 RTC_ByteToBcd2
     /tmp/ccHWSL8g.s:1170   .text.RTC_SetTime:00000200 $d
     /tmp/ccHWSL8g.s:1176   .text.RTC_TimeStructInit:00000000 $t
     /tmp/ccHWSL8g.s:1181   .text.RTC_TimeStructInit:00000000 RTC_TimeStructInit
     /tmp/ccHWSL8g.s:1225   .text.RTC_GetTime:00000000 $t
     /tmp/ccHWSL8g.s:1230   .text.RTC_GetTime:00000000 RTC_GetTime
     /tmp/ccHWSL8g.s:1338   .text.RTC_GetTime:000000ac $d
     /tmp/ccHWSL8g.s:1344   .text.RTC_GetSubSecond:00000000 $t
     /tmp/ccHWSL8g.s:1349   .text.RTC_GetSubSecond:00000000 RTC_GetSubSecond
     /tmp/ccHWSL8g.s:1388   .text.RTC_GetSubSecond:00000024 $d
     /tmp/ccHWSL8g.s:1393   .text.RTC_SetDate:00000000 $t
     /tmp/ccHWSL8g.s:1398   .text.RTC_SetDate:00000000 RTC_SetDate
     /tmp/ccHWSL8g.s:1707   .text.RTC_SetDate:000001f0 $d
     /tmp/ccHWSL8g.s:1713   .text.RTC_DateStructInit:00000000 $t
     /tmp/ccHWSL8g.s:1718   .text.RTC_DateStructInit:00000000 RTC_DateStructInit
     /tmp/ccHWSL8g.s:1762   .text.RTC_GetDate:00000000 $t
     /tmp/ccHWSL8g.s:1767   .text.RTC_GetDate:00000000 RTC_GetDate
     /tmp/ccHWSL8g.s:1875   .text.RTC_GetDate:000000ac $d
     /tmp/ccHWSL8g.s:1881   .text.RTC_SetAlarm:00000000 $t
     /tmp/ccHWSL8g.s:1886   .text.RTC_SetAlarm:00000000 RTC_SetAlarm
     /tmp/ccHWSL8g.s:2283   .text.RTC_SetAlarm:000002b8 $d
     /tmp/ccHWSL8g.s:2287   .text.RTC_SetAlarm:000002c0 $t
     /tmp/ccHWSL8g.s:2372   .text.RTC_SetAlarm:00000348 $d
     /tmp/ccHWSL8g.s:2377   .text.RTC_AlarmStructInit:00000000 $t
     /tmp/ccHWSL8g.s:2382   .text.RTC_AlarmStructInit:00000000 RTC_AlarmStructInit
     /tmp/ccHWSL8g.s:2438   .text.RTC_GetAlarm:00000000 $t
     /tmp/ccHWSL8g.s:2443   .text.RTC_GetAlarm:00000000 RTC_GetAlarm
     /tmp/ccHWSL8g.s:2599   .text.RTC_GetAlarm:00000104 $d
     /tmp/ccHWSL8g.s:2605   .text.RTC_AlarmCmd:00000000 $t
     /tmp/ccHWSL8g.s:2610   .text.RTC_AlarmCmd:00000000 RTC_AlarmCmd
     /tmp/ccHWSL8g.s:2745   .text.RTC_AlarmCmd:000000bc $d
     /tmp/ccHWSL8g.s:2751   .text.RTC_AlarmSubSecondConfig:00000000 $t
     /tmp/ccHWSL8g.s:2756   .text.RTC_AlarmSubSecondConfig:00000000 RTC_AlarmSubSecondConfig
     /tmp/ccHWSL8g.s:2894   .text.RTC_AlarmSubSecondConfig:000000fc $d
     /tmp/ccHWSL8g.s:2900   .text.RTC_GetAlarmSubSecond:00000000 $t
     /tmp/ccHWSL8g.s:2905   .text.RTC_GetAlarmSubSecond:00000000 RTC_GetAlarmSubSecond
     /tmp/ccHWSL8g.s:2955   .text.RTC_GetAlarmSubSecond:00000038 $d
     /tmp/ccHWSL8g.s:2960   .text.RTC_WakeUpClockConfig:00000000 $t
     /tmp/ccHWSL8g.s:2965   .text.RTC_WakeUpClockConfig:00000000 RTC_WakeUpClockConfig
     /tmp/ccHWSL8g.s:3040   .text.RTC_WakeUpClockConfig:00000068 $d
     /tmp/ccHWSL8g.s:3046   .text.RTC_SetWakeUpCounter:00000000 $t
     /tmp/ccHWSL8g.s:3051   .text.RTC_SetWakeUpCounter:00000000 RTC_SetWakeUpCounter
     /tmp/ccHWSL8g.s:3102   .text.RTC_SetWakeUpCounter:00000038 $d
     /tmp/ccHWSL8g.s:3108   .text.RTC_GetWakeUpCounter:00000000 $t
     /tmp/ccHWSL8g.s:3113   .text.RTC_GetWakeUpCounter:00000000 RTC_GetWakeUpCounter
     /tmp/ccHWSL8g.s:3140   .text.RTC_GetWakeUpCounter:00000014 $d
     /tmp/ccHWSL8g.s:3145   .text.RTC_WakeUpCmd:00000000 $t
     /tmp/ccHWSL8g.s:3150   .text.RTC_WakeUpCmd:00000000 RTC_WakeUpCmd
     /tmp/ccHWSL8g.s:3267   .text.RTC_WakeUpCmd:000000a0 $d
     /tmp/ccHWSL8g.s:3273   .text.RTC_DayLightSavingConfig:00000000 $t
     /tmp/ccHWSL8g.s:3278   .text.RTC_DayLightSavingConfig:00000000 RTC_DayLightSavingConfig
     /tmp/ccHWSL8g.s:3356   .text.RTC_DayLightSavingConfig:00000070 $d
     /tmp/ccHWSL8g.s:3362   .text.RTC_GetStoreOperation:00000000 $t
     /tmp/ccHWSL8g.s:3367   .text.RTC_GetStoreOperation:00000000 RTC_GetStoreOperation
     /tmp/ccHWSL8g.s:3394   .text.RTC_GetStoreOperation:00000018 $d
     /tmp/ccHWSL8g.s:3399   .text.RTC_OutputConfig:00000000 $t
     /tmp/ccHWSL8g.s:3404   .text.RTC_OutputConfig:00000000 RTC_OutputConfig
     /tmp/ccHWSL8g.s:3488   .text.RTC_OutputConfig:00000080 $d
     /tmp/ccHWSL8g.s:3494   .text.RTC_CoarseCalibConfig:00000000 $t
     /tmp/ccHWSL8g.s:3499   .text.RTC_CoarseCalibConfig:00000000 RTC_CoarseCalibConfig
     /tmp/ccHWSL8g.s:3587   .text.RTC_CoarseCalibConfig:00000074 $d
     /tmp/ccHWSL8g.s:3593   .text.RTC_CoarseCalibCmd:00000000 $t
     /tmp/ccHWSL8g.s:3598   .text.RTC_CoarseCalibCmd:00000000 RTC_CoarseCalibCmd
     /tmp/ccHWSL8g.s:3690   .text.RTC_CoarseCalibCmd:00000078 $d
     /tmp/ccHWSL8g.s:3696   .text.RTC_CalibOutputCmd:00000000 $t
     /tmp/ccHWSL8g.s:3701   .text.RTC_CalibOutputCmd:00000000 RTC_CalibOutputCmd
     /tmp/ccHWSL8g.s:3771   .text.RTC_CalibOutputCmd:00000058 $d
     /tmp/ccHWSL8g.s:3777   .text.RTC_CalibOutputConfig:00000000 $t
     /tmp/ccHWSL8g.s:3782   .text.RTC_CalibOutputConfig:00000000 RTC_CalibOutputConfig
     /tmp/ccHWSL8g.s:3845   .text.RTC_CalibOutputConfig:00000050 $d
     /tmp/ccHWSL8g.s:3851   .text.RTC_SmoothCalibConfig:00000000 $t
     /tmp/ccHWSL8g.s:3856   .text.RTC_SmoothCalibConfig:00000000 RTC_SmoothCalibConfig
     /tmp/ccHWSL8g.s:3989   .text.RTC_SmoothCalibConfig:000000c8 $d
     /tmp/ccHWSL8g.s:3995   .text.RTC_TimeStampCmd:00000000 $t
     /tmp/ccHWSL8g.s:4000   .text.RTC_TimeStampCmd:00000000 RTC_TimeStampCmd
     /tmp/ccHWSL8g.s:4095   .text.RTC_TimeStampCmd:00000084 $d
     /tmp/ccHWSL8g.s:4101   .text.RTC_GetTimeStamp:00000000 $t
     /tmp/ccHWSL8g.s:4106   .text.RTC_GetTimeStamp:00000000 RTC_GetTimeStamp
     /tmp/ccHWSL8g.s:4275   .text.RTC_GetTimeStamp:00000128 $d
     /tmp/ccHWSL8g.s:4281   .text.RTC_GetTimeStampSubSecond:00000000 $t
     /tmp/ccHWSL8g.s:4286   .text.RTC_GetTimeStampSubSecond:00000000 RTC_GetTimeStampSubSecond
     /tmp/ccHWSL8g.s:4312   .text.RTC_GetTimeStampSubSecond:00000014 $d
     /tmp/ccHWSL8g.s:4317   .text.RTC_TamperTriggerConfig:00000000 $t
     /tmp/ccHWSL8g.s:4322   .text.RTC_TamperTriggerConfig:00000000 RTC_TamperTriggerConfig
     /tmp/ccHWSL8g.s:4400   .text.RTC_TamperTriggerConfig:00000068 $d
     /tmp/ccHWSL8g.s:4406   .text.RTC_TamperCmd:00000000 $t
     /tmp/ccHWSL8g.s:4411   .text.RTC_TamperCmd:00000000 RTC_TamperCmd
     /tmp/ccHWSL8g.s:4482   .text.RTC_TamperCmd:0000005c $d
     /tmp/ccHWSL8g.s:4488   .text.RTC_TamperFilterConfig:00000000 $t
     /tmp/ccHWSL8g.s:4493   .text.RTC_TamperFilterConfig:00000000 RTC_TamperFilterConfig
     /tmp/ccHWSL8g.s:4550   .text.RTC_TamperFilterConfig:00000050 $d
     /tmp/ccHWSL8g.s:4556   .text.RTC_TamperSamplingFreqConfig:00000000 $t
     /tmp/ccHWSL8g.s:4561   .text.RTC_TamperSamplingFreqConfig:00000000 RTC_TamperSamplingFreqConfig
     /tmp/ccHWSL8g.s:4630   .text.RTC_TamperSamplingFreqConfig:00000070 $d
     /tmp/ccHWSL8g.s:4636   .text.RTC_TamperPinsPrechargeDuration:00000000 $t
     /tmp/ccHWSL8g.s:4641   .text.RTC_TamperPinsPrechargeDuration:00000000 RTC_TamperPinsPrechargeDuration
     /tmp/ccHWSL8g.s:4698   .text.RTC_TamperPinsPrechargeDuration:00000050 $d
     /tmp/ccHWSL8g.s:4704   .text.RTC_TimeStampOnTamperDetectionCmd:00000000 $t
     /tmp/ccHWSL8g.s:4709   .text.RTC_TimeStampOnTamperDetectionCmd:00000000 RTC_TimeStampOnTamperDetectionCmd
     /tmp/ccHWSL8g.s:4767   .text.RTC_TimeStampOnTamperDetectionCmd:00000048 $d
     /tmp/ccHWSL8g.s:4773   .text.RTC_TamperPullUpCmd:00000000 $t
     /tmp/ccHWSL8g.s:4778   .text.RTC_TamperPullUpCmd:00000000 RTC_TamperPullUpCmd
     /tmp/ccHWSL8g.s:4836   .text.RTC_TamperPullUpCmd:00000048 $d
     /tmp/ccHWSL8g.s:4842   .text.RTC_WriteBackupRegister:00000000 $t
     /tmp/ccHWSL8g.s:4847   .text.RTC_WriteBackupRegister:00000000 RTC_WriteBackupRegister
     /tmp/ccHWSL8g.s:4956   .text.RTC_WriteBackupRegister:000000ac $d
     /tmp/ccHWSL8g.s:4962   .text.RTC_ReadBackupRegister:00000000 $t
     /tmp/ccHWSL8g.s:4967   .text.RTC_ReadBackupRegister:00000000 RTC_ReadBackupRegister
     /tmp/ccHWSL8g.s:5075   .text.RTC_ReadBackupRegister:000000a8 $d
     /tmp/ccHWSL8g.s:5081   .text.RTC_TamperPinSelection:00000000 $t
     /tmp/ccHWSL8g.s:5086   .text.RTC_TamperPinSelection:00000000 RTC_TamperPinSelection
     /tmp/ccHWSL8g.s:5137   .text.RTC_TamperPinSelection:00000040 $d
     /tmp/ccHWSL8g.s:5143   .text.RTC_TimeStampPinSelection:00000000 $t
     /tmp/ccHWSL8g.s:5148   .text.RTC_TimeStampPinSelection:00000000 RTC_TimeStampPinSelection
     /tmp/ccHWSL8g.s:5199   .text.RTC_TimeStampPinSelection:00000040 $d
     /tmp/ccHWSL8g.s:5205   .text.RTC_OutputTypeConfig:00000000 $t
     /tmp/ccHWSL8g.s:5210   .text.RTC_OutputTypeConfig:00000000 RTC_OutputTypeConfig
     /tmp/ccHWSL8g.s:5261   .text.RTC_OutputTypeConfig:00000040 $d
     /tmp/ccHWSL8g.s:5267   .text.RTC_SynchroShiftConfig:00000000 $t
     /tmp/ccHWSL8g.s:5272   .text.RTC_SynchroShiftConfig:00000000 RTC_SynchroShiftConfig
     /tmp/ccHWSL8g.s:5408   .text.RTC_SynchroShiftConfig:000000c4 $d
     /tmp/ccHWSL8g.s:5414   .text.RTC_ITConfig:00000000 $t
     /tmp/ccHWSL8g.s:5419   .text.RTC_ITConfig:00000000 RTC_ITConfig
     /tmp/ccHWSL8g.s:5528   .text.RTC_ITConfig:000000a4 $d
     /tmp/ccHWSL8g.s:5534   .text.RTC_GetFlagStatus:00000000 $t
     /tmp/ccHWSL8g.s:5539   .text.RTC_GetFlagStatus:00000000 RTC_GetFlagStatus
     /tmp/ccHWSL8g.s:5640   .text.RTC_GetFlagStatus:000000a0 $d
     /tmp/ccHWSL8g.s:5646   .text.RTC_ClearFlag:00000000 $t
     /tmp/ccHWSL8g.s:5651   .text.RTC_ClearFlag:00000000 RTC_ClearFlag
     /tmp/ccHWSL8g.s:5704   .text.RTC_ClearFlag:00000044 $d
     /tmp/ccHWSL8g.s:5710   .text.RTC_GetITStatus:00000000 $t
     /tmp/ccHWSL8g.s:5715   .text.RTC_GetITStatus:00000000 RTC_GetITStatus
     /tmp/ccHWSL8g.s:5814   .text.RTC_GetITStatus:00000094 $d
     /tmp/ccHWSL8g.s:5820   .text.RTC_ClearITPendingBit:00000000 $t
     /tmp/ccHWSL8g.s:5825   .text.RTC_ClearITPendingBit:00000000 RTC_ClearITPendingBit
     /tmp/ccHWSL8g.s:5884   .text.RTC_ClearITPendingBit:0000004c $d
     /tmp/ccHWSL8g.s:5890   .text.RTC_ByteToBcd2:00000000 $t
     /tmp/ccHWSL8g.s:5950   .text.RTC_Bcd2ToByte:00000000 $t
                     .debug_frame:00000010 $d

UNDEFINED SYMBOLS
assert_failed
