   1              		.syntax unified
   2              		.cpu cortex-m4
   3              		.eabi_attribute 27, 3
   4              		.fpu fpv4-sp-d16
   5              		.eabi_attribute 20, 1
   6              		.eabi_attribute 21, 1
   7              		.eabi_attribute 23, 3
   8              		.eabi_attribute 24, 1
   9              		.eabi_attribute 25, 1
  10              		.eabi_attribute 26, 1
  11              		.eabi_attribute 30, 6
  12              		.eabi_attribute 34, 1
  13              		.eabi_attribute 18, 4
  14              		.thumb
  15              		.file	"stm32f4xx_fsmc.c"
  16              		.text
  17              	.Ltext0:
  18              		.cfi_sections	.debug_frame
  19              		.section	.rodata
  20              		.align	2
  21              	.LC0:
  22 0000 4170702F 		.ascii	"App/STM32F4-Discovery/Libraries/STM32F4xx_StdPeriph"
  22      53544D33 
  22      3246342D 
  22      44697363 
  22      6F766572 
  23 0033 5F447269 		.ascii	"_Driver/src/stm32f4xx_fsmc.c\000"
  23      7665722F 
  23      7372632F 
  23      73746D33 
  23      32663478 
  24              		.section	.text.FSMC_NORSRAMDeInit,"ax",%progbits
  25              		.align	2
  26              		.global	FSMC_NORSRAMDeInit
  27              		.thumb
  28              		.thumb_func
  30              	FSMC_NORSRAMDeInit:
  31              	.LFB110:
  32              		.file 1 "App/STM32F4-Discovery/Libraries/STM32F4xx_StdPeriph_Driver/src/stm32f4xx_fsmc.c"
   1:App/STM32F4-Discovery/Libraries/STM32F4xx_StdPeriph_Driver/src/stm32f4xx_fsmc.c **** /**
   2:App/STM32F4-Discovery/Libraries/STM32F4xx_StdPeriph_Driver/src/stm32f4xx_fsmc.c ****   ******************************************************************************
   3:App/STM32F4-Discovery/Libraries/STM32F4xx_StdPeriph_Driver/src/stm32f4xx_fsmc.c ****   * @file    stm32f4xx_fsmc.c
   4:App/STM32F4-Discovery/Libraries/STM32F4xx_StdPeriph_Driver/src/stm32f4xx_fsmc.c ****   * @author  MCD Application Team
   5:App/STM32F4-Discovery/Libraries/STM32F4xx_StdPeriph_Driver/src/stm32f4xx_fsmc.c ****   * @version V1.0.0
   6:App/STM32F4-Discovery/Libraries/STM32F4xx_StdPeriph_Driver/src/stm32f4xx_fsmc.c ****   * @date    30-September-2011
   7:App/STM32F4-Discovery/Libraries/STM32F4xx_StdPeriph_Driver/src/stm32f4xx_fsmc.c ****  * @brief    This file provides firmware functions to manage the following 
   8:App/STM32F4-Discovery/Libraries/STM32F4xx_StdPeriph_Driver/src/stm32f4xx_fsmc.c ****   *          functionalities of the FSMC peripheral:           
   9:App/STM32F4-Discovery/Libraries/STM32F4xx_StdPeriph_Driver/src/stm32f4xx_fsmc.c ****   *           - Interface with SRAM, PSRAM, NOR and OneNAND memories
  10:App/STM32F4-Discovery/Libraries/STM32F4xx_StdPeriph_Driver/src/stm32f4xx_fsmc.c ****   *           - Interface with NAND memories
  11:App/STM32F4-Discovery/Libraries/STM32F4xx_StdPeriph_Driver/src/stm32f4xx_fsmc.c ****   *           - Interface with 16-bit PC Card compatible memories  
  12:App/STM32F4-Discovery/Libraries/STM32F4xx_StdPeriph_Driver/src/stm32f4xx_fsmc.c ****   *           - Interrupts and flags management   
  13:App/STM32F4-Discovery/Libraries/STM32F4xx_StdPeriph_Driver/src/stm32f4xx_fsmc.c ****   *           
  14:App/STM32F4-Discovery/Libraries/STM32F4xx_StdPeriph_Driver/src/stm32f4xx_fsmc.c ****   ******************************************************************************
  15:App/STM32F4-Discovery/Libraries/STM32F4xx_StdPeriph_Driver/src/stm32f4xx_fsmc.c **** 
  16:App/STM32F4-Discovery/Libraries/STM32F4xx_StdPeriph_Driver/src/stm32f4xx_fsmc.c ****   * @attention
  17:App/STM32F4-Discovery/Libraries/STM32F4xx_StdPeriph_Driver/src/stm32f4xx_fsmc.c ****   *
  18:App/STM32F4-Discovery/Libraries/STM32F4xx_StdPeriph_Driver/src/stm32f4xx_fsmc.c ****   * THE PRESENT FIRMWARE WHICH IS FOR GUIDANCE ONLY AIMS AT PROVIDING CUSTOMERS
  19:App/STM32F4-Discovery/Libraries/STM32F4xx_StdPeriph_Driver/src/stm32f4xx_fsmc.c ****   * WITH CODING INFORMATION REGARDING THEIR PRODUCTS IN ORDER FOR THEM TO SAVE
  20:App/STM32F4-Discovery/Libraries/STM32F4xx_StdPeriph_Driver/src/stm32f4xx_fsmc.c ****   * TIME. AS A RESULT, STMICROELECTRONICS SHALL NOT BE HELD LIABLE FOR ANY
  21:App/STM32F4-Discovery/Libraries/STM32F4xx_StdPeriph_Driver/src/stm32f4xx_fsmc.c ****   * DIRECT, INDIRECT OR CONSEQUENTIAL DAMAGES WITH RESPECT TO ANY CLAIMS ARISING
  22:App/STM32F4-Discovery/Libraries/STM32F4xx_StdPeriph_Driver/src/stm32f4xx_fsmc.c ****   * FROM THE CONTENT OF SUCH FIRMWARE AND/OR THE USE MADE BY CUSTOMERS OF THE
  23:App/STM32F4-Discovery/Libraries/STM32F4xx_StdPeriph_Driver/src/stm32f4xx_fsmc.c ****   * CODING INFORMATION CONTAINED HEREIN IN CONNECTION WITH THEIR PRODUCTS.
  24:App/STM32F4-Discovery/Libraries/STM32F4xx_StdPeriph_Driver/src/stm32f4xx_fsmc.c ****   *
  25:App/STM32F4-Discovery/Libraries/STM32F4xx_StdPeriph_Driver/src/stm32f4xx_fsmc.c ****   * <h2><center>&copy; COPYRIGHT 2011 STMicroelectronics</center></h2>
  26:App/STM32F4-Discovery/Libraries/STM32F4xx_StdPeriph_Driver/src/stm32f4xx_fsmc.c ****   ******************************************************************************
  27:App/STM32F4-Discovery/Libraries/STM32F4xx_StdPeriph_Driver/src/stm32f4xx_fsmc.c ****   */
  28:App/STM32F4-Discovery/Libraries/STM32F4xx_StdPeriph_Driver/src/stm32f4xx_fsmc.c **** 
  29:App/STM32F4-Discovery/Libraries/STM32F4xx_StdPeriph_Driver/src/stm32f4xx_fsmc.c **** /* Includes ------------------------------------------------------------------*/
  30:App/STM32F4-Discovery/Libraries/STM32F4xx_StdPeriph_Driver/src/stm32f4xx_fsmc.c **** #include "stm32f4xx_fsmc.h"
  31:App/STM32F4-Discovery/Libraries/STM32F4xx_StdPeriph_Driver/src/stm32f4xx_fsmc.c **** #include "stm32f4xx_rcc.h"
  32:App/STM32F4-Discovery/Libraries/STM32F4xx_StdPeriph_Driver/src/stm32f4xx_fsmc.c **** 
  33:App/STM32F4-Discovery/Libraries/STM32F4xx_StdPeriph_Driver/src/stm32f4xx_fsmc.c **** /** @addtogroup STM32F4xx_StdPeriph_Driver
  34:App/STM32F4-Discovery/Libraries/STM32F4xx_StdPeriph_Driver/src/stm32f4xx_fsmc.c ****   * @{
  35:App/STM32F4-Discovery/Libraries/STM32F4xx_StdPeriph_Driver/src/stm32f4xx_fsmc.c ****   */
  36:App/STM32F4-Discovery/Libraries/STM32F4xx_StdPeriph_Driver/src/stm32f4xx_fsmc.c **** 
  37:App/STM32F4-Discovery/Libraries/STM32F4xx_StdPeriph_Driver/src/stm32f4xx_fsmc.c **** /** @defgroup FSMC 
  38:App/STM32F4-Discovery/Libraries/STM32F4xx_StdPeriph_Driver/src/stm32f4xx_fsmc.c ****   * @brief FSMC driver modules
  39:App/STM32F4-Discovery/Libraries/STM32F4xx_StdPeriph_Driver/src/stm32f4xx_fsmc.c ****   * @{
  40:App/STM32F4-Discovery/Libraries/STM32F4xx_StdPeriph_Driver/src/stm32f4xx_fsmc.c ****   */ 
  41:App/STM32F4-Discovery/Libraries/STM32F4xx_StdPeriph_Driver/src/stm32f4xx_fsmc.c **** 
  42:App/STM32F4-Discovery/Libraries/STM32F4xx_StdPeriph_Driver/src/stm32f4xx_fsmc.c **** /* Private typedef -----------------------------------------------------------*/
  43:App/STM32F4-Discovery/Libraries/STM32F4xx_StdPeriph_Driver/src/stm32f4xx_fsmc.c **** /* Private define ------------------------------------------------------------*/
  44:App/STM32F4-Discovery/Libraries/STM32F4xx_StdPeriph_Driver/src/stm32f4xx_fsmc.c **** 
  45:App/STM32F4-Discovery/Libraries/STM32F4xx_StdPeriph_Driver/src/stm32f4xx_fsmc.c **** /* --------------------- FSMC registers bit mask ---------------------------- */
  46:App/STM32F4-Discovery/Libraries/STM32F4xx_StdPeriph_Driver/src/stm32f4xx_fsmc.c **** /* FSMC BCRx Mask */
  47:App/STM32F4-Discovery/Libraries/STM32F4xx_StdPeriph_Driver/src/stm32f4xx_fsmc.c **** #define BCR_MBKEN_SET          ((uint32_t)0x00000001)
  48:App/STM32F4-Discovery/Libraries/STM32F4xx_StdPeriph_Driver/src/stm32f4xx_fsmc.c **** #define BCR_MBKEN_RESET        ((uint32_t)0x000FFFFE)
  49:App/STM32F4-Discovery/Libraries/STM32F4xx_StdPeriph_Driver/src/stm32f4xx_fsmc.c **** #define BCR_FACCEN_SET         ((uint32_t)0x00000040)
  50:App/STM32F4-Discovery/Libraries/STM32F4xx_StdPeriph_Driver/src/stm32f4xx_fsmc.c **** 
  51:App/STM32F4-Discovery/Libraries/STM32F4xx_StdPeriph_Driver/src/stm32f4xx_fsmc.c **** /* FSMC PCRx Mask */
  52:App/STM32F4-Discovery/Libraries/STM32F4xx_StdPeriph_Driver/src/stm32f4xx_fsmc.c **** #define PCR_PBKEN_SET          ((uint32_t)0x00000004)
  53:App/STM32F4-Discovery/Libraries/STM32F4xx_StdPeriph_Driver/src/stm32f4xx_fsmc.c **** #define PCR_PBKEN_RESET        ((uint32_t)0x000FFFFB)
  54:App/STM32F4-Discovery/Libraries/STM32F4xx_StdPeriph_Driver/src/stm32f4xx_fsmc.c **** #define PCR_ECCEN_SET          ((uint32_t)0x00000040)
  55:App/STM32F4-Discovery/Libraries/STM32F4xx_StdPeriph_Driver/src/stm32f4xx_fsmc.c **** #define PCR_ECCEN_RESET        ((uint32_t)0x000FFFBF)
  56:App/STM32F4-Discovery/Libraries/STM32F4xx_StdPeriph_Driver/src/stm32f4xx_fsmc.c **** #define PCR_MEMORYTYPE_NAND    ((uint32_t)0x00000008)
  57:App/STM32F4-Discovery/Libraries/STM32F4xx_StdPeriph_Driver/src/stm32f4xx_fsmc.c **** 
  58:App/STM32F4-Discovery/Libraries/STM32F4xx_StdPeriph_Driver/src/stm32f4xx_fsmc.c **** /* Private macro -------------------------------------------------------------*/
  59:App/STM32F4-Discovery/Libraries/STM32F4xx_StdPeriph_Driver/src/stm32f4xx_fsmc.c **** /* Private variables ---------------------------------------------------------*/
  60:App/STM32F4-Discovery/Libraries/STM32F4xx_StdPeriph_Driver/src/stm32f4xx_fsmc.c **** /* Private function prototypes -----------------------------------------------*/
  61:App/STM32F4-Discovery/Libraries/STM32F4xx_StdPeriph_Driver/src/stm32f4xx_fsmc.c **** /* Private functions ---------------------------------------------------------*/
  62:App/STM32F4-Discovery/Libraries/STM32F4xx_StdPeriph_Driver/src/stm32f4xx_fsmc.c **** 
  63:App/STM32F4-Discovery/Libraries/STM32F4xx_StdPeriph_Driver/src/stm32f4xx_fsmc.c **** /** @defgroup FSMC_Private_Functions
  64:App/STM32F4-Discovery/Libraries/STM32F4xx_StdPeriph_Driver/src/stm32f4xx_fsmc.c ****   * @{
  65:App/STM32F4-Discovery/Libraries/STM32F4xx_StdPeriph_Driver/src/stm32f4xx_fsmc.c ****   */
  66:App/STM32F4-Discovery/Libraries/STM32F4xx_StdPeriph_Driver/src/stm32f4xx_fsmc.c **** 
  67:App/STM32F4-Discovery/Libraries/STM32F4xx_StdPeriph_Driver/src/stm32f4xx_fsmc.c **** /** @defgroup FSMC_Group1 NOR/SRAM Controller functions
  68:App/STM32F4-Discovery/Libraries/STM32F4xx_StdPeriph_Driver/src/stm32f4xx_fsmc.c ****  *  @brief   NOR/SRAM Controller functions 
  69:App/STM32F4-Discovery/Libraries/STM32F4xx_StdPeriph_Driver/src/stm32f4xx_fsmc.c ****  *
  70:App/STM32F4-Discovery/Libraries/STM32F4xx_StdPeriph_Driver/src/stm32f4xx_fsmc.c **** @verbatim   
  71:App/STM32F4-Discovery/Libraries/STM32F4xx_StdPeriph_Driver/src/stm32f4xx_fsmc.c ****  ===============================================================================
  72:App/STM32F4-Discovery/Libraries/STM32F4xx_StdPeriph_Driver/src/stm32f4xx_fsmc.c ****                     NOR/SRAM Controller functions
  73:App/STM32F4-Discovery/Libraries/STM32F4xx_StdPeriph_Driver/src/stm32f4xx_fsmc.c ****  ===============================================================================  
  74:App/STM32F4-Discovery/Libraries/STM32F4xx_StdPeriph_Driver/src/stm32f4xx_fsmc.c **** 
  75:App/STM32F4-Discovery/Libraries/STM32F4xx_StdPeriph_Driver/src/stm32f4xx_fsmc.c ****  The following sequence should be followed to configure the FSMC to interface with
  76:App/STM32F4-Discovery/Libraries/STM32F4xx_StdPeriph_Driver/src/stm32f4xx_fsmc.c ****  SRAM, PSRAM, NOR or OneNAND memory connected to the NOR/SRAM Bank:
  77:App/STM32F4-Discovery/Libraries/STM32F4xx_StdPeriph_Driver/src/stm32f4xx_fsmc.c ****  
  78:App/STM32F4-Discovery/Libraries/STM32F4xx_StdPeriph_Driver/src/stm32f4xx_fsmc.c ****    1. Enable the clock for the FSMC and associated GPIOs using the following functions:
  79:App/STM32F4-Discovery/Libraries/STM32F4xx_StdPeriph_Driver/src/stm32f4xx_fsmc.c ****           RCC_AHB3PeriphClockCmd(RCC_AHB3Periph_FSMC, ENABLE);
  80:App/STM32F4-Discovery/Libraries/STM32F4xx_StdPeriph_Driver/src/stm32f4xx_fsmc.c ****           RCC_AHB1PeriphClockCmd(RCC_AHB1Periph_GPIOx, ENABLE);
  81:App/STM32F4-Discovery/Libraries/STM32F4xx_StdPeriph_Driver/src/stm32f4xx_fsmc.c **** 
  82:App/STM32F4-Discovery/Libraries/STM32F4xx_StdPeriph_Driver/src/stm32f4xx_fsmc.c ****    2. FSMC pins configuration 
  83:App/STM32F4-Discovery/Libraries/STM32F4xx_StdPeriph_Driver/src/stm32f4xx_fsmc.c ****        - Connect the involved FSMC pins to AF12 using the following function 
  84:App/STM32F4-Discovery/Libraries/STM32F4xx_StdPeriph_Driver/src/stm32f4xx_fsmc.c ****           GPIO_PinAFConfig(GPIOx, GPIO_PinSourcex, GPIO_AF_FSMC); 
  85:App/STM32F4-Discovery/Libraries/STM32F4xx_StdPeriph_Driver/src/stm32f4xx_fsmc.c ****        - Configure these FSMC pins in alternate function mode by calling the function
  86:App/STM32F4-Discovery/Libraries/STM32F4xx_StdPeriph_Driver/src/stm32f4xx_fsmc.c ****           GPIO_Init();    
  87:App/STM32F4-Discovery/Libraries/STM32F4xx_StdPeriph_Driver/src/stm32f4xx_fsmc.c ****        
  88:App/STM32F4-Discovery/Libraries/STM32F4xx_StdPeriph_Driver/src/stm32f4xx_fsmc.c ****    3. Declare a FSMC_NORSRAMInitTypeDef structure, for example:
  89:App/STM32F4-Discovery/Libraries/STM32F4xx_StdPeriph_Driver/src/stm32f4xx_fsmc.c ****           FSMC_NORSRAMInitTypeDef  FSMC_NORSRAMInitStructure;
  90:App/STM32F4-Discovery/Libraries/STM32F4xx_StdPeriph_Driver/src/stm32f4xx_fsmc.c ****       and fill the FSMC_NORSRAMInitStructure variable with the allowed values of
  91:App/STM32F4-Discovery/Libraries/STM32F4xx_StdPeriph_Driver/src/stm32f4xx_fsmc.c ****       the structure member.
  92:App/STM32F4-Discovery/Libraries/STM32F4xx_StdPeriph_Driver/src/stm32f4xx_fsmc.c ****       
  93:App/STM32F4-Discovery/Libraries/STM32F4xx_StdPeriph_Driver/src/stm32f4xx_fsmc.c ****    4. Initialize the NOR/SRAM Controller by calling the function
  94:App/STM32F4-Discovery/Libraries/STM32F4xx_StdPeriph_Driver/src/stm32f4xx_fsmc.c ****           FSMC_NORSRAMInit(&FSMC_NORSRAMInitStructure); 
  95:App/STM32F4-Discovery/Libraries/STM32F4xx_StdPeriph_Driver/src/stm32f4xx_fsmc.c **** 
  96:App/STM32F4-Discovery/Libraries/STM32F4xx_StdPeriph_Driver/src/stm32f4xx_fsmc.c ****    5. Then enable the NOR/SRAM Bank, for example:
  97:App/STM32F4-Discovery/Libraries/STM32F4xx_StdPeriph_Driver/src/stm32f4xx_fsmc.c ****           FSMC_NORSRAMCmd(FSMC_Bank1_NORSRAM2, ENABLE);  
  98:App/STM32F4-Discovery/Libraries/STM32F4xx_StdPeriph_Driver/src/stm32f4xx_fsmc.c **** 
  99:App/STM32F4-Discovery/Libraries/STM32F4xx_StdPeriph_Driver/src/stm32f4xx_fsmc.c ****    6. At this stage you can read/write from/to the memory connected to the NOR/SRAM Bank. 
 100:App/STM32F4-Discovery/Libraries/STM32F4xx_StdPeriph_Driver/src/stm32f4xx_fsmc.c ****    
 101:App/STM32F4-Discovery/Libraries/STM32F4xx_StdPeriph_Driver/src/stm32f4xx_fsmc.c **** @endverbatim
 102:App/STM32F4-Discovery/Libraries/STM32F4xx_StdPeriph_Driver/src/stm32f4xx_fsmc.c ****   * @{
 103:App/STM32F4-Discovery/Libraries/STM32F4xx_StdPeriph_Driver/src/stm32f4xx_fsmc.c ****   */
 104:App/STM32F4-Discovery/Libraries/STM32F4xx_StdPeriph_Driver/src/stm32f4xx_fsmc.c **** 
 105:App/STM32F4-Discovery/Libraries/STM32F4xx_StdPeriph_Driver/src/stm32f4xx_fsmc.c **** /**
 106:App/STM32F4-Discovery/Libraries/STM32F4xx_StdPeriph_Driver/src/stm32f4xx_fsmc.c ****   * @brief  Deinitializes the FSMC NOR/SRAM Banks registers to their default 
 107:App/STM32F4-Discovery/Libraries/STM32F4xx_StdPeriph_Driver/src/stm32f4xx_fsmc.c ****   *   reset values.
 108:App/STM32F4-Discovery/Libraries/STM32F4xx_StdPeriph_Driver/src/stm32f4xx_fsmc.c ****   * @param  FSMC_Bank: specifies the FSMC Bank to be used
 109:App/STM32F4-Discovery/Libraries/STM32F4xx_StdPeriph_Driver/src/stm32f4xx_fsmc.c ****   *          This parameter can be one of the following values:
 110:App/STM32F4-Discovery/Libraries/STM32F4xx_StdPeriph_Driver/src/stm32f4xx_fsmc.c ****   *            @arg FSMC_Bank1_NORSRAM1: FSMC Bank1 NOR/SRAM1  
 111:App/STM32F4-Discovery/Libraries/STM32F4xx_StdPeriph_Driver/src/stm32f4xx_fsmc.c ****   *            @arg FSMC_Bank1_NORSRAM2: FSMC Bank1 NOR/SRAM2 
 112:App/STM32F4-Discovery/Libraries/STM32F4xx_StdPeriph_Driver/src/stm32f4xx_fsmc.c ****   *            @arg FSMC_Bank1_NORSRAM3: FSMC Bank1 NOR/SRAM3 
 113:App/STM32F4-Discovery/Libraries/STM32F4xx_StdPeriph_Driver/src/stm32f4xx_fsmc.c ****   *            @arg FSMC_Bank1_NORSRAM4: FSMC Bank1 NOR/SRAM4 
 114:App/STM32F4-Discovery/Libraries/STM32F4xx_StdPeriph_Driver/src/stm32f4xx_fsmc.c ****   * @retval None
 115:App/STM32F4-Discovery/Libraries/STM32F4xx_StdPeriph_Driver/src/stm32f4xx_fsmc.c ****   */
 116:App/STM32F4-Discovery/Libraries/STM32F4xx_StdPeriph_Driver/src/stm32f4xx_fsmc.c **** void FSMC_NORSRAMDeInit(uint32_t FSMC_Bank)
 117:App/STM32F4-Discovery/Libraries/STM32F4xx_StdPeriph_Driver/src/stm32f4xx_fsmc.c **** {
  33              		.loc 1 117 0
  34              		.cfi_startproc
  35              		@ args = 0, pretend = 0, frame = 8
  36              		@ frame_needed = 1, uses_anonymous_args = 0
  37 0000 80B5     		push	{r7, lr}
  38              	.LCFI0:
  39              		.cfi_def_cfa_offset 8
  40              		.cfi_offset 7, -8
  41              		.cfi_offset 14, -4
  42 0002 82B0     		sub	sp, sp, #8
  43              	.LCFI1:
  44              		.cfi_def_cfa_offset 16
  45 0004 00AF     		add	r7, sp, #0
  46              	.LCFI2:
  47              		.cfi_def_cfa_register 7
  48 0006 7860     		str	r0, [r7, #4]
 118:App/STM32F4-Discovery/Libraries/STM32F4xx_StdPeriph_Driver/src/stm32f4xx_fsmc.c ****   /* Check the parameter */
 119:App/STM32F4-Discovery/Libraries/STM32F4xx_StdPeriph_Driver/src/stm32f4xx_fsmc.c ****   assert_param(IS_FSMC_NORSRAM_BANK(FSMC_Bank));
  49              		.loc 1 119 0
  50 0008 7B68     		ldr	r3, [r7, #4]
  51 000a 002B     		cmp	r3, #0
  52 000c 0CD0     		beq	.L2
  53              		.loc 1 119 0 is_stmt 0 discriminator 1
  54 000e 7B68     		ldr	r3, [r7, #4]
  55 0010 022B     		cmp	r3, #2
  56 0012 09D0     		beq	.L2
  57 0014 7B68     		ldr	r3, [r7, #4]
  58 0016 042B     		cmp	r3, #4
  59 0018 06D0     		beq	.L2
  60 001a 7B68     		ldr	r3, [r7, #4]
  61 001c 062B     		cmp	r3, #6
  62 001e 03D0     		beq	.L2
  63 0020 1348     		ldr	r0, .L5
  64 0022 7721     		movs	r1, #119
  65 0024 FFF7FEFF 		bl	assert_failed
  66              	.L2:
 120:App/STM32F4-Discovery/Libraries/STM32F4xx_StdPeriph_Driver/src/stm32f4xx_fsmc.c ****   
 121:App/STM32F4-Discovery/Libraries/STM32F4xx_StdPeriph_Driver/src/stm32f4xx_fsmc.c ****   /* FSMC_Bank1_NORSRAM1 */
 122:App/STM32F4-Discovery/Libraries/STM32F4xx_StdPeriph_Driver/src/stm32f4xx_fsmc.c ****   if(FSMC_Bank == FSMC_Bank1_NORSRAM1)
  67              		.loc 1 122 0 is_stmt 1
  68 0028 7B68     		ldr	r3, [r7, #4]
  69 002a 002B     		cmp	r3, #0
  70 002c 07D1     		bne	.L3
 123:App/STM32F4-Discovery/Libraries/STM32F4xx_StdPeriph_Driver/src/stm32f4xx_fsmc.c ****   {
 124:App/STM32F4-Discovery/Libraries/STM32F4xx_StdPeriph_Driver/src/stm32f4xx_fsmc.c ****     FSMC_Bank1->BTCR[FSMC_Bank] = 0x000030DB;    
  71              		.loc 1 124 0
  72 002e 4FF02043 		mov	r3, #-1610612736
  73 0032 7A68     		ldr	r2, [r7, #4]
  74 0034 43F2DB01 		movw	r1, #12507
  75 0038 43F82210 		str	r1, [r3, r2, lsl #2]
  76 003c 06E0     		b	.L4
  77              	.L3:
 125:App/STM32F4-Discovery/Libraries/STM32F4xx_StdPeriph_Driver/src/stm32f4xx_fsmc.c ****   }
 126:App/STM32F4-Discovery/Libraries/STM32F4xx_StdPeriph_Driver/src/stm32f4xx_fsmc.c ****   /* FSMC_Bank1_NORSRAM2,  FSMC_Bank1_NORSRAM3 or FSMC_Bank1_NORSRAM4 */
 127:App/STM32F4-Discovery/Libraries/STM32F4xx_StdPeriph_Driver/src/stm32f4xx_fsmc.c ****   else
 128:App/STM32F4-Discovery/Libraries/STM32F4xx_StdPeriph_Driver/src/stm32f4xx_fsmc.c ****   {   
 129:App/STM32F4-Discovery/Libraries/STM32F4xx_StdPeriph_Driver/src/stm32f4xx_fsmc.c ****     FSMC_Bank1->BTCR[FSMC_Bank] = 0x000030D2; 
  78              		.loc 1 129 0
  79 003e 4FF02043 		mov	r3, #-1610612736
  80 0042 7A68     		ldr	r2, [r7, #4]
  81 0044 43F2D201 		movw	r1, #12498
  82 0048 43F82210 		str	r1, [r3, r2, lsl #2]
  83              	.L4:
 130:App/STM32F4-Discovery/Libraries/STM32F4xx_StdPeriph_Driver/src/stm32f4xx_fsmc.c ****   }
 131:App/STM32F4-Discovery/Libraries/STM32F4xx_StdPeriph_Driver/src/stm32f4xx_fsmc.c ****   FSMC_Bank1->BTCR[FSMC_Bank + 1] = 0x0FFFFFFF;
  84              		.loc 1 131 0
  85 004c 4FF02043 		mov	r3, #-1610612736
  86 0050 7A68     		ldr	r2, [r7, #4]
  87 0052 0132     		adds	r2, r2, #1
  88 0054 6FF07041 		mvn	r1, #-268435456
  89 0058 43F82210 		str	r1, [r3, r2, lsl #2]
 132:App/STM32F4-Discovery/Libraries/STM32F4xx_StdPeriph_Driver/src/stm32f4xx_fsmc.c ****   FSMC_Bank1E->BWTR[FSMC_Bank] = 0x0FFFFFFF;  
  90              		.loc 1 132 0
  91 005c 054B     		ldr	r3, .L5+4
  92 005e 7A68     		ldr	r2, [r7, #4]
  93 0060 6FF07041 		mvn	r1, #-268435456
  94 0064 43F82210 		str	r1, [r3, r2, lsl #2]
 133:App/STM32F4-Discovery/Libraries/STM32F4xx_StdPeriph_Driver/src/stm32f4xx_fsmc.c **** }
  95              		.loc 1 133 0
  96 0068 0837     		adds	r7, r7, #8
  97 006a BD46     		mov	sp, r7
  98              		@ sp needed
  99 006c 80BD     		pop	{r7, pc}
 100              	.L6:
 101 006e 00BF     		.align	2
 102              	.L5:
 103 0070 00000000 		.word	.LC0
 104 0074 040100A0 		.word	-1610612476
 105              		.cfi_endproc
 106              	.LFE110:
 108              		.section	.text.FSMC_NORSRAMInit,"ax",%progbits
 109              		.align	2
 110              		.global	FSMC_NORSRAMInit
 111              		.thumb
 112              		.thumb_func
 114              	FSMC_NORSRAMInit:
 115              	.LFB111:
 134:App/STM32F4-Discovery/Libraries/STM32F4xx_StdPeriph_Driver/src/stm32f4xx_fsmc.c **** 
 135:App/STM32F4-Discovery/Libraries/STM32F4xx_StdPeriph_Driver/src/stm32f4xx_fsmc.c **** /**
 136:App/STM32F4-Discovery/Libraries/STM32F4xx_StdPeriph_Driver/src/stm32f4xx_fsmc.c ****   * @brief  Initializes the FSMC NOR/SRAM Banks according to the specified
 137:App/STM32F4-Discovery/Libraries/STM32F4xx_StdPeriph_Driver/src/stm32f4xx_fsmc.c ****   *         parameters in the FSMC_NORSRAMInitStruct.
 138:App/STM32F4-Discovery/Libraries/STM32F4xx_StdPeriph_Driver/src/stm32f4xx_fsmc.c ****   * @param  FSMC_NORSRAMInitStruct : pointer to a FSMC_NORSRAMInitTypeDef structure
 139:App/STM32F4-Discovery/Libraries/STM32F4xx_StdPeriph_Driver/src/stm32f4xx_fsmc.c ****   *         that contains the configuration information for the FSMC NOR/SRAM 
 140:App/STM32F4-Discovery/Libraries/STM32F4xx_StdPeriph_Driver/src/stm32f4xx_fsmc.c ****   *         specified Banks.                       
 141:App/STM32F4-Discovery/Libraries/STM32F4xx_StdPeriph_Driver/src/stm32f4xx_fsmc.c ****   * @retval None
 142:App/STM32F4-Discovery/Libraries/STM32F4xx_StdPeriph_Driver/src/stm32f4xx_fsmc.c ****   */
 143:App/STM32F4-Discovery/Libraries/STM32F4xx_StdPeriph_Driver/src/stm32f4xx_fsmc.c **** void FSMC_NORSRAMInit(FSMC_NORSRAMInitTypeDef* FSMC_NORSRAMInitStruct)
 144:App/STM32F4-Discovery/Libraries/STM32F4xx_StdPeriph_Driver/src/stm32f4xx_fsmc.c **** { 
 116              		.loc 1 144 0
 117              		.cfi_startproc
 118              		@ args = 0, pretend = 0, frame = 8
 119              		@ frame_needed = 1, uses_anonymous_args = 0
 120 0000 80B5     		push	{r7, lr}
 121              	.LCFI3:
 122              		.cfi_def_cfa_offset 8
 123              		.cfi_offset 7, -8
 124              		.cfi_offset 14, -4
 125 0002 82B0     		sub	sp, sp, #8
 126              	.LCFI4:
 127              		.cfi_def_cfa_offset 16
 128 0004 00AF     		add	r7, sp, #0
 129              	.LCFI5:
 130              		.cfi_def_cfa_register 7
 131 0006 7860     		str	r0, [r7, #4]
 145:App/STM32F4-Discovery/Libraries/STM32F4xx_StdPeriph_Driver/src/stm32f4xx_fsmc.c ****   /* Check the parameters */
 146:App/STM32F4-Discovery/Libraries/STM32F4xx_StdPeriph_Driver/src/stm32f4xx_fsmc.c ****   assert_param(IS_FSMC_NORSRAM_BANK(FSMC_NORSRAMInitStruct->FSMC_Bank));
 132              		.loc 1 146 0
 133 0008 7B68     		ldr	r3, [r7, #4]
 134 000a 1B68     		ldr	r3, [r3]
 135 000c 002B     		cmp	r3, #0
 136 000e 0FD0     		beq	.L8
 137              		.loc 1 146 0 is_stmt 0 discriminator 1
 138 0010 7B68     		ldr	r3, [r7, #4]
 139 0012 1B68     		ldr	r3, [r3]
 140 0014 022B     		cmp	r3, #2
 141 0016 0BD0     		beq	.L8
 142 0018 7B68     		ldr	r3, [r7, #4]
 143 001a 1B68     		ldr	r3, [r3]
 144 001c 042B     		cmp	r3, #4
 145 001e 07D0     		beq	.L8
 146 0020 7B68     		ldr	r3, [r7, #4]
 147 0022 1B68     		ldr	r3, [r3]
 148 0024 062B     		cmp	r3, #6
 149 0026 03D0     		beq	.L8
 150 0028 9948     		ldr	r0, .L39
 151 002a 9221     		movs	r1, #146
 152 002c FFF7FEFF 		bl	assert_failed
 153              	.L8:
 147:App/STM32F4-Discovery/Libraries/STM32F4xx_StdPeriph_Driver/src/stm32f4xx_fsmc.c ****   assert_param(IS_FSMC_MUX(FSMC_NORSRAMInitStruct->FSMC_DataAddressMux));
 154              		.loc 1 147 0 is_stmt 1
 155 0030 7B68     		ldr	r3, [r7, #4]
 156 0032 5B68     		ldr	r3, [r3, #4]
 157 0034 002B     		cmp	r3, #0
 158 0036 07D0     		beq	.L9
 159              		.loc 1 147 0 is_stmt 0 discriminator 1
 160 0038 7B68     		ldr	r3, [r7, #4]
 161 003a 5B68     		ldr	r3, [r3, #4]
 162 003c 022B     		cmp	r3, #2
 163 003e 03D0     		beq	.L9
 164 0040 9348     		ldr	r0, .L39
 165 0042 9321     		movs	r1, #147
 166 0044 FFF7FEFF 		bl	assert_failed
 167              	.L9:
 148:App/STM32F4-Discovery/Libraries/STM32F4xx_StdPeriph_Driver/src/stm32f4xx_fsmc.c ****   assert_param(IS_FSMC_MEMORY(FSMC_NORSRAMInitStruct->FSMC_MemoryType));
 168              		.loc 1 148 0 is_stmt 1
 169 0048 7B68     		ldr	r3, [r7, #4]
 170 004a 9B68     		ldr	r3, [r3, #8]
 171 004c 002B     		cmp	r3, #0
 172 004e 0BD0     		beq	.L10
 173              		.loc 1 148 0 is_stmt 0 discriminator 1
 174 0050 7B68     		ldr	r3, [r7, #4]
 175 0052 9B68     		ldr	r3, [r3, #8]
 176 0054 042B     		cmp	r3, #4
 177 0056 07D0     		beq	.L10
 178 0058 7B68     		ldr	r3, [r7, #4]
 179 005a 9B68     		ldr	r3, [r3, #8]
 180 005c 082B     		cmp	r3, #8
 181 005e 03D0     		beq	.L10
 182 0060 8B48     		ldr	r0, .L39
 183 0062 9421     		movs	r1, #148
 184 0064 FFF7FEFF 		bl	assert_failed
 185              	.L10:
 149:App/STM32F4-Discovery/Libraries/STM32F4xx_StdPeriph_Driver/src/stm32f4xx_fsmc.c ****   assert_param(IS_FSMC_MEMORY_WIDTH(FSMC_NORSRAMInitStruct->FSMC_MemoryDataWidth));
 186              		.loc 1 149 0 is_stmt 1
 187 0068 7B68     		ldr	r3, [r7, #4]
 188 006a DB68     		ldr	r3, [r3, #12]
 189 006c 002B     		cmp	r3, #0
 190 006e 07D0     		beq	.L11
 191              		.loc 1 149 0 is_stmt 0 discriminator 1
 192 0070 7B68     		ldr	r3, [r7, #4]
 193 0072 DB68     		ldr	r3, [r3, #12]
 194 0074 102B     		cmp	r3, #16
 195 0076 03D0     		beq	.L11
 196 0078 8548     		ldr	r0, .L39
 197 007a 9521     		movs	r1, #149
 198 007c FFF7FEFF 		bl	assert_failed
 199              	.L11:
 150:App/STM32F4-Discovery/Libraries/STM32F4xx_StdPeriph_Driver/src/stm32f4xx_fsmc.c ****   assert_param(IS_FSMC_BURSTMODE(FSMC_NORSRAMInitStruct->FSMC_BurstAccessMode));
 200              		.loc 1 150 0 is_stmt 1
 201 0080 7B68     		ldr	r3, [r7, #4]
 202 0082 1B69     		ldr	r3, [r3, #16]
 203 0084 002B     		cmp	r3, #0
 204 0086 08D0     		beq	.L12
 205              		.loc 1 150 0 is_stmt 0 discriminator 1
 206 0088 7B68     		ldr	r3, [r7, #4]
 207 008a 1B69     		ldr	r3, [r3, #16]
 208 008c B3F5807F 		cmp	r3, #256
 209 0090 03D0     		beq	.L12
 210 0092 7F48     		ldr	r0, .L39
 211 0094 9621     		movs	r1, #150
 212 0096 FFF7FEFF 		bl	assert_failed
 213              	.L12:
 151:App/STM32F4-Discovery/Libraries/STM32F4xx_StdPeriph_Driver/src/stm32f4xx_fsmc.c ****   assert_param(IS_FSMC_ASYNWAIT(FSMC_NORSRAMInitStruct->FSMC_AsynchronousWait));
 214              		.loc 1 151 0 is_stmt 1
 215 009a 7B68     		ldr	r3, [r7, #4]
 216 009c 5B69     		ldr	r3, [r3, #20]
 217 009e 002B     		cmp	r3, #0
 218 00a0 08D0     		beq	.L13
 219              		.loc 1 151 0 is_stmt 0 discriminator 1
 220 00a2 7B68     		ldr	r3, [r7, #4]
 221 00a4 5B69     		ldr	r3, [r3, #20]
 222 00a6 B3F5004F 		cmp	r3, #32768
 223 00aa 03D0     		beq	.L13
 224 00ac 7848     		ldr	r0, .L39
 225 00ae 9721     		movs	r1, #151
 226 00b0 FFF7FEFF 		bl	assert_failed
 227              	.L13:
 152:App/STM32F4-Discovery/Libraries/STM32F4xx_StdPeriph_Driver/src/stm32f4xx_fsmc.c ****   assert_param(IS_FSMC_WAIT_POLARITY(FSMC_NORSRAMInitStruct->FSMC_WaitSignalPolarity));
 228              		.loc 1 152 0 is_stmt 1
 229 00b4 7B68     		ldr	r3, [r7, #4]
 230 00b6 9B69     		ldr	r3, [r3, #24]
 231 00b8 002B     		cmp	r3, #0
 232 00ba 08D0     		beq	.L14
 233              		.loc 1 152 0 is_stmt 0 discriminator 1
 234 00bc 7B68     		ldr	r3, [r7, #4]
 235 00be 9B69     		ldr	r3, [r3, #24]
 236 00c0 B3F5007F 		cmp	r3, #512
 237 00c4 03D0     		beq	.L14
 238 00c6 7248     		ldr	r0, .L39
 239 00c8 9821     		movs	r1, #152
 240 00ca FFF7FEFF 		bl	assert_failed
 241              	.L14:
 153:App/STM32F4-Discovery/Libraries/STM32F4xx_StdPeriph_Driver/src/stm32f4xx_fsmc.c ****   assert_param(IS_FSMC_WRAP_MODE(FSMC_NORSRAMInitStruct->FSMC_WrapMode));
 242              		.loc 1 153 0 is_stmt 1
 243 00ce 7B68     		ldr	r3, [r7, #4]
 244 00d0 DB69     		ldr	r3, [r3, #28]
 245 00d2 002B     		cmp	r3, #0
 246 00d4 08D0     		beq	.L15
 247              		.loc 1 153 0 is_stmt 0 discriminator 1
 248 00d6 7B68     		ldr	r3, [r7, #4]
 249 00d8 DB69     		ldr	r3, [r3, #28]
 250 00da B3F5806F 		cmp	r3, #1024
 251 00de 03D0     		beq	.L15
 252 00e0 6B48     		ldr	r0, .L39
 253 00e2 9921     		movs	r1, #153
 254 00e4 FFF7FEFF 		bl	assert_failed
 255              	.L15:
 154:App/STM32F4-Discovery/Libraries/STM32F4xx_StdPeriph_Driver/src/stm32f4xx_fsmc.c ****   assert_param(IS_FSMC_WAIT_SIGNAL_ACTIVE(FSMC_NORSRAMInitStruct->FSMC_WaitSignalActive));
 256              		.loc 1 154 0 is_stmt 1
 257 00e8 7B68     		ldr	r3, [r7, #4]
 258 00ea 1B6A     		ldr	r3, [r3, #32]
 259 00ec 002B     		cmp	r3, #0
 260 00ee 08D0     		beq	.L16
 261              		.loc 1 154 0 is_stmt 0 discriminator 1
 262 00f0 7B68     		ldr	r3, [r7, #4]
 263 00f2 1B6A     		ldr	r3, [r3, #32]
 264 00f4 B3F5006F 		cmp	r3, #2048
 265 00f8 03D0     		beq	.L16
 266 00fa 6548     		ldr	r0, .L39
 267 00fc 9A21     		movs	r1, #154
 268 00fe FFF7FEFF 		bl	assert_failed
 269              	.L16:
 155:App/STM32F4-Discovery/Libraries/STM32F4xx_StdPeriph_Driver/src/stm32f4xx_fsmc.c ****   assert_param(IS_FSMC_WRITE_OPERATION(FSMC_NORSRAMInitStruct->FSMC_WriteOperation));
 270              		.loc 1 155 0 is_stmt 1
 271 0102 7B68     		ldr	r3, [r7, #4]
 272 0104 5B6A     		ldr	r3, [r3, #36]
 273 0106 002B     		cmp	r3, #0
 274 0108 08D0     		beq	.L17
 275              		.loc 1 155 0 is_stmt 0 discriminator 1
 276 010a 7B68     		ldr	r3, [r7, #4]
 277 010c 5B6A     		ldr	r3, [r3, #36]
 278 010e B3F5805F 		cmp	r3, #4096
 279 0112 03D0     		beq	.L17
 280 0114 5E48     		ldr	r0, .L39
 281 0116 9B21     		movs	r1, #155
 282 0118 FFF7FEFF 		bl	assert_failed
 283              	.L17:
 156:App/STM32F4-Discovery/Libraries/STM32F4xx_StdPeriph_Driver/src/stm32f4xx_fsmc.c ****   assert_param(IS_FSMC_WAITE_SIGNAL(FSMC_NORSRAMInitStruct->FSMC_WaitSignal));
 284              		.loc 1 156 0 is_stmt 1
 285 011c 7B68     		ldr	r3, [r7, #4]
 286 011e 9B6A     		ldr	r3, [r3, #40]
 287 0120 002B     		cmp	r3, #0
 288 0122 08D0     		beq	.L18
 289              		.loc 1 156 0 is_stmt 0 discriminator 1
 290 0124 7B68     		ldr	r3, [r7, #4]
 291 0126 9B6A     		ldr	r3, [r3, #40]
 292 0128 B3F5005F 		cmp	r3, #8192
 293 012c 03D0     		beq	.L18
 294 012e 5848     		ldr	r0, .L39
 295 0130 9C21     		movs	r1, #156
 296 0132 FFF7FEFF 		bl	assert_failed
 297              	.L18:
 157:App/STM32F4-Discovery/Libraries/STM32F4xx_StdPeriph_Driver/src/stm32f4xx_fsmc.c ****   assert_param(IS_FSMC_EXTENDED_MODE(FSMC_NORSRAMInitStruct->FSMC_ExtendedMode));
 298              		.loc 1 157 0 is_stmt 1
 299 0136 7B68     		ldr	r3, [r7, #4]
 300 0138 DB6A     		ldr	r3, [r3, #44]
 301 013a 002B     		cmp	r3, #0
 302 013c 08D0     		beq	.L19
 303              		.loc 1 157 0 is_stmt 0 discriminator 1
 304 013e 7B68     		ldr	r3, [r7, #4]
 305 0140 DB6A     		ldr	r3, [r3, #44]
 306 0142 B3F5804F 		cmp	r3, #16384
 307 0146 03D0     		beq	.L19
 308 0148 5148     		ldr	r0, .L39
 309 014a 9D21     		movs	r1, #157
 310 014c FFF7FEFF 		bl	assert_failed
 311              	.L19:
 158:App/STM32F4-Discovery/Libraries/STM32F4xx_StdPeriph_Driver/src/stm32f4xx_fsmc.c ****   assert_param(IS_FSMC_WRITE_BURST(FSMC_NORSRAMInitStruct->FSMC_WriteBurst));  
 312              		.loc 1 158 0 is_stmt 1
 313 0150 7B68     		ldr	r3, [r7, #4]
 314 0152 1B6B     		ldr	r3, [r3, #48]
 315 0154 002B     		cmp	r3, #0
 316 0156 08D0     		beq	.L20
 317              		.loc 1 158 0 is_stmt 0 discriminator 1
 318 0158 7B68     		ldr	r3, [r7, #4]
 319 015a 1B6B     		ldr	r3, [r3, #48]
 320 015c B3F5002F 		cmp	r3, #524288
 321 0160 03D0     		beq	.L20
 322 0162 4B48     		ldr	r0, .L39
 323 0164 9E21     		movs	r1, #158
 324 0166 FFF7FEFF 		bl	assert_failed
 325              	.L20:
 159:App/STM32F4-Discovery/Libraries/STM32F4xx_StdPeriph_Driver/src/stm32f4xx_fsmc.c ****   assert_param(IS_FSMC_ADDRESS_SETUP_TIME(FSMC_NORSRAMInitStruct->FSMC_ReadWriteTimingStruct->FSMC_
 326              		.loc 1 159 0 is_stmt 1
 327 016a 7B68     		ldr	r3, [r7, #4]
 328 016c 5B6B     		ldr	r3, [r3, #52]
 329 016e 1B68     		ldr	r3, [r3]
 330 0170 0F2B     		cmp	r3, #15
 331 0172 03D9     		bls	.L21
 332              		.loc 1 159 0 is_stmt 0 discriminator 1
 333 0174 4648     		ldr	r0, .L39
 334 0176 9F21     		movs	r1, #159
 335 0178 FFF7FEFF 		bl	assert_failed
 336              	.L21:
 160:App/STM32F4-Discovery/Libraries/STM32F4xx_StdPeriph_Driver/src/stm32f4xx_fsmc.c ****   assert_param(IS_FSMC_ADDRESS_HOLD_TIME(FSMC_NORSRAMInitStruct->FSMC_ReadWriteTimingStruct->FSMC_A
 337              		.loc 1 160 0 is_stmt 1
 338 017c 7B68     		ldr	r3, [r7, #4]
 339 017e 5B6B     		ldr	r3, [r3, #52]
 340 0180 5B68     		ldr	r3, [r3, #4]
 341 0182 0F2B     		cmp	r3, #15
 342 0184 03D9     		bls	.L22
 343              		.loc 1 160 0 is_stmt 0 discriminator 1
 344 0186 4248     		ldr	r0, .L39
 345 0188 A021     		movs	r1, #160
 346 018a FFF7FEFF 		bl	assert_failed
 347              	.L22:
 161:App/STM32F4-Discovery/Libraries/STM32F4xx_StdPeriph_Driver/src/stm32f4xx_fsmc.c ****   assert_param(IS_FSMC_DATASETUP_TIME(FSMC_NORSRAMInitStruct->FSMC_ReadWriteTimingStruct->FSMC_Data
 348              		.loc 1 161 0 is_stmt 1
 349 018e 7B68     		ldr	r3, [r7, #4]
 350 0190 5B6B     		ldr	r3, [r3, #52]
 351 0192 9B68     		ldr	r3, [r3, #8]
 352 0194 002B     		cmp	r3, #0
 353 0196 04D0     		beq	.L23
 354              		.loc 1 161 0 is_stmt 0 discriminator 2
 355 0198 7B68     		ldr	r3, [r7, #4]
 356 019a 5B6B     		ldr	r3, [r3, #52]
 357 019c 9B68     		ldr	r3, [r3, #8]
 358 019e FF2B     		cmp	r3, #255
 359 01a0 03D9     		bls	.L24
 360              	.L23:
 361              		.loc 1 161 0 discriminator 1
 362 01a2 3B48     		ldr	r0, .L39
 363 01a4 A121     		movs	r1, #161
 364 01a6 FFF7FEFF 		bl	assert_failed
 365              	.L24:
 162:App/STM32F4-Discovery/Libraries/STM32F4xx_StdPeriph_Driver/src/stm32f4xx_fsmc.c ****   assert_param(IS_FSMC_TURNAROUND_TIME(FSMC_NORSRAMInitStruct->FSMC_ReadWriteTimingStruct->FSMC_Bus
 366              		.loc 1 162 0 is_stmt 1
 367 01aa 7B68     		ldr	r3, [r7, #4]
 368 01ac 5B6B     		ldr	r3, [r3, #52]
 369 01ae DB68     		ldr	r3, [r3, #12]
 370 01b0 0F2B     		cmp	r3, #15
 371 01b2 03D9     		bls	.L25
 372              		.loc 1 162 0 is_stmt 0 discriminator 1
 373 01b4 3648     		ldr	r0, .L39
 374 01b6 A221     		movs	r1, #162
 375 01b8 FFF7FEFF 		bl	assert_failed
 376              	.L25:
 163:App/STM32F4-Discovery/Libraries/STM32F4xx_StdPeriph_Driver/src/stm32f4xx_fsmc.c ****   assert_param(IS_FSMC_CLK_DIV(FSMC_NORSRAMInitStruct->FSMC_ReadWriteTimingStruct->FSMC_CLKDivision
 377              		.loc 1 163 0 is_stmt 1
 378 01bc 7B68     		ldr	r3, [r7, #4]
 379 01be 5B6B     		ldr	r3, [r3, #52]
 380 01c0 1B69     		ldr	r3, [r3, #16]
 381 01c2 0F2B     		cmp	r3, #15
 382 01c4 03D9     		bls	.L26
 383              		.loc 1 163 0 is_stmt 0 discriminator 1
 384 01c6 3248     		ldr	r0, .L39
 385 01c8 A321     		movs	r1, #163
 386 01ca FFF7FEFF 		bl	assert_failed
 387              	.L26:
 164:App/STM32F4-Discovery/Libraries/STM32F4xx_StdPeriph_Driver/src/stm32f4xx_fsmc.c ****   assert_param(IS_FSMC_DATA_LATENCY(FSMC_NORSRAMInitStruct->FSMC_ReadWriteTimingStruct->FSMC_DataLa
 388              		.loc 1 164 0 is_stmt 1
 389 01ce 7B68     		ldr	r3, [r7, #4]
 390 01d0 5B6B     		ldr	r3, [r3, #52]
 391 01d2 5B69     		ldr	r3, [r3, #20]
 392 01d4 0F2B     		cmp	r3, #15
 393 01d6 03D9     		bls	.L27
 394              		.loc 1 164 0 is_stmt 0 discriminator 1
 395 01d8 2D48     		ldr	r0, .L39
 396 01da A421     		movs	r1, #164
 397 01dc FFF7FEFF 		bl	assert_failed
 398              	.L27:
 165:App/STM32F4-Discovery/Libraries/STM32F4xx_StdPeriph_Driver/src/stm32f4xx_fsmc.c ****   assert_param(IS_FSMC_ACCESS_MODE(FSMC_NORSRAMInitStruct->FSMC_ReadWriteTimingStruct->FSMC_AccessM
 399              		.loc 1 165 0 is_stmt 1
 400 01e0 7B68     		ldr	r3, [r7, #4]
 401 01e2 5B6B     		ldr	r3, [r3, #52]
 402 01e4 9B69     		ldr	r3, [r3, #24]
 403 01e6 002B     		cmp	r3, #0
 404 01e8 15D0     		beq	.L28
 405              		.loc 1 165 0 is_stmt 0 discriminator 1
 406 01ea 7B68     		ldr	r3, [r7, #4]
 407 01ec 5B6B     		ldr	r3, [r3, #52]
 408 01ee 9B69     		ldr	r3, [r3, #24]
 409 01f0 B3F1805F 		cmp	r3, #268435456
 410 01f4 0FD0     		beq	.L28
 411 01f6 7B68     		ldr	r3, [r7, #4]
 412 01f8 5B6B     		ldr	r3, [r3, #52]
 413 01fa 9B69     		ldr	r3, [r3, #24]
 414 01fc B3F1005F 		cmp	r3, #536870912
 415 0200 09D0     		beq	.L28
 416 0202 7B68     		ldr	r3, [r7, #4]
 417 0204 5B6B     		ldr	r3, [r3, #52]
 418 0206 9B69     		ldr	r3, [r3, #24]
 419 0208 B3F1405F 		cmp	r3, #805306368
 420 020c 03D0     		beq	.L28
 421 020e 2048     		ldr	r0, .L39
 422 0210 A521     		movs	r1, #165
 423 0212 FFF7FEFF 		bl	assert_failed
 424              	.L28:
 166:App/STM32F4-Discovery/Libraries/STM32F4xx_StdPeriph_Driver/src/stm32f4xx_fsmc.c ****   
 167:App/STM32F4-Discovery/Libraries/STM32F4xx_StdPeriph_Driver/src/stm32f4xx_fsmc.c ****   /* Bank1 NOR/SRAM control register configuration */ 
 168:App/STM32F4-Discovery/Libraries/STM32F4xx_StdPeriph_Driver/src/stm32f4xx_fsmc.c ****   FSMC_Bank1->BTCR[FSMC_NORSRAMInitStruct->FSMC_Bank] = 
 425              		.loc 1 168 0 is_stmt 1
 426 0216 4FF02043 		mov	r3, #-1610612736
 427 021a 7A68     		ldr	r2, [r7, #4]
 428 021c 1268     		ldr	r2, [r2]
 169:App/STM32F4-Discovery/Libraries/STM32F4xx_StdPeriph_Driver/src/stm32f4xx_fsmc.c ****             (uint32_t)FSMC_NORSRAMInitStruct->FSMC_DataAddressMux |
 429              		.loc 1 169 0
 430 021e 7968     		ldr	r1, [r7, #4]
 431 0220 4868     		ldr	r0, [r1, #4]
 170:App/STM32F4-Discovery/Libraries/STM32F4xx_StdPeriph_Driver/src/stm32f4xx_fsmc.c ****             FSMC_NORSRAMInitStruct->FSMC_MemoryType |
 432              		.loc 1 170 0
 433 0222 7968     		ldr	r1, [r7, #4]
 434 0224 8968     		ldr	r1, [r1, #8]
 169:App/STM32F4-Discovery/Libraries/STM32F4xx_StdPeriph_Driver/src/stm32f4xx_fsmc.c ****             (uint32_t)FSMC_NORSRAMInitStruct->FSMC_DataAddressMux |
 435              		.loc 1 169 0
 436 0226 0843     		orrs	r0, r0, r1
 171:App/STM32F4-Discovery/Libraries/STM32F4xx_StdPeriph_Driver/src/stm32f4xx_fsmc.c ****             FSMC_NORSRAMInitStruct->FSMC_MemoryDataWidth |
 437              		.loc 1 171 0
 438 0228 7968     		ldr	r1, [r7, #4]
 439 022a C968     		ldr	r1, [r1, #12]
 170:App/STM32F4-Discovery/Libraries/STM32F4xx_StdPeriph_Driver/src/stm32f4xx_fsmc.c ****             FSMC_NORSRAMInitStruct->FSMC_MemoryType |
 440              		.loc 1 170 0
 441 022c 0843     		orrs	r0, r0, r1
 172:App/STM32F4-Discovery/Libraries/STM32F4xx_StdPeriph_Driver/src/stm32f4xx_fsmc.c ****             FSMC_NORSRAMInitStruct->FSMC_BurstAccessMode |
 442              		.loc 1 172 0
 443 022e 7968     		ldr	r1, [r7, #4]
 444 0230 0969     		ldr	r1, [r1, #16]
 171:App/STM32F4-Discovery/Libraries/STM32F4xx_StdPeriph_Driver/src/stm32f4xx_fsmc.c ****             FSMC_NORSRAMInitStruct->FSMC_MemoryDataWidth |
 445              		.loc 1 171 0
 446 0232 0843     		orrs	r0, r0, r1
 173:App/STM32F4-Discovery/Libraries/STM32F4xx_StdPeriph_Driver/src/stm32f4xx_fsmc.c ****             FSMC_NORSRAMInitStruct->FSMC_AsynchronousWait |
 447              		.loc 1 173 0
 448 0234 7968     		ldr	r1, [r7, #4]
 449 0236 4969     		ldr	r1, [r1, #20]
 172:App/STM32F4-Discovery/Libraries/STM32F4xx_StdPeriph_Driver/src/stm32f4xx_fsmc.c ****             FSMC_NORSRAMInitStruct->FSMC_BurstAccessMode |
 450              		.loc 1 172 0
 451 0238 0843     		orrs	r0, r0, r1
 174:App/STM32F4-Discovery/Libraries/STM32F4xx_StdPeriph_Driver/src/stm32f4xx_fsmc.c ****             FSMC_NORSRAMInitStruct->FSMC_WaitSignalPolarity |
 452              		.loc 1 174 0
 453 023a 7968     		ldr	r1, [r7, #4]
 454 023c 8969     		ldr	r1, [r1, #24]
 173:App/STM32F4-Discovery/Libraries/STM32F4xx_StdPeriph_Driver/src/stm32f4xx_fsmc.c ****             FSMC_NORSRAMInitStruct->FSMC_AsynchronousWait |
 455              		.loc 1 173 0
 456 023e 0843     		orrs	r0, r0, r1
 175:App/STM32F4-Discovery/Libraries/STM32F4xx_StdPeriph_Driver/src/stm32f4xx_fsmc.c ****             FSMC_NORSRAMInitStruct->FSMC_WrapMode |
 457              		.loc 1 175 0
 458 0240 7968     		ldr	r1, [r7, #4]
 459 0242 C969     		ldr	r1, [r1, #28]
 174:App/STM32F4-Discovery/Libraries/STM32F4xx_StdPeriph_Driver/src/stm32f4xx_fsmc.c ****             FSMC_NORSRAMInitStruct->FSMC_WaitSignalPolarity |
 460              		.loc 1 174 0
 461 0244 0843     		orrs	r0, r0, r1
 176:App/STM32F4-Discovery/Libraries/STM32F4xx_StdPeriph_Driver/src/stm32f4xx_fsmc.c ****             FSMC_NORSRAMInitStruct->FSMC_WaitSignalActive |
 462              		.loc 1 176 0
 463 0246 7968     		ldr	r1, [r7, #4]
 464 0248 096A     		ldr	r1, [r1, #32]
 175:App/STM32F4-Discovery/Libraries/STM32F4xx_StdPeriph_Driver/src/stm32f4xx_fsmc.c ****             FSMC_NORSRAMInitStruct->FSMC_WrapMode |
 465              		.loc 1 175 0
 466 024a 0843     		orrs	r0, r0, r1
 177:App/STM32F4-Discovery/Libraries/STM32F4xx_StdPeriph_Driver/src/stm32f4xx_fsmc.c ****             FSMC_NORSRAMInitStruct->FSMC_WriteOperation |
 467              		.loc 1 177 0
 468 024c 7968     		ldr	r1, [r7, #4]
 469 024e 496A     		ldr	r1, [r1, #36]
 176:App/STM32F4-Discovery/Libraries/STM32F4xx_StdPeriph_Driver/src/stm32f4xx_fsmc.c ****             FSMC_NORSRAMInitStruct->FSMC_WaitSignalActive |
 470              		.loc 1 176 0
 471 0250 0843     		orrs	r0, r0, r1
 178:App/STM32F4-Discovery/Libraries/STM32F4xx_StdPeriph_Driver/src/stm32f4xx_fsmc.c ****             FSMC_NORSRAMInitStruct->FSMC_WaitSignal |
 472              		.loc 1 178 0
 473 0252 7968     		ldr	r1, [r7, #4]
 474 0254 896A     		ldr	r1, [r1, #40]
 177:App/STM32F4-Discovery/Libraries/STM32F4xx_StdPeriph_Driver/src/stm32f4xx_fsmc.c ****             FSMC_NORSRAMInitStruct->FSMC_WriteOperation |
 475              		.loc 1 177 0
 476 0256 0843     		orrs	r0, r0, r1
 179:App/STM32F4-Discovery/Libraries/STM32F4xx_StdPeriph_Driver/src/stm32f4xx_fsmc.c ****             FSMC_NORSRAMInitStruct->FSMC_ExtendedMode |
 477              		.loc 1 179 0
 478 0258 7968     		ldr	r1, [r7, #4]
 479 025a C96A     		ldr	r1, [r1, #44]
 178:App/STM32F4-Discovery/Libraries/STM32F4xx_StdPeriph_Driver/src/stm32f4xx_fsmc.c ****             FSMC_NORSRAMInitStruct->FSMC_WaitSignal |
 480              		.loc 1 178 0
 481 025c 0843     		orrs	r0, r0, r1
 180:App/STM32F4-Discovery/Libraries/STM32F4xx_StdPeriph_Driver/src/stm32f4xx_fsmc.c ****             FSMC_NORSRAMInitStruct->FSMC_WriteBurst;
 482              		.loc 1 180 0
 483 025e 7968     		ldr	r1, [r7, #4]
 484 0260 096B     		ldr	r1, [r1, #48]
 179:App/STM32F4-Discovery/Libraries/STM32F4xx_StdPeriph_Driver/src/stm32f4xx_fsmc.c ****             FSMC_NORSRAMInitStruct->FSMC_ExtendedMode |
 485              		.loc 1 179 0
 486 0262 0143     		orrs	r1, r1, r0
 168:App/STM32F4-Discovery/Libraries/STM32F4xx_StdPeriph_Driver/src/stm32f4xx_fsmc.c ****   FSMC_Bank1->BTCR[FSMC_NORSRAMInitStruct->FSMC_Bank] = 
 487              		.loc 1 168 0
 488 0264 43F82210 		str	r1, [r3, r2, lsl #2]
 181:App/STM32F4-Discovery/Libraries/STM32F4xx_StdPeriph_Driver/src/stm32f4xx_fsmc.c ****   if(FSMC_NORSRAMInitStruct->FSMC_MemoryType == FSMC_MemoryType_NOR)
 489              		.loc 1 181 0
 490 0268 7B68     		ldr	r3, [r7, #4]
 491 026a 9B68     		ldr	r3, [r3, #8]
 492 026c 082B     		cmp	r3, #8
 493 026e 11D1     		bne	.L29
 182:App/STM32F4-Discovery/Libraries/STM32F4xx_StdPeriph_Driver/src/stm32f4xx_fsmc.c ****   {
 183:App/STM32F4-Discovery/Libraries/STM32F4xx_StdPeriph_Driver/src/stm32f4xx_fsmc.c ****     FSMC_Bank1->BTCR[FSMC_NORSRAMInitStruct->FSMC_Bank] |= (uint32_t)BCR_FACCEN_SET;
 494              		.loc 1 183 0
 495 0270 4FF02043 		mov	r3, #-1610612736
 496 0274 7A68     		ldr	r2, [r7, #4]
 497 0276 1268     		ldr	r2, [r2]
 498 0278 4FF02041 		mov	r1, #-1610612736
 499 027c 7868     		ldr	r0, [r7, #4]
 500 027e 0068     		ldr	r0, [r0]
 501 0280 51F82010 		ldr	r1, [r1, r0, lsl #2]
 502 0284 41F04001 		orr	r1, r1, #64
 503 0288 43F82210 		str	r1, [r3, r2, lsl #2]
 504 028c 02E0     		b	.L40
 505              	.L41:
 506 028e 00BF     		.align	2
 507              	.L39:
 508 0290 00000000 		.word	.LC0
 509              	.L40:
 510              	.L29:
 184:App/STM32F4-Discovery/Libraries/STM32F4xx_StdPeriph_Driver/src/stm32f4xx_fsmc.c ****   }
 185:App/STM32F4-Discovery/Libraries/STM32F4xx_StdPeriph_Driver/src/stm32f4xx_fsmc.c ****   /* Bank1 NOR/SRAM timing register configuration */
 186:App/STM32F4-Discovery/Libraries/STM32F4xx_StdPeriph_Driver/src/stm32f4xx_fsmc.c ****   FSMC_Bank1->BTCR[FSMC_NORSRAMInitStruct->FSMC_Bank+1] = 
 511              		.loc 1 186 0
 512 0294 4FF02043 		mov	r3, #-1610612736
 513 0298 7A68     		ldr	r2, [r7, #4]
 514 029a 1268     		ldr	r2, [r2]
 515 029c 0132     		adds	r2, r2, #1
 187:App/STM32F4-Discovery/Libraries/STM32F4xx_StdPeriph_Driver/src/stm32f4xx_fsmc.c ****             (uint32_t)FSMC_NORSRAMInitStruct->FSMC_ReadWriteTimingStruct->FSMC_AddressSetupTime |
 516              		.loc 1 187 0
 517 029e 7968     		ldr	r1, [r7, #4]
 518 02a0 496B     		ldr	r1, [r1, #52]
 519 02a2 0868     		ldr	r0, [r1]
 188:App/STM32F4-Discovery/Libraries/STM32F4xx_StdPeriph_Driver/src/stm32f4xx_fsmc.c ****             (FSMC_NORSRAMInitStruct->FSMC_ReadWriteTimingStruct->FSMC_AddressHoldTime << 4) |
 520              		.loc 1 188 0
 521 02a4 7968     		ldr	r1, [r7, #4]
 522 02a6 496B     		ldr	r1, [r1, #52]
 523 02a8 4968     		ldr	r1, [r1, #4]
 524 02aa 0901     		lsls	r1, r1, #4
 187:App/STM32F4-Discovery/Libraries/STM32F4xx_StdPeriph_Driver/src/stm32f4xx_fsmc.c ****             (uint32_t)FSMC_NORSRAMInitStruct->FSMC_ReadWriteTimingStruct->FSMC_AddressSetupTime |
 525              		.loc 1 187 0
 526 02ac 0843     		orrs	r0, r0, r1
 189:App/STM32F4-Discovery/Libraries/STM32F4xx_StdPeriph_Driver/src/stm32f4xx_fsmc.c ****             (FSMC_NORSRAMInitStruct->FSMC_ReadWriteTimingStruct->FSMC_DataSetupTime << 8) |
 527              		.loc 1 189 0
 528 02ae 7968     		ldr	r1, [r7, #4]
 529 02b0 496B     		ldr	r1, [r1, #52]
 530 02b2 8968     		ldr	r1, [r1, #8]
 531 02b4 0902     		lsls	r1, r1, #8
 188:App/STM32F4-Discovery/Libraries/STM32F4xx_StdPeriph_Driver/src/stm32f4xx_fsmc.c ****             (FSMC_NORSRAMInitStruct->FSMC_ReadWriteTimingStruct->FSMC_AddressHoldTime << 4) |
 532              		.loc 1 188 0
 533 02b6 0843     		orrs	r0, r0, r1
 190:App/STM32F4-Discovery/Libraries/STM32F4xx_StdPeriph_Driver/src/stm32f4xx_fsmc.c ****             (FSMC_NORSRAMInitStruct->FSMC_ReadWriteTimingStruct->FSMC_BusTurnAroundDuration << 16) 
 534              		.loc 1 190 0
 535 02b8 7968     		ldr	r1, [r7, #4]
 536 02ba 496B     		ldr	r1, [r1, #52]
 537 02bc C968     		ldr	r1, [r1, #12]
 538 02be 0904     		lsls	r1, r1, #16
 189:App/STM32F4-Discovery/Libraries/STM32F4xx_StdPeriph_Driver/src/stm32f4xx_fsmc.c ****             (FSMC_NORSRAMInitStruct->FSMC_ReadWriteTimingStruct->FSMC_DataSetupTime << 8) |
 539              		.loc 1 189 0
 540 02c0 0843     		orrs	r0, r0, r1
 191:App/STM32F4-Discovery/Libraries/STM32F4xx_StdPeriph_Driver/src/stm32f4xx_fsmc.c ****             (FSMC_NORSRAMInitStruct->FSMC_ReadWriteTimingStruct->FSMC_CLKDivision << 20) |
 541              		.loc 1 191 0
 542 02c2 7968     		ldr	r1, [r7, #4]
 543 02c4 496B     		ldr	r1, [r1, #52]
 544 02c6 0969     		ldr	r1, [r1, #16]
 545 02c8 0905     		lsls	r1, r1, #20
 190:App/STM32F4-Discovery/Libraries/STM32F4xx_StdPeriph_Driver/src/stm32f4xx_fsmc.c ****             (FSMC_NORSRAMInitStruct->FSMC_ReadWriteTimingStruct->FSMC_BusTurnAroundDuration << 16) 
 546              		.loc 1 190 0
 547 02ca 0843     		orrs	r0, r0, r1
 192:App/STM32F4-Discovery/Libraries/STM32F4xx_StdPeriph_Driver/src/stm32f4xx_fsmc.c ****             (FSMC_NORSRAMInitStruct->FSMC_ReadWriteTimingStruct->FSMC_DataLatency << 24) |
 548              		.loc 1 192 0
 549 02cc 7968     		ldr	r1, [r7, #4]
 550 02ce 496B     		ldr	r1, [r1, #52]
 551 02d0 4969     		ldr	r1, [r1, #20]
 552 02d2 0906     		lsls	r1, r1, #24
 191:App/STM32F4-Discovery/Libraries/STM32F4xx_StdPeriph_Driver/src/stm32f4xx_fsmc.c ****             (FSMC_NORSRAMInitStruct->FSMC_ReadWriteTimingStruct->FSMC_CLKDivision << 20) |
 553              		.loc 1 191 0
 554 02d4 0843     		orrs	r0, r0, r1
 193:App/STM32F4-Discovery/Libraries/STM32F4xx_StdPeriph_Driver/src/stm32f4xx_fsmc.c ****              FSMC_NORSRAMInitStruct->FSMC_ReadWriteTimingStruct->FSMC_AccessMode;
 555              		.loc 1 193 0
 556 02d6 7968     		ldr	r1, [r7, #4]
 557 02d8 496B     		ldr	r1, [r1, #52]
 558 02da 8969     		ldr	r1, [r1, #24]
 192:App/STM32F4-Discovery/Libraries/STM32F4xx_StdPeriph_Driver/src/stm32f4xx_fsmc.c ****             (FSMC_NORSRAMInitStruct->FSMC_ReadWriteTimingStruct->FSMC_DataLatency << 24) |
 559              		.loc 1 192 0
 560 02dc 0143     		orrs	r1, r1, r0
 186:App/STM32F4-Discovery/Libraries/STM32F4xx_StdPeriph_Driver/src/stm32f4xx_fsmc.c ****   FSMC_Bank1->BTCR[FSMC_NORSRAMInitStruct->FSMC_Bank+1] = 
 561              		.loc 1 186 0
 562 02de 43F82210 		str	r1, [r3, r2, lsl #2]
 194:App/STM32F4-Discovery/Libraries/STM32F4xx_StdPeriph_Driver/src/stm32f4xx_fsmc.c ****             
 195:App/STM32F4-Discovery/Libraries/STM32F4xx_StdPeriph_Driver/src/stm32f4xx_fsmc.c ****     
 196:App/STM32F4-Discovery/Libraries/STM32F4xx_StdPeriph_Driver/src/stm32f4xx_fsmc.c ****   /* Bank1 NOR/SRAM timing register for write configuration, if extended mode is used */
 197:App/STM32F4-Discovery/Libraries/STM32F4xx_StdPeriph_Driver/src/stm32f4xx_fsmc.c ****   if(FSMC_NORSRAMInitStruct->FSMC_ExtendedMode == FSMC_ExtendedMode_Enable)
 563              		.loc 1 197 0
 564 02e2 7B68     		ldr	r3, [r7, #4]
 565 02e4 DB6A     		ldr	r3, [r3, #44]
 566 02e6 B3F5804F 		cmp	r3, #16384
 567 02ea 6DD1     		bne	.L30
 198:App/STM32F4-Discovery/Libraries/STM32F4xx_StdPeriph_Driver/src/stm32f4xx_fsmc.c ****   {
 199:App/STM32F4-Discovery/Libraries/STM32F4xx_StdPeriph_Driver/src/stm32f4xx_fsmc.c ****     assert_param(IS_FSMC_ADDRESS_SETUP_TIME(FSMC_NORSRAMInitStruct->FSMC_WriteTimingStruct->FSMC_Ad
 568              		.loc 1 199 0
 569 02ec 7B68     		ldr	r3, [r7, #4]
 570 02ee 9B6B     		ldr	r3, [r3, #56]
 571 02f0 1B68     		ldr	r3, [r3]
 572 02f2 0F2B     		cmp	r3, #15
 573 02f4 03D9     		bls	.L31
 574              		.loc 1 199 0 is_stmt 0 discriminator 1
 575 02f6 3948     		ldr	r0, .L42
 576 02f8 C721     		movs	r1, #199
 577 02fa FFF7FEFF 		bl	assert_failed
 578              	.L31:
 200:App/STM32F4-Discovery/Libraries/STM32F4xx_StdPeriph_Driver/src/stm32f4xx_fsmc.c ****     assert_param(IS_FSMC_ADDRESS_HOLD_TIME(FSMC_NORSRAMInitStruct->FSMC_WriteTimingStruct->FSMC_Add
 579              		.loc 1 200 0 is_stmt 1
 580 02fe 7B68     		ldr	r3, [r7, #4]
 581 0300 9B6B     		ldr	r3, [r3, #56]
 582 0302 5B68     		ldr	r3, [r3, #4]
 583 0304 0F2B     		cmp	r3, #15
 584 0306 03D9     		bls	.L32
 585              		.loc 1 200 0 is_stmt 0 discriminator 1
 586 0308 3448     		ldr	r0, .L42
 587 030a C821     		movs	r1, #200
 588 030c FFF7FEFF 		bl	assert_failed
 589              	.L32:
 201:App/STM32F4-Discovery/Libraries/STM32F4xx_StdPeriph_Driver/src/stm32f4xx_fsmc.c ****     assert_param(IS_FSMC_DATASETUP_TIME(FSMC_NORSRAMInitStruct->FSMC_WriteTimingStruct->FSMC_DataSe
 590              		.loc 1 201 0 is_stmt 1
 591 0310 7B68     		ldr	r3, [r7, #4]
 592 0312 9B6B     		ldr	r3, [r3, #56]
 593 0314 9B68     		ldr	r3, [r3, #8]
 594 0316 002B     		cmp	r3, #0
 595 0318 04D0     		beq	.L33
 596              		.loc 1 201 0 is_stmt 0 discriminator 2
 597 031a 7B68     		ldr	r3, [r7, #4]
 598 031c 9B6B     		ldr	r3, [r3, #56]
 599 031e 9B68     		ldr	r3, [r3, #8]
 600 0320 FF2B     		cmp	r3, #255
 601 0322 03D9     		bls	.L34
 602              	.L33:
 603              		.loc 1 201 0 discriminator 1
 604 0324 2D48     		ldr	r0, .L42
 605 0326 C921     		movs	r1, #201
 606 0328 FFF7FEFF 		bl	assert_failed
 607              	.L34:
 202:App/STM32F4-Discovery/Libraries/STM32F4xx_StdPeriph_Driver/src/stm32f4xx_fsmc.c ****     assert_param(IS_FSMC_CLK_DIV(FSMC_NORSRAMInitStruct->FSMC_WriteTimingStruct->FSMC_CLKDivision))
 608              		.loc 1 202 0 is_stmt 1
 609 032c 7B68     		ldr	r3, [r7, #4]
 610 032e 9B6B     		ldr	r3, [r3, #56]
 611 0330 1B69     		ldr	r3, [r3, #16]
 612 0332 0F2B     		cmp	r3, #15
 613 0334 03D9     		bls	.L35
 614              		.loc 1 202 0 is_stmt 0 discriminator 1
 615 0336 2948     		ldr	r0, .L42
 616 0338 CA21     		movs	r1, #202
 617 033a FFF7FEFF 		bl	assert_failed
 618              	.L35:
 203:App/STM32F4-Discovery/Libraries/STM32F4xx_StdPeriph_Driver/src/stm32f4xx_fsmc.c ****     assert_param(IS_FSMC_DATA_LATENCY(FSMC_NORSRAMInitStruct->FSMC_WriteTimingStruct->FSMC_DataLate
 619              		.loc 1 203 0 is_stmt 1
 620 033e 7B68     		ldr	r3, [r7, #4]
 621 0340 9B6B     		ldr	r3, [r3, #56]
 622 0342 5B69     		ldr	r3, [r3, #20]
 623 0344 0F2B     		cmp	r3, #15
 624 0346 03D9     		bls	.L36
 625              		.loc 1 203 0 is_stmt 0 discriminator 1
 626 0348 2448     		ldr	r0, .L42
 627 034a CB21     		movs	r1, #203
 628 034c FFF7FEFF 		bl	assert_failed
 629              	.L36:
 204:App/STM32F4-Discovery/Libraries/STM32F4xx_StdPeriph_Driver/src/stm32f4xx_fsmc.c ****     assert_param(IS_FSMC_ACCESS_MODE(FSMC_NORSRAMInitStruct->FSMC_WriteTimingStruct->FSMC_AccessMod
 630              		.loc 1 204 0 is_stmt 1
 631 0350 7B68     		ldr	r3, [r7, #4]
 632 0352 9B6B     		ldr	r3, [r3, #56]
 633 0354 9B69     		ldr	r3, [r3, #24]
 634 0356 002B     		cmp	r3, #0
 635 0358 15D0     		beq	.L37
 636              		.loc 1 204 0 is_stmt 0 discriminator 1
 637 035a 7B68     		ldr	r3, [r7, #4]
 638 035c 9B6B     		ldr	r3, [r3, #56]
 639 035e 9B69     		ldr	r3, [r3, #24]
 640 0360 B3F1805F 		cmp	r3, #268435456
 641 0364 0FD0     		beq	.L37
 642 0366 7B68     		ldr	r3, [r7, #4]
 643 0368 9B6B     		ldr	r3, [r3, #56]
 644 036a 9B69     		ldr	r3, [r3, #24]
 645 036c B3F1005F 		cmp	r3, #536870912
 646 0370 09D0     		beq	.L37
 647 0372 7B68     		ldr	r3, [r7, #4]
 648 0374 9B6B     		ldr	r3, [r3, #56]
 649 0376 9B69     		ldr	r3, [r3, #24]
 650 0378 B3F1405F 		cmp	r3, #805306368
 651 037c 03D0     		beq	.L37
 652 037e 1748     		ldr	r0, .L42
 653 0380 CC21     		movs	r1, #204
 654 0382 FFF7FEFF 		bl	assert_failed
 655              	.L37:
 205:App/STM32F4-Discovery/Libraries/STM32F4xx_StdPeriph_Driver/src/stm32f4xx_fsmc.c ****     FSMC_Bank1E->BWTR[FSMC_NORSRAMInitStruct->FSMC_Bank] = 
 656              		.loc 1 205 0 is_stmt 1 discriminator 1
 657 0386 164B     		ldr	r3, .L42+4
 658 0388 7A68     		ldr	r2, [r7, #4]
 659 038a 1268     		ldr	r2, [r2]
 206:App/STM32F4-Discovery/Libraries/STM32F4xx_StdPeriph_Driver/src/stm32f4xx_fsmc.c ****               (uint32_t)FSMC_NORSRAMInitStruct->FSMC_WriteTimingStruct->FSMC_AddressSetupTime |
 660              		.loc 1 206 0 discriminator 1
 661 038c 7968     		ldr	r1, [r7, #4]
 662 038e 896B     		ldr	r1, [r1, #56]
 663 0390 0868     		ldr	r0, [r1]
 207:App/STM32F4-Discovery/Libraries/STM32F4xx_StdPeriph_Driver/src/stm32f4xx_fsmc.c ****               (FSMC_NORSRAMInitStruct->FSMC_WriteTimingStruct->FSMC_AddressHoldTime << 4 )|
 664              		.loc 1 207 0 discriminator 1
 665 0392 7968     		ldr	r1, [r7, #4]
 666 0394 896B     		ldr	r1, [r1, #56]
 667 0396 4968     		ldr	r1, [r1, #4]
 668 0398 0901     		lsls	r1, r1, #4
 206:App/STM32F4-Discovery/Libraries/STM32F4xx_StdPeriph_Driver/src/stm32f4xx_fsmc.c ****               (uint32_t)FSMC_NORSRAMInitStruct->FSMC_WriteTimingStruct->FSMC_AddressSetupTime |
 669              		.loc 1 206 0 discriminator 1
 670 039a 0843     		orrs	r0, r0, r1
 208:App/STM32F4-Discovery/Libraries/STM32F4xx_StdPeriph_Driver/src/stm32f4xx_fsmc.c ****               (FSMC_NORSRAMInitStruct->FSMC_WriteTimingStruct->FSMC_DataSetupTime << 8) |
 671              		.loc 1 208 0 discriminator 1
 672 039c 7968     		ldr	r1, [r7, #4]
 673 039e 896B     		ldr	r1, [r1, #56]
 674 03a0 8968     		ldr	r1, [r1, #8]
 675 03a2 0902     		lsls	r1, r1, #8
 207:App/STM32F4-Discovery/Libraries/STM32F4xx_StdPeriph_Driver/src/stm32f4xx_fsmc.c ****               (FSMC_NORSRAMInitStruct->FSMC_WriteTimingStruct->FSMC_AddressHoldTime << 4 )|
 676              		.loc 1 207 0 discriminator 1
 677 03a4 0843     		orrs	r0, r0, r1
 209:App/STM32F4-Discovery/Libraries/STM32F4xx_StdPeriph_Driver/src/stm32f4xx_fsmc.c ****               (FSMC_NORSRAMInitStruct->FSMC_WriteTimingStruct->FSMC_CLKDivision << 20) |
 678              		.loc 1 209 0 discriminator 1
 679 03a6 7968     		ldr	r1, [r7, #4]
 680 03a8 896B     		ldr	r1, [r1, #56]
 681 03aa 0969     		ldr	r1, [r1, #16]
 682 03ac 0905     		lsls	r1, r1, #20
 208:App/STM32F4-Discovery/Libraries/STM32F4xx_StdPeriph_Driver/src/stm32f4xx_fsmc.c ****               (FSMC_NORSRAMInitStruct->FSMC_WriteTimingStruct->FSMC_DataSetupTime << 8) |
 683              		.loc 1 208 0 discriminator 1
 684 03ae 0843     		orrs	r0, r0, r1
 210:App/STM32F4-Discovery/Libraries/STM32F4xx_StdPeriph_Driver/src/stm32f4xx_fsmc.c ****               (FSMC_NORSRAMInitStruct->FSMC_WriteTimingStruct->FSMC_DataLatency << 24) |
 685              		.loc 1 210 0 discriminator 1
 686 03b0 7968     		ldr	r1, [r7, #4]
 687 03b2 896B     		ldr	r1, [r1, #56]
 688 03b4 4969     		ldr	r1, [r1, #20]
 689 03b6 0906     		lsls	r1, r1, #24
 209:App/STM32F4-Discovery/Libraries/STM32F4xx_StdPeriph_Driver/src/stm32f4xx_fsmc.c ****               (FSMC_NORSRAMInitStruct->FSMC_WriteTimingStruct->FSMC_CLKDivision << 20) |
 690              		.loc 1 209 0 discriminator 1
 691 03b8 0843     		orrs	r0, r0, r1
 211:App/STM32F4-Discovery/Libraries/STM32F4xx_StdPeriph_Driver/src/stm32f4xx_fsmc.c ****                FSMC_NORSRAMInitStruct->FSMC_WriteTimingStruct->FSMC_AccessMode;
 692              		.loc 1 211 0 discriminator 1
 693 03ba 7968     		ldr	r1, [r7, #4]
 694 03bc 896B     		ldr	r1, [r1, #56]
 695 03be 8969     		ldr	r1, [r1, #24]
 210:App/STM32F4-Discovery/Libraries/STM32F4xx_StdPeriph_Driver/src/stm32f4xx_fsmc.c ****               (FSMC_NORSRAMInitStruct->FSMC_WriteTimingStruct->FSMC_DataLatency << 24) |
 696              		.loc 1 210 0 discriminator 1
 697 03c0 0143     		orrs	r1, r1, r0
 205:App/STM32F4-Discovery/Libraries/STM32F4xx_StdPeriph_Driver/src/stm32f4xx_fsmc.c ****     FSMC_Bank1E->BWTR[FSMC_NORSRAMInitStruct->FSMC_Bank] = 
 698              		.loc 1 205 0 discriminator 1
 699 03c2 43F82210 		str	r1, [r3, r2, lsl #2]
 700 03c6 06E0     		b	.L7
 701              	.L30:
 212:App/STM32F4-Discovery/Libraries/STM32F4xx_StdPeriph_Driver/src/stm32f4xx_fsmc.c ****   }
 213:App/STM32F4-Discovery/Libraries/STM32F4xx_StdPeriph_Driver/src/stm32f4xx_fsmc.c ****   else
 214:App/STM32F4-Discovery/Libraries/STM32F4xx_StdPeriph_Driver/src/stm32f4xx_fsmc.c ****   {
 215:App/STM32F4-Discovery/Libraries/STM32F4xx_StdPeriph_Driver/src/stm32f4xx_fsmc.c ****     FSMC_Bank1E->BWTR[FSMC_NORSRAMInitStruct->FSMC_Bank] = 0x0FFFFFFF;
 702              		.loc 1 215 0
 703 03c8 054B     		ldr	r3, .L42+4
 704 03ca 7A68     		ldr	r2, [r7, #4]
 705 03cc 1268     		ldr	r2, [r2]
 706 03ce 6FF07041 		mvn	r1, #-268435456
 707 03d2 43F82210 		str	r1, [r3, r2, lsl #2]
 708              	.L7:
 216:App/STM32F4-Discovery/Libraries/STM32F4xx_StdPeriph_Driver/src/stm32f4xx_fsmc.c ****   }
 217:App/STM32F4-Discovery/Libraries/STM32F4xx_StdPeriph_Driver/src/stm32f4xx_fsmc.c **** }
 709              		.loc 1 217 0
 710 03d6 0837     		adds	r7, r7, #8
 711 03d8 BD46     		mov	sp, r7
 712              		@ sp needed
 713 03da 80BD     		pop	{r7, pc}
 714              	.L43:
 715              		.align	2
 716              	.L42:
 717 03dc 00000000 		.word	.LC0
 718 03e0 040100A0 		.word	-1610612476
 719              		.cfi_endproc
 720              	.LFE111:
 722              		.section	.text.FSMC_NORSRAMStructInit,"ax",%progbits
 723              		.align	2
 724              		.global	FSMC_NORSRAMStructInit
 725              		.thumb
 726              		.thumb_func
 728              	FSMC_NORSRAMStructInit:
 729              	.LFB112:
 218:App/STM32F4-Discovery/Libraries/STM32F4xx_StdPeriph_Driver/src/stm32f4xx_fsmc.c **** 
 219:App/STM32F4-Discovery/Libraries/STM32F4xx_StdPeriph_Driver/src/stm32f4xx_fsmc.c **** /**
 220:App/STM32F4-Discovery/Libraries/STM32F4xx_StdPeriph_Driver/src/stm32f4xx_fsmc.c ****   * @brief  Fills each FSMC_NORSRAMInitStruct member with its default value.
 221:App/STM32F4-Discovery/Libraries/STM32F4xx_StdPeriph_Driver/src/stm32f4xx_fsmc.c ****   * @param  FSMC_NORSRAMInitStruct: pointer to a FSMC_NORSRAMInitTypeDef structure 
 222:App/STM32F4-Discovery/Libraries/STM32F4xx_StdPeriph_Driver/src/stm32f4xx_fsmc.c ****   *         which will be initialized.
 223:App/STM32F4-Discovery/Libraries/STM32F4xx_StdPeriph_Driver/src/stm32f4xx_fsmc.c ****   * @retval None
 224:App/STM32F4-Discovery/Libraries/STM32F4xx_StdPeriph_Driver/src/stm32f4xx_fsmc.c ****   */
 225:App/STM32F4-Discovery/Libraries/STM32F4xx_StdPeriph_Driver/src/stm32f4xx_fsmc.c **** void FSMC_NORSRAMStructInit(FSMC_NORSRAMInitTypeDef* FSMC_NORSRAMInitStruct)
 226:App/STM32F4-Discovery/Libraries/STM32F4xx_StdPeriph_Driver/src/stm32f4xx_fsmc.c **** {  
 730              		.loc 1 226 0
 731              		.cfi_startproc
 732              		@ args = 0, pretend = 0, frame = 8
 733              		@ frame_needed = 1, uses_anonymous_args = 0
 734              		@ link register save eliminated.
 735 0000 80B4     		push	{r7}
 736              	.LCFI6:
 737              		.cfi_def_cfa_offset 4
 738              		.cfi_offset 7, -4
 739 0002 83B0     		sub	sp, sp, #12
 740              	.LCFI7:
 741              		.cfi_def_cfa_offset 16
 742 0004 00AF     		add	r7, sp, #0
 743              	.LCFI8:
 744              		.cfi_def_cfa_register 7
 745 0006 7860     		str	r0, [r7, #4]
 227:App/STM32F4-Discovery/Libraries/STM32F4xx_StdPeriph_Driver/src/stm32f4xx_fsmc.c ****   /* Reset NOR/SRAM Init structure parameters values */
 228:App/STM32F4-Discovery/Libraries/STM32F4xx_StdPeriph_Driver/src/stm32f4xx_fsmc.c ****   FSMC_NORSRAMInitStruct->FSMC_Bank = FSMC_Bank1_NORSRAM1;
 746              		.loc 1 228 0
 747 0008 7B68     		ldr	r3, [r7, #4]
 748 000a 0022     		movs	r2, #0
 749 000c 1A60     		str	r2, [r3]
 229:App/STM32F4-Discovery/Libraries/STM32F4xx_StdPeriph_Driver/src/stm32f4xx_fsmc.c ****   FSMC_NORSRAMInitStruct->FSMC_DataAddressMux = FSMC_DataAddressMux_Enable;
 750              		.loc 1 229 0
 751 000e 7B68     		ldr	r3, [r7, #4]
 752 0010 0222     		movs	r2, #2
 753 0012 5A60     		str	r2, [r3, #4]
 230:App/STM32F4-Discovery/Libraries/STM32F4xx_StdPeriph_Driver/src/stm32f4xx_fsmc.c ****   FSMC_NORSRAMInitStruct->FSMC_MemoryType = FSMC_MemoryType_SRAM;
 754              		.loc 1 230 0
 755 0014 7B68     		ldr	r3, [r7, #4]
 756 0016 0022     		movs	r2, #0
 757 0018 9A60     		str	r2, [r3, #8]
 231:App/STM32F4-Discovery/Libraries/STM32F4xx_StdPeriph_Driver/src/stm32f4xx_fsmc.c ****   FSMC_NORSRAMInitStruct->FSMC_MemoryDataWidth = FSMC_MemoryDataWidth_8b;
 758              		.loc 1 231 0
 759 001a 7B68     		ldr	r3, [r7, #4]
 760 001c 0022     		movs	r2, #0
 761 001e DA60     		str	r2, [r3, #12]
 232:App/STM32F4-Discovery/Libraries/STM32F4xx_StdPeriph_Driver/src/stm32f4xx_fsmc.c ****   FSMC_NORSRAMInitStruct->FSMC_BurstAccessMode = FSMC_BurstAccessMode_Disable;
 762              		.loc 1 232 0
 763 0020 7B68     		ldr	r3, [r7, #4]
 764 0022 0022     		movs	r2, #0
 765 0024 1A61     		str	r2, [r3, #16]
 233:App/STM32F4-Discovery/Libraries/STM32F4xx_StdPeriph_Driver/src/stm32f4xx_fsmc.c ****   FSMC_NORSRAMInitStruct->FSMC_AsynchronousWait = FSMC_AsynchronousWait_Disable;
 766              		.loc 1 233 0
 767 0026 7B68     		ldr	r3, [r7, #4]
 768 0028 0022     		movs	r2, #0
 769 002a 5A61     		str	r2, [r3, #20]
 234:App/STM32F4-Discovery/Libraries/STM32F4xx_StdPeriph_Driver/src/stm32f4xx_fsmc.c ****   FSMC_NORSRAMInitStruct->FSMC_WaitSignalPolarity = FSMC_WaitSignalPolarity_Low;
 770              		.loc 1 234 0
 771 002c 7B68     		ldr	r3, [r7, #4]
 772 002e 0022     		movs	r2, #0
 773 0030 9A61     		str	r2, [r3, #24]
 235:App/STM32F4-Discovery/Libraries/STM32F4xx_StdPeriph_Driver/src/stm32f4xx_fsmc.c ****   FSMC_NORSRAMInitStruct->FSMC_WrapMode = FSMC_WrapMode_Disable;
 774              		.loc 1 235 0
 775 0032 7B68     		ldr	r3, [r7, #4]
 776 0034 0022     		movs	r2, #0
 777 0036 DA61     		str	r2, [r3, #28]
 236:App/STM32F4-Discovery/Libraries/STM32F4xx_StdPeriph_Driver/src/stm32f4xx_fsmc.c ****   FSMC_NORSRAMInitStruct->FSMC_WaitSignalActive = FSMC_WaitSignalActive_BeforeWaitState;
 778              		.loc 1 236 0
 779 0038 7B68     		ldr	r3, [r7, #4]
 780 003a 0022     		movs	r2, #0
 781 003c 1A62     		str	r2, [r3, #32]
 237:App/STM32F4-Discovery/Libraries/STM32F4xx_StdPeriph_Driver/src/stm32f4xx_fsmc.c ****   FSMC_NORSRAMInitStruct->FSMC_WriteOperation = FSMC_WriteOperation_Enable;
 782              		.loc 1 237 0
 783 003e 7B68     		ldr	r3, [r7, #4]
 784 0040 4FF48052 		mov	r2, #4096
 785 0044 5A62     		str	r2, [r3, #36]
 238:App/STM32F4-Discovery/Libraries/STM32F4xx_StdPeriph_Driver/src/stm32f4xx_fsmc.c ****   FSMC_NORSRAMInitStruct->FSMC_WaitSignal = FSMC_WaitSignal_Enable;
 786              		.loc 1 238 0
 787 0046 7B68     		ldr	r3, [r7, #4]
 788 0048 4FF40052 		mov	r2, #8192
 789 004c 9A62     		str	r2, [r3, #40]
 239:App/STM32F4-Discovery/Libraries/STM32F4xx_StdPeriph_Driver/src/stm32f4xx_fsmc.c ****   FSMC_NORSRAMInitStruct->FSMC_ExtendedMode = FSMC_ExtendedMode_Disable;
 790              		.loc 1 239 0
 791 004e 7B68     		ldr	r3, [r7, #4]
 792 0050 0022     		movs	r2, #0
 793 0052 DA62     		str	r2, [r3, #44]
 240:App/STM32F4-Discovery/Libraries/STM32F4xx_StdPeriph_Driver/src/stm32f4xx_fsmc.c ****   FSMC_NORSRAMInitStruct->FSMC_WriteBurst = FSMC_WriteBurst_Disable;
 794              		.loc 1 240 0
 795 0054 7B68     		ldr	r3, [r7, #4]
 796 0056 0022     		movs	r2, #0
 797 0058 1A63     		str	r2, [r3, #48]
 241:App/STM32F4-Discovery/Libraries/STM32F4xx_StdPeriph_Driver/src/stm32f4xx_fsmc.c ****   FSMC_NORSRAMInitStruct->FSMC_ReadWriteTimingStruct->FSMC_AddressSetupTime = 0xF;
 798              		.loc 1 241 0
 799 005a 7B68     		ldr	r3, [r7, #4]
 800 005c 5B6B     		ldr	r3, [r3, #52]
 801 005e 0F22     		movs	r2, #15
 802 0060 1A60     		str	r2, [r3]
 242:App/STM32F4-Discovery/Libraries/STM32F4xx_StdPeriph_Driver/src/stm32f4xx_fsmc.c ****   FSMC_NORSRAMInitStruct->FSMC_ReadWriteTimingStruct->FSMC_AddressHoldTime = 0xF;
 803              		.loc 1 242 0
 804 0062 7B68     		ldr	r3, [r7, #4]
 805 0064 5B6B     		ldr	r3, [r3, #52]
 806 0066 0F22     		movs	r2, #15
 807 0068 5A60     		str	r2, [r3, #4]
 243:App/STM32F4-Discovery/Libraries/STM32F4xx_StdPeriph_Driver/src/stm32f4xx_fsmc.c ****   FSMC_NORSRAMInitStruct->FSMC_ReadWriteTimingStruct->FSMC_DataSetupTime = 0xFF;
 808              		.loc 1 243 0
 809 006a 7B68     		ldr	r3, [r7, #4]
 810 006c 5B6B     		ldr	r3, [r3, #52]
 811 006e FF22     		movs	r2, #255
 812 0070 9A60     		str	r2, [r3, #8]
 244:App/STM32F4-Discovery/Libraries/STM32F4xx_StdPeriph_Driver/src/stm32f4xx_fsmc.c ****   FSMC_NORSRAMInitStruct->FSMC_ReadWriteTimingStruct->FSMC_BusTurnAroundDuration = 0xF;
 813              		.loc 1 244 0
 814 0072 7B68     		ldr	r3, [r7, #4]
 815 0074 5B6B     		ldr	r3, [r3, #52]
 816 0076 0F22     		movs	r2, #15
 817 0078 DA60     		str	r2, [r3, #12]
 245:App/STM32F4-Discovery/Libraries/STM32F4xx_StdPeriph_Driver/src/stm32f4xx_fsmc.c ****   FSMC_NORSRAMInitStruct->FSMC_ReadWriteTimingStruct->FSMC_CLKDivision = 0xF;
 818              		.loc 1 245 0
 819 007a 7B68     		ldr	r3, [r7, #4]
 820 007c 5B6B     		ldr	r3, [r3, #52]
 821 007e 0F22     		movs	r2, #15
 822 0080 1A61     		str	r2, [r3, #16]
 246:App/STM32F4-Discovery/Libraries/STM32F4xx_StdPeriph_Driver/src/stm32f4xx_fsmc.c ****   FSMC_NORSRAMInitStruct->FSMC_ReadWriteTimingStruct->FSMC_DataLatency = 0xF;
 823              		.loc 1 246 0
 824 0082 7B68     		ldr	r3, [r7, #4]
 825 0084 5B6B     		ldr	r3, [r3, #52]
 826 0086 0F22     		movs	r2, #15
 827 0088 5A61     		str	r2, [r3, #20]
 247:App/STM32F4-Discovery/Libraries/STM32F4xx_StdPeriph_Driver/src/stm32f4xx_fsmc.c ****   FSMC_NORSRAMInitStruct->FSMC_ReadWriteTimingStruct->FSMC_AccessMode = FSMC_AccessMode_A; 
 828              		.loc 1 247 0
 829 008a 7B68     		ldr	r3, [r7, #4]
 830 008c 5B6B     		ldr	r3, [r3, #52]
 831 008e 0022     		movs	r2, #0
 832 0090 9A61     		str	r2, [r3, #24]
 248:App/STM32F4-Discovery/Libraries/STM32F4xx_StdPeriph_Driver/src/stm32f4xx_fsmc.c ****   FSMC_NORSRAMInitStruct->FSMC_WriteTimingStruct->FSMC_AddressSetupTime = 0xF;
 833              		.loc 1 248 0
 834 0092 7B68     		ldr	r3, [r7, #4]
 835 0094 9B6B     		ldr	r3, [r3, #56]
 836 0096 0F22     		movs	r2, #15
 837 0098 1A60     		str	r2, [r3]
 249:App/STM32F4-Discovery/Libraries/STM32F4xx_StdPeriph_Driver/src/stm32f4xx_fsmc.c ****   FSMC_NORSRAMInitStruct->FSMC_WriteTimingStruct->FSMC_AddressHoldTime = 0xF;
 838              		.loc 1 249 0
 839 009a 7B68     		ldr	r3, [r7, #4]
 840 009c 9B6B     		ldr	r3, [r3, #56]
 841 009e 0F22     		movs	r2, #15
 842 00a0 5A60     		str	r2, [r3, #4]
 250:App/STM32F4-Discovery/Libraries/STM32F4xx_StdPeriph_Driver/src/stm32f4xx_fsmc.c ****   FSMC_NORSRAMInitStruct->FSMC_WriteTimingStruct->FSMC_DataSetupTime = 0xFF;
 843              		.loc 1 250 0
 844 00a2 7B68     		ldr	r3, [r7, #4]
 845 00a4 9B6B     		ldr	r3, [r3, #56]
 846 00a6 FF22     		movs	r2, #255
 847 00a8 9A60     		str	r2, [r3, #8]
 251:App/STM32F4-Discovery/Libraries/STM32F4xx_StdPeriph_Driver/src/stm32f4xx_fsmc.c ****   FSMC_NORSRAMInitStruct->FSMC_WriteTimingStruct->FSMC_BusTurnAroundDuration = 0xF;
 848              		.loc 1 251 0
 849 00aa 7B68     		ldr	r3, [r7, #4]
 850 00ac 9B6B     		ldr	r3, [r3, #56]
 851 00ae 0F22     		movs	r2, #15
 852 00b0 DA60     		str	r2, [r3, #12]
 252:App/STM32F4-Discovery/Libraries/STM32F4xx_StdPeriph_Driver/src/stm32f4xx_fsmc.c ****   FSMC_NORSRAMInitStruct->FSMC_WriteTimingStruct->FSMC_CLKDivision = 0xF;
 853              		.loc 1 252 0
 854 00b2 7B68     		ldr	r3, [r7, #4]
 855 00b4 9B6B     		ldr	r3, [r3, #56]
 856 00b6 0F22     		movs	r2, #15
 857 00b8 1A61     		str	r2, [r3, #16]
 253:App/STM32F4-Discovery/Libraries/STM32F4xx_StdPeriph_Driver/src/stm32f4xx_fsmc.c ****   FSMC_NORSRAMInitStruct->FSMC_WriteTimingStruct->FSMC_DataLatency = 0xF;
 858              		.loc 1 253 0
 859 00ba 7B68     		ldr	r3, [r7, #4]
 860 00bc 9B6B     		ldr	r3, [r3, #56]
 861 00be 0F22     		movs	r2, #15
 862 00c0 5A61     		str	r2, [r3, #20]
 254:App/STM32F4-Discovery/Libraries/STM32F4xx_StdPeriph_Driver/src/stm32f4xx_fsmc.c ****   FSMC_NORSRAMInitStruct->FSMC_WriteTimingStruct->FSMC_AccessMode = FSMC_AccessMode_A;
 863              		.loc 1 254 0
 864 00c2 7B68     		ldr	r3, [r7, #4]
 865 00c4 9B6B     		ldr	r3, [r3, #56]
 866 00c6 0022     		movs	r2, #0
 867 00c8 9A61     		str	r2, [r3, #24]
 255:App/STM32F4-Discovery/Libraries/STM32F4xx_StdPeriph_Driver/src/stm32f4xx_fsmc.c **** }
 868              		.loc 1 255 0
 869 00ca 0C37     		adds	r7, r7, #12
 870 00cc BD46     		mov	sp, r7
 871              		@ sp needed
 872 00ce 5DF8047B 		ldr	r7, [sp], #4
 873 00d2 7047     		bx	lr
 874              		.cfi_endproc
 875              	.LFE112:
 877              		.section	.text.FSMC_NORSRAMCmd,"ax",%progbits
 878              		.align	2
 879              		.global	FSMC_NORSRAMCmd
 880              		.thumb
 881              		.thumb_func
 883              	FSMC_NORSRAMCmd:
 884              	.LFB113:
 256:App/STM32F4-Discovery/Libraries/STM32F4xx_StdPeriph_Driver/src/stm32f4xx_fsmc.c **** 
 257:App/STM32F4-Discovery/Libraries/STM32F4xx_StdPeriph_Driver/src/stm32f4xx_fsmc.c **** /**
 258:App/STM32F4-Discovery/Libraries/STM32F4xx_StdPeriph_Driver/src/stm32f4xx_fsmc.c ****   * @brief  Enables or disables the specified NOR/SRAM Memory Bank.
 259:App/STM32F4-Discovery/Libraries/STM32F4xx_StdPeriph_Driver/src/stm32f4xx_fsmc.c ****   * @param  FSMC_Bank: specifies the FSMC Bank to be used
 260:App/STM32F4-Discovery/Libraries/STM32F4xx_StdPeriph_Driver/src/stm32f4xx_fsmc.c ****   *          This parameter can be one of the following values:
 261:App/STM32F4-Discovery/Libraries/STM32F4xx_StdPeriph_Driver/src/stm32f4xx_fsmc.c ****   *            @arg FSMC_Bank1_NORSRAM1: FSMC Bank1 NOR/SRAM1  
 262:App/STM32F4-Discovery/Libraries/STM32F4xx_StdPeriph_Driver/src/stm32f4xx_fsmc.c ****   *            @arg FSMC_Bank1_NORSRAM2: FSMC Bank1 NOR/SRAM2 
 263:App/STM32F4-Discovery/Libraries/STM32F4xx_StdPeriph_Driver/src/stm32f4xx_fsmc.c ****   *            @arg FSMC_Bank1_NORSRAM3: FSMC Bank1 NOR/SRAM3 
 264:App/STM32F4-Discovery/Libraries/STM32F4xx_StdPeriph_Driver/src/stm32f4xx_fsmc.c ****   *            @arg FSMC_Bank1_NORSRAM4: FSMC Bank1 NOR/SRAM4 
 265:App/STM32F4-Discovery/Libraries/STM32F4xx_StdPeriph_Driver/src/stm32f4xx_fsmc.c ****   * @param  NewState: new state of the FSMC_Bank. This parameter can be: ENABLE or DISABLE.
 266:App/STM32F4-Discovery/Libraries/STM32F4xx_StdPeriph_Driver/src/stm32f4xx_fsmc.c ****   * @retval None
 267:App/STM32F4-Discovery/Libraries/STM32F4xx_StdPeriph_Driver/src/stm32f4xx_fsmc.c ****   */
 268:App/STM32F4-Discovery/Libraries/STM32F4xx_StdPeriph_Driver/src/stm32f4xx_fsmc.c **** void FSMC_NORSRAMCmd(uint32_t FSMC_Bank, FunctionalState NewState)
 269:App/STM32F4-Discovery/Libraries/STM32F4xx_StdPeriph_Driver/src/stm32f4xx_fsmc.c **** {
 885              		.loc 1 269 0
 886              		.cfi_startproc
 887              		@ args = 0, pretend = 0, frame = 8
 888              		@ frame_needed = 1, uses_anonymous_args = 0
 889 0000 80B5     		push	{r7, lr}
 890              	.LCFI9:
 891              		.cfi_def_cfa_offset 8
 892              		.cfi_offset 7, -8
 893              		.cfi_offset 14, -4
 894 0002 82B0     		sub	sp, sp, #8
 895              	.LCFI10:
 896              		.cfi_def_cfa_offset 16
 897 0004 00AF     		add	r7, sp, #0
 898              	.LCFI11:
 899              		.cfi_def_cfa_register 7
 900 0006 7860     		str	r0, [r7, #4]
 901 0008 0B46     		mov	r3, r1
 902 000a FB70     		strb	r3, [r7, #3]
 270:App/STM32F4-Discovery/Libraries/STM32F4xx_StdPeriph_Driver/src/stm32f4xx_fsmc.c ****   assert_param(IS_FSMC_NORSRAM_BANK(FSMC_Bank));
 903              		.loc 1 270 0
 904 000c 7B68     		ldr	r3, [r7, #4]
 905 000e 002B     		cmp	r3, #0
 906 0010 0DD0     		beq	.L46
 907              		.loc 1 270 0 is_stmt 0 discriminator 1
 908 0012 7B68     		ldr	r3, [r7, #4]
 909 0014 022B     		cmp	r3, #2
 910 0016 0AD0     		beq	.L46
 911 0018 7B68     		ldr	r3, [r7, #4]
 912 001a 042B     		cmp	r3, #4
 913 001c 07D0     		beq	.L46
 914 001e 7B68     		ldr	r3, [r7, #4]
 915 0020 062B     		cmp	r3, #6
 916 0022 04D0     		beq	.L46
 917 0024 1748     		ldr	r0, .L50
 918 0026 4FF48771 		mov	r1, #270
 919 002a FFF7FEFF 		bl	assert_failed
 920              	.L46:
 271:App/STM32F4-Discovery/Libraries/STM32F4xx_StdPeriph_Driver/src/stm32f4xx_fsmc.c ****   assert_param(IS_FUNCTIONAL_STATE(NewState));
 921              		.loc 1 271 0 is_stmt 1
 922 002e FB78     		ldrb	r3, [r7, #3]	@ zero_extendqisi2
 923 0030 002B     		cmp	r3, #0
 924 0032 07D0     		beq	.L47
 925              		.loc 1 271 0 is_stmt 0 discriminator 1
 926 0034 FB78     		ldrb	r3, [r7, #3]	@ zero_extendqisi2
 927 0036 012B     		cmp	r3, #1
 928 0038 04D0     		beq	.L47
 929 003a 1248     		ldr	r0, .L50
 930 003c 40F20F11 		movw	r1, #271
 931 0040 FFF7FEFF 		bl	assert_failed
 932              	.L47:
 272:App/STM32F4-Discovery/Libraries/STM32F4xx_StdPeriph_Driver/src/stm32f4xx_fsmc.c ****   
 273:App/STM32F4-Discovery/Libraries/STM32F4xx_StdPeriph_Driver/src/stm32f4xx_fsmc.c ****   if (NewState != DISABLE)
 933              		.loc 1 273 0 is_stmt 1
 934 0044 FB78     		ldrb	r3, [r7, #3]	@ zero_extendqisi2
 935 0046 002B     		cmp	r3, #0
 936 0048 0CD0     		beq	.L48
 274:App/STM32F4-Discovery/Libraries/STM32F4xx_StdPeriph_Driver/src/stm32f4xx_fsmc.c ****   {
 275:App/STM32F4-Discovery/Libraries/STM32F4xx_StdPeriph_Driver/src/stm32f4xx_fsmc.c ****     /* Enable the selected NOR/SRAM Bank by setting the PBKEN bit in the BCRx register */
 276:App/STM32F4-Discovery/Libraries/STM32F4xx_StdPeriph_Driver/src/stm32f4xx_fsmc.c ****     FSMC_Bank1->BTCR[FSMC_Bank] |= BCR_MBKEN_SET;
 937              		.loc 1 276 0
 938 004a 4FF02043 		mov	r3, #-1610612736
 939 004e 4FF02042 		mov	r2, #-1610612736
 940 0052 7968     		ldr	r1, [r7, #4]
 941 0054 52F82120 		ldr	r2, [r2, r1, lsl #2]
 942 0058 42F00101 		orr	r1, r2, #1
 943 005c 7A68     		ldr	r2, [r7, #4]
 944 005e 43F82210 		str	r1, [r3, r2, lsl #2]
 945 0062 0BE0     		b	.L45
 946              	.L48:
 277:App/STM32F4-Discovery/Libraries/STM32F4xx_StdPeriph_Driver/src/stm32f4xx_fsmc.c ****   }
 278:App/STM32F4-Discovery/Libraries/STM32F4xx_StdPeriph_Driver/src/stm32f4xx_fsmc.c ****   else
 279:App/STM32F4-Discovery/Libraries/STM32F4xx_StdPeriph_Driver/src/stm32f4xx_fsmc.c ****   {
 280:App/STM32F4-Discovery/Libraries/STM32F4xx_StdPeriph_Driver/src/stm32f4xx_fsmc.c ****     /* Disable the selected NOR/SRAM Bank by clearing the PBKEN bit in the BCRx register */
 281:App/STM32F4-Discovery/Libraries/STM32F4xx_StdPeriph_Driver/src/stm32f4xx_fsmc.c ****     FSMC_Bank1->BTCR[FSMC_Bank] &= BCR_MBKEN_RESET;
 947              		.loc 1 281 0
 948 0064 4FF02042 		mov	r2, #-1610612736
 949 0068 4FF02043 		mov	r3, #-1610612736
 950 006c 7968     		ldr	r1, [r7, #4]
 951 006e 53F82110 		ldr	r1, [r3, r1, lsl #2]
 952 0072 054B     		ldr	r3, .L50+4
 953 0074 0B40     		ands	r3, r3, r1
 954 0076 7968     		ldr	r1, [r7, #4]
 955 0078 42F82130 		str	r3, [r2, r1, lsl #2]
 956              	.L45:
 282:App/STM32F4-Discovery/Libraries/STM32F4xx_StdPeriph_Driver/src/stm32f4xx_fsmc.c ****   }
 283:App/STM32F4-Discovery/Libraries/STM32F4xx_StdPeriph_Driver/src/stm32f4xx_fsmc.c **** }
 957              		.loc 1 283 0
 958 007c 0837     		adds	r7, r7, #8
 959 007e BD46     		mov	sp, r7
 960              		@ sp needed
 961 0080 80BD     		pop	{r7, pc}
 962              	.L51:
 963 0082 00BF     		.align	2
 964              	.L50:
 965 0084 00000000 		.word	.LC0
 966 0088 FEFF0F00 		.word	1048574
 967              		.cfi_endproc
 968              	.LFE113:
 970              		.section	.text.FSMC_NANDDeInit,"ax",%progbits
 971              		.align	2
 972              		.global	FSMC_NANDDeInit
 973              		.thumb
 974              		.thumb_func
 976              	FSMC_NANDDeInit:
 977              	.LFB114:
 284:App/STM32F4-Discovery/Libraries/STM32F4xx_StdPeriph_Driver/src/stm32f4xx_fsmc.c **** /**
 285:App/STM32F4-Discovery/Libraries/STM32F4xx_StdPeriph_Driver/src/stm32f4xx_fsmc.c ****   * @}
 286:App/STM32F4-Discovery/Libraries/STM32F4xx_StdPeriph_Driver/src/stm32f4xx_fsmc.c ****   */
 287:App/STM32F4-Discovery/Libraries/STM32F4xx_StdPeriph_Driver/src/stm32f4xx_fsmc.c **** 
 288:App/STM32F4-Discovery/Libraries/STM32F4xx_StdPeriph_Driver/src/stm32f4xx_fsmc.c **** /** @defgroup FSMC_Group2 NAND Controller functions
 289:App/STM32F4-Discovery/Libraries/STM32F4xx_StdPeriph_Driver/src/stm32f4xx_fsmc.c ****  *  @brief   NAND Controller functions 
 290:App/STM32F4-Discovery/Libraries/STM32F4xx_StdPeriph_Driver/src/stm32f4xx_fsmc.c ****  *
 291:App/STM32F4-Discovery/Libraries/STM32F4xx_StdPeriph_Driver/src/stm32f4xx_fsmc.c **** @verbatim   
 292:App/STM32F4-Discovery/Libraries/STM32F4xx_StdPeriph_Driver/src/stm32f4xx_fsmc.c ****  ===============================================================================
 293:App/STM32F4-Discovery/Libraries/STM32F4xx_StdPeriph_Driver/src/stm32f4xx_fsmc.c ****                     NAND Controller functions
 294:App/STM32F4-Discovery/Libraries/STM32F4xx_StdPeriph_Driver/src/stm32f4xx_fsmc.c ****  ===============================================================================  
 295:App/STM32F4-Discovery/Libraries/STM32F4xx_StdPeriph_Driver/src/stm32f4xx_fsmc.c **** 
 296:App/STM32F4-Discovery/Libraries/STM32F4xx_StdPeriph_Driver/src/stm32f4xx_fsmc.c ****  The following sequence should be followed to configure the FSMC to interface with
 297:App/STM32F4-Discovery/Libraries/STM32F4xx_StdPeriph_Driver/src/stm32f4xx_fsmc.c ****  8-bit or 16-bit NAND memory connected to the NAND Bank:
 298:App/STM32F4-Discovery/Libraries/STM32F4xx_StdPeriph_Driver/src/stm32f4xx_fsmc.c ****  
 299:App/STM32F4-Discovery/Libraries/STM32F4xx_StdPeriph_Driver/src/stm32f4xx_fsmc.c ****    1. Enable the clock for the FSMC and associated GPIOs using the following functions:
 300:App/STM32F4-Discovery/Libraries/STM32F4xx_StdPeriph_Driver/src/stm32f4xx_fsmc.c ****           RCC_AHB3PeriphClockCmd(RCC_AHB3Periph_FSMC, ENABLE);
 301:App/STM32F4-Discovery/Libraries/STM32F4xx_StdPeriph_Driver/src/stm32f4xx_fsmc.c ****           RCC_AHB1PeriphClockCmd(RCC_AHB1Periph_GPIOx, ENABLE);
 302:App/STM32F4-Discovery/Libraries/STM32F4xx_StdPeriph_Driver/src/stm32f4xx_fsmc.c **** 
 303:App/STM32F4-Discovery/Libraries/STM32F4xx_StdPeriph_Driver/src/stm32f4xx_fsmc.c ****    2. FSMC pins configuration 
 304:App/STM32F4-Discovery/Libraries/STM32F4xx_StdPeriph_Driver/src/stm32f4xx_fsmc.c ****        - Connect the involved FSMC pins to AF12 using the following function 
 305:App/STM32F4-Discovery/Libraries/STM32F4xx_StdPeriph_Driver/src/stm32f4xx_fsmc.c ****           GPIO_PinAFConfig(GPIOx, GPIO_PinSourcex, GPIO_AF_FSMC); 
 306:App/STM32F4-Discovery/Libraries/STM32F4xx_StdPeriph_Driver/src/stm32f4xx_fsmc.c ****        - Configure these FSMC pins in alternate function mode by calling the function
 307:App/STM32F4-Discovery/Libraries/STM32F4xx_StdPeriph_Driver/src/stm32f4xx_fsmc.c ****           GPIO_Init();    
 308:App/STM32F4-Discovery/Libraries/STM32F4xx_StdPeriph_Driver/src/stm32f4xx_fsmc.c ****        
 309:App/STM32F4-Discovery/Libraries/STM32F4xx_StdPeriph_Driver/src/stm32f4xx_fsmc.c ****    3. Declare a FSMC_NANDInitTypeDef structure, for example:
 310:App/STM32F4-Discovery/Libraries/STM32F4xx_StdPeriph_Driver/src/stm32f4xx_fsmc.c ****           FSMC_NANDInitTypeDef  FSMC_NANDInitStructure;
 311:App/STM32F4-Discovery/Libraries/STM32F4xx_StdPeriph_Driver/src/stm32f4xx_fsmc.c ****       and fill the FSMC_NANDInitStructure variable with the allowed values of
 312:App/STM32F4-Discovery/Libraries/STM32F4xx_StdPeriph_Driver/src/stm32f4xx_fsmc.c ****       the structure member.
 313:App/STM32F4-Discovery/Libraries/STM32F4xx_StdPeriph_Driver/src/stm32f4xx_fsmc.c ****       
 314:App/STM32F4-Discovery/Libraries/STM32F4xx_StdPeriph_Driver/src/stm32f4xx_fsmc.c ****    4. Initialize the NAND Controller by calling the function
 315:App/STM32F4-Discovery/Libraries/STM32F4xx_StdPeriph_Driver/src/stm32f4xx_fsmc.c ****           FSMC_NANDInit(&FSMC_NANDInitStructure); 
 316:App/STM32F4-Discovery/Libraries/STM32F4xx_StdPeriph_Driver/src/stm32f4xx_fsmc.c **** 
 317:App/STM32F4-Discovery/Libraries/STM32F4xx_StdPeriph_Driver/src/stm32f4xx_fsmc.c ****    5. Then enable the NAND Bank, for example:
 318:App/STM32F4-Discovery/Libraries/STM32F4xx_StdPeriph_Driver/src/stm32f4xx_fsmc.c ****           FSMC_NANDCmd(FSMC_Bank3_NAND, ENABLE);  
 319:App/STM32F4-Discovery/Libraries/STM32F4xx_StdPeriph_Driver/src/stm32f4xx_fsmc.c **** 
 320:App/STM32F4-Discovery/Libraries/STM32F4xx_StdPeriph_Driver/src/stm32f4xx_fsmc.c ****    6. At this stage you can read/write from/to the memory connected to the NAND Bank. 
 321:App/STM32F4-Discovery/Libraries/STM32F4xx_StdPeriph_Driver/src/stm32f4xx_fsmc.c ****    
 322:App/STM32F4-Discovery/Libraries/STM32F4xx_StdPeriph_Driver/src/stm32f4xx_fsmc.c **** @note To enable the Error Correction Code (ECC), you have to use the function
 323:App/STM32F4-Discovery/Libraries/STM32F4xx_StdPeriph_Driver/src/stm32f4xx_fsmc.c ****           FSMC_NANDECCCmd(FSMC_Bank3_NAND, ENABLE);  
 324:App/STM32F4-Discovery/Libraries/STM32F4xx_StdPeriph_Driver/src/stm32f4xx_fsmc.c ****       and to get the current ECC value you have to use the function
 325:App/STM32F4-Discovery/Libraries/STM32F4xx_StdPeriph_Driver/src/stm32f4xx_fsmc.c ****           ECCval = FSMC_GetECC(FSMC_Bank3_NAND); 
 326:App/STM32F4-Discovery/Libraries/STM32F4xx_StdPeriph_Driver/src/stm32f4xx_fsmc.c **** 
 327:App/STM32F4-Discovery/Libraries/STM32F4xx_StdPeriph_Driver/src/stm32f4xx_fsmc.c **** @endverbatim
 328:App/STM32F4-Discovery/Libraries/STM32F4xx_StdPeriph_Driver/src/stm32f4xx_fsmc.c ****   * @{
 329:App/STM32F4-Discovery/Libraries/STM32F4xx_StdPeriph_Driver/src/stm32f4xx_fsmc.c ****   */
 330:App/STM32F4-Discovery/Libraries/STM32F4xx_StdPeriph_Driver/src/stm32f4xx_fsmc.c ****   
 331:App/STM32F4-Discovery/Libraries/STM32F4xx_StdPeriph_Driver/src/stm32f4xx_fsmc.c **** /**
 332:App/STM32F4-Discovery/Libraries/STM32F4xx_StdPeriph_Driver/src/stm32f4xx_fsmc.c ****   * @brief  Deinitializes the FSMC NAND Banks registers to their default reset values.
 333:App/STM32F4-Discovery/Libraries/STM32F4xx_StdPeriph_Driver/src/stm32f4xx_fsmc.c ****   * @param  FSMC_Bank: specifies the FSMC Bank to be used
 334:App/STM32F4-Discovery/Libraries/STM32F4xx_StdPeriph_Driver/src/stm32f4xx_fsmc.c ****   *          This parameter can be one of the following values:
 335:App/STM32F4-Discovery/Libraries/STM32F4xx_StdPeriph_Driver/src/stm32f4xx_fsmc.c ****   *            @arg FSMC_Bank2_NAND: FSMC Bank2 NAND 
 336:App/STM32F4-Discovery/Libraries/STM32F4xx_StdPeriph_Driver/src/stm32f4xx_fsmc.c ****   *            @arg FSMC_Bank3_NAND: FSMC Bank3 NAND 
 337:App/STM32F4-Discovery/Libraries/STM32F4xx_StdPeriph_Driver/src/stm32f4xx_fsmc.c ****   * @retval None
 338:App/STM32F4-Discovery/Libraries/STM32F4xx_StdPeriph_Driver/src/stm32f4xx_fsmc.c ****   */
 339:App/STM32F4-Discovery/Libraries/STM32F4xx_StdPeriph_Driver/src/stm32f4xx_fsmc.c **** void FSMC_NANDDeInit(uint32_t FSMC_Bank)
 340:App/STM32F4-Discovery/Libraries/STM32F4xx_StdPeriph_Driver/src/stm32f4xx_fsmc.c **** {
 978              		.loc 1 340 0
 979              		.cfi_startproc
 980              		@ args = 0, pretend = 0, frame = 8
 981              		@ frame_needed = 1, uses_anonymous_args = 0
 982 0000 80B5     		push	{r7, lr}
 983              	.LCFI12:
 984              		.cfi_def_cfa_offset 8
 985              		.cfi_offset 7, -8
 986              		.cfi_offset 14, -4
 987 0002 82B0     		sub	sp, sp, #8
 988              	.LCFI13:
 989              		.cfi_def_cfa_offset 16
 990 0004 00AF     		add	r7, sp, #0
 991              	.LCFI14:
 992              		.cfi_def_cfa_register 7
 993 0006 7860     		str	r0, [r7, #4]
 341:App/STM32F4-Discovery/Libraries/STM32F4xx_StdPeriph_Driver/src/stm32f4xx_fsmc.c ****   /* Check the parameter */
 342:App/STM32F4-Discovery/Libraries/STM32F4xx_StdPeriph_Driver/src/stm32f4xx_fsmc.c ****   assert_param(IS_FSMC_NAND_BANK(FSMC_Bank));
 994              		.loc 1 342 0
 995 0008 7B68     		ldr	r3, [r7, #4]
 996 000a 102B     		cmp	r3, #16
 997 000c 08D0     		beq	.L53
 998              		.loc 1 342 0 is_stmt 0 discriminator 1
 999 000e 7B68     		ldr	r3, [r7, #4]
 1000 0010 B3F5807F 		cmp	r3, #256
 1001 0014 04D0     		beq	.L53
 1002 0016 1448     		ldr	r0, .L56
 1003 0018 4FF4AB71 		mov	r1, #342
 1004 001c FFF7FEFF 		bl	assert_failed
 1005              	.L53:
 343:App/STM32F4-Discovery/Libraries/STM32F4xx_StdPeriph_Driver/src/stm32f4xx_fsmc.c ****   
 344:App/STM32F4-Discovery/Libraries/STM32F4xx_StdPeriph_Driver/src/stm32f4xx_fsmc.c ****   if(FSMC_Bank == FSMC_Bank2_NAND)
 1006              		.loc 1 344 0 is_stmt 1
 1007 0020 7B68     		ldr	r3, [r7, #4]
 1008 0022 102B     		cmp	r3, #16
 1009 0024 0ED1     		bne	.L54
 345:App/STM32F4-Discovery/Libraries/STM32F4xx_StdPeriph_Driver/src/stm32f4xx_fsmc.c ****   {
 346:App/STM32F4-Discovery/Libraries/STM32F4xx_StdPeriph_Driver/src/stm32f4xx_fsmc.c ****     /* Set the FSMC_Bank2 registers to their reset values */
 347:App/STM32F4-Discovery/Libraries/STM32F4xx_StdPeriph_Driver/src/stm32f4xx_fsmc.c ****     FSMC_Bank2->PCR2 = 0x00000018;
 1010              		.loc 1 347 0
 1011 0026 114B     		ldr	r3, .L56+4
 1012 0028 1822     		movs	r2, #24
 1013 002a 1A60     		str	r2, [r3]
 348:App/STM32F4-Discovery/Libraries/STM32F4xx_StdPeriph_Driver/src/stm32f4xx_fsmc.c ****     FSMC_Bank2->SR2 = 0x00000040;
 1014              		.loc 1 348 0
 1015 002c 0F4B     		ldr	r3, .L56+4
 1016 002e 4022     		movs	r2, #64
 1017 0030 5A60     		str	r2, [r3, #4]
 349:App/STM32F4-Discovery/Libraries/STM32F4xx_StdPeriph_Driver/src/stm32f4xx_fsmc.c ****     FSMC_Bank2->PMEM2 = 0xFCFCFCFC;
 1018              		.loc 1 349 0
 1019 0032 0E4B     		ldr	r3, .L56+4
 1020 0034 4FF0FC32 		mov	r2, #-50529028
 1021 0038 9A60     		str	r2, [r3, #8]
 350:App/STM32F4-Discovery/Libraries/STM32F4xx_StdPeriph_Driver/src/stm32f4xx_fsmc.c ****     FSMC_Bank2->PATT2 = 0xFCFCFCFC;  
 1022              		.loc 1 350 0
 1023 003a 0C4B     		ldr	r3, .L56+4
 1024 003c 4FF0FC32 		mov	r2, #-50529028
 1025 0040 DA60     		str	r2, [r3, #12]
 1026 0042 0DE0     		b	.L52
 1027              	.L54:
 351:App/STM32F4-Discovery/Libraries/STM32F4xx_StdPeriph_Driver/src/stm32f4xx_fsmc.c ****   }
 352:App/STM32F4-Discovery/Libraries/STM32F4xx_StdPeriph_Driver/src/stm32f4xx_fsmc.c ****   /* FSMC_Bank3_NAND */  
 353:App/STM32F4-Discovery/Libraries/STM32F4xx_StdPeriph_Driver/src/stm32f4xx_fsmc.c ****   else
 354:App/STM32F4-Discovery/Libraries/STM32F4xx_StdPeriph_Driver/src/stm32f4xx_fsmc.c ****   {
 355:App/STM32F4-Discovery/Libraries/STM32F4xx_StdPeriph_Driver/src/stm32f4xx_fsmc.c ****     /* Set the FSMC_Bank3 registers to their reset values */
 356:App/STM32F4-Discovery/Libraries/STM32F4xx_StdPeriph_Driver/src/stm32f4xx_fsmc.c ****     FSMC_Bank3->PCR3 = 0x00000018;
 1028              		.loc 1 356 0
 1029 0044 0A4B     		ldr	r3, .L56+8
 1030 0046 1822     		movs	r2, #24
 1031 0048 1A60     		str	r2, [r3]
 357:App/STM32F4-Discovery/Libraries/STM32F4xx_StdPeriph_Driver/src/stm32f4xx_fsmc.c ****     FSMC_Bank3->SR3 = 0x00000040;
 1032              		.loc 1 357 0
 1033 004a 094B     		ldr	r3, .L56+8
 1034 004c 4022     		movs	r2, #64
 1035 004e 5A60     		str	r2, [r3, #4]
 358:App/STM32F4-Discovery/Libraries/STM32F4xx_StdPeriph_Driver/src/stm32f4xx_fsmc.c ****     FSMC_Bank3->PMEM3 = 0xFCFCFCFC;
 1036              		.loc 1 358 0
 1037 0050 074B     		ldr	r3, .L56+8
 1038 0052 4FF0FC32 		mov	r2, #-50529028
 1039 0056 9A60     		str	r2, [r3, #8]
 359:App/STM32F4-Discovery/Libraries/STM32F4xx_StdPeriph_Driver/src/stm32f4xx_fsmc.c ****     FSMC_Bank3->PATT3 = 0xFCFCFCFC; 
 1040              		.loc 1 359 0
 1041 0058 054B     		ldr	r3, .L56+8
 1042 005a 4FF0FC32 		mov	r2, #-50529028
 1043 005e DA60     		str	r2, [r3, #12]
 1044              	.L52:
 360:App/STM32F4-Discovery/Libraries/STM32F4xx_StdPeriph_Driver/src/stm32f4xx_fsmc.c ****   }  
 361:App/STM32F4-Discovery/Libraries/STM32F4xx_StdPeriph_Driver/src/stm32f4xx_fsmc.c **** }
 1045              		.loc 1 361 0
 1046 0060 0837     		adds	r7, r7, #8
 1047 0062 BD46     		mov	sp, r7
 1048              		@ sp needed
 1049 0064 80BD     		pop	{r7, pc}
 1050              	.L57:
 1051 0066 00BF     		.align	2
 1052              	.L56:
 1053 0068 00000000 		.word	.LC0
 1054 006c 600000A0 		.word	-1610612640
 1055 0070 800000A0 		.word	-1610612608
 1056              		.cfi_endproc
 1057              	.LFE114:
 1059              		.section	.text.FSMC_NANDInit,"ax",%progbits
 1060              		.align	2
 1061              		.global	FSMC_NANDInit
 1062              		.thumb
 1063              		.thumb_func
 1065              	FSMC_NANDInit:
 1066              	.LFB115:
 362:App/STM32F4-Discovery/Libraries/STM32F4xx_StdPeriph_Driver/src/stm32f4xx_fsmc.c **** 
 363:App/STM32F4-Discovery/Libraries/STM32F4xx_StdPeriph_Driver/src/stm32f4xx_fsmc.c **** /**
 364:App/STM32F4-Discovery/Libraries/STM32F4xx_StdPeriph_Driver/src/stm32f4xx_fsmc.c ****   * @brief  Initializes the FSMC NAND Banks according to the specified parameters
 365:App/STM32F4-Discovery/Libraries/STM32F4xx_StdPeriph_Driver/src/stm32f4xx_fsmc.c ****   *         in the FSMC_NANDInitStruct.
 366:App/STM32F4-Discovery/Libraries/STM32F4xx_StdPeriph_Driver/src/stm32f4xx_fsmc.c ****   * @param  FSMC_NANDInitStruct : pointer to a FSMC_NANDInitTypeDef structure that
 367:App/STM32F4-Discovery/Libraries/STM32F4xx_StdPeriph_Driver/src/stm32f4xx_fsmc.c ****   *         contains the configuration information for the FSMC NAND specified Banks.              
 368:App/STM32F4-Discovery/Libraries/STM32F4xx_StdPeriph_Driver/src/stm32f4xx_fsmc.c ****   * @retval None
 369:App/STM32F4-Discovery/Libraries/STM32F4xx_StdPeriph_Driver/src/stm32f4xx_fsmc.c ****   */
 370:App/STM32F4-Discovery/Libraries/STM32F4xx_StdPeriph_Driver/src/stm32f4xx_fsmc.c **** void FSMC_NANDInit(FSMC_NANDInitTypeDef* FSMC_NANDInitStruct)
 371:App/STM32F4-Discovery/Libraries/STM32F4xx_StdPeriph_Driver/src/stm32f4xx_fsmc.c **** {
 1067              		.loc 1 371 0
 1068              		.cfi_startproc
 1069              		@ args = 0, pretend = 0, frame = 24
 1070              		@ frame_needed = 1, uses_anonymous_args = 0
 1071 0000 80B5     		push	{r7, lr}
 1072              	.LCFI15:
 1073              		.cfi_def_cfa_offset 8
 1074              		.cfi_offset 7, -8
 1075              		.cfi_offset 14, -4
 1076 0002 86B0     		sub	sp, sp, #24
 1077              	.LCFI16:
 1078              		.cfi_def_cfa_offset 32
 1079 0004 00AF     		add	r7, sp, #0
 1080              	.LCFI17:
 1081              		.cfi_def_cfa_register 7
 1082 0006 7860     		str	r0, [r7, #4]
 372:App/STM32F4-Discovery/Libraries/STM32F4xx_StdPeriph_Driver/src/stm32f4xx_fsmc.c ****   uint32_t tmppcr = 0x00000000, tmppmem = 0x00000000, tmppatt = 0x00000000; 
 1083              		.loc 1 372 0
 1084 0008 0023     		movs	r3, #0
 1085 000a 7B61     		str	r3, [r7, #20]
 1086 000c 0023     		movs	r3, #0
 1087 000e 3B61     		str	r3, [r7, #16]
 1088 0010 0023     		movs	r3, #0
 1089 0012 FB60     		str	r3, [r7, #12]
 373:App/STM32F4-Discovery/Libraries/STM32F4xx_StdPeriph_Driver/src/stm32f4xx_fsmc.c ****     
 374:App/STM32F4-Discovery/Libraries/STM32F4xx_StdPeriph_Driver/src/stm32f4xx_fsmc.c ****   /* Check the parameters */
 375:App/STM32F4-Discovery/Libraries/STM32F4xx_StdPeriph_Driver/src/stm32f4xx_fsmc.c ****   assert_param( IS_FSMC_NAND_BANK(FSMC_NANDInitStruct->FSMC_Bank));
 1090              		.loc 1 375 0
 1091 0014 7B68     		ldr	r3, [r7, #4]
 1092 0016 1B68     		ldr	r3, [r3]
 1093 0018 102B     		cmp	r3, #16
 1094 001a 09D0     		beq	.L59
 1095              		.loc 1 375 0 is_stmt 0 discriminator 1
 1096 001c 7B68     		ldr	r3, [r7, #4]
 1097 001e 1B68     		ldr	r3, [r3]
 1098 0020 B3F5807F 		cmp	r3, #256
 1099 0024 04D0     		beq	.L59
 1100 0026 8348     		ldr	r0, .L76
 1101 0028 40F27711 		movw	r1, #375
 1102 002c FFF7FEFF 		bl	assert_failed
 1103              	.L59:
 376:App/STM32F4-Discovery/Libraries/STM32F4xx_StdPeriph_Driver/src/stm32f4xx_fsmc.c ****   assert_param( IS_FSMC_WAIT_FEATURE(FSMC_NANDInitStruct->FSMC_Waitfeature));
 1104              		.loc 1 376 0 is_stmt 1
 1105 0030 7B68     		ldr	r3, [r7, #4]
 1106 0032 5B68     		ldr	r3, [r3, #4]
 1107 0034 002B     		cmp	r3, #0
 1108 0036 08D0     		beq	.L60
 1109              		.loc 1 376 0 is_stmt 0 discriminator 1
 1110 0038 7B68     		ldr	r3, [r7, #4]
 1111 003a 5B68     		ldr	r3, [r3, #4]
 1112 003c 022B     		cmp	r3, #2
 1113 003e 04D0     		beq	.L60
 1114 0040 7C48     		ldr	r0, .L76
 1115 0042 4FF4BC71 		mov	r1, #376
 1116 0046 FFF7FEFF 		bl	assert_failed
 1117              	.L60:
 377:App/STM32F4-Discovery/Libraries/STM32F4xx_StdPeriph_Driver/src/stm32f4xx_fsmc.c ****   assert_param( IS_FSMC_MEMORY_WIDTH(FSMC_NANDInitStruct->FSMC_MemoryDataWidth));
 1118              		.loc 1 377 0 is_stmt 1
 1119 004a 7B68     		ldr	r3, [r7, #4]
 1120 004c 9B68     		ldr	r3, [r3, #8]
 1121 004e 002B     		cmp	r3, #0
 1122 0050 08D0     		beq	.L61
 1123              		.loc 1 377 0 is_stmt 0 discriminator 1
 1124 0052 7B68     		ldr	r3, [r7, #4]
 1125 0054 9B68     		ldr	r3, [r3, #8]
 1126 0056 102B     		cmp	r3, #16
 1127 0058 04D0     		beq	.L61
 1128 005a 7648     		ldr	r0, .L76
 1129 005c 40F27911 		movw	r1, #377
 1130 0060 FFF7FEFF 		bl	assert_failed
 1131              	.L61:
 378:App/STM32F4-Discovery/Libraries/STM32F4xx_StdPeriph_Driver/src/stm32f4xx_fsmc.c ****   assert_param( IS_FSMC_ECC_STATE(FSMC_NANDInitStruct->FSMC_ECC));
 1132              		.loc 1 378 0 is_stmt 1
 1133 0064 7B68     		ldr	r3, [r7, #4]
 1134 0066 DB68     		ldr	r3, [r3, #12]
 1135 0068 002B     		cmp	r3, #0
 1136 006a 08D0     		beq	.L62
 1137              		.loc 1 378 0 is_stmt 0 discriminator 1
 1138 006c 7B68     		ldr	r3, [r7, #4]
 1139 006e DB68     		ldr	r3, [r3, #12]
 1140 0070 402B     		cmp	r3, #64
 1141 0072 04D0     		beq	.L62
 1142 0074 6F48     		ldr	r0, .L76
 1143 0076 4FF4BD71 		mov	r1, #378
 1144 007a FFF7FEFF 		bl	assert_failed
 1145              	.L62:
 379:App/STM32F4-Discovery/Libraries/STM32F4xx_StdPeriph_Driver/src/stm32f4xx_fsmc.c ****   assert_param( IS_FSMC_ECCPAGE_SIZE(FSMC_NANDInitStruct->FSMC_ECCPageSize));
 1146              		.loc 1 379 0 is_stmt 1
 1147 007e 7B68     		ldr	r3, [r7, #4]
 1148 0080 1B69     		ldr	r3, [r3, #16]
 1149 0082 002B     		cmp	r3, #0
 1150 0084 1DD0     		beq	.L63
 1151              		.loc 1 379 0 is_stmt 0 discriminator 1
 1152 0086 7B68     		ldr	r3, [r7, #4]
 1153 0088 1B69     		ldr	r3, [r3, #16]
 1154 008a B3F5003F 		cmp	r3, #131072
 1155 008e 18D0     		beq	.L63
 1156 0090 7B68     		ldr	r3, [r7, #4]
 1157 0092 1B69     		ldr	r3, [r3, #16]
 1158 0094 B3F5802F 		cmp	r3, #262144
 1159 0098 13D0     		beq	.L63
 1160 009a 7B68     		ldr	r3, [r7, #4]
 1161 009c 1B69     		ldr	r3, [r3, #16]
 1162 009e B3F5C02F 		cmp	r3, #393216
 1163 00a2 0ED0     		beq	.L63
 1164 00a4 7B68     		ldr	r3, [r7, #4]
 1165 00a6 1B69     		ldr	r3, [r3, #16]
 1166 00a8 B3F5002F 		cmp	r3, #524288
 1167 00ac 09D0     		beq	.L63
 1168 00ae 7B68     		ldr	r3, [r7, #4]
 1169 00b0 1B69     		ldr	r3, [r3, #16]
 1170 00b2 B3F5202F 		cmp	r3, #655360
 1171 00b6 04D0     		beq	.L63
 1172 00b8 5E48     		ldr	r0, .L76
 1173 00ba 40F27B11 		movw	r1, #379
 1174 00be FFF7FEFF 		bl	assert_failed
 1175              	.L63:
 380:App/STM32F4-Discovery/Libraries/STM32F4xx_StdPeriph_Driver/src/stm32f4xx_fsmc.c ****   assert_param( IS_FSMC_TCLR_TIME(FSMC_NANDInitStruct->FSMC_TCLRSetupTime));
 1176              		.loc 1 380 0 is_stmt 1
 1177 00c2 7B68     		ldr	r3, [r7, #4]
 1178 00c4 5B69     		ldr	r3, [r3, #20]
 1179 00c6 FF2B     		cmp	r3, #255
 1180 00c8 04D9     		bls	.L64
 1181              		.loc 1 380 0 is_stmt 0 discriminator 1
 1182 00ca 5A48     		ldr	r0, .L76
 1183 00cc 4FF4BE71 		mov	r1, #380
 1184 00d0 FFF7FEFF 		bl	assert_failed
 1185              	.L64:
 381:App/STM32F4-Discovery/Libraries/STM32F4xx_StdPeriph_Driver/src/stm32f4xx_fsmc.c ****   assert_param( IS_FSMC_TAR_TIME(FSMC_NANDInitStruct->FSMC_TARSetupTime));
 1186              		.loc 1 381 0 is_stmt 1
 1187 00d4 7B68     		ldr	r3, [r7, #4]
 1188 00d6 9B69     		ldr	r3, [r3, #24]
 1189 00d8 FF2B     		cmp	r3, #255
 1190 00da 04D9     		bls	.L65
 1191              		.loc 1 381 0 is_stmt 0 discriminator 1
 1192 00dc 5548     		ldr	r0, .L76
 1193 00de 40F27D11 		movw	r1, #381
 1194 00e2 FFF7FEFF 		bl	assert_failed
 1195              	.L65:
 382:App/STM32F4-Discovery/Libraries/STM32F4xx_StdPeriph_Driver/src/stm32f4xx_fsmc.c ****   assert_param(IS_FSMC_SETUP_TIME(FSMC_NANDInitStruct->FSMC_CommonSpaceTimingStruct->FSMC_SetupTime
 1196              		.loc 1 382 0 is_stmt 1
 1197 00e6 7B68     		ldr	r3, [r7, #4]
 1198 00e8 DB69     		ldr	r3, [r3, #28]
 1199 00ea 1B68     		ldr	r3, [r3]
 1200 00ec FF2B     		cmp	r3, #255
 1201 00ee 04D9     		bls	.L66
 1202              		.loc 1 382 0 is_stmt 0 discriminator 1
 1203 00f0 5048     		ldr	r0, .L76
 1204 00f2 4FF4BF71 		mov	r1, #382
 1205 00f6 FFF7FEFF 		bl	assert_failed
 1206              	.L66:
 383:App/STM32F4-Discovery/Libraries/STM32F4xx_StdPeriph_Driver/src/stm32f4xx_fsmc.c ****   assert_param(IS_FSMC_WAIT_TIME(FSMC_NANDInitStruct->FSMC_CommonSpaceTimingStruct->FSMC_WaitSetupT
 1207              		.loc 1 383 0 is_stmt 1
 1208 00fa 7B68     		ldr	r3, [r7, #4]
 1209 00fc DB69     		ldr	r3, [r3, #28]
 1210 00fe 5B68     		ldr	r3, [r3, #4]
 1211 0100 FF2B     		cmp	r3, #255
 1212 0102 04D9     		bls	.L67
 1213              		.loc 1 383 0 is_stmt 0 discriminator 1
 1214 0104 4B48     		ldr	r0, .L76
 1215 0106 40F27F11 		movw	r1, #383
 1216 010a FFF7FEFF 		bl	assert_failed
 1217              	.L67:
 384:App/STM32F4-Discovery/Libraries/STM32F4xx_StdPeriph_Driver/src/stm32f4xx_fsmc.c ****   assert_param(IS_FSMC_HOLD_TIME(FSMC_NANDInitStruct->FSMC_CommonSpaceTimingStruct->FSMC_HoldSetupT
 1218              		.loc 1 384 0 is_stmt 1
 1219 010e 7B68     		ldr	r3, [r7, #4]
 1220 0110 DB69     		ldr	r3, [r3, #28]
 1221 0112 9B68     		ldr	r3, [r3, #8]
 1222 0114 FF2B     		cmp	r3, #255
 1223 0116 04D9     		bls	.L68
 1224              		.loc 1 384 0 is_stmt 0 discriminator 1
 1225 0118 4648     		ldr	r0, .L76
 1226 011a 4FF4C071 		mov	r1, #384
 1227 011e FFF7FEFF 		bl	assert_failed
 1228              	.L68:
 385:App/STM32F4-Discovery/Libraries/STM32F4xx_StdPeriph_Driver/src/stm32f4xx_fsmc.c ****   assert_param(IS_FSMC_HIZ_TIME(FSMC_NANDInitStruct->FSMC_CommonSpaceTimingStruct->FSMC_HiZSetupTim
 1229              		.loc 1 385 0 is_stmt 1
 1230 0122 7B68     		ldr	r3, [r7, #4]
 1231 0124 DB69     		ldr	r3, [r3, #28]
 1232 0126 DB68     		ldr	r3, [r3, #12]
 1233 0128 FF2B     		cmp	r3, #255
 1234 012a 04D9     		bls	.L69
 1235              		.loc 1 385 0 is_stmt 0 discriminator 1
 1236 012c 4148     		ldr	r0, .L76
 1237 012e 40F28111 		movw	r1, #385
 1238 0132 FFF7FEFF 		bl	assert_failed
 1239              	.L69:
 386:App/STM32F4-Discovery/Libraries/STM32F4xx_StdPeriph_Driver/src/stm32f4xx_fsmc.c ****   assert_param(IS_FSMC_SETUP_TIME(FSMC_NANDInitStruct->FSMC_AttributeSpaceTimingStruct->FSMC_SetupT
 1240              		.loc 1 386 0 is_stmt 1
 1241 0136 7B68     		ldr	r3, [r7, #4]
 1242 0138 1B6A     		ldr	r3, [r3, #32]
 1243 013a 1B68     		ldr	r3, [r3]
 1244 013c FF2B     		cmp	r3, #255
 1245 013e 04D9     		bls	.L70
 1246              		.loc 1 386 0 is_stmt 0 discriminator 1
 1247 0140 3C48     		ldr	r0, .L76
 1248 0142 4FF4C171 		mov	r1, #386
 1249 0146 FFF7FEFF 		bl	assert_failed
 1250              	.L70:
 387:App/STM32F4-Discovery/Libraries/STM32F4xx_StdPeriph_Driver/src/stm32f4xx_fsmc.c ****   assert_param(IS_FSMC_WAIT_TIME(FSMC_NANDInitStruct->FSMC_AttributeSpaceTimingStruct->FSMC_WaitSet
 1251              		.loc 1 387 0 is_stmt 1
 1252 014a 7B68     		ldr	r3, [r7, #4]
 1253 014c 1B6A     		ldr	r3, [r3, #32]
 1254 014e 5B68     		ldr	r3, [r3, #4]
 1255 0150 FF2B     		cmp	r3, #255
 1256 0152 04D9     		bls	.L71
 1257              		.loc 1 387 0 is_stmt 0 discriminator 1
 1258 0154 3748     		ldr	r0, .L76
 1259 0156 40F28311 		movw	r1, #387
 1260 015a FFF7FEFF 		bl	assert_failed
 1261              	.L71:
 388:App/STM32F4-Discovery/Libraries/STM32F4xx_StdPeriph_Driver/src/stm32f4xx_fsmc.c ****   assert_param(IS_FSMC_HOLD_TIME(FSMC_NANDInitStruct->FSMC_AttributeSpaceTimingStruct->FSMC_HoldSet
 1262              		.loc 1 388 0 is_stmt 1
 1263 015e 7B68     		ldr	r3, [r7, #4]
 1264 0160 1B6A     		ldr	r3, [r3, #32]
 1265 0162 9B68     		ldr	r3, [r3, #8]
 1266 0164 FF2B     		cmp	r3, #255
 1267 0166 04D9     		bls	.L72
 1268              		.loc 1 388 0 is_stmt 0 discriminator 1
 1269 0168 3248     		ldr	r0, .L76
 1270 016a 4FF4C271 		mov	r1, #388
 1271 016e FFF7FEFF 		bl	assert_failed
 1272              	.L72:
 389:App/STM32F4-Discovery/Libraries/STM32F4xx_StdPeriph_Driver/src/stm32f4xx_fsmc.c ****   assert_param(IS_FSMC_HIZ_TIME(FSMC_NANDInitStruct->FSMC_AttributeSpaceTimingStruct->FSMC_HiZSetup
 1273              		.loc 1 389 0 is_stmt 1
 1274 0172 7B68     		ldr	r3, [r7, #4]
 1275 0174 1B6A     		ldr	r3, [r3, #32]
 1276 0176 DB68     		ldr	r3, [r3, #12]
 1277 0178 FF2B     		cmp	r3, #255
 1278 017a 04D9     		bls	.L73
 1279              		.loc 1 389 0 is_stmt 0 discriminator 1
 1280 017c 2D48     		ldr	r0, .L76
 1281 017e 40F28511 		movw	r1, #389
 1282 0182 FFF7FEFF 		bl	assert_failed
 1283              	.L73:
 390:App/STM32F4-Discovery/Libraries/STM32F4xx_StdPeriph_Driver/src/stm32f4xx_fsmc.c ****   
 391:App/STM32F4-Discovery/Libraries/STM32F4xx_StdPeriph_Driver/src/stm32f4xx_fsmc.c ****   /* Set the tmppcr value according to FSMC_NANDInitStruct parameters */
 392:App/STM32F4-Discovery/Libraries/STM32F4xx_StdPeriph_Driver/src/stm32f4xx_fsmc.c ****   tmppcr = (uint32_t)FSMC_NANDInitStruct->FSMC_Waitfeature |
 1284              		.loc 1 392 0 is_stmt 1
 1285 0186 7B68     		ldr	r3, [r7, #4]
 1286 0188 5A68     		ldr	r2, [r3, #4]
 393:App/STM32F4-Discovery/Libraries/STM32F4xx_StdPeriph_Driver/src/stm32f4xx_fsmc.c ****             PCR_MEMORYTYPE_NAND |
 394:App/STM32F4-Discovery/Libraries/STM32F4xx_StdPeriph_Driver/src/stm32f4xx_fsmc.c ****             FSMC_NANDInitStruct->FSMC_MemoryDataWidth |
 1287              		.loc 1 394 0
 1288 018a 7B68     		ldr	r3, [r7, #4]
 1289 018c 9B68     		ldr	r3, [r3, #8]
 393:App/STM32F4-Discovery/Libraries/STM32F4xx_StdPeriph_Driver/src/stm32f4xx_fsmc.c ****             PCR_MEMORYTYPE_NAND |
 1290              		.loc 1 393 0
 1291 018e 1A43     		orrs	r2, r2, r3
 395:App/STM32F4-Discovery/Libraries/STM32F4xx_StdPeriph_Driver/src/stm32f4xx_fsmc.c ****             FSMC_NANDInitStruct->FSMC_ECC |
 1292              		.loc 1 395 0
 1293 0190 7B68     		ldr	r3, [r7, #4]
 1294 0192 DB68     		ldr	r3, [r3, #12]
 394:App/STM32F4-Discovery/Libraries/STM32F4xx_StdPeriph_Driver/src/stm32f4xx_fsmc.c ****             FSMC_NANDInitStruct->FSMC_MemoryDataWidth |
 1295              		.loc 1 394 0
 1296 0194 1A43     		orrs	r2, r2, r3
 396:App/STM32F4-Discovery/Libraries/STM32F4xx_StdPeriph_Driver/src/stm32f4xx_fsmc.c ****             FSMC_NANDInitStruct->FSMC_ECCPageSize |
 1297              		.loc 1 396 0
 1298 0196 7B68     		ldr	r3, [r7, #4]
 1299 0198 1B69     		ldr	r3, [r3, #16]
 395:App/STM32F4-Discovery/Libraries/STM32F4xx_StdPeriph_Driver/src/stm32f4xx_fsmc.c ****             FSMC_NANDInitStruct->FSMC_ECC |
 1300              		.loc 1 395 0
 1301 019a 1A43     		orrs	r2, r2, r3
 397:App/STM32F4-Discovery/Libraries/STM32F4xx_StdPeriph_Driver/src/stm32f4xx_fsmc.c ****             (FSMC_NANDInitStruct->FSMC_TCLRSetupTime << 9 )|
 1302              		.loc 1 397 0
 1303 019c 7B68     		ldr	r3, [r7, #4]
 1304 019e 5B69     		ldr	r3, [r3, #20]
 1305 01a0 5B02     		lsls	r3, r3, #9
 396:App/STM32F4-Discovery/Libraries/STM32F4xx_StdPeriph_Driver/src/stm32f4xx_fsmc.c ****             FSMC_NANDInitStruct->FSMC_ECCPageSize |
 1306              		.loc 1 396 0
 1307 01a2 1A43     		orrs	r2, r2, r3
 398:App/STM32F4-Discovery/Libraries/STM32F4xx_StdPeriph_Driver/src/stm32f4xx_fsmc.c ****             (FSMC_NANDInitStruct->FSMC_TARSetupTime << 13);
 1308              		.loc 1 398 0
 1309 01a4 7B68     		ldr	r3, [r7, #4]
 1310 01a6 9B69     		ldr	r3, [r3, #24]
 1311 01a8 5B03     		lsls	r3, r3, #13
 397:App/STM32F4-Discovery/Libraries/STM32F4xx_StdPeriph_Driver/src/stm32f4xx_fsmc.c ****             (FSMC_NANDInitStruct->FSMC_TCLRSetupTime << 9 )|
 1312              		.loc 1 397 0
 1313 01aa 1343     		orrs	r3, r3, r2
 392:App/STM32F4-Discovery/Libraries/STM32F4xx_StdPeriph_Driver/src/stm32f4xx_fsmc.c ****   tmppcr = (uint32_t)FSMC_NANDInitStruct->FSMC_Waitfeature |
 1314              		.loc 1 392 0
 1315 01ac 43F00803 		orr	r3, r3, #8
 1316 01b0 7B61     		str	r3, [r7, #20]
 399:App/STM32F4-Discovery/Libraries/STM32F4xx_StdPeriph_Driver/src/stm32f4xx_fsmc.c ****             
 400:App/STM32F4-Discovery/Libraries/STM32F4xx_StdPeriph_Driver/src/stm32f4xx_fsmc.c ****   /* Set tmppmem value according to FSMC_CommonSpaceTimingStructure parameters */
 401:App/STM32F4-Discovery/Libraries/STM32F4xx_StdPeriph_Driver/src/stm32f4xx_fsmc.c ****   tmppmem = (uint32_t)FSMC_NANDInitStruct->FSMC_CommonSpaceTimingStruct->FSMC_SetupTime |
 1317              		.loc 1 401 0
 1318 01b2 7B68     		ldr	r3, [r7, #4]
 1319 01b4 DB69     		ldr	r3, [r3, #28]
 1320 01b6 1A68     		ldr	r2, [r3]
 402:App/STM32F4-Discovery/Libraries/STM32F4xx_StdPeriph_Driver/src/stm32f4xx_fsmc.c ****             (FSMC_NANDInitStruct->FSMC_CommonSpaceTimingStruct->FSMC_WaitSetupTime << 8) |
 1321              		.loc 1 402 0
 1322 01b8 7B68     		ldr	r3, [r7, #4]
 1323 01ba DB69     		ldr	r3, [r3, #28]
 1324 01bc 5B68     		ldr	r3, [r3, #4]
 1325 01be 1B02     		lsls	r3, r3, #8
 401:App/STM32F4-Discovery/Libraries/STM32F4xx_StdPeriph_Driver/src/stm32f4xx_fsmc.c ****   tmppmem = (uint32_t)FSMC_NANDInitStruct->FSMC_CommonSpaceTimingStruct->FSMC_SetupTime |
 1326              		.loc 1 401 0
 1327 01c0 1A43     		orrs	r2, r2, r3
 403:App/STM32F4-Discovery/Libraries/STM32F4xx_StdPeriph_Driver/src/stm32f4xx_fsmc.c ****             (FSMC_NANDInitStruct->FSMC_CommonSpaceTimingStruct->FSMC_HoldSetupTime << 16)|
 1328              		.loc 1 403 0
 1329 01c2 7B68     		ldr	r3, [r7, #4]
 1330 01c4 DB69     		ldr	r3, [r3, #28]
 1331 01c6 9B68     		ldr	r3, [r3, #8]
 1332 01c8 1B04     		lsls	r3, r3, #16
 402:App/STM32F4-Discovery/Libraries/STM32F4xx_StdPeriph_Driver/src/stm32f4xx_fsmc.c ****             (FSMC_NANDInitStruct->FSMC_CommonSpaceTimingStruct->FSMC_WaitSetupTime << 8) |
 1333              		.loc 1 402 0
 1334 01ca 1A43     		orrs	r2, r2, r3
 404:App/STM32F4-Discovery/Libraries/STM32F4xx_StdPeriph_Driver/src/stm32f4xx_fsmc.c ****             (FSMC_NANDInitStruct->FSMC_CommonSpaceTimingStruct->FSMC_HiZSetupTime << 24); 
 1335              		.loc 1 404 0
 1336 01cc 7B68     		ldr	r3, [r7, #4]
 1337 01ce DB69     		ldr	r3, [r3, #28]
 1338 01d0 DB68     		ldr	r3, [r3, #12]
 1339 01d2 1B06     		lsls	r3, r3, #24
 401:App/STM32F4-Discovery/Libraries/STM32F4xx_StdPeriph_Driver/src/stm32f4xx_fsmc.c ****   tmppmem = (uint32_t)FSMC_NANDInitStruct->FSMC_CommonSpaceTimingStruct->FSMC_SetupTime |
 1340              		.loc 1 401 0
 1341 01d4 1343     		orrs	r3, r3, r2
 1342 01d6 3B61     		str	r3, [r7, #16]
 405:App/STM32F4-Discovery/Libraries/STM32F4xx_StdPeriph_Driver/src/stm32f4xx_fsmc.c ****             
 406:App/STM32F4-Discovery/Libraries/STM32F4xx_StdPeriph_Driver/src/stm32f4xx_fsmc.c ****   /* Set tmppatt value according to FSMC_AttributeSpaceTimingStructure parameters */
 407:App/STM32F4-Discovery/Libraries/STM32F4xx_StdPeriph_Driver/src/stm32f4xx_fsmc.c ****   tmppatt = (uint32_t)FSMC_NANDInitStruct->FSMC_AttributeSpaceTimingStruct->FSMC_SetupTime |
 1343              		.loc 1 407 0
 1344 01d8 7B68     		ldr	r3, [r7, #4]
 1345 01da 1B6A     		ldr	r3, [r3, #32]
 1346 01dc 1A68     		ldr	r2, [r3]
 408:App/STM32F4-Discovery/Libraries/STM32F4xx_StdPeriph_Driver/src/stm32f4xx_fsmc.c ****             (FSMC_NANDInitStruct->FSMC_AttributeSpaceTimingStruct->FSMC_WaitSetupTime << 8) |
 1347              		.loc 1 408 0
 1348 01de 7B68     		ldr	r3, [r7, #4]
 1349 01e0 1B6A     		ldr	r3, [r3, #32]
 1350 01e2 5B68     		ldr	r3, [r3, #4]
 1351 01e4 1B02     		lsls	r3, r3, #8
 407:App/STM32F4-Discovery/Libraries/STM32F4xx_StdPeriph_Driver/src/stm32f4xx_fsmc.c ****   tmppatt = (uint32_t)FSMC_NANDInitStruct->FSMC_AttributeSpaceTimingStruct->FSMC_SetupTime |
 1352              		.loc 1 407 0
 1353 01e6 1A43     		orrs	r2, r2, r3
 409:App/STM32F4-Discovery/Libraries/STM32F4xx_StdPeriph_Driver/src/stm32f4xx_fsmc.c ****             (FSMC_NANDInitStruct->FSMC_AttributeSpaceTimingStruct->FSMC_HoldSetupTime << 16)|
 1354              		.loc 1 409 0
 1355 01e8 7B68     		ldr	r3, [r7, #4]
 1356 01ea 1B6A     		ldr	r3, [r3, #32]
 1357 01ec 9B68     		ldr	r3, [r3, #8]
 1358 01ee 1B04     		lsls	r3, r3, #16
 408:App/STM32F4-Discovery/Libraries/STM32F4xx_StdPeriph_Driver/src/stm32f4xx_fsmc.c ****             (FSMC_NANDInitStruct->FSMC_AttributeSpaceTimingStruct->FSMC_WaitSetupTime << 8) |
 1359              		.loc 1 408 0
 1360 01f0 1A43     		orrs	r2, r2, r3
 410:App/STM32F4-Discovery/Libraries/STM32F4xx_StdPeriph_Driver/src/stm32f4xx_fsmc.c ****             (FSMC_NANDInitStruct->FSMC_AttributeSpaceTimingStruct->FSMC_HiZSetupTime << 24);
 1361              		.loc 1 410 0
 1362 01f2 7B68     		ldr	r3, [r7, #4]
 1363 01f4 1B6A     		ldr	r3, [r3, #32]
 1364 01f6 DB68     		ldr	r3, [r3, #12]
 1365 01f8 1B06     		lsls	r3, r3, #24
 407:App/STM32F4-Discovery/Libraries/STM32F4xx_StdPeriph_Driver/src/stm32f4xx_fsmc.c ****   tmppatt = (uint32_t)FSMC_NANDInitStruct->FSMC_AttributeSpaceTimingStruct->FSMC_SetupTime |
 1366              		.loc 1 407 0
 1367 01fa 1343     		orrs	r3, r3, r2
 1368 01fc FB60     		str	r3, [r7, #12]
 411:App/STM32F4-Discovery/Libraries/STM32F4xx_StdPeriph_Driver/src/stm32f4xx_fsmc.c ****   
 412:App/STM32F4-Discovery/Libraries/STM32F4xx_StdPeriph_Driver/src/stm32f4xx_fsmc.c ****   if(FSMC_NANDInitStruct->FSMC_Bank == FSMC_Bank2_NAND)
 1369              		.loc 1 412 0
 1370 01fe 7B68     		ldr	r3, [r7, #4]
 1371 0200 1B68     		ldr	r3, [r3]
 1372 0202 102B     		cmp	r3, #16
 1373 0204 09D1     		bne	.L74
 413:App/STM32F4-Discovery/Libraries/STM32F4xx_StdPeriph_Driver/src/stm32f4xx_fsmc.c ****   {
 414:App/STM32F4-Discovery/Libraries/STM32F4xx_StdPeriph_Driver/src/stm32f4xx_fsmc.c ****     /* FSMC_Bank2_NAND registers configuration */
 415:App/STM32F4-Discovery/Libraries/STM32F4xx_StdPeriph_Driver/src/stm32f4xx_fsmc.c ****     FSMC_Bank2->PCR2 = tmppcr;
 1374              		.loc 1 415 0
 1375 0206 0C4B     		ldr	r3, .L76+4
 1376 0208 7A69     		ldr	r2, [r7, #20]
 1377 020a 1A60     		str	r2, [r3]
 416:App/STM32F4-Discovery/Libraries/STM32F4xx_StdPeriph_Driver/src/stm32f4xx_fsmc.c ****     FSMC_Bank2->PMEM2 = tmppmem;
 1378              		.loc 1 416 0
 1379 020c 0A4B     		ldr	r3, .L76+4
 1380 020e 3A69     		ldr	r2, [r7, #16]
 1381 0210 9A60     		str	r2, [r3, #8]
 417:App/STM32F4-Discovery/Libraries/STM32F4xx_StdPeriph_Driver/src/stm32f4xx_fsmc.c ****     FSMC_Bank2->PATT2 = tmppatt;
 1382              		.loc 1 417 0
 1383 0212 094B     		ldr	r3, .L76+4
 1384 0214 FA68     		ldr	r2, [r7, #12]
 1385 0216 DA60     		str	r2, [r3, #12]
 1386 0218 08E0     		b	.L58
 1387              	.L74:
 418:App/STM32F4-Discovery/Libraries/STM32F4xx_StdPeriph_Driver/src/stm32f4xx_fsmc.c ****   }
 419:App/STM32F4-Discovery/Libraries/STM32F4xx_StdPeriph_Driver/src/stm32f4xx_fsmc.c ****   else
 420:App/STM32F4-Discovery/Libraries/STM32F4xx_StdPeriph_Driver/src/stm32f4xx_fsmc.c ****   {
 421:App/STM32F4-Discovery/Libraries/STM32F4xx_StdPeriph_Driver/src/stm32f4xx_fsmc.c ****     /* FSMC_Bank3_NAND registers configuration */
 422:App/STM32F4-Discovery/Libraries/STM32F4xx_StdPeriph_Driver/src/stm32f4xx_fsmc.c ****     FSMC_Bank3->PCR3 = tmppcr;
 1388              		.loc 1 422 0
 1389 021a 084B     		ldr	r3, .L76+8
 1390 021c 7A69     		ldr	r2, [r7, #20]
 1391 021e 1A60     		str	r2, [r3]
 423:App/STM32F4-Discovery/Libraries/STM32F4xx_StdPeriph_Driver/src/stm32f4xx_fsmc.c ****     FSMC_Bank3->PMEM3 = tmppmem;
 1392              		.loc 1 423 0
 1393 0220 064B     		ldr	r3, .L76+8
 1394 0222 3A69     		ldr	r2, [r7, #16]
 1395 0224 9A60     		str	r2, [r3, #8]
 424:App/STM32F4-Discovery/Libraries/STM32F4xx_StdPeriph_Driver/src/stm32f4xx_fsmc.c ****     FSMC_Bank3->PATT3 = tmppatt;
 1396              		.loc 1 424 0
 1397 0226 054B     		ldr	r3, .L76+8
 1398 0228 FA68     		ldr	r2, [r7, #12]
 1399 022a DA60     		str	r2, [r3, #12]
 1400              	.L58:
 425:App/STM32F4-Discovery/Libraries/STM32F4xx_StdPeriph_Driver/src/stm32f4xx_fsmc.c ****   }
 426:App/STM32F4-Discovery/Libraries/STM32F4xx_StdPeriph_Driver/src/stm32f4xx_fsmc.c **** }
 1401              		.loc 1 426 0
 1402 022c 1837     		adds	r7, r7, #24
 1403 022e BD46     		mov	sp, r7
 1404              		@ sp needed
 1405 0230 80BD     		pop	{r7, pc}
 1406              	.L77:
 1407 0232 00BF     		.align	2
 1408              	.L76:
 1409 0234 00000000 		.word	.LC0
 1410 0238 600000A0 		.word	-1610612640
 1411 023c 800000A0 		.word	-1610612608
 1412              		.cfi_endproc
 1413              	.LFE115:
 1415              		.section	.text.FSMC_NANDStructInit,"ax",%progbits
 1416              		.align	2
 1417              		.global	FSMC_NANDStructInit
 1418              		.thumb
 1419              		.thumb_func
 1421              	FSMC_NANDStructInit:
 1422              	.LFB116:
 427:App/STM32F4-Discovery/Libraries/STM32F4xx_StdPeriph_Driver/src/stm32f4xx_fsmc.c **** 
 428:App/STM32F4-Discovery/Libraries/STM32F4xx_StdPeriph_Driver/src/stm32f4xx_fsmc.c **** 
 429:App/STM32F4-Discovery/Libraries/STM32F4xx_StdPeriph_Driver/src/stm32f4xx_fsmc.c **** /**
 430:App/STM32F4-Discovery/Libraries/STM32F4xx_StdPeriph_Driver/src/stm32f4xx_fsmc.c ****   * @brief  Fills each FSMC_NANDInitStruct member with its default value.
 431:App/STM32F4-Discovery/Libraries/STM32F4xx_StdPeriph_Driver/src/stm32f4xx_fsmc.c ****   * @param  FSMC_NANDInitStruct: pointer to a FSMC_NANDInitTypeDef structure which
 432:App/STM32F4-Discovery/Libraries/STM32F4xx_StdPeriph_Driver/src/stm32f4xx_fsmc.c ****   *         will be initialized.
 433:App/STM32F4-Discovery/Libraries/STM32F4xx_StdPeriph_Driver/src/stm32f4xx_fsmc.c ****   * @retval None
 434:App/STM32F4-Discovery/Libraries/STM32F4xx_StdPeriph_Driver/src/stm32f4xx_fsmc.c ****   */
 435:App/STM32F4-Discovery/Libraries/STM32F4xx_StdPeriph_Driver/src/stm32f4xx_fsmc.c **** void FSMC_NANDStructInit(FSMC_NANDInitTypeDef* FSMC_NANDInitStruct)
 436:App/STM32F4-Discovery/Libraries/STM32F4xx_StdPeriph_Driver/src/stm32f4xx_fsmc.c **** { 
 1423              		.loc 1 436 0
 1424              		.cfi_startproc
 1425              		@ args = 0, pretend = 0, frame = 8
 1426              		@ frame_needed = 1, uses_anonymous_args = 0
 1427              		@ link register save eliminated.
 1428 0000 80B4     		push	{r7}
 1429              	.LCFI18:
 1430              		.cfi_def_cfa_offset 4
 1431              		.cfi_offset 7, -4
 1432 0002 83B0     		sub	sp, sp, #12
 1433              	.LCFI19:
 1434              		.cfi_def_cfa_offset 16
 1435 0004 00AF     		add	r7, sp, #0
 1436              	.LCFI20:
 1437              		.cfi_def_cfa_register 7
 1438 0006 7860     		str	r0, [r7, #4]
 437:App/STM32F4-Discovery/Libraries/STM32F4xx_StdPeriph_Driver/src/stm32f4xx_fsmc.c ****   /* Reset NAND Init structure parameters values */
 438:App/STM32F4-Discovery/Libraries/STM32F4xx_StdPeriph_Driver/src/stm32f4xx_fsmc.c ****   FSMC_NANDInitStruct->FSMC_Bank = FSMC_Bank2_NAND;
 1439              		.loc 1 438 0
 1440 0008 7B68     		ldr	r3, [r7, #4]
 1441 000a 1022     		movs	r2, #16
 1442 000c 1A60     		str	r2, [r3]
 439:App/STM32F4-Discovery/Libraries/STM32F4xx_StdPeriph_Driver/src/stm32f4xx_fsmc.c ****   FSMC_NANDInitStruct->FSMC_Waitfeature = FSMC_Waitfeature_Disable;
 1443              		.loc 1 439 0
 1444 000e 7B68     		ldr	r3, [r7, #4]
 1445 0010 0022     		movs	r2, #0
 1446 0012 5A60     		str	r2, [r3, #4]
 440:App/STM32F4-Discovery/Libraries/STM32F4xx_StdPeriph_Driver/src/stm32f4xx_fsmc.c ****   FSMC_NANDInitStruct->FSMC_MemoryDataWidth = FSMC_MemoryDataWidth_8b;
 1447              		.loc 1 440 0
 1448 0014 7B68     		ldr	r3, [r7, #4]
 1449 0016 0022     		movs	r2, #0
 1450 0018 9A60     		str	r2, [r3, #8]
 441:App/STM32F4-Discovery/Libraries/STM32F4xx_StdPeriph_Driver/src/stm32f4xx_fsmc.c ****   FSMC_NANDInitStruct->FSMC_ECC = FSMC_ECC_Disable;
 1451              		.loc 1 441 0
 1452 001a 7B68     		ldr	r3, [r7, #4]
 1453 001c 0022     		movs	r2, #0
 1454 001e DA60     		str	r2, [r3, #12]
 442:App/STM32F4-Discovery/Libraries/STM32F4xx_StdPeriph_Driver/src/stm32f4xx_fsmc.c ****   FSMC_NANDInitStruct->FSMC_ECCPageSize = FSMC_ECCPageSize_256Bytes;
 1455              		.loc 1 442 0
 1456 0020 7B68     		ldr	r3, [r7, #4]
 1457 0022 0022     		movs	r2, #0
 1458 0024 1A61     		str	r2, [r3, #16]
 443:App/STM32F4-Discovery/Libraries/STM32F4xx_StdPeriph_Driver/src/stm32f4xx_fsmc.c ****   FSMC_NANDInitStruct->FSMC_TCLRSetupTime = 0x0;
 1459              		.loc 1 443 0
 1460 0026 7B68     		ldr	r3, [r7, #4]
 1461 0028 0022     		movs	r2, #0
 1462 002a 5A61     		str	r2, [r3, #20]
 444:App/STM32F4-Discovery/Libraries/STM32F4xx_StdPeriph_Driver/src/stm32f4xx_fsmc.c ****   FSMC_NANDInitStruct->FSMC_TARSetupTime = 0x0;
 1463              		.loc 1 444 0
 1464 002c 7B68     		ldr	r3, [r7, #4]
 1465 002e 0022     		movs	r2, #0
 1466 0030 9A61     		str	r2, [r3, #24]
 445:App/STM32F4-Discovery/Libraries/STM32F4xx_StdPeriph_Driver/src/stm32f4xx_fsmc.c ****   FSMC_NANDInitStruct->FSMC_CommonSpaceTimingStruct->FSMC_SetupTime = 0xFC;
 1467              		.loc 1 445 0
 1468 0032 7B68     		ldr	r3, [r7, #4]
 1469 0034 DB69     		ldr	r3, [r3, #28]
 1470 0036 FC22     		movs	r2, #252
 1471 0038 1A60     		str	r2, [r3]
 446:App/STM32F4-Discovery/Libraries/STM32F4xx_StdPeriph_Driver/src/stm32f4xx_fsmc.c ****   FSMC_NANDInitStruct->FSMC_CommonSpaceTimingStruct->FSMC_WaitSetupTime = 0xFC;
 1472              		.loc 1 446 0
 1473 003a 7B68     		ldr	r3, [r7, #4]
 1474 003c DB69     		ldr	r3, [r3, #28]
 1475 003e FC22     		movs	r2, #252
 1476 0040 5A60     		str	r2, [r3, #4]
 447:App/STM32F4-Discovery/Libraries/STM32F4xx_StdPeriph_Driver/src/stm32f4xx_fsmc.c ****   FSMC_NANDInitStruct->FSMC_CommonSpaceTimingStruct->FSMC_HoldSetupTime = 0xFC;
 1477              		.loc 1 447 0
 1478 0042 7B68     		ldr	r3, [r7, #4]
 1479 0044 DB69     		ldr	r3, [r3, #28]
 1480 0046 FC22     		movs	r2, #252
 1481 0048 9A60     		str	r2, [r3, #8]
 448:App/STM32F4-Discovery/Libraries/STM32F4xx_StdPeriph_Driver/src/stm32f4xx_fsmc.c ****   FSMC_NANDInitStruct->FSMC_CommonSpaceTimingStruct->FSMC_HiZSetupTime = 0xFC;
 1482              		.loc 1 448 0
 1483 004a 7B68     		ldr	r3, [r7, #4]
 1484 004c DB69     		ldr	r3, [r3, #28]
 1485 004e FC22     		movs	r2, #252
 1486 0050 DA60     		str	r2, [r3, #12]
 449:App/STM32F4-Discovery/Libraries/STM32F4xx_StdPeriph_Driver/src/stm32f4xx_fsmc.c ****   FSMC_NANDInitStruct->FSMC_AttributeSpaceTimingStruct->FSMC_SetupTime = 0xFC;
 1487              		.loc 1 449 0
 1488 0052 7B68     		ldr	r3, [r7, #4]
 1489 0054 1B6A     		ldr	r3, [r3, #32]
 1490 0056 FC22     		movs	r2, #252
 1491 0058 1A60     		str	r2, [r3]
 450:App/STM32F4-Discovery/Libraries/STM32F4xx_StdPeriph_Driver/src/stm32f4xx_fsmc.c ****   FSMC_NANDInitStruct->FSMC_AttributeSpaceTimingStruct->FSMC_WaitSetupTime = 0xFC;
 1492              		.loc 1 450 0
 1493 005a 7B68     		ldr	r3, [r7, #4]
 1494 005c 1B6A     		ldr	r3, [r3, #32]
 1495 005e FC22     		movs	r2, #252
 1496 0060 5A60     		str	r2, [r3, #4]
 451:App/STM32F4-Discovery/Libraries/STM32F4xx_StdPeriph_Driver/src/stm32f4xx_fsmc.c ****   FSMC_NANDInitStruct->FSMC_AttributeSpaceTimingStruct->FSMC_HoldSetupTime = 0xFC;
 1497              		.loc 1 451 0
 1498 0062 7B68     		ldr	r3, [r7, #4]
 1499 0064 1B6A     		ldr	r3, [r3, #32]
 1500 0066 FC22     		movs	r2, #252
 1501 0068 9A60     		str	r2, [r3, #8]
 452:App/STM32F4-Discovery/Libraries/STM32F4xx_StdPeriph_Driver/src/stm32f4xx_fsmc.c ****   FSMC_NANDInitStruct->FSMC_AttributeSpaceTimingStruct->FSMC_HiZSetupTime = 0xFC;	  
 1502              		.loc 1 452 0
 1503 006a 7B68     		ldr	r3, [r7, #4]
 1504 006c 1B6A     		ldr	r3, [r3, #32]
 1505 006e FC22     		movs	r2, #252
 1506 0070 DA60     		str	r2, [r3, #12]
 453:App/STM32F4-Discovery/Libraries/STM32F4xx_StdPeriph_Driver/src/stm32f4xx_fsmc.c **** }
 1507              		.loc 1 453 0
 1508 0072 0C37     		adds	r7, r7, #12
 1509 0074 BD46     		mov	sp, r7
 1510              		@ sp needed
 1511 0076 5DF8047B 		ldr	r7, [sp], #4
 1512 007a 7047     		bx	lr
 1513              		.cfi_endproc
 1514              	.LFE116:
 1516              		.section	.text.FSMC_NANDCmd,"ax",%progbits
 1517              		.align	2
 1518              		.global	FSMC_NANDCmd
 1519              		.thumb
 1520              		.thumb_func
 1522              	FSMC_NANDCmd:
 1523              	.LFB117:
 454:App/STM32F4-Discovery/Libraries/STM32F4xx_StdPeriph_Driver/src/stm32f4xx_fsmc.c **** 
 455:App/STM32F4-Discovery/Libraries/STM32F4xx_StdPeriph_Driver/src/stm32f4xx_fsmc.c **** /**
 456:App/STM32F4-Discovery/Libraries/STM32F4xx_StdPeriph_Driver/src/stm32f4xx_fsmc.c ****   * @brief  Enables or disables the specified NAND Memory Bank.
 457:App/STM32F4-Discovery/Libraries/STM32F4xx_StdPeriph_Driver/src/stm32f4xx_fsmc.c ****   * @param  FSMC_Bank: specifies the FSMC Bank to be used
 458:App/STM32F4-Discovery/Libraries/STM32F4xx_StdPeriph_Driver/src/stm32f4xx_fsmc.c ****   *          This parameter can be one of the following values:
 459:App/STM32F4-Discovery/Libraries/STM32F4xx_StdPeriph_Driver/src/stm32f4xx_fsmc.c ****   *            @arg FSMC_Bank2_NAND: FSMC Bank2 NAND 
 460:App/STM32F4-Discovery/Libraries/STM32F4xx_StdPeriph_Driver/src/stm32f4xx_fsmc.c ****   *            @arg FSMC_Bank3_NAND: FSMC Bank3 NAND
 461:App/STM32F4-Discovery/Libraries/STM32F4xx_StdPeriph_Driver/src/stm32f4xx_fsmc.c ****   * @param  NewState: new state of the FSMC_Bank. This parameter can be: ENABLE or DISABLE.
 462:App/STM32F4-Discovery/Libraries/STM32F4xx_StdPeriph_Driver/src/stm32f4xx_fsmc.c ****   * @retval None
 463:App/STM32F4-Discovery/Libraries/STM32F4xx_StdPeriph_Driver/src/stm32f4xx_fsmc.c ****   */
 464:App/STM32F4-Discovery/Libraries/STM32F4xx_StdPeriph_Driver/src/stm32f4xx_fsmc.c **** void FSMC_NANDCmd(uint32_t FSMC_Bank, FunctionalState NewState)
 465:App/STM32F4-Discovery/Libraries/STM32F4xx_StdPeriph_Driver/src/stm32f4xx_fsmc.c **** {
 1524              		.loc 1 465 0
 1525              		.cfi_startproc
 1526              		@ args = 0, pretend = 0, frame = 8
 1527              		@ frame_needed = 1, uses_anonymous_args = 0
 1528 0000 80B5     		push	{r7, lr}
 1529              	.LCFI21:
 1530              		.cfi_def_cfa_offset 8
 1531              		.cfi_offset 7, -8
 1532              		.cfi_offset 14, -4
 1533 0002 82B0     		sub	sp, sp, #8
 1534              	.LCFI22:
 1535              		.cfi_def_cfa_offset 16
 1536 0004 00AF     		add	r7, sp, #0
 1537              	.LCFI23:
 1538              		.cfi_def_cfa_register 7
 1539 0006 7860     		str	r0, [r7, #4]
 1540 0008 0B46     		mov	r3, r1
 1541 000a FB70     		strb	r3, [r7, #3]
 466:App/STM32F4-Discovery/Libraries/STM32F4xx_StdPeriph_Driver/src/stm32f4xx_fsmc.c ****   assert_param(IS_FSMC_NAND_BANK(FSMC_Bank));
 1542              		.loc 1 466 0
 1543 000c 7B68     		ldr	r3, [r7, #4]
 1544 000e 102B     		cmp	r3, #16
 1545 0010 08D0     		beq	.L80
 1546              		.loc 1 466 0 is_stmt 0 discriminator 1
 1547 0012 7B68     		ldr	r3, [r7, #4]
 1548 0014 B3F5807F 		cmp	r3, #256
 1549 0018 04D0     		beq	.L80
 1550 001a 1B48     		ldr	r0, .L87
 1551 001c 4FF4E971 		mov	r1, #466
 1552 0020 FFF7FEFF 		bl	assert_failed
 1553              	.L80:
 467:App/STM32F4-Discovery/Libraries/STM32F4xx_StdPeriph_Driver/src/stm32f4xx_fsmc.c ****   assert_param(IS_FUNCTIONAL_STATE(NewState));
 1554              		.loc 1 467 0 is_stmt 1
 1555 0024 FB78     		ldrb	r3, [r7, #3]	@ zero_extendqisi2
 1556 0026 002B     		cmp	r3, #0
 1557 0028 07D0     		beq	.L81
 1558              		.loc 1 467 0 is_stmt 0 discriminator 1
 1559 002a FB78     		ldrb	r3, [r7, #3]	@ zero_extendqisi2
 1560 002c 012B     		cmp	r3, #1
 1561 002e 04D0     		beq	.L81
 1562 0030 1548     		ldr	r0, .L87
 1563 0032 40F2D311 		movw	r1, #467
 1564 0036 FFF7FEFF 		bl	assert_failed
 1565              	.L81:
 468:App/STM32F4-Discovery/Libraries/STM32F4xx_StdPeriph_Driver/src/stm32f4xx_fsmc.c ****   
 469:App/STM32F4-Discovery/Libraries/STM32F4xx_StdPeriph_Driver/src/stm32f4xx_fsmc.c ****   if (NewState != DISABLE)
 1566              		.loc 1 469 0 is_stmt 1
 1567 003a FB78     		ldrb	r3, [r7, #3]	@ zero_extendqisi2
 1568 003c 002B     		cmp	r3, #0
 1569 003e 10D0     		beq	.L82
 470:App/STM32F4-Discovery/Libraries/STM32F4xx_StdPeriph_Driver/src/stm32f4xx_fsmc.c ****   {
 471:App/STM32F4-Discovery/Libraries/STM32F4xx_StdPeriph_Driver/src/stm32f4xx_fsmc.c ****     /* Enable the selected NAND Bank by setting the PBKEN bit in the PCRx register */
 472:App/STM32F4-Discovery/Libraries/STM32F4xx_StdPeriph_Driver/src/stm32f4xx_fsmc.c ****     if(FSMC_Bank == FSMC_Bank2_NAND)
 1570              		.loc 1 472 0
 1571 0040 7B68     		ldr	r3, [r7, #4]
 1572 0042 102B     		cmp	r3, #16
 1573 0044 06D1     		bne	.L83
 473:App/STM32F4-Discovery/Libraries/STM32F4xx_StdPeriph_Driver/src/stm32f4xx_fsmc.c ****     {
 474:App/STM32F4-Discovery/Libraries/STM32F4xx_StdPeriph_Driver/src/stm32f4xx_fsmc.c ****       FSMC_Bank2->PCR2 |= PCR_PBKEN_SET;
 1574              		.loc 1 474 0
 1575 0046 114B     		ldr	r3, .L87+4
 1576 0048 104A     		ldr	r2, .L87+4
 1577 004a 1268     		ldr	r2, [r2]
 1578 004c 42F00402 		orr	r2, r2, #4
 1579 0050 1A60     		str	r2, [r3]
 1580 0052 16E0     		b	.L79
 1581              	.L83:
 475:App/STM32F4-Discovery/Libraries/STM32F4xx_StdPeriph_Driver/src/stm32f4xx_fsmc.c ****     }
 476:App/STM32F4-Discovery/Libraries/STM32F4xx_StdPeriph_Driver/src/stm32f4xx_fsmc.c ****     else
 477:App/STM32F4-Discovery/Libraries/STM32F4xx_StdPeriph_Driver/src/stm32f4xx_fsmc.c ****     {
 478:App/STM32F4-Discovery/Libraries/STM32F4xx_StdPeriph_Driver/src/stm32f4xx_fsmc.c ****       FSMC_Bank3->PCR3 |= PCR_PBKEN_SET;
 1582              		.loc 1 478 0
 1583 0054 0E4B     		ldr	r3, .L87+8
 1584 0056 0E4A     		ldr	r2, .L87+8
 1585 0058 1268     		ldr	r2, [r2]
 1586 005a 42F00402 		orr	r2, r2, #4
 1587 005e 1A60     		str	r2, [r3]
 1588 0060 0FE0     		b	.L79
 1589              	.L82:
 479:App/STM32F4-Discovery/Libraries/STM32F4xx_StdPeriph_Driver/src/stm32f4xx_fsmc.c ****     }
 480:App/STM32F4-Discovery/Libraries/STM32F4xx_StdPeriph_Driver/src/stm32f4xx_fsmc.c ****   }
 481:App/STM32F4-Discovery/Libraries/STM32F4xx_StdPeriph_Driver/src/stm32f4xx_fsmc.c ****   else
 482:App/STM32F4-Discovery/Libraries/STM32F4xx_StdPeriph_Driver/src/stm32f4xx_fsmc.c ****   {
 483:App/STM32F4-Discovery/Libraries/STM32F4xx_StdPeriph_Driver/src/stm32f4xx_fsmc.c ****     /* Disable the selected NAND Bank by clearing the PBKEN bit in the PCRx register */
 484:App/STM32F4-Discovery/Libraries/STM32F4xx_StdPeriph_Driver/src/stm32f4xx_fsmc.c ****     if(FSMC_Bank == FSMC_Bank2_NAND)
 1590              		.loc 1 484 0
 1591 0062 7B68     		ldr	r3, [r7, #4]
 1592 0064 102B     		cmp	r3, #16
 1593 0066 06D1     		bne	.L86
 485:App/STM32F4-Discovery/Libraries/STM32F4xx_StdPeriph_Driver/src/stm32f4xx_fsmc.c ****     {
 486:App/STM32F4-Discovery/Libraries/STM32F4xx_StdPeriph_Driver/src/stm32f4xx_fsmc.c ****       FSMC_Bank2->PCR2 &= PCR_PBKEN_RESET;
 1594              		.loc 1 486 0
 1595 0068 084A     		ldr	r2, .L87+4
 1596 006a 084B     		ldr	r3, .L87+4
 1597 006c 1968     		ldr	r1, [r3]
 1598 006e 094B     		ldr	r3, .L87+12
 1599 0070 0B40     		ands	r3, r3, r1
 1600 0072 1360     		str	r3, [r2]
 1601 0074 05E0     		b	.L79
 1602              	.L86:
 487:App/STM32F4-Discovery/Libraries/STM32F4xx_StdPeriph_Driver/src/stm32f4xx_fsmc.c ****     }
 488:App/STM32F4-Discovery/Libraries/STM32F4xx_StdPeriph_Driver/src/stm32f4xx_fsmc.c ****     else
 489:App/STM32F4-Discovery/Libraries/STM32F4xx_StdPeriph_Driver/src/stm32f4xx_fsmc.c ****     {
 490:App/STM32F4-Discovery/Libraries/STM32F4xx_StdPeriph_Driver/src/stm32f4xx_fsmc.c ****       FSMC_Bank3->PCR3 &= PCR_PBKEN_RESET;
 1603              		.loc 1 490 0
 1604 0076 064A     		ldr	r2, .L87+8
 1605 0078 054B     		ldr	r3, .L87+8
 1606 007a 1968     		ldr	r1, [r3]
 1607 007c 054B     		ldr	r3, .L87+12
 1608 007e 0B40     		ands	r3, r3, r1
 1609 0080 1360     		str	r3, [r2]
 1610              	.L79:
 491:App/STM32F4-Discovery/Libraries/STM32F4xx_StdPeriph_Driver/src/stm32f4xx_fsmc.c ****     }
 492:App/STM32F4-Discovery/Libraries/STM32F4xx_StdPeriph_Driver/src/stm32f4xx_fsmc.c ****   }
 493:App/STM32F4-Discovery/Libraries/STM32F4xx_StdPeriph_Driver/src/stm32f4xx_fsmc.c **** }
 1611              		.loc 1 493 0
 1612 0082 0837     		adds	r7, r7, #8
 1613 0084 BD46     		mov	sp, r7
 1614              		@ sp needed
 1615 0086 80BD     		pop	{r7, pc}
 1616              	.L88:
 1617              		.align	2
 1618              	.L87:
 1619 0088 00000000 		.word	.LC0
 1620 008c 600000A0 		.word	-1610612640
 1621 0090 800000A0 		.word	-1610612608
 1622 0094 FBFF0F00 		.word	1048571
 1623              		.cfi_endproc
 1624              	.LFE117:
 1626              		.section	.text.FSMC_NANDECCCmd,"ax",%progbits
 1627              		.align	2
 1628              		.global	FSMC_NANDECCCmd
 1629              		.thumb
 1630              		.thumb_func
 1632              	FSMC_NANDECCCmd:
 1633              	.LFB118:
 494:App/STM32F4-Discovery/Libraries/STM32F4xx_StdPeriph_Driver/src/stm32f4xx_fsmc.c **** /**
 495:App/STM32F4-Discovery/Libraries/STM32F4xx_StdPeriph_Driver/src/stm32f4xx_fsmc.c ****   * @brief  Enables or disables the FSMC NAND ECC feature.
 496:App/STM32F4-Discovery/Libraries/STM32F4xx_StdPeriph_Driver/src/stm32f4xx_fsmc.c ****   * @param  FSMC_Bank: specifies the FSMC Bank to be used
 497:App/STM32F4-Discovery/Libraries/STM32F4xx_StdPeriph_Driver/src/stm32f4xx_fsmc.c ****   *          This parameter can be one of the following values:
 498:App/STM32F4-Discovery/Libraries/STM32F4xx_StdPeriph_Driver/src/stm32f4xx_fsmc.c ****   *            @arg FSMC_Bank2_NAND: FSMC Bank2 NAND 
 499:App/STM32F4-Discovery/Libraries/STM32F4xx_StdPeriph_Driver/src/stm32f4xx_fsmc.c ****   *            @arg FSMC_Bank3_NAND: FSMC Bank3 NAND
 500:App/STM32F4-Discovery/Libraries/STM32F4xx_StdPeriph_Driver/src/stm32f4xx_fsmc.c ****   * @param  NewState: new state of the FSMC NAND ECC feature.  
 501:App/STM32F4-Discovery/Libraries/STM32F4xx_StdPeriph_Driver/src/stm32f4xx_fsmc.c ****   *          This parameter can be: ENABLE or DISABLE.
 502:App/STM32F4-Discovery/Libraries/STM32F4xx_StdPeriph_Driver/src/stm32f4xx_fsmc.c ****   * @retval None
 503:App/STM32F4-Discovery/Libraries/STM32F4xx_StdPeriph_Driver/src/stm32f4xx_fsmc.c ****   */
 504:App/STM32F4-Discovery/Libraries/STM32F4xx_StdPeriph_Driver/src/stm32f4xx_fsmc.c **** void FSMC_NANDECCCmd(uint32_t FSMC_Bank, FunctionalState NewState)
 505:App/STM32F4-Discovery/Libraries/STM32F4xx_StdPeriph_Driver/src/stm32f4xx_fsmc.c **** {
 1634              		.loc 1 505 0
 1635              		.cfi_startproc
 1636              		@ args = 0, pretend = 0, frame = 8
 1637              		@ frame_needed = 1, uses_anonymous_args = 0
 1638 0000 80B5     		push	{r7, lr}
 1639              	.LCFI24:
 1640              		.cfi_def_cfa_offset 8
 1641              		.cfi_offset 7, -8
 1642              		.cfi_offset 14, -4
 1643 0002 82B0     		sub	sp, sp, #8
 1644              	.LCFI25:
 1645              		.cfi_def_cfa_offset 16
 1646 0004 00AF     		add	r7, sp, #0
 1647              	.LCFI26:
 1648              		.cfi_def_cfa_register 7
 1649 0006 7860     		str	r0, [r7, #4]
 1650 0008 0B46     		mov	r3, r1
 1651 000a FB70     		strb	r3, [r7, #3]
 506:App/STM32F4-Discovery/Libraries/STM32F4xx_StdPeriph_Driver/src/stm32f4xx_fsmc.c ****   assert_param(IS_FSMC_NAND_BANK(FSMC_Bank));
 1652              		.loc 1 506 0
 1653 000c 7B68     		ldr	r3, [r7, #4]
 1654 000e 102B     		cmp	r3, #16
 1655 0010 08D0     		beq	.L90
 1656              		.loc 1 506 0 is_stmt 0 discriminator 1
 1657 0012 7B68     		ldr	r3, [r7, #4]
 1658 0014 B3F5807F 		cmp	r3, #256
 1659 0018 04D0     		beq	.L90
 1660 001a 1B48     		ldr	r0, .L97
 1661 001c 4FF4FD71 		mov	r1, #506
 1662 0020 FFF7FEFF 		bl	assert_failed
 1663              	.L90:
 507:App/STM32F4-Discovery/Libraries/STM32F4xx_StdPeriph_Driver/src/stm32f4xx_fsmc.c ****   assert_param(IS_FUNCTIONAL_STATE(NewState));
 1664              		.loc 1 507 0 is_stmt 1
 1665 0024 FB78     		ldrb	r3, [r7, #3]	@ zero_extendqisi2
 1666 0026 002B     		cmp	r3, #0
 1667 0028 07D0     		beq	.L91
 1668              		.loc 1 507 0 is_stmt 0 discriminator 1
 1669 002a FB78     		ldrb	r3, [r7, #3]	@ zero_extendqisi2
 1670 002c 012B     		cmp	r3, #1
 1671 002e 04D0     		beq	.L91
 1672 0030 1548     		ldr	r0, .L97
 1673 0032 40F2FB11 		movw	r1, #507
 1674 0036 FFF7FEFF 		bl	assert_failed
 1675              	.L91:
 508:App/STM32F4-Discovery/Libraries/STM32F4xx_StdPeriph_Driver/src/stm32f4xx_fsmc.c ****   
 509:App/STM32F4-Discovery/Libraries/STM32F4xx_StdPeriph_Driver/src/stm32f4xx_fsmc.c ****   if (NewState != DISABLE)
 1676              		.loc 1 509 0 is_stmt 1
 1677 003a FB78     		ldrb	r3, [r7, #3]	@ zero_extendqisi2
 1678 003c 002B     		cmp	r3, #0
 1679 003e 10D0     		beq	.L92
 510:App/STM32F4-Discovery/Libraries/STM32F4xx_StdPeriph_Driver/src/stm32f4xx_fsmc.c ****   {
 511:App/STM32F4-Discovery/Libraries/STM32F4xx_StdPeriph_Driver/src/stm32f4xx_fsmc.c ****     /* Enable the selected NAND Bank ECC function by setting the ECCEN bit in the PCRx register */
 512:App/STM32F4-Discovery/Libraries/STM32F4xx_StdPeriph_Driver/src/stm32f4xx_fsmc.c ****     if(FSMC_Bank == FSMC_Bank2_NAND)
 1680              		.loc 1 512 0
 1681 0040 7B68     		ldr	r3, [r7, #4]
 1682 0042 102B     		cmp	r3, #16
 1683 0044 06D1     		bne	.L93
 513:App/STM32F4-Discovery/Libraries/STM32F4xx_StdPeriph_Driver/src/stm32f4xx_fsmc.c ****     {
 514:App/STM32F4-Discovery/Libraries/STM32F4xx_StdPeriph_Driver/src/stm32f4xx_fsmc.c ****       FSMC_Bank2->PCR2 |= PCR_ECCEN_SET;
 1684              		.loc 1 514 0
 1685 0046 114B     		ldr	r3, .L97+4
 1686 0048 104A     		ldr	r2, .L97+4
 1687 004a 1268     		ldr	r2, [r2]
 1688 004c 42F04002 		orr	r2, r2, #64
 1689 0050 1A60     		str	r2, [r3]
 1690 0052 16E0     		b	.L89
 1691              	.L93:
 515:App/STM32F4-Discovery/Libraries/STM32F4xx_StdPeriph_Driver/src/stm32f4xx_fsmc.c ****     }
 516:App/STM32F4-Discovery/Libraries/STM32F4xx_StdPeriph_Driver/src/stm32f4xx_fsmc.c ****     else
 517:App/STM32F4-Discovery/Libraries/STM32F4xx_StdPeriph_Driver/src/stm32f4xx_fsmc.c ****     {
 518:App/STM32F4-Discovery/Libraries/STM32F4xx_StdPeriph_Driver/src/stm32f4xx_fsmc.c ****       FSMC_Bank3->PCR3 |= PCR_ECCEN_SET;
 1692              		.loc 1 518 0
 1693 0054 0E4B     		ldr	r3, .L97+8
 1694 0056 0E4A     		ldr	r2, .L97+8
 1695 0058 1268     		ldr	r2, [r2]
 1696 005a 42F04002 		orr	r2, r2, #64
 1697 005e 1A60     		str	r2, [r3]
 1698 0060 0FE0     		b	.L89
 1699              	.L92:
 519:App/STM32F4-Discovery/Libraries/STM32F4xx_StdPeriph_Driver/src/stm32f4xx_fsmc.c ****     }
 520:App/STM32F4-Discovery/Libraries/STM32F4xx_StdPeriph_Driver/src/stm32f4xx_fsmc.c ****   }
 521:App/STM32F4-Discovery/Libraries/STM32F4xx_StdPeriph_Driver/src/stm32f4xx_fsmc.c ****   else
 522:App/STM32F4-Discovery/Libraries/STM32F4xx_StdPeriph_Driver/src/stm32f4xx_fsmc.c ****   {
 523:App/STM32F4-Discovery/Libraries/STM32F4xx_StdPeriph_Driver/src/stm32f4xx_fsmc.c ****     /* Disable the selected NAND Bank ECC function by clearing the ECCEN bit in the PCRx register *
 524:App/STM32F4-Discovery/Libraries/STM32F4xx_StdPeriph_Driver/src/stm32f4xx_fsmc.c ****     if(FSMC_Bank == FSMC_Bank2_NAND)
 1700              		.loc 1 524 0
 1701 0062 7B68     		ldr	r3, [r7, #4]
 1702 0064 102B     		cmp	r3, #16
 1703 0066 06D1     		bne	.L96
 525:App/STM32F4-Discovery/Libraries/STM32F4xx_StdPeriph_Driver/src/stm32f4xx_fsmc.c ****     {
 526:App/STM32F4-Discovery/Libraries/STM32F4xx_StdPeriph_Driver/src/stm32f4xx_fsmc.c ****       FSMC_Bank2->PCR2 &= PCR_ECCEN_RESET;
 1704              		.loc 1 526 0
 1705 0068 084A     		ldr	r2, .L97+4
 1706 006a 084B     		ldr	r3, .L97+4
 1707 006c 1968     		ldr	r1, [r3]
 1708 006e 094B     		ldr	r3, .L97+12
 1709 0070 0B40     		ands	r3, r3, r1
 1710 0072 1360     		str	r3, [r2]
 1711 0074 05E0     		b	.L89
 1712              	.L96:
 527:App/STM32F4-Discovery/Libraries/STM32F4xx_StdPeriph_Driver/src/stm32f4xx_fsmc.c ****     }
 528:App/STM32F4-Discovery/Libraries/STM32F4xx_StdPeriph_Driver/src/stm32f4xx_fsmc.c ****     else
 529:App/STM32F4-Discovery/Libraries/STM32F4xx_StdPeriph_Driver/src/stm32f4xx_fsmc.c ****     {
 530:App/STM32F4-Discovery/Libraries/STM32F4xx_StdPeriph_Driver/src/stm32f4xx_fsmc.c ****       FSMC_Bank3->PCR3 &= PCR_ECCEN_RESET;
 1713              		.loc 1 530 0
 1714 0076 064A     		ldr	r2, .L97+8
 1715 0078 054B     		ldr	r3, .L97+8
 1716 007a 1968     		ldr	r1, [r3]
 1717 007c 054B     		ldr	r3, .L97+12
 1718 007e 0B40     		ands	r3, r3, r1
 1719 0080 1360     		str	r3, [r2]
 1720              	.L89:
 531:App/STM32F4-Discovery/Libraries/STM32F4xx_StdPeriph_Driver/src/stm32f4xx_fsmc.c ****     }
 532:App/STM32F4-Discovery/Libraries/STM32F4xx_StdPeriph_Driver/src/stm32f4xx_fsmc.c ****   }
 533:App/STM32F4-Discovery/Libraries/STM32F4xx_StdPeriph_Driver/src/stm32f4xx_fsmc.c **** }
 1721              		.loc 1 533 0
 1722 0082 0837     		adds	r7, r7, #8
 1723 0084 BD46     		mov	sp, r7
 1724              		@ sp needed
 1725 0086 80BD     		pop	{r7, pc}
 1726              	.L98:
 1727              		.align	2
 1728              	.L97:
 1729 0088 00000000 		.word	.LC0
 1730 008c 600000A0 		.word	-1610612640
 1731 0090 800000A0 		.word	-1610612608
 1732 0094 BFFF0F00 		.word	1048511
 1733              		.cfi_endproc
 1734              	.LFE118:
 1736              		.section	.text.FSMC_GetECC,"ax",%progbits
 1737              		.align	2
 1738              		.global	FSMC_GetECC
 1739              		.thumb
 1740              		.thumb_func
 1742              	FSMC_GetECC:
 1743              	.LFB119:
 534:App/STM32F4-Discovery/Libraries/STM32F4xx_StdPeriph_Driver/src/stm32f4xx_fsmc.c **** 
 535:App/STM32F4-Discovery/Libraries/STM32F4xx_StdPeriph_Driver/src/stm32f4xx_fsmc.c **** /**
 536:App/STM32F4-Discovery/Libraries/STM32F4xx_StdPeriph_Driver/src/stm32f4xx_fsmc.c ****   * @brief  Returns the error correction code register value.
 537:App/STM32F4-Discovery/Libraries/STM32F4xx_StdPeriph_Driver/src/stm32f4xx_fsmc.c ****   * @param  FSMC_Bank: specifies the FSMC Bank to be used
 538:App/STM32F4-Discovery/Libraries/STM32F4xx_StdPeriph_Driver/src/stm32f4xx_fsmc.c ****   *          This parameter can be one of the following values:
 539:App/STM32F4-Discovery/Libraries/STM32F4xx_StdPeriph_Driver/src/stm32f4xx_fsmc.c ****   *            @arg FSMC_Bank2_NAND: FSMC Bank2 NAND 
 540:App/STM32F4-Discovery/Libraries/STM32F4xx_StdPeriph_Driver/src/stm32f4xx_fsmc.c ****   *            @arg FSMC_Bank3_NAND: FSMC Bank3 NAND
 541:App/STM32F4-Discovery/Libraries/STM32F4xx_StdPeriph_Driver/src/stm32f4xx_fsmc.c ****   * @retval The Error Correction Code (ECC) value.
 542:App/STM32F4-Discovery/Libraries/STM32F4xx_StdPeriph_Driver/src/stm32f4xx_fsmc.c ****   */
 543:App/STM32F4-Discovery/Libraries/STM32F4xx_StdPeriph_Driver/src/stm32f4xx_fsmc.c **** uint32_t FSMC_GetECC(uint32_t FSMC_Bank)
 544:App/STM32F4-Discovery/Libraries/STM32F4xx_StdPeriph_Driver/src/stm32f4xx_fsmc.c **** {
 1744              		.loc 1 544 0
 1745              		.cfi_startproc
 1746              		@ args = 0, pretend = 0, frame = 16
 1747              		@ frame_needed = 1, uses_anonymous_args = 0
 1748              		@ link register save eliminated.
 1749 0000 80B4     		push	{r7}
 1750              	.LCFI27:
 1751              		.cfi_def_cfa_offset 4
 1752              		.cfi_offset 7, -4
 1753 0002 85B0     		sub	sp, sp, #20
 1754              	.LCFI28:
 1755              		.cfi_def_cfa_offset 24
 1756 0004 00AF     		add	r7, sp, #0
 1757              	.LCFI29:
 1758              		.cfi_def_cfa_register 7
 1759 0006 7860     		str	r0, [r7, #4]
 545:App/STM32F4-Discovery/Libraries/STM32F4xx_StdPeriph_Driver/src/stm32f4xx_fsmc.c ****   uint32_t eccval = 0x00000000;
 1760              		.loc 1 545 0
 1761 0008 0023     		movs	r3, #0
 1762 000a FB60     		str	r3, [r7, #12]
 546:App/STM32F4-Discovery/Libraries/STM32F4xx_StdPeriph_Driver/src/stm32f4xx_fsmc.c ****   
 547:App/STM32F4-Discovery/Libraries/STM32F4xx_StdPeriph_Driver/src/stm32f4xx_fsmc.c ****   if(FSMC_Bank == FSMC_Bank2_NAND)
 1763              		.loc 1 547 0
 1764 000c 7B68     		ldr	r3, [r7, #4]
 1765 000e 102B     		cmp	r3, #16
 1766 0010 03D1     		bne	.L100
 548:App/STM32F4-Discovery/Libraries/STM32F4xx_StdPeriph_Driver/src/stm32f4xx_fsmc.c ****   {
 549:App/STM32F4-Discovery/Libraries/STM32F4xx_StdPeriph_Driver/src/stm32f4xx_fsmc.c ****     /* Get the ECCR2 register value */
 550:App/STM32F4-Discovery/Libraries/STM32F4xx_StdPeriph_Driver/src/stm32f4xx_fsmc.c ****     eccval = FSMC_Bank2->ECCR2;
 1767              		.loc 1 550 0
 1768 0012 074B     		ldr	r3, .L103
 1769 0014 5B69     		ldr	r3, [r3, #20]
 1770 0016 FB60     		str	r3, [r7, #12]
 1771 0018 02E0     		b	.L101
 1772              	.L100:
 551:App/STM32F4-Discovery/Libraries/STM32F4xx_StdPeriph_Driver/src/stm32f4xx_fsmc.c ****   }
 552:App/STM32F4-Discovery/Libraries/STM32F4xx_StdPeriph_Driver/src/stm32f4xx_fsmc.c ****   else
 553:App/STM32F4-Discovery/Libraries/STM32F4xx_StdPeriph_Driver/src/stm32f4xx_fsmc.c ****   {
 554:App/STM32F4-Discovery/Libraries/STM32F4xx_StdPeriph_Driver/src/stm32f4xx_fsmc.c ****     /* Get the ECCR3 register value */
 555:App/STM32F4-Discovery/Libraries/STM32F4xx_StdPeriph_Driver/src/stm32f4xx_fsmc.c ****     eccval = FSMC_Bank3->ECCR3;
 1773              		.loc 1 555 0
 1774 001a 064B     		ldr	r3, .L103+4
 1775 001c 5B69     		ldr	r3, [r3, #20]
 1776 001e FB60     		str	r3, [r7, #12]
 1777              	.L101:
 556:App/STM32F4-Discovery/Libraries/STM32F4xx_StdPeriph_Driver/src/stm32f4xx_fsmc.c ****   }
 557:App/STM32F4-Discovery/Libraries/STM32F4xx_StdPeriph_Driver/src/stm32f4xx_fsmc.c ****   /* Return the error correction code value */
 558:App/STM32F4-Discovery/Libraries/STM32F4xx_StdPeriph_Driver/src/stm32f4xx_fsmc.c ****   return(eccval);
 1778              		.loc 1 558 0
 1779 0020 FB68     		ldr	r3, [r7, #12]
 559:App/STM32F4-Discovery/Libraries/STM32F4xx_StdPeriph_Driver/src/stm32f4xx_fsmc.c **** }
 1780              		.loc 1 559 0
 1781 0022 1846     		mov	r0, r3
 1782 0024 1437     		adds	r7, r7, #20
 1783 0026 BD46     		mov	sp, r7
 1784              		@ sp needed
 1785 0028 5DF8047B 		ldr	r7, [sp], #4
 1786 002c 7047     		bx	lr
 1787              	.L104:
 1788 002e 00BF     		.align	2
 1789              	.L103:
 1790 0030 600000A0 		.word	-1610612640
 1791 0034 800000A0 		.word	-1610612608
 1792              		.cfi_endproc
 1793              	.LFE119:
 1795              		.section	.text.FSMC_PCCARDDeInit,"ax",%progbits
 1796              		.align	2
 1797              		.global	FSMC_PCCARDDeInit
 1798              		.thumb
 1799              		.thumb_func
 1801              	FSMC_PCCARDDeInit:
 1802              	.LFB120:
 560:App/STM32F4-Discovery/Libraries/STM32F4xx_StdPeriph_Driver/src/stm32f4xx_fsmc.c **** /**
 561:App/STM32F4-Discovery/Libraries/STM32F4xx_StdPeriph_Driver/src/stm32f4xx_fsmc.c ****   * @}
 562:App/STM32F4-Discovery/Libraries/STM32F4xx_StdPeriph_Driver/src/stm32f4xx_fsmc.c ****   */
 563:App/STM32F4-Discovery/Libraries/STM32F4xx_StdPeriph_Driver/src/stm32f4xx_fsmc.c **** 
 564:App/STM32F4-Discovery/Libraries/STM32F4xx_StdPeriph_Driver/src/stm32f4xx_fsmc.c **** /** @defgroup FSMC_Group3 PCCARD Controller functions
 565:App/STM32F4-Discovery/Libraries/STM32F4xx_StdPeriph_Driver/src/stm32f4xx_fsmc.c ****  *  @brief   PCCARD Controller functions 
 566:App/STM32F4-Discovery/Libraries/STM32F4xx_StdPeriph_Driver/src/stm32f4xx_fsmc.c ****  *
 567:App/STM32F4-Discovery/Libraries/STM32F4xx_StdPeriph_Driver/src/stm32f4xx_fsmc.c **** @verbatim   
 568:App/STM32F4-Discovery/Libraries/STM32F4xx_StdPeriph_Driver/src/stm32f4xx_fsmc.c ****  ===============================================================================
 569:App/STM32F4-Discovery/Libraries/STM32F4xx_StdPeriph_Driver/src/stm32f4xx_fsmc.c ****                     PCCARD Controller functions
 570:App/STM32F4-Discovery/Libraries/STM32F4xx_StdPeriph_Driver/src/stm32f4xx_fsmc.c ****  ===============================================================================  
 571:App/STM32F4-Discovery/Libraries/STM32F4xx_StdPeriph_Driver/src/stm32f4xx_fsmc.c **** 
 572:App/STM32F4-Discovery/Libraries/STM32F4xx_StdPeriph_Driver/src/stm32f4xx_fsmc.c ****  The following sequence should be followed to configure the FSMC to interface with
 573:App/STM32F4-Discovery/Libraries/STM32F4xx_StdPeriph_Driver/src/stm32f4xx_fsmc.c ****  16-bit PC Card compatible memory connected to the PCCARD Bank:
 574:App/STM32F4-Discovery/Libraries/STM32F4xx_StdPeriph_Driver/src/stm32f4xx_fsmc.c ****  
 575:App/STM32F4-Discovery/Libraries/STM32F4xx_StdPeriph_Driver/src/stm32f4xx_fsmc.c ****    1. Enable the clock for the FSMC and associated GPIOs using the following functions:
 576:App/STM32F4-Discovery/Libraries/STM32F4xx_StdPeriph_Driver/src/stm32f4xx_fsmc.c ****           RCC_AHB3PeriphClockCmd(RCC_AHB3Periph_FSMC, ENABLE);
 577:App/STM32F4-Discovery/Libraries/STM32F4xx_StdPeriph_Driver/src/stm32f4xx_fsmc.c ****           RCC_AHB1PeriphClockCmd(RCC_AHB1Periph_GPIOx, ENABLE);
 578:App/STM32F4-Discovery/Libraries/STM32F4xx_StdPeriph_Driver/src/stm32f4xx_fsmc.c **** 
 579:App/STM32F4-Discovery/Libraries/STM32F4xx_StdPeriph_Driver/src/stm32f4xx_fsmc.c ****    2. FSMC pins configuration 
 580:App/STM32F4-Discovery/Libraries/STM32F4xx_StdPeriph_Driver/src/stm32f4xx_fsmc.c ****        - Connect the involved FSMC pins to AF12 using the following function 
 581:App/STM32F4-Discovery/Libraries/STM32F4xx_StdPeriph_Driver/src/stm32f4xx_fsmc.c ****           GPIO_PinAFConfig(GPIOx, GPIO_PinSourcex, GPIO_AF_FSMC); 
 582:App/STM32F4-Discovery/Libraries/STM32F4xx_StdPeriph_Driver/src/stm32f4xx_fsmc.c ****        - Configure these FSMC pins in alternate function mode by calling the function
 583:App/STM32F4-Discovery/Libraries/STM32F4xx_StdPeriph_Driver/src/stm32f4xx_fsmc.c ****           GPIO_Init();    
 584:App/STM32F4-Discovery/Libraries/STM32F4xx_StdPeriph_Driver/src/stm32f4xx_fsmc.c ****        
 585:App/STM32F4-Discovery/Libraries/STM32F4xx_StdPeriph_Driver/src/stm32f4xx_fsmc.c ****    3. Declare a FSMC_PCCARDInitTypeDef structure, for example:
 586:App/STM32F4-Discovery/Libraries/STM32F4xx_StdPeriph_Driver/src/stm32f4xx_fsmc.c ****           FSMC_PCCARDInitTypeDef  FSMC_PCCARDInitStructure;
 587:App/STM32F4-Discovery/Libraries/STM32F4xx_StdPeriph_Driver/src/stm32f4xx_fsmc.c ****       and fill the FSMC_PCCARDInitStructure variable with the allowed values of
 588:App/STM32F4-Discovery/Libraries/STM32F4xx_StdPeriph_Driver/src/stm32f4xx_fsmc.c ****       the structure member.
 589:App/STM32F4-Discovery/Libraries/STM32F4xx_StdPeriph_Driver/src/stm32f4xx_fsmc.c ****       
 590:App/STM32F4-Discovery/Libraries/STM32F4xx_StdPeriph_Driver/src/stm32f4xx_fsmc.c ****    4. Initialize the PCCARD Controller by calling the function
 591:App/STM32F4-Discovery/Libraries/STM32F4xx_StdPeriph_Driver/src/stm32f4xx_fsmc.c ****           FSMC_PCCARDInit(&FSMC_PCCARDInitStructure); 
 592:App/STM32F4-Discovery/Libraries/STM32F4xx_StdPeriph_Driver/src/stm32f4xx_fsmc.c **** 
 593:App/STM32F4-Discovery/Libraries/STM32F4xx_StdPeriph_Driver/src/stm32f4xx_fsmc.c ****    5. Then enable the PCCARD Bank:
 594:App/STM32F4-Discovery/Libraries/STM32F4xx_StdPeriph_Driver/src/stm32f4xx_fsmc.c ****           FSMC_PCCARDCmd(ENABLE);  
 595:App/STM32F4-Discovery/Libraries/STM32F4xx_StdPeriph_Driver/src/stm32f4xx_fsmc.c **** 
 596:App/STM32F4-Discovery/Libraries/STM32F4xx_StdPeriph_Driver/src/stm32f4xx_fsmc.c ****    6. At this stage you can read/write from/to the memory connected to the PCCARD Bank. 
 597:App/STM32F4-Discovery/Libraries/STM32F4xx_StdPeriph_Driver/src/stm32f4xx_fsmc.c ****  
 598:App/STM32F4-Discovery/Libraries/STM32F4xx_StdPeriph_Driver/src/stm32f4xx_fsmc.c **** @endverbatim
 599:App/STM32F4-Discovery/Libraries/STM32F4xx_StdPeriph_Driver/src/stm32f4xx_fsmc.c ****   * @{
 600:App/STM32F4-Discovery/Libraries/STM32F4xx_StdPeriph_Driver/src/stm32f4xx_fsmc.c ****   */
 601:App/STM32F4-Discovery/Libraries/STM32F4xx_StdPeriph_Driver/src/stm32f4xx_fsmc.c **** 
 602:App/STM32F4-Discovery/Libraries/STM32F4xx_StdPeriph_Driver/src/stm32f4xx_fsmc.c **** /**
 603:App/STM32F4-Discovery/Libraries/STM32F4xx_StdPeriph_Driver/src/stm32f4xx_fsmc.c ****   * @brief  Deinitializes the FSMC PCCARD Bank registers to their default reset values.
 604:App/STM32F4-Discovery/Libraries/STM32F4xx_StdPeriph_Driver/src/stm32f4xx_fsmc.c ****   * @param  None                       
 605:App/STM32F4-Discovery/Libraries/STM32F4xx_StdPeriph_Driver/src/stm32f4xx_fsmc.c ****   * @retval None
 606:App/STM32F4-Discovery/Libraries/STM32F4xx_StdPeriph_Driver/src/stm32f4xx_fsmc.c ****   */
 607:App/STM32F4-Discovery/Libraries/STM32F4xx_StdPeriph_Driver/src/stm32f4xx_fsmc.c **** void FSMC_PCCARDDeInit(void)
 608:App/STM32F4-Discovery/Libraries/STM32F4xx_StdPeriph_Driver/src/stm32f4xx_fsmc.c **** {
 1803              		.loc 1 608 0
 1804              		.cfi_startproc
 1805              		@ args = 0, pretend = 0, frame = 0
 1806              		@ frame_needed = 1, uses_anonymous_args = 0
 1807              		@ link register save eliminated.
 1808 0000 80B4     		push	{r7}
 1809              	.LCFI30:
 1810              		.cfi_def_cfa_offset 4
 1811              		.cfi_offset 7, -4
 1812 0002 00AF     		add	r7, sp, #0
 1813              	.LCFI31:
 1814              		.cfi_def_cfa_register 7
 609:App/STM32F4-Discovery/Libraries/STM32F4xx_StdPeriph_Driver/src/stm32f4xx_fsmc.c ****   /* Set the FSMC_Bank4 registers to their reset values */
 610:App/STM32F4-Discovery/Libraries/STM32F4xx_StdPeriph_Driver/src/stm32f4xx_fsmc.c ****   FSMC_Bank4->PCR4 = 0x00000018; 
 1815              		.loc 1 610 0
 1816 0004 0A4B     		ldr	r3, .L106
 1817 0006 1822     		movs	r2, #24
 1818 0008 1A60     		str	r2, [r3]
 611:App/STM32F4-Discovery/Libraries/STM32F4xx_StdPeriph_Driver/src/stm32f4xx_fsmc.c ****   FSMC_Bank4->SR4 = 0x00000000;	
 1819              		.loc 1 611 0
 1820 000a 094B     		ldr	r3, .L106
 1821 000c 0022     		movs	r2, #0
 1822 000e 5A60     		str	r2, [r3, #4]
 612:App/STM32F4-Discovery/Libraries/STM32F4xx_StdPeriph_Driver/src/stm32f4xx_fsmc.c ****   FSMC_Bank4->PMEM4 = 0xFCFCFCFC;
 1823              		.loc 1 612 0
 1824 0010 074B     		ldr	r3, .L106
 1825 0012 4FF0FC32 		mov	r2, #-50529028
 1826 0016 9A60     		str	r2, [r3, #8]
 613:App/STM32F4-Discovery/Libraries/STM32F4xx_StdPeriph_Driver/src/stm32f4xx_fsmc.c ****   FSMC_Bank4->PATT4 = 0xFCFCFCFC;
 1827              		.loc 1 613 0
 1828 0018 054B     		ldr	r3, .L106
 1829 001a 4FF0FC32 		mov	r2, #-50529028
 1830 001e DA60     		str	r2, [r3, #12]
 614:App/STM32F4-Discovery/Libraries/STM32F4xx_StdPeriph_Driver/src/stm32f4xx_fsmc.c ****   FSMC_Bank4->PIO4 = 0xFCFCFCFC;
 1831              		.loc 1 614 0
 1832 0020 034B     		ldr	r3, .L106
 1833 0022 4FF0FC32 		mov	r2, #-50529028
 1834 0026 1A61     		str	r2, [r3, #16]
 615:App/STM32F4-Discovery/Libraries/STM32F4xx_StdPeriph_Driver/src/stm32f4xx_fsmc.c **** }
 1835              		.loc 1 615 0
 1836 0028 BD46     		mov	sp, r7
 1837              		@ sp needed
 1838 002a 5DF8047B 		ldr	r7, [sp], #4
 1839 002e 7047     		bx	lr
 1840              	.L107:
 1841              		.align	2
 1842              	.L106:
 1843 0030 A00000A0 		.word	-1610612576
 1844              		.cfi_endproc
 1845              	.LFE120:
 1847              		.section	.text.FSMC_PCCARDInit,"ax",%progbits
 1848              		.align	2
 1849              		.global	FSMC_PCCARDInit
 1850              		.thumb
 1851              		.thumb_func
 1853              	FSMC_PCCARDInit:
 1854              	.LFB121:
 616:App/STM32F4-Discovery/Libraries/STM32F4xx_StdPeriph_Driver/src/stm32f4xx_fsmc.c **** 
 617:App/STM32F4-Discovery/Libraries/STM32F4xx_StdPeriph_Driver/src/stm32f4xx_fsmc.c **** /**
 618:App/STM32F4-Discovery/Libraries/STM32F4xx_StdPeriph_Driver/src/stm32f4xx_fsmc.c ****   * @brief  Initializes the FSMC PCCARD Bank according to the specified parameters
 619:App/STM32F4-Discovery/Libraries/STM32F4xx_StdPeriph_Driver/src/stm32f4xx_fsmc.c ****   *         in the FSMC_PCCARDInitStruct.
 620:App/STM32F4-Discovery/Libraries/STM32F4xx_StdPeriph_Driver/src/stm32f4xx_fsmc.c ****   * @param  FSMC_PCCARDInitStruct : pointer to a FSMC_PCCARDInitTypeDef structure
 621:App/STM32F4-Discovery/Libraries/STM32F4xx_StdPeriph_Driver/src/stm32f4xx_fsmc.c ****   *         that contains the configuration information for the FSMC PCCARD Bank.                  
 622:App/STM32F4-Discovery/Libraries/STM32F4xx_StdPeriph_Driver/src/stm32f4xx_fsmc.c ****   * @retval None
 623:App/STM32F4-Discovery/Libraries/STM32F4xx_StdPeriph_Driver/src/stm32f4xx_fsmc.c ****   */
 624:App/STM32F4-Discovery/Libraries/STM32F4xx_StdPeriph_Driver/src/stm32f4xx_fsmc.c **** void FSMC_PCCARDInit(FSMC_PCCARDInitTypeDef* FSMC_PCCARDInitStruct)
 625:App/STM32F4-Discovery/Libraries/STM32F4xx_StdPeriph_Driver/src/stm32f4xx_fsmc.c **** {
 1855              		.loc 1 625 0
 1856              		.cfi_startproc
 1857              		@ args = 0, pretend = 0, frame = 8
 1858              		@ frame_needed = 1, uses_anonymous_args = 0
 1859 0000 80B5     		push	{r7, lr}
 1860              	.LCFI32:
 1861              		.cfi_def_cfa_offset 8
 1862              		.cfi_offset 7, -8
 1863              		.cfi_offset 14, -4
 1864 0002 82B0     		sub	sp, sp, #8
 1865              	.LCFI33:
 1866              		.cfi_def_cfa_offset 16
 1867 0004 00AF     		add	r7, sp, #0
 1868              	.LCFI34:
 1869              		.cfi_def_cfa_register 7
 1870 0006 7860     		str	r0, [r7, #4]
 626:App/STM32F4-Discovery/Libraries/STM32F4xx_StdPeriph_Driver/src/stm32f4xx_fsmc.c ****   /* Check the parameters */
 627:App/STM32F4-Discovery/Libraries/STM32F4xx_StdPeriph_Driver/src/stm32f4xx_fsmc.c ****   assert_param(IS_FSMC_WAIT_FEATURE(FSMC_PCCARDInitStruct->FSMC_Waitfeature));
 1871              		.loc 1 627 0
 1872 0008 7B68     		ldr	r3, [r7, #4]
 1873 000a 1B68     		ldr	r3, [r3]
 1874 000c 002B     		cmp	r3, #0
 1875 000e 08D0     		beq	.L109
 1876              		.loc 1 627 0 is_stmt 0 discriminator 1
 1877 0010 7B68     		ldr	r3, [r7, #4]
 1878 0012 1B68     		ldr	r3, [r3]
 1879 0014 022B     		cmp	r3, #2
 1880 0016 04D0     		beq	.L109
 1881 0018 6D48     		ldr	r0, .L124
 1882 001a 40F27321 		movw	r1, #627
 1883 001e FFF7FEFF 		bl	assert_failed
 1884              	.L109:
 628:App/STM32F4-Discovery/Libraries/STM32F4xx_StdPeriph_Driver/src/stm32f4xx_fsmc.c ****   assert_param(IS_FSMC_TCLR_TIME(FSMC_PCCARDInitStruct->FSMC_TCLRSetupTime));
 1885              		.loc 1 628 0 is_stmt 1
 1886 0022 7B68     		ldr	r3, [r7, #4]
 1887 0024 5B68     		ldr	r3, [r3, #4]
 1888 0026 FF2B     		cmp	r3, #255
 1889 0028 04D9     		bls	.L110
 1890              		.loc 1 628 0 is_stmt 0 discriminator 1
 1891 002a 6948     		ldr	r0, .L124
 1892 002c 4FF41D71 		mov	r1, #628
 1893 0030 FFF7FEFF 		bl	assert_failed
 1894              	.L110:
 629:App/STM32F4-Discovery/Libraries/STM32F4xx_StdPeriph_Driver/src/stm32f4xx_fsmc.c ****   assert_param(IS_FSMC_TAR_TIME(FSMC_PCCARDInitStruct->FSMC_TARSetupTime));
 1895              		.loc 1 629 0 is_stmt 1
 1896 0034 7B68     		ldr	r3, [r7, #4]
 1897 0036 9B68     		ldr	r3, [r3, #8]
 1898 0038 FF2B     		cmp	r3, #255
 1899 003a 04D9     		bls	.L111
 1900              		.loc 1 629 0 is_stmt 0 discriminator 1
 1901 003c 6448     		ldr	r0, .L124
 1902 003e 40F27521 		movw	r1, #629
 1903 0042 FFF7FEFF 		bl	assert_failed
 1904              	.L111:
 630:App/STM32F4-Discovery/Libraries/STM32F4xx_StdPeriph_Driver/src/stm32f4xx_fsmc.c ****  
 631:App/STM32F4-Discovery/Libraries/STM32F4xx_StdPeriph_Driver/src/stm32f4xx_fsmc.c ****   assert_param(IS_FSMC_SETUP_TIME(FSMC_PCCARDInitStruct->FSMC_CommonSpaceTimingStruct->FSMC_SetupTi
 1905              		.loc 1 631 0 is_stmt 1
 1906 0046 7B68     		ldr	r3, [r7, #4]
 1907 0048 DB68     		ldr	r3, [r3, #12]
 1908 004a 1B68     		ldr	r3, [r3]
 1909 004c FF2B     		cmp	r3, #255
 1910 004e 04D9     		bls	.L112
 1911              		.loc 1 631 0 is_stmt 0 discriminator 1
 1912 0050 5F48     		ldr	r0, .L124
 1913 0052 40F27721 		movw	r1, #631
 1914 0056 FFF7FEFF 		bl	assert_failed
 1915              	.L112:
 632:App/STM32F4-Discovery/Libraries/STM32F4xx_StdPeriph_Driver/src/stm32f4xx_fsmc.c ****   assert_param(IS_FSMC_WAIT_TIME(FSMC_PCCARDInitStruct->FSMC_CommonSpaceTimingStruct->FSMC_WaitSetu
 1916              		.loc 1 632 0 is_stmt 1
 1917 005a 7B68     		ldr	r3, [r7, #4]
 1918 005c DB68     		ldr	r3, [r3, #12]
 1919 005e 5B68     		ldr	r3, [r3, #4]
 1920 0060 FF2B     		cmp	r3, #255
 1921 0062 04D9     		bls	.L113
 1922              		.loc 1 632 0 is_stmt 0 discriminator 1
 1923 0064 5A48     		ldr	r0, .L124
 1924 0066 4FF41E71 		mov	r1, #632
 1925 006a FFF7FEFF 		bl	assert_failed
 1926              	.L113:
 633:App/STM32F4-Discovery/Libraries/STM32F4xx_StdPeriph_Driver/src/stm32f4xx_fsmc.c ****   assert_param(IS_FSMC_HOLD_TIME(FSMC_PCCARDInitStruct->FSMC_CommonSpaceTimingStruct->FSMC_HoldSetu
 1927              		.loc 1 633 0 is_stmt 1
 1928 006e 7B68     		ldr	r3, [r7, #4]
 1929 0070 DB68     		ldr	r3, [r3, #12]
 1930 0072 9B68     		ldr	r3, [r3, #8]
 1931 0074 FF2B     		cmp	r3, #255
 1932 0076 04D9     		bls	.L114
 1933              		.loc 1 633 0 is_stmt 0 discriminator 1
 1934 0078 5548     		ldr	r0, .L124
 1935 007a 40F27921 		movw	r1, #633
 1936 007e FFF7FEFF 		bl	assert_failed
 1937              	.L114:
 634:App/STM32F4-Discovery/Libraries/STM32F4xx_StdPeriph_Driver/src/stm32f4xx_fsmc.c ****   assert_param(IS_FSMC_HIZ_TIME(FSMC_PCCARDInitStruct->FSMC_CommonSpaceTimingStruct->FSMC_HiZSetupT
 1938              		.loc 1 634 0 is_stmt 1
 1939 0082 7B68     		ldr	r3, [r7, #4]
 1940 0084 DB68     		ldr	r3, [r3, #12]
 1941 0086 DB68     		ldr	r3, [r3, #12]
 1942 0088 FF2B     		cmp	r3, #255
 1943 008a 04D9     		bls	.L115
 1944              		.loc 1 634 0 is_stmt 0 discriminator 1
 1945 008c 5048     		ldr	r0, .L124
 1946 008e 40F27A21 		movw	r1, #634
 1947 0092 FFF7FEFF 		bl	assert_failed
 1948              	.L115:
 635:App/STM32F4-Discovery/Libraries/STM32F4xx_StdPeriph_Driver/src/stm32f4xx_fsmc.c ****   
 636:App/STM32F4-Discovery/Libraries/STM32F4xx_StdPeriph_Driver/src/stm32f4xx_fsmc.c ****   assert_param(IS_FSMC_SETUP_TIME(FSMC_PCCARDInitStruct->FSMC_AttributeSpaceTimingStruct->FSMC_Setu
 1949              		.loc 1 636 0 is_stmt 1
 1950 0096 7B68     		ldr	r3, [r7, #4]
 1951 0098 1B69     		ldr	r3, [r3, #16]
 1952 009a 1B68     		ldr	r3, [r3]
 1953 009c FF2B     		cmp	r3, #255
 1954 009e 04D9     		bls	.L116
 1955              		.loc 1 636 0 is_stmt 0 discriminator 1
 1956 00a0 4B48     		ldr	r0, .L124
 1957 00a2 4FF41F71 		mov	r1, #636
 1958 00a6 FFF7FEFF 		bl	assert_failed
 1959              	.L116:
 637:App/STM32F4-Discovery/Libraries/STM32F4xx_StdPeriph_Driver/src/stm32f4xx_fsmc.c ****   assert_param(IS_FSMC_WAIT_TIME(FSMC_PCCARDInitStruct->FSMC_AttributeSpaceTimingStruct->FSMC_WaitS
 1960              		.loc 1 637 0 is_stmt 1
 1961 00aa 7B68     		ldr	r3, [r7, #4]
 1962 00ac 1B69     		ldr	r3, [r3, #16]
 1963 00ae 5B68     		ldr	r3, [r3, #4]
 1964 00b0 FF2B     		cmp	r3, #255
 1965 00b2 04D9     		bls	.L117
 1966              		.loc 1 637 0 is_stmt 0 discriminator 1
 1967 00b4 4648     		ldr	r0, .L124
 1968 00b6 40F27D21 		movw	r1, #637
 1969 00ba FFF7FEFF 		bl	assert_failed
 1970              	.L117:
 638:App/STM32F4-Discovery/Libraries/STM32F4xx_StdPeriph_Driver/src/stm32f4xx_fsmc.c ****   assert_param(IS_FSMC_HOLD_TIME(FSMC_PCCARDInitStruct->FSMC_AttributeSpaceTimingStruct->FSMC_HoldS
 1971              		.loc 1 638 0 is_stmt 1
 1972 00be 7B68     		ldr	r3, [r7, #4]
 1973 00c0 1B69     		ldr	r3, [r3, #16]
 1974 00c2 9B68     		ldr	r3, [r3, #8]
 1975 00c4 FF2B     		cmp	r3, #255
 1976 00c6 04D9     		bls	.L118
 1977              		.loc 1 638 0 is_stmt 0 discriminator 1
 1978 00c8 4148     		ldr	r0, .L124
 1979 00ca 40F27E21 		movw	r1, #638
 1980 00ce FFF7FEFF 		bl	assert_failed
 1981              	.L118:
 639:App/STM32F4-Discovery/Libraries/STM32F4xx_StdPeriph_Driver/src/stm32f4xx_fsmc.c ****   assert_param(IS_FSMC_HIZ_TIME(FSMC_PCCARDInitStruct->FSMC_AttributeSpaceTimingStruct->FSMC_HiZSet
 1982              		.loc 1 639 0 is_stmt 1
 1983 00d2 7B68     		ldr	r3, [r7, #4]
 1984 00d4 1B69     		ldr	r3, [r3, #16]
 1985 00d6 DB68     		ldr	r3, [r3, #12]
 1986 00d8 FF2B     		cmp	r3, #255
 1987 00da 04D9     		bls	.L119
 1988              		.loc 1 639 0 is_stmt 0 discriminator 1
 1989 00dc 3C48     		ldr	r0, .L124
 1990 00de 40F27F21 		movw	r1, #639
 1991 00e2 FFF7FEFF 		bl	assert_failed
 1992              	.L119:
 640:App/STM32F4-Discovery/Libraries/STM32F4xx_StdPeriph_Driver/src/stm32f4xx_fsmc.c ****   assert_param(IS_FSMC_SETUP_TIME(FSMC_PCCARDInitStruct->FSMC_IOSpaceTimingStruct->FSMC_SetupTime))
 1993              		.loc 1 640 0 is_stmt 1
 1994 00e6 7B68     		ldr	r3, [r7, #4]
 1995 00e8 5B69     		ldr	r3, [r3, #20]
 1996 00ea 1B68     		ldr	r3, [r3]
 1997 00ec FF2B     		cmp	r3, #255
 1998 00ee 04D9     		bls	.L120
 1999              		.loc 1 640 0 is_stmt 0 discriminator 1
 2000 00f0 3748     		ldr	r0, .L124
 2001 00f2 4FF42071 		mov	r1, #640
 2002 00f6 FFF7FEFF 		bl	assert_failed
 2003              	.L120:
 641:App/STM32F4-Discovery/Libraries/STM32F4xx_StdPeriph_Driver/src/stm32f4xx_fsmc.c ****   assert_param(IS_FSMC_WAIT_TIME(FSMC_PCCARDInitStruct->FSMC_IOSpaceTimingStruct->FSMC_WaitSetupTim
 2004              		.loc 1 641 0 is_stmt 1
 2005 00fa 7B68     		ldr	r3, [r7, #4]
 2006 00fc 5B69     		ldr	r3, [r3, #20]
 2007 00fe 5B68     		ldr	r3, [r3, #4]
 2008 0100 FF2B     		cmp	r3, #255
 2009 0102 04D9     		bls	.L121
 2010              		.loc 1 641 0 is_stmt 0 discriminator 1
 2011 0104 3248     		ldr	r0, .L124
 2012 0106 40F28121 		movw	r1, #641
 2013 010a FFF7FEFF 		bl	assert_failed
 2014              	.L121:
 642:App/STM32F4-Discovery/Libraries/STM32F4xx_StdPeriph_Driver/src/stm32f4xx_fsmc.c ****   assert_param(IS_FSMC_HOLD_TIME(FSMC_PCCARDInitStruct->FSMC_IOSpaceTimingStruct->FSMC_HoldSetupTim
 2015              		.loc 1 642 0 is_stmt 1
 2016 010e 7B68     		ldr	r3, [r7, #4]
 2017 0110 5B69     		ldr	r3, [r3, #20]
 2018 0112 9B68     		ldr	r3, [r3, #8]
 2019 0114 FF2B     		cmp	r3, #255
 2020 0116 04D9     		bls	.L122
 2021              		.loc 1 642 0 is_stmt 0 discriminator 1
 2022 0118 2D48     		ldr	r0, .L124
 2023 011a 40F28221 		movw	r1, #642
 2024 011e FFF7FEFF 		bl	assert_failed
 2025              	.L122:
 643:App/STM32F4-Discovery/Libraries/STM32F4xx_StdPeriph_Driver/src/stm32f4xx_fsmc.c ****   assert_param(IS_FSMC_HIZ_TIME(FSMC_PCCARDInitStruct->FSMC_IOSpaceTimingStruct->FSMC_HiZSetupTime)
 2026              		.loc 1 643 0 is_stmt 1
 2027 0122 7B68     		ldr	r3, [r7, #4]
 2028 0124 5B69     		ldr	r3, [r3, #20]
 2029 0126 DB68     		ldr	r3, [r3, #12]
 2030 0128 FF2B     		cmp	r3, #255
 2031 012a 04D9     		bls	.L123
 2032              		.loc 1 643 0 is_stmt 0 discriminator 1
 2033 012c 2848     		ldr	r0, .L124
 2034 012e 40F28321 		movw	r1, #643
 2035 0132 FFF7FEFF 		bl	assert_failed
 2036              	.L123:
 644:App/STM32F4-Discovery/Libraries/STM32F4xx_StdPeriph_Driver/src/stm32f4xx_fsmc.c ****   
 645:App/STM32F4-Discovery/Libraries/STM32F4xx_StdPeriph_Driver/src/stm32f4xx_fsmc.c ****   /* Set the PCR4 register value according to FSMC_PCCARDInitStruct parameters */
 646:App/STM32F4-Discovery/Libraries/STM32F4xx_StdPeriph_Driver/src/stm32f4xx_fsmc.c ****   FSMC_Bank4->PCR4 = (uint32_t)FSMC_PCCARDInitStruct->FSMC_Waitfeature |
 2037              		.loc 1 646 0 is_stmt 1
 2038 0136 274B     		ldr	r3, .L124+4
 2039 0138 7A68     		ldr	r2, [r7, #4]
 2040 013a 1168     		ldr	r1, [r2]
 647:App/STM32F4-Discovery/Libraries/STM32F4xx_StdPeriph_Driver/src/stm32f4xx_fsmc.c ****                      FSMC_MemoryDataWidth_16b |  
 648:App/STM32F4-Discovery/Libraries/STM32F4xx_StdPeriph_Driver/src/stm32f4xx_fsmc.c ****                      (FSMC_PCCARDInitStruct->FSMC_TCLRSetupTime << 9) |
 2041              		.loc 1 648 0
 2042 013c 7A68     		ldr	r2, [r7, #4]
 2043 013e 5268     		ldr	r2, [r2, #4]
 2044 0140 5202     		lsls	r2, r2, #9
 647:App/STM32F4-Discovery/Libraries/STM32F4xx_StdPeriph_Driver/src/stm32f4xx_fsmc.c ****                      FSMC_MemoryDataWidth_16b |  
 2045              		.loc 1 647 0
 2046 0142 1143     		orrs	r1, r1, r2
 649:App/STM32F4-Discovery/Libraries/STM32F4xx_StdPeriph_Driver/src/stm32f4xx_fsmc.c ****                      (FSMC_PCCARDInitStruct->FSMC_TARSetupTime << 13);
 2047              		.loc 1 649 0
 2048 0144 7A68     		ldr	r2, [r7, #4]
 2049 0146 9268     		ldr	r2, [r2, #8]
 2050 0148 5203     		lsls	r2, r2, #13
 648:App/STM32F4-Discovery/Libraries/STM32F4xx_StdPeriph_Driver/src/stm32f4xx_fsmc.c ****                      (FSMC_PCCARDInitStruct->FSMC_TCLRSetupTime << 9) |
 2051              		.loc 1 648 0
 2052 014a 0A43     		orrs	r2, r2, r1
 2053 014c 42F01002 		orr	r2, r2, #16
 646:App/STM32F4-Discovery/Libraries/STM32F4xx_StdPeriph_Driver/src/stm32f4xx_fsmc.c ****   FSMC_Bank4->PCR4 = (uint32_t)FSMC_PCCARDInitStruct->FSMC_Waitfeature |
 2054              		.loc 1 646 0
 2055 0150 1A60     		str	r2, [r3]
 650:App/STM32F4-Discovery/Libraries/STM32F4xx_StdPeriph_Driver/src/stm32f4xx_fsmc.c ****             
 651:App/STM32F4-Discovery/Libraries/STM32F4xx_StdPeriph_Driver/src/stm32f4xx_fsmc.c ****   /* Set PMEM4 register value according to FSMC_CommonSpaceTimingStructure parameters */
 652:App/STM32F4-Discovery/Libraries/STM32F4xx_StdPeriph_Driver/src/stm32f4xx_fsmc.c ****   FSMC_Bank4->PMEM4 = (uint32_t)FSMC_PCCARDInitStruct->FSMC_CommonSpaceTimingStruct->FSMC_SetupTime
 2056              		.loc 1 652 0
 2057 0152 204B     		ldr	r3, .L124+4
 2058 0154 7A68     		ldr	r2, [r7, #4]
 2059 0156 D268     		ldr	r2, [r2, #12]
 2060 0158 1168     		ldr	r1, [r2]
 653:App/STM32F4-Discovery/Libraries/STM32F4xx_StdPeriph_Driver/src/stm32f4xx_fsmc.c ****                       (FSMC_PCCARDInitStruct->FSMC_CommonSpaceTimingStruct->FSMC_WaitSetupTime << 8
 2061              		.loc 1 653 0
 2062 015a 7A68     		ldr	r2, [r7, #4]
 2063 015c D268     		ldr	r2, [r2, #12]
 2064 015e 5268     		ldr	r2, [r2, #4]
 2065 0160 1202     		lsls	r2, r2, #8
 652:App/STM32F4-Discovery/Libraries/STM32F4xx_StdPeriph_Driver/src/stm32f4xx_fsmc.c ****   FSMC_Bank4->PMEM4 = (uint32_t)FSMC_PCCARDInitStruct->FSMC_CommonSpaceTimingStruct->FSMC_SetupTime
 2066              		.loc 1 652 0
 2067 0162 1143     		orrs	r1, r1, r2
 654:App/STM32F4-Discovery/Libraries/STM32F4xx_StdPeriph_Driver/src/stm32f4xx_fsmc.c ****                       (FSMC_PCCARDInitStruct->FSMC_CommonSpaceTimingStruct->FSMC_HoldSetupTime << 1
 2068              		.loc 1 654 0
 2069 0164 7A68     		ldr	r2, [r7, #4]
 2070 0166 D268     		ldr	r2, [r2, #12]
 2071 0168 9268     		ldr	r2, [r2, #8]
 2072 016a 1204     		lsls	r2, r2, #16
 653:App/STM32F4-Discovery/Libraries/STM32F4xx_StdPeriph_Driver/src/stm32f4xx_fsmc.c ****                       (FSMC_PCCARDInitStruct->FSMC_CommonSpaceTimingStruct->FSMC_WaitSetupTime << 8
 2073              		.loc 1 653 0
 2074 016c 1143     		orrs	r1, r1, r2
 655:App/STM32F4-Discovery/Libraries/STM32F4xx_StdPeriph_Driver/src/stm32f4xx_fsmc.c ****                       (FSMC_PCCARDInitStruct->FSMC_CommonSpaceTimingStruct->FSMC_HiZSetupTime << 24
 2075              		.loc 1 655 0
 2076 016e 7A68     		ldr	r2, [r7, #4]
 2077 0170 D268     		ldr	r2, [r2, #12]
 2078 0172 D268     		ldr	r2, [r2, #12]
 2079 0174 1206     		lsls	r2, r2, #24
 654:App/STM32F4-Discovery/Libraries/STM32F4xx_StdPeriph_Driver/src/stm32f4xx_fsmc.c ****                       (FSMC_PCCARDInitStruct->FSMC_CommonSpaceTimingStruct->FSMC_HoldSetupTime << 1
 2080              		.loc 1 654 0
 2081 0176 0A43     		orrs	r2, r2, r1
 652:App/STM32F4-Discovery/Libraries/STM32F4xx_StdPeriph_Driver/src/stm32f4xx_fsmc.c ****   FSMC_Bank4->PMEM4 = (uint32_t)FSMC_PCCARDInitStruct->FSMC_CommonSpaceTimingStruct->FSMC_SetupTime
 2082              		.loc 1 652 0
 2083 0178 9A60     		str	r2, [r3, #8]
 656:App/STM32F4-Discovery/Libraries/STM32F4xx_StdPeriph_Driver/src/stm32f4xx_fsmc.c ****             
 657:App/STM32F4-Discovery/Libraries/STM32F4xx_StdPeriph_Driver/src/stm32f4xx_fsmc.c ****   /* Set PATT4 register value according to FSMC_AttributeSpaceTimingStructure parameters */
 658:App/STM32F4-Discovery/Libraries/STM32F4xx_StdPeriph_Driver/src/stm32f4xx_fsmc.c ****   FSMC_Bank4->PATT4 = (uint32_t)FSMC_PCCARDInitStruct->FSMC_AttributeSpaceTimingStruct->FSMC_SetupT
 2084              		.loc 1 658 0
 2085 017a 164B     		ldr	r3, .L124+4
 2086 017c 7A68     		ldr	r2, [r7, #4]
 2087 017e 1269     		ldr	r2, [r2, #16]
 2088 0180 1168     		ldr	r1, [r2]
 659:App/STM32F4-Discovery/Libraries/STM32F4xx_StdPeriph_Driver/src/stm32f4xx_fsmc.c ****                       (FSMC_PCCARDInitStruct->FSMC_AttributeSpaceTimingStruct->FSMC_WaitSetupTime <
 2089              		.loc 1 659 0
 2090 0182 7A68     		ldr	r2, [r7, #4]
 2091 0184 1269     		ldr	r2, [r2, #16]
 2092 0186 5268     		ldr	r2, [r2, #4]
 2093 0188 1202     		lsls	r2, r2, #8
 658:App/STM32F4-Discovery/Libraries/STM32F4xx_StdPeriph_Driver/src/stm32f4xx_fsmc.c ****   FSMC_Bank4->PATT4 = (uint32_t)FSMC_PCCARDInitStruct->FSMC_AttributeSpaceTimingStruct->FSMC_SetupT
 2094              		.loc 1 658 0
 2095 018a 1143     		orrs	r1, r1, r2
 660:App/STM32F4-Discovery/Libraries/STM32F4xx_StdPeriph_Driver/src/stm32f4xx_fsmc.c ****                       (FSMC_PCCARDInitStruct->FSMC_AttributeSpaceTimingStruct->FSMC_HoldSetupTime <
 2096              		.loc 1 660 0
 2097 018c 7A68     		ldr	r2, [r7, #4]
 2098 018e 1269     		ldr	r2, [r2, #16]
 2099 0190 9268     		ldr	r2, [r2, #8]
 2100 0192 1204     		lsls	r2, r2, #16
 659:App/STM32F4-Discovery/Libraries/STM32F4xx_StdPeriph_Driver/src/stm32f4xx_fsmc.c ****                       (FSMC_PCCARDInitStruct->FSMC_AttributeSpaceTimingStruct->FSMC_WaitSetupTime <
 2101              		.loc 1 659 0
 2102 0194 1143     		orrs	r1, r1, r2
 661:App/STM32F4-Discovery/Libraries/STM32F4xx_StdPeriph_Driver/src/stm32f4xx_fsmc.c ****                       (FSMC_PCCARDInitStruct->FSMC_AttributeSpaceTimingStruct->FSMC_HiZSetupTime <<
 2103              		.loc 1 661 0
 2104 0196 7A68     		ldr	r2, [r7, #4]
 2105 0198 1269     		ldr	r2, [r2, #16]
 2106 019a D268     		ldr	r2, [r2, #12]
 2107 019c 1206     		lsls	r2, r2, #24
 660:App/STM32F4-Discovery/Libraries/STM32F4xx_StdPeriph_Driver/src/stm32f4xx_fsmc.c ****                       (FSMC_PCCARDInitStruct->FSMC_AttributeSpaceTimingStruct->FSMC_HoldSetupTime <
 2108              		.loc 1 660 0
 2109 019e 0A43     		orrs	r2, r2, r1
 658:App/STM32F4-Discovery/Libraries/STM32F4xx_StdPeriph_Driver/src/stm32f4xx_fsmc.c ****   FSMC_Bank4->PATT4 = (uint32_t)FSMC_PCCARDInitStruct->FSMC_AttributeSpaceTimingStruct->FSMC_SetupT
 2110              		.loc 1 658 0
 2111 01a0 DA60     		str	r2, [r3, #12]
 662:App/STM32F4-Discovery/Libraries/STM32F4xx_StdPeriph_Driver/src/stm32f4xx_fsmc.c ****             
 663:App/STM32F4-Discovery/Libraries/STM32F4xx_StdPeriph_Driver/src/stm32f4xx_fsmc.c ****   /* Set PIO4 register value according to FSMC_IOSpaceTimingStructure parameters */
 664:App/STM32F4-Discovery/Libraries/STM32F4xx_StdPeriph_Driver/src/stm32f4xx_fsmc.c ****   FSMC_Bank4->PIO4 = (uint32_t)FSMC_PCCARDInitStruct->FSMC_IOSpaceTimingStruct->FSMC_SetupTime |
 2112              		.loc 1 664 0
 2113 01a2 0C4B     		ldr	r3, .L124+4
 2114 01a4 7A68     		ldr	r2, [r7, #4]
 2115 01a6 5269     		ldr	r2, [r2, #20]
 2116 01a8 1168     		ldr	r1, [r2]
 665:App/STM32F4-Discovery/Libraries/STM32F4xx_StdPeriph_Driver/src/stm32f4xx_fsmc.c ****                      (FSMC_PCCARDInitStruct->FSMC_IOSpaceTimingStruct->FSMC_WaitSetupTime << 8) |
 2117              		.loc 1 665 0
 2118 01aa 7A68     		ldr	r2, [r7, #4]
 2119 01ac 5269     		ldr	r2, [r2, #20]
 2120 01ae 5268     		ldr	r2, [r2, #4]
 2121 01b0 1202     		lsls	r2, r2, #8
 664:App/STM32F4-Discovery/Libraries/STM32F4xx_StdPeriph_Driver/src/stm32f4xx_fsmc.c ****   FSMC_Bank4->PIO4 = (uint32_t)FSMC_PCCARDInitStruct->FSMC_IOSpaceTimingStruct->FSMC_SetupTime |
 2122              		.loc 1 664 0
 2123 01b2 1143     		orrs	r1, r1, r2
 666:App/STM32F4-Discovery/Libraries/STM32F4xx_StdPeriph_Driver/src/stm32f4xx_fsmc.c ****                      (FSMC_PCCARDInitStruct->FSMC_IOSpaceTimingStruct->FSMC_HoldSetupTime << 16)|
 2124              		.loc 1 666 0
 2125 01b4 7A68     		ldr	r2, [r7, #4]
 2126 01b6 5269     		ldr	r2, [r2, #20]
 2127 01b8 9268     		ldr	r2, [r2, #8]
 2128 01ba 1204     		lsls	r2, r2, #16
 665:App/STM32F4-Discovery/Libraries/STM32F4xx_StdPeriph_Driver/src/stm32f4xx_fsmc.c ****                      (FSMC_PCCARDInitStruct->FSMC_IOSpaceTimingStruct->FSMC_WaitSetupTime << 8) |
 2129              		.loc 1 665 0
 2130 01bc 1143     		orrs	r1, r1, r2
 667:App/STM32F4-Discovery/Libraries/STM32F4xx_StdPeriph_Driver/src/stm32f4xx_fsmc.c ****                      (FSMC_PCCARDInitStruct->FSMC_IOSpaceTimingStruct->FSMC_HiZSetupTime << 24);   
 2131              		.loc 1 667 0
 2132 01be 7A68     		ldr	r2, [r7, #4]
 2133 01c0 5269     		ldr	r2, [r2, #20]
 2134 01c2 D268     		ldr	r2, [r2, #12]
 2135 01c4 1206     		lsls	r2, r2, #24
 666:App/STM32F4-Discovery/Libraries/STM32F4xx_StdPeriph_Driver/src/stm32f4xx_fsmc.c ****                      (FSMC_PCCARDInitStruct->FSMC_IOSpaceTimingStruct->FSMC_HoldSetupTime << 16)|
 2136              		.loc 1 666 0
 2137 01c6 0A43     		orrs	r2, r2, r1
 664:App/STM32F4-Discovery/Libraries/STM32F4xx_StdPeriph_Driver/src/stm32f4xx_fsmc.c ****   FSMC_Bank4->PIO4 = (uint32_t)FSMC_PCCARDInitStruct->FSMC_IOSpaceTimingStruct->FSMC_SetupTime |
 2138              		.loc 1 664 0
 2139 01c8 1A61     		str	r2, [r3, #16]
 668:App/STM32F4-Discovery/Libraries/STM32F4xx_StdPeriph_Driver/src/stm32f4xx_fsmc.c **** }
 2140              		.loc 1 668 0
 2141 01ca 0837     		adds	r7, r7, #8
 2142 01cc BD46     		mov	sp, r7
 2143              		@ sp needed
 2144 01ce 80BD     		pop	{r7, pc}
 2145              	.L125:
 2146              		.align	2
 2147              	.L124:
 2148 01d0 00000000 		.word	.LC0
 2149 01d4 A00000A0 		.word	-1610612576
 2150              		.cfi_endproc
 2151              	.LFE121:
 2153              		.section	.text.FSMC_PCCARDStructInit,"ax",%progbits
 2154              		.align	2
 2155              		.global	FSMC_PCCARDStructInit
 2156              		.thumb
 2157              		.thumb_func
 2159              	FSMC_PCCARDStructInit:
 2160              	.LFB122:
 669:App/STM32F4-Discovery/Libraries/STM32F4xx_StdPeriph_Driver/src/stm32f4xx_fsmc.c **** 
 670:App/STM32F4-Discovery/Libraries/STM32F4xx_StdPeriph_Driver/src/stm32f4xx_fsmc.c **** /**
 671:App/STM32F4-Discovery/Libraries/STM32F4xx_StdPeriph_Driver/src/stm32f4xx_fsmc.c ****   * @brief  Fills each FSMC_PCCARDInitStruct member with its default value.
 672:App/STM32F4-Discovery/Libraries/STM32F4xx_StdPeriph_Driver/src/stm32f4xx_fsmc.c ****   * @param  FSMC_PCCARDInitStruct: pointer to a FSMC_PCCARDInitTypeDef structure
 673:App/STM32F4-Discovery/Libraries/STM32F4xx_StdPeriph_Driver/src/stm32f4xx_fsmc.c ****   *         which will be initialized.
 674:App/STM32F4-Discovery/Libraries/STM32F4xx_StdPeriph_Driver/src/stm32f4xx_fsmc.c ****   * @retval None
 675:App/STM32F4-Discovery/Libraries/STM32F4xx_StdPeriph_Driver/src/stm32f4xx_fsmc.c ****   */
 676:App/STM32F4-Discovery/Libraries/STM32F4xx_StdPeriph_Driver/src/stm32f4xx_fsmc.c **** void FSMC_PCCARDStructInit(FSMC_PCCARDInitTypeDef* FSMC_PCCARDInitStruct)
 677:App/STM32F4-Discovery/Libraries/STM32F4xx_StdPeriph_Driver/src/stm32f4xx_fsmc.c **** {
 2161              		.loc 1 677 0
 2162              		.cfi_startproc
 2163              		@ args = 0, pretend = 0, frame = 8
 2164              		@ frame_needed = 1, uses_anonymous_args = 0
 2165              		@ link register save eliminated.
 2166 0000 80B4     		push	{r7}
 2167              	.LCFI35:
 2168              		.cfi_def_cfa_offset 4
 2169              		.cfi_offset 7, -4
 2170 0002 83B0     		sub	sp, sp, #12
 2171              	.LCFI36:
 2172              		.cfi_def_cfa_offset 16
 2173 0004 00AF     		add	r7, sp, #0
 2174              	.LCFI37:
 2175              		.cfi_def_cfa_register 7
 2176 0006 7860     		str	r0, [r7, #4]
 678:App/STM32F4-Discovery/Libraries/STM32F4xx_StdPeriph_Driver/src/stm32f4xx_fsmc.c ****   /* Reset PCCARD Init structure parameters values */
 679:App/STM32F4-Discovery/Libraries/STM32F4xx_StdPeriph_Driver/src/stm32f4xx_fsmc.c ****   FSMC_PCCARDInitStruct->FSMC_Waitfeature = FSMC_Waitfeature_Disable;
 2177              		.loc 1 679 0
 2178 0008 7B68     		ldr	r3, [r7, #4]
 2179 000a 0022     		movs	r2, #0
 2180 000c 1A60     		str	r2, [r3]
 680:App/STM32F4-Discovery/Libraries/STM32F4xx_StdPeriph_Driver/src/stm32f4xx_fsmc.c ****   FSMC_PCCARDInitStruct->FSMC_TCLRSetupTime = 0x0;
 2181              		.loc 1 680 0
 2182 000e 7B68     		ldr	r3, [r7, #4]
 2183 0010 0022     		movs	r2, #0
 2184 0012 5A60     		str	r2, [r3, #4]
 681:App/STM32F4-Discovery/Libraries/STM32F4xx_StdPeriph_Driver/src/stm32f4xx_fsmc.c ****   FSMC_PCCARDInitStruct->FSMC_TARSetupTime = 0x0;
 2185              		.loc 1 681 0
 2186 0014 7B68     		ldr	r3, [r7, #4]
 2187 0016 0022     		movs	r2, #0
 2188 0018 9A60     		str	r2, [r3, #8]
 682:App/STM32F4-Discovery/Libraries/STM32F4xx_StdPeriph_Driver/src/stm32f4xx_fsmc.c ****   FSMC_PCCARDInitStruct->FSMC_CommonSpaceTimingStruct->FSMC_SetupTime = 0xFC;
 2189              		.loc 1 682 0
 2190 001a 7B68     		ldr	r3, [r7, #4]
 2191 001c DB68     		ldr	r3, [r3, #12]
 2192 001e FC22     		movs	r2, #252
 2193 0020 1A60     		str	r2, [r3]
 683:App/STM32F4-Discovery/Libraries/STM32F4xx_StdPeriph_Driver/src/stm32f4xx_fsmc.c ****   FSMC_PCCARDInitStruct->FSMC_CommonSpaceTimingStruct->FSMC_WaitSetupTime = 0xFC;
 2194              		.loc 1 683 0
 2195 0022 7B68     		ldr	r3, [r7, #4]
 2196 0024 DB68     		ldr	r3, [r3, #12]
 2197 0026 FC22     		movs	r2, #252
 2198 0028 5A60     		str	r2, [r3, #4]
 684:App/STM32F4-Discovery/Libraries/STM32F4xx_StdPeriph_Driver/src/stm32f4xx_fsmc.c ****   FSMC_PCCARDInitStruct->FSMC_CommonSpaceTimingStruct->FSMC_HoldSetupTime = 0xFC;
 2199              		.loc 1 684 0
 2200 002a 7B68     		ldr	r3, [r7, #4]
 2201 002c DB68     		ldr	r3, [r3, #12]
 2202 002e FC22     		movs	r2, #252
 2203 0030 9A60     		str	r2, [r3, #8]
 685:App/STM32F4-Discovery/Libraries/STM32F4xx_StdPeriph_Driver/src/stm32f4xx_fsmc.c ****   FSMC_PCCARDInitStruct->FSMC_CommonSpaceTimingStruct->FSMC_HiZSetupTime = 0xFC;
 2204              		.loc 1 685 0
 2205 0032 7B68     		ldr	r3, [r7, #4]
 2206 0034 DB68     		ldr	r3, [r3, #12]
 2207 0036 FC22     		movs	r2, #252
 2208 0038 DA60     		str	r2, [r3, #12]
 686:App/STM32F4-Discovery/Libraries/STM32F4xx_StdPeriph_Driver/src/stm32f4xx_fsmc.c ****   FSMC_PCCARDInitStruct->FSMC_AttributeSpaceTimingStruct->FSMC_SetupTime = 0xFC;
 2209              		.loc 1 686 0
 2210 003a 7B68     		ldr	r3, [r7, #4]
 2211 003c 1B69     		ldr	r3, [r3, #16]
 2212 003e FC22     		movs	r2, #252
 2213 0040 1A60     		str	r2, [r3]
 687:App/STM32F4-Discovery/Libraries/STM32F4xx_StdPeriph_Driver/src/stm32f4xx_fsmc.c ****   FSMC_PCCARDInitStruct->FSMC_AttributeSpaceTimingStruct->FSMC_WaitSetupTime = 0xFC;
 2214              		.loc 1 687 0
 2215 0042 7B68     		ldr	r3, [r7, #4]
 2216 0044 1B69     		ldr	r3, [r3, #16]
 2217 0046 FC22     		movs	r2, #252
 2218 0048 5A60     		str	r2, [r3, #4]
 688:App/STM32F4-Discovery/Libraries/STM32F4xx_StdPeriph_Driver/src/stm32f4xx_fsmc.c ****   FSMC_PCCARDInitStruct->FSMC_AttributeSpaceTimingStruct->FSMC_HoldSetupTime = 0xFC;
 2219              		.loc 1 688 0
 2220 004a 7B68     		ldr	r3, [r7, #4]
 2221 004c 1B69     		ldr	r3, [r3, #16]
 2222 004e FC22     		movs	r2, #252
 2223 0050 9A60     		str	r2, [r3, #8]
 689:App/STM32F4-Discovery/Libraries/STM32F4xx_StdPeriph_Driver/src/stm32f4xx_fsmc.c ****   FSMC_PCCARDInitStruct->FSMC_AttributeSpaceTimingStruct->FSMC_HiZSetupTime = 0xFC;	
 2224              		.loc 1 689 0
 2225 0052 7B68     		ldr	r3, [r7, #4]
 2226 0054 1B69     		ldr	r3, [r3, #16]
 2227 0056 FC22     		movs	r2, #252
 2228 0058 DA60     		str	r2, [r3, #12]
 690:App/STM32F4-Discovery/Libraries/STM32F4xx_StdPeriph_Driver/src/stm32f4xx_fsmc.c ****   FSMC_PCCARDInitStruct->FSMC_IOSpaceTimingStruct->FSMC_SetupTime = 0xFC;
 2229              		.loc 1 690 0
 2230 005a 7B68     		ldr	r3, [r7, #4]
 2231 005c 5B69     		ldr	r3, [r3, #20]
 2232 005e FC22     		movs	r2, #252
 2233 0060 1A60     		str	r2, [r3]
 691:App/STM32F4-Discovery/Libraries/STM32F4xx_StdPeriph_Driver/src/stm32f4xx_fsmc.c ****   FSMC_PCCARDInitStruct->FSMC_IOSpaceTimingStruct->FSMC_WaitSetupTime = 0xFC;
 2234              		.loc 1 691 0
 2235 0062 7B68     		ldr	r3, [r7, #4]
 2236 0064 5B69     		ldr	r3, [r3, #20]
 2237 0066 FC22     		movs	r2, #252
 2238 0068 5A60     		str	r2, [r3, #4]
 692:App/STM32F4-Discovery/Libraries/STM32F4xx_StdPeriph_Driver/src/stm32f4xx_fsmc.c ****   FSMC_PCCARDInitStruct->FSMC_IOSpaceTimingStruct->FSMC_HoldSetupTime = 0xFC;
 2239              		.loc 1 692 0
 2240 006a 7B68     		ldr	r3, [r7, #4]
 2241 006c 5B69     		ldr	r3, [r3, #20]
 2242 006e FC22     		movs	r2, #252
 2243 0070 9A60     		str	r2, [r3, #8]
 693:App/STM32F4-Discovery/Libraries/STM32F4xx_StdPeriph_Driver/src/stm32f4xx_fsmc.c ****   FSMC_PCCARDInitStruct->FSMC_IOSpaceTimingStruct->FSMC_HiZSetupTime = 0xFC;
 2244              		.loc 1 693 0
 2245 0072 7B68     		ldr	r3, [r7, #4]
 2246 0074 5B69     		ldr	r3, [r3, #20]
 2247 0076 FC22     		movs	r2, #252
 2248 0078 DA60     		str	r2, [r3, #12]
 694:App/STM32F4-Discovery/Libraries/STM32F4xx_StdPeriph_Driver/src/stm32f4xx_fsmc.c **** }
 2249              		.loc 1 694 0
 2250 007a 0C37     		adds	r7, r7, #12
 2251 007c BD46     		mov	sp, r7
 2252              		@ sp needed
 2253 007e 5DF8047B 		ldr	r7, [sp], #4
 2254 0082 7047     		bx	lr
 2255              		.cfi_endproc
 2256              	.LFE122:
 2258              		.section	.text.FSMC_PCCARDCmd,"ax",%progbits
 2259              		.align	2
 2260              		.global	FSMC_PCCARDCmd
 2261              		.thumb
 2262              		.thumb_func
 2264              	FSMC_PCCARDCmd:
 2265              	.LFB123:
 695:App/STM32F4-Discovery/Libraries/STM32F4xx_StdPeriph_Driver/src/stm32f4xx_fsmc.c **** 
 696:App/STM32F4-Discovery/Libraries/STM32F4xx_StdPeriph_Driver/src/stm32f4xx_fsmc.c **** /**
 697:App/STM32F4-Discovery/Libraries/STM32F4xx_StdPeriph_Driver/src/stm32f4xx_fsmc.c ****   * @brief  Enables or disables the PCCARD Memory Bank.
 698:App/STM32F4-Discovery/Libraries/STM32F4xx_StdPeriph_Driver/src/stm32f4xx_fsmc.c ****   * @param  NewState: new state of the PCCARD Memory Bank.  
 699:App/STM32F4-Discovery/Libraries/STM32F4xx_StdPeriph_Driver/src/stm32f4xx_fsmc.c ****   *          This parameter can be: ENABLE or DISABLE.
 700:App/STM32F4-Discovery/Libraries/STM32F4xx_StdPeriph_Driver/src/stm32f4xx_fsmc.c ****   * @retval None
 701:App/STM32F4-Discovery/Libraries/STM32F4xx_StdPeriph_Driver/src/stm32f4xx_fsmc.c ****   */
 702:App/STM32F4-Discovery/Libraries/STM32F4xx_StdPeriph_Driver/src/stm32f4xx_fsmc.c **** void FSMC_PCCARDCmd(FunctionalState NewState)
 703:App/STM32F4-Discovery/Libraries/STM32F4xx_StdPeriph_Driver/src/stm32f4xx_fsmc.c **** {
 2266              		.loc 1 703 0
 2267              		.cfi_startproc
 2268              		@ args = 0, pretend = 0, frame = 8
 2269              		@ frame_needed = 1, uses_anonymous_args = 0
 2270 0000 80B5     		push	{r7, lr}
 2271              	.LCFI38:
 2272              		.cfi_def_cfa_offset 8
 2273              		.cfi_offset 7, -8
 2274              		.cfi_offset 14, -4
 2275 0002 82B0     		sub	sp, sp, #8
 2276              	.LCFI39:
 2277              		.cfi_def_cfa_offset 16
 2278 0004 00AF     		add	r7, sp, #0
 2279              	.LCFI40:
 2280              		.cfi_def_cfa_register 7
 2281 0006 0346     		mov	r3, r0
 2282 0008 FB71     		strb	r3, [r7, #7]
 704:App/STM32F4-Discovery/Libraries/STM32F4xx_StdPeriph_Driver/src/stm32f4xx_fsmc.c ****   assert_param(IS_FUNCTIONAL_STATE(NewState));
 2283              		.loc 1 704 0
 2284 000a FB79     		ldrb	r3, [r7, #7]	@ zero_extendqisi2
 2285 000c 002B     		cmp	r3, #0
 2286 000e 07D0     		beq	.L128
 2287              		.loc 1 704 0 is_stmt 0 discriminator 1
 2288 0010 FB79     		ldrb	r3, [r7, #7]	@ zero_extendqisi2
 2289 0012 012B     		cmp	r3, #1
 2290 0014 04D0     		beq	.L128
 2291 0016 0C48     		ldr	r0, .L131
 2292 0018 4FF43071 		mov	r1, #704
 2293 001c FFF7FEFF 		bl	assert_failed
 2294              	.L128:
 705:App/STM32F4-Discovery/Libraries/STM32F4xx_StdPeriph_Driver/src/stm32f4xx_fsmc.c ****   
 706:App/STM32F4-Discovery/Libraries/STM32F4xx_StdPeriph_Driver/src/stm32f4xx_fsmc.c ****   if (NewState != DISABLE)
 2295              		.loc 1 706 0 is_stmt 1
 2296 0020 FB79     		ldrb	r3, [r7, #7]	@ zero_extendqisi2
 2297 0022 002B     		cmp	r3, #0
 2298 0024 06D0     		beq	.L129
 707:App/STM32F4-Discovery/Libraries/STM32F4xx_StdPeriph_Driver/src/stm32f4xx_fsmc.c ****   {
 708:App/STM32F4-Discovery/Libraries/STM32F4xx_StdPeriph_Driver/src/stm32f4xx_fsmc.c ****     /* Enable the PCCARD Bank by setting the PBKEN bit in the PCR4 register */
 709:App/STM32F4-Discovery/Libraries/STM32F4xx_StdPeriph_Driver/src/stm32f4xx_fsmc.c ****     FSMC_Bank4->PCR4 |= PCR_PBKEN_SET;
 2299              		.loc 1 709 0
 2300 0026 094B     		ldr	r3, .L131+4
 2301 0028 084A     		ldr	r2, .L131+4
 2302 002a 1268     		ldr	r2, [r2]
 2303 002c 42F00402 		orr	r2, r2, #4
 2304 0030 1A60     		str	r2, [r3]
 2305 0032 05E0     		b	.L127
 2306              	.L129:
 710:App/STM32F4-Discovery/Libraries/STM32F4xx_StdPeriph_Driver/src/stm32f4xx_fsmc.c ****   }
 711:App/STM32F4-Discovery/Libraries/STM32F4xx_StdPeriph_Driver/src/stm32f4xx_fsmc.c ****   else
 712:App/STM32F4-Discovery/Libraries/STM32F4xx_StdPeriph_Driver/src/stm32f4xx_fsmc.c ****   {
 713:App/STM32F4-Discovery/Libraries/STM32F4xx_StdPeriph_Driver/src/stm32f4xx_fsmc.c ****     /* Disable the PCCARD Bank by clearing the PBKEN bit in the PCR4 register */
 714:App/STM32F4-Discovery/Libraries/STM32F4xx_StdPeriph_Driver/src/stm32f4xx_fsmc.c ****     FSMC_Bank4->PCR4 &= PCR_PBKEN_RESET;
 2307              		.loc 1 714 0
 2308 0034 054A     		ldr	r2, .L131+4
 2309 0036 054B     		ldr	r3, .L131+4
 2310 0038 1968     		ldr	r1, [r3]
 2311 003a 054B     		ldr	r3, .L131+8
 2312 003c 0B40     		ands	r3, r3, r1
 2313 003e 1360     		str	r3, [r2]
 2314              	.L127:
 715:App/STM32F4-Discovery/Libraries/STM32F4xx_StdPeriph_Driver/src/stm32f4xx_fsmc.c ****   }
 716:App/STM32F4-Discovery/Libraries/STM32F4xx_StdPeriph_Driver/src/stm32f4xx_fsmc.c **** }
 2315              		.loc 1 716 0
 2316 0040 0837     		adds	r7, r7, #8
 2317 0042 BD46     		mov	sp, r7
 2318              		@ sp needed
 2319 0044 80BD     		pop	{r7, pc}
 2320              	.L132:
 2321 0046 00BF     		.align	2
 2322              	.L131:
 2323 0048 00000000 		.word	.LC0
 2324 004c A00000A0 		.word	-1610612576
 2325 0050 FBFF0F00 		.word	1048571
 2326              		.cfi_endproc
 2327              	.LFE123:
 2329              		.section	.text.FSMC_ITConfig,"ax",%progbits
 2330              		.align	2
 2331              		.global	FSMC_ITConfig
 2332              		.thumb
 2333              		.thumb_func
 2335              	FSMC_ITConfig:
 2336              	.LFB124:
 717:App/STM32F4-Discovery/Libraries/STM32F4xx_StdPeriph_Driver/src/stm32f4xx_fsmc.c **** /**
 718:App/STM32F4-Discovery/Libraries/STM32F4xx_StdPeriph_Driver/src/stm32f4xx_fsmc.c ****   * @}
 719:App/STM32F4-Discovery/Libraries/STM32F4xx_StdPeriph_Driver/src/stm32f4xx_fsmc.c ****   */
 720:App/STM32F4-Discovery/Libraries/STM32F4xx_StdPeriph_Driver/src/stm32f4xx_fsmc.c **** 
 721:App/STM32F4-Discovery/Libraries/STM32F4xx_StdPeriph_Driver/src/stm32f4xx_fsmc.c **** /** @defgroup FSMC_Group4  Interrupts and flags management functions
 722:App/STM32F4-Discovery/Libraries/STM32F4xx_StdPeriph_Driver/src/stm32f4xx_fsmc.c ****  *  @brief    Interrupts and flags management functions
 723:App/STM32F4-Discovery/Libraries/STM32F4xx_StdPeriph_Driver/src/stm32f4xx_fsmc.c ****  *
 724:App/STM32F4-Discovery/Libraries/STM32F4xx_StdPeriph_Driver/src/stm32f4xx_fsmc.c **** @verbatim   
 725:App/STM32F4-Discovery/Libraries/STM32F4xx_StdPeriph_Driver/src/stm32f4xx_fsmc.c ****  ===============================================================================
 726:App/STM32F4-Discovery/Libraries/STM32F4xx_StdPeriph_Driver/src/stm32f4xx_fsmc.c ****                      Interrupts and flags management functions
 727:App/STM32F4-Discovery/Libraries/STM32F4xx_StdPeriph_Driver/src/stm32f4xx_fsmc.c ****  ===============================================================================  
 728:App/STM32F4-Discovery/Libraries/STM32F4xx_StdPeriph_Driver/src/stm32f4xx_fsmc.c **** 
 729:App/STM32F4-Discovery/Libraries/STM32F4xx_StdPeriph_Driver/src/stm32f4xx_fsmc.c **** @endverbatim
 730:App/STM32F4-Discovery/Libraries/STM32F4xx_StdPeriph_Driver/src/stm32f4xx_fsmc.c ****   * @{
 731:App/STM32F4-Discovery/Libraries/STM32F4xx_StdPeriph_Driver/src/stm32f4xx_fsmc.c ****   */
 732:App/STM32F4-Discovery/Libraries/STM32F4xx_StdPeriph_Driver/src/stm32f4xx_fsmc.c **** 
 733:App/STM32F4-Discovery/Libraries/STM32F4xx_StdPeriph_Driver/src/stm32f4xx_fsmc.c **** /**
 734:App/STM32F4-Discovery/Libraries/STM32F4xx_StdPeriph_Driver/src/stm32f4xx_fsmc.c ****   * @brief  Enables or disables the specified FSMC interrupts.
 735:App/STM32F4-Discovery/Libraries/STM32F4xx_StdPeriph_Driver/src/stm32f4xx_fsmc.c ****   * @param  FSMC_Bank: specifies the FSMC Bank to be used
 736:App/STM32F4-Discovery/Libraries/STM32F4xx_StdPeriph_Driver/src/stm32f4xx_fsmc.c ****   *          This parameter can be one of the following values:
 737:App/STM32F4-Discovery/Libraries/STM32F4xx_StdPeriph_Driver/src/stm32f4xx_fsmc.c ****   *            @arg FSMC_Bank2_NAND: FSMC Bank2 NAND 
 738:App/STM32F4-Discovery/Libraries/STM32F4xx_StdPeriph_Driver/src/stm32f4xx_fsmc.c ****   *            @arg FSMC_Bank3_NAND: FSMC Bank3 NAND
 739:App/STM32F4-Discovery/Libraries/STM32F4xx_StdPeriph_Driver/src/stm32f4xx_fsmc.c ****   *            @arg FSMC_Bank4_PCCARD: FSMC Bank4 PCCARD
 740:App/STM32F4-Discovery/Libraries/STM32F4xx_StdPeriph_Driver/src/stm32f4xx_fsmc.c ****   * @param  FSMC_IT: specifies the FSMC interrupt sources to be enabled or disabled.
 741:App/STM32F4-Discovery/Libraries/STM32F4xx_StdPeriph_Driver/src/stm32f4xx_fsmc.c ****   *          This parameter can be any combination of the following values:
 742:App/STM32F4-Discovery/Libraries/STM32F4xx_StdPeriph_Driver/src/stm32f4xx_fsmc.c ****   *            @arg FSMC_IT_RisingEdge: Rising edge detection interrupt. 
 743:App/STM32F4-Discovery/Libraries/STM32F4xx_StdPeriph_Driver/src/stm32f4xx_fsmc.c ****   *            @arg FSMC_IT_Level: Level edge detection interrupt.
 744:App/STM32F4-Discovery/Libraries/STM32F4xx_StdPeriph_Driver/src/stm32f4xx_fsmc.c ****   *            @arg FSMC_IT_FallingEdge: Falling edge detection interrupt.
 745:App/STM32F4-Discovery/Libraries/STM32F4xx_StdPeriph_Driver/src/stm32f4xx_fsmc.c ****   * @param  NewState: new state of the specified FSMC interrupts.
 746:App/STM32F4-Discovery/Libraries/STM32F4xx_StdPeriph_Driver/src/stm32f4xx_fsmc.c ****   *          This parameter can be: ENABLE or DISABLE.
 747:App/STM32F4-Discovery/Libraries/STM32F4xx_StdPeriph_Driver/src/stm32f4xx_fsmc.c ****   * @retval None
 748:App/STM32F4-Discovery/Libraries/STM32F4xx_StdPeriph_Driver/src/stm32f4xx_fsmc.c ****   */
 749:App/STM32F4-Discovery/Libraries/STM32F4xx_StdPeriph_Driver/src/stm32f4xx_fsmc.c **** void FSMC_ITConfig(uint32_t FSMC_Bank, uint32_t FSMC_IT, FunctionalState NewState)
 750:App/STM32F4-Discovery/Libraries/STM32F4xx_StdPeriph_Driver/src/stm32f4xx_fsmc.c **** {
 2337              		.loc 1 750 0
 2338              		.cfi_startproc
 2339              		@ args = 0, pretend = 0, frame = 16
 2340              		@ frame_needed = 1, uses_anonymous_args = 0
 2341 0000 80B5     		push	{r7, lr}
 2342              	.LCFI41:
 2343              		.cfi_def_cfa_offset 8
 2344              		.cfi_offset 7, -8
 2345              		.cfi_offset 14, -4
 2346 0002 84B0     		sub	sp, sp, #16
 2347              	.LCFI42:
 2348              		.cfi_def_cfa_offset 24
 2349 0004 00AF     		add	r7, sp, #0
 2350              	.LCFI43:
 2351              		.cfi_def_cfa_register 7
 2352 0006 F860     		str	r0, [r7, #12]
 2353 0008 B960     		str	r1, [r7, #8]
 2354 000a 1346     		mov	r3, r2
 2355 000c FB71     		strb	r3, [r7, #7]
 751:App/STM32F4-Discovery/Libraries/STM32F4xx_StdPeriph_Driver/src/stm32f4xx_fsmc.c ****   assert_param(IS_FSMC_IT_BANK(FSMC_Bank));
 2356              		.loc 1 751 0
 2357 000e FB68     		ldr	r3, [r7, #12]
 2358 0010 102B     		cmp	r3, #16
 2359 0012 0CD0     		beq	.L134
 2360              		.loc 1 751 0 is_stmt 0 discriminator 1
 2361 0014 FB68     		ldr	r3, [r7, #12]
 2362 0016 B3F5807F 		cmp	r3, #256
 2363 001a 08D0     		beq	.L134
 2364 001c FB68     		ldr	r3, [r7, #12]
 2365 001e B3F5805F 		cmp	r3, #4096
 2366 0022 04D0     		beq	.L134
 2367 0024 2E48     		ldr	r0, .L145
 2368 0026 40F2EF21 		movw	r1, #751
 2369 002a FFF7FEFF 		bl	assert_failed
 2370              	.L134:
 752:App/STM32F4-Discovery/Libraries/STM32F4xx_StdPeriph_Driver/src/stm32f4xx_fsmc.c ****   assert_param(IS_FSMC_IT(FSMC_IT));	
 2371              		.loc 1 752 0 is_stmt 1
 2372 002e BB68     		ldr	r3, [r7, #8]
 2373 0030 23F03803 		bic	r3, r3, #56
 2374 0034 002B     		cmp	r3, #0
 2375 0036 02D1     		bne	.L135
 2376              		.loc 1 752 0 is_stmt 0 discriminator 2
 2377 0038 BB68     		ldr	r3, [r7, #8]
 2378 003a 002B     		cmp	r3, #0
 2379 003c 04D1     		bne	.L136
 2380              	.L135:
 2381              		.loc 1 752 0 discriminator 1
 2382 003e 2848     		ldr	r0, .L145
 2383 0040 4FF43C71 		mov	r1, #752
 2384 0044 FFF7FEFF 		bl	assert_failed
 2385              	.L136:
 753:App/STM32F4-Discovery/Libraries/STM32F4xx_StdPeriph_Driver/src/stm32f4xx_fsmc.c ****   assert_param(IS_FUNCTIONAL_STATE(NewState));
 2386              		.loc 1 753 0 is_stmt 1
 2387 0048 FB79     		ldrb	r3, [r7, #7]	@ zero_extendqisi2
 2388 004a 002B     		cmp	r3, #0
 2389 004c 07D0     		beq	.L137
 2390              		.loc 1 753 0 is_stmt 0 discriminator 1
 2391 004e FB79     		ldrb	r3, [r7, #7]	@ zero_extendqisi2
 2392 0050 012B     		cmp	r3, #1
 2393 0052 04D0     		beq	.L137
 2394 0054 2248     		ldr	r0, .L145
 2395 0056 40F2F121 		movw	r1, #753
 2396 005a FFF7FEFF 		bl	assert_failed
 2397              	.L137:
 754:App/STM32F4-Discovery/Libraries/STM32F4xx_StdPeriph_Driver/src/stm32f4xx_fsmc.c ****   
 755:App/STM32F4-Discovery/Libraries/STM32F4xx_StdPeriph_Driver/src/stm32f4xx_fsmc.c ****   if (NewState != DISABLE)
 2398              		.loc 1 755 0 is_stmt 1
 2399 005e FB79     		ldrb	r3, [r7, #7]	@ zero_extendqisi2
 2400 0060 002B     		cmp	r3, #0
 2401 0062 1BD0     		beq	.L138
 756:App/STM32F4-Discovery/Libraries/STM32F4xx_StdPeriph_Driver/src/stm32f4xx_fsmc.c ****   {
 757:App/STM32F4-Discovery/Libraries/STM32F4xx_StdPeriph_Driver/src/stm32f4xx_fsmc.c ****     /* Enable the selected FSMC_Bank2 interrupts */
 758:App/STM32F4-Discovery/Libraries/STM32F4xx_StdPeriph_Driver/src/stm32f4xx_fsmc.c ****     if(FSMC_Bank == FSMC_Bank2_NAND)
 2402              		.loc 1 758 0
 2403 0064 FB68     		ldr	r3, [r7, #12]
 2404 0066 102B     		cmp	r3, #16
 2405 0068 06D1     		bne	.L139
 759:App/STM32F4-Discovery/Libraries/STM32F4xx_StdPeriph_Driver/src/stm32f4xx_fsmc.c ****     {
 760:App/STM32F4-Discovery/Libraries/STM32F4xx_StdPeriph_Driver/src/stm32f4xx_fsmc.c ****       FSMC_Bank2->SR2 |= FSMC_IT;
 2406              		.loc 1 760 0
 2407 006a 1E4B     		ldr	r3, .L145+4
 2408 006c 1D4A     		ldr	r2, .L145+4
 2409 006e 5168     		ldr	r1, [r2, #4]
 2410 0070 BA68     		ldr	r2, [r7, #8]
 2411 0072 0A43     		orrs	r2, r2, r1
 2412 0074 5A60     		str	r2, [r3, #4]
 2413 0076 2FE0     		b	.L133
 2414              	.L139:
 761:App/STM32F4-Discovery/Libraries/STM32F4xx_StdPeriph_Driver/src/stm32f4xx_fsmc.c ****     }
 762:App/STM32F4-Discovery/Libraries/STM32F4xx_StdPeriph_Driver/src/stm32f4xx_fsmc.c ****     /* Enable the selected FSMC_Bank3 interrupts */
 763:App/STM32F4-Discovery/Libraries/STM32F4xx_StdPeriph_Driver/src/stm32f4xx_fsmc.c ****     else if (FSMC_Bank == FSMC_Bank3_NAND)
 2415              		.loc 1 763 0
 2416 0078 FB68     		ldr	r3, [r7, #12]
 2417 007a B3F5807F 		cmp	r3, #256
 2418 007e 06D1     		bne	.L141
 764:App/STM32F4-Discovery/Libraries/STM32F4xx_StdPeriph_Driver/src/stm32f4xx_fsmc.c ****     {
 765:App/STM32F4-Discovery/Libraries/STM32F4xx_StdPeriph_Driver/src/stm32f4xx_fsmc.c ****       FSMC_Bank3->SR3 |= FSMC_IT;
 2419              		.loc 1 765 0
 2420 0080 194B     		ldr	r3, .L145+8
 2421 0082 194A     		ldr	r2, .L145+8
 2422 0084 5168     		ldr	r1, [r2, #4]
 2423 0086 BA68     		ldr	r2, [r7, #8]
 2424 0088 0A43     		orrs	r2, r2, r1
 2425 008a 5A60     		str	r2, [r3, #4]
 2426 008c 24E0     		b	.L133
 2427              	.L141:
 766:App/STM32F4-Discovery/Libraries/STM32F4xx_StdPeriph_Driver/src/stm32f4xx_fsmc.c ****     }
 767:App/STM32F4-Discovery/Libraries/STM32F4xx_StdPeriph_Driver/src/stm32f4xx_fsmc.c ****     /* Enable the selected FSMC_Bank4 interrupts */
 768:App/STM32F4-Discovery/Libraries/STM32F4xx_StdPeriph_Driver/src/stm32f4xx_fsmc.c ****     else
 769:App/STM32F4-Discovery/Libraries/STM32F4xx_StdPeriph_Driver/src/stm32f4xx_fsmc.c ****     {
 770:App/STM32F4-Discovery/Libraries/STM32F4xx_StdPeriph_Driver/src/stm32f4xx_fsmc.c ****       FSMC_Bank4->SR4 |= FSMC_IT;    
 2428              		.loc 1 770 0
 2429 008e 174B     		ldr	r3, .L145+12
 2430 0090 164A     		ldr	r2, .L145+12
 2431 0092 5168     		ldr	r1, [r2, #4]
 2432 0094 BA68     		ldr	r2, [r7, #8]
 2433 0096 0A43     		orrs	r2, r2, r1
 2434 0098 5A60     		str	r2, [r3, #4]
 2435 009a 1DE0     		b	.L133
 2436              	.L138:
 771:App/STM32F4-Discovery/Libraries/STM32F4xx_StdPeriph_Driver/src/stm32f4xx_fsmc.c ****     }
 772:App/STM32F4-Discovery/Libraries/STM32F4xx_StdPeriph_Driver/src/stm32f4xx_fsmc.c ****   }
 773:App/STM32F4-Discovery/Libraries/STM32F4xx_StdPeriph_Driver/src/stm32f4xx_fsmc.c ****   else
 774:App/STM32F4-Discovery/Libraries/STM32F4xx_StdPeriph_Driver/src/stm32f4xx_fsmc.c ****   {
 775:App/STM32F4-Discovery/Libraries/STM32F4xx_StdPeriph_Driver/src/stm32f4xx_fsmc.c ****     /* Disable the selected FSMC_Bank2 interrupts */
 776:App/STM32F4-Discovery/Libraries/STM32F4xx_StdPeriph_Driver/src/stm32f4xx_fsmc.c ****     if(FSMC_Bank == FSMC_Bank2_NAND)
 2437              		.loc 1 776 0
 2438 009c FB68     		ldr	r3, [r7, #12]
 2439 009e 102B     		cmp	r3, #16
 2440 00a0 07D1     		bne	.L143
 777:App/STM32F4-Discovery/Libraries/STM32F4xx_StdPeriph_Driver/src/stm32f4xx_fsmc.c ****     {
 778:App/STM32F4-Discovery/Libraries/STM32F4xx_StdPeriph_Driver/src/stm32f4xx_fsmc.c ****       
 779:App/STM32F4-Discovery/Libraries/STM32F4xx_StdPeriph_Driver/src/stm32f4xx_fsmc.c ****       FSMC_Bank2->SR2 &= (uint32_t)~FSMC_IT;
 2441              		.loc 1 779 0
 2442 00a2 104B     		ldr	r3, .L145+4
 2443 00a4 0F4A     		ldr	r2, .L145+4
 2444 00a6 5168     		ldr	r1, [r2, #4]
 2445 00a8 BA68     		ldr	r2, [r7, #8]
 2446 00aa D243     		mvns	r2, r2
 2447 00ac 0A40     		ands	r2, r2, r1
 2448 00ae 5A60     		str	r2, [r3, #4]
 2449 00b0 12E0     		b	.L133
 2450              	.L143:
 780:App/STM32F4-Discovery/Libraries/STM32F4xx_StdPeriph_Driver/src/stm32f4xx_fsmc.c ****     }
 781:App/STM32F4-Discovery/Libraries/STM32F4xx_StdPeriph_Driver/src/stm32f4xx_fsmc.c ****     /* Disable the selected FSMC_Bank3 interrupts */
 782:App/STM32F4-Discovery/Libraries/STM32F4xx_StdPeriph_Driver/src/stm32f4xx_fsmc.c ****     else if (FSMC_Bank == FSMC_Bank3_NAND)
 2451              		.loc 1 782 0
 2452 00b2 FB68     		ldr	r3, [r7, #12]
 2453 00b4 B3F5807F 		cmp	r3, #256
 2454 00b8 07D1     		bne	.L144
 783:App/STM32F4-Discovery/Libraries/STM32F4xx_StdPeriph_Driver/src/stm32f4xx_fsmc.c ****     {
 784:App/STM32F4-Discovery/Libraries/STM32F4xx_StdPeriph_Driver/src/stm32f4xx_fsmc.c ****       FSMC_Bank3->SR3 &= (uint32_t)~FSMC_IT;
 2455              		.loc 1 784 0
 2456 00ba 0B4B     		ldr	r3, .L145+8
 2457 00bc 0A4A     		ldr	r2, .L145+8
 2458 00be 5168     		ldr	r1, [r2, #4]
 2459 00c0 BA68     		ldr	r2, [r7, #8]
 2460 00c2 D243     		mvns	r2, r2
 2461 00c4 0A40     		ands	r2, r2, r1
 2462 00c6 5A60     		str	r2, [r3, #4]
 2463 00c8 06E0     		b	.L133
 2464              	.L144:
 785:App/STM32F4-Discovery/Libraries/STM32F4xx_StdPeriph_Driver/src/stm32f4xx_fsmc.c ****     }
 786:App/STM32F4-Discovery/Libraries/STM32F4xx_StdPeriph_Driver/src/stm32f4xx_fsmc.c ****     /* Disable the selected FSMC_Bank4 interrupts */
 787:App/STM32F4-Discovery/Libraries/STM32F4xx_StdPeriph_Driver/src/stm32f4xx_fsmc.c ****     else
 788:App/STM32F4-Discovery/Libraries/STM32F4xx_StdPeriph_Driver/src/stm32f4xx_fsmc.c ****     {
 789:App/STM32F4-Discovery/Libraries/STM32F4xx_StdPeriph_Driver/src/stm32f4xx_fsmc.c ****       FSMC_Bank4->SR4 &= (uint32_t)~FSMC_IT;    
 2465              		.loc 1 789 0
 2466 00ca 084B     		ldr	r3, .L145+12
 2467 00cc 074A     		ldr	r2, .L145+12
 2468 00ce 5168     		ldr	r1, [r2, #4]
 2469 00d0 BA68     		ldr	r2, [r7, #8]
 2470 00d2 D243     		mvns	r2, r2
 2471 00d4 0A40     		ands	r2, r2, r1
 2472 00d6 5A60     		str	r2, [r3, #4]
 2473              	.L133:
 790:App/STM32F4-Discovery/Libraries/STM32F4xx_StdPeriph_Driver/src/stm32f4xx_fsmc.c ****     }
 791:App/STM32F4-Discovery/Libraries/STM32F4xx_StdPeriph_Driver/src/stm32f4xx_fsmc.c ****   }
 792:App/STM32F4-Discovery/Libraries/STM32F4xx_StdPeriph_Driver/src/stm32f4xx_fsmc.c **** }
 2474              		.loc 1 792 0
 2475 00d8 1037     		adds	r7, r7, #16
 2476 00da BD46     		mov	sp, r7
 2477              		@ sp needed
 2478 00dc 80BD     		pop	{r7, pc}
 2479              	.L146:
 2480 00de 00BF     		.align	2
 2481              	.L145:
 2482 00e0 00000000 		.word	.LC0
 2483 00e4 600000A0 		.word	-1610612640
 2484 00e8 800000A0 		.word	-1610612608
 2485 00ec A00000A0 		.word	-1610612576
 2486              		.cfi_endproc
 2487              	.LFE124:
 2489              		.section	.text.FSMC_GetFlagStatus,"ax",%progbits
 2490              		.align	2
 2491              		.global	FSMC_GetFlagStatus
 2492              		.thumb
 2493              		.thumb_func
 2495              	FSMC_GetFlagStatus:
 2496              	.LFB125:
 793:App/STM32F4-Discovery/Libraries/STM32F4xx_StdPeriph_Driver/src/stm32f4xx_fsmc.c **** 
 794:App/STM32F4-Discovery/Libraries/STM32F4xx_StdPeriph_Driver/src/stm32f4xx_fsmc.c **** /**
 795:App/STM32F4-Discovery/Libraries/STM32F4xx_StdPeriph_Driver/src/stm32f4xx_fsmc.c ****   * @brief  Checks whether the specified FSMC flag is set or not.
 796:App/STM32F4-Discovery/Libraries/STM32F4xx_StdPeriph_Driver/src/stm32f4xx_fsmc.c ****   * @param  FSMC_Bank: specifies the FSMC Bank to be used
 797:App/STM32F4-Discovery/Libraries/STM32F4xx_StdPeriph_Driver/src/stm32f4xx_fsmc.c ****   *          This parameter can be one of the following values:
 798:App/STM32F4-Discovery/Libraries/STM32F4xx_StdPeriph_Driver/src/stm32f4xx_fsmc.c ****   *            @arg FSMC_Bank2_NAND: FSMC Bank2 NAND 
 799:App/STM32F4-Discovery/Libraries/STM32F4xx_StdPeriph_Driver/src/stm32f4xx_fsmc.c ****   *            @arg FSMC_Bank3_NAND: FSMC Bank3 NAND
 800:App/STM32F4-Discovery/Libraries/STM32F4xx_StdPeriph_Driver/src/stm32f4xx_fsmc.c ****   *            @arg FSMC_Bank4_PCCARD: FSMC Bank4 PCCARD
 801:App/STM32F4-Discovery/Libraries/STM32F4xx_StdPeriph_Driver/src/stm32f4xx_fsmc.c ****   * @param  FSMC_FLAG: specifies the flag to check.
 802:App/STM32F4-Discovery/Libraries/STM32F4xx_StdPeriph_Driver/src/stm32f4xx_fsmc.c ****   *          This parameter can be one of the following values:
 803:App/STM32F4-Discovery/Libraries/STM32F4xx_StdPeriph_Driver/src/stm32f4xx_fsmc.c ****   *            @arg FSMC_FLAG_RisingEdge: Rising edge detection Flag.
 804:App/STM32F4-Discovery/Libraries/STM32F4xx_StdPeriph_Driver/src/stm32f4xx_fsmc.c ****   *            @arg FSMC_FLAG_Level: Level detection Flag.
 805:App/STM32F4-Discovery/Libraries/STM32F4xx_StdPeriph_Driver/src/stm32f4xx_fsmc.c ****   *            @arg FSMC_FLAG_FallingEdge: Falling edge detection Flag.
 806:App/STM32F4-Discovery/Libraries/STM32F4xx_StdPeriph_Driver/src/stm32f4xx_fsmc.c ****   *            @arg FSMC_FLAG_FEMPT: Fifo empty Flag. 
 807:App/STM32F4-Discovery/Libraries/STM32F4xx_StdPeriph_Driver/src/stm32f4xx_fsmc.c ****   * @retval The new state of FSMC_FLAG (SET or RESET).
 808:App/STM32F4-Discovery/Libraries/STM32F4xx_StdPeriph_Driver/src/stm32f4xx_fsmc.c ****   */
 809:App/STM32F4-Discovery/Libraries/STM32F4xx_StdPeriph_Driver/src/stm32f4xx_fsmc.c **** FlagStatus FSMC_GetFlagStatus(uint32_t FSMC_Bank, uint32_t FSMC_FLAG)
 810:App/STM32F4-Discovery/Libraries/STM32F4xx_StdPeriph_Driver/src/stm32f4xx_fsmc.c **** {
 2497              		.loc 1 810 0
 2498              		.cfi_startproc
 2499              		@ args = 0, pretend = 0, frame = 16
 2500              		@ frame_needed = 1, uses_anonymous_args = 0
 2501 0000 80B5     		push	{r7, lr}
 2502              	.LCFI44:
 2503              		.cfi_def_cfa_offset 8
 2504              		.cfi_offset 7, -8
 2505              		.cfi_offset 14, -4
 2506 0002 84B0     		sub	sp, sp, #16
 2507              	.LCFI45:
 2508              		.cfi_def_cfa_offset 24
 2509 0004 00AF     		add	r7, sp, #0
 2510              	.LCFI46:
 2511              		.cfi_def_cfa_register 7
 2512 0006 7860     		str	r0, [r7, #4]
 2513 0008 3960     		str	r1, [r7]
 811:App/STM32F4-Discovery/Libraries/STM32F4xx_StdPeriph_Driver/src/stm32f4xx_fsmc.c ****   FlagStatus bitstatus = RESET;
 2514              		.loc 1 811 0
 2515 000a 0023     		movs	r3, #0
 2516 000c FB73     		strb	r3, [r7, #15]
 812:App/STM32F4-Discovery/Libraries/STM32F4xx_StdPeriph_Driver/src/stm32f4xx_fsmc.c ****   uint32_t tmpsr = 0x00000000;
 2517              		.loc 1 812 0
 2518 000e 0023     		movs	r3, #0
 2519 0010 BB60     		str	r3, [r7, #8]
 813:App/STM32F4-Discovery/Libraries/STM32F4xx_StdPeriph_Driver/src/stm32f4xx_fsmc.c ****   
 814:App/STM32F4-Discovery/Libraries/STM32F4xx_StdPeriph_Driver/src/stm32f4xx_fsmc.c ****   /* Check the parameters */
 815:App/STM32F4-Discovery/Libraries/STM32F4xx_StdPeriph_Driver/src/stm32f4xx_fsmc.c ****   assert_param(IS_FSMC_GETFLAG_BANK(FSMC_Bank));
 2520              		.loc 1 815 0
 2521 0012 7B68     		ldr	r3, [r7, #4]
 2522 0014 102B     		cmp	r3, #16
 2523 0016 0CD0     		beq	.L148
 2524              		.loc 1 815 0 is_stmt 0 discriminator 1
 2525 0018 7B68     		ldr	r3, [r7, #4]
 2526 001a B3F5807F 		cmp	r3, #256
 2527 001e 08D0     		beq	.L148
 2528 0020 7B68     		ldr	r3, [r7, #4]
 2529 0022 B3F5805F 		cmp	r3, #4096
 2530 0026 04D0     		beq	.L148
 2531 0028 1B48     		ldr	r0, .L156
 2532 002a 40F22F31 		movw	r1, #815
 2533 002e FFF7FEFF 		bl	assert_failed
 2534              	.L148:
 816:App/STM32F4-Discovery/Libraries/STM32F4xx_StdPeriph_Driver/src/stm32f4xx_fsmc.c ****   assert_param(IS_FSMC_GET_FLAG(FSMC_FLAG));
 2535              		.loc 1 816 0 is_stmt 1
 2536 0032 3B68     		ldr	r3, [r7]
 2537 0034 012B     		cmp	r3, #1
 2538 0036 0DD0     		beq	.L149
 2539              		.loc 1 816 0 is_stmt 0 discriminator 1
 2540 0038 3B68     		ldr	r3, [r7]
 2541 003a 022B     		cmp	r3, #2
 2542 003c 0AD0     		beq	.L149
 2543 003e 3B68     		ldr	r3, [r7]
 2544 0040 042B     		cmp	r3, #4
 2545 0042 07D0     		beq	.L149
 2546 0044 3B68     		ldr	r3, [r7]
 2547 0046 402B     		cmp	r3, #64
 2548 0048 04D0     		beq	.L149
 2549 004a 1348     		ldr	r0, .L156
 2550 004c 4FF44C71 		mov	r1, #816
 2551 0050 FFF7FEFF 		bl	assert_failed
 2552              	.L149:
 817:App/STM32F4-Discovery/Libraries/STM32F4xx_StdPeriph_Driver/src/stm32f4xx_fsmc.c ****   
 818:App/STM32F4-Discovery/Libraries/STM32F4xx_StdPeriph_Driver/src/stm32f4xx_fsmc.c ****   if(FSMC_Bank == FSMC_Bank2_NAND)
 2553              		.loc 1 818 0 is_stmt 1
 2554 0054 7B68     		ldr	r3, [r7, #4]
 2555 0056 102B     		cmp	r3, #16
 2556 0058 03D1     		bne	.L150
 819:App/STM32F4-Discovery/Libraries/STM32F4xx_StdPeriph_Driver/src/stm32f4xx_fsmc.c ****   {
 820:App/STM32F4-Discovery/Libraries/STM32F4xx_StdPeriph_Driver/src/stm32f4xx_fsmc.c ****     tmpsr = FSMC_Bank2->SR2;
 2557              		.loc 1 820 0
 2558 005a 104B     		ldr	r3, .L156+4
 2559 005c 5B68     		ldr	r3, [r3, #4]
 2560 005e BB60     		str	r3, [r7, #8]
 2561 0060 0AE0     		b	.L151
 2562              	.L150:
 821:App/STM32F4-Discovery/Libraries/STM32F4xx_StdPeriph_Driver/src/stm32f4xx_fsmc.c ****   }  
 822:App/STM32F4-Discovery/Libraries/STM32F4xx_StdPeriph_Driver/src/stm32f4xx_fsmc.c ****   else if(FSMC_Bank == FSMC_Bank3_NAND)
 2563              		.loc 1 822 0
 2564 0062 7B68     		ldr	r3, [r7, #4]
 2565 0064 B3F5807F 		cmp	r3, #256
 2566 0068 03D1     		bne	.L152
 823:App/STM32F4-Discovery/Libraries/STM32F4xx_StdPeriph_Driver/src/stm32f4xx_fsmc.c ****   {
 824:App/STM32F4-Discovery/Libraries/STM32F4xx_StdPeriph_Driver/src/stm32f4xx_fsmc.c ****     tmpsr = FSMC_Bank3->SR3;
 2567              		.loc 1 824 0
 2568 006a 0D4B     		ldr	r3, .L156+8
 2569 006c 5B68     		ldr	r3, [r3, #4]
 2570 006e BB60     		str	r3, [r7, #8]
 2571 0070 02E0     		b	.L151
 2572              	.L152:
 825:App/STM32F4-Discovery/Libraries/STM32F4xx_StdPeriph_Driver/src/stm32f4xx_fsmc.c ****   }
 826:App/STM32F4-Discovery/Libraries/STM32F4xx_StdPeriph_Driver/src/stm32f4xx_fsmc.c ****   /* FSMC_Bank4_PCCARD*/
 827:App/STM32F4-Discovery/Libraries/STM32F4xx_StdPeriph_Driver/src/stm32f4xx_fsmc.c ****   else
 828:App/STM32F4-Discovery/Libraries/STM32F4xx_StdPeriph_Driver/src/stm32f4xx_fsmc.c ****   {
 829:App/STM32F4-Discovery/Libraries/STM32F4xx_StdPeriph_Driver/src/stm32f4xx_fsmc.c ****     tmpsr = FSMC_Bank4->SR4;
 2573              		.loc 1 829 0
 2574 0072 0C4B     		ldr	r3, .L156+12
 2575 0074 5B68     		ldr	r3, [r3, #4]
 2576 0076 BB60     		str	r3, [r7, #8]
 2577              	.L151:
 830:App/STM32F4-Discovery/Libraries/STM32F4xx_StdPeriph_Driver/src/stm32f4xx_fsmc.c ****   } 
 831:App/STM32F4-Discovery/Libraries/STM32F4xx_StdPeriph_Driver/src/stm32f4xx_fsmc.c ****   
 832:App/STM32F4-Discovery/Libraries/STM32F4xx_StdPeriph_Driver/src/stm32f4xx_fsmc.c ****   /* Get the flag status */
 833:App/STM32F4-Discovery/Libraries/STM32F4xx_StdPeriph_Driver/src/stm32f4xx_fsmc.c ****   if ((tmpsr & FSMC_FLAG) != (uint16_t)RESET )
 2578              		.loc 1 833 0
 2579 0078 BA68     		ldr	r2, [r7, #8]
 2580 007a 3B68     		ldr	r3, [r7]
 2581 007c 1340     		ands	r3, r3, r2
 2582 007e 002B     		cmp	r3, #0
 2583 0080 02D0     		beq	.L153
 834:App/STM32F4-Discovery/Libraries/STM32F4xx_StdPeriph_Driver/src/stm32f4xx_fsmc.c ****   {
 835:App/STM32F4-Discovery/Libraries/STM32F4xx_StdPeriph_Driver/src/stm32f4xx_fsmc.c ****     bitstatus = SET;
 2584              		.loc 1 835 0
 2585 0082 0123     		movs	r3, #1
 2586 0084 FB73     		strb	r3, [r7, #15]
 2587 0086 01E0     		b	.L154
 2588              	.L153:
 836:App/STM32F4-Discovery/Libraries/STM32F4xx_StdPeriph_Driver/src/stm32f4xx_fsmc.c ****   }
 837:App/STM32F4-Discovery/Libraries/STM32F4xx_StdPeriph_Driver/src/stm32f4xx_fsmc.c ****   else
 838:App/STM32F4-Discovery/Libraries/STM32F4xx_StdPeriph_Driver/src/stm32f4xx_fsmc.c ****   {
 839:App/STM32F4-Discovery/Libraries/STM32F4xx_StdPeriph_Driver/src/stm32f4xx_fsmc.c ****     bitstatus = RESET;
 2589              		.loc 1 839 0
 2590 0088 0023     		movs	r3, #0
 2591 008a FB73     		strb	r3, [r7, #15]
 2592              	.L154:
 840:App/STM32F4-Discovery/Libraries/STM32F4xx_StdPeriph_Driver/src/stm32f4xx_fsmc.c ****   }
 841:App/STM32F4-Discovery/Libraries/STM32F4xx_StdPeriph_Driver/src/stm32f4xx_fsmc.c ****   /* Return the flag status */
 842:App/STM32F4-Discovery/Libraries/STM32F4xx_StdPeriph_Driver/src/stm32f4xx_fsmc.c ****   return bitstatus;
 2593              		.loc 1 842 0
 2594 008c FB7B     		ldrb	r3, [r7, #15]	@ zero_extendqisi2
 843:App/STM32F4-Discovery/Libraries/STM32F4xx_StdPeriph_Driver/src/stm32f4xx_fsmc.c **** }
 2595              		.loc 1 843 0
 2596 008e 1846     		mov	r0, r3
 2597 0090 1037     		adds	r7, r7, #16
 2598 0092 BD46     		mov	sp, r7
 2599              		@ sp needed
 2600 0094 80BD     		pop	{r7, pc}
 2601              	.L157:
 2602 0096 00BF     		.align	2
 2603              	.L156:
 2604 0098 00000000 		.word	.LC0
 2605 009c 600000A0 		.word	-1610612640
 2606 00a0 800000A0 		.word	-1610612608
 2607 00a4 A00000A0 		.word	-1610612576
 2608              		.cfi_endproc
 2609              	.LFE125:
 2611              		.section	.text.FSMC_ClearFlag,"ax",%progbits
 2612              		.align	2
 2613              		.global	FSMC_ClearFlag
 2614              		.thumb
 2615              		.thumb_func
 2617              	FSMC_ClearFlag:
 2618              	.LFB126:
 844:App/STM32F4-Discovery/Libraries/STM32F4xx_StdPeriph_Driver/src/stm32f4xx_fsmc.c **** 
 845:App/STM32F4-Discovery/Libraries/STM32F4xx_StdPeriph_Driver/src/stm32f4xx_fsmc.c **** /**
 846:App/STM32F4-Discovery/Libraries/STM32F4xx_StdPeriph_Driver/src/stm32f4xx_fsmc.c ****   * @brief  Clears the FSMC's pending flags.
 847:App/STM32F4-Discovery/Libraries/STM32F4xx_StdPeriph_Driver/src/stm32f4xx_fsmc.c ****   * @param  FSMC_Bank: specifies the FSMC Bank to be used
 848:App/STM32F4-Discovery/Libraries/STM32F4xx_StdPeriph_Driver/src/stm32f4xx_fsmc.c ****   *          This parameter can be one of the following values:
 849:App/STM32F4-Discovery/Libraries/STM32F4xx_StdPeriph_Driver/src/stm32f4xx_fsmc.c ****   *            @arg FSMC_Bank2_NAND: FSMC Bank2 NAND 
 850:App/STM32F4-Discovery/Libraries/STM32F4xx_StdPeriph_Driver/src/stm32f4xx_fsmc.c ****   *            @arg FSMC_Bank3_NAND: FSMC Bank3 NAND
 851:App/STM32F4-Discovery/Libraries/STM32F4xx_StdPeriph_Driver/src/stm32f4xx_fsmc.c ****   *            @arg FSMC_Bank4_PCCARD: FSMC Bank4 PCCARD
 852:App/STM32F4-Discovery/Libraries/STM32F4xx_StdPeriph_Driver/src/stm32f4xx_fsmc.c ****   * @param  FSMC_FLAG: specifies the flag to clear.
 853:App/STM32F4-Discovery/Libraries/STM32F4xx_StdPeriph_Driver/src/stm32f4xx_fsmc.c ****   *          This parameter can be any combination of the following values:
 854:App/STM32F4-Discovery/Libraries/STM32F4xx_StdPeriph_Driver/src/stm32f4xx_fsmc.c ****   *            @arg FSMC_FLAG_RisingEdge: Rising edge detection Flag.
 855:App/STM32F4-Discovery/Libraries/STM32F4xx_StdPeriph_Driver/src/stm32f4xx_fsmc.c ****   *            @arg FSMC_FLAG_Level: Level detection Flag.
 856:App/STM32F4-Discovery/Libraries/STM32F4xx_StdPeriph_Driver/src/stm32f4xx_fsmc.c ****   *            @arg FSMC_FLAG_FallingEdge: Falling edge detection Flag.
 857:App/STM32F4-Discovery/Libraries/STM32F4xx_StdPeriph_Driver/src/stm32f4xx_fsmc.c ****   * @retval None
 858:App/STM32F4-Discovery/Libraries/STM32F4xx_StdPeriph_Driver/src/stm32f4xx_fsmc.c ****   */
 859:App/STM32F4-Discovery/Libraries/STM32F4xx_StdPeriph_Driver/src/stm32f4xx_fsmc.c **** void FSMC_ClearFlag(uint32_t FSMC_Bank, uint32_t FSMC_FLAG)
 860:App/STM32F4-Discovery/Libraries/STM32F4xx_StdPeriph_Driver/src/stm32f4xx_fsmc.c **** {
 2619              		.loc 1 860 0
 2620              		.cfi_startproc
 2621              		@ args = 0, pretend = 0, frame = 8
 2622              		@ frame_needed = 1, uses_anonymous_args = 0
 2623 0000 80B5     		push	{r7, lr}
 2624              	.LCFI47:
 2625              		.cfi_def_cfa_offset 8
 2626              		.cfi_offset 7, -8
 2627              		.cfi_offset 14, -4
 2628 0002 82B0     		sub	sp, sp, #8
 2629              	.LCFI48:
 2630              		.cfi_def_cfa_offset 16
 2631 0004 00AF     		add	r7, sp, #0
 2632              	.LCFI49:
 2633              		.cfi_def_cfa_register 7
 2634 0006 7860     		str	r0, [r7, #4]
 2635 0008 3960     		str	r1, [r7]
 861:App/STM32F4-Discovery/Libraries/STM32F4xx_StdPeriph_Driver/src/stm32f4xx_fsmc.c ****  /* Check the parameters */
 862:App/STM32F4-Discovery/Libraries/STM32F4xx_StdPeriph_Driver/src/stm32f4xx_fsmc.c ****   assert_param(IS_FSMC_GETFLAG_BANK(FSMC_Bank));
 2636              		.loc 1 862 0
 2637 000a 7B68     		ldr	r3, [r7, #4]
 2638 000c 102B     		cmp	r3, #16
 2639 000e 0CD0     		beq	.L159
 2640              		.loc 1 862 0 is_stmt 0 discriminator 1
 2641 0010 7B68     		ldr	r3, [r7, #4]
 2642 0012 B3F5807F 		cmp	r3, #256
 2643 0016 08D0     		beq	.L159
 2644 0018 7B68     		ldr	r3, [r7, #4]
 2645 001a B3F5805F 		cmp	r3, #4096
 2646 001e 04D0     		beq	.L159
 2647 0020 1948     		ldr	r0, .L165
 2648 0022 40F25E31 		movw	r1, #862
 2649 0026 FFF7FEFF 		bl	assert_failed
 2650              	.L159:
 863:App/STM32F4-Discovery/Libraries/STM32F4xx_StdPeriph_Driver/src/stm32f4xx_fsmc.c ****   assert_param(IS_FSMC_CLEAR_FLAG(FSMC_FLAG)) ;
 2651              		.loc 1 863 0 is_stmt 1
 2652 002a 3B68     		ldr	r3, [r7]
 2653 002c 23F00703 		bic	r3, r3, #7
 2654 0030 002B     		cmp	r3, #0
 2655 0032 02D1     		bne	.L160
 2656              		.loc 1 863 0 is_stmt 0 discriminator 2
 2657 0034 3B68     		ldr	r3, [r7]
 2658 0036 002B     		cmp	r3, #0
 2659 0038 04D1     		bne	.L161
 2660              	.L160:
 2661              		.loc 1 863 0 discriminator 1
 2662 003a 1348     		ldr	r0, .L165
 2663 003c 40F25F31 		movw	r1, #863
 2664 0040 FFF7FEFF 		bl	assert_failed
 2665              	.L161:
 864:App/STM32F4-Discovery/Libraries/STM32F4xx_StdPeriph_Driver/src/stm32f4xx_fsmc.c ****     
 865:App/STM32F4-Discovery/Libraries/STM32F4xx_StdPeriph_Driver/src/stm32f4xx_fsmc.c ****   if(FSMC_Bank == FSMC_Bank2_NAND)
 2666              		.loc 1 865 0 is_stmt 1
 2667 0044 7B68     		ldr	r3, [r7, #4]
 2668 0046 102B     		cmp	r3, #16
 2669 0048 07D1     		bne	.L162
 866:App/STM32F4-Discovery/Libraries/STM32F4xx_StdPeriph_Driver/src/stm32f4xx_fsmc.c ****   {
 867:App/STM32F4-Discovery/Libraries/STM32F4xx_StdPeriph_Driver/src/stm32f4xx_fsmc.c ****     FSMC_Bank2->SR2 &= ~FSMC_FLAG; 
 2670              		.loc 1 867 0
 2671 004a 104B     		ldr	r3, .L165+4
 2672 004c 0F4A     		ldr	r2, .L165+4
 2673 004e 5168     		ldr	r1, [r2, #4]
 2674 0050 3A68     		ldr	r2, [r7]
 2675 0052 D243     		mvns	r2, r2
 2676 0054 0A40     		ands	r2, r2, r1
 2677 0056 5A60     		str	r2, [r3, #4]
 2678 0058 12E0     		b	.L158
 2679              	.L162:
 868:App/STM32F4-Discovery/Libraries/STM32F4xx_StdPeriph_Driver/src/stm32f4xx_fsmc.c ****   }  
 869:App/STM32F4-Discovery/Libraries/STM32F4xx_StdPeriph_Driver/src/stm32f4xx_fsmc.c ****   else if(FSMC_Bank == FSMC_Bank3_NAND)
 2680              		.loc 1 869 0
 2681 005a 7B68     		ldr	r3, [r7, #4]
 2682 005c B3F5807F 		cmp	r3, #256
 2683 0060 07D1     		bne	.L164
 870:App/STM32F4-Discovery/Libraries/STM32F4xx_StdPeriph_Driver/src/stm32f4xx_fsmc.c ****   {
 871:App/STM32F4-Discovery/Libraries/STM32F4xx_StdPeriph_Driver/src/stm32f4xx_fsmc.c ****     FSMC_Bank3->SR3 &= ~FSMC_FLAG;
 2684              		.loc 1 871 0
 2685 0062 0B4B     		ldr	r3, .L165+8
 2686 0064 0A4A     		ldr	r2, .L165+8
 2687 0066 5168     		ldr	r1, [r2, #4]
 2688 0068 3A68     		ldr	r2, [r7]
 2689 006a D243     		mvns	r2, r2
 2690 006c 0A40     		ands	r2, r2, r1
 2691 006e 5A60     		str	r2, [r3, #4]
 2692 0070 06E0     		b	.L158
 2693              	.L164:
 872:App/STM32F4-Discovery/Libraries/STM32F4xx_StdPeriph_Driver/src/stm32f4xx_fsmc.c ****   }
 873:App/STM32F4-Discovery/Libraries/STM32F4xx_StdPeriph_Driver/src/stm32f4xx_fsmc.c ****   /* FSMC_Bank4_PCCARD*/
 874:App/STM32F4-Discovery/Libraries/STM32F4xx_StdPeriph_Driver/src/stm32f4xx_fsmc.c ****   else
 875:App/STM32F4-Discovery/Libraries/STM32F4xx_StdPeriph_Driver/src/stm32f4xx_fsmc.c ****   {
 876:App/STM32F4-Discovery/Libraries/STM32F4xx_StdPeriph_Driver/src/stm32f4xx_fsmc.c ****     FSMC_Bank4->SR4 &= ~FSMC_FLAG;
 2694              		.loc 1 876 0
 2695 0072 084B     		ldr	r3, .L165+12
 2696 0074 074A     		ldr	r2, .L165+12
 2697 0076 5168     		ldr	r1, [r2, #4]
 2698 0078 3A68     		ldr	r2, [r7]
 2699 007a D243     		mvns	r2, r2
 2700 007c 0A40     		ands	r2, r2, r1
 2701 007e 5A60     		str	r2, [r3, #4]
 2702              	.L158:
 877:App/STM32F4-Discovery/Libraries/STM32F4xx_StdPeriph_Driver/src/stm32f4xx_fsmc.c ****   }
 878:App/STM32F4-Discovery/Libraries/STM32F4xx_StdPeriph_Driver/src/stm32f4xx_fsmc.c **** }
 2703              		.loc 1 878 0
 2704 0080 0837     		adds	r7, r7, #8
 2705 0082 BD46     		mov	sp, r7
 2706              		@ sp needed
 2707 0084 80BD     		pop	{r7, pc}
 2708              	.L166:
 2709 0086 00BF     		.align	2
 2710              	.L165:
 2711 0088 00000000 		.word	.LC0
 2712 008c 600000A0 		.word	-1610612640
 2713 0090 800000A0 		.word	-1610612608
 2714 0094 A00000A0 		.word	-1610612576
 2715              		.cfi_endproc
 2716              	.LFE126:
 2718              		.section	.text.FSMC_GetITStatus,"ax",%progbits
 2719              		.align	2
 2720              		.global	FSMC_GetITStatus
 2721              		.thumb
 2722              		.thumb_func
 2724              	FSMC_GetITStatus:
 2725              	.LFB127:
 879:App/STM32F4-Discovery/Libraries/STM32F4xx_StdPeriph_Driver/src/stm32f4xx_fsmc.c **** 
 880:App/STM32F4-Discovery/Libraries/STM32F4xx_StdPeriph_Driver/src/stm32f4xx_fsmc.c **** /**
 881:App/STM32F4-Discovery/Libraries/STM32F4xx_StdPeriph_Driver/src/stm32f4xx_fsmc.c ****   * @brief  Checks whether the specified FSMC interrupt has occurred or not.
 882:App/STM32F4-Discovery/Libraries/STM32F4xx_StdPeriph_Driver/src/stm32f4xx_fsmc.c ****   * @param  FSMC_Bank: specifies the FSMC Bank to be used
 883:App/STM32F4-Discovery/Libraries/STM32F4xx_StdPeriph_Driver/src/stm32f4xx_fsmc.c ****   *          This parameter can be one of the following values:
 884:App/STM32F4-Discovery/Libraries/STM32F4xx_StdPeriph_Driver/src/stm32f4xx_fsmc.c ****   *            @arg FSMC_Bank2_NAND: FSMC Bank2 NAND 
 885:App/STM32F4-Discovery/Libraries/STM32F4xx_StdPeriph_Driver/src/stm32f4xx_fsmc.c ****   *            @arg FSMC_Bank3_NAND: FSMC Bank3 NAND
 886:App/STM32F4-Discovery/Libraries/STM32F4xx_StdPeriph_Driver/src/stm32f4xx_fsmc.c ****   *            @arg FSMC_Bank4_PCCARD: FSMC Bank4 PCCARD
 887:App/STM32F4-Discovery/Libraries/STM32F4xx_StdPeriph_Driver/src/stm32f4xx_fsmc.c ****   * @param  FSMC_IT: specifies the FSMC interrupt source to check.
 888:App/STM32F4-Discovery/Libraries/STM32F4xx_StdPeriph_Driver/src/stm32f4xx_fsmc.c ****   *          This parameter can be one of the following values:
 889:App/STM32F4-Discovery/Libraries/STM32F4xx_StdPeriph_Driver/src/stm32f4xx_fsmc.c ****   *            @arg FSMC_IT_RisingEdge: Rising edge detection interrupt. 
 890:App/STM32F4-Discovery/Libraries/STM32F4xx_StdPeriph_Driver/src/stm32f4xx_fsmc.c ****   *            @arg FSMC_IT_Level: Level edge detection interrupt.
 891:App/STM32F4-Discovery/Libraries/STM32F4xx_StdPeriph_Driver/src/stm32f4xx_fsmc.c ****   *            @arg FSMC_IT_FallingEdge: Falling edge detection interrupt. 
 892:App/STM32F4-Discovery/Libraries/STM32F4xx_StdPeriph_Driver/src/stm32f4xx_fsmc.c ****   * @retval The new state of FSMC_IT (SET or RESET).
 893:App/STM32F4-Discovery/Libraries/STM32F4xx_StdPeriph_Driver/src/stm32f4xx_fsmc.c ****   */
 894:App/STM32F4-Discovery/Libraries/STM32F4xx_StdPeriph_Driver/src/stm32f4xx_fsmc.c **** ITStatus FSMC_GetITStatus(uint32_t FSMC_Bank, uint32_t FSMC_IT)
 895:App/STM32F4-Discovery/Libraries/STM32F4xx_StdPeriph_Driver/src/stm32f4xx_fsmc.c **** {
 2726              		.loc 1 895 0
 2727              		.cfi_startproc
 2728              		@ args = 0, pretend = 0, frame = 24
 2729              		@ frame_needed = 1, uses_anonymous_args = 0
 2730 0000 80B5     		push	{r7, lr}
 2731              	.LCFI50:
 2732              		.cfi_def_cfa_offset 8
 2733              		.cfi_offset 7, -8
 2734              		.cfi_offset 14, -4
 2735 0002 86B0     		sub	sp, sp, #24
 2736              	.LCFI51:
 2737              		.cfi_def_cfa_offset 32
 2738 0004 00AF     		add	r7, sp, #0
 2739              	.LCFI52:
 2740              		.cfi_def_cfa_register 7
 2741 0006 7860     		str	r0, [r7, #4]
 2742 0008 3960     		str	r1, [r7]
 896:App/STM32F4-Discovery/Libraries/STM32F4xx_StdPeriph_Driver/src/stm32f4xx_fsmc.c ****   ITStatus bitstatus = RESET;
 2743              		.loc 1 896 0
 2744 000a 0023     		movs	r3, #0
 2745 000c FB75     		strb	r3, [r7, #23]
 897:App/STM32F4-Discovery/Libraries/STM32F4xx_StdPeriph_Driver/src/stm32f4xx_fsmc.c ****   uint32_t tmpsr = 0x0, itstatus = 0x0, itenable = 0x0; 
 2746              		.loc 1 897 0
 2747 000e 0023     		movs	r3, #0
 2748 0010 3B61     		str	r3, [r7, #16]
 2749 0012 0023     		movs	r3, #0
 2750 0014 FB60     		str	r3, [r7, #12]
 2751 0016 0023     		movs	r3, #0
 2752 0018 BB60     		str	r3, [r7, #8]
 898:App/STM32F4-Discovery/Libraries/STM32F4xx_StdPeriph_Driver/src/stm32f4xx_fsmc.c ****   
 899:App/STM32F4-Discovery/Libraries/STM32F4xx_StdPeriph_Driver/src/stm32f4xx_fsmc.c ****   /* Check the parameters */
 900:App/STM32F4-Discovery/Libraries/STM32F4xx_StdPeriph_Driver/src/stm32f4xx_fsmc.c ****   assert_param(IS_FSMC_IT_BANK(FSMC_Bank));
 2753              		.loc 1 900 0
 2754 001a 7B68     		ldr	r3, [r7, #4]
 2755 001c 102B     		cmp	r3, #16
 2756 001e 0CD0     		beq	.L168
 2757              		.loc 1 900 0 is_stmt 0 discriminator 1
 2758 0020 7B68     		ldr	r3, [r7, #4]
 2759 0022 B3F5807F 		cmp	r3, #256
 2760 0026 08D0     		beq	.L168
 2761 0028 7B68     		ldr	r3, [r7, #4]
 2762 002a B3F5805F 		cmp	r3, #4096
 2763 002e 04D0     		beq	.L168
 2764 0030 1E48     		ldr	r0, .L176
 2765 0032 4FF46171 		mov	r1, #900
 2766 0036 FFF7FEFF 		bl	assert_failed
 2767              	.L168:
 901:App/STM32F4-Discovery/Libraries/STM32F4xx_StdPeriph_Driver/src/stm32f4xx_fsmc.c ****   assert_param(IS_FSMC_GET_IT(FSMC_IT));
 2768              		.loc 1 901 0 is_stmt 1
 2769 003a 3B68     		ldr	r3, [r7]
 2770 003c 082B     		cmp	r3, #8
 2771 003e 0AD0     		beq	.L169
 2772              		.loc 1 901 0 is_stmt 0 discriminator 1
 2773 0040 3B68     		ldr	r3, [r7]
 2774 0042 102B     		cmp	r3, #16
 2775 0044 07D0     		beq	.L169
 2776 0046 3B68     		ldr	r3, [r7]
 2777 0048 202B     		cmp	r3, #32
 2778 004a 04D0     		beq	.L169
 2779 004c 1748     		ldr	r0, .L176
 2780 004e 40F28531 		movw	r1, #901
 2781 0052 FFF7FEFF 		bl	assert_failed
 2782              	.L169:
 902:App/STM32F4-Discovery/Libraries/STM32F4xx_StdPeriph_Driver/src/stm32f4xx_fsmc.c ****   
 903:App/STM32F4-Discovery/Libraries/STM32F4xx_StdPeriph_Driver/src/stm32f4xx_fsmc.c ****   if(FSMC_Bank == FSMC_Bank2_NAND)
 2783              		.loc 1 903 0 is_stmt 1
 2784 0056 7B68     		ldr	r3, [r7, #4]
 2785 0058 102B     		cmp	r3, #16
 2786 005a 03D1     		bne	.L170
 904:App/STM32F4-Discovery/Libraries/STM32F4xx_StdPeriph_Driver/src/stm32f4xx_fsmc.c ****   {
 905:App/STM32F4-Discovery/Libraries/STM32F4xx_StdPeriph_Driver/src/stm32f4xx_fsmc.c ****     tmpsr = FSMC_Bank2->SR2;
 2787              		.loc 1 905 0
 2788 005c 144B     		ldr	r3, .L176+4
 2789 005e 5B68     		ldr	r3, [r3, #4]
 2790 0060 3B61     		str	r3, [r7, #16]
 2791 0062 0AE0     		b	.L171
 2792              	.L170:
 906:App/STM32F4-Discovery/Libraries/STM32F4xx_StdPeriph_Driver/src/stm32f4xx_fsmc.c ****   }  
 907:App/STM32F4-Discovery/Libraries/STM32F4xx_StdPeriph_Driver/src/stm32f4xx_fsmc.c ****   else if(FSMC_Bank == FSMC_Bank3_NAND)
 2793              		.loc 1 907 0
 2794 0064 7B68     		ldr	r3, [r7, #4]
 2795 0066 B3F5807F 		cmp	r3, #256
 2796 006a 03D1     		bne	.L172
 908:App/STM32F4-Discovery/Libraries/STM32F4xx_StdPeriph_Driver/src/stm32f4xx_fsmc.c ****   {
 909:App/STM32F4-Discovery/Libraries/STM32F4xx_StdPeriph_Driver/src/stm32f4xx_fsmc.c ****     tmpsr = FSMC_Bank3->SR3;
 2797              		.loc 1 909 0
 2798 006c 114B     		ldr	r3, .L176+8
 2799 006e 5B68     		ldr	r3, [r3, #4]
 2800 0070 3B61     		str	r3, [r7, #16]
 2801 0072 02E0     		b	.L171
 2802              	.L172:
 910:App/STM32F4-Discovery/Libraries/STM32F4xx_StdPeriph_Driver/src/stm32f4xx_fsmc.c ****   }
 911:App/STM32F4-Discovery/Libraries/STM32F4xx_StdPeriph_Driver/src/stm32f4xx_fsmc.c ****   /* FSMC_Bank4_PCCARD*/
 912:App/STM32F4-Discovery/Libraries/STM32F4xx_StdPeriph_Driver/src/stm32f4xx_fsmc.c ****   else
 913:App/STM32F4-Discovery/Libraries/STM32F4xx_StdPeriph_Driver/src/stm32f4xx_fsmc.c ****   {
 914:App/STM32F4-Discovery/Libraries/STM32F4xx_StdPeriph_Driver/src/stm32f4xx_fsmc.c ****     tmpsr = FSMC_Bank4->SR4;
 2803              		.loc 1 914 0
 2804 0074 104B     		ldr	r3, .L176+12
 2805 0076 5B68     		ldr	r3, [r3, #4]
 2806 0078 3B61     		str	r3, [r7, #16]
 2807              	.L171:
 915:App/STM32F4-Discovery/Libraries/STM32F4xx_StdPeriph_Driver/src/stm32f4xx_fsmc.c ****   } 
 916:App/STM32F4-Discovery/Libraries/STM32F4xx_StdPeriph_Driver/src/stm32f4xx_fsmc.c ****   
 917:App/STM32F4-Discovery/Libraries/STM32F4xx_StdPeriph_Driver/src/stm32f4xx_fsmc.c ****   itstatus = tmpsr & FSMC_IT;
 2808              		.loc 1 917 0
 2809 007a 3A69     		ldr	r2, [r7, #16]
 2810 007c 3B68     		ldr	r3, [r7]
 2811 007e 1340     		ands	r3, r3, r2
 2812 0080 FB60     		str	r3, [r7, #12]
 918:App/STM32F4-Discovery/Libraries/STM32F4xx_StdPeriph_Driver/src/stm32f4xx_fsmc.c ****   
 919:App/STM32F4-Discovery/Libraries/STM32F4xx_StdPeriph_Driver/src/stm32f4xx_fsmc.c ****   itenable = tmpsr & (FSMC_IT >> 3);
 2813              		.loc 1 919 0
 2814 0082 3B68     		ldr	r3, [r7]
 2815 0084 DA08     		lsrs	r2, r3, #3
 2816 0086 3B69     		ldr	r3, [r7, #16]
 2817 0088 1340     		ands	r3, r3, r2
 2818 008a BB60     		str	r3, [r7, #8]
 920:App/STM32F4-Discovery/Libraries/STM32F4xx_StdPeriph_Driver/src/stm32f4xx_fsmc.c ****   if ((itstatus != (uint32_t)RESET)  && (itenable != (uint32_t)RESET))
 2819              		.loc 1 920 0
 2820 008c FB68     		ldr	r3, [r7, #12]
 2821 008e 002B     		cmp	r3, #0
 2822 0090 05D0     		beq	.L173
 2823              		.loc 1 920 0 is_stmt 0 discriminator 1
 2824 0092 BB68     		ldr	r3, [r7, #8]
 2825 0094 002B     		cmp	r3, #0
 2826 0096 02D0     		beq	.L173
 921:App/STM32F4-Discovery/Libraries/STM32F4xx_StdPeriph_Driver/src/stm32f4xx_fsmc.c ****   {
 922:App/STM32F4-Discovery/Libraries/STM32F4xx_StdPeriph_Driver/src/stm32f4xx_fsmc.c ****     bitstatus = SET;
 2827              		.loc 1 922 0 is_stmt 1
 2828 0098 0123     		movs	r3, #1
 2829 009a FB75     		strb	r3, [r7, #23]
 2830 009c 01E0     		b	.L174
 2831              	.L173:
 923:App/STM32F4-Discovery/Libraries/STM32F4xx_StdPeriph_Driver/src/stm32f4xx_fsmc.c ****   }
 924:App/STM32F4-Discovery/Libraries/STM32F4xx_StdPeriph_Driver/src/stm32f4xx_fsmc.c ****   else
 925:App/STM32F4-Discovery/Libraries/STM32F4xx_StdPeriph_Driver/src/stm32f4xx_fsmc.c ****   {
 926:App/STM32F4-Discovery/Libraries/STM32F4xx_StdPeriph_Driver/src/stm32f4xx_fsmc.c ****     bitstatus = RESET;
 2832              		.loc 1 926 0
 2833 009e 0023     		movs	r3, #0
 2834 00a0 FB75     		strb	r3, [r7, #23]
 2835              	.L174:
 927:App/STM32F4-Discovery/Libraries/STM32F4xx_StdPeriph_Driver/src/stm32f4xx_fsmc.c ****   }
 928:App/STM32F4-Discovery/Libraries/STM32F4xx_StdPeriph_Driver/src/stm32f4xx_fsmc.c ****   return bitstatus; 
 2836              		.loc 1 928 0
 2837 00a2 FB7D     		ldrb	r3, [r7, #23]	@ zero_extendqisi2
 929:App/STM32F4-Discovery/Libraries/STM32F4xx_StdPeriph_Driver/src/stm32f4xx_fsmc.c **** }
 2838              		.loc 1 929 0
 2839 00a4 1846     		mov	r0, r3
 2840 00a6 1837     		adds	r7, r7, #24
 2841 00a8 BD46     		mov	sp, r7
 2842              		@ sp needed
 2843 00aa 80BD     		pop	{r7, pc}
 2844              	.L177:
 2845              		.align	2
 2846              	.L176:
 2847 00ac 00000000 		.word	.LC0
 2848 00b0 600000A0 		.word	-1610612640
 2849 00b4 800000A0 		.word	-1610612608
 2850 00b8 A00000A0 		.word	-1610612576
 2851              		.cfi_endproc
 2852              	.LFE127:
 2854              		.section	.text.FSMC_ClearITPendingBit,"ax",%progbits
 2855              		.align	2
 2856              		.global	FSMC_ClearITPendingBit
 2857              		.thumb
 2858              		.thumb_func
 2860              	FSMC_ClearITPendingBit:
 2861              	.LFB128:
 930:App/STM32F4-Discovery/Libraries/STM32F4xx_StdPeriph_Driver/src/stm32f4xx_fsmc.c **** 
 931:App/STM32F4-Discovery/Libraries/STM32F4xx_StdPeriph_Driver/src/stm32f4xx_fsmc.c **** /**
 932:App/STM32F4-Discovery/Libraries/STM32F4xx_StdPeriph_Driver/src/stm32f4xx_fsmc.c ****   * @brief  Clears the FSMC's interrupt pending bits.
 933:App/STM32F4-Discovery/Libraries/STM32F4xx_StdPeriph_Driver/src/stm32f4xx_fsmc.c ****   * @param  FSMC_Bank: specifies the FSMC Bank to be used
 934:App/STM32F4-Discovery/Libraries/STM32F4xx_StdPeriph_Driver/src/stm32f4xx_fsmc.c ****   *          This parameter can be one of the following values:
 935:App/STM32F4-Discovery/Libraries/STM32F4xx_StdPeriph_Driver/src/stm32f4xx_fsmc.c ****   *            @arg FSMC_Bank2_NAND: FSMC Bank2 NAND 
 936:App/STM32F4-Discovery/Libraries/STM32F4xx_StdPeriph_Driver/src/stm32f4xx_fsmc.c ****   *            @arg FSMC_Bank3_NAND: FSMC Bank3 NAND
 937:App/STM32F4-Discovery/Libraries/STM32F4xx_StdPeriph_Driver/src/stm32f4xx_fsmc.c ****   *            @arg FSMC_Bank4_PCCARD: FSMC Bank4 PCCARD
 938:App/STM32F4-Discovery/Libraries/STM32F4xx_StdPeriph_Driver/src/stm32f4xx_fsmc.c ****   * @param  FSMC_IT: specifies the interrupt pending bit to clear.
 939:App/STM32F4-Discovery/Libraries/STM32F4xx_StdPeriph_Driver/src/stm32f4xx_fsmc.c ****   *          This parameter can be any combination of the following values:
 940:App/STM32F4-Discovery/Libraries/STM32F4xx_StdPeriph_Driver/src/stm32f4xx_fsmc.c ****   *            @arg FSMC_IT_RisingEdge: Rising edge detection interrupt. 
 941:App/STM32F4-Discovery/Libraries/STM32F4xx_StdPeriph_Driver/src/stm32f4xx_fsmc.c ****   *            @arg FSMC_IT_Level: Level edge detection interrupt.
 942:App/STM32F4-Discovery/Libraries/STM32F4xx_StdPeriph_Driver/src/stm32f4xx_fsmc.c ****   *            @arg FSMC_IT_FallingEdge: Falling edge detection interrupt.
 943:App/STM32F4-Discovery/Libraries/STM32F4xx_StdPeriph_Driver/src/stm32f4xx_fsmc.c ****   * @retval None
 944:App/STM32F4-Discovery/Libraries/STM32F4xx_StdPeriph_Driver/src/stm32f4xx_fsmc.c ****   */
 945:App/STM32F4-Discovery/Libraries/STM32F4xx_StdPeriph_Driver/src/stm32f4xx_fsmc.c **** void FSMC_ClearITPendingBit(uint32_t FSMC_Bank, uint32_t FSMC_IT)
 946:App/STM32F4-Discovery/Libraries/STM32F4xx_StdPeriph_Driver/src/stm32f4xx_fsmc.c **** {
 2862              		.loc 1 946 0
 2863              		.cfi_startproc
 2864              		@ args = 0, pretend = 0, frame = 8
 2865              		@ frame_needed = 1, uses_anonymous_args = 0
 2866 0000 80B5     		push	{r7, lr}
 2867              	.LCFI53:
 2868              		.cfi_def_cfa_offset 8
 2869              		.cfi_offset 7, -8
 2870              		.cfi_offset 14, -4
 2871 0002 82B0     		sub	sp, sp, #8
 2872              	.LCFI54:
 2873              		.cfi_def_cfa_offset 16
 2874 0004 00AF     		add	r7, sp, #0
 2875              	.LCFI55:
 2876              		.cfi_def_cfa_register 7
 2877 0006 7860     		str	r0, [r7, #4]
 2878 0008 3960     		str	r1, [r7]
 947:App/STM32F4-Discovery/Libraries/STM32F4xx_StdPeriph_Driver/src/stm32f4xx_fsmc.c ****   /* Check the parameters */
 948:App/STM32F4-Discovery/Libraries/STM32F4xx_StdPeriph_Driver/src/stm32f4xx_fsmc.c ****   assert_param(IS_FSMC_IT_BANK(FSMC_Bank));
 2879              		.loc 1 948 0
 2880 000a 7B68     		ldr	r3, [r7, #4]
 2881 000c 102B     		cmp	r3, #16
 2882 000e 0CD0     		beq	.L179
 2883              		.loc 1 948 0 is_stmt 0 discriminator 1
 2884 0010 7B68     		ldr	r3, [r7, #4]
 2885 0012 B3F5807F 		cmp	r3, #256
 2886 0016 08D0     		beq	.L179
 2887 0018 7B68     		ldr	r3, [r7, #4]
 2888 001a B3F5805F 		cmp	r3, #4096
 2889 001e 04D0     		beq	.L179
 2890 0020 1A48     		ldr	r0, .L185
 2891 0022 4FF46D71 		mov	r1, #948
 2892 0026 FFF7FEFF 		bl	assert_failed
 2893              	.L179:
 949:App/STM32F4-Discovery/Libraries/STM32F4xx_StdPeriph_Driver/src/stm32f4xx_fsmc.c ****   assert_param(IS_FSMC_IT(FSMC_IT));
 2894              		.loc 1 949 0 is_stmt 1
 2895 002a 3B68     		ldr	r3, [r7]
 2896 002c 23F03803 		bic	r3, r3, #56
 2897 0030 002B     		cmp	r3, #0
 2898 0032 02D1     		bne	.L180
 2899              		.loc 1 949 0 is_stmt 0 discriminator 2
 2900 0034 3B68     		ldr	r3, [r7]
 2901 0036 002B     		cmp	r3, #0
 2902 0038 04D1     		bne	.L181
 2903              	.L180:
 2904              		.loc 1 949 0 discriminator 1
 2905 003a 1448     		ldr	r0, .L185
 2906 003c 40F2B531 		movw	r1, #949
 2907 0040 FFF7FEFF 		bl	assert_failed
 2908              	.L181:
 950:App/STM32F4-Discovery/Libraries/STM32F4xx_StdPeriph_Driver/src/stm32f4xx_fsmc.c ****     
 951:App/STM32F4-Discovery/Libraries/STM32F4xx_StdPeriph_Driver/src/stm32f4xx_fsmc.c ****   if(FSMC_Bank == FSMC_Bank2_NAND)
 2909              		.loc 1 951 0 is_stmt 1
 2910 0044 7B68     		ldr	r3, [r7, #4]
 2911 0046 102B     		cmp	r3, #16
 2912 0048 08D1     		bne	.L182
 952:App/STM32F4-Discovery/Libraries/STM32F4xx_StdPeriph_Driver/src/stm32f4xx_fsmc.c ****   {
 953:App/STM32F4-Discovery/Libraries/STM32F4xx_StdPeriph_Driver/src/stm32f4xx_fsmc.c ****     FSMC_Bank2->SR2 &= ~(FSMC_IT >> 3); 
 2913              		.loc 1 953 0
 2914 004a 114B     		ldr	r3, .L185+4
 2915 004c 104A     		ldr	r2, .L185+4
 2916 004e 5168     		ldr	r1, [r2, #4]
 2917 0050 3A68     		ldr	r2, [r7]
 2918 0052 D208     		lsrs	r2, r2, #3
 2919 0054 D243     		mvns	r2, r2
 2920 0056 0A40     		ands	r2, r2, r1
 2921 0058 5A60     		str	r2, [r3, #4]
 2922 005a 14E0     		b	.L178
 2923              	.L182:
 954:App/STM32F4-Discovery/Libraries/STM32F4xx_StdPeriph_Driver/src/stm32f4xx_fsmc.c ****   }  
 955:App/STM32F4-Discovery/Libraries/STM32F4xx_StdPeriph_Driver/src/stm32f4xx_fsmc.c ****   else if(FSMC_Bank == FSMC_Bank3_NAND)
 2924              		.loc 1 955 0
 2925 005c 7B68     		ldr	r3, [r7, #4]
 2926 005e B3F5807F 		cmp	r3, #256
 2927 0062 08D1     		bne	.L184
 956:App/STM32F4-Discovery/Libraries/STM32F4xx_StdPeriph_Driver/src/stm32f4xx_fsmc.c ****   {
 957:App/STM32F4-Discovery/Libraries/STM32F4xx_StdPeriph_Driver/src/stm32f4xx_fsmc.c ****     FSMC_Bank3->SR3 &= ~(FSMC_IT >> 3);
 2928              		.loc 1 957 0
 2929 0064 0B4B     		ldr	r3, .L185+8
 2930 0066 0B4A     		ldr	r2, .L185+8
 2931 0068 5168     		ldr	r1, [r2, #4]
 2932 006a 3A68     		ldr	r2, [r7]
 2933 006c D208     		lsrs	r2, r2, #3
 2934 006e D243     		mvns	r2, r2
 2935 0070 0A40     		ands	r2, r2, r1
 2936 0072 5A60     		str	r2, [r3, #4]
 2937 0074 07E0     		b	.L178
 2938              	.L184:
 958:App/STM32F4-Discovery/Libraries/STM32F4xx_StdPeriph_Driver/src/stm32f4xx_fsmc.c ****   }
 959:App/STM32F4-Discovery/Libraries/STM32F4xx_StdPeriph_Driver/src/stm32f4xx_fsmc.c ****   /* FSMC_Bank4_PCCARD*/
 960:App/STM32F4-Discovery/Libraries/STM32F4xx_StdPeriph_Driver/src/stm32f4xx_fsmc.c ****   else
 961:App/STM32F4-Discovery/Libraries/STM32F4xx_StdPeriph_Driver/src/stm32f4xx_fsmc.c ****   {
 962:App/STM32F4-Discovery/Libraries/STM32F4xx_StdPeriph_Driver/src/stm32f4xx_fsmc.c ****     FSMC_Bank4->SR4 &= ~(FSMC_IT >> 3);
 2939              		.loc 1 962 0
 2940 0076 084B     		ldr	r3, .L185+12
 2941 0078 074A     		ldr	r2, .L185+12
 2942 007a 5168     		ldr	r1, [r2, #4]
 2943 007c 3A68     		ldr	r2, [r7]
 2944 007e D208     		lsrs	r2, r2, #3
 2945 0080 D243     		mvns	r2, r2
 2946 0082 0A40     		ands	r2, r2, r1
 2947 0084 5A60     		str	r2, [r3, #4]
 2948              	.L178:
 963:App/STM32F4-Discovery/Libraries/STM32F4xx_StdPeriph_Driver/src/stm32f4xx_fsmc.c ****   }
 964:App/STM32F4-Discovery/Libraries/STM32F4xx_StdPeriph_Driver/src/stm32f4xx_fsmc.c **** }
 2949              		.loc 1 964 0
 2950 0086 0837     		adds	r7, r7, #8
 2951 0088 BD46     		mov	sp, r7
 2952              		@ sp needed
 2953 008a 80BD     		pop	{r7, pc}
 2954              	.L186:
 2955              		.align	2
 2956              	.L185:
 2957 008c 00000000 		.word	.LC0
 2958 0090 600000A0 		.word	-1610612640
 2959 0094 800000A0 		.word	-1610612608
 2960 0098 A00000A0 		.word	-1610612576
 2961              		.cfi_endproc
 2962              	.LFE128:
 2964              		.text
 2965              	.Letext0:
 2966              		.file 2 "/home/shihyu/data/STM32F4/gcc-arm-none-eabi-4_8-2013q4/arm-none-eabi/include/stdint.h"
 2967              		.file 3 "App/STM32F4-Discovery/Libraries/CMSIS/ST/STM32F4xx/Include/stm32f4xx.h"
 2968              		.file 4 "App/STM32F4-Discovery/Libraries/STM32F4xx_StdPeriph_Driver/inc/stm32f4xx_fsmc.h"
 2969              		.file 5 "App/STM32F4-Discovery/Libraries/CMSIS/Include/core_cm4.h"