   1              		.syntax unified
   2              		.cpu cortex-m4
   3              		.eabi_attribute 27, 3
   4              		.fpu fpv4-sp-d16
   5              		.eabi_attribute 20, 1
   6              		.eabi_attribute 21, 1
   7              		.eabi_attribute 23, 3
   8              		.eabi_attribute 24, 1
   9              		.eabi_attribute 25, 1
  10              		.eabi_attribute 26, 1
  11              		.eabi_attribute 30, 6
  12              		.eabi_attribute 34, 1
  13              		.eabi_attribute 18, 4
  14              		.thumb
  15              		.file	"stm32f4xx_cryp.c"
  16              		.text
  17              	.Ltext0:
  18              		.cfi_sections	.debug_frame
  19              		.section	.text.CRYP_DeInit,"ax",%progbits
  20              		.align	2
  21              		.global	CRYP_DeInit
  22              		.thumb
  23              		.thumb_func
  25              	CRYP_DeInit:
  26              	.LFB110:
  27              		.file 1 "App/STM32F4-Discovery/Libraries/STM32F4xx_StdPeriph_Driver/src/stm32f4xx_cryp.c"
   1:App/STM32F4-Discovery/Libraries/STM32F4xx_StdPeriph_Driver/src/stm32f4xx_cryp.c **** /**
   2:App/STM32F4-Discovery/Libraries/STM32F4xx_StdPeriph_Driver/src/stm32f4xx_cryp.c ****   ******************************************************************************
   3:App/STM32F4-Discovery/Libraries/STM32F4xx_StdPeriph_Driver/src/stm32f4xx_cryp.c ****   * @file    stm32f4xx_cryp.c
   4:App/STM32F4-Discovery/Libraries/STM32F4xx_StdPeriph_Driver/src/stm32f4xx_cryp.c ****   * @author  MCD Application Team
   5:App/STM32F4-Discovery/Libraries/STM32F4xx_StdPeriph_Driver/src/stm32f4xx_cryp.c ****   * @version V1.0.0
   6:App/STM32F4-Discovery/Libraries/STM32F4xx_StdPeriph_Driver/src/stm32f4xx_cryp.c ****   * @date    30-September-2011
   7:App/STM32F4-Discovery/Libraries/STM32F4xx_StdPeriph_Driver/src/stm32f4xx_cryp.c ****   * @brief   This file provides firmware functions to manage the following 
   8:App/STM32F4-Discovery/Libraries/STM32F4xx_StdPeriph_Driver/src/stm32f4xx_cryp.c ****   *          functionalities of the  Cryptographic processor (CRYP) peripheral:           
   9:App/STM32F4-Discovery/Libraries/STM32F4xx_StdPeriph_Driver/src/stm32f4xx_cryp.c ****   *           - Initialization and Configuration functions
  10:App/STM32F4-Discovery/Libraries/STM32F4xx_StdPeriph_Driver/src/stm32f4xx_cryp.c ****   *           - Data treatment functions 
  11:App/STM32F4-Discovery/Libraries/STM32F4xx_StdPeriph_Driver/src/stm32f4xx_cryp.c ****   *           - Context swapping functions     
  12:App/STM32F4-Discovery/Libraries/STM32F4xx_StdPeriph_Driver/src/stm32f4xx_cryp.c ****   *           - DMA interface function       
  13:App/STM32F4-Discovery/Libraries/STM32F4xx_StdPeriph_Driver/src/stm32f4xx_cryp.c ****   *           - Interrupts and flags management       
  14:App/STM32F4-Discovery/Libraries/STM32F4xx_StdPeriph_Driver/src/stm32f4xx_cryp.c ****   *
  15:App/STM32F4-Discovery/Libraries/STM32F4xx_StdPeriph_Driver/src/stm32f4xx_cryp.c ****   *  @verbatim
  16:App/STM32F4-Discovery/Libraries/STM32F4xx_StdPeriph_Driver/src/stm32f4xx_cryp.c ****   *                               
  17:App/STM32F4-Discovery/Libraries/STM32F4xx_StdPeriph_Driver/src/stm32f4xx_cryp.c ****   *          ===================================================================      
  18:App/STM32F4-Discovery/Libraries/STM32F4xx_StdPeriph_Driver/src/stm32f4xx_cryp.c ****   *                                 How to use this driver
  19:App/STM32F4-Discovery/Libraries/STM32F4xx_StdPeriph_Driver/src/stm32f4xx_cryp.c ****   *          =================================================================== 
  20:App/STM32F4-Discovery/Libraries/STM32F4xx_StdPeriph_Driver/src/stm32f4xx_cryp.c ****   *          1. Enable the CRYP controller clock using 
  21:App/STM32F4-Discovery/Libraries/STM32F4xx_StdPeriph_Driver/src/stm32f4xx_cryp.c ****   *              RCC_AHB2PeriphClockCmd(RCC_AHB2Periph_CRYP, ENABLE); function.
  22:App/STM32F4-Discovery/Libraries/STM32F4xx_StdPeriph_Driver/src/stm32f4xx_cryp.c ****   *
  23:App/STM32F4-Discovery/Libraries/STM32F4xx_StdPeriph_Driver/src/stm32f4xx_cryp.c ****   *          2. Initialise the CRYP using CRYP_Init(), CRYP_KeyInit() and if 
  24:App/STM32F4-Discovery/Libraries/STM32F4xx_StdPeriph_Driver/src/stm32f4xx_cryp.c ****   *             needed CRYP_IVInit(). 
  25:App/STM32F4-Discovery/Libraries/STM32F4xx_StdPeriph_Driver/src/stm32f4xx_cryp.c ****   *
  26:App/STM32F4-Discovery/Libraries/STM32F4xx_StdPeriph_Driver/src/stm32f4xx_cryp.c ****   *          3. Flush the IN and OUT FIFOs by using CRYP_FIFOFlush() function.
  27:App/STM32F4-Discovery/Libraries/STM32F4xx_StdPeriph_Driver/src/stm32f4xx_cryp.c ****   *
  28:App/STM32F4-Discovery/Libraries/STM32F4xx_StdPeriph_Driver/src/stm32f4xx_cryp.c ****   *          4. Enable the CRYP controller using the CRYP_Cmd() function. 
  29:App/STM32F4-Discovery/Libraries/STM32F4xx_StdPeriph_Driver/src/stm32f4xx_cryp.c ****   *
  30:App/STM32F4-Discovery/Libraries/STM32F4xx_StdPeriph_Driver/src/stm32f4xx_cryp.c ****   *          5. If using DMA for Data input and output transfer, 
  31:App/STM32F4-Discovery/Libraries/STM32F4xx_StdPeriph_Driver/src/stm32f4xx_cryp.c ****   *             Activate the needed DMA Requests using CRYP_DMACmd() function 
  32:App/STM32F4-Discovery/Libraries/STM32F4xx_StdPeriph_Driver/src/stm32f4xx_cryp.c ****   
  33:App/STM32F4-Discovery/Libraries/STM32F4xx_StdPeriph_Driver/src/stm32f4xx_cryp.c ****   *          6. If DMA is not used for data transfer, use CRYP_DataIn() and 
  34:App/STM32F4-Discovery/Libraries/STM32F4xx_StdPeriph_Driver/src/stm32f4xx_cryp.c ****   *             CRYP_DataOut() functions to enter data to IN FIFO and get result
  35:App/STM32F4-Discovery/Libraries/STM32F4xx_StdPeriph_Driver/src/stm32f4xx_cryp.c ****   *             from OUT FIFO.
  36:App/STM32F4-Discovery/Libraries/STM32F4xx_StdPeriph_Driver/src/stm32f4xx_cryp.c ****   *
  37:App/STM32F4-Discovery/Libraries/STM32F4xx_StdPeriph_Driver/src/stm32f4xx_cryp.c ****   *          7. To control CRYP events you can use one of the following 
  38:App/STM32F4-Discovery/Libraries/STM32F4xx_StdPeriph_Driver/src/stm32f4xx_cryp.c ****   *              two methods:
  39:App/STM32F4-Discovery/Libraries/STM32F4xx_StdPeriph_Driver/src/stm32f4xx_cryp.c ****   *               - Check on CRYP flags using the CRYP_GetFlagStatus() function.  
  40:App/STM32F4-Discovery/Libraries/STM32F4xx_StdPeriph_Driver/src/stm32f4xx_cryp.c ****   *               - Use CRYP interrupts through the function CRYP_ITConfig() at 
  41:App/STM32F4-Discovery/Libraries/STM32F4xx_StdPeriph_Driver/src/stm32f4xx_cryp.c ****   *                 initialization phase and CRYP_GetITStatus() function into 
  42:App/STM32F4-Discovery/Libraries/STM32F4xx_StdPeriph_Driver/src/stm32f4xx_cryp.c ****   *                 interrupt routines in processing phase.
  43:App/STM32F4-Discovery/Libraries/STM32F4xx_StdPeriph_Driver/src/stm32f4xx_cryp.c ****   *       
  44:App/STM32F4-Discovery/Libraries/STM32F4xx_StdPeriph_Driver/src/stm32f4xx_cryp.c ****   *          8. Save and restore Cryptographic processor context using  
  45:App/STM32F4-Discovery/Libraries/STM32F4xx_StdPeriph_Driver/src/stm32f4xx_cryp.c ****   *             CRYP_SaveContext() and CRYP_RestoreContext() functions.     
  46:App/STM32F4-Discovery/Libraries/STM32F4xx_StdPeriph_Driver/src/stm32f4xx_cryp.c ****   *
  47:App/STM32F4-Discovery/Libraries/STM32F4xx_StdPeriph_Driver/src/stm32f4xx_cryp.c ****   *
  48:App/STM32F4-Discovery/Libraries/STM32F4xx_StdPeriph_Driver/src/stm32f4xx_cryp.c ****   *          ===================================================================  
  49:App/STM32F4-Discovery/Libraries/STM32F4xx_StdPeriph_Driver/src/stm32f4xx_cryp.c ****   *                Procedure to perform an encryption or a decryption
  50:App/STM32F4-Discovery/Libraries/STM32F4xx_StdPeriph_Driver/src/stm32f4xx_cryp.c ****   *          ===================================================================  
  51:App/STM32F4-Discovery/Libraries/STM32F4xx_StdPeriph_Driver/src/stm32f4xx_cryp.c ****   *
  52:App/STM32F4-Discovery/Libraries/STM32F4xx_StdPeriph_Driver/src/stm32f4xx_cryp.c ****   *      Initialization
  53:App/STM32F4-Discovery/Libraries/STM32F4xx_StdPeriph_Driver/src/stm32f4xx_cryp.c ****   *      ===============  
  54:App/STM32F4-Discovery/Libraries/STM32F4xx_StdPeriph_Driver/src/stm32f4xx_cryp.c ****   *     1. Initialize the peripheral using CRYP_Init(), CRYP_KeyInit() and 
  55:App/STM32F4-Discovery/Libraries/STM32F4xx_StdPeriph_Driver/src/stm32f4xx_cryp.c ****   *        CRYP_IVInit functions:
  56:App/STM32F4-Discovery/Libraries/STM32F4xx_StdPeriph_Driver/src/stm32f4xx_cryp.c ****   *        - Configure the key size (128-, 192- or 256-bit, in the AES only) 
  57:App/STM32F4-Discovery/Libraries/STM32F4xx_StdPeriph_Driver/src/stm32f4xx_cryp.c ****   *        - Enter the symmetric key 
  58:App/STM32F4-Discovery/Libraries/STM32F4xx_StdPeriph_Driver/src/stm32f4xx_cryp.c ****   *        - Configure the data type
  59:App/STM32F4-Discovery/Libraries/STM32F4xx_StdPeriph_Driver/src/stm32f4xx_cryp.c ****   *        - In case of decryption in AES-ECB or AES-CBC, you must prepare 
  60:App/STM32F4-Discovery/Libraries/STM32F4xx_StdPeriph_Driver/src/stm32f4xx_cryp.c ****   *          the key: configure the key preparation mode. Then Enable the CRYP 
  61:App/STM32F4-Discovery/Libraries/STM32F4xx_StdPeriph_Driver/src/stm32f4xx_cryp.c ****   *          peripheral using CRYP_Cmd() function: the BUSY flag is set. 
  62:App/STM32F4-Discovery/Libraries/STM32F4xx_StdPeriph_Driver/src/stm32f4xx_cryp.c ****   *          Wait until BUSY flag is reset : the key is prepared for decryption
  63:App/STM32F4-Discovery/Libraries/STM32F4xx_StdPeriph_Driver/src/stm32f4xx_cryp.c ****   *       - Configure the algorithm and chaining (the DES/TDES in ECB/CBC, the 
  64:App/STM32F4-Discovery/Libraries/STM32F4xx_StdPeriph_Driver/src/stm32f4xx_cryp.c ****   *          AES in ECB/CBC/CTR) 
  65:App/STM32F4-Discovery/Libraries/STM32F4xx_StdPeriph_Driver/src/stm32f4xx_cryp.c ****   *       - Configure the direction (encryption/decryption).
  66:App/STM32F4-Discovery/Libraries/STM32F4xx_StdPeriph_Driver/src/stm32f4xx_cryp.c ****   *       - Write the initialization vectors (in CBC or CTR modes only)
  67:App/STM32F4-Discovery/Libraries/STM32F4xx_StdPeriph_Driver/src/stm32f4xx_cryp.c ****   *
  68:App/STM32F4-Discovery/Libraries/STM32F4xx_StdPeriph_Driver/src/stm32f4xx_cryp.c ****   *    2. Flush the IN and OUT FIFOs using the CRYP_FIFOFlush() function
  69:App/STM32F4-Discovery/Libraries/STM32F4xx_StdPeriph_Driver/src/stm32f4xx_cryp.c ****   *
  70:App/STM32F4-Discovery/Libraries/STM32F4xx_StdPeriph_Driver/src/stm32f4xx_cryp.c ****   *
  71:App/STM32F4-Discovery/Libraries/STM32F4xx_StdPeriph_Driver/src/stm32f4xx_cryp.c ****   *    Basic Processing mode (polling mode) 
  72:App/STM32F4-Discovery/Libraries/STM32F4xx_StdPeriph_Driver/src/stm32f4xx_cryp.c ****   *    ====================================  
  73:App/STM32F4-Discovery/Libraries/STM32F4xx_StdPeriph_Driver/src/stm32f4xx_cryp.c ****   *    1. Enable the cryptographic processor using CRYP_Cmd() function.
  74:App/STM32F4-Discovery/Libraries/STM32F4xx_StdPeriph_Driver/src/stm32f4xx_cryp.c ****   *
  75:App/STM32F4-Discovery/Libraries/STM32F4xx_StdPeriph_Driver/src/stm32f4xx_cryp.c ****   *    2. Write the first blocks in the input FIFO (2 to 8 words) using 
  76:App/STM32F4-Discovery/Libraries/STM32F4xx_StdPeriph_Driver/src/stm32f4xx_cryp.c ****   *       CRYP_DataIn() function.
  77:App/STM32F4-Discovery/Libraries/STM32F4xx_StdPeriph_Driver/src/stm32f4xx_cryp.c ****   *
  78:App/STM32F4-Discovery/Libraries/STM32F4xx_StdPeriph_Driver/src/stm32f4xx_cryp.c ****   *    3. Repeat the following sequence until the complete message has been 
  79:App/STM32F4-Discovery/Libraries/STM32F4xx_StdPeriph_Driver/src/stm32f4xx_cryp.c ****   *       processed:
  80:App/STM32F4-Discovery/Libraries/STM32F4xx_StdPeriph_Driver/src/stm32f4xx_cryp.c ****   *
  81:App/STM32F4-Discovery/Libraries/STM32F4xx_StdPeriph_Driver/src/stm32f4xx_cryp.c ****   *       a) Wait for flag CRYP_FLAG_OFNE occurs (using CRYP_GetFlagStatus() 
  82:App/STM32F4-Discovery/Libraries/STM32F4xx_StdPeriph_Driver/src/stm32f4xx_cryp.c ****   *          function), then read the OUT-FIFO using CRYP_DataOut() function
  83:App/STM32F4-Discovery/Libraries/STM32F4xx_StdPeriph_Driver/src/stm32f4xx_cryp.c ****   *          (1 block or until the FIFO is empty)
  84:App/STM32F4-Discovery/Libraries/STM32F4xx_StdPeriph_Driver/src/stm32f4xx_cryp.c ****   *
  85:App/STM32F4-Discovery/Libraries/STM32F4xx_StdPeriph_Driver/src/stm32f4xx_cryp.c ****   *       b) Wait for flag CRYP_FLAG_IFNF occurs, (using CRYP_GetFlagStatus() 
  86:App/STM32F4-Discovery/Libraries/STM32F4xx_StdPeriph_Driver/src/stm32f4xx_cryp.c ****   *          function then write the IN FIFO using CRYP_DataIn() function 
  87:App/STM32F4-Discovery/Libraries/STM32F4xx_StdPeriph_Driver/src/stm32f4xx_cryp.c ****   *          (1 block or until the FIFO is full)
  88:App/STM32F4-Discovery/Libraries/STM32F4xx_StdPeriph_Driver/src/stm32f4xx_cryp.c ****   *
  89:App/STM32F4-Discovery/Libraries/STM32F4xx_StdPeriph_Driver/src/stm32f4xx_cryp.c ****   *    4. At the end of the processing, CRYP_FLAG_BUSY flag will be reset and 
  90:App/STM32F4-Discovery/Libraries/STM32F4xx_StdPeriph_Driver/src/stm32f4xx_cryp.c ****   *        both FIFOs are empty (CRYP_FLAG_IFEM is set and CRYP_FLAG_OFNE is 
  91:App/STM32F4-Discovery/Libraries/STM32F4xx_StdPeriph_Driver/src/stm32f4xx_cryp.c ****   *        reset). You can disable the peripheral using CRYP_Cmd() function.
  92:App/STM32F4-Discovery/Libraries/STM32F4xx_StdPeriph_Driver/src/stm32f4xx_cryp.c ****   *
  93:App/STM32F4-Discovery/Libraries/STM32F4xx_StdPeriph_Driver/src/stm32f4xx_cryp.c ****   *    Interrupts Processing mode 
  94:App/STM32F4-Discovery/Libraries/STM32F4xx_StdPeriph_Driver/src/stm32f4xx_cryp.c ****   *    ===========================
  95:App/STM32F4-Discovery/Libraries/STM32F4xx_StdPeriph_Driver/src/stm32f4xx_cryp.c ****   *    In this mode, Processing is done when the data are transferred by the 
  96:App/STM32F4-Discovery/Libraries/STM32F4xx_StdPeriph_Driver/src/stm32f4xx_cryp.c ****   *    CPU during interrupts.
  97:App/STM32F4-Discovery/Libraries/STM32F4xx_StdPeriph_Driver/src/stm32f4xx_cryp.c ****   *
  98:App/STM32F4-Discovery/Libraries/STM32F4xx_StdPeriph_Driver/src/stm32f4xx_cryp.c ****   *    1. Enable the interrupts CRYP_IT_INI and CRYP_IT_OUTI using 
  99:App/STM32F4-Discovery/Libraries/STM32F4xx_StdPeriph_Driver/src/stm32f4xx_cryp.c ****   *       CRYP_ITConfig() function.
 100:App/STM32F4-Discovery/Libraries/STM32F4xx_StdPeriph_Driver/src/stm32f4xx_cryp.c ****   *
 101:App/STM32F4-Discovery/Libraries/STM32F4xx_StdPeriph_Driver/src/stm32f4xx_cryp.c ****   *    2. Enable the cryptographic processor using CRYP_Cmd() function.
 102:App/STM32F4-Discovery/Libraries/STM32F4xx_StdPeriph_Driver/src/stm32f4xx_cryp.c ****   *
 103:App/STM32F4-Discovery/Libraries/STM32F4xx_StdPeriph_Driver/src/stm32f4xx_cryp.c ****   *    3. In the CRYP_IT_INI interrupt handler : load the input message into the 
 104:App/STM32F4-Discovery/Libraries/STM32F4xx_StdPeriph_Driver/src/stm32f4xx_cryp.c ****   *       IN FIFO using CRYP_DataIn() function . You can load 2 or 4 words at a 
 105:App/STM32F4-Discovery/Libraries/STM32F4xx_StdPeriph_Driver/src/stm32f4xx_cryp.c ****   *       time, or load data until the IN FIFO is full. When the last word of
 106:App/STM32F4-Discovery/Libraries/STM32F4xx_StdPeriph_Driver/src/stm32f4xx_cryp.c ****   *       the message has been entered into the IN FIFO, disable the CRYP_IT_INI 
 107:App/STM32F4-Discovery/Libraries/STM32F4xx_StdPeriph_Driver/src/stm32f4xx_cryp.c ****   *       interrupt (using CRYP_ITConfig() function).
 108:App/STM32F4-Discovery/Libraries/STM32F4xx_StdPeriph_Driver/src/stm32f4xx_cryp.c ****   *
 109:App/STM32F4-Discovery/Libraries/STM32F4xx_StdPeriph_Driver/src/stm32f4xx_cryp.c ****   *    4. In the CRYP_IT_OUTI interrupt handler : read the output message from 
 110:App/STM32F4-Discovery/Libraries/STM32F4xx_StdPeriph_Driver/src/stm32f4xx_cryp.c ****   *       the OUT FIFO using CRYP_DataOut() function. You can read 1 block (2 or 
 111:App/STM32F4-Discovery/Libraries/STM32F4xx_StdPeriph_Driver/src/stm32f4xx_cryp.c ****   *       4 words) at a time or read data until the FIFO is empty.
 112:App/STM32F4-Discovery/Libraries/STM32F4xx_StdPeriph_Driver/src/stm32f4xx_cryp.c ****   *       When the last word has been read, INIM=0, BUSY=0 and both FIFOs are 
 113:App/STM32F4-Discovery/Libraries/STM32F4xx_StdPeriph_Driver/src/stm32f4xx_cryp.c ****   *       empty (CRYP_FLAG_IFEM is set and CRYP_FLAG_OFNE is reset). 
 114:App/STM32F4-Discovery/Libraries/STM32F4xx_StdPeriph_Driver/src/stm32f4xx_cryp.c ****   *       You can disable the CRYP_IT_OUTI interrupt (using CRYP_ITConfig() 
 115:App/STM32F4-Discovery/Libraries/STM32F4xx_StdPeriph_Driver/src/stm32f4xx_cryp.c ****   *       function) and you can disable the peripheral using CRYP_Cmd() function.
 116:App/STM32F4-Discovery/Libraries/STM32F4xx_StdPeriph_Driver/src/stm32f4xx_cryp.c ****   *
 117:App/STM32F4-Discovery/Libraries/STM32F4xx_StdPeriph_Driver/src/stm32f4xx_cryp.c ****   *    DMA Processing mode 
 118:App/STM32F4-Discovery/Libraries/STM32F4xx_StdPeriph_Driver/src/stm32f4xx_cryp.c ****   *    ====================
 119:App/STM32F4-Discovery/Libraries/STM32F4xx_StdPeriph_Driver/src/stm32f4xx_cryp.c ****   *    In this mode, Processing is done when the DMA is used to transfer the 
 120:App/STM32F4-Discovery/Libraries/STM32F4xx_StdPeriph_Driver/src/stm32f4xx_cryp.c ****   *    data from/to the memory.
 121:App/STM32F4-Discovery/Libraries/STM32F4xx_StdPeriph_Driver/src/stm32f4xx_cryp.c ****   *
 122:App/STM32F4-Discovery/Libraries/STM32F4xx_StdPeriph_Driver/src/stm32f4xx_cryp.c ****   *    1. Configure the DMA controller to transfer the input data from the 
 123:App/STM32F4-Discovery/Libraries/STM32F4xx_StdPeriph_Driver/src/stm32f4xx_cryp.c ****   *       memory using DMA_Init() function. 
 124:App/STM32F4-Discovery/Libraries/STM32F4xx_StdPeriph_Driver/src/stm32f4xx_cryp.c ****   *       The transfer length is the length of the message. 
 125:App/STM32F4-Discovery/Libraries/STM32F4xx_StdPeriph_Driver/src/stm32f4xx_cryp.c ****   *       As message padding is not managed by the peripheral, the message 
 126:App/STM32F4-Discovery/Libraries/STM32F4xx_StdPeriph_Driver/src/stm32f4xx_cryp.c ****   *       length must be an entire number of blocks. The data are transferred 
 127:App/STM32F4-Discovery/Libraries/STM32F4xx_StdPeriph_Driver/src/stm32f4xx_cryp.c ****   *       in burst mode. The burst length is 4 words in the AES and 2 or 4 
 128:App/STM32F4-Discovery/Libraries/STM32F4xx_StdPeriph_Driver/src/stm32f4xx_cryp.c ****   *       words in the DES/TDES. The DMA should be configured to set an 
 129:App/STM32F4-Discovery/Libraries/STM32F4xx_StdPeriph_Driver/src/stm32f4xx_cryp.c ****   *       interrupt on transfer completion of the output data to indicate that 
 130:App/STM32F4-Discovery/Libraries/STM32F4xx_StdPeriph_Driver/src/stm32f4xx_cryp.c ****   *       the processing is finished. 
 131:App/STM32F4-Discovery/Libraries/STM32F4xx_StdPeriph_Driver/src/stm32f4xx_cryp.c ****   *       Refer to DMA peripheral driver for more details.  
 132:App/STM32F4-Discovery/Libraries/STM32F4xx_StdPeriph_Driver/src/stm32f4xx_cryp.c ****   *
 133:App/STM32F4-Discovery/Libraries/STM32F4xx_StdPeriph_Driver/src/stm32f4xx_cryp.c ****   *    2. Enable the cryptographic processor using CRYP_Cmd() function. 
 134:App/STM32F4-Discovery/Libraries/STM32F4xx_StdPeriph_Driver/src/stm32f4xx_cryp.c ****   *       Enable the DMA requests CRYP_DMAReq_DataIN and CRYP_DMAReq_DataOUT 
 135:App/STM32F4-Discovery/Libraries/STM32F4xx_StdPeriph_Driver/src/stm32f4xx_cryp.c ****   *       using CRYP_DMACmd() function.
 136:App/STM32F4-Discovery/Libraries/STM32F4xx_StdPeriph_Driver/src/stm32f4xx_cryp.c ****   *
 137:App/STM32F4-Discovery/Libraries/STM32F4xx_StdPeriph_Driver/src/stm32f4xx_cryp.c ****   *    3. All the transfers and processing are managed by the DMA and the 
 138:App/STM32F4-Discovery/Libraries/STM32F4xx_StdPeriph_Driver/src/stm32f4xx_cryp.c ****   *       cryptographic processor. The DMA transfer complete interrupt indicates 
 139:App/STM32F4-Discovery/Libraries/STM32F4xx_StdPeriph_Driver/src/stm32f4xx_cryp.c ****   *       that the processing is complete. Both FIFOs are normally empty and 
 140:App/STM32F4-Discovery/Libraries/STM32F4xx_StdPeriph_Driver/src/stm32f4xx_cryp.c ****   *       CRYP_FLAG_BUSY flag is reset.
 141:App/STM32F4-Discovery/Libraries/STM32F4xx_StdPeriph_Driver/src/stm32f4xx_cryp.c ****   *
 142:App/STM32F4-Discovery/Libraries/STM32F4xx_StdPeriph_Driver/src/stm32f4xx_cryp.c ****   *  @endverbatim
 143:App/STM32F4-Discovery/Libraries/STM32F4xx_StdPeriph_Driver/src/stm32f4xx_cryp.c ****   *
 144:App/STM32F4-Discovery/Libraries/STM32F4xx_StdPeriph_Driver/src/stm32f4xx_cryp.c ****   ******************************************************************************
 145:App/STM32F4-Discovery/Libraries/STM32F4xx_StdPeriph_Driver/src/stm32f4xx_cryp.c ****   * @attention
 146:App/STM32F4-Discovery/Libraries/STM32F4xx_StdPeriph_Driver/src/stm32f4xx_cryp.c ****   *
 147:App/STM32F4-Discovery/Libraries/STM32F4xx_StdPeriph_Driver/src/stm32f4xx_cryp.c ****   * THE PRESENT FIRMWARE WHICH IS FOR GUIDANCE ONLY AIMS AT PROVIDING CUSTOMERS
 148:App/STM32F4-Discovery/Libraries/STM32F4xx_StdPeriph_Driver/src/stm32f4xx_cryp.c ****   * WITH CODING INFORMATION REGARDING THEIR PRODUCTS IN ORDER FOR THEM TO SAVE
 149:App/STM32F4-Discovery/Libraries/STM32F4xx_StdPeriph_Driver/src/stm32f4xx_cryp.c ****   * TIME. AS A RESULT, STMICROELECTRONICS SHALL NOT BE HELD LIABLE FOR ANY
 150:App/STM32F4-Discovery/Libraries/STM32F4xx_StdPeriph_Driver/src/stm32f4xx_cryp.c ****   * DIRECT, INDIRECT OR CONSEQUENTIAL DAMAGES WITH RESPECT TO ANY CLAIMS ARISING
 151:App/STM32F4-Discovery/Libraries/STM32F4xx_StdPeriph_Driver/src/stm32f4xx_cryp.c ****   * FROM THE CONTENT OF SUCH FIRMWARE AND/OR THE USE MADE BY CUSTOMERS OF THE
 152:App/STM32F4-Discovery/Libraries/STM32F4xx_StdPeriph_Driver/src/stm32f4xx_cryp.c ****   * CODING INFORMATION CONTAINED HEREIN IN CONNECTION WITH THEIR PRODUCTS.
 153:App/STM32F4-Discovery/Libraries/STM32F4xx_StdPeriph_Driver/src/stm32f4xx_cryp.c ****   *
 154:App/STM32F4-Discovery/Libraries/STM32F4xx_StdPeriph_Driver/src/stm32f4xx_cryp.c ****   * <h2><center>&copy; COPYRIGHT 2011 STMicroelectronics</center></h2>
 155:App/STM32F4-Discovery/Libraries/STM32F4xx_StdPeriph_Driver/src/stm32f4xx_cryp.c ****   ******************************************************************************  
 156:App/STM32F4-Discovery/Libraries/STM32F4xx_StdPeriph_Driver/src/stm32f4xx_cryp.c ****   */
 157:App/STM32F4-Discovery/Libraries/STM32F4xx_StdPeriph_Driver/src/stm32f4xx_cryp.c **** 
 158:App/STM32F4-Discovery/Libraries/STM32F4xx_StdPeriph_Driver/src/stm32f4xx_cryp.c **** /* Includes ------------------------------------------------------------------*/
 159:App/STM32F4-Discovery/Libraries/STM32F4xx_StdPeriph_Driver/src/stm32f4xx_cryp.c **** #include "stm32f4xx_cryp.h"
 160:App/STM32F4-Discovery/Libraries/STM32F4xx_StdPeriph_Driver/src/stm32f4xx_cryp.c **** #include "stm32f4xx_rcc.h"
 161:App/STM32F4-Discovery/Libraries/STM32F4xx_StdPeriph_Driver/src/stm32f4xx_cryp.c **** 
 162:App/STM32F4-Discovery/Libraries/STM32F4xx_StdPeriph_Driver/src/stm32f4xx_cryp.c **** /** @addtogroup STM32F4xx_StdPeriph_Driver
 163:App/STM32F4-Discovery/Libraries/STM32F4xx_StdPeriph_Driver/src/stm32f4xx_cryp.c ****   * @{
 164:App/STM32F4-Discovery/Libraries/STM32F4xx_StdPeriph_Driver/src/stm32f4xx_cryp.c ****   */
 165:App/STM32F4-Discovery/Libraries/STM32F4xx_StdPeriph_Driver/src/stm32f4xx_cryp.c **** 
 166:App/STM32F4-Discovery/Libraries/STM32F4xx_StdPeriph_Driver/src/stm32f4xx_cryp.c **** /** @defgroup CRYP 
 167:App/STM32F4-Discovery/Libraries/STM32F4xx_StdPeriph_Driver/src/stm32f4xx_cryp.c ****   * @brief CRYP driver modules
 168:App/STM32F4-Discovery/Libraries/STM32F4xx_StdPeriph_Driver/src/stm32f4xx_cryp.c ****   * @{
 169:App/STM32F4-Discovery/Libraries/STM32F4xx_StdPeriph_Driver/src/stm32f4xx_cryp.c ****   */ 
 170:App/STM32F4-Discovery/Libraries/STM32F4xx_StdPeriph_Driver/src/stm32f4xx_cryp.c **** 
 171:App/STM32F4-Discovery/Libraries/STM32F4xx_StdPeriph_Driver/src/stm32f4xx_cryp.c **** /* Private typedef -----------------------------------------------------------*/
 172:App/STM32F4-Discovery/Libraries/STM32F4xx_StdPeriph_Driver/src/stm32f4xx_cryp.c **** /* Private define ------------------------------------------------------------*/
 173:App/STM32F4-Discovery/Libraries/STM32F4xx_StdPeriph_Driver/src/stm32f4xx_cryp.c **** #define FLAG_MASK     ((uint8_t)0x20)
 174:App/STM32F4-Discovery/Libraries/STM32F4xx_StdPeriph_Driver/src/stm32f4xx_cryp.c **** #define MAX_TIMEOUT   ((uint16_t)0xFFFF)
 175:App/STM32F4-Discovery/Libraries/STM32F4xx_StdPeriph_Driver/src/stm32f4xx_cryp.c **** 
 176:App/STM32F4-Discovery/Libraries/STM32F4xx_StdPeriph_Driver/src/stm32f4xx_cryp.c **** /* Private macro -------------------------------------------------------------*/
 177:App/STM32F4-Discovery/Libraries/STM32F4xx_StdPeriph_Driver/src/stm32f4xx_cryp.c **** /* Private variables ---------------------------------------------------------*/
 178:App/STM32F4-Discovery/Libraries/STM32F4xx_StdPeriph_Driver/src/stm32f4xx_cryp.c **** /* Private function prototypes -----------------------------------------------*/
 179:App/STM32F4-Discovery/Libraries/STM32F4xx_StdPeriph_Driver/src/stm32f4xx_cryp.c **** /* Private functions ---------------------------------------------------------*/
 180:App/STM32F4-Discovery/Libraries/STM32F4xx_StdPeriph_Driver/src/stm32f4xx_cryp.c **** 
 181:App/STM32F4-Discovery/Libraries/STM32F4xx_StdPeriph_Driver/src/stm32f4xx_cryp.c **** /** @defgroup CRYP_Private_Functions
 182:App/STM32F4-Discovery/Libraries/STM32F4xx_StdPeriph_Driver/src/stm32f4xx_cryp.c ****   * @{
 183:App/STM32F4-Discovery/Libraries/STM32F4xx_StdPeriph_Driver/src/stm32f4xx_cryp.c ****   */ 
 184:App/STM32F4-Discovery/Libraries/STM32F4xx_StdPeriph_Driver/src/stm32f4xx_cryp.c **** 
 185:App/STM32F4-Discovery/Libraries/STM32F4xx_StdPeriph_Driver/src/stm32f4xx_cryp.c **** /** @defgroup CRYP_Group1 Initialization and Configuration functions
 186:App/STM32F4-Discovery/Libraries/STM32F4xx_StdPeriph_Driver/src/stm32f4xx_cryp.c ****  *  @brief    Initialization and Configuration functions 
 187:App/STM32F4-Discovery/Libraries/STM32F4xx_StdPeriph_Driver/src/stm32f4xx_cryp.c ****  *
 188:App/STM32F4-Discovery/Libraries/STM32F4xx_StdPeriph_Driver/src/stm32f4xx_cryp.c **** @verbatim    
 189:App/STM32F4-Discovery/Libraries/STM32F4xx_StdPeriph_Driver/src/stm32f4xx_cryp.c ****  ===============================================================================
 190:App/STM32F4-Discovery/Libraries/STM32F4xx_StdPeriph_Driver/src/stm32f4xx_cryp.c ****                       Initialization and Configuration functions
 191:App/STM32F4-Discovery/Libraries/STM32F4xx_StdPeriph_Driver/src/stm32f4xx_cryp.c ****  ===============================================================================  
 192:App/STM32F4-Discovery/Libraries/STM32F4xx_StdPeriph_Driver/src/stm32f4xx_cryp.c ****   This section provides functions allowing to 
 193:App/STM32F4-Discovery/Libraries/STM32F4xx_StdPeriph_Driver/src/stm32f4xx_cryp.c ****    - Initialize the cryptographic Processor using CRYP_Init() function 
 194:App/STM32F4-Discovery/Libraries/STM32F4xx_StdPeriph_Driver/src/stm32f4xx_cryp.c ****       -  Encrypt or Decrypt 
 195:App/STM32F4-Discovery/Libraries/STM32F4xx_StdPeriph_Driver/src/stm32f4xx_cryp.c ****       -  mode : TDES-ECB, TDES-CBC, 
 196:App/STM32F4-Discovery/Libraries/STM32F4xx_StdPeriph_Driver/src/stm32f4xx_cryp.c ****                 DES-ECB, DES-CBC, 
 197:App/STM32F4-Discovery/Libraries/STM32F4xx_StdPeriph_Driver/src/stm32f4xx_cryp.c ****                 AES-ECB, AES-CBC, AES-CTR, AES-Key 
 198:App/STM32F4-Discovery/Libraries/STM32F4xx_StdPeriph_Driver/src/stm32f4xx_cryp.c ****       - DataType :  32-bit data, 16-bit data, bit data or bit-string
 199:App/STM32F4-Discovery/Libraries/STM32F4xx_StdPeriph_Driver/src/stm32f4xx_cryp.c ****       - Key Size (only in AES modes)
 200:App/STM32F4-Discovery/Libraries/STM32F4xx_StdPeriph_Driver/src/stm32f4xx_cryp.c ****    - Configure the Encrypt or Decrypt Key using CRYP_KeyInit() function 
 201:App/STM32F4-Discovery/Libraries/STM32F4xx_StdPeriph_Driver/src/stm32f4xx_cryp.c ****    - Configure the Initialization Vectors(IV) for CBC and CTR modes using 
 202:App/STM32F4-Discovery/Libraries/STM32F4xx_StdPeriph_Driver/src/stm32f4xx_cryp.c ****      CRYP_IVInit() function.  
 203:App/STM32F4-Discovery/Libraries/STM32F4xx_StdPeriph_Driver/src/stm32f4xx_cryp.c ****    - Flushes the IN and OUT FIFOs : using CRYP_FIFOFlush() function.                         
 204:App/STM32F4-Discovery/Libraries/STM32F4xx_StdPeriph_Driver/src/stm32f4xx_cryp.c ****    - Enable or disable the CRYP Processor using CRYP_Cmd() function 
 205:App/STM32F4-Discovery/Libraries/STM32F4xx_StdPeriph_Driver/src/stm32f4xx_cryp.c ****     
 206:App/STM32F4-Discovery/Libraries/STM32F4xx_StdPeriph_Driver/src/stm32f4xx_cryp.c ****    
 207:App/STM32F4-Discovery/Libraries/STM32F4xx_StdPeriph_Driver/src/stm32f4xx_cryp.c **** @endverbatim
 208:App/STM32F4-Discovery/Libraries/STM32F4xx_StdPeriph_Driver/src/stm32f4xx_cryp.c ****   * @{
 209:App/STM32F4-Discovery/Libraries/STM32F4xx_StdPeriph_Driver/src/stm32f4xx_cryp.c ****   */
 210:App/STM32F4-Discovery/Libraries/STM32F4xx_StdPeriph_Driver/src/stm32f4xx_cryp.c **** /**
 211:App/STM32F4-Discovery/Libraries/STM32F4xx_StdPeriph_Driver/src/stm32f4xx_cryp.c ****   * @brief  Deinitializes the CRYP peripheral registers to their default reset values
 212:App/STM32F4-Discovery/Libraries/STM32F4xx_StdPeriph_Driver/src/stm32f4xx_cryp.c ****   * @param  None
 213:App/STM32F4-Discovery/Libraries/STM32F4xx_StdPeriph_Driver/src/stm32f4xx_cryp.c ****   * @retval None
 214:App/STM32F4-Discovery/Libraries/STM32F4xx_StdPeriph_Driver/src/stm32f4xx_cryp.c ****   */
 215:App/STM32F4-Discovery/Libraries/STM32F4xx_StdPeriph_Driver/src/stm32f4xx_cryp.c **** void CRYP_DeInit(void)
 216:App/STM32F4-Discovery/Libraries/STM32F4xx_StdPeriph_Driver/src/stm32f4xx_cryp.c **** {
  28              		.loc 1 216 0
  29              		.cfi_startproc
  30              		@ args = 0, pretend = 0, frame = 0
  31              		@ frame_needed = 1, uses_anonymous_args = 0
  32 0000 80B5     		push	{r7, lr}
  33              	.LCFI0:
  34              		.cfi_def_cfa_offset 8
  35              		.cfi_offset 7, -8
  36              		.cfi_offset 14, -4
  37 0002 00AF     		add	r7, sp, #0
  38              	.LCFI1:
  39              		.cfi_def_cfa_register 7
 217:App/STM32F4-Discovery/Libraries/STM32F4xx_StdPeriph_Driver/src/stm32f4xx_cryp.c ****   /* Enable CRYP reset state */
 218:App/STM32F4-Discovery/Libraries/STM32F4xx_StdPeriph_Driver/src/stm32f4xx_cryp.c ****   RCC_AHB2PeriphResetCmd(RCC_AHB2Periph_CRYP, ENABLE);
  40              		.loc 1 218 0
  41 0004 1020     		movs	r0, #16
  42 0006 0121     		movs	r1, #1
  43 0008 FFF7FEFF 		bl	RCC_AHB2PeriphResetCmd
 219:App/STM32F4-Discovery/Libraries/STM32F4xx_StdPeriph_Driver/src/stm32f4xx_cryp.c **** 
 220:App/STM32F4-Discovery/Libraries/STM32F4xx_StdPeriph_Driver/src/stm32f4xx_cryp.c ****   /* Release CRYP from reset state */
 221:App/STM32F4-Discovery/Libraries/STM32F4xx_StdPeriph_Driver/src/stm32f4xx_cryp.c ****   RCC_AHB2PeriphResetCmd(RCC_AHB2Periph_CRYP, DISABLE);
  44              		.loc 1 221 0
  45 000c 1020     		movs	r0, #16
  46 000e 0021     		movs	r1, #0
  47 0010 FFF7FEFF 		bl	RCC_AHB2PeriphResetCmd
 222:App/STM32F4-Discovery/Libraries/STM32F4xx_StdPeriph_Driver/src/stm32f4xx_cryp.c **** }
  48              		.loc 1 222 0
  49 0014 80BD     		pop	{r7, pc}
  50              		.cfi_endproc
  51              	.LFE110:
  53 0016 00BF     		.section	.rodata
  54              		.align	2
  55              	.LC0:
  56 0000 4170702F 		.ascii	"App/STM32F4-Discovery/Libraries/STM32F4xx_StdPeriph"
  56      53544D33 
  56      3246342D 
  56      44697363 
  56      6F766572 
  57 0033 5F447269 		.ascii	"_Driver/src/stm32f4xx_cryp.c\000"
  57      7665722F 
  57      7372632F 
  57      73746D33 
  57      32663478 
  58              		.section	.text.CRYP_Init,"ax",%progbits
  59              		.align	2
  60              		.global	CRYP_Init
  61              		.thumb
  62              		.thumb_func
  64              	CRYP_Init:
  65              	.LFB111:
 223:App/STM32F4-Discovery/Libraries/STM32F4xx_StdPeriph_Driver/src/stm32f4xx_cryp.c **** 
 224:App/STM32F4-Discovery/Libraries/STM32F4xx_StdPeriph_Driver/src/stm32f4xx_cryp.c **** /**
 225:App/STM32F4-Discovery/Libraries/STM32F4xx_StdPeriph_Driver/src/stm32f4xx_cryp.c ****   * @brief  Initializes the CRYP peripheral according to the specified parameters
 226:App/STM32F4-Discovery/Libraries/STM32F4xx_StdPeriph_Driver/src/stm32f4xx_cryp.c ****   *         in the CRYP_InitStruct.
 227:App/STM32F4-Discovery/Libraries/STM32F4xx_StdPeriph_Driver/src/stm32f4xx_cryp.c ****   * @param  CRYP_InitStruct: pointer to a CRYP_InitTypeDef structure that contains
 228:App/STM32F4-Discovery/Libraries/STM32F4xx_StdPeriph_Driver/src/stm32f4xx_cryp.c ****   *         the configuration information for the CRYP peripheral.
 229:App/STM32F4-Discovery/Libraries/STM32F4xx_StdPeriph_Driver/src/stm32f4xx_cryp.c ****   * @retval None
 230:App/STM32F4-Discovery/Libraries/STM32F4xx_StdPeriph_Driver/src/stm32f4xx_cryp.c ****   */
 231:App/STM32F4-Discovery/Libraries/STM32F4xx_StdPeriph_Driver/src/stm32f4xx_cryp.c **** void CRYP_Init(CRYP_InitTypeDef* CRYP_InitStruct)
 232:App/STM32F4-Discovery/Libraries/STM32F4xx_StdPeriph_Driver/src/stm32f4xx_cryp.c **** {
  66              		.loc 1 232 0
  67              		.cfi_startproc
  68              		@ args = 0, pretend = 0, frame = 8
  69              		@ frame_needed = 1, uses_anonymous_args = 0
  70 0000 80B5     		push	{r7, lr}
  71              	.LCFI2:
  72              		.cfi_def_cfa_offset 8
  73              		.cfi_offset 7, -8
  74              		.cfi_offset 14, -4
  75 0002 82B0     		sub	sp, sp, #8
  76              	.LCFI3:
  77              		.cfi_def_cfa_offset 16
  78 0004 00AF     		add	r7, sp, #0
  79              	.LCFI4:
  80              		.cfi_def_cfa_register 7
  81 0006 7860     		str	r0, [r7, #4]
 233:App/STM32F4-Discovery/Libraries/STM32F4xx_StdPeriph_Driver/src/stm32f4xx_cryp.c ****   /* Check the parameters */
 234:App/STM32F4-Discovery/Libraries/STM32F4xx_StdPeriph_Driver/src/stm32f4xx_cryp.c ****   assert_param(IS_CRYP_ALGOMODE(CRYP_InitStruct->CRYP_AlgoMode));
  82              		.loc 1 234 0
  83 0008 7B68     		ldr	r3, [r7, #4]
  84 000a 5B88     		ldrh	r3, [r3, #2]
  85 000c 002B     		cmp	r3, #0
  86 000e 1FD0     		beq	.L3
  87              		.loc 1 234 0 is_stmt 0 discriminator 1
  88 0010 7B68     		ldr	r3, [r7, #4]
  89 0012 5B88     		ldrh	r3, [r3, #2]
  90 0014 082B     		cmp	r3, #8
  91 0016 1BD0     		beq	.L3
  92 0018 7B68     		ldr	r3, [r7, #4]
  93 001a 5B88     		ldrh	r3, [r3, #2]
  94 001c 102B     		cmp	r3, #16
  95 001e 17D0     		beq	.L3
  96 0020 7B68     		ldr	r3, [r7, #4]
  97 0022 5B88     		ldrh	r3, [r3, #2]
  98 0024 182B     		cmp	r3, #24
  99 0026 13D0     		beq	.L3
 100 0028 7B68     		ldr	r3, [r7, #4]
 101 002a 5B88     		ldrh	r3, [r3, #2]
 102 002c 202B     		cmp	r3, #32
 103 002e 0FD0     		beq	.L3
 104 0030 7B68     		ldr	r3, [r7, #4]
 105 0032 5B88     		ldrh	r3, [r3, #2]
 106 0034 282B     		cmp	r3, #40
 107 0036 0BD0     		beq	.L3
 108 0038 7B68     		ldr	r3, [r7, #4]
 109 003a 5B88     		ldrh	r3, [r3, #2]
 110 003c 302B     		cmp	r3, #48
 111 003e 07D0     		beq	.L3
 112 0040 7B68     		ldr	r3, [r7, #4]
 113 0042 5B88     		ldrh	r3, [r3, #2]
 114 0044 382B     		cmp	r3, #56
 115 0046 03D0     		beq	.L3
 116 0048 3E48     		ldr	r0, .L9
 117 004a EA21     		movs	r1, #234
 118 004c FFF7FEFF 		bl	assert_failed
 119              	.L3:
 235:App/STM32F4-Discovery/Libraries/STM32F4xx_StdPeriph_Driver/src/stm32f4xx_cryp.c ****   assert_param(IS_CRYP_DATATYPE(CRYP_InitStruct->CRYP_DataType));
 120              		.loc 1 235 0 is_stmt 1
 121 0050 7B68     		ldr	r3, [r7, #4]
 122 0052 9B88     		ldrh	r3, [r3, #4]
 123 0054 002B     		cmp	r3, #0
 124 0056 0FD0     		beq	.L4
 125              		.loc 1 235 0 is_stmt 0 discriminator 1
 126 0058 7B68     		ldr	r3, [r7, #4]
 127 005a 9B88     		ldrh	r3, [r3, #4]
 128 005c 402B     		cmp	r3, #64
 129 005e 0BD0     		beq	.L4
 130 0060 7B68     		ldr	r3, [r7, #4]
 131 0062 9B88     		ldrh	r3, [r3, #4]
 132 0064 802B     		cmp	r3, #128
 133 0066 07D0     		beq	.L4
 134 0068 7B68     		ldr	r3, [r7, #4]
 135 006a 9B88     		ldrh	r3, [r3, #4]
 136 006c C02B     		cmp	r3, #192
 137 006e 03D0     		beq	.L4
 138 0070 3448     		ldr	r0, .L9
 139 0072 EB21     		movs	r1, #235
 140 0074 FFF7FEFF 		bl	assert_failed
 141              	.L4:
 236:App/STM32F4-Discovery/Libraries/STM32F4xx_StdPeriph_Driver/src/stm32f4xx_cryp.c ****   assert_param(IS_CRYP_ALGODIR(CRYP_InitStruct->CRYP_AlgoDir));
 142              		.loc 1 236 0 is_stmt 1
 143 0078 7B68     		ldr	r3, [r7, #4]
 144 007a 1B88     		ldrh	r3, [r3]
 145 007c 002B     		cmp	r3, #0
 146 007e 07D0     		beq	.L5
 147              		.loc 1 236 0 is_stmt 0 discriminator 1
 148 0080 7B68     		ldr	r3, [r7, #4]
 149 0082 1B88     		ldrh	r3, [r3]
 150 0084 042B     		cmp	r3, #4
 151 0086 03D0     		beq	.L5
 152 0088 2E48     		ldr	r0, .L9
 153 008a EC21     		movs	r1, #236
 154 008c FFF7FEFF 		bl	assert_failed
 155              	.L5:
 237:App/STM32F4-Discovery/Libraries/STM32F4xx_StdPeriph_Driver/src/stm32f4xx_cryp.c **** 
 238:App/STM32F4-Discovery/Libraries/STM32F4xx_StdPeriph_Driver/src/stm32f4xx_cryp.c ****   /* Select Algorithm mode*/  
 239:App/STM32F4-Discovery/Libraries/STM32F4xx_StdPeriph_Driver/src/stm32f4xx_cryp.c ****   CRYP->CR &= ~CRYP_CR_ALGOMODE;
 156              		.loc 1 239 0 is_stmt 1
 157 0090 2D4B     		ldr	r3, .L9+4
 158 0092 2D4A     		ldr	r2, .L9+4
 159 0094 1268     		ldr	r2, [r2]
 160 0096 22F03802 		bic	r2, r2, #56
 161 009a 1A60     		str	r2, [r3]
 240:App/STM32F4-Discovery/Libraries/STM32F4xx_StdPeriph_Driver/src/stm32f4xx_cryp.c ****   CRYP->CR |= CRYP_InitStruct->CRYP_AlgoMode;
 162              		.loc 1 240 0
 163 009c 2A4B     		ldr	r3, .L9+4
 164 009e 2A4A     		ldr	r2, .L9+4
 165 00a0 1168     		ldr	r1, [r2]
 166 00a2 7A68     		ldr	r2, [r7, #4]
 167 00a4 5288     		ldrh	r2, [r2, #2]
 168 00a6 0A43     		orrs	r2, r2, r1
 169 00a8 1A60     		str	r2, [r3]
 241:App/STM32F4-Discovery/Libraries/STM32F4xx_StdPeriph_Driver/src/stm32f4xx_cryp.c **** 
 242:App/STM32F4-Discovery/Libraries/STM32F4xx_StdPeriph_Driver/src/stm32f4xx_cryp.c ****   /* Select dataType */ 
 243:App/STM32F4-Discovery/Libraries/STM32F4xx_StdPeriph_Driver/src/stm32f4xx_cryp.c ****   CRYP->CR &= ~CRYP_CR_DATATYPE;
 170              		.loc 1 243 0
 171 00aa 274B     		ldr	r3, .L9+4
 172 00ac 264A     		ldr	r2, .L9+4
 173 00ae 1268     		ldr	r2, [r2]
 174 00b0 22F0C002 		bic	r2, r2, #192
 175 00b4 1A60     		str	r2, [r3]
 244:App/STM32F4-Discovery/Libraries/STM32F4xx_StdPeriph_Driver/src/stm32f4xx_cryp.c ****   CRYP->CR |= CRYP_InitStruct->CRYP_DataType;
 176              		.loc 1 244 0
 177 00b6 244B     		ldr	r3, .L9+4
 178 00b8 234A     		ldr	r2, .L9+4
 179 00ba 1168     		ldr	r1, [r2]
 180 00bc 7A68     		ldr	r2, [r7, #4]
 181 00be 9288     		ldrh	r2, [r2, #4]
 182 00c0 0A43     		orrs	r2, r2, r1
 183 00c2 1A60     		str	r2, [r3]
 245:App/STM32F4-Discovery/Libraries/STM32F4xx_StdPeriph_Driver/src/stm32f4xx_cryp.c **** 
 246:App/STM32F4-Discovery/Libraries/STM32F4xx_StdPeriph_Driver/src/stm32f4xx_cryp.c ****   /* select Key size (used only with AES algorithm) */
 247:App/STM32F4-Discovery/Libraries/STM32F4xx_StdPeriph_Driver/src/stm32f4xx_cryp.c ****   if ((CRYP_InitStruct->CRYP_AlgoMode == CRYP_AlgoMode_AES_ECB) ||
 184              		.loc 1 247 0
 185 00c4 7B68     		ldr	r3, [r7, #4]
 186 00c6 5B88     		ldrh	r3, [r3, #2]
 187 00c8 202B     		cmp	r3, #32
 188 00ca 0BD0     		beq	.L6
 248:App/STM32F4-Discovery/Libraries/STM32F4xx_StdPeriph_Driver/src/stm32f4xx_cryp.c ****       (CRYP_InitStruct->CRYP_AlgoMode == CRYP_AlgoMode_AES_CBC) ||
 189              		.loc 1 248 0 discriminator 1
 190 00cc 7B68     		ldr	r3, [r7, #4]
 191 00ce 5B88     		ldrh	r3, [r3, #2]
 247:App/STM32F4-Discovery/Libraries/STM32F4xx_StdPeriph_Driver/src/stm32f4xx_cryp.c ****   if ((CRYP_InitStruct->CRYP_AlgoMode == CRYP_AlgoMode_AES_ECB) ||
 192              		.loc 1 247 0 discriminator 1
 193 00d0 282B     		cmp	r3, #40
 194 00d2 07D0     		beq	.L6
 249:App/STM32F4-Discovery/Libraries/STM32F4xx_StdPeriph_Driver/src/stm32f4xx_cryp.c ****       (CRYP_InitStruct->CRYP_AlgoMode == CRYP_AlgoMode_AES_CTR) ||
 195              		.loc 1 249 0
 196 00d4 7B68     		ldr	r3, [r7, #4]
 197 00d6 5B88     		ldrh	r3, [r3, #2]
 248:App/STM32F4-Discovery/Libraries/STM32F4xx_StdPeriph_Driver/src/stm32f4xx_cryp.c ****       (CRYP_InitStruct->CRYP_AlgoMode == CRYP_AlgoMode_AES_CBC) ||
 198              		.loc 1 248 0
 199 00d8 302B     		cmp	r3, #48
 200 00da 03D0     		beq	.L6
 250:App/STM32F4-Discovery/Libraries/STM32F4xx_StdPeriph_Driver/src/stm32f4xx_cryp.c ****       (CRYP_InitStruct->CRYP_AlgoMode == CRYP_AlgoMode_AES_Key))
 201              		.loc 1 250 0
 202 00dc 7B68     		ldr	r3, [r7, #4]
 203 00de 5B88     		ldrh	r3, [r3, #2]
 249:App/STM32F4-Discovery/Libraries/STM32F4xx_StdPeriph_Driver/src/stm32f4xx_cryp.c ****       (CRYP_InitStruct->CRYP_AlgoMode == CRYP_AlgoMode_AES_CTR) ||
 204              		.loc 1 249 0
 205 00e0 382B     		cmp	r3, #56
 206 00e2 1ED1     		bne	.L7
 207              	.L6:
 251:App/STM32F4-Discovery/Libraries/STM32F4xx_StdPeriph_Driver/src/stm32f4xx_cryp.c ****   {
 252:App/STM32F4-Discovery/Libraries/STM32F4xx_StdPeriph_Driver/src/stm32f4xx_cryp.c ****     assert_param(IS_CRYP_KEYSIZE(CRYP_InitStruct->CRYP_KeySize));
 208              		.loc 1 252 0
 209 00e4 7B68     		ldr	r3, [r7, #4]
 210 00e6 DB88     		ldrh	r3, [r3, #6]
 211 00e8 002B     		cmp	r3, #0
 212 00ea 0DD0     		beq	.L8
 213              		.loc 1 252 0 is_stmt 0 discriminator 1
 214 00ec 7B68     		ldr	r3, [r7, #4]
 215 00ee DB88     		ldrh	r3, [r3, #6]
 216 00f0 B3F5807F 		cmp	r3, #256
 217 00f4 08D0     		beq	.L8
 218 00f6 7B68     		ldr	r3, [r7, #4]
 219 00f8 DB88     		ldrh	r3, [r3, #6]
 220 00fa B3F5007F 		cmp	r3, #512
 221 00fe 03D0     		beq	.L8
 222 0100 1048     		ldr	r0, .L9
 223 0102 FC21     		movs	r1, #252
 224 0104 FFF7FEFF 		bl	assert_failed
 225              	.L8:
 253:App/STM32F4-Discovery/Libraries/STM32F4xx_StdPeriph_Driver/src/stm32f4xx_cryp.c ****     CRYP->CR &= ~CRYP_CR_KEYSIZE;
 226              		.loc 1 253 0 is_stmt 1
 227 0108 0F4B     		ldr	r3, .L9+4
 228 010a 0F4A     		ldr	r2, .L9+4
 229 010c 1268     		ldr	r2, [r2]
 230 010e 22F44072 		bic	r2, r2, #768
 231 0112 1A60     		str	r2, [r3]
 254:App/STM32F4-Discovery/Libraries/STM32F4xx_StdPeriph_Driver/src/stm32f4xx_cryp.c ****     CRYP->CR |= CRYP_InitStruct->CRYP_KeySize; /* Key size and value must be 
 232              		.loc 1 254 0
 233 0114 0C4B     		ldr	r3, .L9+4
 234 0116 0C4A     		ldr	r2, .L9+4
 235 0118 1168     		ldr	r1, [r2]
 236 011a 7A68     		ldr	r2, [r7, #4]
 237 011c D288     		ldrh	r2, [r2, #6]
 238 011e 0A43     		orrs	r2, r2, r1
 239 0120 1A60     		str	r2, [r3]
 240              	.L7:
 255:App/STM32F4-Discovery/Libraries/STM32F4xx_StdPeriph_Driver/src/stm32f4xx_cryp.c ****                                                   configured once the key has 
 256:App/STM32F4-Discovery/Libraries/STM32F4xx_StdPeriph_Driver/src/stm32f4xx_cryp.c ****                                                   been prepared */
 257:App/STM32F4-Discovery/Libraries/STM32F4xx_StdPeriph_Driver/src/stm32f4xx_cryp.c ****   }
 258:App/STM32F4-Discovery/Libraries/STM32F4xx_StdPeriph_Driver/src/stm32f4xx_cryp.c **** 
 259:App/STM32F4-Discovery/Libraries/STM32F4xx_StdPeriph_Driver/src/stm32f4xx_cryp.c ****   /* Select data Direction */ 
 260:App/STM32F4-Discovery/Libraries/STM32F4xx_StdPeriph_Driver/src/stm32f4xx_cryp.c ****   CRYP->CR &= ~CRYP_CR_ALGODIR;
 241              		.loc 1 260 0
 242 0122 094B     		ldr	r3, .L9+4
 243 0124 084A     		ldr	r2, .L9+4
 244 0126 1268     		ldr	r2, [r2]
 245 0128 22F00402 		bic	r2, r2, #4
 246 012c 1A60     		str	r2, [r3]
 261:App/STM32F4-Discovery/Libraries/STM32F4xx_StdPeriph_Driver/src/stm32f4xx_cryp.c ****   CRYP->CR |= CRYP_InitStruct->CRYP_AlgoDir;
 247              		.loc 1 261 0
 248 012e 064B     		ldr	r3, .L9+4
 249 0130 054A     		ldr	r2, .L9+4
 250 0132 1168     		ldr	r1, [r2]
 251 0134 7A68     		ldr	r2, [r7, #4]
 252 0136 1288     		ldrh	r2, [r2]
 253 0138 0A43     		orrs	r2, r2, r1
 254 013a 1A60     		str	r2, [r3]
 262:App/STM32F4-Discovery/Libraries/STM32F4xx_StdPeriph_Driver/src/stm32f4xx_cryp.c **** }
 255              		.loc 1 262 0
 256 013c 0837     		adds	r7, r7, #8
 257 013e BD46     		mov	sp, r7
 258              		@ sp needed
 259 0140 80BD     		pop	{r7, pc}
 260              	.L10:
 261 0142 00BF     		.align	2
 262              	.L9:
 263 0144 00000000 		.word	.LC0
 264 0148 00000650 		.word	1342570496
 265              		.cfi_endproc
 266              	.LFE111:
 268              		.section	.text.CRYP_StructInit,"ax",%progbits
 269              		.align	2
 270              		.global	CRYP_StructInit
 271              		.thumb
 272              		.thumb_func
 274              	CRYP_StructInit:
 275              	.LFB112:
 263:App/STM32F4-Discovery/Libraries/STM32F4xx_StdPeriph_Driver/src/stm32f4xx_cryp.c **** 
 264:App/STM32F4-Discovery/Libraries/STM32F4xx_StdPeriph_Driver/src/stm32f4xx_cryp.c **** /**
 265:App/STM32F4-Discovery/Libraries/STM32F4xx_StdPeriph_Driver/src/stm32f4xx_cryp.c ****   * @brief  Fills each CRYP_InitStruct member with its default value.
 266:App/STM32F4-Discovery/Libraries/STM32F4xx_StdPeriph_Driver/src/stm32f4xx_cryp.c ****   * @param  CRYP_InitStruct: pointer to a CRYP_InitTypeDef structure which will
 267:App/STM32F4-Discovery/Libraries/STM32F4xx_StdPeriph_Driver/src/stm32f4xx_cryp.c ****   *         be initialized.
 268:App/STM32F4-Discovery/Libraries/STM32F4xx_StdPeriph_Driver/src/stm32f4xx_cryp.c ****   * @retval None
 269:App/STM32F4-Discovery/Libraries/STM32F4xx_StdPeriph_Driver/src/stm32f4xx_cryp.c ****   */
 270:App/STM32F4-Discovery/Libraries/STM32F4xx_StdPeriph_Driver/src/stm32f4xx_cryp.c **** void CRYP_StructInit(CRYP_InitTypeDef* CRYP_InitStruct)
 271:App/STM32F4-Discovery/Libraries/STM32F4xx_StdPeriph_Driver/src/stm32f4xx_cryp.c **** {
 276              		.loc 1 271 0
 277              		.cfi_startproc
 278              		@ args = 0, pretend = 0, frame = 8
 279              		@ frame_needed = 1, uses_anonymous_args = 0
 280              		@ link register save eliminated.
 281 0000 80B4     		push	{r7}
 282              	.LCFI5:
 283              		.cfi_def_cfa_offset 4
 284              		.cfi_offset 7, -4
 285 0002 83B0     		sub	sp, sp, #12
 286              	.LCFI6:
 287              		.cfi_def_cfa_offset 16
 288 0004 00AF     		add	r7, sp, #0
 289              	.LCFI7:
 290              		.cfi_def_cfa_register 7
 291 0006 7860     		str	r0, [r7, #4]
 272:App/STM32F4-Discovery/Libraries/STM32F4xx_StdPeriph_Driver/src/stm32f4xx_cryp.c ****   /* Initialize the CRYP_AlgoDir member */
 273:App/STM32F4-Discovery/Libraries/STM32F4xx_StdPeriph_Driver/src/stm32f4xx_cryp.c ****   CRYP_InitStruct->CRYP_AlgoDir = CRYP_AlgoDir_Encrypt;
 292              		.loc 1 273 0
 293 0008 7B68     		ldr	r3, [r7, #4]
 294 000a 0022     		movs	r2, #0
 295 000c 1A80     		strh	r2, [r3]	@ movhi
 274:App/STM32F4-Discovery/Libraries/STM32F4xx_StdPeriph_Driver/src/stm32f4xx_cryp.c **** 
 275:App/STM32F4-Discovery/Libraries/STM32F4xx_StdPeriph_Driver/src/stm32f4xx_cryp.c ****   /* initialize the CRYP_AlgoMode member */
 276:App/STM32F4-Discovery/Libraries/STM32F4xx_StdPeriph_Driver/src/stm32f4xx_cryp.c ****   CRYP_InitStruct->CRYP_AlgoMode = CRYP_AlgoMode_TDES_ECB;
 296              		.loc 1 276 0
 297 000e 7B68     		ldr	r3, [r7, #4]
 298 0010 0022     		movs	r2, #0
 299 0012 5A80     		strh	r2, [r3, #2]	@ movhi
 277:App/STM32F4-Discovery/Libraries/STM32F4xx_StdPeriph_Driver/src/stm32f4xx_cryp.c **** 
 278:App/STM32F4-Discovery/Libraries/STM32F4xx_StdPeriph_Driver/src/stm32f4xx_cryp.c ****   /* initialize the CRYP_DataType member */
 279:App/STM32F4-Discovery/Libraries/STM32F4xx_StdPeriph_Driver/src/stm32f4xx_cryp.c ****   CRYP_InitStruct->CRYP_DataType = CRYP_DataType_32b;
 300              		.loc 1 279 0
 301 0014 7B68     		ldr	r3, [r7, #4]
 302 0016 0022     		movs	r2, #0
 303 0018 9A80     		strh	r2, [r3, #4]	@ movhi
 280:App/STM32F4-Discovery/Libraries/STM32F4xx_StdPeriph_Driver/src/stm32f4xx_cryp.c ****   
 281:App/STM32F4-Discovery/Libraries/STM32F4xx_StdPeriph_Driver/src/stm32f4xx_cryp.c ****   /* Initialize the CRYP_KeySize member */
 282:App/STM32F4-Discovery/Libraries/STM32F4xx_StdPeriph_Driver/src/stm32f4xx_cryp.c ****   CRYP_InitStruct->CRYP_KeySize = CRYP_KeySize_128b;
 304              		.loc 1 282 0
 305 001a 7B68     		ldr	r3, [r7, #4]
 306 001c 0022     		movs	r2, #0
 307 001e DA80     		strh	r2, [r3, #6]	@ movhi
 283:App/STM32F4-Discovery/Libraries/STM32F4xx_StdPeriph_Driver/src/stm32f4xx_cryp.c **** }
 308              		.loc 1 283 0
 309 0020 0C37     		adds	r7, r7, #12
 310 0022 BD46     		mov	sp, r7
 311              		@ sp needed
 312 0024 5DF8047B 		ldr	r7, [sp], #4
 313 0028 7047     		bx	lr
 314              		.cfi_endproc
 315              	.LFE112:
 317 002a 00BF     		.section	.text.CRYP_KeyInit,"ax",%progbits
 318              		.align	2
 319              		.global	CRYP_KeyInit
 320              		.thumb
 321              		.thumb_func
 323              	CRYP_KeyInit:
 324              	.LFB113:
 284:App/STM32F4-Discovery/Libraries/STM32F4xx_StdPeriph_Driver/src/stm32f4xx_cryp.c **** 
 285:App/STM32F4-Discovery/Libraries/STM32F4xx_StdPeriph_Driver/src/stm32f4xx_cryp.c **** /**
 286:App/STM32F4-Discovery/Libraries/STM32F4xx_StdPeriph_Driver/src/stm32f4xx_cryp.c ****   * @brief  Initializes the CRYP Keys according to the specified parameters in
 287:App/STM32F4-Discovery/Libraries/STM32F4xx_StdPeriph_Driver/src/stm32f4xx_cryp.c ****   *         the CRYP_KeyInitStruct.
 288:App/STM32F4-Discovery/Libraries/STM32F4xx_StdPeriph_Driver/src/stm32f4xx_cryp.c ****   * @param  CRYP_KeyInitStruct: pointer to a CRYP_KeyInitTypeDef structure that
 289:App/STM32F4-Discovery/Libraries/STM32F4xx_StdPeriph_Driver/src/stm32f4xx_cryp.c ****   *         contains the configuration information for the CRYP Keys.
 290:App/STM32F4-Discovery/Libraries/STM32F4xx_StdPeriph_Driver/src/stm32f4xx_cryp.c ****   * @retval None
 291:App/STM32F4-Discovery/Libraries/STM32F4xx_StdPeriph_Driver/src/stm32f4xx_cryp.c ****   */
 292:App/STM32F4-Discovery/Libraries/STM32F4xx_StdPeriph_Driver/src/stm32f4xx_cryp.c **** void CRYP_KeyInit(CRYP_KeyInitTypeDef* CRYP_KeyInitStruct)
 293:App/STM32F4-Discovery/Libraries/STM32F4xx_StdPeriph_Driver/src/stm32f4xx_cryp.c **** {
 325              		.loc 1 293 0
 326              		.cfi_startproc
 327              		@ args = 0, pretend = 0, frame = 8
 328              		@ frame_needed = 1, uses_anonymous_args = 0
 329              		@ link register save eliminated.
 330 0000 80B4     		push	{r7}
 331              	.LCFI8:
 332              		.cfi_def_cfa_offset 4
 333              		.cfi_offset 7, -4
 334 0002 83B0     		sub	sp, sp, #12
 335              	.LCFI9:
 336              		.cfi_def_cfa_offset 16
 337 0004 00AF     		add	r7, sp, #0
 338              	.LCFI10:
 339              		.cfi_def_cfa_register 7
 340 0006 7860     		str	r0, [r7, #4]
 294:App/STM32F4-Discovery/Libraries/STM32F4xx_StdPeriph_Driver/src/stm32f4xx_cryp.c ****   /* Key Initialisation */
 295:App/STM32F4-Discovery/Libraries/STM32F4xx_StdPeriph_Driver/src/stm32f4xx_cryp.c ****   CRYP->K0LR = CRYP_KeyInitStruct->CRYP_Key0Left;
 341              		.loc 1 295 0
 342 0008 124B     		ldr	r3, .L13
 343 000a 7A68     		ldr	r2, [r7, #4]
 344 000c 1268     		ldr	r2, [r2]
 345 000e 1A62     		str	r2, [r3, #32]
 296:App/STM32F4-Discovery/Libraries/STM32F4xx_StdPeriph_Driver/src/stm32f4xx_cryp.c ****   CRYP->K0RR = CRYP_KeyInitStruct->CRYP_Key0Right;
 346              		.loc 1 296 0
 347 0010 104B     		ldr	r3, .L13
 348 0012 7A68     		ldr	r2, [r7, #4]
 349 0014 5268     		ldr	r2, [r2, #4]
 350 0016 5A62     		str	r2, [r3, #36]
 297:App/STM32F4-Discovery/Libraries/STM32F4xx_StdPeriph_Driver/src/stm32f4xx_cryp.c ****   CRYP->K1LR = CRYP_KeyInitStruct->CRYP_Key1Left;
 351              		.loc 1 297 0
 352 0018 0E4B     		ldr	r3, .L13
 353 001a 7A68     		ldr	r2, [r7, #4]
 354 001c 9268     		ldr	r2, [r2, #8]
 355 001e 9A62     		str	r2, [r3, #40]
 298:App/STM32F4-Discovery/Libraries/STM32F4xx_StdPeriph_Driver/src/stm32f4xx_cryp.c ****   CRYP->K1RR = CRYP_KeyInitStruct->CRYP_Key1Right;
 356              		.loc 1 298 0
 357 0020 0C4B     		ldr	r3, .L13
 358 0022 7A68     		ldr	r2, [r7, #4]
 359 0024 D268     		ldr	r2, [r2, #12]
 360 0026 DA62     		str	r2, [r3, #44]
 299:App/STM32F4-Discovery/Libraries/STM32F4xx_StdPeriph_Driver/src/stm32f4xx_cryp.c ****   CRYP->K2LR = CRYP_KeyInitStruct->CRYP_Key2Left;
 361              		.loc 1 299 0
 362 0028 0A4B     		ldr	r3, .L13
 363 002a 7A68     		ldr	r2, [r7, #4]
 364 002c 1269     		ldr	r2, [r2, #16]
 365 002e 1A63     		str	r2, [r3, #48]
 300:App/STM32F4-Discovery/Libraries/STM32F4xx_StdPeriph_Driver/src/stm32f4xx_cryp.c ****   CRYP->K2RR = CRYP_KeyInitStruct->CRYP_Key2Right;
 366              		.loc 1 300 0
 367 0030 084B     		ldr	r3, .L13
 368 0032 7A68     		ldr	r2, [r7, #4]
 369 0034 5269     		ldr	r2, [r2, #20]
 370 0036 5A63     		str	r2, [r3, #52]
 301:App/STM32F4-Discovery/Libraries/STM32F4xx_StdPeriph_Driver/src/stm32f4xx_cryp.c ****   CRYP->K3LR = CRYP_KeyInitStruct->CRYP_Key3Left;
 371              		.loc 1 301 0
 372 0038 064B     		ldr	r3, .L13
 373 003a 7A68     		ldr	r2, [r7, #4]
 374 003c 9269     		ldr	r2, [r2, #24]
 375 003e 9A63     		str	r2, [r3, #56]
 302:App/STM32F4-Discovery/Libraries/STM32F4xx_StdPeriph_Driver/src/stm32f4xx_cryp.c ****   CRYP->K3RR = CRYP_KeyInitStruct->CRYP_Key3Right;
 376              		.loc 1 302 0
 377 0040 044B     		ldr	r3, .L13
 378 0042 7A68     		ldr	r2, [r7, #4]
 379 0044 D269     		ldr	r2, [r2, #28]
 380 0046 DA63     		str	r2, [r3, #60]
 303:App/STM32F4-Discovery/Libraries/STM32F4xx_StdPeriph_Driver/src/stm32f4xx_cryp.c **** }
 381              		.loc 1 303 0
 382 0048 0C37     		adds	r7, r7, #12
 383 004a BD46     		mov	sp, r7
 384              		@ sp needed
 385 004c 5DF8047B 		ldr	r7, [sp], #4
 386 0050 7047     		bx	lr
 387              	.L14:
 388 0052 00BF     		.align	2
 389              	.L13:
 390 0054 00000650 		.word	1342570496
 391              		.cfi_endproc
 392              	.LFE113:
 394              		.section	.text.CRYP_KeyStructInit,"ax",%progbits
 395              		.align	2
 396              		.global	CRYP_KeyStructInit
 397              		.thumb
 398              		.thumb_func
 400              	CRYP_KeyStructInit:
 401              	.LFB114:
 304:App/STM32F4-Discovery/Libraries/STM32F4xx_StdPeriph_Driver/src/stm32f4xx_cryp.c **** 
 305:App/STM32F4-Discovery/Libraries/STM32F4xx_StdPeriph_Driver/src/stm32f4xx_cryp.c **** /**
 306:App/STM32F4-Discovery/Libraries/STM32F4xx_StdPeriph_Driver/src/stm32f4xx_cryp.c ****   * @brief  Fills each CRYP_KeyInitStruct member with its default value.
 307:App/STM32F4-Discovery/Libraries/STM32F4xx_StdPeriph_Driver/src/stm32f4xx_cryp.c ****   * @param  CRYP_KeyInitStruct: pointer to a CRYP_KeyInitTypeDef structure 
 308:App/STM32F4-Discovery/Libraries/STM32F4xx_StdPeriph_Driver/src/stm32f4xx_cryp.c ****   *         which will be initialized.
 309:App/STM32F4-Discovery/Libraries/STM32F4xx_StdPeriph_Driver/src/stm32f4xx_cryp.c ****   * @retval None
 310:App/STM32F4-Discovery/Libraries/STM32F4xx_StdPeriph_Driver/src/stm32f4xx_cryp.c ****   */
 311:App/STM32F4-Discovery/Libraries/STM32F4xx_StdPeriph_Driver/src/stm32f4xx_cryp.c **** void CRYP_KeyStructInit(CRYP_KeyInitTypeDef* CRYP_KeyInitStruct)
 312:App/STM32F4-Discovery/Libraries/STM32F4xx_StdPeriph_Driver/src/stm32f4xx_cryp.c **** {
 402              		.loc 1 312 0
 403              		.cfi_startproc
 404              		@ args = 0, pretend = 0, frame = 8
 405              		@ frame_needed = 1, uses_anonymous_args = 0
 406              		@ link register save eliminated.
 407 0000 80B4     		push	{r7}
 408              	.LCFI11:
 409              		.cfi_def_cfa_offset 4
 410              		.cfi_offset 7, -4
 411 0002 83B0     		sub	sp, sp, #12
 412              	.LCFI12:
 413              		.cfi_def_cfa_offset 16
 414 0004 00AF     		add	r7, sp, #0
 415              	.LCFI13:
 416              		.cfi_def_cfa_register 7
 417 0006 7860     		str	r0, [r7, #4]
 313:App/STM32F4-Discovery/Libraries/STM32F4xx_StdPeriph_Driver/src/stm32f4xx_cryp.c ****   CRYP_KeyInitStruct->CRYP_Key0Left  = 0;
 418              		.loc 1 313 0
 419 0008 7B68     		ldr	r3, [r7, #4]
 420 000a 0022     		movs	r2, #0
 421 000c 1A60     		str	r2, [r3]
 314:App/STM32F4-Discovery/Libraries/STM32F4xx_StdPeriph_Driver/src/stm32f4xx_cryp.c ****   CRYP_KeyInitStruct->CRYP_Key0Right = 0;
 422              		.loc 1 314 0
 423 000e 7B68     		ldr	r3, [r7, #4]
 424 0010 0022     		movs	r2, #0
 425 0012 5A60     		str	r2, [r3, #4]
 315:App/STM32F4-Discovery/Libraries/STM32F4xx_StdPeriph_Driver/src/stm32f4xx_cryp.c ****   CRYP_KeyInitStruct->CRYP_Key1Left  = 0;
 426              		.loc 1 315 0
 427 0014 7B68     		ldr	r3, [r7, #4]
 428 0016 0022     		movs	r2, #0
 429 0018 9A60     		str	r2, [r3, #8]
 316:App/STM32F4-Discovery/Libraries/STM32F4xx_StdPeriph_Driver/src/stm32f4xx_cryp.c ****   CRYP_KeyInitStruct->CRYP_Key1Right = 0;
 430              		.loc 1 316 0
 431 001a 7B68     		ldr	r3, [r7, #4]
 432 001c 0022     		movs	r2, #0
 433 001e DA60     		str	r2, [r3, #12]
 317:App/STM32F4-Discovery/Libraries/STM32F4xx_StdPeriph_Driver/src/stm32f4xx_cryp.c ****   CRYP_KeyInitStruct->CRYP_Key2Left  = 0;
 434              		.loc 1 317 0
 435 0020 7B68     		ldr	r3, [r7, #4]
 436 0022 0022     		movs	r2, #0
 437 0024 1A61     		str	r2, [r3, #16]
 318:App/STM32F4-Discovery/Libraries/STM32F4xx_StdPeriph_Driver/src/stm32f4xx_cryp.c ****   CRYP_KeyInitStruct->CRYP_Key2Right = 0;
 438              		.loc 1 318 0
 439 0026 7B68     		ldr	r3, [r7, #4]
 440 0028 0022     		movs	r2, #0
 441 002a 5A61     		str	r2, [r3, #20]
 319:App/STM32F4-Discovery/Libraries/STM32F4xx_StdPeriph_Driver/src/stm32f4xx_cryp.c ****   CRYP_KeyInitStruct->CRYP_Key3Left  = 0;
 442              		.loc 1 319 0
 443 002c 7B68     		ldr	r3, [r7, #4]
 444 002e 0022     		movs	r2, #0
 445 0030 9A61     		str	r2, [r3, #24]
 320:App/STM32F4-Discovery/Libraries/STM32F4xx_StdPeriph_Driver/src/stm32f4xx_cryp.c ****   CRYP_KeyInitStruct->CRYP_Key3Right = 0;
 446              		.loc 1 320 0
 447 0032 7B68     		ldr	r3, [r7, #4]
 448 0034 0022     		movs	r2, #0
 449 0036 DA61     		str	r2, [r3, #28]
 321:App/STM32F4-Discovery/Libraries/STM32F4xx_StdPeriph_Driver/src/stm32f4xx_cryp.c **** }
 450              		.loc 1 321 0
 451 0038 0C37     		adds	r7, r7, #12
 452 003a BD46     		mov	sp, r7
 453              		@ sp needed
 454 003c 5DF8047B 		ldr	r7, [sp], #4
 455 0040 7047     		bx	lr
 456              		.cfi_endproc
 457              	.LFE114:
 459 0042 00BF     		.section	.text.CRYP_IVInit,"ax",%progbits
 460              		.align	2
 461              		.global	CRYP_IVInit
 462              		.thumb
 463              		.thumb_func
 465              	CRYP_IVInit:
 466              	.LFB115:
 322:App/STM32F4-Discovery/Libraries/STM32F4xx_StdPeriph_Driver/src/stm32f4xx_cryp.c **** /**
 323:App/STM32F4-Discovery/Libraries/STM32F4xx_StdPeriph_Driver/src/stm32f4xx_cryp.c ****   * @brief  Initializes the CRYP Initialization Vectors(IV) according to the
 324:App/STM32F4-Discovery/Libraries/STM32F4xx_StdPeriph_Driver/src/stm32f4xx_cryp.c ****   *         specified parameters in the CRYP_IVInitStruct.
 325:App/STM32F4-Discovery/Libraries/STM32F4xx_StdPeriph_Driver/src/stm32f4xx_cryp.c ****   * @param  CRYP_IVInitStruct: pointer to a CRYP_IVInitTypeDef structure that contains
 326:App/STM32F4-Discovery/Libraries/STM32F4xx_StdPeriph_Driver/src/stm32f4xx_cryp.c ****   *         the configuration information for the CRYP Initialization Vectors(IV).
 327:App/STM32F4-Discovery/Libraries/STM32F4xx_StdPeriph_Driver/src/stm32f4xx_cryp.c ****   * @retval None
 328:App/STM32F4-Discovery/Libraries/STM32F4xx_StdPeriph_Driver/src/stm32f4xx_cryp.c ****   */
 329:App/STM32F4-Discovery/Libraries/STM32F4xx_StdPeriph_Driver/src/stm32f4xx_cryp.c **** void CRYP_IVInit(CRYP_IVInitTypeDef* CRYP_IVInitStruct)
 330:App/STM32F4-Discovery/Libraries/STM32F4xx_StdPeriph_Driver/src/stm32f4xx_cryp.c **** {
 467              		.loc 1 330 0
 468              		.cfi_startproc
 469              		@ args = 0, pretend = 0, frame = 8
 470              		@ frame_needed = 1, uses_anonymous_args = 0
 471              		@ link register save eliminated.
 472 0000 80B4     		push	{r7}
 473              	.LCFI14:
 474              		.cfi_def_cfa_offset 4
 475              		.cfi_offset 7, -4
 476 0002 83B0     		sub	sp, sp, #12
 477              	.LCFI15:
 478              		.cfi_def_cfa_offset 16
 479 0004 00AF     		add	r7, sp, #0
 480              	.LCFI16:
 481              		.cfi_def_cfa_register 7
 482 0006 7860     		str	r0, [r7, #4]
 331:App/STM32F4-Discovery/Libraries/STM32F4xx_StdPeriph_Driver/src/stm32f4xx_cryp.c ****   CRYP->IV0LR = CRYP_IVInitStruct->CRYP_IV0Left;
 483              		.loc 1 331 0
 484 0008 0A4B     		ldr	r3, .L17
 485 000a 7A68     		ldr	r2, [r7, #4]
 486 000c 1268     		ldr	r2, [r2]
 487 000e 1A64     		str	r2, [r3, #64]
 332:App/STM32F4-Discovery/Libraries/STM32F4xx_StdPeriph_Driver/src/stm32f4xx_cryp.c ****   CRYP->IV0RR = CRYP_IVInitStruct->CRYP_IV0Right;
 488              		.loc 1 332 0
 489 0010 084B     		ldr	r3, .L17
 490 0012 7A68     		ldr	r2, [r7, #4]
 491 0014 5268     		ldr	r2, [r2, #4]
 492 0016 5A64     		str	r2, [r3, #68]
 333:App/STM32F4-Discovery/Libraries/STM32F4xx_StdPeriph_Driver/src/stm32f4xx_cryp.c ****   CRYP->IV1LR = CRYP_IVInitStruct->CRYP_IV1Left;
 493              		.loc 1 333 0
 494 0018 064B     		ldr	r3, .L17
 495 001a 7A68     		ldr	r2, [r7, #4]
 496 001c 9268     		ldr	r2, [r2, #8]
 497 001e 9A64     		str	r2, [r3, #72]
 334:App/STM32F4-Discovery/Libraries/STM32F4xx_StdPeriph_Driver/src/stm32f4xx_cryp.c ****   CRYP->IV1RR = CRYP_IVInitStruct->CRYP_IV1Right;
 498              		.loc 1 334 0
 499 0020 044B     		ldr	r3, .L17
 500 0022 7A68     		ldr	r2, [r7, #4]
 501 0024 D268     		ldr	r2, [r2, #12]
 502 0026 DA64     		str	r2, [r3, #76]
 335:App/STM32F4-Discovery/Libraries/STM32F4xx_StdPeriph_Driver/src/stm32f4xx_cryp.c **** }
 503              		.loc 1 335 0
 504 0028 0C37     		adds	r7, r7, #12
 505 002a BD46     		mov	sp, r7
 506              		@ sp needed
 507 002c 5DF8047B 		ldr	r7, [sp], #4
 508 0030 7047     		bx	lr
 509              	.L18:
 510 0032 00BF     		.align	2
 511              	.L17:
 512 0034 00000650 		.word	1342570496
 513              		.cfi_endproc
 514              	.LFE115:
 516              		.section	.text.CRYP_IVStructInit,"ax",%progbits
 517              		.align	2
 518              		.global	CRYP_IVStructInit
 519              		.thumb
 520              		.thumb_func
 522              	CRYP_IVStructInit:
 523              	.LFB116:
 336:App/STM32F4-Discovery/Libraries/STM32F4xx_StdPeriph_Driver/src/stm32f4xx_cryp.c **** 
 337:App/STM32F4-Discovery/Libraries/STM32F4xx_StdPeriph_Driver/src/stm32f4xx_cryp.c **** /**
 338:App/STM32F4-Discovery/Libraries/STM32F4xx_StdPeriph_Driver/src/stm32f4xx_cryp.c ****   * @brief  Fills each CRYP_IVInitStruct member with its default value.
 339:App/STM32F4-Discovery/Libraries/STM32F4xx_StdPeriph_Driver/src/stm32f4xx_cryp.c ****   * @param  CRYP_IVInitStruct: pointer to a CRYP_IVInitTypeDef Initialization 
 340:App/STM32F4-Discovery/Libraries/STM32F4xx_StdPeriph_Driver/src/stm32f4xx_cryp.c ****   *         Vectors(IV) structure which will be initialized.
 341:App/STM32F4-Discovery/Libraries/STM32F4xx_StdPeriph_Driver/src/stm32f4xx_cryp.c ****   * @retval None
 342:App/STM32F4-Discovery/Libraries/STM32F4xx_StdPeriph_Driver/src/stm32f4xx_cryp.c ****   */
 343:App/STM32F4-Discovery/Libraries/STM32F4xx_StdPeriph_Driver/src/stm32f4xx_cryp.c **** void CRYP_IVStructInit(CRYP_IVInitTypeDef* CRYP_IVInitStruct)
 344:App/STM32F4-Discovery/Libraries/STM32F4xx_StdPeriph_Driver/src/stm32f4xx_cryp.c **** {
 524              		.loc 1 344 0
 525              		.cfi_startproc
 526              		@ args = 0, pretend = 0, frame = 8
 527              		@ frame_needed = 1, uses_anonymous_args = 0
 528              		@ link register save eliminated.
 529 0000 80B4     		push	{r7}
 530              	.LCFI17:
 531              		.cfi_def_cfa_offset 4
 532              		.cfi_offset 7, -4
 533 0002 83B0     		sub	sp, sp, #12
 534              	.LCFI18:
 535              		.cfi_def_cfa_offset 16
 536 0004 00AF     		add	r7, sp, #0
 537              	.LCFI19:
 538              		.cfi_def_cfa_register 7
 539 0006 7860     		str	r0, [r7, #4]
 345:App/STM32F4-Discovery/Libraries/STM32F4xx_StdPeriph_Driver/src/stm32f4xx_cryp.c ****   CRYP_IVInitStruct->CRYP_IV0Left  = 0;
 540              		.loc 1 345 0
 541 0008 7B68     		ldr	r3, [r7, #4]
 542 000a 0022     		movs	r2, #0
 543 000c 1A60     		str	r2, [r3]
 346:App/STM32F4-Discovery/Libraries/STM32F4xx_StdPeriph_Driver/src/stm32f4xx_cryp.c ****   CRYP_IVInitStruct->CRYP_IV0Right = 0;
 544              		.loc 1 346 0
 545 000e 7B68     		ldr	r3, [r7, #4]
 546 0010 0022     		movs	r2, #0
 547 0012 5A60     		str	r2, [r3, #4]
 347:App/STM32F4-Discovery/Libraries/STM32F4xx_StdPeriph_Driver/src/stm32f4xx_cryp.c ****   CRYP_IVInitStruct->CRYP_IV1Left  = 0;
 548              		.loc 1 347 0
 549 0014 7B68     		ldr	r3, [r7, #4]
 550 0016 0022     		movs	r2, #0
 551 0018 9A60     		str	r2, [r3, #8]
 348:App/STM32F4-Discovery/Libraries/STM32F4xx_StdPeriph_Driver/src/stm32f4xx_cryp.c ****   CRYP_IVInitStruct->CRYP_IV1Right = 0;
 552              		.loc 1 348 0
 553 001a 7B68     		ldr	r3, [r7, #4]
 554 001c 0022     		movs	r2, #0
 555 001e DA60     		str	r2, [r3, #12]
 349:App/STM32F4-Discovery/Libraries/STM32F4xx_StdPeriph_Driver/src/stm32f4xx_cryp.c **** }
 556              		.loc 1 349 0
 557 0020 0C37     		adds	r7, r7, #12
 558 0022 BD46     		mov	sp, r7
 559              		@ sp needed
 560 0024 5DF8047B 		ldr	r7, [sp], #4
 561 0028 7047     		bx	lr
 562              		.cfi_endproc
 563              	.LFE116:
 565 002a 00BF     		.section	.text.CRYP_FIFOFlush,"ax",%progbits
 566              		.align	2
 567              		.global	CRYP_FIFOFlush
 568              		.thumb
 569              		.thumb_func
 571              	CRYP_FIFOFlush:
 572              	.LFB117:
 350:App/STM32F4-Discovery/Libraries/STM32F4xx_StdPeriph_Driver/src/stm32f4xx_cryp.c **** 
 351:App/STM32F4-Discovery/Libraries/STM32F4xx_StdPeriph_Driver/src/stm32f4xx_cryp.c **** /**
 352:App/STM32F4-Discovery/Libraries/STM32F4xx_StdPeriph_Driver/src/stm32f4xx_cryp.c ****   * @brief  Flushes the IN and OUT FIFOs (that is read and write pointers of the 
 353:App/STM32F4-Discovery/Libraries/STM32F4xx_StdPeriph_Driver/src/stm32f4xx_cryp.c ****   *         FIFOs are reset)
 354:App/STM32F4-Discovery/Libraries/STM32F4xx_StdPeriph_Driver/src/stm32f4xx_cryp.c ****   * @note   The FIFOs must be flushed only when BUSY flag is reset.  
 355:App/STM32F4-Discovery/Libraries/STM32F4xx_StdPeriph_Driver/src/stm32f4xx_cryp.c ****   * @param  None
 356:App/STM32F4-Discovery/Libraries/STM32F4xx_StdPeriph_Driver/src/stm32f4xx_cryp.c ****   * @retval None
 357:App/STM32F4-Discovery/Libraries/STM32F4xx_StdPeriph_Driver/src/stm32f4xx_cryp.c ****   */
 358:App/STM32F4-Discovery/Libraries/STM32F4xx_StdPeriph_Driver/src/stm32f4xx_cryp.c **** void CRYP_FIFOFlush(void)
 359:App/STM32F4-Discovery/Libraries/STM32F4xx_StdPeriph_Driver/src/stm32f4xx_cryp.c **** {
 573              		.loc 1 359 0
 574              		.cfi_startproc
 575              		@ args = 0, pretend = 0, frame = 0
 576              		@ frame_needed = 1, uses_anonymous_args = 0
 577              		@ link register save eliminated.
 578 0000 80B4     		push	{r7}
 579              	.LCFI20:
 580              		.cfi_def_cfa_offset 4
 581              		.cfi_offset 7, -4
 582 0002 00AF     		add	r7, sp, #0
 583              	.LCFI21:
 584              		.cfi_def_cfa_register 7
 360:App/STM32F4-Discovery/Libraries/STM32F4xx_StdPeriph_Driver/src/stm32f4xx_cryp.c ****   /* Reset the read and write pointers of the FIFOs */
 361:App/STM32F4-Discovery/Libraries/STM32F4xx_StdPeriph_Driver/src/stm32f4xx_cryp.c ****   CRYP->CR |= CRYP_CR_FFLUSH;
 585              		.loc 1 361 0
 586 0004 044B     		ldr	r3, .L21
 587 0006 044A     		ldr	r2, .L21
 588 0008 1268     		ldr	r2, [r2]
 589 000a 42F48042 		orr	r2, r2, #16384
 590 000e 1A60     		str	r2, [r3]
 362:App/STM32F4-Discovery/Libraries/STM32F4xx_StdPeriph_Driver/src/stm32f4xx_cryp.c **** }
 591              		.loc 1 362 0
 592 0010 BD46     		mov	sp, r7
 593              		@ sp needed
 594 0012 5DF8047B 		ldr	r7, [sp], #4
 595 0016 7047     		bx	lr
 596              	.L22:
 597              		.align	2
 598              	.L21:
 599 0018 00000650 		.word	1342570496
 600              		.cfi_endproc
 601              	.LFE117:
 603              		.section	.text.CRYP_Cmd,"ax",%progbits
 604              		.align	2
 605              		.global	CRYP_Cmd
 606              		.thumb
 607              		.thumb_func
 609              	CRYP_Cmd:
 610              	.LFB118:
 363:App/STM32F4-Discovery/Libraries/STM32F4xx_StdPeriph_Driver/src/stm32f4xx_cryp.c **** 
 364:App/STM32F4-Discovery/Libraries/STM32F4xx_StdPeriph_Driver/src/stm32f4xx_cryp.c **** /**
 365:App/STM32F4-Discovery/Libraries/STM32F4xx_StdPeriph_Driver/src/stm32f4xx_cryp.c ****   * @brief  Enables or disables the CRYP peripheral.
 366:App/STM32F4-Discovery/Libraries/STM32F4xx_StdPeriph_Driver/src/stm32f4xx_cryp.c ****   * @param  NewState: new state of the CRYP peripheral.
 367:App/STM32F4-Discovery/Libraries/STM32F4xx_StdPeriph_Driver/src/stm32f4xx_cryp.c ****   *          This parameter can be: ENABLE or DISABLE.
 368:App/STM32F4-Discovery/Libraries/STM32F4xx_StdPeriph_Driver/src/stm32f4xx_cryp.c ****   * @retval None
 369:App/STM32F4-Discovery/Libraries/STM32F4xx_StdPeriph_Driver/src/stm32f4xx_cryp.c ****   */
 370:App/STM32F4-Discovery/Libraries/STM32F4xx_StdPeriph_Driver/src/stm32f4xx_cryp.c **** void CRYP_Cmd(FunctionalState NewState)
 371:App/STM32F4-Discovery/Libraries/STM32F4xx_StdPeriph_Driver/src/stm32f4xx_cryp.c **** {
 611              		.loc 1 371 0
 612              		.cfi_startproc
 613              		@ args = 0, pretend = 0, frame = 8
 614              		@ frame_needed = 1, uses_anonymous_args = 0
 615 0000 80B5     		push	{r7, lr}
 616              	.LCFI22:
 617              		.cfi_def_cfa_offset 8
 618              		.cfi_offset 7, -8
 619              		.cfi_offset 14, -4
 620 0002 82B0     		sub	sp, sp, #8
 621              	.LCFI23:
 622              		.cfi_def_cfa_offset 16
 623 0004 00AF     		add	r7, sp, #0
 624              	.LCFI24:
 625              		.cfi_def_cfa_register 7
 626 0006 0346     		mov	r3, r0
 627 0008 FB71     		strb	r3, [r7, #7]
 372:App/STM32F4-Discovery/Libraries/STM32F4xx_StdPeriph_Driver/src/stm32f4xx_cryp.c ****   /* Check the parameters */
 373:App/STM32F4-Discovery/Libraries/STM32F4xx_StdPeriph_Driver/src/stm32f4xx_cryp.c ****   assert_param(IS_FUNCTIONAL_STATE(NewState));
 628              		.loc 1 373 0
 629 000a FB79     		ldrb	r3, [r7, #7]	@ zero_extendqisi2
 630 000c 002B     		cmp	r3, #0
 631 000e 07D0     		beq	.L24
 632              		.loc 1 373 0 is_stmt 0 discriminator 1
 633 0010 FB79     		ldrb	r3, [r7, #7]	@ zero_extendqisi2
 634 0012 012B     		cmp	r3, #1
 635 0014 04D0     		beq	.L24
 636 0016 0C48     		ldr	r0, .L27
 637 0018 40F27511 		movw	r1, #373
 638 001c FFF7FEFF 		bl	assert_failed
 639              	.L24:
 374:App/STM32F4-Discovery/Libraries/STM32F4xx_StdPeriph_Driver/src/stm32f4xx_cryp.c **** 
 375:App/STM32F4-Discovery/Libraries/STM32F4xx_StdPeriph_Driver/src/stm32f4xx_cryp.c ****   if (NewState != DISABLE)
 640              		.loc 1 375 0 is_stmt 1
 641 0020 FB79     		ldrb	r3, [r7, #7]	@ zero_extendqisi2
 642 0022 002B     		cmp	r3, #0
 643 0024 06D0     		beq	.L25
 376:App/STM32F4-Discovery/Libraries/STM32F4xx_StdPeriph_Driver/src/stm32f4xx_cryp.c ****   {
 377:App/STM32F4-Discovery/Libraries/STM32F4xx_StdPeriph_Driver/src/stm32f4xx_cryp.c ****     /* Enable the Cryptographic processor */
 378:App/STM32F4-Discovery/Libraries/STM32F4xx_StdPeriph_Driver/src/stm32f4xx_cryp.c ****     CRYP->CR |= CRYP_CR_CRYPEN;
 644              		.loc 1 378 0
 645 0026 094B     		ldr	r3, .L27+4
 646 0028 084A     		ldr	r2, .L27+4
 647 002a 1268     		ldr	r2, [r2]
 648 002c 42F40042 		orr	r2, r2, #32768
 649 0030 1A60     		str	r2, [r3]
 650 0032 05E0     		b	.L23
 651              	.L25:
 379:App/STM32F4-Discovery/Libraries/STM32F4xx_StdPeriph_Driver/src/stm32f4xx_cryp.c ****   }
 380:App/STM32F4-Discovery/Libraries/STM32F4xx_StdPeriph_Driver/src/stm32f4xx_cryp.c ****   else
 381:App/STM32F4-Discovery/Libraries/STM32F4xx_StdPeriph_Driver/src/stm32f4xx_cryp.c ****   {
 382:App/STM32F4-Discovery/Libraries/STM32F4xx_StdPeriph_Driver/src/stm32f4xx_cryp.c ****     /* Disable the Cryptographic processor */
 383:App/STM32F4-Discovery/Libraries/STM32F4xx_StdPeriph_Driver/src/stm32f4xx_cryp.c ****     CRYP->CR &= ~CRYP_CR_CRYPEN;
 652              		.loc 1 383 0
 653 0034 054B     		ldr	r3, .L27+4
 654 0036 054A     		ldr	r2, .L27+4
 655 0038 1268     		ldr	r2, [r2]
 656 003a 22F40042 		bic	r2, r2, #32768
 657 003e 1A60     		str	r2, [r3]
 658              	.L23:
 384:App/STM32F4-Discovery/Libraries/STM32F4xx_StdPeriph_Driver/src/stm32f4xx_cryp.c ****   }
 385:App/STM32F4-Discovery/Libraries/STM32F4xx_StdPeriph_Driver/src/stm32f4xx_cryp.c **** }
 659              		.loc 1 385 0
 660 0040 0837     		adds	r7, r7, #8
 661 0042 BD46     		mov	sp, r7
 662              		@ sp needed
 663 0044 80BD     		pop	{r7, pc}
 664              	.L28:
 665 0046 00BF     		.align	2
 666              	.L27:
 667 0048 00000000 		.word	.LC0
 668 004c 00000650 		.word	1342570496
 669              		.cfi_endproc
 670              	.LFE118:
 672              		.section	.text.CRYP_DataIn,"ax",%progbits
 673              		.align	2
 674              		.global	CRYP_DataIn
 675              		.thumb
 676              		.thumb_func
 678              	CRYP_DataIn:
 679              	.LFB119:
 386:App/STM32F4-Discovery/Libraries/STM32F4xx_StdPeriph_Driver/src/stm32f4xx_cryp.c **** /**
 387:App/STM32F4-Discovery/Libraries/STM32F4xx_StdPeriph_Driver/src/stm32f4xx_cryp.c ****   * @}
 388:App/STM32F4-Discovery/Libraries/STM32F4xx_StdPeriph_Driver/src/stm32f4xx_cryp.c ****   */
 389:App/STM32F4-Discovery/Libraries/STM32F4xx_StdPeriph_Driver/src/stm32f4xx_cryp.c ****   
 390:App/STM32F4-Discovery/Libraries/STM32F4xx_StdPeriph_Driver/src/stm32f4xx_cryp.c **** /** @defgroup CRYP_Group2 CRYP Data processing functions
 391:App/STM32F4-Discovery/Libraries/STM32F4xx_StdPeriph_Driver/src/stm32f4xx_cryp.c ****  *  @brief    CRYP Data processing functions
 392:App/STM32F4-Discovery/Libraries/STM32F4xx_StdPeriph_Driver/src/stm32f4xx_cryp.c ****  *
 393:App/STM32F4-Discovery/Libraries/STM32F4xx_StdPeriph_Driver/src/stm32f4xx_cryp.c **** @verbatim    
 394:App/STM32F4-Discovery/Libraries/STM32F4xx_StdPeriph_Driver/src/stm32f4xx_cryp.c ****  ===============================================================================
 395:App/STM32F4-Discovery/Libraries/STM32F4xx_StdPeriph_Driver/src/stm32f4xx_cryp.c ****                       CRYP Data processing functions
 396:App/STM32F4-Discovery/Libraries/STM32F4xx_StdPeriph_Driver/src/stm32f4xx_cryp.c ****  ===============================================================================  
 397:App/STM32F4-Discovery/Libraries/STM32F4xx_StdPeriph_Driver/src/stm32f4xx_cryp.c ****   This section provides functions allowing the encryption and decryption 
 398:App/STM32F4-Discovery/Libraries/STM32F4xx_StdPeriph_Driver/src/stm32f4xx_cryp.c ****   operations: 
 399:App/STM32F4-Discovery/Libraries/STM32F4xx_StdPeriph_Driver/src/stm32f4xx_cryp.c ****   - Enter data to be treated in the IN FIFO : using CRYP_DataIn() function.
 400:App/STM32F4-Discovery/Libraries/STM32F4xx_StdPeriph_Driver/src/stm32f4xx_cryp.c ****   - Get the data result from the OUT FIFO : using CRYP_DataOut() function.
 401:App/STM32F4-Discovery/Libraries/STM32F4xx_StdPeriph_Driver/src/stm32f4xx_cryp.c **** 
 402:App/STM32F4-Discovery/Libraries/STM32F4xx_StdPeriph_Driver/src/stm32f4xx_cryp.c **** @endverbatim
 403:App/STM32F4-Discovery/Libraries/STM32F4xx_StdPeriph_Driver/src/stm32f4xx_cryp.c ****   * @{
 404:App/STM32F4-Discovery/Libraries/STM32F4xx_StdPeriph_Driver/src/stm32f4xx_cryp.c ****   */
 405:App/STM32F4-Discovery/Libraries/STM32F4xx_StdPeriph_Driver/src/stm32f4xx_cryp.c **** 
 406:App/STM32F4-Discovery/Libraries/STM32F4xx_StdPeriph_Driver/src/stm32f4xx_cryp.c **** /**
 407:App/STM32F4-Discovery/Libraries/STM32F4xx_StdPeriph_Driver/src/stm32f4xx_cryp.c ****   * @brief  Writes data in the Data Input register (DIN).
 408:App/STM32F4-Discovery/Libraries/STM32F4xx_StdPeriph_Driver/src/stm32f4xx_cryp.c ****   * @note   After the DIN register has been read once or several times, 
 409:App/STM32F4-Discovery/Libraries/STM32F4xx_StdPeriph_Driver/src/stm32f4xx_cryp.c ****   *         the FIFO must be flushed (using CRYP_FIFOFlush() function).  
 410:App/STM32F4-Discovery/Libraries/STM32F4xx_StdPeriph_Driver/src/stm32f4xx_cryp.c ****   * @param  Data: data to write in Data Input register
 411:App/STM32F4-Discovery/Libraries/STM32F4xx_StdPeriph_Driver/src/stm32f4xx_cryp.c ****   * @retval None
 412:App/STM32F4-Discovery/Libraries/STM32F4xx_StdPeriph_Driver/src/stm32f4xx_cryp.c ****   */
 413:App/STM32F4-Discovery/Libraries/STM32F4xx_StdPeriph_Driver/src/stm32f4xx_cryp.c **** void CRYP_DataIn(uint32_t Data)
 414:App/STM32F4-Discovery/Libraries/STM32F4xx_StdPeriph_Driver/src/stm32f4xx_cryp.c **** {
 680              		.loc 1 414 0
 681              		.cfi_startproc
 682              		@ args = 0, pretend = 0, frame = 8
 683              		@ frame_needed = 1, uses_anonymous_args = 0
 684              		@ link register save eliminated.
 685 0000 80B4     		push	{r7}
 686              	.LCFI25:
 687              		.cfi_def_cfa_offset 4
 688              		.cfi_offset 7, -4
 689 0002 83B0     		sub	sp, sp, #12
 690              	.LCFI26:
 691              		.cfi_def_cfa_offset 16
 692 0004 00AF     		add	r7, sp, #0
 693              	.LCFI27:
 694              		.cfi_def_cfa_register 7
 695 0006 7860     		str	r0, [r7, #4]
 415:App/STM32F4-Discovery/Libraries/STM32F4xx_StdPeriph_Driver/src/stm32f4xx_cryp.c ****   CRYP->DR = Data;
 696              		.loc 1 415 0
 697 0008 034B     		ldr	r3, .L30
 698 000a 7A68     		ldr	r2, [r7, #4]
 699 000c 9A60     		str	r2, [r3, #8]
 416:App/STM32F4-Discovery/Libraries/STM32F4xx_StdPeriph_Driver/src/stm32f4xx_cryp.c **** }
 700              		.loc 1 416 0
 701 000e 0C37     		adds	r7, r7, #12
 702 0010 BD46     		mov	sp, r7
 703              		@ sp needed
 704 0012 5DF8047B 		ldr	r7, [sp], #4
 705 0016 7047     		bx	lr
 706              	.L31:
 707              		.align	2
 708              	.L30:
 709 0018 00000650 		.word	1342570496
 710              		.cfi_endproc
 711              	.LFE119:
 713              		.section	.text.CRYP_DataOut,"ax",%progbits
 714              		.align	2
 715              		.global	CRYP_DataOut
 716              		.thumb
 717              		.thumb_func
 719              	CRYP_DataOut:
 720              	.LFB120:
 417:App/STM32F4-Discovery/Libraries/STM32F4xx_StdPeriph_Driver/src/stm32f4xx_cryp.c **** 
 418:App/STM32F4-Discovery/Libraries/STM32F4xx_StdPeriph_Driver/src/stm32f4xx_cryp.c **** /**
 419:App/STM32F4-Discovery/Libraries/STM32F4xx_StdPeriph_Driver/src/stm32f4xx_cryp.c ****   * @brief  Returns the last data entered into the output FIFO.
 420:App/STM32F4-Discovery/Libraries/STM32F4xx_StdPeriph_Driver/src/stm32f4xx_cryp.c ****   * @param  None
 421:App/STM32F4-Discovery/Libraries/STM32F4xx_StdPeriph_Driver/src/stm32f4xx_cryp.c ****   * @retval Last data entered into the output FIFO.
 422:App/STM32F4-Discovery/Libraries/STM32F4xx_StdPeriph_Driver/src/stm32f4xx_cryp.c ****   */
 423:App/STM32F4-Discovery/Libraries/STM32F4xx_StdPeriph_Driver/src/stm32f4xx_cryp.c **** uint32_t CRYP_DataOut(void)
 424:App/STM32F4-Discovery/Libraries/STM32F4xx_StdPeriph_Driver/src/stm32f4xx_cryp.c **** {
 721              		.loc 1 424 0
 722              		.cfi_startproc
 723              		@ args = 0, pretend = 0, frame = 0
 724              		@ frame_needed = 1, uses_anonymous_args = 0
 725              		@ link register save eliminated.
 726 0000 80B4     		push	{r7}
 727              	.LCFI28:
 728              		.cfi_def_cfa_offset 4
 729              		.cfi_offset 7, -4
 730 0002 00AF     		add	r7, sp, #0
 731              	.LCFI29:
 732              		.cfi_def_cfa_register 7
 425:App/STM32F4-Discovery/Libraries/STM32F4xx_StdPeriph_Driver/src/stm32f4xx_cryp.c ****   return CRYP->DOUT;
 733              		.loc 1 425 0
 734 0004 034B     		ldr	r3, .L34
 735 0006 DB68     		ldr	r3, [r3, #12]
 426:App/STM32F4-Discovery/Libraries/STM32F4xx_StdPeriph_Driver/src/stm32f4xx_cryp.c **** }
 736              		.loc 1 426 0
 737 0008 1846     		mov	r0, r3
 738 000a BD46     		mov	sp, r7
 739              		@ sp needed
 740 000c 5DF8047B 		ldr	r7, [sp], #4
 741 0010 7047     		bx	lr
 742              	.L35:
 743 0012 00BF     		.align	2
 744              	.L34:
 745 0014 00000650 		.word	1342570496
 746              		.cfi_endproc
 747              	.LFE120:
 749              		.section	.text.CRYP_SaveContext,"ax",%progbits
 750              		.align	2
 751              		.global	CRYP_SaveContext
 752              		.thumb
 753              		.thumb_func
 755              	CRYP_SaveContext:
 756              	.LFB121:
 427:App/STM32F4-Discovery/Libraries/STM32F4xx_StdPeriph_Driver/src/stm32f4xx_cryp.c **** /**
 428:App/STM32F4-Discovery/Libraries/STM32F4xx_StdPeriph_Driver/src/stm32f4xx_cryp.c ****   * @}
 429:App/STM32F4-Discovery/Libraries/STM32F4xx_StdPeriph_Driver/src/stm32f4xx_cryp.c ****   */
 430:App/STM32F4-Discovery/Libraries/STM32F4xx_StdPeriph_Driver/src/stm32f4xx_cryp.c ****   
 431:App/STM32F4-Discovery/Libraries/STM32F4xx_StdPeriph_Driver/src/stm32f4xx_cryp.c **** /** @defgroup CRYP_Group3 Context swapping functions
 432:App/STM32F4-Discovery/Libraries/STM32F4xx_StdPeriph_Driver/src/stm32f4xx_cryp.c ****  *  @brief   Context swapping functions
 433:App/STM32F4-Discovery/Libraries/STM32F4xx_StdPeriph_Driver/src/stm32f4xx_cryp.c ****  *
 434:App/STM32F4-Discovery/Libraries/STM32F4xx_StdPeriph_Driver/src/stm32f4xx_cryp.c **** @verbatim   
 435:App/STM32F4-Discovery/Libraries/STM32F4xx_StdPeriph_Driver/src/stm32f4xx_cryp.c ****  ===============================================================================
 436:App/STM32F4-Discovery/Libraries/STM32F4xx_StdPeriph_Driver/src/stm32f4xx_cryp.c ****                              Context swapping functions
 437:App/STM32F4-Discovery/Libraries/STM32F4xx_StdPeriph_Driver/src/stm32f4xx_cryp.c ****  ===============================================================================  
 438:App/STM32F4-Discovery/Libraries/STM32F4xx_StdPeriph_Driver/src/stm32f4xx_cryp.c **** 
 439:App/STM32F4-Discovery/Libraries/STM32F4xx_StdPeriph_Driver/src/stm32f4xx_cryp.c ****   This section provides functions allowing to save and store CRYP Context
 440:App/STM32F4-Discovery/Libraries/STM32F4xx_StdPeriph_Driver/src/stm32f4xx_cryp.c **** 
 441:App/STM32F4-Discovery/Libraries/STM32F4xx_StdPeriph_Driver/src/stm32f4xx_cryp.c ****   It is possible to interrupt an encryption/ decryption/ key generation process 
 442:App/STM32F4-Discovery/Libraries/STM32F4xx_StdPeriph_Driver/src/stm32f4xx_cryp.c ****   to perform another processing with a higher priority, and to complete the 
 443:App/STM32F4-Discovery/Libraries/STM32F4xx_StdPeriph_Driver/src/stm32f4xx_cryp.c ****   interrupted process later on, when the higher-priority task is complete. To do 
 444:App/STM32F4-Discovery/Libraries/STM32F4xx_StdPeriph_Driver/src/stm32f4xx_cryp.c ****   so, the context of the interrupted task must be saved from the CRYP registers 
 445:App/STM32F4-Discovery/Libraries/STM32F4xx_StdPeriph_Driver/src/stm32f4xx_cryp.c ****   to memory, and then be restored from memory to the CRYP registers.
 446:App/STM32F4-Discovery/Libraries/STM32F4xx_StdPeriph_Driver/src/stm32f4xx_cryp.c ****    
 447:App/STM32F4-Discovery/Libraries/STM32F4xx_StdPeriph_Driver/src/stm32f4xx_cryp.c ****   1. To save the current context, use CRYP_SaveContext() function
 448:App/STM32F4-Discovery/Libraries/STM32F4xx_StdPeriph_Driver/src/stm32f4xx_cryp.c ****   2. To restore the saved context, use CRYP_RestoreContext() function 
 449:App/STM32F4-Discovery/Libraries/STM32F4xx_StdPeriph_Driver/src/stm32f4xx_cryp.c **** 
 450:App/STM32F4-Discovery/Libraries/STM32F4xx_StdPeriph_Driver/src/stm32f4xx_cryp.c **** 
 451:App/STM32F4-Discovery/Libraries/STM32F4xx_StdPeriph_Driver/src/stm32f4xx_cryp.c **** @endverbatim
 452:App/STM32F4-Discovery/Libraries/STM32F4xx_StdPeriph_Driver/src/stm32f4xx_cryp.c ****   * @{
 453:App/STM32F4-Discovery/Libraries/STM32F4xx_StdPeriph_Driver/src/stm32f4xx_cryp.c ****   */
 454:App/STM32F4-Discovery/Libraries/STM32F4xx_StdPeriph_Driver/src/stm32f4xx_cryp.c ****   
 455:App/STM32F4-Discovery/Libraries/STM32F4xx_StdPeriph_Driver/src/stm32f4xx_cryp.c **** /**
 456:App/STM32F4-Discovery/Libraries/STM32F4xx_StdPeriph_Driver/src/stm32f4xx_cryp.c ****   * @brief  Saves the CRYP peripheral Context. 
 457:App/STM32F4-Discovery/Libraries/STM32F4xx_StdPeriph_Driver/src/stm32f4xx_cryp.c ****   * @note   This function stops DMA transfer before to save the context. After 
 458:App/STM32F4-Discovery/Libraries/STM32F4xx_StdPeriph_Driver/src/stm32f4xx_cryp.c ****   *         restoring the context, you have to enable the DMA again (if the DMA
 459:App/STM32F4-Discovery/Libraries/STM32F4xx_StdPeriph_Driver/src/stm32f4xx_cryp.c ****   *         was previously used).
 460:App/STM32F4-Discovery/Libraries/STM32F4xx_StdPeriph_Driver/src/stm32f4xx_cryp.c ****   * @param  CRYP_ContextSave: pointer to a CRYP_Context structure that contains
 461:App/STM32F4-Discovery/Libraries/STM32F4xx_StdPeriph_Driver/src/stm32f4xx_cryp.c ****   *         the repository for current context.
 462:App/STM32F4-Discovery/Libraries/STM32F4xx_StdPeriph_Driver/src/stm32f4xx_cryp.c ****   * @param  CRYP_KeyInitStruct: pointer to a CRYP_KeyInitTypeDef structure that 
 463:App/STM32F4-Discovery/Libraries/STM32F4xx_StdPeriph_Driver/src/stm32f4xx_cryp.c ****   *         contains the configuration information for the CRYP Keys.  
 464:App/STM32F4-Discovery/Libraries/STM32F4xx_StdPeriph_Driver/src/stm32f4xx_cryp.c ****   * @retval None
 465:App/STM32F4-Discovery/Libraries/STM32F4xx_StdPeriph_Driver/src/stm32f4xx_cryp.c ****   */
 466:App/STM32F4-Discovery/Libraries/STM32F4xx_StdPeriph_Driver/src/stm32f4xx_cryp.c **** ErrorStatus CRYP_SaveContext(CRYP_Context* CRYP_ContextSave,
 467:App/STM32F4-Discovery/Libraries/STM32F4xx_StdPeriph_Driver/src/stm32f4xx_cryp.c ****                              CRYP_KeyInitTypeDef* CRYP_KeyInitStruct)
 468:App/STM32F4-Discovery/Libraries/STM32F4xx_StdPeriph_Driver/src/stm32f4xx_cryp.c **** {
 757              		.loc 1 468 0
 758              		.cfi_startproc
 759              		@ args = 0, pretend = 0, frame = 24
 760              		@ frame_needed = 1, uses_anonymous_args = 0
 761              		@ link register save eliminated.
 762 0000 80B4     		push	{r7}
 763              	.LCFI30:
 764              		.cfi_def_cfa_offset 4
 765              		.cfi_offset 7, -4
 766 0002 87B0     		sub	sp, sp, #28
 767              	.LCFI31:
 768              		.cfi_def_cfa_offset 32
 769 0004 00AF     		add	r7, sp, #0
 770              	.LCFI32:
 771              		.cfi_def_cfa_register 7
 772 0006 7860     		str	r0, [r7, #4]
 773 0008 3960     		str	r1, [r7]
 469:App/STM32F4-Discovery/Libraries/STM32F4xx_StdPeriph_Driver/src/stm32f4xx_cryp.c ****   __IO uint32_t timeout = 0;
 774              		.loc 1 469 0
 775 000a 0023     		movs	r3, #0
 776 000c BB60     		str	r3, [r7, #8]
 470:App/STM32F4-Discovery/Libraries/STM32F4xx_StdPeriph_Driver/src/stm32f4xx_cryp.c ****   uint32_t ckeckmask = 0, bitstatus;    
 777              		.loc 1 470 0
 778 000e 0023     		movs	r3, #0
 779 0010 7B61     		str	r3, [r7, #20]
 471:App/STM32F4-Discovery/Libraries/STM32F4xx_StdPeriph_Driver/src/stm32f4xx_cryp.c ****   ErrorStatus status = ERROR;
 780              		.loc 1 471 0
 781 0012 0023     		movs	r3, #0
 782 0014 FB74     		strb	r3, [r7, #19]
 472:App/STM32F4-Discovery/Libraries/STM32F4xx_StdPeriph_Driver/src/stm32f4xx_cryp.c **** 
 473:App/STM32F4-Discovery/Libraries/STM32F4xx_StdPeriph_Driver/src/stm32f4xx_cryp.c ****   /* Stop DMA transfers on the IN FIFO by clearing the DIEN bit in the CRYP_DMACR */
 474:App/STM32F4-Discovery/Libraries/STM32F4xx_StdPeriph_Driver/src/stm32f4xx_cryp.c ****   CRYP->DMACR &= ~(uint32_t)CRYP_DMACR_DIEN;
 783              		.loc 1 474 0
 784 0016 3A4B     		ldr	r3, .L43
 785 0018 394A     		ldr	r2, .L43
 786 001a 1269     		ldr	r2, [r2, #16]
 787 001c 22F00102 		bic	r2, r2, #1
 788 0020 1A61     		str	r2, [r3, #16]
 475:App/STM32F4-Discovery/Libraries/STM32F4xx_StdPeriph_Driver/src/stm32f4xx_cryp.c ****     
 476:App/STM32F4-Discovery/Libraries/STM32F4xx_StdPeriph_Driver/src/stm32f4xx_cryp.c ****   /* Wait until both the IN and OUT FIFOs are empty  
 477:App/STM32F4-Discovery/Libraries/STM32F4xx_StdPeriph_Driver/src/stm32f4xx_cryp.c ****     (IFEM=1 and OFNE=0 in the CRYP_SR register) and the 
 478:App/STM32F4-Discovery/Libraries/STM32F4xx_StdPeriph_Driver/src/stm32f4xx_cryp.c ****      BUSY bit is cleared. */
 479:App/STM32F4-Discovery/Libraries/STM32F4xx_StdPeriph_Driver/src/stm32f4xx_cryp.c **** 
 480:App/STM32F4-Discovery/Libraries/STM32F4xx_StdPeriph_Driver/src/stm32f4xx_cryp.c ****   if ((CRYP->CR & (uint32_t)(CRYP_CR_ALGOMODE_TDES_ECB | CRYP_CR_ALGOMODE_TDES_CBC)) != (uint32_t)0
 789              		.loc 1 480 0
 790 0022 374B     		ldr	r3, .L43
 791 0024 1B68     		ldr	r3, [r3]
 792 0026 03F00803 		and	r3, r3, #8
 793 002a 002B     		cmp	r3, #0
 794 002c 02D0     		beq	.L37
 481:App/STM32F4-Discovery/Libraries/STM32F4xx_StdPeriph_Driver/src/stm32f4xx_cryp.c ****   { 
 482:App/STM32F4-Discovery/Libraries/STM32F4xx_StdPeriph_Driver/src/stm32f4xx_cryp.c ****     ckeckmask =  CRYP_SR_IFEM | CRYP_SR_BUSY ;
 795              		.loc 1 482 0
 796 002e 1123     		movs	r3, #17
 797 0030 7B61     		str	r3, [r7, #20]
 798 0032 01E0     		b	.L38
 799              	.L37:
 483:App/STM32F4-Discovery/Libraries/STM32F4xx_StdPeriph_Driver/src/stm32f4xx_cryp.c ****   }
 484:App/STM32F4-Discovery/Libraries/STM32F4xx_StdPeriph_Driver/src/stm32f4xx_cryp.c ****   else /* AES or DES */
 485:App/STM32F4-Discovery/Libraries/STM32F4xx_StdPeriph_Driver/src/stm32f4xx_cryp.c ****   {
 486:App/STM32F4-Discovery/Libraries/STM32F4xx_StdPeriph_Driver/src/stm32f4xx_cryp.c ****     ckeckmask =  CRYP_SR_IFEM | CRYP_SR_BUSY | CRYP_SR_OFNE;
 800              		.loc 1 486 0
 801 0034 1523     		movs	r3, #21
 802 0036 7B61     		str	r3, [r7, #20]
 803              	.L38:
 487:App/STM32F4-Discovery/Libraries/STM32F4xx_StdPeriph_Driver/src/stm32f4xx_cryp.c ****   }           
 488:App/STM32F4-Discovery/Libraries/STM32F4xx_StdPeriph_Driver/src/stm32f4xx_cryp.c ****    
 489:App/STM32F4-Discovery/Libraries/STM32F4xx_StdPeriph_Driver/src/stm32f4xx_cryp.c ****   do 
 490:App/STM32F4-Discovery/Libraries/STM32F4xx_StdPeriph_Driver/src/stm32f4xx_cryp.c ****   {
 491:App/STM32F4-Discovery/Libraries/STM32F4xx_StdPeriph_Driver/src/stm32f4xx_cryp.c ****     bitstatus = CRYP->SR & ckeckmask;
 804              		.loc 1 491 0 discriminator 1
 805 0038 314B     		ldr	r3, .L43
 806 003a 5A68     		ldr	r2, [r3, #4]
 807 003c 7B69     		ldr	r3, [r7, #20]
 808 003e 1340     		ands	r3, r3, r2
 809 0040 FB60     		str	r3, [r7, #12]
 492:App/STM32F4-Discovery/Libraries/STM32F4xx_StdPeriph_Driver/src/stm32f4xx_cryp.c ****     timeout++;
 810              		.loc 1 492 0 discriminator 1
 811 0042 BB68     		ldr	r3, [r7, #8]
 812 0044 0133     		adds	r3, r3, #1
 813 0046 BB60     		str	r3, [r7, #8]
 493:App/STM32F4-Discovery/Libraries/STM32F4xx_StdPeriph_Driver/src/stm32f4xx_cryp.c ****   }
 494:App/STM32F4-Discovery/Libraries/STM32F4xx_StdPeriph_Driver/src/stm32f4xx_cryp.c ****   while ((timeout != MAX_TIMEOUT) && (bitstatus != CRYP_SR_IFEM));
 814              		.loc 1 494 0 discriminator 1
 815 0048 BA68     		ldr	r2, [r7, #8]
 816 004a 4FF6FF73 		movw	r3, #65535
 817 004e 9A42     		cmp	r2, r3
 818 0050 02D0     		beq	.L39
 819 0052 FB68     		ldr	r3, [r7, #12]
 820 0054 012B     		cmp	r3, #1
 821 0056 EFD1     		bne	.L38
 822              	.L39:
 495:App/STM32F4-Discovery/Libraries/STM32F4xx_StdPeriph_Driver/src/stm32f4xx_cryp.c ****      
 496:App/STM32F4-Discovery/Libraries/STM32F4xx_StdPeriph_Driver/src/stm32f4xx_cryp.c ****   if ((CRYP->SR & ckeckmask) != CRYP_SR_IFEM)
 823              		.loc 1 496 0
 824 0058 294B     		ldr	r3, .L43
 825 005a 5A68     		ldr	r2, [r3, #4]
 826 005c 7B69     		ldr	r3, [r7, #20]
 827 005e 1340     		ands	r3, r3, r2
 828 0060 012B     		cmp	r3, #1
 829 0062 02D0     		beq	.L40
 497:App/STM32F4-Discovery/Libraries/STM32F4xx_StdPeriph_Driver/src/stm32f4xx_cryp.c ****   {
 498:App/STM32F4-Discovery/Libraries/STM32F4xx_StdPeriph_Driver/src/stm32f4xx_cryp.c ****     status = ERROR;
 830              		.loc 1 498 0
 831 0064 0023     		movs	r3, #0
 832 0066 FB74     		strb	r3, [r7, #19]
 833 0068 43E0     		b	.L41
 834              	.L40:
 499:App/STM32F4-Discovery/Libraries/STM32F4xx_StdPeriph_Driver/src/stm32f4xx_cryp.c ****   }
 500:App/STM32F4-Discovery/Libraries/STM32F4xx_StdPeriph_Driver/src/stm32f4xx_cryp.c ****   else
 501:App/STM32F4-Discovery/Libraries/STM32F4xx_StdPeriph_Driver/src/stm32f4xx_cryp.c ****   {      
 502:App/STM32F4-Discovery/Libraries/STM32F4xx_StdPeriph_Driver/src/stm32f4xx_cryp.c ****     /* Stop DMA transfers on the OUT FIFO by 
 503:App/STM32F4-Discovery/Libraries/STM32F4xx_StdPeriph_Driver/src/stm32f4xx_cryp.c ****        - writing the DOEN bit to 0 in the CRYP_DMACR register 
 504:App/STM32F4-Discovery/Libraries/STM32F4xx_StdPeriph_Driver/src/stm32f4xx_cryp.c ****        - and clear the CRYPEN bit. */
 505:App/STM32F4-Discovery/Libraries/STM32F4xx_StdPeriph_Driver/src/stm32f4xx_cryp.c **** 
 506:App/STM32F4-Discovery/Libraries/STM32F4xx_StdPeriph_Driver/src/stm32f4xx_cryp.c ****     CRYP->DMACR &= ~(uint32_t)CRYP_DMACR_DOEN;
 835              		.loc 1 506 0
 836 006a 254B     		ldr	r3, .L43
 837 006c 244A     		ldr	r2, .L43
 838 006e 1269     		ldr	r2, [r2, #16]
 839 0070 22F00202 		bic	r2, r2, #2
 840 0074 1A61     		str	r2, [r3, #16]
 507:App/STM32F4-Discovery/Libraries/STM32F4xx_StdPeriph_Driver/src/stm32f4xx_cryp.c ****     CRYP->CR &= ~(uint32_t)CRYP_CR_CRYPEN;
 841              		.loc 1 507 0
 842 0076 224B     		ldr	r3, .L43
 843 0078 214A     		ldr	r2, .L43
 844 007a 1268     		ldr	r2, [r2]
 845 007c 22F40042 		bic	r2, r2, #32768
 846 0080 1A60     		str	r2, [r3]
 508:App/STM32F4-Discovery/Libraries/STM32F4xx_StdPeriph_Driver/src/stm32f4xx_cryp.c **** 
 509:App/STM32F4-Discovery/Libraries/STM32F4xx_StdPeriph_Driver/src/stm32f4xx_cryp.c ****     /* Save the current configuration (bits [9:2] in the CRYP_CR register) */
 510:App/STM32F4-Discovery/Libraries/STM32F4xx_StdPeriph_Driver/src/stm32f4xx_cryp.c ****     CRYP_ContextSave->CR_bits9to2  = CRYP->CR & (CRYP_CR_KEYSIZE  | 
 847              		.loc 1 510 0
 848 0082 1F4B     		ldr	r3, .L43
 849 0084 1B68     		ldr	r3, [r3]
 850 0086 03F47F72 		and	r2, r3, #1020
 851 008a 7B68     		ldr	r3, [r7, #4]
 852 008c 1A60     		str	r2, [r3]
 511:App/STM32F4-Discovery/Libraries/STM32F4xx_StdPeriph_Driver/src/stm32f4xx_cryp.c ****                                                  CRYP_CR_DATATYPE | 
 512:App/STM32F4-Discovery/Libraries/STM32F4xx_StdPeriph_Driver/src/stm32f4xx_cryp.c ****                                                  CRYP_CR_ALGOMODE |
 513:App/STM32F4-Discovery/Libraries/STM32F4xx_StdPeriph_Driver/src/stm32f4xx_cryp.c ****                                                  CRYP_CR_ALGODIR); 
 514:App/STM32F4-Discovery/Libraries/STM32F4xx_StdPeriph_Driver/src/stm32f4xx_cryp.c **** 
 515:App/STM32F4-Discovery/Libraries/STM32F4xx_StdPeriph_Driver/src/stm32f4xx_cryp.c ****     /* and, if not in ECB mode, the initialization vectors. */
 516:App/STM32F4-Discovery/Libraries/STM32F4xx_StdPeriph_Driver/src/stm32f4xx_cryp.c ****     CRYP_ContextSave->CRYP_IV0LR = CRYP->IV0LR;
 853              		.loc 1 516 0
 854 008e 1C4B     		ldr	r3, .L43
 855 0090 1A6C     		ldr	r2, [r3, #64]
 856 0092 7B68     		ldr	r3, [r7, #4]
 857 0094 5A60     		str	r2, [r3, #4]
 517:App/STM32F4-Discovery/Libraries/STM32F4xx_StdPeriph_Driver/src/stm32f4xx_cryp.c ****     CRYP_ContextSave->CRYP_IV0RR = CRYP->IV0RR;
 858              		.loc 1 517 0
 859 0096 1A4B     		ldr	r3, .L43
 860 0098 5A6C     		ldr	r2, [r3, #68]
 861 009a 7B68     		ldr	r3, [r7, #4]
 862 009c 9A60     		str	r2, [r3, #8]
 518:App/STM32F4-Discovery/Libraries/STM32F4xx_StdPeriph_Driver/src/stm32f4xx_cryp.c ****     CRYP_ContextSave->CRYP_IV1LR = CRYP->IV1LR;
 863              		.loc 1 518 0
 864 009e 184B     		ldr	r3, .L43
 865 00a0 9A6C     		ldr	r2, [r3, #72]
 866 00a2 7B68     		ldr	r3, [r7, #4]
 867 00a4 DA60     		str	r2, [r3, #12]
 519:App/STM32F4-Discovery/Libraries/STM32F4xx_StdPeriph_Driver/src/stm32f4xx_cryp.c ****     CRYP_ContextSave->CRYP_IV1RR = CRYP->IV1RR;
 868              		.loc 1 519 0
 869 00a6 164B     		ldr	r3, .L43
 870 00a8 DA6C     		ldr	r2, [r3, #76]
 871 00aa 7B68     		ldr	r3, [r7, #4]
 872 00ac 1A61     		str	r2, [r3, #16]
 520:App/STM32F4-Discovery/Libraries/STM32F4xx_StdPeriph_Driver/src/stm32f4xx_cryp.c **** 
 521:App/STM32F4-Discovery/Libraries/STM32F4xx_StdPeriph_Driver/src/stm32f4xx_cryp.c ****     /* save The key value */
 522:App/STM32F4-Discovery/Libraries/STM32F4xx_StdPeriph_Driver/src/stm32f4xx_cryp.c ****     CRYP_ContextSave->CRYP_K0LR = CRYP_KeyInitStruct->CRYP_Key0Left; 
 873              		.loc 1 522 0
 874 00ae 3B68     		ldr	r3, [r7]
 875 00b0 1A68     		ldr	r2, [r3]
 876 00b2 7B68     		ldr	r3, [r7, #4]
 877 00b4 5A61     		str	r2, [r3, #20]
 523:App/STM32F4-Discovery/Libraries/STM32F4xx_StdPeriph_Driver/src/stm32f4xx_cryp.c ****     CRYP_ContextSave->CRYP_K0RR = CRYP_KeyInitStruct->CRYP_Key0Right; 
 878              		.loc 1 523 0
 879 00b6 3B68     		ldr	r3, [r7]
 880 00b8 5A68     		ldr	r2, [r3, #4]
 881 00ba 7B68     		ldr	r3, [r7, #4]
 882 00bc 9A61     		str	r2, [r3, #24]
 524:App/STM32F4-Discovery/Libraries/STM32F4xx_StdPeriph_Driver/src/stm32f4xx_cryp.c ****     CRYP_ContextSave->CRYP_K1LR = CRYP_KeyInitStruct->CRYP_Key1Left; 
 883              		.loc 1 524 0
 884 00be 3B68     		ldr	r3, [r7]
 885 00c0 9A68     		ldr	r2, [r3, #8]
 886 00c2 7B68     		ldr	r3, [r7, #4]
 887 00c4 DA61     		str	r2, [r3, #28]
 525:App/STM32F4-Discovery/Libraries/STM32F4xx_StdPeriph_Driver/src/stm32f4xx_cryp.c ****     CRYP_ContextSave->CRYP_K1RR = CRYP_KeyInitStruct->CRYP_Key1Right; 
 888              		.loc 1 525 0
 889 00c6 3B68     		ldr	r3, [r7]
 890 00c8 DA68     		ldr	r2, [r3, #12]
 891 00ca 7B68     		ldr	r3, [r7, #4]
 892 00cc 1A62     		str	r2, [r3, #32]
 526:App/STM32F4-Discovery/Libraries/STM32F4xx_StdPeriph_Driver/src/stm32f4xx_cryp.c ****     CRYP_ContextSave->CRYP_K2LR = CRYP_KeyInitStruct->CRYP_Key2Left; 
 893              		.loc 1 526 0
 894 00ce 3B68     		ldr	r3, [r7]
 895 00d0 1A69     		ldr	r2, [r3, #16]
 896 00d2 7B68     		ldr	r3, [r7, #4]
 897 00d4 5A62     		str	r2, [r3, #36]
 527:App/STM32F4-Discovery/Libraries/STM32F4xx_StdPeriph_Driver/src/stm32f4xx_cryp.c ****     CRYP_ContextSave->CRYP_K2RR = CRYP_KeyInitStruct->CRYP_Key2Right; 
 898              		.loc 1 527 0
 899 00d6 3B68     		ldr	r3, [r7]
 900 00d8 5A69     		ldr	r2, [r3, #20]
 901 00da 7B68     		ldr	r3, [r7, #4]
 902 00dc 9A62     		str	r2, [r3, #40]
 528:App/STM32F4-Discovery/Libraries/STM32F4xx_StdPeriph_Driver/src/stm32f4xx_cryp.c ****     CRYP_ContextSave->CRYP_K3LR = CRYP_KeyInitStruct->CRYP_Key3Left; 
 903              		.loc 1 528 0
 904 00de 3B68     		ldr	r3, [r7]
 905 00e0 9A69     		ldr	r2, [r3, #24]
 906 00e2 7B68     		ldr	r3, [r7, #4]
 907 00e4 DA62     		str	r2, [r3, #44]
 529:App/STM32F4-Discovery/Libraries/STM32F4xx_StdPeriph_Driver/src/stm32f4xx_cryp.c ****     CRYP_ContextSave->CRYP_K3RR = CRYP_KeyInitStruct->CRYP_Key3Right; 
 908              		.loc 1 529 0
 909 00e6 3B68     		ldr	r3, [r7]
 910 00e8 DA69     		ldr	r2, [r3, #28]
 911 00ea 7B68     		ldr	r3, [r7, #4]
 912 00ec 1A63     		str	r2, [r3, #48]
 530:App/STM32F4-Discovery/Libraries/STM32F4xx_StdPeriph_Driver/src/stm32f4xx_cryp.c **** 
 531:App/STM32F4-Discovery/Libraries/STM32F4xx_StdPeriph_Driver/src/stm32f4xx_cryp.c ****    /* When needed, save the DMA status (pointers for IN and OUT messages, 
 532:App/STM32F4-Discovery/Libraries/STM32F4xx_StdPeriph_Driver/src/stm32f4xx_cryp.c ****       number of remaining bytes, etc.) */
 533:App/STM32F4-Discovery/Libraries/STM32F4xx_StdPeriph_Driver/src/stm32f4xx_cryp.c ****      
 534:App/STM32F4-Discovery/Libraries/STM32F4xx_StdPeriph_Driver/src/stm32f4xx_cryp.c ****     status = SUCCESS;
 913              		.loc 1 534 0
 914 00ee 0123     		movs	r3, #1
 915 00f0 FB74     		strb	r3, [r7, #19]
 916              	.L41:
 535:App/STM32F4-Discovery/Libraries/STM32F4xx_StdPeriph_Driver/src/stm32f4xx_cryp.c ****   }
 536:App/STM32F4-Discovery/Libraries/STM32F4xx_StdPeriph_Driver/src/stm32f4xx_cryp.c **** 
 537:App/STM32F4-Discovery/Libraries/STM32F4xx_StdPeriph_Driver/src/stm32f4xx_cryp.c ****    return status;
 917              		.loc 1 537 0
 918 00f2 FB7C     		ldrb	r3, [r7, #19]	@ zero_extendqisi2
 538:App/STM32F4-Discovery/Libraries/STM32F4xx_StdPeriph_Driver/src/stm32f4xx_cryp.c **** }
 919              		.loc 1 538 0
 920 00f4 1846     		mov	r0, r3
 921 00f6 1C37     		adds	r7, r7, #28
 922 00f8 BD46     		mov	sp, r7
 923              		@ sp needed
 924 00fa 5DF8047B 		ldr	r7, [sp], #4
 925 00fe 7047     		bx	lr
 926              	.L44:
 927              		.align	2
 928              	.L43:
 929 0100 00000650 		.word	1342570496
 930              		.cfi_endproc
 931              	.LFE121:
 933              		.section	.text.CRYP_RestoreContext,"ax",%progbits
 934              		.align	2
 935              		.global	CRYP_RestoreContext
 936              		.thumb
 937              		.thumb_func
 939              	CRYP_RestoreContext:
 940              	.LFB122:
 539:App/STM32F4-Discovery/Libraries/STM32F4xx_StdPeriph_Driver/src/stm32f4xx_cryp.c **** 
 540:App/STM32F4-Discovery/Libraries/STM32F4xx_StdPeriph_Driver/src/stm32f4xx_cryp.c **** /**
 541:App/STM32F4-Discovery/Libraries/STM32F4xx_StdPeriph_Driver/src/stm32f4xx_cryp.c ****   * @brief  Restores the CRYP peripheral Context.
 542:App/STM32F4-Discovery/Libraries/STM32F4xx_StdPeriph_Driver/src/stm32f4xx_cryp.c ****   * @note   Since teh DMA transfer is stopped in CRYP_SaveContext() function,
 543:App/STM32F4-Discovery/Libraries/STM32F4xx_StdPeriph_Driver/src/stm32f4xx_cryp.c ****   *         after restoring the context, you have to enable the DMA again (if the
 544:App/STM32F4-Discovery/Libraries/STM32F4xx_StdPeriph_Driver/src/stm32f4xx_cryp.c ****   *         DMA was previously used).  
 545:App/STM32F4-Discovery/Libraries/STM32F4xx_StdPeriph_Driver/src/stm32f4xx_cryp.c ****   * @param  CRYP_ContextRestore: pointer to a CRYP_Context structure that contains
 546:App/STM32F4-Discovery/Libraries/STM32F4xx_StdPeriph_Driver/src/stm32f4xx_cryp.c ****   *         the repository for saved context.
 547:App/STM32F4-Discovery/Libraries/STM32F4xx_StdPeriph_Driver/src/stm32f4xx_cryp.c ****   * @note   The data that were saved during context saving must be rewrited into
 548:App/STM32F4-Discovery/Libraries/STM32F4xx_StdPeriph_Driver/src/stm32f4xx_cryp.c ****   *         the IN FIFO.
 549:App/STM32F4-Discovery/Libraries/STM32F4xx_StdPeriph_Driver/src/stm32f4xx_cryp.c ****   * @retval None
 550:App/STM32F4-Discovery/Libraries/STM32F4xx_StdPeriph_Driver/src/stm32f4xx_cryp.c ****   */
 551:App/STM32F4-Discovery/Libraries/STM32F4xx_StdPeriph_Driver/src/stm32f4xx_cryp.c **** void CRYP_RestoreContext(CRYP_Context* CRYP_ContextRestore)  
 552:App/STM32F4-Discovery/Libraries/STM32F4xx_StdPeriph_Driver/src/stm32f4xx_cryp.c **** {
 941              		.loc 1 552 0
 942              		.cfi_startproc
 943              		@ args = 0, pretend = 0, frame = 8
 944              		@ frame_needed = 1, uses_anonymous_args = 0
 945              		@ link register save eliminated.
 946 0000 80B4     		push	{r7}
 947              	.LCFI33:
 948              		.cfi_def_cfa_offset 4
 949              		.cfi_offset 7, -4
 950 0002 83B0     		sub	sp, sp, #12
 951              	.LCFI34:
 952              		.cfi_def_cfa_offset 16
 953 0004 00AF     		add	r7, sp, #0
 954              	.LCFI35:
 955              		.cfi_def_cfa_register 7
 956 0006 7860     		str	r0, [r7, #4]
 553:App/STM32F4-Discovery/Libraries/STM32F4xx_StdPeriph_Driver/src/stm32f4xx_cryp.c **** 
 554:App/STM32F4-Discovery/Libraries/STM32F4xx_StdPeriph_Driver/src/stm32f4xx_cryp.c ****   /* Configure the processor with the saved configuration */
 555:App/STM32F4-Discovery/Libraries/STM32F4xx_StdPeriph_Driver/src/stm32f4xx_cryp.c ****   CRYP->CR = CRYP_ContextRestore->CR_bits9to2;
 957              		.loc 1 555 0
 958 0008 1F4B     		ldr	r3, .L46
 959 000a 7A68     		ldr	r2, [r7, #4]
 960 000c 1268     		ldr	r2, [r2]
 961 000e 1A60     		str	r2, [r3]
 556:App/STM32F4-Discovery/Libraries/STM32F4xx_StdPeriph_Driver/src/stm32f4xx_cryp.c **** 
 557:App/STM32F4-Discovery/Libraries/STM32F4xx_StdPeriph_Driver/src/stm32f4xx_cryp.c ****   /* restore The key value */
 558:App/STM32F4-Discovery/Libraries/STM32F4xx_StdPeriph_Driver/src/stm32f4xx_cryp.c ****   CRYP->K0LR = CRYP_ContextRestore->CRYP_K0LR; 
 962              		.loc 1 558 0
 963 0010 1D4B     		ldr	r3, .L46
 964 0012 7A68     		ldr	r2, [r7, #4]
 965 0014 5269     		ldr	r2, [r2, #20]
 966 0016 1A62     		str	r2, [r3, #32]
 559:App/STM32F4-Discovery/Libraries/STM32F4xx_StdPeriph_Driver/src/stm32f4xx_cryp.c ****   CRYP->K0RR = CRYP_ContextRestore->CRYP_K0RR;
 967              		.loc 1 559 0
 968 0018 1B4B     		ldr	r3, .L46
 969 001a 7A68     		ldr	r2, [r7, #4]
 970 001c 9269     		ldr	r2, [r2, #24]
 971 001e 5A62     		str	r2, [r3, #36]
 560:App/STM32F4-Discovery/Libraries/STM32F4xx_StdPeriph_Driver/src/stm32f4xx_cryp.c ****   CRYP->K1LR = CRYP_ContextRestore->CRYP_K1LR;
 972              		.loc 1 560 0
 973 0020 194B     		ldr	r3, .L46
 974 0022 7A68     		ldr	r2, [r7, #4]
 975 0024 D269     		ldr	r2, [r2, #28]
 976 0026 9A62     		str	r2, [r3, #40]
 561:App/STM32F4-Discovery/Libraries/STM32F4xx_StdPeriph_Driver/src/stm32f4xx_cryp.c ****   CRYP->K1RR = CRYP_ContextRestore->CRYP_K1RR;
 977              		.loc 1 561 0
 978 0028 174B     		ldr	r3, .L46
 979 002a 7A68     		ldr	r2, [r7, #4]
 980 002c 126A     		ldr	r2, [r2, #32]
 981 002e DA62     		str	r2, [r3, #44]
 562:App/STM32F4-Discovery/Libraries/STM32F4xx_StdPeriph_Driver/src/stm32f4xx_cryp.c ****   CRYP->K2LR = CRYP_ContextRestore->CRYP_K2LR;
 982              		.loc 1 562 0
 983 0030 154B     		ldr	r3, .L46
 984 0032 7A68     		ldr	r2, [r7, #4]
 985 0034 526A     		ldr	r2, [r2, #36]
 986 0036 1A63     		str	r2, [r3, #48]
 563:App/STM32F4-Discovery/Libraries/STM32F4xx_StdPeriph_Driver/src/stm32f4xx_cryp.c ****   CRYP->K2RR = CRYP_ContextRestore->CRYP_K2RR;
 987              		.loc 1 563 0
 988 0038 134B     		ldr	r3, .L46
 989 003a 7A68     		ldr	r2, [r7, #4]
 990 003c 926A     		ldr	r2, [r2, #40]
 991 003e 5A63     		str	r2, [r3, #52]
 564:App/STM32F4-Discovery/Libraries/STM32F4xx_StdPeriph_Driver/src/stm32f4xx_cryp.c ****   CRYP->K3LR = CRYP_ContextRestore->CRYP_K3LR;
 992              		.loc 1 564 0
 993 0040 114B     		ldr	r3, .L46
 994 0042 7A68     		ldr	r2, [r7, #4]
 995 0044 D26A     		ldr	r2, [r2, #44]
 996 0046 9A63     		str	r2, [r3, #56]
 565:App/STM32F4-Discovery/Libraries/STM32F4xx_StdPeriph_Driver/src/stm32f4xx_cryp.c ****   CRYP->K3RR = CRYP_ContextRestore->CRYP_K3RR;
 997              		.loc 1 565 0
 998 0048 0F4B     		ldr	r3, .L46
 999 004a 7A68     		ldr	r2, [r7, #4]
 1000 004c 126B     		ldr	r2, [r2, #48]
 1001 004e DA63     		str	r2, [r3, #60]
 566:App/STM32F4-Discovery/Libraries/STM32F4xx_StdPeriph_Driver/src/stm32f4xx_cryp.c **** 
 567:App/STM32F4-Discovery/Libraries/STM32F4xx_StdPeriph_Driver/src/stm32f4xx_cryp.c ****   /* and the initialization vectors. */
 568:App/STM32F4-Discovery/Libraries/STM32F4xx_StdPeriph_Driver/src/stm32f4xx_cryp.c ****   CRYP->IV0LR = CRYP_ContextRestore->CRYP_IV0LR;
 1002              		.loc 1 568 0
 1003 0050 0D4B     		ldr	r3, .L46
 1004 0052 7A68     		ldr	r2, [r7, #4]
 1005 0054 5268     		ldr	r2, [r2, #4]
 1006 0056 1A64     		str	r2, [r3, #64]
 569:App/STM32F4-Discovery/Libraries/STM32F4xx_StdPeriph_Driver/src/stm32f4xx_cryp.c ****   CRYP->IV0RR = CRYP_ContextRestore->CRYP_IV0RR;
 1007              		.loc 1 569 0
 1008 0058 0B4B     		ldr	r3, .L46
 1009 005a 7A68     		ldr	r2, [r7, #4]
 1010 005c 9268     		ldr	r2, [r2, #8]
 1011 005e 5A64     		str	r2, [r3, #68]
 570:App/STM32F4-Discovery/Libraries/STM32F4xx_StdPeriph_Driver/src/stm32f4xx_cryp.c ****   CRYP->IV1LR = CRYP_ContextRestore->CRYP_IV1LR;
 1012              		.loc 1 570 0
 1013 0060 094B     		ldr	r3, .L46
 1014 0062 7A68     		ldr	r2, [r7, #4]
 1015 0064 D268     		ldr	r2, [r2, #12]
 1016 0066 9A64     		str	r2, [r3, #72]
 571:App/STM32F4-Discovery/Libraries/STM32F4xx_StdPeriph_Driver/src/stm32f4xx_cryp.c ****   CRYP->IV1RR = CRYP_ContextRestore->CRYP_IV1RR;
 1017              		.loc 1 571 0
 1018 0068 074B     		ldr	r3, .L46
 1019 006a 7A68     		ldr	r2, [r7, #4]
 1020 006c 1269     		ldr	r2, [r2, #16]
 1021 006e DA64     		str	r2, [r3, #76]
 572:App/STM32F4-Discovery/Libraries/STM32F4xx_StdPeriph_Driver/src/stm32f4xx_cryp.c **** 
 573:App/STM32F4-Discovery/Libraries/STM32F4xx_StdPeriph_Driver/src/stm32f4xx_cryp.c ****   /* Enable the cryptographic processor */
 574:App/STM32F4-Discovery/Libraries/STM32F4xx_StdPeriph_Driver/src/stm32f4xx_cryp.c ****   CRYP->CR |= CRYP_CR_CRYPEN;
 1022              		.loc 1 574 0
 1023 0070 054B     		ldr	r3, .L46
 1024 0072 054A     		ldr	r2, .L46
 1025 0074 1268     		ldr	r2, [r2]
 1026 0076 42F40042 		orr	r2, r2, #32768
 1027 007a 1A60     		str	r2, [r3]
 575:App/STM32F4-Discovery/Libraries/STM32F4xx_StdPeriph_Driver/src/stm32f4xx_cryp.c **** }
 1028              		.loc 1 575 0
 1029 007c 0C37     		adds	r7, r7, #12
 1030 007e BD46     		mov	sp, r7
 1031              		@ sp needed
 1032 0080 5DF8047B 		ldr	r7, [sp], #4
 1033 0084 7047     		bx	lr
 1034              	.L47:
 1035 0086 00BF     		.align	2
 1036              	.L46:
 1037 0088 00000650 		.word	1342570496
 1038              		.cfi_endproc
 1039              	.LFE122:
 1041              		.section	.text.CRYP_DMACmd,"ax",%progbits
 1042              		.align	2
 1043              		.global	CRYP_DMACmd
 1044              		.thumb
 1045              		.thumb_func
 1047              	CRYP_DMACmd:
 1048              	.LFB123:
 576:App/STM32F4-Discovery/Libraries/STM32F4xx_StdPeriph_Driver/src/stm32f4xx_cryp.c **** /**
 577:App/STM32F4-Discovery/Libraries/STM32F4xx_StdPeriph_Driver/src/stm32f4xx_cryp.c ****   * @}
 578:App/STM32F4-Discovery/Libraries/STM32F4xx_StdPeriph_Driver/src/stm32f4xx_cryp.c ****   */
 579:App/STM32F4-Discovery/Libraries/STM32F4xx_StdPeriph_Driver/src/stm32f4xx_cryp.c **** 
 580:App/STM32F4-Discovery/Libraries/STM32F4xx_StdPeriph_Driver/src/stm32f4xx_cryp.c **** /** @defgroup CRYP_Group4 CRYP's DMA interface Configuration function
 581:App/STM32F4-Discovery/Libraries/STM32F4xx_StdPeriph_Driver/src/stm32f4xx_cryp.c ****  *  @brief   CRYP's DMA interface Configuration function 
 582:App/STM32F4-Discovery/Libraries/STM32F4xx_StdPeriph_Driver/src/stm32f4xx_cryp.c ****  *
 583:App/STM32F4-Discovery/Libraries/STM32F4xx_StdPeriph_Driver/src/stm32f4xx_cryp.c **** @verbatim   
 584:App/STM32F4-Discovery/Libraries/STM32F4xx_StdPeriph_Driver/src/stm32f4xx_cryp.c ****  ===============================================================================
 585:App/STM32F4-Discovery/Libraries/STM32F4xx_StdPeriph_Driver/src/stm32f4xx_cryp.c ****                    CRYP's DMA interface Configuration function
 586:App/STM32F4-Discovery/Libraries/STM32F4xx_StdPeriph_Driver/src/stm32f4xx_cryp.c ****  ===============================================================================  
 587:App/STM32F4-Discovery/Libraries/STM32F4xx_StdPeriph_Driver/src/stm32f4xx_cryp.c **** 
 588:App/STM32F4-Discovery/Libraries/STM32F4xx_StdPeriph_Driver/src/stm32f4xx_cryp.c ****   This section provides functions allowing to configure the DMA interface for 
 589:App/STM32F4-Discovery/Libraries/STM32F4xx_StdPeriph_Driver/src/stm32f4xx_cryp.c ****   CRYP data input and output transfer.
 590:App/STM32F4-Discovery/Libraries/STM32F4xx_StdPeriph_Driver/src/stm32f4xx_cryp.c ****    
 591:App/STM32F4-Discovery/Libraries/STM32F4xx_StdPeriph_Driver/src/stm32f4xx_cryp.c ****   When the DMA mode is enabled (using the CRYP_DMACmd() function), data can be 
 592:App/STM32F4-Discovery/Libraries/STM32F4xx_StdPeriph_Driver/src/stm32f4xx_cryp.c ****   transferred:
 593:App/STM32F4-Discovery/Libraries/STM32F4xx_StdPeriph_Driver/src/stm32f4xx_cryp.c ****   - From memory to the CRYP IN FIFO using the DMA peripheral by enabling 
 594:App/STM32F4-Discovery/Libraries/STM32F4xx_StdPeriph_Driver/src/stm32f4xx_cryp.c ****     the CRYP_DMAReq_DataIN request.
 595:App/STM32F4-Discovery/Libraries/STM32F4xx_StdPeriph_Driver/src/stm32f4xx_cryp.c ****   - From the CRYP OUT FIFO to the memory using the DMA peripheral by enabling 
 596:App/STM32F4-Discovery/Libraries/STM32F4xx_StdPeriph_Driver/src/stm32f4xx_cryp.c ****     the CRYP_DMAReq_DataOUT request.
 597:App/STM32F4-Discovery/Libraries/STM32F4xx_StdPeriph_Driver/src/stm32f4xx_cryp.c **** 
 598:App/STM32F4-Discovery/Libraries/STM32F4xx_StdPeriph_Driver/src/stm32f4xx_cryp.c **** @endverbatim
 599:App/STM32F4-Discovery/Libraries/STM32F4xx_StdPeriph_Driver/src/stm32f4xx_cryp.c ****   * @{
 600:App/STM32F4-Discovery/Libraries/STM32F4xx_StdPeriph_Driver/src/stm32f4xx_cryp.c ****   */
 601:App/STM32F4-Discovery/Libraries/STM32F4xx_StdPeriph_Driver/src/stm32f4xx_cryp.c **** 
 602:App/STM32F4-Discovery/Libraries/STM32F4xx_StdPeriph_Driver/src/stm32f4xx_cryp.c **** /**
 603:App/STM32F4-Discovery/Libraries/STM32F4xx_StdPeriph_Driver/src/stm32f4xx_cryp.c ****   * @brief  Enables or disables the CRYP DMA interface.
 604:App/STM32F4-Discovery/Libraries/STM32F4xx_StdPeriph_Driver/src/stm32f4xx_cryp.c ****   * @param  CRYP_DMAReq: specifies the CRYP DMA transfer request to be enabled or disabled.
 605:App/STM32F4-Discovery/Libraries/STM32F4xx_StdPeriph_Driver/src/stm32f4xx_cryp.c ****   *           This parameter can be any combination of the following values:
 606:App/STM32F4-Discovery/Libraries/STM32F4xx_StdPeriph_Driver/src/stm32f4xx_cryp.c ****   *            @arg CRYP_DMAReq_DataOUT: DMA for outgoing(Tx) data transfer
 607:App/STM32F4-Discovery/Libraries/STM32F4xx_StdPeriph_Driver/src/stm32f4xx_cryp.c ****   *            @arg CRYP_DMAReq_DataIN: DMA for incoming(Rx) data transfer
 608:App/STM32F4-Discovery/Libraries/STM32F4xx_StdPeriph_Driver/src/stm32f4xx_cryp.c ****   * @param  NewState: new state of the selected CRYP DMA transfer request.
 609:App/STM32F4-Discovery/Libraries/STM32F4xx_StdPeriph_Driver/src/stm32f4xx_cryp.c ****   *          This parameter can be: ENABLE or DISABLE.
 610:App/STM32F4-Discovery/Libraries/STM32F4xx_StdPeriph_Driver/src/stm32f4xx_cryp.c ****   * @retval None
 611:App/STM32F4-Discovery/Libraries/STM32F4xx_StdPeriph_Driver/src/stm32f4xx_cryp.c ****   */
 612:App/STM32F4-Discovery/Libraries/STM32F4xx_StdPeriph_Driver/src/stm32f4xx_cryp.c **** void CRYP_DMACmd(uint8_t CRYP_DMAReq, FunctionalState NewState)
 613:App/STM32F4-Discovery/Libraries/STM32F4xx_StdPeriph_Driver/src/stm32f4xx_cryp.c **** {
 1049              		.loc 1 613 0
 1050              		.cfi_startproc
 1051              		@ args = 0, pretend = 0, frame = 8
 1052              		@ frame_needed = 1, uses_anonymous_args = 0
 1053 0000 80B5     		push	{r7, lr}
 1054              	.LCFI36:
 1055              		.cfi_def_cfa_offset 8
 1056              		.cfi_offset 7, -8
 1057              		.cfi_offset 14, -4
 1058 0002 82B0     		sub	sp, sp, #8
 1059              	.LCFI37:
 1060              		.cfi_def_cfa_offset 16
 1061 0004 00AF     		add	r7, sp, #0
 1062              	.LCFI38:
 1063              		.cfi_def_cfa_register 7
 1064 0006 0246     		mov	r2, r0
 1065 0008 0B46     		mov	r3, r1
 1066 000a FA71     		strb	r2, [r7, #7]
 1067 000c BB71     		strb	r3, [r7, #6]
 614:App/STM32F4-Discovery/Libraries/STM32F4xx_StdPeriph_Driver/src/stm32f4xx_cryp.c ****   /* Check the parameters */
 615:App/STM32F4-Discovery/Libraries/STM32F4xx_StdPeriph_Driver/src/stm32f4xx_cryp.c ****   assert_param(IS_CRYP_DMAREQ(CRYP_DMAReq));
 1068              		.loc 1 615 0
 1069 000e FB79     		ldrb	r3, [r7, #7]	@ zero_extendqisi2
 1070 0010 03F0FC03 		and	r3, r3, #252
 1071 0014 002B     		cmp	r3, #0
 1072 0016 02D1     		bne	.L49
 1073              		.loc 1 615 0 is_stmt 0 discriminator 2
 1074 0018 FB79     		ldrb	r3, [r7, #7]	@ zero_extendqisi2
 1075 001a 002B     		cmp	r3, #0
 1076 001c 04D1     		bne	.L50
 1077              	.L49:
 1078              		.loc 1 615 0 discriminator 1
 1079 001e 1248     		ldr	r0, .L54
 1080 0020 40F26721 		movw	r1, #615
 1081 0024 FFF7FEFF 		bl	assert_failed
 1082              	.L50:
 616:App/STM32F4-Discovery/Libraries/STM32F4xx_StdPeriph_Driver/src/stm32f4xx_cryp.c ****   assert_param(IS_FUNCTIONAL_STATE(NewState));
 1083              		.loc 1 616 0 is_stmt 1
 1084 0028 BB79     		ldrb	r3, [r7, #6]	@ zero_extendqisi2
 1085 002a 002B     		cmp	r3, #0
 1086 002c 07D0     		beq	.L51
 1087              		.loc 1 616 0 is_stmt 0 discriminator 1
 1088 002e BB79     		ldrb	r3, [r7, #6]	@ zero_extendqisi2
 1089 0030 012B     		cmp	r3, #1
 1090 0032 04D0     		beq	.L51
 1091 0034 0C48     		ldr	r0, .L54
 1092 0036 4FF41A71 		mov	r1, #616
 1093 003a FFF7FEFF 		bl	assert_failed
 1094              	.L51:
 617:App/STM32F4-Discovery/Libraries/STM32F4xx_StdPeriph_Driver/src/stm32f4xx_cryp.c **** 
 618:App/STM32F4-Discovery/Libraries/STM32F4xx_StdPeriph_Driver/src/stm32f4xx_cryp.c ****   if (NewState != DISABLE)
 1095              		.loc 1 618 0 is_stmt 1
 1096 003e BB79     		ldrb	r3, [r7, #6]	@ zero_extendqisi2
 1097 0040 002B     		cmp	r3, #0
 1098 0042 06D0     		beq	.L52
 619:App/STM32F4-Discovery/Libraries/STM32F4xx_StdPeriph_Driver/src/stm32f4xx_cryp.c ****   {
 620:App/STM32F4-Discovery/Libraries/STM32F4xx_StdPeriph_Driver/src/stm32f4xx_cryp.c ****     /* Enable the selected CRYP DMA request */
 621:App/STM32F4-Discovery/Libraries/STM32F4xx_StdPeriph_Driver/src/stm32f4xx_cryp.c ****     CRYP->DMACR |= CRYP_DMAReq;
 1099              		.loc 1 621 0
 1100 0044 094B     		ldr	r3, .L54+4
 1101 0046 094A     		ldr	r2, .L54+4
 1102 0048 1169     		ldr	r1, [r2, #16]
 1103 004a FA79     		ldrb	r2, [r7, #7]	@ zero_extendqisi2
 1104 004c 0A43     		orrs	r2, r2, r1
 1105 004e 1A61     		str	r2, [r3, #16]
 1106 0050 07E0     		b	.L48
 1107              	.L52:
 622:App/STM32F4-Discovery/Libraries/STM32F4xx_StdPeriph_Driver/src/stm32f4xx_cryp.c ****   }
 623:App/STM32F4-Discovery/Libraries/STM32F4xx_StdPeriph_Driver/src/stm32f4xx_cryp.c ****   else
 624:App/STM32F4-Discovery/Libraries/STM32F4xx_StdPeriph_Driver/src/stm32f4xx_cryp.c ****   {
 625:App/STM32F4-Discovery/Libraries/STM32F4xx_StdPeriph_Driver/src/stm32f4xx_cryp.c ****     /* Disable the selected CRYP DMA request */
 626:App/STM32F4-Discovery/Libraries/STM32F4xx_StdPeriph_Driver/src/stm32f4xx_cryp.c ****     CRYP->DMACR &= (uint8_t)~CRYP_DMAReq;
 1108              		.loc 1 626 0
 1109 0052 064B     		ldr	r3, .L54+4
 1110 0054 054A     		ldr	r2, .L54+4
 1111 0056 1169     		ldr	r1, [r2, #16]
 1112 0058 FA79     		ldrb	r2, [r7, #7]
 1113 005a D243     		mvns	r2, r2
 1114 005c D2B2     		uxtb	r2, r2
 1115 005e 0A40     		ands	r2, r2, r1
 1116 0060 1A61     		str	r2, [r3, #16]
 1117              	.L48:
 627:App/STM32F4-Discovery/Libraries/STM32F4xx_StdPeriph_Driver/src/stm32f4xx_cryp.c ****   }
 628:App/STM32F4-Discovery/Libraries/STM32F4xx_StdPeriph_Driver/src/stm32f4xx_cryp.c **** }
 1118              		.loc 1 628 0
 1119 0062 0837     		adds	r7, r7, #8
 1120 0064 BD46     		mov	sp, r7
 1121              		@ sp needed
 1122 0066 80BD     		pop	{r7, pc}
 1123              	.L55:
 1124              		.align	2
 1125              	.L54:
 1126 0068 00000000 		.word	.LC0
 1127 006c 00000650 		.word	1342570496
 1128              		.cfi_endproc
 1129              	.LFE123:
 1131              		.section	.text.CRYP_ITConfig,"ax",%progbits
 1132              		.align	2
 1133              		.global	CRYP_ITConfig
 1134              		.thumb
 1135              		.thumb_func
 1137              	CRYP_ITConfig:
 1138              	.LFB124:
 629:App/STM32F4-Discovery/Libraries/STM32F4xx_StdPeriph_Driver/src/stm32f4xx_cryp.c **** /**
 630:App/STM32F4-Discovery/Libraries/STM32F4xx_StdPeriph_Driver/src/stm32f4xx_cryp.c ****   * @}
 631:App/STM32F4-Discovery/Libraries/STM32F4xx_StdPeriph_Driver/src/stm32f4xx_cryp.c ****   */
 632:App/STM32F4-Discovery/Libraries/STM32F4xx_StdPeriph_Driver/src/stm32f4xx_cryp.c **** 
 633:App/STM32F4-Discovery/Libraries/STM32F4xx_StdPeriph_Driver/src/stm32f4xx_cryp.c **** /** @defgroup CRYP_Group5 Interrupts and flags management functions
 634:App/STM32F4-Discovery/Libraries/STM32F4xx_StdPeriph_Driver/src/stm32f4xx_cryp.c ****  *  @brief   Interrupts and flags management functions
 635:App/STM32F4-Discovery/Libraries/STM32F4xx_StdPeriph_Driver/src/stm32f4xx_cryp.c ****  *
 636:App/STM32F4-Discovery/Libraries/STM32F4xx_StdPeriph_Driver/src/stm32f4xx_cryp.c **** @verbatim   
 637:App/STM32F4-Discovery/Libraries/STM32F4xx_StdPeriph_Driver/src/stm32f4xx_cryp.c ****  ===============================================================================
 638:App/STM32F4-Discovery/Libraries/STM32F4xx_StdPeriph_Driver/src/stm32f4xx_cryp.c ****                    Interrupts and flags management functions
 639:App/STM32F4-Discovery/Libraries/STM32F4xx_StdPeriph_Driver/src/stm32f4xx_cryp.c ****  ===============================================================================  
 640:App/STM32F4-Discovery/Libraries/STM32F4xx_StdPeriph_Driver/src/stm32f4xx_cryp.c **** 
 641:App/STM32F4-Discovery/Libraries/STM32F4xx_StdPeriph_Driver/src/stm32f4xx_cryp.c ****   This section provides functions allowing to configure the CRYP Interrupts and 
 642:App/STM32F4-Discovery/Libraries/STM32F4xx_StdPeriph_Driver/src/stm32f4xx_cryp.c ****   to get the status and Interrupts pending bits.
 643:App/STM32F4-Discovery/Libraries/STM32F4xx_StdPeriph_Driver/src/stm32f4xx_cryp.c **** 
 644:App/STM32F4-Discovery/Libraries/STM32F4xx_StdPeriph_Driver/src/stm32f4xx_cryp.c ****   The CRYP provides 2 Interrupts sources and 7 Flags:
 645:App/STM32F4-Discovery/Libraries/STM32F4xx_StdPeriph_Driver/src/stm32f4xx_cryp.c **** 
 646:App/STM32F4-Discovery/Libraries/STM32F4xx_StdPeriph_Driver/src/stm32f4xx_cryp.c ****   Flags :
 647:App/STM32F4-Discovery/Libraries/STM32F4xx_StdPeriph_Driver/src/stm32f4xx_cryp.c ****   ------- 
 648:App/STM32F4-Discovery/Libraries/STM32F4xx_StdPeriph_Driver/src/stm32f4xx_cryp.c ****                           
 649:App/STM32F4-Discovery/Libraries/STM32F4xx_StdPeriph_Driver/src/stm32f4xx_cryp.c ****      1. CRYP_FLAG_IFEM :  Set when Input FIFO is empty.
 650:App/STM32F4-Discovery/Libraries/STM32F4xx_StdPeriph_Driver/src/stm32f4xx_cryp.c ****                           This Flag is cleared only by hardware.
 651:App/STM32F4-Discovery/Libraries/STM32F4xx_StdPeriph_Driver/src/stm32f4xx_cryp.c ****       
 652:App/STM32F4-Discovery/Libraries/STM32F4xx_StdPeriph_Driver/src/stm32f4xx_cryp.c ****      2. CRYP_FLAG_IFNF :  Set when Input FIFO is not full.
 653:App/STM32F4-Discovery/Libraries/STM32F4xx_StdPeriph_Driver/src/stm32f4xx_cryp.c ****                           This Flag is cleared only by hardware.
 654:App/STM32F4-Discovery/Libraries/STM32F4xx_StdPeriph_Driver/src/stm32f4xx_cryp.c **** 
 655:App/STM32F4-Discovery/Libraries/STM32F4xx_StdPeriph_Driver/src/stm32f4xx_cryp.c **** 
 656:App/STM32F4-Discovery/Libraries/STM32F4xx_StdPeriph_Driver/src/stm32f4xx_cryp.c ****      3. CRYP_FLAG_INRIS  : Set when Input FIFO Raw interrupt is pending 
 657:App/STM32F4-Discovery/Libraries/STM32F4xx_StdPeriph_Driver/src/stm32f4xx_cryp.c ****                            it gives the raw interrupt state prior to masking 
 658:App/STM32F4-Discovery/Libraries/STM32F4xx_StdPeriph_Driver/src/stm32f4xx_cryp.c ****                            of the input FIFO service interrupt.
 659:App/STM32F4-Discovery/Libraries/STM32F4xx_StdPeriph_Driver/src/stm32f4xx_cryp.c ****                            This Flag is cleared only by hardware.
 660:App/STM32F4-Discovery/Libraries/STM32F4xx_StdPeriph_Driver/src/stm32f4xx_cryp.c ****      
 661:App/STM32F4-Discovery/Libraries/STM32F4xx_StdPeriph_Driver/src/stm32f4xx_cryp.c ****      4. CRYP_FLAG_OFNE   : Set when Output FIFO not empty.
 662:App/STM32F4-Discovery/Libraries/STM32F4xx_StdPeriph_Driver/src/stm32f4xx_cryp.c ****                            This Flag is cleared only by hardware.
 663:App/STM32F4-Discovery/Libraries/STM32F4xx_StdPeriph_Driver/src/stm32f4xx_cryp.c ****         
 664:App/STM32F4-Discovery/Libraries/STM32F4xx_StdPeriph_Driver/src/stm32f4xx_cryp.c ****      5. CRYP_FLAG_OFFU   : Set when Output FIFO is full.
 665:App/STM32F4-Discovery/Libraries/STM32F4xx_StdPeriph_Driver/src/stm32f4xx_cryp.c ****                            This Flag is cleared only by hardware.
 666:App/STM32F4-Discovery/Libraries/STM32F4xx_StdPeriph_Driver/src/stm32f4xx_cryp.c ****                            
 667:App/STM32F4-Discovery/Libraries/STM32F4xx_StdPeriph_Driver/src/stm32f4xx_cryp.c ****      6. CRYP_FLAG_OUTRIS : Set when Output FIFO Raw interrupt is pending 
 668:App/STM32F4-Discovery/Libraries/STM32F4xx_StdPeriph_Driver/src/stm32f4xx_cryp.c ****                            it gives the raw interrupt state prior to masking 
 669:App/STM32F4-Discovery/Libraries/STM32F4xx_StdPeriph_Driver/src/stm32f4xx_cryp.c ****                            of the output FIFO service interrupt.
 670:App/STM32F4-Discovery/Libraries/STM32F4xx_StdPeriph_Driver/src/stm32f4xx_cryp.c ****                            This Flag is cleared only by hardware.
 671:App/STM32F4-Discovery/Libraries/STM32F4xx_StdPeriph_Driver/src/stm32f4xx_cryp.c ****                                
 672:App/STM32F4-Discovery/Libraries/STM32F4xx_StdPeriph_Driver/src/stm32f4xx_cryp.c ****      7. CRYP_FLAG_BUSY   : Set when the CRYP core is currently processing a 
 673:App/STM32F4-Discovery/Libraries/STM32F4xx_StdPeriph_Driver/src/stm32f4xx_cryp.c ****                            block of data or a key preparation (for AES 
 674:App/STM32F4-Discovery/Libraries/STM32F4xx_StdPeriph_Driver/src/stm32f4xx_cryp.c ****                            decryption).
 675:App/STM32F4-Discovery/Libraries/STM32F4xx_StdPeriph_Driver/src/stm32f4xx_cryp.c ****                            This Flag is cleared only by hardware.
 676:App/STM32F4-Discovery/Libraries/STM32F4xx_StdPeriph_Driver/src/stm32f4xx_cryp.c ****                            To clear it, the CRYP core must be disabled and the 
 677:App/STM32F4-Discovery/Libraries/STM32F4xx_StdPeriph_Driver/src/stm32f4xx_cryp.c ****                            last processing has completed. 
 678:App/STM32F4-Discovery/Libraries/STM32F4xx_StdPeriph_Driver/src/stm32f4xx_cryp.c **** 
 679:App/STM32F4-Discovery/Libraries/STM32F4xx_StdPeriph_Driver/src/stm32f4xx_cryp.c ****   Interrupts :
 680:App/STM32F4-Discovery/Libraries/STM32F4xx_StdPeriph_Driver/src/stm32f4xx_cryp.c ****   ------------
 681:App/STM32F4-Discovery/Libraries/STM32F4xx_StdPeriph_Driver/src/stm32f4xx_cryp.c **** 
 682:App/STM32F4-Discovery/Libraries/STM32F4xx_StdPeriph_Driver/src/stm32f4xx_cryp.c ****    1. CRYP_IT_INI   : The input FIFO service interrupt is asserted when there 
 683:App/STM32F4-Discovery/Libraries/STM32F4xx_StdPeriph_Driver/src/stm32f4xx_cryp.c ****                       are less than 4 words in the input FIFO.
 684:App/STM32F4-Discovery/Libraries/STM32F4xx_StdPeriph_Driver/src/stm32f4xx_cryp.c ****                       This interrupt is associated to CRYP_FLAG_INRIS flag.
 685:App/STM32F4-Discovery/Libraries/STM32F4xx_StdPeriph_Driver/src/stm32f4xx_cryp.c **** 
 686:App/STM32F4-Discovery/Libraries/STM32F4xx_StdPeriph_Driver/src/stm32f4xx_cryp.c ****                 @note This interrupt is cleared by performing write operations 
 687:App/STM32F4-Discovery/Libraries/STM32F4xx_StdPeriph_Driver/src/stm32f4xx_cryp.c ****                       to the input FIFO until it holds 4 or more words. The 
 688:App/STM32F4-Discovery/Libraries/STM32F4xx_StdPeriph_Driver/src/stm32f4xx_cryp.c ****                       input FIFO service interrupt INMIS is enabled with the 
 689:App/STM32F4-Discovery/Libraries/STM32F4xx_StdPeriph_Driver/src/stm32f4xx_cryp.c ****                       CRYP enable bit. Consequently, when CRYP is disabled, the 
 690:App/STM32F4-Discovery/Libraries/STM32F4xx_StdPeriph_Driver/src/stm32f4xx_cryp.c ****                       INMIS signal is low even if the input FIFO is empty.
 691:App/STM32F4-Discovery/Libraries/STM32F4xx_StdPeriph_Driver/src/stm32f4xx_cryp.c **** 
 692:App/STM32F4-Discovery/Libraries/STM32F4xx_StdPeriph_Driver/src/stm32f4xx_cryp.c **** 
 693:App/STM32F4-Discovery/Libraries/STM32F4xx_StdPeriph_Driver/src/stm32f4xx_cryp.c **** 
 694:App/STM32F4-Discovery/Libraries/STM32F4xx_StdPeriph_Driver/src/stm32f4xx_cryp.c ****    2. CRYP_IT_OUTI  : The output FIFO service interrupt is asserted when there 
 695:App/STM32F4-Discovery/Libraries/STM32F4xx_StdPeriph_Driver/src/stm32f4xx_cryp.c ****                       is one or more (32-bit word) data items in the output FIFO.
 696:App/STM32F4-Discovery/Libraries/STM32F4xx_StdPeriph_Driver/src/stm32f4xx_cryp.c ****                       This interrupt is associated to CRYP_FLAG_OUTRIS flag.
 697:App/STM32F4-Discovery/Libraries/STM32F4xx_StdPeriph_Driver/src/stm32f4xx_cryp.c **** 
 698:App/STM32F4-Discovery/Libraries/STM32F4xx_StdPeriph_Driver/src/stm32f4xx_cryp.c ****                 @note This interrupt is cleared by reading data from the output 
 699:App/STM32F4-Discovery/Libraries/STM32F4xx_StdPeriph_Driver/src/stm32f4xx_cryp.c ****                       FIFO until there is no valid (32-bit) word left (that is, 
 700:App/STM32F4-Discovery/Libraries/STM32F4xx_StdPeriph_Driver/src/stm32f4xx_cryp.c ****                       the interrupt follows the state of the OFNE (output FIFO 
 701:App/STM32F4-Discovery/Libraries/STM32F4xx_StdPeriph_Driver/src/stm32f4xx_cryp.c ****                       not empty) flag).
 702:App/STM32F4-Discovery/Libraries/STM32F4xx_StdPeriph_Driver/src/stm32f4xx_cryp.c **** 
 703:App/STM32F4-Discovery/Libraries/STM32F4xx_StdPeriph_Driver/src/stm32f4xx_cryp.c **** 
 704:App/STM32F4-Discovery/Libraries/STM32F4xx_StdPeriph_Driver/src/stm32f4xx_cryp.c ****   Managing the CRYP controller events :
 705:App/STM32F4-Discovery/Libraries/STM32F4xx_StdPeriph_Driver/src/stm32f4xx_cryp.c ****   ------------------------------------ 
 706:App/STM32F4-Discovery/Libraries/STM32F4xx_StdPeriph_Driver/src/stm32f4xx_cryp.c ****   The user should identify which mode will be used in his application to manage 
 707:App/STM32F4-Discovery/Libraries/STM32F4xx_StdPeriph_Driver/src/stm32f4xx_cryp.c ****   the CRYP controller events: Polling mode or Interrupt mode.
 708:App/STM32F4-Discovery/Libraries/STM32F4xx_StdPeriph_Driver/src/stm32f4xx_cryp.c **** 
 709:App/STM32F4-Discovery/Libraries/STM32F4xx_StdPeriph_Driver/src/stm32f4xx_cryp.c ****   1.  In the Polling Mode it is advised to use the following functions:
 710:App/STM32F4-Discovery/Libraries/STM32F4xx_StdPeriph_Driver/src/stm32f4xx_cryp.c ****       - CRYP_GetFlagStatus() : to check if flags events occur. 
 711:App/STM32F4-Discovery/Libraries/STM32F4xx_StdPeriph_Driver/src/stm32f4xx_cryp.c **** 
 712:App/STM32F4-Discovery/Libraries/STM32F4xx_StdPeriph_Driver/src/stm32f4xx_cryp.c ****   @note  The CRYPT flags do not need to be cleared since they are cleared as 
 713:App/STM32F4-Discovery/Libraries/STM32F4xx_StdPeriph_Driver/src/stm32f4xx_cryp.c ****          soon as the associated event are reset.   
 714:App/STM32F4-Discovery/Libraries/STM32F4xx_StdPeriph_Driver/src/stm32f4xx_cryp.c **** 
 715:App/STM32F4-Discovery/Libraries/STM32F4xx_StdPeriph_Driver/src/stm32f4xx_cryp.c **** 
 716:App/STM32F4-Discovery/Libraries/STM32F4xx_StdPeriph_Driver/src/stm32f4xx_cryp.c ****   2.  In the Interrupt Mode it is advised to use the following functions:
 717:App/STM32F4-Discovery/Libraries/STM32F4xx_StdPeriph_Driver/src/stm32f4xx_cryp.c ****       - CRYP_ITConfig()       : to enable or disable the interrupt source.
 718:App/STM32F4-Discovery/Libraries/STM32F4xx_StdPeriph_Driver/src/stm32f4xx_cryp.c ****       - CRYP_GetITStatus()    : to check if Interrupt occurs.
 719:App/STM32F4-Discovery/Libraries/STM32F4xx_StdPeriph_Driver/src/stm32f4xx_cryp.c **** 
 720:App/STM32F4-Discovery/Libraries/STM32F4xx_StdPeriph_Driver/src/stm32f4xx_cryp.c ****   @note  The CRYPT interrupts have no pending bits, the interrupt is cleared as 
 721:App/STM32F4-Discovery/Libraries/STM32F4xx_StdPeriph_Driver/src/stm32f4xx_cryp.c ****          soon as the associated event is reset. 
 722:App/STM32F4-Discovery/Libraries/STM32F4xx_StdPeriph_Driver/src/stm32f4xx_cryp.c **** 
 723:App/STM32F4-Discovery/Libraries/STM32F4xx_StdPeriph_Driver/src/stm32f4xx_cryp.c **** @endverbatim
 724:App/STM32F4-Discovery/Libraries/STM32F4xx_StdPeriph_Driver/src/stm32f4xx_cryp.c ****   * @{
 725:App/STM32F4-Discovery/Libraries/STM32F4xx_StdPeriph_Driver/src/stm32f4xx_cryp.c ****   */ 
 726:App/STM32F4-Discovery/Libraries/STM32F4xx_StdPeriph_Driver/src/stm32f4xx_cryp.c **** 
 727:App/STM32F4-Discovery/Libraries/STM32F4xx_StdPeriph_Driver/src/stm32f4xx_cryp.c **** /**
 728:App/STM32F4-Discovery/Libraries/STM32F4xx_StdPeriph_Driver/src/stm32f4xx_cryp.c ****   * @brief  Enables or disables the specified CRYP interrupts.
 729:App/STM32F4-Discovery/Libraries/STM32F4xx_StdPeriph_Driver/src/stm32f4xx_cryp.c ****   * @param  CRYP_IT: specifies the CRYP interrupt source to be enabled or disabled.
 730:App/STM32F4-Discovery/Libraries/STM32F4xx_StdPeriph_Driver/src/stm32f4xx_cryp.c ****   *          This parameter can be any combination of the following values:
 731:App/STM32F4-Discovery/Libraries/STM32F4xx_StdPeriph_Driver/src/stm32f4xx_cryp.c ****   *            @arg CRYP_IT_INI: Input FIFO interrupt
 732:App/STM32F4-Discovery/Libraries/STM32F4xx_StdPeriph_Driver/src/stm32f4xx_cryp.c ****   *            @arg CRYP_IT_OUTI: Output FIFO interrupt
 733:App/STM32F4-Discovery/Libraries/STM32F4xx_StdPeriph_Driver/src/stm32f4xx_cryp.c ****   * @param  NewState: new state of the specified CRYP interrupt.
 734:App/STM32F4-Discovery/Libraries/STM32F4xx_StdPeriph_Driver/src/stm32f4xx_cryp.c ****   *           This parameter can be: ENABLE or DISABLE.
 735:App/STM32F4-Discovery/Libraries/STM32F4xx_StdPeriph_Driver/src/stm32f4xx_cryp.c ****   * @retval None
 736:App/STM32F4-Discovery/Libraries/STM32F4xx_StdPeriph_Driver/src/stm32f4xx_cryp.c ****   */
 737:App/STM32F4-Discovery/Libraries/STM32F4xx_StdPeriph_Driver/src/stm32f4xx_cryp.c **** void CRYP_ITConfig(uint8_t CRYP_IT, FunctionalState NewState)
 738:App/STM32F4-Discovery/Libraries/STM32F4xx_StdPeriph_Driver/src/stm32f4xx_cryp.c **** {
 1139              		.loc 1 738 0
 1140              		.cfi_startproc
 1141              		@ args = 0, pretend = 0, frame = 8
 1142              		@ frame_needed = 1, uses_anonymous_args = 0
 1143 0000 80B5     		push	{r7, lr}
 1144              	.LCFI39:
 1145              		.cfi_def_cfa_offset 8
 1146              		.cfi_offset 7, -8
 1147              		.cfi_offset 14, -4
 1148 0002 82B0     		sub	sp, sp, #8
 1149              	.LCFI40:
 1150              		.cfi_def_cfa_offset 16
 1151 0004 00AF     		add	r7, sp, #0
 1152              	.LCFI41:
 1153              		.cfi_def_cfa_register 7
 1154 0006 0246     		mov	r2, r0
 1155 0008 0B46     		mov	r3, r1
 1156 000a FA71     		strb	r2, [r7, #7]
 1157 000c BB71     		strb	r3, [r7, #6]
 739:App/STM32F4-Discovery/Libraries/STM32F4xx_StdPeriph_Driver/src/stm32f4xx_cryp.c ****   /* Check the parameters */
 740:App/STM32F4-Discovery/Libraries/STM32F4xx_StdPeriph_Driver/src/stm32f4xx_cryp.c ****   assert_param(IS_CRYP_CONFIG_IT(CRYP_IT));
 1158              		.loc 1 740 0
 1159 000e FB79     		ldrb	r3, [r7, #7]	@ zero_extendqisi2
 1160 0010 03F0FC03 		and	r3, r3, #252
 1161 0014 002B     		cmp	r3, #0
 1162 0016 02D1     		bne	.L57
 1163              		.loc 1 740 0 is_stmt 0 discriminator 2
 1164 0018 FB79     		ldrb	r3, [r7, #7]	@ zero_extendqisi2
 1165 001a 002B     		cmp	r3, #0
 1166 001c 04D1     		bne	.L58
 1167              	.L57:
 1168              		.loc 1 740 0 discriminator 1
 1169 001e 1248     		ldr	r0, .L62
 1170 0020 4FF43971 		mov	r1, #740
 1171 0024 FFF7FEFF 		bl	assert_failed
 1172              	.L58:
 741:App/STM32F4-Discovery/Libraries/STM32F4xx_StdPeriph_Driver/src/stm32f4xx_cryp.c ****   assert_param(IS_FUNCTIONAL_STATE(NewState));
 1173              		.loc 1 741 0 is_stmt 1
 1174 0028 BB79     		ldrb	r3, [r7, #6]	@ zero_extendqisi2
 1175 002a 002B     		cmp	r3, #0
 1176 002c 07D0     		beq	.L59
 1177              		.loc 1 741 0 is_stmt 0 discriminator 1
 1178 002e BB79     		ldrb	r3, [r7, #6]	@ zero_extendqisi2
 1179 0030 012B     		cmp	r3, #1
 1180 0032 04D0     		beq	.L59
 1181 0034 0C48     		ldr	r0, .L62
 1182 0036 40F2E521 		movw	r1, #741
 1183 003a FFF7FEFF 		bl	assert_failed
 1184              	.L59:
 742:App/STM32F4-Discovery/Libraries/STM32F4xx_StdPeriph_Driver/src/stm32f4xx_cryp.c **** 
 743:App/STM32F4-Discovery/Libraries/STM32F4xx_StdPeriph_Driver/src/stm32f4xx_cryp.c ****   if (NewState != DISABLE)
 1185              		.loc 1 743 0 is_stmt 1
 1186 003e BB79     		ldrb	r3, [r7, #6]	@ zero_extendqisi2
 1187 0040 002B     		cmp	r3, #0
 1188 0042 06D0     		beq	.L60
 744:App/STM32F4-Discovery/Libraries/STM32F4xx_StdPeriph_Driver/src/stm32f4xx_cryp.c ****   {
 745:App/STM32F4-Discovery/Libraries/STM32F4xx_StdPeriph_Driver/src/stm32f4xx_cryp.c ****     /* Enable the selected CRYP interrupt */
 746:App/STM32F4-Discovery/Libraries/STM32F4xx_StdPeriph_Driver/src/stm32f4xx_cryp.c ****     CRYP->IMSCR |= CRYP_IT;
 1189              		.loc 1 746 0
 1190 0044 094B     		ldr	r3, .L62+4
 1191 0046 094A     		ldr	r2, .L62+4
 1192 0048 5169     		ldr	r1, [r2, #20]
 1193 004a FA79     		ldrb	r2, [r7, #7]	@ zero_extendqisi2
 1194 004c 0A43     		orrs	r2, r2, r1
 1195 004e 5A61     		str	r2, [r3, #20]
 1196 0050 07E0     		b	.L56
 1197              	.L60:
 747:App/STM32F4-Discovery/Libraries/STM32F4xx_StdPeriph_Driver/src/stm32f4xx_cryp.c ****   }
 748:App/STM32F4-Discovery/Libraries/STM32F4xx_StdPeriph_Driver/src/stm32f4xx_cryp.c ****   else
 749:App/STM32F4-Discovery/Libraries/STM32F4xx_StdPeriph_Driver/src/stm32f4xx_cryp.c ****   {
 750:App/STM32F4-Discovery/Libraries/STM32F4xx_StdPeriph_Driver/src/stm32f4xx_cryp.c ****     /* Disable the selected CRYP interrupt */
 751:App/STM32F4-Discovery/Libraries/STM32F4xx_StdPeriph_Driver/src/stm32f4xx_cryp.c ****     CRYP->IMSCR &= (uint8_t)~CRYP_IT;
 1198              		.loc 1 751 0
 1199 0052 064B     		ldr	r3, .L62+4
 1200 0054 054A     		ldr	r2, .L62+4
 1201 0056 5169     		ldr	r1, [r2, #20]
 1202 0058 FA79     		ldrb	r2, [r7, #7]
 1203 005a D243     		mvns	r2, r2
 1204 005c D2B2     		uxtb	r2, r2
 1205 005e 0A40     		ands	r2, r2, r1
 1206 0060 5A61     		str	r2, [r3, #20]
 1207              	.L56:
 752:App/STM32F4-Discovery/Libraries/STM32F4xx_StdPeriph_Driver/src/stm32f4xx_cryp.c ****   }
 753:App/STM32F4-Discovery/Libraries/STM32F4xx_StdPeriph_Driver/src/stm32f4xx_cryp.c **** }
 1208              		.loc 1 753 0
 1209 0062 0837     		adds	r7, r7, #8
 1210 0064 BD46     		mov	sp, r7
 1211              		@ sp needed
 1212 0066 80BD     		pop	{r7, pc}
 1213              	.L63:
 1214              		.align	2
 1215              	.L62:
 1216 0068 00000000 		.word	.LC0
 1217 006c 00000650 		.word	1342570496
 1218              		.cfi_endproc
 1219              	.LFE124:
 1221              		.section	.text.CRYP_GetITStatus,"ax",%progbits
 1222              		.align	2
 1223              		.global	CRYP_GetITStatus
 1224              		.thumb
 1225              		.thumb_func
 1227              	CRYP_GetITStatus:
 1228              	.LFB125:
 754:App/STM32F4-Discovery/Libraries/STM32F4xx_StdPeriph_Driver/src/stm32f4xx_cryp.c **** 
 755:App/STM32F4-Discovery/Libraries/STM32F4xx_StdPeriph_Driver/src/stm32f4xx_cryp.c **** /**
 756:App/STM32F4-Discovery/Libraries/STM32F4xx_StdPeriph_Driver/src/stm32f4xx_cryp.c ****   * @brief  Checks whether the specified CRYP interrupt has occurred or not.
 757:App/STM32F4-Discovery/Libraries/STM32F4xx_StdPeriph_Driver/src/stm32f4xx_cryp.c ****   * @note   This function checks the status of the masked interrupt (i.e the 
 758:App/STM32F4-Discovery/Libraries/STM32F4xx_StdPeriph_Driver/src/stm32f4xx_cryp.c ****   *         interrupt should be previously enabled).     
 759:App/STM32F4-Discovery/Libraries/STM32F4xx_StdPeriph_Driver/src/stm32f4xx_cryp.c ****   * @param  CRYP_IT: specifies the CRYP (masked) interrupt source to check.
 760:App/STM32F4-Discovery/Libraries/STM32F4xx_StdPeriph_Driver/src/stm32f4xx_cryp.c ****   *           This parameter can be one of the following values:
 761:App/STM32F4-Discovery/Libraries/STM32F4xx_StdPeriph_Driver/src/stm32f4xx_cryp.c ****   *            @arg CRYP_IT_INI: Input FIFO interrupt
 762:App/STM32F4-Discovery/Libraries/STM32F4xx_StdPeriph_Driver/src/stm32f4xx_cryp.c ****   *            @arg CRYP_IT_OUTI: Output FIFO interrupt
 763:App/STM32F4-Discovery/Libraries/STM32F4xx_StdPeriph_Driver/src/stm32f4xx_cryp.c ****   * @retval The new state of CRYP_IT (SET or RESET).
 764:App/STM32F4-Discovery/Libraries/STM32F4xx_StdPeriph_Driver/src/stm32f4xx_cryp.c ****   */
 765:App/STM32F4-Discovery/Libraries/STM32F4xx_StdPeriph_Driver/src/stm32f4xx_cryp.c **** ITStatus CRYP_GetITStatus(uint8_t CRYP_IT)
 766:App/STM32F4-Discovery/Libraries/STM32F4xx_StdPeriph_Driver/src/stm32f4xx_cryp.c **** {
 1229              		.loc 1 766 0
 1230              		.cfi_startproc
 1231              		@ args = 0, pretend = 0, frame = 16
 1232              		@ frame_needed = 1, uses_anonymous_args = 0
 1233 0000 80B5     		push	{r7, lr}
 1234              	.LCFI42:
 1235              		.cfi_def_cfa_offset 8
 1236              		.cfi_offset 7, -8
 1237              		.cfi_offset 14, -4
 1238 0002 84B0     		sub	sp, sp, #16
 1239              	.LCFI43:
 1240              		.cfi_def_cfa_offset 24
 1241 0004 00AF     		add	r7, sp, #0
 1242              	.LCFI44:
 1243              		.cfi_def_cfa_register 7
 1244 0006 0346     		mov	r3, r0
 1245 0008 FB71     		strb	r3, [r7, #7]
 767:App/STM32F4-Discovery/Libraries/STM32F4xx_StdPeriph_Driver/src/stm32f4xx_cryp.c ****   ITStatus bitstatus = RESET;
 1246              		.loc 1 767 0
 1247 000a 0023     		movs	r3, #0
 1248 000c FB73     		strb	r3, [r7, #15]
 768:App/STM32F4-Discovery/Libraries/STM32F4xx_StdPeriph_Driver/src/stm32f4xx_cryp.c ****   /* Check the parameters */
 769:App/STM32F4-Discovery/Libraries/STM32F4xx_StdPeriph_Driver/src/stm32f4xx_cryp.c ****   assert_param(IS_CRYP_GET_IT(CRYP_IT));
 1249              		.loc 1 769 0
 1250 000e FB79     		ldrb	r3, [r7, #7]	@ zero_extendqisi2
 1251 0010 012B     		cmp	r3, #1
 1252 0012 07D0     		beq	.L65
 1253              		.loc 1 769 0 is_stmt 0 discriminator 1
 1254 0014 FB79     		ldrb	r3, [r7, #7]	@ zero_extendqisi2
 1255 0016 022B     		cmp	r3, #2
 1256 0018 04D0     		beq	.L65
 1257 001a 0A48     		ldr	r0, .L69
 1258 001c 40F20131 		movw	r1, #769
 1259 0020 FFF7FEFF 		bl	assert_failed
 1260              	.L65:
 770:App/STM32F4-Discovery/Libraries/STM32F4xx_StdPeriph_Driver/src/stm32f4xx_cryp.c **** 
 771:App/STM32F4-Discovery/Libraries/STM32F4xx_StdPeriph_Driver/src/stm32f4xx_cryp.c ****   /* Check the status of the specified CRYP interrupt */
 772:App/STM32F4-Discovery/Libraries/STM32F4xx_StdPeriph_Driver/src/stm32f4xx_cryp.c ****   if ((CRYP->MISR &  CRYP_IT) != (uint8_t)RESET)
 1261              		.loc 1 772 0 is_stmt 1
 1262 0024 084B     		ldr	r3, .L69+4
 1263 0026 DA69     		ldr	r2, [r3, #28]
 1264 0028 FB79     		ldrb	r3, [r7, #7]	@ zero_extendqisi2
 1265 002a 1340     		ands	r3, r3, r2
 1266 002c 002B     		cmp	r3, #0
 1267 002e 02D0     		beq	.L66
 773:App/STM32F4-Discovery/Libraries/STM32F4xx_StdPeriph_Driver/src/stm32f4xx_cryp.c ****   {
 774:App/STM32F4-Discovery/Libraries/STM32F4xx_StdPeriph_Driver/src/stm32f4xx_cryp.c ****     /* CRYP_IT is set */
 775:App/STM32F4-Discovery/Libraries/STM32F4xx_StdPeriph_Driver/src/stm32f4xx_cryp.c ****     bitstatus = SET;
 1268              		.loc 1 775 0
 1269 0030 0123     		movs	r3, #1
 1270 0032 FB73     		strb	r3, [r7, #15]
 1271 0034 01E0     		b	.L67
 1272              	.L66:
 776:App/STM32F4-Discovery/Libraries/STM32F4xx_StdPeriph_Driver/src/stm32f4xx_cryp.c ****   }
 777:App/STM32F4-Discovery/Libraries/STM32F4xx_StdPeriph_Driver/src/stm32f4xx_cryp.c ****   else
 778:App/STM32F4-Discovery/Libraries/STM32F4xx_StdPeriph_Driver/src/stm32f4xx_cryp.c ****   {
 779:App/STM32F4-Discovery/Libraries/STM32F4xx_StdPeriph_Driver/src/stm32f4xx_cryp.c ****     /* CRYP_IT is reset */
 780:App/STM32F4-Discovery/Libraries/STM32F4xx_StdPeriph_Driver/src/stm32f4xx_cryp.c ****     bitstatus = RESET;
 1273              		.loc 1 780 0
 1274 0036 0023     		movs	r3, #0
 1275 0038 FB73     		strb	r3, [r7, #15]
 1276              	.L67:
 781:App/STM32F4-Discovery/Libraries/STM32F4xx_StdPeriph_Driver/src/stm32f4xx_cryp.c ****   }
 782:App/STM32F4-Discovery/Libraries/STM32F4xx_StdPeriph_Driver/src/stm32f4xx_cryp.c ****   /* Return the CRYP_IT status */
 783:App/STM32F4-Discovery/Libraries/STM32F4xx_StdPeriph_Driver/src/stm32f4xx_cryp.c ****   return bitstatus;
 1277              		.loc 1 783 0
 1278 003a FB7B     		ldrb	r3, [r7, #15]	@ zero_extendqisi2
 784:App/STM32F4-Discovery/Libraries/STM32F4xx_StdPeriph_Driver/src/stm32f4xx_cryp.c **** }
 1279              		.loc 1 784 0
 1280 003c 1846     		mov	r0, r3
 1281 003e 1037     		adds	r7, r7, #16
 1282 0040 BD46     		mov	sp, r7
 1283              		@ sp needed
 1284 0042 80BD     		pop	{r7, pc}
 1285              	.L70:
 1286              		.align	2
 1287              	.L69:
 1288 0044 00000000 		.word	.LC0
 1289 0048 00000650 		.word	1342570496
 1290              		.cfi_endproc
 1291              	.LFE125:
 1293              		.section	.text.CRYP_GetFlagStatus,"ax",%progbits
 1294              		.align	2
 1295              		.global	CRYP_GetFlagStatus
 1296              		.thumb
 1297              		.thumb_func
 1299              	CRYP_GetFlagStatus:
 1300              	.LFB126:
 785:App/STM32F4-Discovery/Libraries/STM32F4xx_StdPeriph_Driver/src/stm32f4xx_cryp.c **** 
 786:App/STM32F4-Discovery/Libraries/STM32F4xx_StdPeriph_Driver/src/stm32f4xx_cryp.c **** /**
 787:App/STM32F4-Discovery/Libraries/STM32F4xx_StdPeriph_Driver/src/stm32f4xx_cryp.c ****   * @brief  Checks whether the specified CRYP flag is set or not.
 788:App/STM32F4-Discovery/Libraries/STM32F4xx_StdPeriph_Driver/src/stm32f4xx_cryp.c ****   * @param  CRYP_FLAG: specifies the CRYP flag to check.
 789:App/STM32F4-Discovery/Libraries/STM32F4xx_StdPeriph_Driver/src/stm32f4xx_cryp.c ****   *          This parameter can be one of the following values:
 790:App/STM32F4-Discovery/Libraries/STM32F4xx_StdPeriph_Driver/src/stm32f4xx_cryp.c ****   *            @arg CRYP_FLAG_IFEM: Input FIFO Empty flag.
 791:App/STM32F4-Discovery/Libraries/STM32F4xx_StdPeriph_Driver/src/stm32f4xx_cryp.c ****   *            @arg CRYP_FLAG_IFNF: Input FIFO Not Full flag.
 792:App/STM32F4-Discovery/Libraries/STM32F4xx_StdPeriph_Driver/src/stm32f4xx_cryp.c ****   *            @arg CRYP_FLAG_OFNE: Output FIFO Not Empty flag.
 793:App/STM32F4-Discovery/Libraries/STM32F4xx_StdPeriph_Driver/src/stm32f4xx_cryp.c ****   *            @arg CRYP_FLAG_OFFU: Output FIFO Full flag.
 794:App/STM32F4-Discovery/Libraries/STM32F4xx_StdPeriph_Driver/src/stm32f4xx_cryp.c ****   *            @arg CRYP_FLAG_BUSY: Busy flag.
 795:App/STM32F4-Discovery/Libraries/STM32F4xx_StdPeriph_Driver/src/stm32f4xx_cryp.c ****   *            @arg CRYP_FLAG_OUTRIS: Output FIFO raw interrupt flag.
 796:App/STM32F4-Discovery/Libraries/STM32F4xx_StdPeriph_Driver/src/stm32f4xx_cryp.c ****   *            @arg CRYP_FLAG_INRIS: Input FIFO raw interrupt flag.
 797:App/STM32F4-Discovery/Libraries/STM32F4xx_StdPeriph_Driver/src/stm32f4xx_cryp.c ****   * @retval The new state of CRYP_FLAG (SET or RESET).
 798:App/STM32F4-Discovery/Libraries/STM32F4xx_StdPeriph_Driver/src/stm32f4xx_cryp.c ****   */
 799:App/STM32F4-Discovery/Libraries/STM32F4xx_StdPeriph_Driver/src/stm32f4xx_cryp.c **** FlagStatus CRYP_GetFlagStatus(uint8_t CRYP_FLAG)
 800:App/STM32F4-Discovery/Libraries/STM32F4xx_StdPeriph_Driver/src/stm32f4xx_cryp.c **** {
 1301              		.loc 1 800 0
 1302              		.cfi_startproc
 1303              		@ args = 0, pretend = 0, frame = 16
 1304              		@ frame_needed = 1, uses_anonymous_args = 0
 1305 0000 80B5     		push	{r7, lr}
 1306              	.LCFI45:
 1307              		.cfi_def_cfa_offset 8
 1308              		.cfi_offset 7, -8
 1309              		.cfi_offset 14, -4
 1310 0002 84B0     		sub	sp, sp, #16
 1311              	.LCFI46:
 1312              		.cfi_def_cfa_offset 24
 1313 0004 00AF     		add	r7, sp, #0
 1314              	.LCFI47:
 1315              		.cfi_def_cfa_register 7
 1316 0006 0346     		mov	r3, r0
 1317 0008 FB71     		strb	r3, [r7, #7]
 801:App/STM32F4-Discovery/Libraries/STM32F4xx_StdPeriph_Driver/src/stm32f4xx_cryp.c ****   FlagStatus bitstatus = RESET;
 1318              		.loc 1 801 0
 1319 000a 0023     		movs	r3, #0
 1320 000c FB73     		strb	r3, [r7, #15]
 802:App/STM32F4-Discovery/Libraries/STM32F4xx_StdPeriph_Driver/src/stm32f4xx_cryp.c ****   uint32_t tempreg = 0;
 1321              		.loc 1 802 0
 1322 000e 0023     		movs	r3, #0
 1323 0010 BB60     		str	r3, [r7, #8]
 803:App/STM32F4-Discovery/Libraries/STM32F4xx_StdPeriph_Driver/src/stm32f4xx_cryp.c **** 
 804:App/STM32F4-Discovery/Libraries/STM32F4xx_StdPeriph_Driver/src/stm32f4xx_cryp.c ****   /* Check the parameters */
 805:App/STM32F4-Discovery/Libraries/STM32F4xx_StdPeriph_Driver/src/stm32f4xx_cryp.c ****   assert_param(IS_CRYP_GET_FLAG(CRYP_FLAG));
 1324              		.loc 1 805 0
 1325 0012 FB79     		ldrb	r3, [r7, #7]	@ zero_extendqisi2
 1326 0014 012B     		cmp	r3, #1
 1327 0016 16D0     		beq	.L72
 1328              		.loc 1 805 0 is_stmt 0 discriminator 1
 1329 0018 FB79     		ldrb	r3, [r7, #7]	@ zero_extendqisi2
 1330 001a 022B     		cmp	r3, #2
 1331 001c 13D0     		beq	.L72
 1332 001e FB79     		ldrb	r3, [r7, #7]	@ zero_extendqisi2
 1333 0020 042B     		cmp	r3, #4
 1334 0022 10D0     		beq	.L72
 1335 0024 FB79     		ldrb	r3, [r7, #7]	@ zero_extendqisi2
 1336 0026 082B     		cmp	r3, #8
 1337 0028 0DD0     		beq	.L72
 1338 002a FB79     		ldrb	r3, [r7, #7]	@ zero_extendqisi2
 1339 002c 102B     		cmp	r3, #16
 1340 002e 0AD0     		beq	.L72
 1341 0030 FB79     		ldrb	r3, [r7, #7]	@ zero_extendqisi2
 1342 0032 212B     		cmp	r3, #33
 1343 0034 07D0     		beq	.L72
 1344 0036 FB79     		ldrb	r3, [r7, #7]	@ zero_extendqisi2
 1345 0038 222B     		cmp	r3, #34
 1346 003a 04D0     		beq	.L72
 1347 003c 0F48     		ldr	r0, .L78
 1348 003e 40F22531 		movw	r1, #805
 1349 0042 FFF7FEFF 		bl	assert_failed
 1350              	.L72:
 806:App/STM32F4-Discovery/Libraries/STM32F4xx_StdPeriph_Driver/src/stm32f4xx_cryp.c **** 
 807:App/STM32F4-Discovery/Libraries/STM32F4xx_StdPeriph_Driver/src/stm32f4xx_cryp.c ****   /* check if the FLAG is in RISR register */
 808:App/STM32F4-Discovery/Libraries/STM32F4xx_StdPeriph_Driver/src/stm32f4xx_cryp.c ****   if ((CRYP_FLAG & FLAG_MASK) != 0x00) 
 1351              		.loc 1 808 0 is_stmt 1
 1352 0046 FB79     		ldrb	r3, [r7, #7]	@ zero_extendqisi2
 1353 0048 03F02003 		and	r3, r3, #32
 1354 004c 002B     		cmp	r3, #0
 1355 004e 03D0     		beq	.L73
 809:App/STM32F4-Discovery/Libraries/STM32F4xx_StdPeriph_Driver/src/stm32f4xx_cryp.c ****   {
 810:App/STM32F4-Discovery/Libraries/STM32F4xx_StdPeriph_Driver/src/stm32f4xx_cryp.c ****     tempreg = CRYP->RISR;
 1356              		.loc 1 810 0
 1357 0050 0B4B     		ldr	r3, .L78+4
 1358 0052 9B69     		ldr	r3, [r3, #24]
 1359 0054 BB60     		str	r3, [r7, #8]
 1360 0056 02E0     		b	.L74
 1361              	.L73:
 811:App/STM32F4-Discovery/Libraries/STM32F4xx_StdPeriph_Driver/src/stm32f4xx_cryp.c ****   }
 812:App/STM32F4-Discovery/Libraries/STM32F4xx_StdPeriph_Driver/src/stm32f4xx_cryp.c ****   else  /* The FLAG is in SR register */
 813:App/STM32F4-Discovery/Libraries/STM32F4xx_StdPeriph_Driver/src/stm32f4xx_cryp.c ****   {
 814:App/STM32F4-Discovery/Libraries/STM32F4xx_StdPeriph_Driver/src/stm32f4xx_cryp.c ****     tempreg = CRYP->SR;
 1362              		.loc 1 814 0
 1363 0058 094B     		ldr	r3, .L78+4
 1364 005a 5B68     		ldr	r3, [r3, #4]
 1365 005c BB60     		str	r3, [r7, #8]
 1366              	.L74:
 815:App/STM32F4-Discovery/Libraries/STM32F4xx_StdPeriph_Driver/src/stm32f4xx_cryp.c ****   }
 816:App/STM32F4-Discovery/Libraries/STM32F4xx_StdPeriph_Driver/src/stm32f4xx_cryp.c **** 
 817:App/STM32F4-Discovery/Libraries/STM32F4xx_StdPeriph_Driver/src/stm32f4xx_cryp.c **** 
 818:App/STM32F4-Discovery/Libraries/STM32F4xx_StdPeriph_Driver/src/stm32f4xx_cryp.c ****   /* Check the status of the specified CRYP flag */
 819:App/STM32F4-Discovery/Libraries/STM32F4xx_StdPeriph_Driver/src/stm32f4xx_cryp.c ****   if ((tempreg & CRYP_FLAG ) != (uint8_t)RESET)
 1367              		.loc 1 819 0
 1368 005e FA79     		ldrb	r2, [r7, #7]	@ zero_extendqisi2
 1369 0060 BB68     		ldr	r3, [r7, #8]
 1370 0062 1340     		ands	r3, r3, r2
 1371 0064 002B     		cmp	r3, #0
 1372 0066 02D0     		beq	.L75
 820:App/STM32F4-Discovery/Libraries/STM32F4xx_StdPeriph_Driver/src/stm32f4xx_cryp.c ****   {
 821:App/STM32F4-Discovery/Libraries/STM32F4xx_StdPeriph_Driver/src/stm32f4xx_cryp.c ****     /* CRYP_FLAG is set */
 822:App/STM32F4-Discovery/Libraries/STM32F4xx_StdPeriph_Driver/src/stm32f4xx_cryp.c ****     bitstatus = SET;
 1373              		.loc 1 822 0
 1374 0068 0123     		movs	r3, #1
 1375 006a FB73     		strb	r3, [r7, #15]
 1376 006c 01E0     		b	.L76
 1377              	.L75:
 823:App/STM32F4-Discovery/Libraries/STM32F4xx_StdPeriph_Driver/src/stm32f4xx_cryp.c ****   }
 824:App/STM32F4-Discovery/Libraries/STM32F4xx_StdPeriph_Driver/src/stm32f4xx_cryp.c ****   else
 825:App/STM32F4-Discovery/Libraries/STM32F4xx_StdPeriph_Driver/src/stm32f4xx_cryp.c ****   {
 826:App/STM32F4-Discovery/Libraries/STM32F4xx_StdPeriph_Driver/src/stm32f4xx_cryp.c ****     /* CRYP_FLAG is reset */
 827:App/STM32F4-Discovery/Libraries/STM32F4xx_StdPeriph_Driver/src/stm32f4xx_cryp.c ****     bitstatus = RESET;
 1378              		.loc 1 827 0
 1379 006e 0023     		movs	r3, #0
 1380 0070 FB73     		strb	r3, [r7, #15]
 1381              	.L76:
 828:App/STM32F4-Discovery/Libraries/STM32F4xx_StdPeriph_Driver/src/stm32f4xx_cryp.c ****   }
 829:App/STM32F4-Discovery/Libraries/STM32F4xx_StdPeriph_Driver/src/stm32f4xx_cryp.c **** 
 830:App/STM32F4-Discovery/Libraries/STM32F4xx_StdPeriph_Driver/src/stm32f4xx_cryp.c ****   /* Return the CRYP_FLAG status */
 831:App/STM32F4-Discovery/Libraries/STM32F4xx_StdPeriph_Driver/src/stm32f4xx_cryp.c ****   return  bitstatus;
 1382              		.loc 1 831 0
 1383 0072 FB7B     		ldrb	r3, [r7, #15]	@ zero_extendqisi2
 832:App/STM32F4-Discovery/Libraries/STM32F4xx_StdPeriph_Driver/src/stm32f4xx_cryp.c **** }
 1384              		.loc 1 832 0
 1385 0074 1846     		mov	r0, r3
 1386 0076 1037     		adds	r7, r7, #16
 1387 0078 BD46     		mov	sp, r7
 1388              		@ sp needed
 1389 007a 80BD     		pop	{r7, pc}
 1390              	.L79:
 1391              		.align	2
 1392              	.L78:
 1393 007c 00000000 		.word	.LC0
 1394 0080 00000650 		.word	1342570496
 1395              		.cfi_endproc
 1396              	.LFE126:
 1398              		.text
 1399              	.Letext0:
 1400              		.file 2 "/home/shihyu/data/STM32F4/gcc-arm-none-eabi-4_8-2013q4/arm-none-eabi/include/stdint.h"
 1401              		.file 3 "App/STM32F4-Discovery/Libraries/CMSIS/ST/STM32F4xx/Include/stm32f4xx.h"
 1402              		.file 4 "App/STM32F4-Discovery/Libraries/STM32F4xx_StdPeriph_Driver/inc/stm32f4xx_cryp.h"
 1403              		.file 5 "App/STM32F4-Discovery/Libraries/CMSIS/Include/core_cm4.h"