   1              		.syntax unified
   2              		.cpu cortex-m4
   3              		.eabi_attribute 27, 3
   4              		.fpu fpv4-sp-d16
   5              		.eabi_attribute 20, 1
   6              		.eabi_attribute 21, 1
   7              		.eabi_attribute 23, 3
   8              		.eabi_attribute 24, 1
   9              		.eabi_attribute 25, 1
  10              		.eabi_attribute 26, 1
  11              		.eabi_attribute 30, 6
  12              		.eabi_attribute 34, 1
  13              		.eabi_attribute 18, 4
  14              		.thumb
  15              		.file	"stm32f4xx_usart.c"
  16              		.text
  17              	.Ltext0:
  18              		.cfi_sections	.debug_frame
  19              		.section	.rodata
  20              		.align	2
  21              	.LC0:
  22 0000 4170702F 		.ascii	"App/STM32F4-Discovery/Libraries/STM32F4xx_StdPeriph"
  22      53544D33 
  22      3246342D 
  22      44697363 
  22      6F766572 
  23 0033 5F447269 		.ascii	"_Driver/src/stm32f4xx_usart.c\000"
  23      7665722F 
  23      7372632F 
  23      73746D33 
  23      32663478 
  24 0051 000000   		.section	.text.USART_DeInit,"ax",%progbits
  25              		.align	2
  26              		.global	USART_DeInit
  27              		.thumb
  28              		.thumb_func
  30              	USART_DeInit:
  31              	.LFB110:
  32              		.file 1 "App/STM32F4-Discovery/Libraries/STM32F4xx_StdPeriph_Driver/src/stm32f4xx_usart.c"
   1:App/STM32F4-Discovery/Libraries/STM32F4xx_StdPeriph_Driver/src/stm32f4xx_usart.c **** /**
   2:App/STM32F4-Discovery/Libraries/STM32F4xx_StdPeriph_Driver/src/stm32f4xx_usart.c ****   ******************************************************************************
   3:App/STM32F4-Discovery/Libraries/STM32F4xx_StdPeriph_Driver/src/stm32f4xx_usart.c ****   * @file    stm32f4xx_usart.c
   4:App/STM32F4-Discovery/Libraries/STM32F4xx_StdPeriph_Driver/src/stm32f4xx_usart.c ****   * @author  MCD Application Team
   5:App/STM32F4-Discovery/Libraries/STM32F4xx_StdPeriph_Driver/src/stm32f4xx_usart.c ****   * @version V1.0.0
   6:App/STM32F4-Discovery/Libraries/STM32F4xx_StdPeriph_Driver/src/stm32f4xx_usart.c ****   * @date    30-September-2011
   7:App/STM32F4-Discovery/Libraries/STM32F4xx_StdPeriph_Driver/src/stm32f4xx_usart.c ****   * @brief   This file provides firmware functions to manage the following 
   8:App/STM32F4-Discovery/Libraries/STM32F4xx_StdPeriph_Driver/src/stm32f4xx_usart.c ****   *          functionalities of the Universal synchronous asynchronous receiver
   9:App/STM32F4-Discovery/Libraries/STM32F4xx_StdPeriph_Driver/src/stm32f4xx_usart.c ****   *          transmitter (USART):           
  10:App/STM32F4-Discovery/Libraries/STM32F4xx_StdPeriph_Driver/src/stm32f4xx_usart.c ****   *           - Initialization and Configuration
  11:App/STM32F4-Discovery/Libraries/STM32F4xx_StdPeriph_Driver/src/stm32f4xx_usart.c ****   *           - Data transfers
  12:App/STM32F4-Discovery/Libraries/STM32F4xx_StdPeriph_Driver/src/stm32f4xx_usart.c ****   *           - Multi-Processor Communication
  13:App/STM32F4-Discovery/Libraries/STM32F4xx_StdPeriph_Driver/src/stm32f4xx_usart.c ****   *           - LIN mode
  14:App/STM32F4-Discovery/Libraries/STM32F4xx_StdPeriph_Driver/src/stm32f4xx_usart.c ****   *           - Half-duplex mode
  15:App/STM32F4-Discovery/Libraries/STM32F4xx_StdPeriph_Driver/src/stm32f4xx_usart.c ****   *           - Smartcard mode
  16:App/STM32F4-Discovery/Libraries/STM32F4xx_StdPeriph_Driver/src/stm32f4xx_usart.c ****   *           - IrDA mode
  17:App/STM32F4-Discovery/Libraries/STM32F4xx_StdPeriph_Driver/src/stm32f4xx_usart.c ****   *           - DMA transfers management
  18:App/STM32F4-Discovery/Libraries/STM32F4xx_StdPeriph_Driver/src/stm32f4xx_usart.c ****   *           - Interrupts and flags management 
  19:App/STM32F4-Discovery/Libraries/STM32F4xx_StdPeriph_Driver/src/stm32f4xx_usart.c ****   *           
  20:App/STM32F4-Discovery/Libraries/STM32F4xx_StdPeriph_Driver/src/stm32f4xx_usart.c ****   *  @verbatim
  21:App/STM32F4-Discovery/Libraries/STM32F4xx_StdPeriph_Driver/src/stm32f4xx_usart.c ****   *      
  22:App/STM32F4-Discovery/Libraries/STM32F4xx_StdPeriph_Driver/src/stm32f4xx_usart.c ****   *          ===================================================================
  23:App/STM32F4-Discovery/Libraries/STM32F4xx_StdPeriph_Driver/src/stm32f4xx_usart.c ****   *                                 How to use this driver
  24:App/STM32F4-Discovery/Libraries/STM32F4xx_StdPeriph_Driver/src/stm32f4xx_usart.c ****   *          ===================================================================
  25:App/STM32F4-Discovery/Libraries/STM32F4xx_StdPeriph_Driver/src/stm32f4xx_usart.c ****   *          1. Enable peripheral clock using the follwoing functions
  26:App/STM32F4-Discovery/Libraries/STM32F4xx_StdPeriph_Driver/src/stm32f4xx_usart.c ****   *             RCC_APB2PeriphClockCmd(RCC_APB2Periph_USARTx, ENABLE) for USART1 and USART6 
  27:App/STM32F4-Discovery/Libraries/STM32F4xx_StdPeriph_Driver/src/stm32f4xx_usart.c ****   *             RCC_APB1PeriphClockCmd(RCC_APB1Periph_USARTx, ENABLE) for USART2, USART3, UART4 or 
  28:App/STM32F4-Discovery/Libraries/STM32F4xx_StdPeriph_Driver/src/stm32f4xx_usart.c ****   *
  29:App/STM32F4-Discovery/Libraries/STM32F4xx_StdPeriph_Driver/src/stm32f4xx_usart.c ****   *          2.  According to the USART mode, enable the GPIO clocks using 
  30:App/STM32F4-Discovery/Libraries/STM32F4xx_StdPeriph_Driver/src/stm32f4xx_usart.c ****   *              RCC_AHB1PeriphClockCmd() function. (The I/O can be TX, RX, CTS, 
  31:App/STM32F4-Discovery/Libraries/STM32F4xx_StdPeriph_Driver/src/stm32f4xx_usart.c ****   *              or/and SCLK). 
  32:App/STM32F4-Discovery/Libraries/STM32F4xx_StdPeriph_Driver/src/stm32f4xx_usart.c ****   *
  33:App/STM32F4-Discovery/Libraries/STM32F4xx_StdPeriph_Driver/src/stm32f4xx_usart.c ****   *          3. Peripheral's alternate function: 
  34:App/STM32F4-Discovery/Libraries/STM32F4xx_StdPeriph_Driver/src/stm32f4xx_usart.c ****   *                 - Connect the pin to the desired peripherals' Alternate 
  35:App/STM32F4-Discovery/Libraries/STM32F4xx_StdPeriph_Driver/src/stm32f4xx_usart.c ****   *                   Function (AF) using GPIO_PinAFConfig() function
  36:App/STM32F4-Discovery/Libraries/STM32F4xx_StdPeriph_Driver/src/stm32f4xx_usart.c ****   *                 - Configure the desired pin in alternate function by:
  37:App/STM32F4-Discovery/Libraries/STM32F4xx_StdPeriph_Driver/src/stm32f4xx_usart.c ****   *                   GPIO_InitStruct->GPIO_Mode = GPIO_Mode_AF
  38:App/STM32F4-Discovery/Libraries/STM32F4xx_StdPeriph_Driver/src/stm32f4xx_usart.c ****   *                 - Select the type, pull-up/pull-down and output speed via 
  39:App/STM32F4-Discovery/Libraries/STM32F4xx_StdPeriph_Driver/src/stm32f4xx_usart.c ****   *                   GPIO_PuPd, GPIO_OType and GPIO_Speed members
  40:App/STM32F4-Discovery/Libraries/STM32F4xx_StdPeriph_Driver/src/stm32f4xx_usart.c ****   *                 - Call GPIO_Init() function
  41:App/STM32F4-Discovery/Libraries/STM32F4xx_StdPeriph_Driver/src/stm32f4xx_usart.c ****   *        
  42:App/STM32F4-Discovery/Libraries/STM32F4xx_StdPeriph_Driver/src/stm32f4xx_usart.c ****   *          4. Program the Baud Rate, Word Length , Stop Bit, Parity, Hardware 
  43:App/STM32F4-Discovery/Libraries/STM32F4xx_StdPeriph_Driver/src/stm32f4xx_usart.c ****   *             flow control and Mode(Receiver/Transmitter) using the USART_Init()
  44:App/STM32F4-Discovery/Libraries/STM32F4xx_StdPeriph_Driver/src/stm32f4xx_usart.c ****   *             function.
  45:App/STM32F4-Discovery/Libraries/STM32F4xx_StdPeriph_Driver/src/stm32f4xx_usart.c ****   *
  46:App/STM32F4-Discovery/Libraries/STM32F4xx_StdPeriph_Driver/src/stm32f4xx_usart.c ****   *          5. For synchronous mode, enable the clock and program the polarity,
  47:App/STM32F4-Discovery/Libraries/STM32F4xx_StdPeriph_Driver/src/stm32f4xx_usart.c ****   *             phase and last bit using the USART_ClockInit() function.
  48:App/STM32F4-Discovery/Libraries/STM32F4xx_StdPeriph_Driver/src/stm32f4xx_usart.c ****   *
  49:App/STM32F4-Discovery/Libraries/STM32F4xx_StdPeriph_Driver/src/stm32f4xx_usart.c ****   *          5. Enable the NVIC and the corresponding interrupt using the function 
  50:App/STM32F4-Discovery/Libraries/STM32F4xx_StdPeriph_Driver/src/stm32f4xx_usart.c ****   *             USART_ITConfig() if you need to use interrupt mode. 
  51:App/STM32F4-Discovery/Libraries/STM32F4xx_StdPeriph_Driver/src/stm32f4xx_usart.c ****   *
  52:App/STM32F4-Discovery/Libraries/STM32F4xx_StdPeriph_Driver/src/stm32f4xx_usart.c ****   *          6. When using the DMA mode 
  53:App/STM32F4-Discovery/Libraries/STM32F4xx_StdPeriph_Driver/src/stm32f4xx_usart.c ****   *                   - Configure the DMA using DMA_Init() function
  54:App/STM32F4-Discovery/Libraries/STM32F4xx_StdPeriph_Driver/src/stm32f4xx_usart.c ****   *                   - Active the needed channel Request using USART_DMACmd() function
  55:App/STM32F4-Discovery/Libraries/STM32F4xx_StdPeriph_Driver/src/stm32f4xx_usart.c ****   * 
  56:App/STM32F4-Discovery/Libraries/STM32F4xx_StdPeriph_Driver/src/stm32f4xx_usart.c ****   *          7. Enable the USART using the USART_Cmd() function.
  57:App/STM32F4-Discovery/Libraries/STM32F4xx_StdPeriph_Driver/src/stm32f4xx_usart.c ****   * 
  58:App/STM32F4-Discovery/Libraries/STM32F4xx_StdPeriph_Driver/src/stm32f4xx_usart.c ****   *          8. Enable the DMA using the DMA_Cmd() function, when using DMA mode. 
  59:App/STM32F4-Discovery/Libraries/STM32F4xx_StdPeriph_Driver/src/stm32f4xx_usart.c ****   *
  60:App/STM32F4-Discovery/Libraries/STM32F4xx_StdPeriph_Driver/src/stm32f4xx_usart.c ****   *          Refer to Multi-Processor, LIN, half-duplex, Smartcard, IrDA sub-sections
  61:App/STM32F4-Discovery/Libraries/STM32F4xx_StdPeriph_Driver/src/stm32f4xx_usart.c ****   *          for more details
  62:App/STM32F4-Discovery/Libraries/STM32F4xx_StdPeriph_Driver/src/stm32f4xx_usart.c ****   *          
  63:App/STM32F4-Discovery/Libraries/STM32F4xx_StdPeriph_Driver/src/stm32f4xx_usart.c ****   *          In order to reach higher communication baudrates, it is possible to
  64:App/STM32F4-Discovery/Libraries/STM32F4xx_StdPeriph_Driver/src/stm32f4xx_usart.c ****   *          enable the oversampling by 8 mode using the function USART_OverSampling8Cmd().
  65:App/STM32F4-Discovery/Libraries/STM32F4xx_StdPeriph_Driver/src/stm32f4xx_usart.c ****   *          This function should be called after enabling the USART clock (RCC_APBxPeriphClockCmd(
  66:App/STM32F4-Discovery/Libraries/STM32F4xx_StdPeriph_Driver/src/stm32f4xx_usart.c ****   *          and before calling the function USART_Init().
  67:App/STM32F4-Discovery/Libraries/STM32F4xx_StdPeriph_Driver/src/stm32f4xx_usart.c ****   *          
  68:App/STM32F4-Discovery/Libraries/STM32F4xx_StdPeriph_Driver/src/stm32f4xx_usart.c ****   *  @endverbatim
  69:App/STM32F4-Discovery/Libraries/STM32F4xx_StdPeriph_Driver/src/stm32f4xx_usart.c ****   *        
  70:App/STM32F4-Discovery/Libraries/STM32F4xx_StdPeriph_Driver/src/stm32f4xx_usart.c ****   ******************************************************************************
  71:App/STM32F4-Discovery/Libraries/STM32F4xx_StdPeriph_Driver/src/stm32f4xx_usart.c ****   * @attention
  72:App/STM32F4-Discovery/Libraries/STM32F4xx_StdPeriph_Driver/src/stm32f4xx_usart.c ****   *
  73:App/STM32F4-Discovery/Libraries/STM32F4xx_StdPeriph_Driver/src/stm32f4xx_usart.c ****   * THE PRESENT FIRMWARE WHICH IS FOR GUIDANCE ONLY AIMS AT PROVIDING CUSTOMERS
  74:App/STM32F4-Discovery/Libraries/STM32F4xx_StdPeriph_Driver/src/stm32f4xx_usart.c ****   * WITH CODING INFORMATION REGARDING THEIR PRODUCTS IN ORDER FOR THEM TO SAVE
  75:App/STM32F4-Discovery/Libraries/STM32F4xx_StdPeriph_Driver/src/stm32f4xx_usart.c ****   * TIME. AS A RESULT, STMICROELECTRONICS SHALL NOT BE HELD LIABLE FOR ANY
  76:App/STM32F4-Discovery/Libraries/STM32F4xx_StdPeriph_Driver/src/stm32f4xx_usart.c ****   * DIRECT, INDIRECT OR CONSEQUENTIAL DAMAGES WITH RESPECT TO ANY CLAIMS ARISING
  77:App/STM32F4-Discovery/Libraries/STM32F4xx_StdPeriph_Driver/src/stm32f4xx_usart.c ****   * FROM THE CONTENT OF SUCH FIRMWARE AND/OR THE USE MADE BY CUSTOMERS OF THE
  78:App/STM32F4-Discovery/Libraries/STM32F4xx_StdPeriph_Driver/src/stm32f4xx_usart.c ****   * CODING INFORMATION CONTAINED HEREIN IN CONNECTION WITH THEIR PRODUCTS.
  79:App/STM32F4-Discovery/Libraries/STM32F4xx_StdPeriph_Driver/src/stm32f4xx_usart.c ****   *
  80:App/STM32F4-Discovery/Libraries/STM32F4xx_StdPeriph_Driver/src/stm32f4xx_usart.c ****   * <h2><center>&copy; COPYRIGHT 2011 STMicroelectronics</center></h2>
  81:App/STM32F4-Discovery/Libraries/STM32F4xx_StdPeriph_Driver/src/stm32f4xx_usart.c ****   ******************************************************************************  
  82:App/STM32F4-Discovery/Libraries/STM32F4xx_StdPeriph_Driver/src/stm32f4xx_usart.c ****   */ 
  83:App/STM32F4-Discovery/Libraries/STM32F4xx_StdPeriph_Driver/src/stm32f4xx_usart.c **** 
  84:App/STM32F4-Discovery/Libraries/STM32F4xx_StdPeriph_Driver/src/stm32f4xx_usart.c **** /* Includes ------------------------------------------------------------------*/
  85:App/STM32F4-Discovery/Libraries/STM32F4xx_StdPeriph_Driver/src/stm32f4xx_usart.c **** #include "stm32f4xx_usart.h"
  86:App/STM32F4-Discovery/Libraries/STM32F4xx_StdPeriph_Driver/src/stm32f4xx_usart.c **** #include "stm32f4xx_rcc.h"
  87:App/STM32F4-Discovery/Libraries/STM32F4xx_StdPeriph_Driver/src/stm32f4xx_usart.c **** 
  88:App/STM32F4-Discovery/Libraries/STM32F4xx_StdPeriph_Driver/src/stm32f4xx_usart.c **** /** @addtogroup STM32F4xx_StdPeriph_Driver
  89:App/STM32F4-Discovery/Libraries/STM32F4xx_StdPeriph_Driver/src/stm32f4xx_usart.c ****   * @{
  90:App/STM32F4-Discovery/Libraries/STM32F4xx_StdPeriph_Driver/src/stm32f4xx_usart.c ****   */
  91:App/STM32F4-Discovery/Libraries/STM32F4xx_StdPeriph_Driver/src/stm32f4xx_usart.c **** 
  92:App/STM32F4-Discovery/Libraries/STM32F4xx_StdPeriph_Driver/src/stm32f4xx_usart.c **** /** @defgroup USART 
  93:App/STM32F4-Discovery/Libraries/STM32F4xx_StdPeriph_Driver/src/stm32f4xx_usart.c ****   * @brief USART driver modules
  94:App/STM32F4-Discovery/Libraries/STM32F4xx_StdPeriph_Driver/src/stm32f4xx_usart.c ****   * @{
  95:App/STM32F4-Discovery/Libraries/STM32F4xx_StdPeriph_Driver/src/stm32f4xx_usart.c ****   */
  96:App/STM32F4-Discovery/Libraries/STM32F4xx_StdPeriph_Driver/src/stm32f4xx_usart.c **** 
  97:App/STM32F4-Discovery/Libraries/STM32F4xx_StdPeriph_Driver/src/stm32f4xx_usart.c **** /* Private typedef -----------------------------------------------------------*/
  98:App/STM32F4-Discovery/Libraries/STM32F4xx_StdPeriph_Driver/src/stm32f4xx_usart.c **** /* Private define ------------------------------------------------------------*/
  99:App/STM32F4-Discovery/Libraries/STM32F4xx_StdPeriph_Driver/src/stm32f4xx_usart.c **** 
 100:App/STM32F4-Discovery/Libraries/STM32F4xx_StdPeriph_Driver/src/stm32f4xx_usart.c **** /*!< USART CR1 register clear Mask ((~(uint16_t)0xE9F3)) */
 101:App/STM32F4-Discovery/Libraries/STM32F4xx_StdPeriph_Driver/src/stm32f4xx_usart.c **** #define CR1_CLEAR_MASK            ((uint16_t)(USART_CR1_M | USART_CR1_PCE | \
 102:App/STM32F4-Discovery/Libraries/STM32F4xx_StdPeriph_Driver/src/stm32f4xx_usart.c ****                                               USART_CR1_PS | USART_CR1_TE | \
 103:App/STM32F4-Discovery/Libraries/STM32F4xx_StdPeriph_Driver/src/stm32f4xx_usart.c ****                                               USART_CR1_RE))
 104:App/STM32F4-Discovery/Libraries/STM32F4xx_StdPeriph_Driver/src/stm32f4xx_usart.c **** 
 105:App/STM32F4-Discovery/Libraries/STM32F4xx_StdPeriph_Driver/src/stm32f4xx_usart.c **** /*!< USART CR2 register clock bits clear Mask ((~(uint16_t)0xF0FF)) */
 106:App/STM32F4-Discovery/Libraries/STM32F4xx_StdPeriph_Driver/src/stm32f4xx_usart.c **** #define CR2_CLOCK_CLEAR_MASK      ((uint16_t)(USART_CR2_CLKEN | USART_CR2_CPOL | \
 107:App/STM32F4-Discovery/Libraries/STM32F4xx_StdPeriph_Driver/src/stm32f4xx_usart.c ****                                               USART_CR2_CPHA | USART_CR2_LBCL))
 108:App/STM32F4-Discovery/Libraries/STM32F4xx_StdPeriph_Driver/src/stm32f4xx_usart.c **** 
 109:App/STM32F4-Discovery/Libraries/STM32F4xx_StdPeriph_Driver/src/stm32f4xx_usart.c **** /*!< USART CR3 register clear Mask ((~(uint16_t)0xFCFF)) */
 110:App/STM32F4-Discovery/Libraries/STM32F4xx_StdPeriph_Driver/src/stm32f4xx_usart.c **** #define CR3_CLEAR_MASK            ((uint16_t)(USART_CR3_RTSE | USART_CR3_CTSE))
 111:App/STM32F4-Discovery/Libraries/STM32F4xx_StdPeriph_Driver/src/stm32f4xx_usart.c **** 
 112:App/STM32F4-Discovery/Libraries/STM32F4xx_StdPeriph_Driver/src/stm32f4xx_usart.c **** /*!< USART Interrupts mask */
 113:App/STM32F4-Discovery/Libraries/STM32F4xx_StdPeriph_Driver/src/stm32f4xx_usart.c **** #define IT_MASK                   ((uint16_t)0x001F)
 114:App/STM32F4-Discovery/Libraries/STM32F4xx_StdPeriph_Driver/src/stm32f4xx_usart.c **** 
 115:App/STM32F4-Discovery/Libraries/STM32F4xx_StdPeriph_Driver/src/stm32f4xx_usart.c **** /* Private macro -------------------------------------------------------------*/
 116:App/STM32F4-Discovery/Libraries/STM32F4xx_StdPeriph_Driver/src/stm32f4xx_usart.c **** /* Private variables ---------------------------------------------------------*/
 117:App/STM32F4-Discovery/Libraries/STM32F4xx_StdPeriph_Driver/src/stm32f4xx_usart.c **** /* Private function prototypes -----------------------------------------------*/
 118:App/STM32F4-Discovery/Libraries/STM32F4xx_StdPeriph_Driver/src/stm32f4xx_usart.c **** /* Private functions ---------------------------------------------------------*/
 119:App/STM32F4-Discovery/Libraries/STM32F4xx_StdPeriph_Driver/src/stm32f4xx_usart.c **** 
 120:App/STM32F4-Discovery/Libraries/STM32F4xx_StdPeriph_Driver/src/stm32f4xx_usart.c **** /** @defgroup USART_Private_Functions
 121:App/STM32F4-Discovery/Libraries/STM32F4xx_StdPeriph_Driver/src/stm32f4xx_usart.c ****   * @{
 122:App/STM32F4-Discovery/Libraries/STM32F4xx_StdPeriph_Driver/src/stm32f4xx_usart.c ****   */
 123:App/STM32F4-Discovery/Libraries/STM32F4xx_StdPeriph_Driver/src/stm32f4xx_usart.c **** 
 124:App/STM32F4-Discovery/Libraries/STM32F4xx_StdPeriph_Driver/src/stm32f4xx_usart.c **** /** @defgroup USART_Group1 Initialization and Configuration functions
 125:App/STM32F4-Discovery/Libraries/STM32F4xx_StdPeriph_Driver/src/stm32f4xx_usart.c ****  *  @brief   Initialization and Configuration functions 
 126:App/STM32F4-Discovery/Libraries/STM32F4xx_StdPeriph_Driver/src/stm32f4xx_usart.c ****  *
 127:App/STM32F4-Discovery/Libraries/STM32F4xx_StdPeriph_Driver/src/stm32f4xx_usart.c **** @verbatim   
 128:App/STM32F4-Discovery/Libraries/STM32F4xx_StdPeriph_Driver/src/stm32f4xx_usart.c ****  ===============================================================================
 129:App/STM32F4-Discovery/Libraries/STM32F4xx_StdPeriph_Driver/src/stm32f4xx_usart.c ****                   Initialization and Configuration functions
 130:App/STM32F4-Discovery/Libraries/STM32F4xx_StdPeriph_Driver/src/stm32f4xx_usart.c ****  ===============================================================================  
 131:App/STM32F4-Discovery/Libraries/STM32F4xx_StdPeriph_Driver/src/stm32f4xx_usart.c **** 
 132:App/STM32F4-Discovery/Libraries/STM32F4xx_StdPeriph_Driver/src/stm32f4xx_usart.c ****   This subsection provides a set of functions allowing to initialize the USART 
 133:App/STM32F4-Discovery/Libraries/STM32F4xx_StdPeriph_Driver/src/stm32f4xx_usart.c ****   in asynchronous and in synchronous modes.
 134:App/STM32F4-Discovery/Libraries/STM32F4xx_StdPeriph_Driver/src/stm32f4xx_usart.c ****    - For the asynchronous mode only these parameters can be configured: 
 135:App/STM32F4-Discovery/Libraries/STM32F4xx_StdPeriph_Driver/src/stm32f4xx_usart.c ****         - Baud Rate
 136:App/STM32F4-Discovery/Libraries/STM32F4xx_StdPeriph_Driver/src/stm32f4xx_usart.c ****         - Word Length 
 137:App/STM32F4-Discovery/Libraries/STM32F4xx_StdPeriph_Driver/src/stm32f4xx_usart.c ****         - Stop Bit
 138:App/STM32F4-Discovery/Libraries/STM32F4xx_StdPeriph_Driver/src/stm32f4xx_usart.c ****         - Parity: If the parity is enabled, then the MSB bit of the data written
 139:App/STM32F4-Discovery/Libraries/STM32F4xx_StdPeriph_Driver/src/stm32f4xx_usart.c ****           in the data register is transmitted but is changed by the parity bit.
 140:App/STM32F4-Discovery/Libraries/STM32F4xx_StdPeriph_Driver/src/stm32f4xx_usart.c ****           Depending on the frame length defined by the M bit (8-bits or 9-bits),
 141:App/STM32F4-Discovery/Libraries/STM32F4xx_StdPeriph_Driver/src/stm32f4xx_usart.c ****           the possible USART frame formats are as listed in the following table:
 142:App/STM32F4-Discovery/Libraries/STM32F4xx_StdPeriph_Driver/src/stm32f4xx_usart.c ****    +-------------------------------------------------------------+     
 143:App/STM32F4-Discovery/Libraries/STM32F4xx_StdPeriph_Driver/src/stm32f4xx_usart.c ****    |   M bit |  PCE bit  |            USART frame                |
 144:App/STM32F4-Discovery/Libraries/STM32F4xx_StdPeriph_Driver/src/stm32f4xx_usart.c ****    |---------------------|---------------------------------------|             
 145:App/STM32F4-Discovery/Libraries/STM32F4xx_StdPeriph_Driver/src/stm32f4xx_usart.c ****    |    0    |    0      |    | SB | 8 bit data | STB |          |
 146:App/STM32F4-Discovery/Libraries/STM32F4xx_StdPeriph_Driver/src/stm32f4xx_usart.c ****    |---------|-----------|---------------------------------------|  
 147:App/STM32F4-Discovery/Libraries/STM32F4xx_StdPeriph_Driver/src/stm32f4xx_usart.c ****    |    0    |    1      |    | SB | 7 bit data | PB | STB |     |
 148:App/STM32F4-Discovery/Libraries/STM32F4xx_StdPeriph_Driver/src/stm32f4xx_usart.c ****    |---------|-----------|---------------------------------------|  
 149:App/STM32F4-Discovery/Libraries/STM32F4xx_StdPeriph_Driver/src/stm32f4xx_usart.c ****    |    1    |    0      |    | SB | 9 bit data | STB |          |
 150:App/STM32F4-Discovery/Libraries/STM32F4xx_StdPeriph_Driver/src/stm32f4xx_usart.c ****    |---------|-----------|---------------------------------------|  
 151:App/STM32F4-Discovery/Libraries/STM32F4xx_StdPeriph_Driver/src/stm32f4xx_usart.c ****    |    1    |    1      |    | SB | 8 bit data | PB | STB |     |
 152:App/STM32F4-Discovery/Libraries/STM32F4xx_StdPeriph_Driver/src/stm32f4xx_usart.c ****    +-------------------------------------------------------------+            
 153:App/STM32F4-Discovery/Libraries/STM32F4xx_StdPeriph_Driver/src/stm32f4xx_usart.c ****         - Hardware flow control
 154:App/STM32F4-Discovery/Libraries/STM32F4xx_StdPeriph_Driver/src/stm32f4xx_usart.c ****         - Receiver/transmitter modes
 155:App/STM32F4-Discovery/Libraries/STM32F4xx_StdPeriph_Driver/src/stm32f4xx_usart.c **** 
 156:App/STM32F4-Discovery/Libraries/STM32F4xx_StdPeriph_Driver/src/stm32f4xx_usart.c ****   The USART_Init() function follows the USART  asynchronous configuration procedure
 157:App/STM32F4-Discovery/Libraries/STM32F4xx_StdPeriph_Driver/src/stm32f4xx_usart.c ****   (details for the procedure are available in reference manual (RM0090)).
 158:App/STM32F4-Discovery/Libraries/STM32F4xx_StdPeriph_Driver/src/stm32f4xx_usart.c **** 
 159:App/STM32F4-Discovery/Libraries/STM32F4xx_StdPeriph_Driver/src/stm32f4xx_usart.c ****   - For the synchronous mode in addition to the asynchronous mode parameters these 
 160:App/STM32F4-Discovery/Libraries/STM32F4xx_StdPeriph_Driver/src/stm32f4xx_usart.c ****     parameters should be also configured:
 161:App/STM32F4-Discovery/Libraries/STM32F4xx_StdPeriph_Driver/src/stm32f4xx_usart.c ****         - USART Clock Enabled
 162:App/STM32F4-Discovery/Libraries/STM32F4xx_StdPeriph_Driver/src/stm32f4xx_usart.c ****         - USART polarity
 163:App/STM32F4-Discovery/Libraries/STM32F4xx_StdPeriph_Driver/src/stm32f4xx_usart.c ****         - USART phase
 164:App/STM32F4-Discovery/Libraries/STM32F4xx_StdPeriph_Driver/src/stm32f4xx_usart.c ****         - USART LastBit
 165:App/STM32F4-Discovery/Libraries/STM32F4xx_StdPeriph_Driver/src/stm32f4xx_usart.c ****   
 166:App/STM32F4-Discovery/Libraries/STM32F4xx_StdPeriph_Driver/src/stm32f4xx_usart.c ****   These parameters can be configured using the USART_ClockInit() function.
 167:App/STM32F4-Discovery/Libraries/STM32F4xx_StdPeriph_Driver/src/stm32f4xx_usart.c **** 
 168:App/STM32F4-Discovery/Libraries/STM32F4xx_StdPeriph_Driver/src/stm32f4xx_usart.c **** @endverbatim
 169:App/STM32F4-Discovery/Libraries/STM32F4xx_StdPeriph_Driver/src/stm32f4xx_usart.c ****   * @{
 170:App/STM32F4-Discovery/Libraries/STM32F4xx_StdPeriph_Driver/src/stm32f4xx_usart.c ****   */
 171:App/STM32F4-Discovery/Libraries/STM32F4xx_StdPeriph_Driver/src/stm32f4xx_usart.c ****   
 172:App/STM32F4-Discovery/Libraries/STM32F4xx_StdPeriph_Driver/src/stm32f4xx_usart.c **** /**
 173:App/STM32F4-Discovery/Libraries/STM32F4xx_StdPeriph_Driver/src/stm32f4xx_usart.c ****   * @brief  Deinitializes the USARTx peripheral registers to their default reset values.
 174:App/STM32F4-Discovery/Libraries/STM32F4xx_StdPeriph_Driver/src/stm32f4xx_usart.c ****   * @param  USARTx: where x can be 1, 2, 3, 4, 5 or 6 to select the USART or 
 175:App/STM32F4-Discovery/Libraries/STM32F4xx_StdPeriph_Driver/src/stm32f4xx_usart.c ****   *         UART peripheral.
 176:App/STM32F4-Discovery/Libraries/STM32F4xx_StdPeriph_Driver/src/stm32f4xx_usart.c ****   * @retval None
 177:App/STM32F4-Discovery/Libraries/STM32F4xx_StdPeriph_Driver/src/stm32f4xx_usart.c ****   */
 178:App/STM32F4-Discovery/Libraries/STM32F4xx_StdPeriph_Driver/src/stm32f4xx_usart.c **** void USART_DeInit(USART_TypeDef* USARTx)
 179:App/STM32F4-Discovery/Libraries/STM32F4xx_StdPeriph_Driver/src/stm32f4xx_usart.c **** {
  33              		.loc 1 179 0
  34              		.cfi_startproc
  35              		@ args = 0, pretend = 0, frame = 8
  36              		@ frame_needed = 1, uses_anonymous_args = 0
  37 0000 80B5     		push	{r7, lr}
  38              	.LCFI0:
  39              		.cfi_def_cfa_offset 8
  40              		.cfi_offset 7, -8
  41              		.cfi_offset 14, -4
  42 0002 82B0     		sub	sp, sp, #8
  43              	.LCFI1:
  44              		.cfi_def_cfa_offset 16
  45 0004 00AF     		add	r7, sp, #0
  46              	.LCFI2:
  47              		.cfi_def_cfa_register 7
  48 0006 7860     		str	r0, [r7, #4]
 180:App/STM32F4-Discovery/Libraries/STM32F4xx_StdPeriph_Driver/src/stm32f4xx_usart.c ****   /* Check the parameters */
 181:App/STM32F4-Discovery/Libraries/STM32F4xx_StdPeriph_Driver/src/stm32f4xx_usart.c ****   assert_param(IS_USART_ALL_PERIPH(USARTx));
  49              		.loc 1 181 0
  50 0008 7A68     		ldr	r2, [r7, #4]
  51 000a 394B     		ldr	r3, .L9
  52 000c 9A42     		cmp	r2, r3
  53 000e 17D0     		beq	.L2
  54              		.loc 1 181 0 is_stmt 0 discriminator 1
  55 0010 7A68     		ldr	r2, [r7, #4]
  56 0012 384B     		ldr	r3, .L9+4
  57 0014 9A42     		cmp	r2, r3
  58 0016 13D0     		beq	.L2
  59 0018 7A68     		ldr	r2, [r7, #4]
  60 001a 374B     		ldr	r3, .L9+8
  61 001c 9A42     		cmp	r2, r3
  62 001e 0FD0     		beq	.L2
  63 0020 7A68     		ldr	r2, [r7, #4]
  64 0022 364B     		ldr	r3, .L9+12
  65 0024 9A42     		cmp	r2, r3
  66 0026 0BD0     		beq	.L2
  67 0028 7A68     		ldr	r2, [r7, #4]
  68 002a 354B     		ldr	r3, .L9+16
  69 002c 9A42     		cmp	r2, r3
  70 002e 07D0     		beq	.L2
  71 0030 7A68     		ldr	r2, [r7, #4]
  72 0032 344B     		ldr	r3, .L9+20
  73 0034 9A42     		cmp	r2, r3
  74 0036 03D0     		beq	.L2
  75 0038 3348     		ldr	r0, .L9+24
  76 003a B521     		movs	r1, #181
  77 003c FFF7FEFF 		bl	assert_failed
  78              	.L2:
 182:App/STM32F4-Discovery/Libraries/STM32F4xx_StdPeriph_Driver/src/stm32f4xx_usart.c **** 
 183:App/STM32F4-Discovery/Libraries/STM32F4xx_StdPeriph_Driver/src/stm32f4xx_usart.c ****   if (USARTx == USART1)
  79              		.loc 1 183 0 is_stmt 1
  80 0040 7A68     		ldr	r2, [r7, #4]
  81 0042 2B4B     		ldr	r3, .L9
  82 0044 9A42     		cmp	r2, r3
  83 0046 08D1     		bne	.L3
 184:App/STM32F4-Discovery/Libraries/STM32F4xx_StdPeriph_Driver/src/stm32f4xx_usart.c ****   {
 185:App/STM32F4-Discovery/Libraries/STM32F4xx_StdPeriph_Driver/src/stm32f4xx_usart.c ****     RCC_APB2PeriphResetCmd(RCC_APB2Periph_USART1, ENABLE);
  84              		.loc 1 185 0
  85 0048 1020     		movs	r0, #16
  86 004a 0121     		movs	r1, #1
  87 004c FFF7FEFF 		bl	RCC_APB2PeriphResetCmd
 186:App/STM32F4-Discovery/Libraries/STM32F4xx_StdPeriph_Driver/src/stm32f4xx_usart.c ****     RCC_APB2PeriphResetCmd(RCC_APB2Periph_USART1, DISABLE);
  88              		.loc 1 186 0
  89 0050 1020     		movs	r0, #16
  90 0052 0021     		movs	r1, #0
  91 0054 FFF7FEFF 		bl	RCC_APB2PeriphResetCmd
  92 0058 47E0     		b	.L1
  93              	.L3:
 187:App/STM32F4-Discovery/Libraries/STM32F4xx_StdPeriph_Driver/src/stm32f4xx_usart.c ****   }
 188:App/STM32F4-Discovery/Libraries/STM32F4xx_StdPeriph_Driver/src/stm32f4xx_usart.c ****   else if (USARTx == USART2)
  94              		.loc 1 188 0
  95 005a 7A68     		ldr	r2, [r7, #4]
  96 005c 254B     		ldr	r3, .L9+4
  97 005e 9A42     		cmp	r2, r3
  98 0060 0AD1     		bne	.L5
 189:App/STM32F4-Discovery/Libraries/STM32F4xx_StdPeriph_Driver/src/stm32f4xx_usart.c ****   {
 190:App/STM32F4-Discovery/Libraries/STM32F4xx_StdPeriph_Driver/src/stm32f4xx_usart.c ****     RCC_APB1PeriphResetCmd(RCC_APB1Periph_USART2, ENABLE);
  99              		.loc 1 190 0
 100 0062 4FF40030 		mov	r0, #131072
 101 0066 0121     		movs	r1, #1
 102 0068 FFF7FEFF 		bl	RCC_APB1PeriphResetCmd
 191:App/STM32F4-Discovery/Libraries/STM32F4xx_StdPeriph_Driver/src/stm32f4xx_usart.c ****     RCC_APB1PeriphResetCmd(RCC_APB1Periph_USART2, DISABLE);
 103              		.loc 1 191 0
 104 006c 4FF40030 		mov	r0, #131072
 105 0070 0021     		movs	r1, #0
 106 0072 FFF7FEFF 		bl	RCC_APB1PeriphResetCmd
 107 0076 38E0     		b	.L1
 108              	.L5:
 192:App/STM32F4-Discovery/Libraries/STM32F4xx_StdPeriph_Driver/src/stm32f4xx_usart.c ****   }
 193:App/STM32F4-Discovery/Libraries/STM32F4xx_StdPeriph_Driver/src/stm32f4xx_usart.c ****   else if (USARTx == USART3)
 109              		.loc 1 193 0
 110 0078 7A68     		ldr	r2, [r7, #4]
 111 007a 1F4B     		ldr	r3, .L9+8
 112 007c 9A42     		cmp	r2, r3
 113 007e 0AD1     		bne	.L6
 194:App/STM32F4-Discovery/Libraries/STM32F4xx_StdPeriph_Driver/src/stm32f4xx_usart.c ****   {
 195:App/STM32F4-Discovery/Libraries/STM32F4xx_StdPeriph_Driver/src/stm32f4xx_usart.c ****     RCC_APB1PeriphResetCmd(RCC_APB1Periph_USART3, ENABLE);
 114              		.loc 1 195 0
 115 0080 4FF48020 		mov	r0, #262144
 116 0084 0121     		movs	r1, #1
 117 0086 FFF7FEFF 		bl	RCC_APB1PeriphResetCmd
 196:App/STM32F4-Discovery/Libraries/STM32F4xx_StdPeriph_Driver/src/stm32f4xx_usart.c ****     RCC_APB1PeriphResetCmd(RCC_APB1Periph_USART3, DISABLE);
 118              		.loc 1 196 0
 119 008a 4FF48020 		mov	r0, #262144
 120 008e 0021     		movs	r1, #0
 121 0090 FFF7FEFF 		bl	RCC_APB1PeriphResetCmd
 122 0094 29E0     		b	.L1
 123              	.L6:
 197:App/STM32F4-Discovery/Libraries/STM32F4xx_StdPeriph_Driver/src/stm32f4xx_usart.c ****   }    
 198:App/STM32F4-Discovery/Libraries/STM32F4xx_StdPeriph_Driver/src/stm32f4xx_usart.c ****   else if (USARTx == UART4)
 124              		.loc 1 198 0
 125 0096 7A68     		ldr	r2, [r7, #4]
 126 0098 184B     		ldr	r3, .L9+12
 127 009a 9A42     		cmp	r2, r3
 128 009c 0AD1     		bne	.L7
 199:App/STM32F4-Discovery/Libraries/STM32F4xx_StdPeriph_Driver/src/stm32f4xx_usart.c ****   {
 200:App/STM32F4-Discovery/Libraries/STM32F4xx_StdPeriph_Driver/src/stm32f4xx_usart.c ****     RCC_APB1PeriphResetCmd(RCC_APB1Periph_UART4, ENABLE);
 129              		.loc 1 200 0
 130 009e 4FF40020 		mov	r0, #524288
 131 00a2 0121     		movs	r1, #1
 132 00a4 FFF7FEFF 		bl	RCC_APB1PeriphResetCmd
 201:App/STM32F4-Discovery/Libraries/STM32F4xx_StdPeriph_Driver/src/stm32f4xx_usart.c ****     RCC_APB1PeriphResetCmd(RCC_APB1Periph_UART4, DISABLE);
 133              		.loc 1 201 0
 134 00a8 4FF40020 		mov	r0, #524288
 135 00ac 0021     		movs	r1, #0
 136 00ae FFF7FEFF 		bl	RCC_APB1PeriphResetCmd
 137 00b2 1AE0     		b	.L1
 138              	.L7:
 202:App/STM32F4-Discovery/Libraries/STM32F4xx_StdPeriph_Driver/src/stm32f4xx_usart.c ****   }
 203:App/STM32F4-Discovery/Libraries/STM32F4xx_StdPeriph_Driver/src/stm32f4xx_usart.c ****   else if (USARTx == UART5)
 139              		.loc 1 203 0
 140 00b4 7A68     		ldr	r2, [r7, #4]
 141 00b6 124B     		ldr	r3, .L9+16
 142 00b8 9A42     		cmp	r2, r3
 143 00ba 0AD1     		bne	.L8
 204:App/STM32F4-Discovery/Libraries/STM32F4xx_StdPeriph_Driver/src/stm32f4xx_usart.c ****   {
 205:App/STM32F4-Discovery/Libraries/STM32F4xx_StdPeriph_Driver/src/stm32f4xx_usart.c ****     RCC_APB1PeriphResetCmd(RCC_APB1Periph_UART5, ENABLE);
 144              		.loc 1 205 0
 145 00bc 4FF48010 		mov	r0, #1048576
 146 00c0 0121     		movs	r1, #1
 147 00c2 FFF7FEFF 		bl	RCC_APB1PeriphResetCmd
 206:App/STM32F4-Discovery/Libraries/STM32F4xx_StdPeriph_Driver/src/stm32f4xx_usart.c ****     RCC_APB1PeriphResetCmd(RCC_APB1Periph_UART5, DISABLE);
 148              		.loc 1 206 0
 149 00c6 4FF48010 		mov	r0, #1048576
 150 00ca 0021     		movs	r1, #0
 151 00cc FFF7FEFF 		bl	RCC_APB1PeriphResetCmd
 152 00d0 0BE0     		b	.L1
 153              	.L8:
 207:App/STM32F4-Discovery/Libraries/STM32F4xx_StdPeriph_Driver/src/stm32f4xx_usart.c ****   }     
 208:App/STM32F4-Discovery/Libraries/STM32F4xx_StdPeriph_Driver/src/stm32f4xx_usart.c ****   else
 209:App/STM32F4-Discovery/Libraries/STM32F4xx_StdPeriph_Driver/src/stm32f4xx_usart.c ****   {
 210:App/STM32F4-Discovery/Libraries/STM32F4xx_StdPeriph_Driver/src/stm32f4xx_usart.c ****     if (USARTx == USART6)
 154              		.loc 1 210 0
 155 00d2 7A68     		ldr	r2, [r7, #4]
 156 00d4 0B4B     		ldr	r3, .L9+20
 157 00d6 9A42     		cmp	r2, r3
 158 00d8 07D1     		bne	.L1
 211:App/STM32F4-Discovery/Libraries/STM32F4xx_StdPeriph_Driver/src/stm32f4xx_usart.c ****     { 
 212:App/STM32F4-Discovery/Libraries/STM32F4xx_StdPeriph_Driver/src/stm32f4xx_usart.c ****       RCC_APB2PeriphResetCmd(RCC_APB2Periph_USART6, ENABLE);
 159              		.loc 1 212 0
 160 00da 2020     		movs	r0, #32
 161 00dc 0121     		movs	r1, #1
 162 00de FFF7FEFF 		bl	RCC_APB2PeriphResetCmd
 213:App/STM32F4-Discovery/Libraries/STM32F4xx_StdPeriph_Driver/src/stm32f4xx_usart.c ****       RCC_APB2PeriphResetCmd(RCC_APB2Periph_USART6, DISABLE);
 163              		.loc 1 213 0
 164 00e2 2020     		movs	r0, #32
 165 00e4 0021     		movs	r1, #0
 166 00e6 FFF7FEFF 		bl	RCC_APB2PeriphResetCmd
 167              	.L1:
 214:App/STM32F4-Discovery/Libraries/STM32F4xx_StdPeriph_Driver/src/stm32f4xx_usart.c ****     }
 215:App/STM32F4-Discovery/Libraries/STM32F4xx_StdPeriph_Driver/src/stm32f4xx_usart.c ****   }
 216:App/STM32F4-Discovery/Libraries/STM32F4xx_StdPeriph_Driver/src/stm32f4xx_usart.c **** }
 168              		.loc 1 216 0
 169 00ea 0837     		adds	r7, r7, #8
 170 00ec BD46     		mov	sp, r7
 171              		@ sp needed
 172 00ee 80BD     		pop	{r7, pc}
 173              	.L10:
 174              		.align	2
 175              	.L9:
 176 00f0 00100140 		.word	1073811456
 177 00f4 00440040 		.word	1073759232
 178 00f8 00480040 		.word	1073760256
 179 00fc 004C0040 		.word	1073761280
 180 0100 00500040 		.word	1073762304
 181 0104 00140140 		.word	1073812480
 182 0108 00000000 		.word	.LC0
 183              		.cfi_endproc
 184              	.LFE110:
 186              		.section	.text.USART_Init,"ax",%progbits
 187              		.align	2
 188              		.global	USART_Init
 189              		.thumb
 190              		.thumb_func
 192              	USART_Init:
 193              	.LFB111:
 217:App/STM32F4-Discovery/Libraries/STM32F4xx_StdPeriph_Driver/src/stm32f4xx_usart.c **** 
 218:App/STM32F4-Discovery/Libraries/STM32F4xx_StdPeriph_Driver/src/stm32f4xx_usart.c **** /**
 219:App/STM32F4-Discovery/Libraries/STM32F4xx_StdPeriph_Driver/src/stm32f4xx_usart.c ****   * @brief  Initializes the USARTx peripheral according to the specified
 220:App/STM32F4-Discovery/Libraries/STM32F4xx_StdPeriph_Driver/src/stm32f4xx_usart.c ****   *         parameters in the USART_InitStruct .
 221:App/STM32F4-Discovery/Libraries/STM32F4xx_StdPeriph_Driver/src/stm32f4xx_usart.c ****   * @param  USARTx: where x can be 1, 2, 3, 4, 5 or 6 to select the USART or 
 222:App/STM32F4-Discovery/Libraries/STM32F4xx_StdPeriph_Driver/src/stm32f4xx_usart.c ****   *         UART peripheral.
 223:App/STM32F4-Discovery/Libraries/STM32F4xx_StdPeriph_Driver/src/stm32f4xx_usart.c ****   * @param  USART_InitStruct: pointer to a USART_InitTypeDef structure that contains
 224:App/STM32F4-Discovery/Libraries/STM32F4xx_StdPeriph_Driver/src/stm32f4xx_usart.c ****   *         the configuration information for the specified USART peripheral.
 225:App/STM32F4-Discovery/Libraries/STM32F4xx_StdPeriph_Driver/src/stm32f4xx_usart.c ****   * @retval None
 226:App/STM32F4-Discovery/Libraries/STM32F4xx_StdPeriph_Driver/src/stm32f4xx_usart.c ****   */
 227:App/STM32F4-Discovery/Libraries/STM32F4xx_StdPeriph_Driver/src/stm32f4xx_usart.c **** void USART_Init(USART_TypeDef* USARTx, USART_InitTypeDef* USART_InitStruct)
 228:App/STM32F4-Discovery/Libraries/STM32F4xx_StdPeriph_Driver/src/stm32f4xx_usart.c **** {
 194              		.loc 1 228 0
 195              		.cfi_startproc
 196              		@ args = 0, pretend = 0, frame = 40
 197              		@ frame_needed = 1, uses_anonymous_args = 0
 198 0000 80B5     		push	{r7, lr}
 199              	.LCFI3:
 200              		.cfi_def_cfa_offset 8
 201              		.cfi_offset 7, -8
 202              		.cfi_offset 14, -4
 203 0002 8AB0     		sub	sp, sp, #40
 204              	.LCFI4:
 205              		.cfi_def_cfa_offset 48
 206 0004 00AF     		add	r7, sp, #0
 207              	.LCFI5:
 208              		.cfi_def_cfa_register 7
 209 0006 7860     		str	r0, [r7, #4]
 210 0008 3960     		str	r1, [r7]
 229:App/STM32F4-Discovery/Libraries/STM32F4xx_StdPeriph_Driver/src/stm32f4xx_usart.c ****   uint32_t tmpreg = 0x00, apbclock = 0x00;
 211              		.loc 1 229 0
 212 000a 0023     		movs	r3, #0
 213 000c 7B62     		str	r3, [r7, #36]
 214 000e 0023     		movs	r3, #0
 215 0010 3B62     		str	r3, [r7, #32]
 230:App/STM32F4-Discovery/Libraries/STM32F4xx_StdPeriph_Driver/src/stm32f4xx_usart.c ****   uint32_t integerdivider = 0x00;
 216              		.loc 1 230 0
 217 0012 0023     		movs	r3, #0
 218 0014 FB61     		str	r3, [r7, #28]
 231:App/STM32F4-Discovery/Libraries/STM32F4xx_StdPeriph_Driver/src/stm32f4xx_usart.c ****   uint32_t fractionaldivider = 0x00;
 219              		.loc 1 231 0
 220 0016 0023     		movs	r3, #0
 221 0018 BB61     		str	r3, [r7, #24]
 232:App/STM32F4-Discovery/Libraries/STM32F4xx_StdPeriph_Driver/src/stm32f4xx_usart.c ****   RCC_ClocksTypeDef RCC_ClocksStatus;
 233:App/STM32F4-Discovery/Libraries/STM32F4xx_StdPeriph_Driver/src/stm32f4xx_usart.c **** 
 234:App/STM32F4-Discovery/Libraries/STM32F4xx_StdPeriph_Driver/src/stm32f4xx_usart.c ****   /* Check the parameters */
 235:App/STM32F4-Discovery/Libraries/STM32F4xx_StdPeriph_Driver/src/stm32f4xx_usart.c ****   assert_param(IS_USART_ALL_PERIPH(USARTx));
 222              		.loc 1 235 0
 223 001a 7A68     		ldr	r2, [r7, #4]
 224 001c 974B     		ldr	r3, .L29
 225 001e 9A42     		cmp	r2, r3
 226 0020 17D0     		beq	.L12
 227              		.loc 1 235 0 is_stmt 0 discriminator 1
 228 0022 7A68     		ldr	r2, [r7, #4]
 229 0024 964B     		ldr	r3, .L29+4
 230 0026 9A42     		cmp	r2, r3
 231 0028 13D0     		beq	.L12
 232 002a 7A68     		ldr	r2, [r7, #4]
 233 002c 954B     		ldr	r3, .L29+8
 234 002e 9A42     		cmp	r2, r3
 235 0030 0FD0     		beq	.L12
 236 0032 7A68     		ldr	r2, [r7, #4]
 237 0034 944B     		ldr	r3, .L29+12
 238 0036 9A42     		cmp	r2, r3
 239 0038 0BD0     		beq	.L12
 240 003a 7A68     		ldr	r2, [r7, #4]
 241 003c 934B     		ldr	r3, .L29+16
 242 003e 9A42     		cmp	r2, r3
 243 0040 07D0     		beq	.L12
 244 0042 7A68     		ldr	r2, [r7, #4]
 245 0044 924B     		ldr	r3, .L29+20
 246 0046 9A42     		cmp	r2, r3
 247 0048 03D0     		beq	.L12
 248 004a 9248     		ldr	r0, .L29+24
 249 004c EB21     		movs	r1, #235
 250 004e FFF7FEFF 		bl	assert_failed
 251              	.L12:
 236:App/STM32F4-Discovery/Libraries/STM32F4xx_StdPeriph_Driver/src/stm32f4xx_usart.c ****   assert_param(IS_USART_BAUDRATE(USART_InitStruct->USART_BaudRate));  
 252              		.loc 1 236 0 is_stmt 1
 253 0052 3B68     		ldr	r3, [r7]
 254 0054 1B68     		ldr	r3, [r3]
 255 0056 002B     		cmp	r3, #0
 256 0058 04D0     		beq	.L13
 257              		.loc 1 236 0 is_stmt 0 discriminator 2
 258 005a 3B68     		ldr	r3, [r7]
 259 005c 1A68     		ldr	r2, [r3]
 260 005e 8E4B     		ldr	r3, .L29+28
 261 0060 9A42     		cmp	r2, r3
 262 0062 03D9     		bls	.L14
 263              	.L13:
 264              		.loc 1 236 0 discriminator 1
 265 0064 8B48     		ldr	r0, .L29+24
 266 0066 EC21     		movs	r1, #236
 267 0068 FFF7FEFF 		bl	assert_failed
 268              	.L14:
 237:App/STM32F4-Discovery/Libraries/STM32F4xx_StdPeriph_Driver/src/stm32f4xx_usart.c ****   assert_param(IS_USART_WORD_LENGTH(USART_InitStruct->USART_WordLength));
 269              		.loc 1 237 0 is_stmt 1
 270 006c 3B68     		ldr	r3, [r7]
 271 006e 9B88     		ldrh	r3, [r3, #4]
 272 0070 002B     		cmp	r3, #0
 273 0072 08D0     		beq	.L15
 274              		.loc 1 237 0 is_stmt 0 discriminator 1
 275 0074 3B68     		ldr	r3, [r7]
 276 0076 9B88     		ldrh	r3, [r3, #4]
 277 0078 B3F5805F 		cmp	r3, #4096
 278 007c 03D0     		beq	.L15
 279 007e 8548     		ldr	r0, .L29+24
 280 0080 ED21     		movs	r1, #237
 281 0082 FFF7FEFF 		bl	assert_failed
 282              	.L15:
 238:App/STM32F4-Discovery/Libraries/STM32F4xx_StdPeriph_Driver/src/stm32f4xx_usart.c ****   assert_param(IS_USART_STOPBITS(USART_InitStruct->USART_StopBits));
 283              		.loc 1 238 0 is_stmt 1
 284 0086 3B68     		ldr	r3, [r7]
 285 0088 DB88     		ldrh	r3, [r3, #6]
 286 008a 002B     		cmp	r3, #0
 287 008c 12D0     		beq	.L16
 288              		.loc 1 238 0 is_stmt 0 discriminator 1
 289 008e 3B68     		ldr	r3, [r7]
 290 0090 DB88     		ldrh	r3, [r3, #6]
 291 0092 B3F5805F 		cmp	r3, #4096
 292 0096 0DD0     		beq	.L16
 293 0098 3B68     		ldr	r3, [r7]
 294 009a DB88     		ldrh	r3, [r3, #6]
 295 009c B3F5005F 		cmp	r3, #8192
 296 00a0 08D0     		beq	.L16
 297 00a2 3B68     		ldr	r3, [r7]
 298 00a4 DB88     		ldrh	r3, [r3, #6]
 299 00a6 B3F5405F 		cmp	r3, #12288
 300 00aa 03D0     		beq	.L16
 301 00ac 7948     		ldr	r0, .L29+24
 302 00ae EE21     		movs	r1, #238
 303 00b0 FFF7FEFF 		bl	assert_failed
 304              	.L16:
 239:App/STM32F4-Discovery/Libraries/STM32F4xx_StdPeriph_Driver/src/stm32f4xx_usart.c ****   assert_param(IS_USART_PARITY(USART_InitStruct->USART_Parity));
 305              		.loc 1 239 0 is_stmt 1
 306 00b4 3B68     		ldr	r3, [r7]
 307 00b6 1B89     		ldrh	r3, [r3, #8]
 308 00b8 002B     		cmp	r3, #0
 309 00ba 0DD0     		beq	.L17
 310              		.loc 1 239 0 is_stmt 0 discriminator 1
 311 00bc 3B68     		ldr	r3, [r7]
 312 00be 1B89     		ldrh	r3, [r3, #8]
 313 00c0 B3F5806F 		cmp	r3, #1024
 314 00c4 08D0     		beq	.L17
 315 00c6 3B68     		ldr	r3, [r7]
 316 00c8 1B89     		ldrh	r3, [r3, #8]
 317 00ca B3F5C06F 		cmp	r3, #1536
 318 00ce 03D0     		beq	.L17
 319 00d0 7048     		ldr	r0, .L29+24
 320 00d2 EF21     		movs	r1, #239
 321 00d4 FFF7FEFF 		bl	assert_failed
 322              	.L17:
 240:App/STM32F4-Discovery/Libraries/STM32F4xx_StdPeriph_Driver/src/stm32f4xx_usart.c ****   assert_param(IS_USART_MODE(USART_InitStruct->USART_Mode));
 323              		.loc 1 240 0 is_stmt 1
 324 00d8 3B68     		ldr	r3, [r7]
 325 00da 5B89     		ldrh	r3, [r3, #10]
 326 00dc 1A46     		mov	r2, r3
 327 00de 4FF6F373 		movw	r3, #65523
 328 00e2 1340     		ands	r3, r3, r2
 329 00e4 002B     		cmp	r3, #0
 330 00e6 03D1     		bne	.L18
 331              		.loc 1 240 0 is_stmt 0 discriminator 2
 332 00e8 3B68     		ldr	r3, [r7]
 333 00ea 5B89     		ldrh	r3, [r3, #10]
 334 00ec 002B     		cmp	r3, #0
 335 00ee 03D1     		bne	.L19
 336              	.L18:
 337              		.loc 1 240 0 discriminator 1
 338 00f0 6848     		ldr	r0, .L29+24
 339 00f2 F021     		movs	r1, #240
 340 00f4 FFF7FEFF 		bl	assert_failed
 341              	.L19:
 241:App/STM32F4-Discovery/Libraries/STM32F4xx_StdPeriph_Driver/src/stm32f4xx_usart.c ****   assert_param(IS_USART_HARDWARE_FLOW_CONTROL(USART_InitStruct->USART_HardwareFlowControl));
 342              		.loc 1 241 0 is_stmt 1
 343 00f8 3B68     		ldr	r3, [r7]
 344 00fa 9B89     		ldrh	r3, [r3, #12]
 345 00fc 002B     		cmp	r3, #0
 346 00fe 12D0     		beq	.L20
 347              		.loc 1 241 0 is_stmt 0 discriminator 1
 348 0100 3B68     		ldr	r3, [r7]
 349 0102 9B89     		ldrh	r3, [r3, #12]
 350 0104 B3F5807F 		cmp	r3, #256
 351 0108 0DD0     		beq	.L20
 352 010a 3B68     		ldr	r3, [r7]
 353 010c 9B89     		ldrh	r3, [r3, #12]
 354 010e B3F5007F 		cmp	r3, #512
 355 0112 08D0     		beq	.L20
 356 0114 3B68     		ldr	r3, [r7]
 357 0116 9B89     		ldrh	r3, [r3, #12]
 358 0118 B3F5407F 		cmp	r3, #768
 359 011c 03D0     		beq	.L20
 360 011e 5D48     		ldr	r0, .L29+24
 361 0120 F121     		movs	r1, #241
 362 0122 FFF7FEFF 		bl	assert_failed
 363              	.L20:
 242:App/STM32F4-Discovery/Libraries/STM32F4xx_StdPeriph_Driver/src/stm32f4xx_usart.c **** 
 243:App/STM32F4-Discovery/Libraries/STM32F4xx_StdPeriph_Driver/src/stm32f4xx_usart.c ****   /* The hardware flow control is available only for USART1, USART2, USART3 and USART6 */
 244:App/STM32F4-Discovery/Libraries/STM32F4xx_StdPeriph_Driver/src/stm32f4xx_usart.c ****   if (USART_InitStruct->USART_HardwareFlowControl != USART_HardwareFlowControl_None)
 364              		.loc 1 244 0 is_stmt 1
 365 0126 3B68     		ldr	r3, [r7]
 366 0128 9B89     		ldrh	r3, [r3, #12]
 367 012a 002B     		cmp	r3, #0
 368 012c 13D0     		beq	.L21
 245:App/STM32F4-Discovery/Libraries/STM32F4xx_StdPeriph_Driver/src/stm32f4xx_usart.c ****   {
 246:App/STM32F4-Discovery/Libraries/STM32F4xx_StdPeriph_Driver/src/stm32f4xx_usart.c ****     assert_param(IS_USART_1236_PERIPH(USARTx));
 369              		.loc 1 246 0
 370 012e 7A68     		ldr	r2, [r7, #4]
 371 0130 524B     		ldr	r3, .L29
 372 0132 9A42     		cmp	r2, r3
 373 0134 0FD0     		beq	.L21
 374              		.loc 1 246 0 is_stmt 0 discriminator 1
 375 0136 7A68     		ldr	r2, [r7, #4]
 376 0138 514B     		ldr	r3, .L29+4
 377 013a 9A42     		cmp	r2, r3
 378 013c 0BD0     		beq	.L21
 379 013e 7A68     		ldr	r2, [r7, #4]
 380 0140 504B     		ldr	r3, .L29+8
 381 0142 9A42     		cmp	r2, r3
 382 0144 07D0     		beq	.L21
 383 0146 7A68     		ldr	r2, [r7, #4]
 384 0148 514B     		ldr	r3, .L29+20
 385 014a 9A42     		cmp	r2, r3
 386 014c 03D0     		beq	.L21
 387 014e 5148     		ldr	r0, .L29+24
 388 0150 F621     		movs	r1, #246
 389 0152 FFF7FEFF 		bl	assert_failed
 390              	.L21:
 247:App/STM32F4-Discovery/Libraries/STM32F4xx_StdPeriph_Driver/src/stm32f4xx_usart.c ****   }
 248:App/STM32F4-Discovery/Libraries/STM32F4xx_StdPeriph_Driver/src/stm32f4xx_usart.c **** 
 249:App/STM32F4-Discovery/Libraries/STM32F4xx_StdPeriph_Driver/src/stm32f4xx_usart.c **** /*---------------------------- USART CR2 Configuration -----------------------*/
 250:App/STM32F4-Discovery/Libraries/STM32F4xx_StdPeriph_Driver/src/stm32f4xx_usart.c ****   tmpreg = USARTx->CR2;
 391              		.loc 1 250 0 is_stmt 1
 392 0156 7B68     		ldr	r3, [r7, #4]
 393 0158 1B8A     		ldrh	r3, [r3, #16]	@ movhi
 394 015a 9BB2     		uxth	r3, r3
 395 015c 7B62     		str	r3, [r7, #36]
 251:App/STM32F4-Discovery/Libraries/STM32F4xx_StdPeriph_Driver/src/stm32f4xx_usart.c **** 
 252:App/STM32F4-Discovery/Libraries/STM32F4xx_StdPeriph_Driver/src/stm32f4xx_usart.c ****   /* Clear STOP[13:12] bits */
 253:App/STM32F4-Discovery/Libraries/STM32F4xx_StdPeriph_Driver/src/stm32f4xx_usart.c ****   tmpreg &= (uint32_t)~((uint32_t)USART_CR2_STOP);
 396              		.loc 1 253 0
 397 015e 7B6A     		ldr	r3, [r7, #36]
 398 0160 23F44053 		bic	r3, r3, #12288
 399 0164 7B62     		str	r3, [r7, #36]
 254:App/STM32F4-Discovery/Libraries/STM32F4xx_StdPeriph_Driver/src/stm32f4xx_usart.c **** 
 255:App/STM32F4-Discovery/Libraries/STM32F4xx_StdPeriph_Driver/src/stm32f4xx_usart.c ****   /* Configure the USART Stop Bits, Clock, CPOL, CPHA and LastBit :
 256:App/STM32F4-Discovery/Libraries/STM32F4xx_StdPeriph_Driver/src/stm32f4xx_usart.c ****       Set STOP[13:12] bits according to USART_StopBits value */
 257:App/STM32F4-Discovery/Libraries/STM32F4xx_StdPeriph_Driver/src/stm32f4xx_usart.c ****   tmpreg |= (uint32_t)USART_InitStruct->USART_StopBits;
 400              		.loc 1 257 0
 401 0166 3B68     		ldr	r3, [r7]
 402 0168 DB88     		ldrh	r3, [r3, #6]
 403 016a 7A6A     		ldr	r2, [r7, #36]
 404 016c 1343     		orrs	r3, r3, r2
 405 016e 7B62     		str	r3, [r7, #36]
 258:App/STM32F4-Discovery/Libraries/STM32F4xx_StdPeriph_Driver/src/stm32f4xx_usart.c ****   
 259:App/STM32F4-Discovery/Libraries/STM32F4xx_StdPeriph_Driver/src/stm32f4xx_usart.c ****   /* Write to USART CR2 */
 260:App/STM32F4-Discovery/Libraries/STM32F4xx_StdPeriph_Driver/src/stm32f4xx_usart.c ****   USARTx->CR2 = (uint16_t)tmpreg;
 406              		.loc 1 260 0
 407 0170 7B6A     		ldr	r3, [r7, #36]
 408 0172 9AB2     		uxth	r2, r3
 409 0174 7B68     		ldr	r3, [r7, #4]
 410 0176 1A82     		strh	r2, [r3, #16]	@ movhi
 261:App/STM32F4-Discovery/Libraries/STM32F4xx_StdPeriph_Driver/src/stm32f4xx_usart.c **** 
 262:App/STM32F4-Discovery/Libraries/STM32F4xx_StdPeriph_Driver/src/stm32f4xx_usart.c **** /*---------------------------- USART CR1 Configuration -----------------------*/
 263:App/STM32F4-Discovery/Libraries/STM32F4xx_StdPeriph_Driver/src/stm32f4xx_usart.c ****   tmpreg = USARTx->CR1;
 411              		.loc 1 263 0
 412 0178 7B68     		ldr	r3, [r7, #4]
 413 017a 9B89     		ldrh	r3, [r3, #12]	@ movhi
 414 017c 9BB2     		uxth	r3, r3
 415 017e 7B62     		str	r3, [r7, #36]
 264:App/STM32F4-Discovery/Libraries/STM32F4xx_StdPeriph_Driver/src/stm32f4xx_usart.c **** 
 265:App/STM32F4-Discovery/Libraries/STM32F4xx_StdPeriph_Driver/src/stm32f4xx_usart.c ****   /* Clear M, PCE, PS, TE and RE bits */
 266:App/STM32F4-Discovery/Libraries/STM32F4xx_StdPeriph_Driver/src/stm32f4xx_usart.c ****   tmpreg &= (uint32_t)~((uint32_t)CR1_CLEAR_MASK);
 416              		.loc 1 266 0
 417 0180 7B6A     		ldr	r3, [r7, #36]
 418 0182 23F4B053 		bic	r3, r3, #5632
 419 0186 23F00C03 		bic	r3, r3, #12
 420 018a 7B62     		str	r3, [r7, #36]
 267:App/STM32F4-Discovery/Libraries/STM32F4xx_StdPeriph_Driver/src/stm32f4xx_usart.c **** 
 268:App/STM32F4-Discovery/Libraries/STM32F4xx_StdPeriph_Driver/src/stm32f4xx_usart.c ****   /* Configure the USART Word Length, Parity and mode: 
 269:App/STM32F4-Discovery/Libraries/STM32F4xx_StdPeriph_Driver/src/stm32f4xx_usart.c ****      Set the M bits according to USART_WordLength value 
 270:App/STM32F4-Discovery/Libraries/STM32F4xx_StdPeriph_Driver/src/stm32f4xx_usart.c ****      Set PCE and PS bits according to USART_Parity value
 271:App/STM32F4-Discovery/Libraries/STM32F4xx_StdPeriph_Driver/src/stm32f4xx_usart.c ****      Set TE and RE bits according to USART_Mode value */
 272:App/STM32F4-Discovery/Libraries/STM32F4xx_StdPeriph_Driver/src/stm32f4xx_usart.c ****   tmpreg |= (uint32_t)USART_InitStruct->USART_WordLength | USART_InitStruct->USART_Parity |
 421              		.loc 1 272 0
 422 018c 3B68     		ldr	r3, [r7]
 423 018e 9A88     		ldrh	r2, [r3, #4]
 424 0190 3B68     		ldr	r3, [r7]
 425 0192 1B89     		ldrh	r3, [r3, #8]
 426 0194 1343     		orrs	r3, r3, r2
 427 0196 9AB2     		uxth	r2, r3
 273:App/STM32F4-Discovery/Libraries/STM32F4xx_StdPeriph_Driver/src/stm32f4xx_usart.c ****             USART_InitStruct->USART_Mode;
 428              		.loc 1 273 0
 429 0198 3B68     		ldr	r3, [r7]
 430 019a 5B89     		ldrh	r3, [r3, #10]
 272:App/STM32F4-Discovery/Libraries/STM32F4xx_StdPeriph_Driver/src/stm32f4xx_usart.c ****   tmpreg |= (uint32_t)USART_InitStruct->USART_WordLength | USART_InitStruct->USART_Parity |
 431              		.loc 1 272 0
 432 019c 1343     		orrs	r3, r3, r2
 433 019e 9BB2     		uxth	r3, r3
 434 01a0 7A6A     		ldr	r2, [r7, #36]
 435 01a2 1343     		orrs	r3, r3, r2
 436 01a4 7B62     		str	r3, [r7, #36]
 274:App/STM32F4-Discovery/Libraries/STM32F4xx_StdPeriph_Driver/src/stm32f4xx_usart.c **** 
 275:App/STM32F4-Discovery/Libraries/STM32F4xx_StdPeriph_Driver/src/stm32f4xx_usart.c ****   /* Write to USART CR1 */
 276:App/STM32F4-Discovery/Libraries/STM32F4xx_StdPeriph_Driver/src/stm32f4xx_usart.c ****   USARTx->CR1 = (uint16_t)tmpreg;
 437              		.loc 1 276 0
 438 01a6 7B6A     		ldr	r3, [r7, #36]
 439 01a8 9AB2     		uxth	r2, r3
 440 01aa 7B68     		ldr	r3, [r7, #4]
 441 01ac 9A81     		strh	r2, [r3, #12]	@ movhi
 277:App/STM32F4-Discovery/Libraries/STM32F4xx_StdPeriph_Driver/src/stm32f4xx_usart.c **** 
 278:App/STM32F4-Discovery/Libraries/STM32F4xx_StdPeriph_Driver/src/stm32f4xx_usart.c **** /*---------------------------- USART CR3 Configuration -----------------------*/  
 279:App/STM32F4-Discovery/Libraries/STM32F4xx_StdPeriph_Driver/src/stm32f4xx_usart.c ****   tmpreg = USARTx->CR3;
 442              		.loc 1 279 0
 443 01ae 7B68     		ldr	r3, [r7, #4]
 444 01b0 9B8A     		ldrh	r3, [r3, #20]	@ movhi
 445 01b2 9BB2     		uxth	r3, r3
 446 01b4 7B62     		str	r3, [r7, #36]
 280:App/STM32F4-Discovery/Libraries/STM32F4xx_StdPeriph_Driver/src/stm32f4xx_usart.c **** 
 281:App/STM32F4-Discovery/Libraries/STM32F4xx_StdPeriph_Driver/src/stm32f4xx_usart.c ****   /* Clear CTSE and RTSE bits */
 282:App/STM32F4-Discovery/Libraries/STM32F4xx_StdPeriph_Driver/src/stm32f4xx_usart.c ****   tmpreg &= (uint32_t)~((uint32_t)CR3_CLEAR_MASK);
 447              		.loc 1 282 0
 448 01b6 7B6A     		ldr	r3, [r7, #36]
 449 01b8 23F44073 		bic	r3, r3, #768
 450 01bc 7B62     		str	r3, [r7, #36]
 283:App/STM32F4-Discovery/Libraries/STM32F4xx_StdPeriph_Driver/src/stm32f4xx_usart.c **** 
 284:App/STM32F4-Discovery/Libraries/STM32F4xx_StdPeriph_Driver/src/stm32f4xx_usart.c ****   /* Configure the USART HFC : 
 285:App/STM32F4-Discovery/Libraries/STM32F4xx_StdPeriph_Driver/src/stm32f4xx_usart.c ****       Set CTSE and RTSE bits according to USART_HardwareFlowControl value */
 286:App/STM32F4-Discovery/Libraries/STM32F4xx_StdPeriph_Driver/src/stm32f4xx_usart.c ****   tmpreg |= USART_InitStruct->USART_HardwareFlowControl;
 451              		.loc 1 286 0
 452 01be 3B68     		ldr	r3, [r7]
 453 01c0 9B89     		ldrh	r3, [r3, #12]
 454 01c2 7A6A     		ldr	r2, [r7, #36]
 455 01c4 1343     		orrs	r3, r3, r2
 456 01c6 7B62     		str	r3, [r7, #36]
 287:App/STM32F4-Discovery/Libraries/STM32F4xx_StdPeriph_Driver/src/stm32f4xx_usart.c **** 
 288:App/STM32F4-Discovery/Libraries/STM32F4xx_StdPeriph_Driver/src/stm32f4xx_usart.c ****   /* Write to USART CR3 */
 289:App/STM32F4-Discovery/Libraries/STM32F4xx_StdPeriph_Driver/src/stm32f4xx_usart.c ****   USARTx->CR3 = (uint16_t)tmpreg;
 457              		.loc 1 289 0
 458 01c8 7B6A     		ldr	r3, [r7, #36]
 459 01ca 9AB2     		uxth	r2, r3
 460 01cc 7B68     		ldr	r3, [r7, #4]
 461 01ce 9A82     		strh	r2, [r3, #20]	@ movhi
 290:App/STM32F4-Discovery/Libraries/STM32F4xx_StdPeriph_Driver/src/stm32f4xx_usart.c **** 
 291:App/STM32F4-Discovery/Libraries/STM32F4xx_StdPeriph_Driver/src/stm32f4xx_usart.c **** /*---------------------------- USART BRR Configuration -----------------------*/
 292:App/STM32F4-Discovery/Libraries/STM32F4xx_StdPeriph_Driver/src/stm32f4xx_usart.c ****   /* Configure the USART Baud Rate */
 293:App/STM32F4-Discovery/Libraries/STM32F4xx_StdPeriph_Driver/src/stm32f4xx_usart.c ****   RCC_GetClocksFreq(&RCC_ClocksStatus);
 462              		.loc 1 293 0
 463 01d0 07F10803 		add	r3, r7, #8
 464 01d4 1846     		mov	r0, r3
 465 01d6 FFF7FEFF 		bl	RCC_GetClocksFreq
 294:App/STM32F4-Discovery/Libraries/STM32F4xx_StdPeriph_Driver/src/stm32f4xx_usart.c **** 
 295:App/STM32F4-Discovery/Libraries/STM32F4xx_StdPeriph_Driver/src/stm32f4xx_usart.c ****   if ((USARTx == USART1) || (USARTx == USART6))
 466              		.loc 1 295 0
 467 01da 7A68     		ldr	r2, [r7, #4]
 468 01dc 274B     		ldr	r3, .L29
 469 01de 9A42     		cmp	r2, r3
 470 01e0 03D0     		beq	.L22
 471              		.loc 1 295 0 is_stmt 0 discriminator 1
 472 01e2 7A68     		ldr	r2, [r7, #4]
 473 01e4 2A4B     		ldr	r3, .L29+20
 474 01e6 9A42     		cmp	r2, r3
 475 01e8 02D1     		bne	.L23
 476              	.L22:
 296:App/STM32F4-Discovery/Libraries/STM32F4xx_StdPeriph_Driver/src/stm32f4xx_usart.c ****   {
 297:App/STM32F4-Discovery/Libraries/STM32F4xx_StdPeriph_Driver/src/stm32f4xx_usart.c ****     apbclock = RCC_ClocksStatus.PCLK2_Frequency;
 477              		.loc 1 297 0 is_stmt 1
 478 01ea 7B69     		ldr	r3, [r7, #20]
 479 01ec 3B62     		str	r3, [r7, #32]
 480 01ee 01E0     		b	.L24
 481              	.L23:
 298:App/STM32F4-Discovery/Libraries/STM32F4xx_StdPeriph_Driver/src/stm32f4xx_usart.c ****   }
 299:App/STM32F4-Discovery/Libraries/STM32F4xx_StdPeriph_Driver/src/stm32f4xx_usart.c ****   else
 300:App/STM32F4-Discovery/Libraries/STM32F4xx_StdPeriph_Driver/src/stm32f4xx_usart.c ****   {
 301:App/STM32F4-Discovery/Libraries/STM32F4xx_StdPeriph_Driver/src/stm32f4xx_usart.c ****     apbclock = RCC_ClocksStatus.PCLK1_Frequency;
 482              		.loc 1 301 0
 483 01f0 3B69     		ldr	r3, [r7, #16]
 484 01f2 3B62     		str	r3, [r7, #32]
 485              	.L24:
 302:App/STM32F4-Discovery/Libraries/STM32F4xx_StdPeriph_Driver/src/stm32f4xx_usart.c ****   }
 303:App/STM32F4-Discovery/Libraries/STM32F4xx_StdPeriph_Driver/src/stm32f4xx_usart.c ****   
 304:App/STM32F4-Discovery/Libraries/STM32F4xx_StdPeriph_Driver/src/stm32f4xx_usart.c ****   /* Determine the integer part */
 305:App/STM32F4-Discovery/Libraries/STM32F4xx_StdPeriph_Driver/src/stm32f4xx_usart.c ****   if ((USARTx->CR1 & USART_CR1_OVER8) != 0)
 486              		.loc 1 305 0
 487 01f4 7B68     		ldr	r3, [r7, #4]
 488 01f6 9B89     		ldrh	r3, [r3, #12]	@ movhi
 489 01f8 9BB2     		uxth	r3, r3
 490 01fa 9BB2     		uxth	r3, r3
 491 01fc 1BB2     		sxth	r3, r3
 492 01fe 002B     		cmp	r3, #0
 493 0200 0CDA     		bge	.L25
 306:App/STM32F4-Discovery/Libraries/STM32F4xx_StdPeriph_Driver/src/stm32f4xx_usart.c ****   {
 307:App/STM32F4-Discovery/Libraries/STM32F4xx_StdPeriph_Driver/src/stm32f4xx_usart.c ****     /* Integer part computing in case Oversampling mode is 8 Samples */
 308:App/STM32F4-Discovery/Libraries/STM32F4xx_StdPeriph_Driver/src/stm32f4xx_usart.c ****     integerdivider = ((25 * apbclock) / (2 * (USART_InitStruct->USART_BaudRate)));    
 494              		.loc 1 308 0
 495 0202 3A6A     		ldr	r2, [r7, #32]
 496 0204 1346     		mov	r3, r2
 497 0206 9B00     		lsls	r3, r3, #2
 498 0208 1344     		add	r3, r3, r2
 499 020a 9A00     		lsls	r2, r3, #2
 500 020c 1A44     		add	r2, r2, r3
 501 020e 3B68     		ldr	r3, [r7]
 502 0210 1B68     		ldr	r3, [r3]
 503 0212 5B00     		lsls	r3, r3, #1
 504 0214 B2FBF3F3 		udiv	r3, r2, r3
 505 0218 FB61     		str	r3, [r7, #28]
 506 021a 0BE0     		b	.L26
 507              	.L25:
 309:App/STM32F4-Discovery/Libraries/STM32F4xx_StdPeriph_Driver/src/stm32f4xx_usart.c ****   }
 310:App/STM32F4-Discovery/Libraries/STM32F4xx_StdPeriph_Driver/src/stm32f4xx_usart.c ****   else /* if ((USARTx->CR1 & USART_CR1_OVER8) == 0) */
 311:App/STM32F4-Discovery/Libraries/STM32F4xx_StdPeriph_Driver/src/stm32f4xx_usart.c ****   {
 312:App/STM32F4-Discovery/Libraries/STM32F4xx_StdPeriph_Driver/src/stm32f4xx_usart.c ****     /* Integer part computing in case Oversampling mode is 16 Samples */
 313:App/STM32F4-Discovery/Libraries/STM32F4xx_StdPeriph_Driver/src/stm32f4xx_usart.c ****     integerdivider = ((25 * apbclock) / (4 * (USART_InitStruct->USART_BaudRate)));    
 508              		.loc 1 313 0
 509 021c 3A6A     		ldr	r2, [r7, #32]
 510 021e 1346     		mov	r3, r2
 511 0220 9B00     		lsls	r3, r3, #2
 512 0222 1344     		add	r3, r3, r2
 513 0224 9A00     		lsls	r2, r3, #2
 514 0226 1A44     		add	r2, r2, r3
 515 0228 3B68     		ldr	r3, [r7]
 516 022a 1B68     		ldr	r3, [r3]
 517 022c 9B00     		lsls	r3, r3, #2
 518 022e B2FBF3F3 		udiv	r3, r2, r3
 519 0232 FB61     		str	r3, [r7, #28]
 520              	.L26:
 314:App/STM32F4-Discovery/Libraries/STM32F4xx_StdPeriph_Driver/src/stm32f4xx_usart.c ****   }
 315:App/STM32F4-Discovery/Libraries/STM32F4xx_StdPeriph_Driver/src/stm32f4xx_usart.c ****   tmpreg = (integerdivider / 100) << 4;
 521              		.loc 1 315 0
 522 0234 FA69     		ldr	r2, [r7, #28]
 523 0236 194B     		ldr	r3, .L29+32
 524 0238 A3FB0213 		umull	r1, r3, r3, r2
 525 023c 5B09     		lsrs	r3, r3, #5
 526 023e 1B01     		lsls	r3, r3, #4
 527 0240 7B62     		str	r3, [r7, #36]
 316:App/STM32F4-Discovery/Libraries/STM32F4xx_StdPeriph_Driver/src/stm32f4xx_usart.c **** 
 317:App/STM32F4-Discovery/Libraries/STM32F4xx_StdPeriph_Driver/src/stm32f4xx_usart.c ****   /* Determine the fractional part */
 318:App/STM32F4-Discovery/Libraries/STM32F4xx_StdPeriph_Driver/src/stm32f4xx_usart.c ****   fractionaldivider = integerdivider - (100 * (tmpreg >> 4));
 528              		.loc 1 318 0
 529 0242 7B6A     		ldr	r3, [r7, #36]
 530 0244 1B09     		lsrs	r3, r3, #4
 531 0246 6422     		movs	r2, #100
 532 0248 02FB03F3 		mul	r3, r2, r3
 533 024c FA69     		ldr	r2, [r7, #28]
 534 024e D31A     		subs	r3, r2, r3
 535 0250 BB61     		str	r3, [r7, #24]
 319:App/STM32F4-Discovery/Libraries/STM32F4xx_StdPeriph_Driver/src/stm32f4xx_usart.c **** 
 320:App/STM32F4-Discovery/Libraries/STM32F4xx_StdPeriph_Driver/src/stm32f4xx_usart.c ****   /* Implement the fractional part in the register */
 321:App/STM32F4-Discovery/Libraries/STM32F4xx_StdPeriph_Driver/src/stm32f4xx_usart.c ****   if ((USARTx->CR1 & USART_CR1_OVER8) != 0)
 536              		.loc 1 321 0
 537 0252 7B68     		ldr	r3, [r7, #4]
 538 0254 9B89     		ldrh	r3, [r3, #12]	@ movhi
 539 0256 9BB2     		uxth	r3, r3
 540 0258 9BB2     		uxth	r3, r3
 541 025a 1BB2     		sxth	r3, r3
 542 025c 002B     		cmp	r3, #0
 543 025e 1FDA     		bge	.L27
 322:App/STM32F4-Discovery/Libraries/STM32F4xx_StdPeriph_Driver/src/stm32f4xx_usart.c ****   {
 323:App/STM32F4-Discovery/Libraries/STM32F4xx_StdPeriph_Driver/src/stm32f4xx_usart.c ****     tmpreg |= ((((fractionaldivider * 8) + 50) / 100)) & ((uint8_t)0x07);
 544              		.loc 1 323 0
 545 0260 BB69     		ldr	r3, [r7, #24]
 546 0262 DB00     		lsls	r3, r3, #3
 547 0264 03F13202 		add	r2, r3, #50
 548 0268 0C4B     		ldr	r3, .L29+32
 549 026a A3FB0213 		umull	r1, r3, r3, r2
 550 026e 5B09     		lsrs	r3, r3, #5
 551 0270 03F00703 		and	r3, r3, #7
 552 0274 7A6A     		ldr	r2, [r7, #36]
 553 0276 1343     		orrs	r3, r3, r2
 554 0278 7B62     		str	r3, [r7, #36]
 555 027a 1EE0     		b	.L28
 556              	.L30:
 557              		.align	2
 558              	.L29:
 559 027c 00100140 		.word	1073811456
 560 0280 00440040 		.word	1073759232
 561 0284 00480040 		.word	1073760256
 562 0288 004C0040 		.word	1073761280
 563 028c 00500040 		.word	1073762304
 564 0290 00140140 		.word	1073812480
 565 0294 00000000 		.word	.LC0
 566 0298 E0707200 		.word	7500000
 567 029c 1F85EB51 		.word	1374389535
 568              	.L27:
 324:App/STM32F4-Discovery/Libraries/STM32F4xx_StdPeriph_Driver/src/stm32f4xx_usart.c ****   }
 325:App/STM32F4-Discovery/Libraries/STM32F4xx_StdPeriph_Driver/src/stm32f4xx_usart.c ****   else /* if ((USARTx->CR1 & USART_CR1_OVER8) == 0) */
 326:App/STM32F4-Discovery/Libraries/STM32F4xx_StdPeriph_Driver/src/stm32f4xx_usart.c ****   {
 327:App/STM32F4-Discovery/Libraries/STM32F4xx_StdPeriph_Driver/src/stm32f4xx_usart.c ****     tmpreg |= ((((fractionaldivider * 16) + 50) / 100)) & ((uint8_t)0x0F);
 569              		.loc 1 327 0
 570 02a0 BB69     		ldr	r3, [r7, #24]
 571 02a2 1B01     		lsls	r3, r3, #4
 572 02a4 03F13202 		add	r2, r3, #50
 573 02a8 074B     		ldr	r3, .L31
 574 02aa A3FB0213 		umull	r1, r3, r3, r2
 575 02ae 5B09     		lsrs	r3, r3, #5
 576 02b0 03F00F03 		and	r3, r3, #15
 577 02b4 7A6A     		ldr	r2, [r7, #36]
 578 02b6 1343     		orrs	r3, r3, r2
 579 02b8 7B62     		str	r3, [r7, #36]
 580              	.L28:
 328:App/STM32F4-Discovery/Libraries/STM32F4xx_StdPeriph_Driver/src/stm32f4xx_usart.c ****   }
 329:App/STM32F4-Discovery/Libraries/STM32F4xx_StdPeriph_Driver/src/stm32f4xx_usart.c ****   
 330:App/STM32F4-Discovery/Libraries/STM32F4xx_StdPeriph_Driver/src/stm32f4xx_usart.c ****   /* Write to USART BRR register */
 331:App/STM32F4-Discovery/Libraries/STM32F4xx_StdPeriph_Driver/src/stm32f4xx_usart.c ****   USARTx->BRR = (uint16_t)tmpreg;
 581              		.loc 1 331 0
 582 02ba 7B6A     		ldr	r3, [r7, #36]
 583 02bc 9AB2     		uxth	r2, r3
 584 02be 7B68     		ldr	r3, [r7, #4]
 585 02c0 1A81     		strh	r2, [r3, #8]	@ movhi
 332:App/STM32F4-Discovery/Libraries/STM32F4xx_StdPeriph_Driver/src/stm32f4xx_usart.c **** }
 586              		.loc 1 332 0
 587 02c2 2837     		adds	r7, r7, #40
 588 02c4 BD46     		mov	sp, r7
 589              		@ sp needed
 590 02c6 80BD     		pop	{r7, pc}
 591              	.L32:
 592              		.align	2
 593              	.L31:
 594 02c8 1F85EB51 		.word	1374389535
 595              		.cfi_endproc
 596              	.LFE111:
 598              		.section	.text.USART_StructInit,"ax",%progbits
 599              		.align	2
 600              		.global	USART_StructInit
 601              		.thumb
 602              		.thumb_func
 604              	USART_StructInit:
 605              	.LFB112:
 333:App/STM32F4-Discovery/Libraries/STM32F4xx_StdPeriph_Driver/src/stm32f4xx_usart.c **** 
 334:App/STM32F4-Discovery/Libraries/STM32F4xx_StdPeriph_Driver/src/stm32f4xx_usart.c **** /**
 335:App/STM32F4-Discovery/Libraries/STM32F4xx_StdPeriph_Driver/src/stm32f4xx_usart.c ****   * @brief  Fills each USART_InitStruct member with its default value.
 336:App/STM32F4-Discovery/Libraries/STM32F4xx_StdPeriph_Driver/src/stm32f4xx_usart.c ****   * @param  USART_InitStruct: pointer to a USART_InitTypeDef structure which will
 337:App/STM32F4-Discovery/Libraries/STM32F4xx_StdPeriph_Driver/src/stm32f4xx_usart.c ****   *         be initialized.
 338:App/STM32F4-Discovery/Libraries/STM32F4xx_StdPeriph_Driver/src/stm32f4xx_usart.c ****   * @retval None
 339:App/STM32F4-Discovery/Libraries/STM32F4xx_StdPeriph_Driver/src/stm32f4xx_usart.c ****   */
 340:App/STM32F4-Discovery/Libraries/STM32F4xx_StdPeriph_Driver/src/stm32f4xx_usart.c **** void USART_StructInit(USART_InitTypeDef* USART_InitStruct)
 341:App/STM32F4-Discovery/Libraries/STM32F4xx_StdPeriph_Driver/src/stm32f4xx_usart.c **** {
 606              		.loc 1 341 0
 607              		.cfi_startproc
 608              		@ args = 0, pretend = 0, frame = 8
 609              		@ frame_needed = 1, uses_anonymous_args = 0
 610              		@ link register save eliminated.
 611 0000 80B4     		push	{r7}
 612              	.LCFI6:
 613              		.cfi_def_cfa_offset 4
 614              		.cfi_offset 7, -4
 615 0002 83B0     		sub	sp, sp, #12
 616              	.LCFI7:
 617              		.cfi_def_cfa_offset 16
 618 0004 00AF     		add	r7, sp, #0
 619              	.LCFI8:
 620              		.cfi_def_cfa_register 7
 621 0006 7860     		str	r0, [r7, #4]
 342:App/STM32F4-Discovery/Libraries/STM32F4xx_StdPeriph_Driver/src/stm32f4xx_usart.c ****   /* USART_InitStruct members default value */
 343:App/STM32F4-Discovery/Libraries/STM32F4xx_StdPeriph_Driver/src/stm32f4xx_usart.c ****   USART_InitStruct->USART_BaudRate = 9600;
 622              		.loc 1 343 0
 623 0008 7B68     		ldr	r3, [r7, #4]
 624 000a 4FF41652 		mov	r2, #9600
 625 000e 1A60     		str	r2, [r3]
 344:App/STM32F4-Discovery/Libraries/STM32F4xx_StdPeriph_Driver/src/stm32f4xx_usart.c ****   USART_InitStruct->USART_WordLength = USART_WordLength_8b;
 626              		.loc 1 344 0
 627 0010 7B68     		ldr	r3, [r7, #4]
 628 0012 0022     		movs	r2, #0
 629 0014 9A80     		strh	r2, [r3, #4]	@ movhi
 345:App/STM32F4-Discovery/Libraries/STM32F4xx_StdPeriph_Driver/src/stm32f4xx_usart.c ****   USART_InitStruct->USART_StopBits = USART_StopBits_1;
 630              		.loc 1 345 0
 631 0016 7B68     		ldr	r3, [r7, #4]
 632 0018 0022     		movs	r2, #0
 633 001a DA80     		strh	r2, [r3, #6]	@ movhi
 346:App/STM32F4-Discovery/Libraries/STM32F4xx_StdPeriph_Driver/src/stm32f4xx_usart.c ****   USART_InitStruct->USART_Parity = USART_Parity_No ;
 634              		.loc 1 346 0
 635 001c 7B68     		ldr	r3, [r7, #4]
 636 001e 0022     		movs	r2, #0
 637 0020 1A81     		strh	r2, [r3, #8]	@ movhi
 347:App/STM32F4-Discovery/Libraries/STM32F4xx_StdPeriph_Driver/src/stm32f4xx_usart.c ****   USART_InitStruct->USART_Mode = USART_Mode_Rx | USART_Mode_Tx;
 638              		.loc 1 347 0
 639 0022 7B68     		ldr	r3, [r7, #4]
 640 0024 0C22     		movs	r2, #12
 641 0026 5A81     		strh	r2, [r3, #10]	@ movhi
 348:App/STM32F4-Discovery/Libraries/STM32F4xx_StdPeriph_Driver/src/stm32f4xx_usart.c ****   USART_InitStruct->USART_HardwareFlowControl = USART_HardwareFlowControl_None;  
 642              		.loc 1 348 0
 643 0028 7B68     		ldr	r3, [r7, #4]
 644 002a 0022     		movs	r2, #0
 645 002c 9A81     		strh	r2, [r3, #12]	@ movhi
 349:App/STM32F4-Discovery/Libraries/STM32F4xx_StdPeriph_Driver/src/stm32f4xx_usart.c **** }
 646              		.loc 1 349 0
 647 002e 0C37     		adds	r7, r7, #12
 648 0030 BD46     		mov	sp, r7
 649              		@ sp needed
 650 0032 5DF8047B 		ldr	r7, [sp], #4
 651 0036 7047     		bx	lr
 652              		.cfi_endproc
 653              	.LFE112:
 655              		.section	.text.USART_ClockInit,"ax",%progbits
 656              		.align	2
 657              		.global	USART_ClockInit
 658              		.thumb
 659              		.thumb_func
 661              	USART_ClockInit:
 662              	.LFB113:
 350:App/STM32F4-Discovery/Libraries/STM32F4xx_StdPeriph_Driver/src/stm32f4xx_usart.c **** 
 351:App/STM32F4-Discovery/Libraries/STM32F4xx_StdPeriph_Driver/src/stm32f4xx_usart.c **** /**
 352:App/STM32F4-Discovery/Libraries/STM32F4xx_StdPeriph_Driver/src/stm32f4xx_usart.c ****   * @brief  Initializes the USARTx peripheral Clock according to the 
 353:App/STM32F4-Discovery/Libraries/STM32F4xx_StdPeriph_Driver/src/stm32f4xx_usart.c ****   *         specified parameters in the USART_ClockInitStruct .
 354:App/STM32F4-Discovery/Libraries/STM32F4xx_StdPeriph_Driver/src/stm32f4xx_usart.c ****   * @param  USARTx: where x can be 1, 2, 3 or 6 to select the USART peripheral.
 355:App/STM32F4-Discovery/Libraries/STM32F4xx_StdPeriph_Driver/src/stm32f4xx_usart.c ****   * @param  USART_ClockInitStruct: pointer to a USART_ClockInitTypeDef structure that
 356:App/STM32F4-Discovery/Libraries/STM32F4xx_StdPeriph_Driver/src/stm32f4xx_usart.c ****   *         contains the configuration information for the specified  USART peripheral.
 357:App/STM32F4-Discovery/Libraries/STM32F4xx_StdPeriph_Driver/src/stm32f4xx_usart.c ****   * @note   The Smart Card and Synchronous modes are not available for UART4 and UART5.    
 358:App/STM32F4-Discovery/Libraries/STM32F4xx_StdPeriph_Driver/src/stm32f4xx_usart.c ****   * @retval None
 359:App/STM32F4-Discovery/Libraries/STM32F4xx_StdPeriph_Driver/src/stm32f4xx_usart.c ****   */
 360:App/STM32F4-Discovery/Libraries/STM32F4xx_StdPeriph_Driver/src/stm32f4xx_usart.c **** void USART_ClockInit(USART_TypeDef* USARTx, USART_ClockInitTypeDef* USART_ClockInitStruct)
 361:App/STM32F4-Discovery/Libraries/STM32F4xx_StdPeriph_Driver/src/stm32f4xx_usart.c **** {
 663              		.loc 1 361 0
 664              		.cfi_startproc
 665              		@ args = 0, pretend = 0, frame = 16
 666              		@ frame_needed = 1, uses_anonymous_args = 0
 667 0000 80B5     		push	{r7, lr}
 668              	.LCFI9:
 669              		.cfi_def_cfa_offset 8
 670              		.cfi_offset 7, -8
 671              		.cfi_offset 14, -4
 672 0002 84B0     		sub	sp, sp, #16
 673              	.LCFI10:
 674              		.cfi_def_cfa_offset 24
 675 0004 00AF     		add	r7, sp, #0
 676              	.LCFI11:
 677              		.cfi_def_cfa_register 7
 678 0006 7860     		str	r0, [r7, #4]
 679 0008 3960     		str	r1, [r7]
 362:App/STM32F4-Discovery/Libraries/STM32F4xx_StdPeriph_Driver/src/stm32f4xx_usart.c ****   uint32_t tmpreg = 0x00;
 680              		.loc 1 362 0
 681 000a 0023     		movs	r3, #0
 682 000c FB60     		str	r3, [r7, #12]
 363:App/STM32F4-Discovery/Libraries/STM32F4xx_StdPeriph_Driver/src/stm32f4xx_usart.c ****   /* Check the parameters */
 364:App/STM32F4-Discovery/Libraries/STM32F4xx_StdPeriph_Driver/src/stm32f4xx_usart.c ****   assert_param(IS_USART_1236_PERIPH(USARTx));
 683              		.loc 1 364 0
 684 000e 7A68     		ldr	r2, [r7, #4]
 685 0010 354B     		ldr	r3, .L40
 686 0012 9A42     		cmp	r2, r3
 687 0014 10D0     		beq	.L35
 688              		.loc 1 364 0 is_stmt 0 discriminator 1
 689 0016 7A68     		ldr	r2, [r7, #4]
 690 0018 344B     		ldr	r3, .L40+4
 691 001a 9A42     		cmp	r2, r3
 692 001c 0CD0     		beq	.L35
 693 001e 7A68     		ldr	r2, [r7, #4]
 694 0020 334B     		ldr	r3, .L40+8
 695 0022 9A42     		cmp	r2, r3
 696 0024 08D0     		beq	.L35
 697 0026 7A68     		ldr	r2, [r7, #4]
 698 0028 324B     		ldr	r3, .L40+12
 699 002a 9A42     		cmp	r2, r3
 700 002c 04D0     		beq	.L35
 701 002e 3248     		ldr	r0, .L40+16
 702 0030 4FF4B671 		mov	r1, #364
 703 0034 FFF7FEFF 		bl	assert_failed
 704              	.L35:
 365:App/STM32F4-Discovery/Libraries/STM32F4xx_StdPeriph_Driver/src/stm32f4xx_usart.c ****   assert_param(IS_USART_CLOCK(USART_ClockInitStruct->USART_Clock));
 705              		.loc 1 365 0 is_stmt 1
 706 0038 3B68     		ldr	r3, [r7]
 707 003a 1B88     		ldrh	r3, [r3]
 708 003c 002B     		cmp	r3, #0
 709 003e 09D0     		beq	.L36
 710              		.loc 1 365 0 is_stmt 0 discriminator 1
 711 0040 3B68     		ldr	r3, [r7]
 712 0042 1B88     		ldrh	r3, [r3]
 713 0044 B3F5006F 		cmp	r3, #2048
 714 0048 04D0     		beq	.L36
 715 004a 2B48     		ldr	r0, .L40+16
 716 004c 40F26D11 		movw	r1, #365
 717 0050 FFF7FEFF 		bl	assert_failed
 718              	.L36:
 366:App/STM32F4-Discovery/Libraries/STM32F4xx_StdPeriph_Driver/src/stm32f4xx_usart.c ****   assert_param(IS_USART_CPOL(USART_ClockInitStruct->USART_CPOL));
 719              		.loc 1 366 0 is_stmt 1
 720 0054 3B68     		ldr	r3, [r7]
 721 0056 5B88     		ldrh	r3, [r3, #2]
 722 0058 002B     		cmp	r3, #0
 723 005a 09D0     		beq	.L37
 724              		.loc 1 366 0 is_stmt 0 discriminator 1
 725 005c 3B68     		ldr	r3, [r7]
 726 005e 5B88     		ldrh	r3, [r3, #2]
 727 0060 B3F5806F 		cmp	r3, #1024
 728 0064 04D0     		beq	.L37
 729 0066 2448     		ldr	r0, .L40+16
 730 0068 4FF4B771 		mov	r1, #366
 731 006c FFF7FEFF 		bl	assert_failed
 732              	.L37:
 367:App/STM32F4-Discovery/Libraries/STM32F4xx_StdPeriph_Driver/src/stm32f4xx_usart.c ****   assert_param(IS_USART_CPHA(USART_ClockInitStruct->USART_CPHA));
 733              		.loc 1 367 0 is_stmt 1
 734 0070 3B68     		ldr	r3, [r7]
 735 0072 9B88     		ldrh	r3, [r3, #4]
 736 0074 002B     		cmp	r3, #0
 737 0076 09D0     		beq	.L38
 738              		.loc 1 367 0 is_stmt 0 discriminator 1
 739 0078 3B68     		ldr	r3, [r7]
 740 007a 9B88     		ldrh	r3, [r3, #4]
 741 007c B3F5007F 		cmp	r3, #512
 742 0080 04D0     		beq	.L38
 743 0082 1D48     		ldr	r0, .L40+16
 744 0084 40F26F11 		movw	r1, #367
 745 0088 FFF7FEFF 		bl	assert_failed
 746              	.L38:
 368:App/STM32F4-Discovery/Libraries/STM32F4xx_StdPeriph_Driver/src/stm32f4xx_usart.c ****   assert_param(IS_USART_LASTBIT(USART_ClockInitStruct->USART_LastBit));
 747              		.loc 1 368 0 is_stmt 1
 748 008c 3B68     		ldr	r3, [r7]
 749 008e DB88     		ldrh	r3, [r3, #6]
 750 0090 002B     		cmp	r3, #0
 751 0092 09D0     		beq	.L39
 752              		.loc 1 368 0 is_stmt 0 discriminator 1
 753 0094 3B68     		ldr	r3, [r7]
 754 0096 DB88     		ldrh	r3, [r3, #6]
 755 0098 B3F5807F 		cmp	r3, #256
 756 009c 04D0     		beq	.L39
 757 009e 1648     		ldr	r0, .L40+16
 758 00a0 4FF4B871 		mov	r1, #368
 759 00a4 FFF7FEFF 		bl	assert_failed
 760              	.L39:
 369:App/STM32F4-Discovery/Libraries/STM32F4xx_StdPeriph_Driver/src/stm32f4xx_usart.c ****   
 370:App/STM32F4-Discovery/Libraries/STM32F4xx_StdPeriph_Driver/src/stm32f4xx_usart.c **** /*---------------------------- USART CR2 Configuration -----------------------*/
 371:App/STM32F4-Discovery/Libraries/STM32F4xx_StdPeriph_Driver/src/stm32f4xx_usart.c ****   tmpreg = USARTx->CR2;
 761              		.loc 1 371 0 is_stmt 1
 762 00a8 7B68     		ldr	r3, [r7, #4]
 763 00aa 1B8A     		ldrh	r3, [r3, #16]	@ movhi
 764 00ac 9BB2     		uxth	r3, r3
 765 00ae FB60     		str	r3, [r7, #12]
 372:App/STM32F4-Discovery/Libraries/STM32F4xx_StdPeriph_Driver/src/stm32f4xx_usart.c ****   /* Clear CLKEN, CPOL, CPHA and LBCL bits */
 373:App/STM32F4-Discovery/Libraries/STM32F4xx_StdPeriph_Driver/src/stm32f4xx_usart.c ****   tmpreg &= (uint32_t)~((uint32_t)CR2_CLOCK_CLEAR_MASK);
 766              		.loc 1 373 0
 767 00b0 FB68     		ldr	r3, [r7, #12]
 768 00b2 23F47063 		bic	r3, r3, #3840
 769 00b6 FB60     		str	r3, [r7, #12]
 374:App/STM32F4-Discovery/Libraries/STM32F4xx_StdPeriph_Driver/src/stm32f4xx_usart.c ****   /* Configure the USART Clock, CPOL, CPHA and LastBit ------------*/
 375:App/STM32F4-Discovery/Libraries/STM32F4xx_StdPeriph_Driver/src/stm32f4xx_usart.c ****   /* Set CLKEN bit according to USART_Clock value */
 376:App/STM32F4-Discovery/Libraries/STM32F4xx_StdPeriph_Driver/src/stm32f4xx_usart.c ****   /* Set CPOL bit according to USART_CPOL value */
 377:App/STM32F4-Discovery/Libraries/STM32F4xx_StdPeriph_Driver/src/stm32f4xx_usart.c ****   /* Set CPHA bit according to USART_CPHA value */
 378:App/STM32F4-Discovery/Libraries/STM32F4xx_StdPeriph_Driver/src/stm32f4xx_usart.c ****   /* Set LBCL bit according to USART_LastBit value */
 379:App/STM32F4-Discovery/Libraries/STM32F4xx_StdPeriph_Driver/src/stm32f4xx_usart.c ****   tmpreg |= (uint32_t)USART_ClockInitStruct->USART_Clock | USART_ClockInitStruct->USART_CPOL | 
 770              		.loc 1 379 0
 771 00b8 3B68     		ldr	r3, [r7]
 772 00ba 1A88     		ldrh	r2, [r3]
 773 00bc 3B68     		ldr	r3, [r7]
 774 00be 5B88     		ldrh	r3, [r3, #2]
 380:App/STM32F4-Discovery/Libraries/STM32F4xx_StdPeriph_Driver/src/stm32f4xx_usart.c ****                  USART_ClockInitStruct->USART_CPHA | USART_ClockInitStruct->USART_LastBit;
 775              		.loc 1 380 0
 776 00c0 1343     		orrs	r3, r3, r2
 777 00c2 9AB2     		uxth	r2, r3
 778 00c4 3B68     		ldr	r3, [r7]
 779 00c6 9B88     		ldrh	r3, [r3, #4]
 780 00c8 1343     		orrs	r3, r3, r2
 781 00ca 9AB2     		uxth	r2, r3
 782 00cc 3B68     		ldr	r3, [r7]
 783 00ce DB88     		ldrh	r3, [r3, #6]
 784 00d0 1343     		orrs	r3, r3, r2
 785 00d2 9BB2     		uxth	r3, r3
 379:App/STM32F4-Discovery/Libraries/STM32F4xx_StdPeriph_Driver/src/stm32f4xx_usart.c ****   tmpreg |= (uint32_t)USART_ClockInitStruct->USART_Clock | USART_ClockInitStruct->USART_CPOL | 
 786              		.loc 1 379 0
 787 00d4 FA68     		ldr	r2, [r7, #12]
 788 00d6 1343     		orrs	r3, r3, r2
 789 00d8 FB60     		str	r3, [r7, #12]
 381:App/STM32F4-Discovery/Libraries/STM32F4xx_StdPeriph_Driver/src/stm32f4xx_usart.c ****   /* Write to USART CR2 */
 382:App/STM32F4-Discovery/Libraries/STM32F4xx_StdPeriph_Driver/src/stm32f4xx_usart.c ****   USARTx->CR2 = (uint16_t)tmpreg;
 790              		.loc 1 382 0
 791 00da FB68     		ldr	r3, [r7, #12]
 792 00dc 9AB2     		uxth	r2, r3
 793 00de 7B68     		ldr	r3, [r7, #4]
 794 00e0 1A82     		strh	r2, [r3, #16]	@ movhi
 383:App/STM32F4-Discovery/Libraries/STM32F4xx_StdPeriph_Driver/src/stm32f4xx_usart.c **** }
 795              		.loc 1 383 0
 796 00e2 1037     		adds	r7, r7, #16
 797 00e4 BD46     		mov	sp, r7
 798              		@ sp needed
 799 00e6 80BD     		pop	{r7, pc}
 800              	.L41:
 801              		.align	2
 802              	.L40:
 803 00e8 00100140 		.word	1073811456
 804 00ec 00440040 		.word	1073759232
 805 00f0 00480040 		.word	1073760256
 806 00f4 00140140 		.word	1073812480
 807 00f8 00000000 		.word	.LC0
 808              		.cfi_endproc
 809              	.LFE113:
 811              		.section	.text.USART_ClockStructInit,"ax",%progbits
 812              		.align	2
 813              		.global	USART_ClockStructInit
 814              		.thumb
 815              		.thumb_func
 817              	USART_ClockStructInit:
 818              	.LFB114:
 384:App/STM32F4-Discovery/Libraries/STM32F4xx_StdPeriph_Driver/src/stm32f4xx_usart.c **** 
 385:App/STM32F4-Discovery/Libraries/STM32F4xx_StdPeriph_Driver/src/stm32f4xx_usart.c **** /**
 386:App/STM32F4-Discovery/Libraries/STM32F4xx_StdPeriph_Driver/src/stm32f4xx_usart.c ****   * @brief  Fills each USART_ClockInitStruct member with its default value.
 387:App/STM32F4-Discovery/Libraries/STM32F4xx_StdPeriph_Driver/src/stm32f4xx_usart.c ****   * @param  USART_ClockInitStruct: pointer to a USART_ClockInitTypeDef structure
 388:App/STM32F4-Discovery/Libraries/STM32F4xx_StdPeriph_Driver/src/stm32f4xx_usart.c ****   *         which will be initialized.
 389:App/STM32F4-Discovery/Libraries/STM32F4xx_StdPeriph_Driver/src/stm32f4xx_usart.c ****   * @retval None
 390:App/STM32F4-Discovery/Libraries/STM32F4xx_StdPeriph_Driver/src/stm32f4xx_usart.c ****   */
 391:App/STM32F4-Discovery/Libraries/STM32F4xx_StdPeriph_Driver/src/stm32f4xx_usart.c **** void USART_ClockStructInit(USART_ClockInitTypeDef* USART_ClockInitStruct)
 392:App/STM32F4-Discovery/Libraries/STM32F4xx_StdPeriph_Driver/src/stm32f4xx_usart.c **** {
 819              		.loc 1 392 0
 820              		.cfi_startproc
 821              		@ args = 0, pretend = 0, frame = 8
 822              		@ frame_needed = 1, uses_anonymous_args = 0
 823              		@ link register save eliminated.
 824 0000 80B4     		push	{r7}
 825              	.LCFI12:
 826              		.cfi_def_cfa_offset 4
 827              		.cfi_offset 7, -4
 828 0002 83B0     		sub	sp, sp, #12
 829              	.LCFI13:
 830              		.cfi_def_cfa_offset 16
 831 0004 00AF     		add	r7, sp, #0
 832              	.LCFI14:
 833              		.cfi_def_cfa_register 7
 834 0006 7860     		str	r0, [r7, #4]
 393:App/STM32F4-Discovery/Libraries/STM32F4xx_StdPeriph_Driver/src/stm32f4xx_usart.c ****   /* USART_ClockInitStruct members default value */
 394:App/STM32F4-Discovery/Libraries/STM32F4xx_StdPeriph_Driver/src/stm32f4xx_usart.c ****   USART_ClockInitStruct->USART_Clock = USART_Clock_Disable;
 835              		.loc 1 394 0
 836 0008 7B68     		ldr	r3, [r7, #4]
 837 000a 0022     		movs	r2, #0
 838 000c 1A80     		strh	r2, [r3]	@ movhi
 395:App/STM32F4-Discovery/Libraries/STM32F4xx_StdPeriph_Driver/src/stm32f4xx_usart.c ****   USART_ClockInitStruct->USART_CPOL = USART_CPOL_Low;
 839              		.loc 1 395 0
 840 000e 7B68     		ldr	r3, [r7, #4]
 841 0010 0022     		movs	r2, #0
 842 0012 5A80     		strh	r2, [r3, #2]	@ movhi
 396:App/STM32F4-Discovery/Libraries/STM32F4xx_StdPeriph_Driver/src/stm32f4xx_usart.c ****   USART_ClockInitStruct->USART_CPHA = USART_CPHA_1Edge;
 843              		.loc 1 396 0
 844 0014 7B68     		ldr	r3, [r7, #4]
 845 0016 0022     		movs	r2, #0
 846 0018 9A80     		strh	r2, [r3, #4]	@ movhi
 397:App/STM32F4-Discovery/Libraries/STM32F4xx_StdPeriph_Driver/src/stm32f4xx_usart.c ****   USART_ClockInitStruct->USART_LastBit = USART_LastBit_Disable;
 847              		.loc 1 397 0
 848 001a 7B68     		ldr	r3, [r7, #4]
 849 001c 0022     		movs	r2, #0
 850 001e DA80     		strh	r2, [r3, #6]	@ movhi
 398:App/STM32F4-Discovery/Libraries/STM32F4xx_StdPeriph_Driver/src/stm32f4xx_usart.c **** }
 851              		.loc 1 398 0
 852 0020 0C37     		adds	r7, r7, #12
 853 0022 BD46     		mov	sp, r7
 854              		@ sp needed
 855 0024 5DF8047B 		ldr	r7, [sp], #4
 856 0028 7047     		bx	lr
 857              		.cfi_endproc
 858              	.LFE114:
 860 002a 00BF     		.section	.text.USART_Cmd,"ax",%progbits
 861              		.align	2
 862              		.global	USART_Cmd
 863              		.thumb
 864              		.thumb_func
 866              	USART_Cmd:
 867              	.LFB115:
 399:App/STM32F4-Discovery/Libraries/STM32F4xx_StdPeriph_Driver/src/stm32f4xx_usart.c **** 
 400:App/STM32F4-Discovery/Libraries/STM32F4xx_StdPeriph_Driver/src/stm32f4xx_usart.c **** /**
 401:App/STM32F4-Discovery/Libraries/STM32F4xx_StdPeriph_Driver/src/stm32f4xx_usart.c ****   * @brief  Enables or disables the specified USART peripheral.
 402:App/STM32F4-Discovery/Libraries/STM32F4xx_StdPeriph_Driver/src/stm32f4xx_usart.c ****   * @param  USARTx: where x can be 1, 2, 3, 4, 5 or 6 to select the USART or 
 403:App/STM32F4-Discovery/Libraries/STM32F4xx_StdPeriph_Driver/src/stm32f4xx_usart.c ****   *         UART peripheral.
 404:App/STM32F4-Discovery/Libraries/STM32F4xx_StdPeriph_Driver/src/stm32f4xx_usart.c ****   * @param  NewState: new state of the USARTx peripheral.
 405:App/STM32F4-Discovery/Libraries/STM32F4xx_StdPeriph_Driver/src/stm32f4xx_usart.c ****   *          This parameter can be: ENABLE or DISABLE.
 406:App/STM32F4-Discovery/Libraries/STM32F4xx_StdPeriph_Driver/src/stm32f4xx_usart.c ****   * @retval None
 407:App/STM32F4-Discovery/Libraries/STM32F4xx_StdPeriph_Driver/src/stm32f4xx_usart.c ****   */
 408:App/STM32F4-Discovery/Libraries/STM32F4xx_StdPeriph_Driver/src/stm32f4xx_usart.c **** void USART_Cmd(USART_TypeDef* USARTx, FunctionalState NewState)
 409:App/STM32F4-Discovery/Libraries/STM32F4xx_StdPeriph_Driver/src/stm32f4xx_usart.c **** {
 868              		.loc 1 409 0
 869              		.cfi_startproc
 870              		@ args = 0, pretend = 0, frame = 8
 871              		@ frame_needed = 1, uses_anonymous_args = 0
 872 0000 80B5     		push	{r7, lr}
 873              	.LCFI15:
 874              		.cfi_def_cfa_offset 8
 875              		.cfi_offset 7, -8
 876              		.cfi_offset 14, -4
 877 0002 82B0     		sub	sp, sp, #8
 878              	.LCFI16:
 879              		.cfi_def_cfa_offset 16
 880 0004 00AF     		add	r7, sp, #0
 881              	.LCFI17:
 882              		.cfi_def_cfa_register 7
 883 0006 7860     		str	r0, [r7, #4]
 884 0008 0B46     		mov	r3, r1
 885 000a FB70     		strb	r3, [r7, #3]
 410:App/STM32F4-Discovery/Libraries/STM32F4xx_StdPeriph_Driver/src/stm32f4xx_usart.c ****   /* Check the parameters */
 411:App/STM32F4-Discovery/Libraries/STM32F4xx_StdPeriph_Driver/src/stm32f4xx_usart.c ****   assert_param(IS_USART_ALL_PERIPH(USARTx));
 886              		.loc 1 411 0
 887 000c 7A68     		ldr	r2, [r7, #4]
 888 000e 1F4B     		ldr	r3, .L48
 889 0010 9A42     		cmp	r2, r3
 890 0012 18D0     		beq	.L44
 891              		.loc 1 411 0 is_stmt 0 discriminator 1
 892 0014 7A68     		ldr	r2, [r7, #4]
 893 0016 1E4B     		ldr	r3, .L48+4
 894 0018 9A42     		cmp	r2, r3
 895 001a 14D0     		beq	.L44
 896 001c 7A68     		ldr	r2, [r7, #4]
 897 001e 1D4B     		ldr	r3, .L48+8
 898 0020 9A42     		cmp	r2, r3
 899 0022 10D0     		beq	.L44
 900 0024 7A68     		ldr	r2, [r7, #4]
 901 0026 1C4B     		ldr	r3, .L48+12
 902 0028 9A42     		cmp	r2, r3
 903 002a 0CD0     		beq	.L44
 904 002c 7A68     		ldr	r2, [r7, #4]
 905 002e 1B4B     		ldr	r3, .L48+16
 906 0030 9A42     		cmp	r2, r3
 907 0032 08D0     		beq	.L44
 908 0034 7A68     		ldr	r2, [r7, #4]
 909 0036 1A4B     		ldr	r3, .L48+20
 910 0038 9A42     		cmp	r2, r3
 911 003a 04D0     		beq	.L44
 912 003c 1948     		ldr	r0, .L48+24
 913 003e 40F29B11 		movw	r1, #411
 914 0042 FFF7FEFF 		bl	assert_failed
 915              	.L44:
 412:App/STM32F4-Discovery/Libraries/STM32F4xx_StdPeriph_Driver/src/stm32f4xx_usart.c ****   assert_param(IS_FUNCTIONAL_STATE(NewState));
 916              		.loc 1 412 0 is_stmt 1
 917 0046 FB78     		ldrb	r3, [r7, #3]	@ zero_extendqisi2
 918 0048 002B     		cmp	r3, #0
 919 004a 07D0     		beq	.L45
 920              		.loc 1 412 0 is_stmt 0 discriminator 1
 921 004c FB78     		ldrb	r3, [r7, #3]	@ zero_extendqisi2
 922 004e 012B     		cmp	r3, #1
 923 0050 04D0     		beq	.L45
 924 0052 1448     		ldr	r0, .L48+24
 925 0054 4FF4CE71 		mov	r1, #412
 926 0058 FFF7FEFF 		bl	assert_failed
 927              	.L45:
 413:App/STM32F4-Discovery/Libraries/STM32F4xx_StdPeriph_Driver/src/stm32f4xx_usart.c ****   
 414:App/STM32F4-Discovery/Libraries/STM32F4xx_StdPeriph_Driver/src/stm32f4xx_usart.c ****   if (NewState != DISABLE)
 928              		.loc 1 414 0 is_stmt 1
 929 005c FB78     		ldrb	r3, [r7, #3]	@ zero_extendqisi2
 930 005e 002B     		cmp	r3, #0
 931 0060 08D0     		beq	.L46
 415:App/STM32F4-Discovery/Libraries/STM32F4xx_StdPeriph_Driver/src/stm32f4xx_usart.c ****   {
 416:App/STM32F4-Discovery/Libraries/STM32F4xx_StdPeriph_Driver/src/stm32f4xx_usart.c ****     /* Enable the selected USART by setting the UE bit in the CR1 register */
 417:App/STM32F4-Discovery/Libraries/STM32F4xx_StdPeriph_Driver/src/stm32f4xx_usart.c ****     USARTx->CR1 |= USART_CR1_UE;
 932              		.loc 1 417 0
 933 0062 7B68     		ldr	r3, [r7, #4]
 934 0064 9B89     		ldrh	r3, [r3, #12]	@ movhi
 935 0066 9BB2     		uxth	r3, r3
 936 0068 43F40053 		orr	r3, r3, #8192
 937 006c 9AB2     		uxth	r2, r3
 938 006e 7B68     		ldr	r3, [r7, #4]
 939 0070 9A81     		strh	r2, [r3, #12]	@ movhi
 940 0072 07E0     		b	.L43
 941              	.L46:
 418:App/STM32F4-Discovery/Libraries/STM32F4xx_StdPeriph_Driver/src/stm32f4xx_usart.c ****   }
 419:App/STM32F4-Discovery/Libraries/STM32F4xx_StdPeriph_Driver/src/stm32f4xx_usart.c ****   else
 420:App/STM32F4-Discovery/Libraries/STM32F4xx_StdPeriph_Driver/src/stm32f4xx_usart.c ****   {
 421:App/STM32F4-Discovery/Libraries/STM32F4xx_StdPeriph_Driver/src/stm32f4xx_usart.c ****     /* Disable the selected USART by clearing the UE bit in the CR1 register */
 422:App/STM32F4-Discovery/Libraries/STM32F4xx_StdPeriph_Driver/src/stm32f4xx_usart.c ****     USARTx->CR1 &= (uint16_t)~((uint16_t)USART_CR1_UE);
 942              		.loc 1 422 0
 943 0074 7B68     		ldr	r3, [r7, #4]
 944 0076 9B89     		ldrh	r3, [r3, #12]	@ movhi
 945 0078 9BB2     		uxth	r3, r3
 946 007a 23F40053 		bic	r3, r3, #8192
 947 007e 9AB2     		uxth	r2, r3
 948 0080 7B68     		ldr	r3, [r7, #4]
 949 0082 9A81     		strh	r2, [r3, #12]	@ movhi
 950              	.L43:
 423:App/STM32F4-Discovery/Libraries/STM32F4xx_StdPeriph_Driver/src/stm32f4xx_usart.c ****   }
 424:App/STM32F4-Discovery/Libraries/STM32F4xx_StdPeriph_Driver/src/stm32f4xx_usart.c **** }
 951              		.loc 1 424 0
 952 0084 0837     		adds	r7, r7, #8
 953 0086 BD46     		mov	sp, r7
 954              		@ sp needed
 955 0088 80BD     		pop	{r7, pc}
 956              	.L49:
 957 008a 00BF     		.align	2
 958              	.L48:
 959 008c 00100140 		.word	1073811456
 960 0090 00440040 		.word	1073759232
 961 0094 00480040 		.word	1073760256
 962 0098 004C0040 		.word	1073761280
 963 009c 00500040 		.word	1073762304
 964 00a0 00140140 		.word	1073812480
 965 00a4 00000000 		.word	.LC0
 966              		.cfi_endproc
 967              	.LFE115:
 969              		.section	.text.USART_SetPrescaler,"ax",%progbits
 970              		.align	2
 971              		.global	USART_SetPrescaler
 972              		.thumb
 973              		.thumb_func
 975              	USART_SetPrescaler:
 976              	.LFB116:
 425:App/STM32F4-Discovery/Libraries/STM32F4xx_StdPeriph_Driver/src/stm32f4xx_usart.c **** 
 426:App/STM32F4-Discovery/Libraries/STM32F4xx_StdPeriph_Driver/src/stm32f4xx_usart.c **** /**
 427:App/STM32F4-Discovery/Libraries/STM32F4xx_StdPeriph_Driver/src/stm32f4xx_usart.c ****   * @brief  Sets the system clock prescaler.
 428:App/STM32F4-Discovery/Libraries/STM32F4xx_StdPeriph_Driver/src/stm32f4xx_usart.c ****   * @param  USARTx: where x can be 1, 2, 3, 4, 5 or 6 to select the USART or 
 429:App/STM32F4-Discovery/Libraries/STM32F4xx_StdPeriph_Driver/src/stm32f4xx_usart.c ****   *         UART peripheral.
 430:App/STM32F4-Discovery/Libraries/STM32F4xx_StdPeriph_Driver/src/stm32f4xx_usart.c ****   * @param  USART_Prescaler: specifies the prescaler clock. 
 431:App/STM32F4-Discovery/Libraries/STM32F4xx_StdPeriph_Driver/src/stm32f4xx_usart.c ****   * @note   The function is used for IrDA mode with UART4 and UART5.   
 432:App/STM32F4-Discovery/Libraries/STM32F4xx_StdPeriph_Driver/src/stm32f4xx_usart.c ****   * @retval None
 433:App/STM32F4-Discovery/Libraries/STM32F4xx_StdPeriph_Driver/src/stm32f4xx_usart.c ****   */
 434:App/STM32F4-Discovery/Libraries/STM32F4xx_StdPeriph_Driver/src/stm32f4xx_usart.c **** void USART_SetPrescaler(USART_TypeDef* USARTx, uint8_t USART_Prescaler)
 435:App/STM32F4-Discovery/Libraries/STM32F4xx_StdPeriph_Driver/src/stm32f4xx_usart.c **** { 
 977              		.loc 1 435 0
 978              		.cfi_startproc
 979              		@ args = 0, pretend = 0, frame = 8
 980              		@ frame_needed = 1, uses_anonymous_args = 0
 981 0000 80B5     		push	{r7, lr}
 982              	.LCFI18:
 983              		.cfi_def_cfa_offset 8
 984              		.cfi_offset 7, -8
 985              		.cfi_offset 14, -4
 986 0002 82B0     		sub	sp, sp, #8
 987              	.LCFI19:
 988              		.cfi_def_cfa_offset 16
 989 0004 00AF     		add	r7, sp, #0
 990              	.LCFI20:
 991              		.cfi_def_cfa_register 7
 992 0006 7860     		str	r0, [r7, #4]
 993 0008 0B46     		mov	r3, r1
 994 000a FB70     		strb	r3, [r7, #3]
 436:App/STM32F4-Discovery/Libraries/STM32F4xx_StdPeriph_Driver/src/stm32f4xx_usart.c ****   /* Check the parameters */
 437:App/STM32F4-Discovery/Libraries/STM32F4xx_StdPeriph_Driver/src/stm32f4xx_usart.c ****   assert_param(IS_USART_ALL_PERIPH(USARTx));
 995              		.loc 1 437 0
 996 000c 7A68     		ldr	r2, [r7, #4]
 997 000e 184B     		ldr	r3, .L52
 998 0010 9A42     		cmp	r2, r3
 999 0012 18D0     		beq	.L51
 1000              		.loc 1 437 0 is_stmt 0 discriminator 1
 1001 0014 7A68     		ldr	r2, [r7, #4]
 1002 0016 174B     		ldr	r3, .L52+4
 1003 0018 9A42     		cmp	r2, r3
 1004 001a 14D0     		beq	.L51
 1005 001c 7A68     		ldr	r2, [r7, #4]
 1006 001e 164B     		ldr	r3, .L52+8
 1007 0020 9A42     		cmp	r2, r3
 1008 0022 10D0     		beq	.L51
 1009 0024 7A68     		ldr	r2, [r7, #4]
 1010 0026 154B     		ldr	r3, .L52+12
 1011 0028 9A42     		cmp	r2, r3
 1012 002a 0CD0     		beq	.L51
 1013 002c 7A68     		ldr	r2, [r7, #4]
 1014 002e 144B     		ldr	r3, .L52+16
 1015 0030 9A42     		cmp	r2, r3
 1016 0032 08D0     		beq	.L51
 1017 0034 7A68     		ldr	r2, [r7, #4]
 1018 0036 134B     		ldr	r3, .L52+20
 1019 0038 9A42     		cmp	r2, r3
 1020 003a 04D0     		beq	.L51
 1021 003c 1248     		ldr	r0, .L52+24
 1022 003e 40F2B511 		movw	r1, #437
 1023 0042 FFF7FEFF 		bl	assert_failed
 1024              	.L51:
 438:App/STM32F4-Discovery/Libraries/STM32F4xx_StdPeriph_Driver/src/stm32f4xx_usart.c ****   
 439:App/STM32F4-Discovery/Libraries/STM32F4xx_StdPeriph_Driver/src/stm32f4xx_usart.c ****   /* Clear the USART prescaler */
 440:App/STM32F4-Discovery/Libraries/STM32F4xx_StdPeriph_Driver/src/stm32f4xx_usart.c ****   USARTx->GTPR &= USART_GTPR_GT;
 1025              		.loc 1 440 0 is_stmt 1
 1026 0046 7B68     		ldr	r3, [r7, #4]
 1027 0048 1B8B     		ldrh	r3, [r3, #24]	@ movhi
 1028 004a 9BB2     		uxth	r3, r3
 1029 004c 23F0FF03 		bic	r3, r3, #255
 1030 0050 9AB2     		uxth	r2, r3
 1031 0052 7B68     		ldr	r3, [r7, #4]
 1032 0054 1A83     		strh	r2, [r3, #24]	@ movhi
 441:App/STM32F4-Discovery/Libraries/STM32F4xx_StdPeriph_Driver/src/stm32f4xx_usart.c ****   /* Set the USART prescaler */
 442:App/STM32F4-Discovery/Libraries/STM32F4xx_StdPeriph_Driver/src/stm32f4xx_usart.c ****   USARTx->GTPR |= USART_Prescaler;
 1033              		.loc 1 442 0
 1034 0056 7B68     		ldr	r3, [r7, #4]
 1035 0058 1B8B     		ldrh	r3, [r3, #24]	@ movhi
 1036 005a 9AB2     		uxth	r2, r3
 1037 005c FB78     		ldrb	r3, [r7, #3]	@ zero_extendqisi2
 1038 005e 9BB2     		uxth	r3, r3
 1039 0060 1343     		orrs	r3, r3, r2
 1040 0062 9AB2     		uxth	r2, r3
 1041 0064 7B68     		ldr	r3, [r7, #4]
 1042 0066 1A83     		strh	r2, [r3, #24]	@ movhi
 443:App/STM32F4-Discovery/Libraries/STM32F4xx_StdPeriph_Driver/src/stm32f4xx_usart.c **** }
 1043              		.loc 1 443 0
 1044 0068 0837     		adds	r7, r7, #8
 1045 006a BD46     		mov	sp, r7
 1046              		@ sp needed
 1047 006c 80BD     		pop	{r7, pc}
 1048              	.L53:
 1049 006e 00BF     		.align	2
 1050              	.L52:
 1051 0070 00100140 		.word	1073811456
 1052 0074 00440040 		.word	1073759232
 1053 0078 00480040 		.word	1073760256
 1054 007c 004C0040 		.word	1073761280
 1055 0080 00500040 		.word	1073762304
 1056 0084 00140140 		.word	1073812480
 1057 0088 00000000 		.word	.LC0
 1058              		.cfi_endproc
 1059              	.LFE116:
 1061              		.section	.text.USART_OverSampling8Cmd,"ax",%progbits
 1062              		.align	2
 1063              		.global	USART_OverSampling8Cmd
 1064              		.thumb
 1065              		.thumb_func
 1067              	USART_OverSampling8Cmd:
 1068              	.LFB117:
 444:App/STM32F4-Discovery/Libraries/STM32F4xx_StdPeriph_Driver/src/stm32f4xx_usart.c **** 
 445:App/STM32F4-Discovery/Libraries/STM32F4xx_StdPeriph_Driver/src/stm32f4xx_usart.c **** /**
 446:App/STM32F4-Discovery/Libraries/STM32F4xx_StdPeriph_Driver/src/stm32f4xx_usart.c ****   * @brief  Enables or disables the USART's 8x oversampling mode.
 447:App/STM32F4-Discovery/Libraries/STM32F4xx_StdPeriph_Driver/src/stm32f4xx_usart.c ****   * @note   This function has to be called before calling USART_Init() function
 448:App/STM32F4-Discovery/Libraries/STM32F4xx_StdPeriph_Driver/src/stm32f4xx_usart.c ****   *         in order to have correct baudrate Divider value.
 449:App/STM32F4-Discovery/Libraries/STM32F4xx_StdPeriph_Driver/src/stm32f4xx_usart.c ****   * @param  USARTx: where x can be 1, 2, 3, 4, 5 or 6 to select the USART or 
 450:App/STM32F4-Discovery/Libraries/STM32F4xx_StdPeriph_Driver/src/stm32f4xx_usart.c ****   *         UART peripheral.
 451:App/STM32F4-Discovery/Libraries/STM32F4xx_StdPeriph_Driver/src/stm32f4xx_usart.c ****   * @param  NewState: new state of the USART 8x oversampling mode.
 452:App/STM32F4-Discovery/Libraries/STM32F4xx_StdPeriph_Driver/src/stm32f4xx_usart.c ****   *          This parameter can be: ENABLE or DISABLE.
 453:App/STM32F4-Discovery/Libraries/STM32F4xx_StdPeriph_Driver/src/stm32f4xx_usart.c ****   * @retval None
 454:App/STM32F4-Discovery/Libraries/STM32F4xx_StdPeriph_Driver/src/stm32f4xx_usart.c ****   */
 455:App/STM32F4-Discovery/Libraries/STM32F4xx_StdPeriph_Driver/src/stm32f4xx_usart.c **** void USART_OverSampling8Cmd(USART_TypeDef* USARTx, FunctionalState NewState)
 456:App/STM32F4-Discovery/Libraries/STM32F4xx_StdPeriph_Driver/src/stm32f4xx_usart.c **** {
 1069              		.loc 1 456 0
 1070              		.cfi_startproc
 1071              		@ args = 0, pretend = 0, frame = 8
 1072              		@ frame_needed = 1, uses_anonymous_args = 0
 1073 0000 80B5     		push	{r7, lr}
 1074              	.LCFI21:
 1075              		.cfi_def_cfa_offset 8
 1076              		.cfi_offset 7, -8
 1077              		.cfi_offset 14, -4
 1078 0002 82B0     		sub	sp, sp, #8
 1079              	.LCFI22:
 1080              		.cfi_def_cfa_offset 16
 1081 0004 00AF     		add	r7, sp, #0
 1082              	.LCFI23:
 1083              		.cfi_def_cfa_register 7
 1084 0006 7860     		str	r0, [r7, #4]
 1085 0008 0B46     		mov	r3, r1
 1086 000a FB70     		strb	r3, [r7, #3]
 457:App/STM32F4-Discovery/Libraries/STM32F4xx_StdPeriph_Driver/src/stm32f4xx_usart.c ****   /* Check the parameters */
 458:App/STM32F4-Discovery/Libraries/STM32F4xx_StdPeriph_Driver/src/stm32f4xx_usart.c ****   assert_param(IS_USART_ALL_PERIPH(USARTx));
 1087              		.loc 1 458 0
 1088 000c 7A68     		ldr	r2, [r7, #4]
 1089 000e 204B     		ldr	r3, .L59
 1090 0010 9A42     		cmp	r2, r3
 1091 0012 18D0     		beq	.L55
 1092              		.loc 1 458 0 is_stmt 0 discriminator 1
 1093 0014 7A68     		ldr	r2, [r7, #4]
 1094 0016 1F4B     		ldr	r3, .L59+4
 1095 0018 9A42     		cmp	r2, r3
 1096 001a 14D0     		beq	.L55
 1097 001c 7A68     		ldr	r2, [r7, #4]
 1098 001e 1E4B     		ldr	r3, .L59+8
 1099 0020 9A42     		cmp	r2, r3
 1100 0022 10D0     		beq	.L55
 1101 0024 7A68     		ldr	r2, [r7, #4]
 1102 0026 1D4B     		ldr	r3, .L59+12
 1103 0028 9A42     		cmp	r2, r3
 1104 002a 0CD0     		beq	.L55
 1105 002c 7A68     		ldr	r2, [r7, #4]
 1106 002e 1C4B     		ldr	r3, .L59+16
 1107 0030 9A42     		cmp	r2, r3
 1108 0032 08D0     		beq	.L55
 1109 0034 7A68     		ldr	r2, [r7, #4]
 1110 0036 1B4B     		ldr	r3, .L59+20
 1111 0038 9A42     		cmp	r2, r3
 1112 003a 04D0     		beq	.L55
 1113 003c 1A48     		ldr	r0, .L59+24
 1114 003e 4FF4E571 		mov	r1, #458
 1115 0042 FFF7FEFF 		bl	assert_failed
 1116              	.L55:
 459:App/STM32F4-Discovery/Libraries/STM32F4xx_StdPeriph_Driver/src/stm32f4xx_usart.c ****   assert_param(IS_FUNCTIONAL_STATE(NewState));
 1117              		.loc 1 459 0 is_stmt 1
 1118 0046 FB78     		ldrb	r3, [r7, #3]	@ zero_extendqisi2
 1119 0048 002B     		cmp	r3, #0
 1120 004a 07D0     		beq	.L56
 1121              		.loc 1 459 0 is_stmt 0 discriminator 1
 1122 004c FB78     		ldrb	r3, [r7, #3]	@ zero_extendqisi2
 1123 004e 012B     		cmp	r3, #1
 1124 0050 04D0     		beq	.L56
 1125 0052 1548     		ldr	r0, .L59+24
 1126 0054 40F2CB11 		movw	r1, #459
 1127 0058 FFF7FEFF 		bl	assert_failed
 1128              	.L56:
 460:App/STM32F4-Discovery/Libraries/STM32F4xx_StdPeriph_Driver/src/stm32f4xx_usart.c ****   
 461:App/STM32F4-Discovery/Libraries/STM32F4xx_StdPeriph_Driver/src/stm32f4xx_usart.c ****   if (NewState != DISABLE)
 1129              		.loc 1 461 0 is_stmt 1
 1130 005c FB78     		ldrb	r3, [r7, #3]	@ zero_extendqisi2
 1131 005e 002B     		cmp	r3, #0
 1132 0060 0AD0     		beq	.L57
 462:App/STM32F4-Discovery/Libraries/STM32F4xx_StdPeriph_Driver/src/stm32f4xx_usart.c ****   {
 463:App/STM32F4-Discovery/Libraries/STM32F4xx_StdPeriph_Driver/src/stm32f4xx_usart.c ****     /* Enable the 8x Oversampling mode by setting the OVER8 bit in the CR1 register */
 464:App/STM32F4-Discovery/Libraries/STM32F4xx_StdPeriph_Driver/src/stm32f4xx_usart.c ****     USARTx->CR1 |= USART_CR1_OVER8;
 1133              		.loc 1 464 0
 1134 0062 7B68     		ldr	r3, [r7, #4]
 1135 0064 9B89     		ldrh	r3, [r3, #12]	@ movhi
 1136 0066 9BB2     		uxth	r3, r3
 1137 0068 6FEA4343 		mvn	r3, r3, lsl #17
 1138 006c 6FEA5343 		mvn	r3, r3, lsr #17
 1139 0070 9AB2     		uxth	r2, r3
 1140 0072 7B68     		ldr	r3, [r7, #4]
 1141 0074 9A81     		strh	r2, [r3, #12]	@ movhi
 1142 0076 07E0     		b	.L54
 1143              	.L57:
 465:App/STM32F4-Discovery/Libraries/STM32F4xx_StdPeriph_Driver/src/stm32f4xx_usart.c ****   }
 466:App/STM32F4-Discovery/Libraries/STM32F4xx_StdPeriph_Driver/src/stm32f4xx_usart.c ****   else
 467:App/STM32F4-Discovery/Libraries/STM32F4xx_StdPeriph_Driver/src/stm32f4xx_usart.c ****   {
 468:App/STM32F4-Discovery/Libraries/STM32F4xx_StdPeriph_Driver/src/stm32f4xx_usart.c ****     /* Disable the 8x Oversampling mode by clearing the OVER8 bit in the CR1 register */
 469:App/STM32F4-Discovery/Libraries/STM32F4xx_StdPeriph_Driver/src/stm32f4xx_usart.c ****     USARTx->CR1 &= (uint16_t)~((uint16_t)USART_CR1_OVER8);
 1144              		.loc 1 469 0
 1145 0078 7B68     		ldr	r3, [r7, #4]
 1146 007a 9B89     		ldrh	r3, [r3, #12]	@ movhi
 1147 007c 9BB2     		uxth	r3, r3
 1148 007e C3F30E03 		ubfx	r3, r3, #0, #15
 1149 0082 9AB2     		uxth	r2, r3
 1150 0084 7B68     		ldr	r3, [r7, #4]
 1151 0086 9A81     		strh	r2, [r3, #12]	@ movhi
 1152              	.L54:
 470:App/STM32F4-Discovery/Libraries/STM32F4xx_StdPeriph_Driver/src/stm32f4xx_usart.c ****   }
 471:App/STM32F4-Discovery/Libraries/STM32F4xx_StdPeriph_Driver/src/stm32f4xx_usart.c **** }  
 1153              		.loc 1 471 0
 1154 0088 0837     		adds	r7, r7, #8
 1155 008a BD46     		mov	sp, r7
 1156              		@ sp needed
 1157 008c 80BD     		pop	{r7, pc}
 1158              	.L60:
 1159 008e 00BF     		.align	2
 1160              	.L59:
 1161 0090 00100140 		.word	1073811456
 1162 0094 00440040 		.word	1073759232
 1163 0098 00480040 		.word	1073760256
 1164 009c 004C0040 		.word	1073761280
 1165 00a0 00500040 		.word	1073762304
 1166 00a4 00140140 		.word	1073812480
 1167 00a8 00000000 		.word	.LC0
 1168              		.cfi_endproc
 1169              	.LFE117:
 1171              		.section	.text.USART_OneBitMethodCmd,"ax",%progbits
 1172              		.align	2
 1173              		.global	USART_OneBitMethodCmd
 1174              		.thumb
 1175              		.thumb_func
 1177              	USART_OneBitMethodCmd:
 1178              	.LFB118:
 472:App/STM32F4-Discovery/Libraries/STM32F4xx_StdPeriph_Driver/src/stm32f4xx_usart.c **** 
 473:App/STM32F4-Discovery/Libraries/STM32F4xx_StdPeriph_Driver/src/stm32f4xx_usart.c **** /**
 474:App/STM32F4-Discovery/Libraries/STM32F4xx_StdPeriph_Driver/src/stm32f4xx_usart.c ****   * @brief  Enables or disables the USART's one bit sampling method.
 475:App/STM32F4-Discovery/Libraries/STM32F4xx_StdPeriph_Driver/src/stm32f4xx_usart.c ****   * @param  USARTx: where x can be 1, 2, 3, 4, 5 or 6 to select the USART or 
 476:App/STM32F4-Discovery/Libraries/STM32F4xx_StdPeriph_Driver/src/stm32f4xx_usart.c ****   *         UART peripheral.
 477:App/STM32F4-Discovery/Libraries/STM32F4xx_StdPeriph_Driver/src/stm32f4xx_usart.c ****   * @param  NewState: new state of the USART one bit sampling method.
 478:App/STM32F4-Discovery/Libraries/STM32F4xx_StdPeriph_Driver/src/stm32f4xx_usart.c ****   *          This parameter can be: ENABLE or DISABLE.
 479:App/STM32F4-Discovery/Libraries/STM32F4xx_StdPeriph_Driver/src/stm32f4xx_usart.c ****   * @retval None
 480:App/STM32F4-Discovery/Libraries/STM32F4xx_StdPeriph_Driver/src/stm32f4xx_usart.c ****   */
 481:App/STM32F4-Discovery/Libraries/STM32F4xx_StdPeriph_Driver/src/stm32f4xx_usart.c **** void USART_OneBitMethodCmd(USART_TypeDef* USARTx, FunctionalState NewState)
 482:App/STM32F4-Discovery/Libraries/STM32F4xx_StdPeriph_Driver/src/stm32f4xx_usart.c **** {
 1179              		.loc 1 482 0
 1180              		.cfi_startproc
 1181              		@ args = 0, pretend = 0, frame = 8
 1182              		@ frame_needed = 1, uses_anonymous_args = 0
 1183 0000 80B5     		push	{r7, lr}
 1184              	.LCFI24:
 1185              		.cfi_def_cfa_offset 8
 1186              		.cfi_offset 7, -8
 1187              		.cfi_offset 14, -4
 1188 0002 82B0     		sub	sp, sp, #8
 1189              	.LCFI25:
 1190              		.cfi_def_cfa_offset 16
 1191 0004 00AF     		add	r7, sp, #0
 1192              	.LCFI26:
 1193              		.cfi_def_cfa_register 7
 1194 0006 7860     		str	r0, [r7, #4]
 1195 0008 0B46     		mov	r3, r1
 1196 000a FB70     		strb	r3, [r7, #3]
 483:App/STM32F4-Discovery/Libraries/STM32F4xx_StdPeriph_Driver/src/stm32f4xx_usart.c ****   /* Check the parameters */
 484:App/STM32F4-Discovery/Libraries/STM32F4xx_StdPeriph_Driver/src/stm32f4xx_usart.c ****   assert_param(IS_USART_ALL_PERIPH(USARTx));
 1197              		.loc 1 484 0
 1198 000c 7A68     		ldr	r2, [r7, #4]
 1199 000e 1F4B     		ldr	r3, .L66
 1200 0010 9A42     		cmp	r2, r3
 1201 0012 18D0     		beq	.L62
 1202              		.loc 1 484 0 is_stmt 0 discriminator 1
 1203 0014 7A68     		ldr	r2, [r7, #4]
 1204 0016 1E4B     		ldr	r3, .L66+4
 1205 0018 9A42     		cmp	r2, r3
 1206 001a 14D0     		beq	.L62
 1207 001c 7A68     		ldr	r2, [r7, #4]
 1208 001e 1D4B     		ldr	r3, .L66+8
 1209 0020 9A42     		cmp	r2, r3
 1210 0022 10D0     		beq	.L62
 1211 0024 7A68     		ldr	r2, [r7, #4]
 1212 0026 1C4B     		ldr	r3, .L66+12
 1213 0028 9A42     		cmp	r2, r3
 1214 002a 0CD0     		beq	.L62
 1215 002c 7A68     		ldr	r2, [r7, #4]
 1216 002e 1B4B     		ldr	r3, .L66+16
 1217 0030 9A42     		cmp	r2, r3
 1218 0032 08D0     		beq	.L62
 1219 0034 7A68     		ldr	r2, [r7, #4]
 1220 0036 1A4B     		ldr	r3, .L66+20
 1221 0038 9A42     		cmp	r2, r3
 1222 003a 04D0     		beq	.L62
 1223 003c 1948     		ldr	r0, .L66+24
 1224 003e 4FF4F271 		mov	r1, #484
 1225 0042 FFF7FEFF 		bl	assert_failed
 1226              	.L62:
 485:App/STM32F4-Discovery/Libraries/STM32F4xx_StdPeriph_Driver/src/stm32f4xx_usart.c ****   assert_param(IS_FUNCTIONAL_STATE(NewState));
 1227              		.loc 1 485 0 is_stmt 1
 1228 0046 FB78     		ldrb	r3, [r7, #3]	@ zero_extendqisi2
 1229 0048 002B     		cmp	r3, #0
 1230 004a 07D0     		beq	.L63
 1231              		.loc 1 485 0 is_stmt 0 discriminator 1
 1232 004c FB78     		ldrb	r3, [r7, #3]	@ zero_extendqisi2
 1233 004e 012B     		cmp	r3, #1
 1234 0050 04D0     		beq	.L63
 1235 0052 1448     		ldr	r0, .L66+24
 1236 0054 40F2E511 		movw	r1, #485
 1237 0058 FFF7FEFF 		bl	assert_failed
 1238              	.L63:
 486:App/STM32F4-Discovery/Libraries/STM32F4xx_StdPeriph_Driver/src/stm32f4xx_usart.c ****   
 487:App/STM32F4-Discovery/Libraries/STM32F4xx_StdPeriph_Driver/src/stm32f4xx_usart.c ****   if (NewState != DISABLE)
 1239              		.loc 1 487 0 is_stmt 1
 1240 005c FB78     		ldrb	r3, [r7, #3]	@ zero_extendqisi2
 1241 005e 002B     		cmp	r3, #0
 1242 0060 08D0     		beq	.L64
 488:App/STM32F4-Discovery/Libraries/STM32F4xx_StdPeriph_Driver/src/stm32f4xx_usart.c ****   {
 489:App/STM32F4-Discovery/Libraries/STM32F4xx_StdPeriph_Driver/src/stm32f4xx_usart.c ****     /* Enable the one bit method by setting the ONEBITE bit in the CR3 register */
 490:App/STM32F4-Discovery/Libraries/STM32F4xx_StdPeriph_Driver/src/stm32f4xx_usart.c ****     USARTx->CR3 |= USART_CR3_ONEBIT;
 1243              		.loc 1 490 0
 1244 0062 7B68     		ldr	r3, [r7, #4]
 1245 0064 9B8A     		ldrh	r3, [r3, #20]	@ movhi
 1246 0066 9BB2     		uxth	r3, r3
 1247 0068 43F40063 		orr	r3, r3, #2048
 1248 006c 9AB2     		uxth	r2, r3
 1249 006e 7B68     		ldr	r3, [r7, #4]
 1250 0070 9A82     		strh	r2, [r3, #20]	@ movhi
 1251 0072 07E0     		b	.L61
 1252              	.L64:
 491:App/STM32F4-Discovery/Libraries/STM32F4xx_StdPeriph_Driver/src/stm32f4xx_usart.c ****   }
 492:App/STM32F4-Discovery/Libraries/STM32F4xx_StdPeriph_Driver/src/stm32f4xx_usart.c ****   else
 493:App/STM32F4-Discovery/Libraries/STM32F4xx_StdPeriph_Driver/src/stm32f4xx_usart.c ****   {
 494:App/STM32F4-Discovery/Libraries/STM32F4xx_StdPeriph_Driver/src/stm32f4xx_usart.c ****     /* Disable the one bit method by clearing the ONEBITE bit in the CR3 register */
 495:App/STM32F4-Discovery/Libraries/STM32F4xx_StdPeriph_Driver/src/stm32f4xx_usart.c ****     USARTx->CR3 &= (uint16_t)~((uint16_t)USART_CR3_ONEBIT);
 1253              		.loc 1 495 0
 1254 0074 7B68     		ldr	r3, [r7, #4]
 1255 0076 9B8A     		ldrh	r3, [r3, #20]	@ movhi
 1256 0078 9BB2     		uxth	r3, r3
 1257 007a 23F40063 		bic	r3, r3, #2048
 1258 007e 9AB2     		uxth	r2, r3
 1259 0080 7B68     		ldr	r3, [r7, #4]
 1260 0082 9A82     		strh	r2, [r3, #20]	@ movhi
 1261              	.L61:
 496:App/STM32F4-Discovery/Libraries/STM32F4xx_StdPeriph_Driver/src/stm32f4xx_usart.c ****   }
 497:App/STM32F4-Discovery/Libraries/STM32F4xx_StdPeriph_Driver/src/stm32f4xx_usart.c **** }
 1262              		.loc 1 497 0
 1263 0084 0837     		adds	r7, r7, #8
 1264 0086 BD46     		mov	sp, r7
 1265              		@ sp needed
 1266 0088 80BD     		pop	{r7, pc}
 1267              	.L67:
 1268 008a 00BF     		.align	2
 1269              	.L66:
 1270 008c 00100140 		.word	1073811456
 1271 0090 00440040 		.word	1073759232
 1272 0094 00480040 		.word	1073760256
 1273 0098 004C0040 		.word	1073761280
 1274 009c 00500040 		.word	1073762304
 1275 00a0 00140140 		.word	1073812480
 1276 00a4 00000000 		.word	.LC0
 1277              		.cfi_endproc
 1278              	.LFE118:
 1280              		.section	.text.USART_SendData,"ax",%progbits
 1281              		.align	2
 1282              		.global	USART_SendData
 1283              		.thumb
 1284              		.thumb_func
 1286              	USART_SendData:
 1287              	.LFB119:
 498:App/STM32F4-Discovery/Libraries/STM32F4xx_StdPeriph_Driver/src/stm32f4xx_usart.c **** 
 499:App/STM32F4-Discovery/Libraries/STM32F4xx_StdPeriph_Driver/src/stm32f4xx_usart.c **** /**
 500:App/STM32F4-Discovery/Libraries/STM32F4xx_StdPeriph_Driver/src/stm32f4xx_usart.c ****   * @}
 501:App/STM32F4-Discovery/Libraries/STM32F4xx_StdPeriph_Driver/src/stm32f4xx_usart.c ****   */
 502:App/STM32F4-Discovery/Libraries/STM32F4xx_StdPeriph_Driver/src/stm32f4xx_usart.c **** 
 503:App/STM32F4-Discovery/Libraries/STM32F4xx_StdPeriph_Driver/src/stm32f4xx_usart.c **** /** @defgroup USART_Group2 Data transfers functions
 504:App/STM32F4-Discovery/Libraries/STM32F4xx_StdPeriph_Driver/src/stm32f4xx_usart.c ****  *  @brief   Data transfers functions 
 505:App/STM32F4-Discovery/Libraries/STM32F4xx_StdPeriph_Driver/src/stm32f4xx_usart.c ****  *
 506:App/STM32F4-Discovery/Libraries/STM32F4xx_StdPeriph_Driver/src/stm32f4xx_usart.c **** @verbatim   
 507:App/STM32F4-Discovery/Libraries/STM32F4xx_StdPeriph_Driver/src/stm32f4xx_usart.c ****  ===============================================================================
 508:App/STM32F4-Discovery/Libraries/STM32F4xx_StdPeriph_Driver/src/stm32f4xx_usart.c ****                             Data transfers functions
 509:App/STM32F4-Discovery/Libraries/STM32F4xx_StdPeriph_Driver/src/stm32f4xx_usart.c ****  ===============================================================================  
 510:App/STM32F4-Discovery/Libraries/STM32F4xx_StdPeriph_Driver/src/stm32f4xx_usart.c **** 
 511:App/STM32F4-Discovery/Libraries/STM32F4xx_StdPeriph_Driver/src/stm32f4xx_usart.c ****   This subsection provides a set of functions allowing to manage the USART data 
 512:App/STM32F4-Discovery/Libraries/STM32F4xx_StdPeriph_Driver/src/stm32f4xx_usart.c ****   transfers.
 513:App/STM32F4-Discovery/Libraries/STM32F4xx_StdPeriph_Driver/src/stm32f4xx_usart.c ****   
 514:App/STM32F4-Discovery/Libraries/STM32F4xx_StdPeriph_Driver/src/stm32f4xx_usart.c ****   During an USART reception, data shifts in least significant bit first through 
 515:App/STM32F4-Discovery/Libraries/STM32F4xx_StdPeriph_Driver/src/stm32f4xx_usart.c ****   the RX pin. In this mode, the USART_DR register consists of a buffer (RDR) 
 516:App/STM32F4-Discovery/Libraries/STM32F4xx_StdPeriph_Driver/src/stm32f4xx_usart.c ****   between the internal bus and the received shift register.
 517:App/STM32F4-Discovery/Libraries/STM32F4xx_StdPeriph_Driver/src/stm32f4xx_usart.c **** 
 518:App/STM32F4-Discovery/Libraries/STM32F4xx_StdPeriph_Driver/src/stm32f4xx_usart.c ****   When a transmission is taking place, a write instruction to the USART_DR register 
 519:App/STM32F4-Discovery/Libraries/STM32F4xx_StdPeriph_Driver/src/stm32f4xx_usart.c ****   stores the data in the TDR register and which is copied in the shift register 
 520:App/STM32F4-Discovery/Libraries/STM32F4xx_StdPeriph_Driver/src/stm32f4xx_usart.c ****   at the end of the current transmission.
 521:App/STM32F4-Discovery/Libraries/STM32F4xx_StdPeriph_Driver/src/stm32f4xx_usart.c **** 
 522:App/STM32F4-Discovery/Libraries/STM32F4xx_StdPeriph_Driver/src/stm32f4xx_usart.c ****   The read access of the USART_DR register can be done using the USART_ReceiveData()
 523:App/STM32F4-Discovery/Libraries/STM32F4xx_StdPeriph_Driver/src/stm32f4xx_usart.c ****   function and returns the RDR buffered value. Whereas a write access to the USART_DR 
 524:App/STM32F4-Discovery/Libraries/STM32F4xx_StdPeriph_Driver/src/stm32f4xx_usart.c ****   can be done using USART_SendData() function and stores the written data into 
 525:App/STM32F4-Discovery/Libraries/STM32F4xx_StdPeriph_Driver/src/stm32f4xx_usart.c ****   TDR buffer.
 526:App/STM32F4-Discovery/Libraries/STM32F4xx_StdPeriph_Driver/src/stm32f4xx_usart.c **** 
 527:App/STM32F4-Discovery/Libraries/STM32F4xx_StdPeriph_Driver/src/stm32f4xx_usart.c **** @endverbatim
 528:App/STM32F4-Discovery/Libraries/STM32F4xx_StdPeriph_Driver/src/stm32f4xx_usart.c ****   * @{
 529:App/STM32F4-Discovery/Libraries/STM32F4xx_StdPeriph_Driver/src/stm32f4xx_usart.c ****   */
 530:App/STM32F4-Discovery/Libraries/STM32F4xx_StdPeriph_Driver/src/stm32f4xx_usart.c **** 
 531:App/STM32F4-Discovery/Libraries/STM32F4xx_StdPeriph_Driver/src/stm32f4xx_usart.c **** /**
 532:App/STM32F4-Discovery/Libraries/STM32F4xx_StdPeriph_Driver/src/stm32f4xx_usart.c ****   * @brief  Transmits single data through the USARTx peripheral.
 533:App/STM32F4-Discovery/Libraries/STM32F4xx_StdPeriph_Driver/src/stm32f4xx_usart.c ****   * @param  USARTx: where x can be 1, 2, 3, 4, 5 or 6 to select the USART or 
 534:App/STM32F4-Discovery/Libraries/STM32F4xx_StdPeriph_Driver/src/stm32f4xx_usart.c ****   *         UART peripheral.
 535:App/STM32F4-Discovery/Libraries/STM32F4xx_StdPeriph_Driver/src/stm32f4xx_usart.c ****   * @param  Data: the data to transmit.
 536:App/STM32F4-Discovery/Libraries/STM32F4xx_StdPeriph_Driver/src/stm32f4xx_usart.c ****   * @retval None
 537:App/STM32F4-Discovery/Libraries/STM32F4xx_StdPeriph_Driver/src/stm32f4xx_usart.c ****   */
 538:App/STM32F4-Discovery/Libraries/STM32F4xx_StdPeriph_Driver/src/stm32f4xx_usart.c **** void USART_SendData(USART_TypeDef* USARTx, uint16_t Data)
 539:App/STM32F4-Discovery/Libraries/STM32F4xx_StdPeriph_Driver/src/stm32f4xx_usart.c **** {
 1288              		.loc 1 539 0
 1289              		.cfi_startproc
 1290              		@ args = 0, pretend = 0, frame = 8
 1291              		@ frame_needed = 1, uses_anonymous_args = 0
 1292 0000 80B5     		push	{r7, lr}
 1293              	.LCFI27:
 1294              		.cfi_def_cfa_offset 8
 1295              		.cfi_offset 7, -8
 1296              		.cfi_offset 14, -4
 1297 0002 82B0     		sub	sp, sp, #8
 1298              	.LCFI28:
 1299              		.cfi_def_cfa_offset 16
 1300 0004 00AF     		add	r7, sp, #0
 1301              	.LCFI29:
 1302              		.cfi_def_cfa_register 7
 1303 0006 7860     		str	r0, [r7, #4]
 1304 0008 0B46     		mov	r3, r1
 1305 000a 7B80     		strh	r3, [r7, #2]	@ movhi
 540:App/STM32F4-Discovery/Libraries/STM32F4xx_StdPeriph_Driver/src/stm32f4xx_usart.c ****   /* Check the parameters */
 541:App/STM32F4-Discovery/Libraries/STM32F4xx_StdPeriph_Driver/src/stm32f4xx_usart.c ****   assert_param(IS_USART_ALL_PERIPH(USARTx));
 1306              		.loc 1 541 0
 1307 000c 7A68     		ldr	r2, [r7, #4]
 1308 000e 174B     		ldr	r3, .L71
 1309 0010 9A42     		cmp	r2, r3
 1310 0012 18D0     		beq	.L69
 1311              		.loc 1 541 0 is_stmt 0 discriminator 1
 1312 0014 7A68     		ldr	r2, [r7, #4]
 1313 0016 164B     		ldr	r3, .L71+4
 1314 0018 9A42     		cmp	r2, r3
 1315 001a 14D0     		beq	.L69
 1316 001c 7A68     		ldr	r2, [r7, #4]
 1317 001e 154B     		ldr	r3, .L71+8
 1318 0020 9A42     		cmp	r2, r3
 1319 0022 10D0     		beq	.L69
 1320 0024 7A68     		ldr	r2, [r7, #4]
 1321 0026 144B     		ldr	r3, .L71+12
 1322 0028 9A42     		cmp	r2, r3
 1323 002a 0CD0     		beq	.L69
 1324 002c 7A68     		ldr	r2, [r7, #4]
 1325 002e 134B     		ldr	r3, .L71+16
 1326 0030 9A42     		cmp	r2, r3
 1327 0032 08D0     		beq	.L69
 1328 0034 7A68     		ldr	r2, [r7, #4]
 1329 0036 124B     		ldr	r3, .L71+20
 1330 0038 9A42     		cmp	r2, r3
 1331 003a 04D0     		beq	.L69
 1332 003c 1148     		ldr	r0, .L71+24
 1333 003e 40F21D21 		movw	r1, #541
 1334 0042 FFF7FEFF 		bl	assert_failed
 1335              	.L69:
 542:App/STM32F4-Discovery/Libraries/STM32F4xx_StdPeriph_Driver/src/stm32f4xx_usart.c ****   assert_param(IS_USART_DATA(Data)); 
 1336              		.loc 1 542 0 is_stmt 1
 1337 0046 7B88     		ldrh	r3, [r7, #2]
 1338 0048 B3F5007F 		cmp	r3, #512
 1339 004c 04D3     		bcc	.L70
 1340              		.loc 1 542 0 is_stmt 0 discriminator 1
 1341 004e 0D48     		ldr	r0, .L71+24
 1342 0050 40F21E21 		movw	r1, #542
 1343 0054 FFF7FEFF 		bl	assert_failed
 1344              	.L70:
 543:App/STM32F4-Discovery/Libraries/STM32F4xx_StdPeriph_Driver/src/stm32f4xx_usart.c ****     
 544:App/STM32F4-Discovery/Libraries/STM32F4xx_StdPeriph_Driver/src/stm32f4xx_usart.c ****   /* Transmit Data */
 545:App/STM32F4-Discovery/Libraries/STM32F4xx_StdPeriph_Driver/src/stm32f4xx_usart.c ****   USARTx->DR = (Data & (uint16_t)0x01FF);
 1345              		.loc 1 545 0 is_stmt 1
 1346 0058 7B88     		ldrh	r3, [r7, #2]	@ movhi
 1347 005a C3F30803 		ubfx	r3, r3, #0, #9
 1348 005e 9AB2     		uxth	r2, r3
 1349 0060 7B68     		ldr	r3, [r7, #4]
 1350 0062 9A80     		strh	r2, [r3, #4]	@ movhi
 546:App/STM32F4-Discovery/Libraries/STM32F4xx_StdPeriph_Driver/src/stm32f4xx_usart.c **** }
 1351              		.loc 1 546 0
 1352 0064 0837     		adds	r7, r7, #8
 1353 0066 BD46     		mov	sp, r7
 1354              		@ sp needed
 1355 0068 80BD     		pop	{r7, pc}
 1356              	.L72:
 1357 006a 00BF     		.align	2
 1358              	.L71:
 1359 006c 00100140 		.word	1073811456
 1360 0070 00440040 		.word	1073759232
 1361 0074 00480040 		.word	1073760256
 1362 0078 004C0040 		.word	1073761280
 1363 007c 00500040 		.word	1073762304
 1364 0080 00140140 		.word	1073812480
 1365 0084 00000000 		.word	.LC0
 1366              		.cfi_endproc
 1367              	.LFE119:
 1369              		.section	.text.USART_ReceiveData,"ax",%progbits
 1370              		.align	2
 1371              		.global	USART_ReceiveData
 1372              		.thumb
 1373              		.thumb_func
 1375              	USART_ReceiveData:
 1376              	.LFB120:
 547:App/STM32F4-Discovery/Libraries/STM32F4xx_StdPeriph_Driver/src/stm32f4xx_usart.c **** 
 548:App/STM32F4-Discovery/Libraries/STM32F4xx_StdPeriph_Driver/src/stm32f4xx_usart.c **** /**
 549:App/STM32F4-Discovery/Libraries/STM32F4xx_StdPeriph_Driver/src/stm32f4xx_usart.c ****   * @brief  Returns the most recent received data by the USARTx peripheral.
 550:App/STM32F4-Discovery/Libraries/STM32F4xx_StdPeriph_Driver/src/stm32f4xx_usart.c ****   * @param  USARTx: where x can be 1, 2, 3, 4, 5 or 6 to select the USART or 
 551:App/STM32F4-Discovery/Libraries/STM32F4xx_StdPeriph_Driver/src/stm32f4xx_usart.c ****   *         UART peripheral.
 552:App/STM32F4-Discovery/Libraries/STM32F4xx_StdPeriph_Driver/src/stm32f4xx_usart.c ****   * @retval The received data.
 553:App/STM32F4-Discovery/Libraries/STM32F4xx_StdPeriph_Driver/src/stm32f4xx_usart.c ****   */
 554:App/STM32F4-Discovery/Libraries/STM32F4xx_StdPeriph_Driver/src/stm32f4xx_usart.c **** uint16_t USART_ReceiveData(USART_TypeDef* USARTx)
 555:App/STM32F4-Discovery/Libraries/STM32F4xx_StdPeriph_Driver/src/stm32f4xx_usart.c **** {
 1377              		.loc 1 555 0
 1378              		.cfi_startproc
 1379              		@ args = 0, pretend = 0, frame = 8
 1380              		@ frame_needed = 1, uses_anonymous_args = 0
 1381 0000 80B5     		push	{r7, lr}
 1382              	.LCFI30:
 1383              		.cfi_def_cfa_offset 8
 1384              		.cfi_offset 7, -8
 1385              		.cfi_offset 14, -4
 1386 0002 82B0     		sub	sp, sp, #8
 1387              	.LCFI31:
 1388              		.cfi_def_cfa_offset 16
 1389 0004 00AF     		add	r7, sp, #0
 1390              	.LCFI32:
 1391              		.cfi_def_cfa_register 7
 1392 0006 7860     		str	r0, [r7, #4]
 556:App/STM32F4-Discovery/Libraries/STM32F4xx_StdPeriph_Driver/src/stm32f4xx_usart.c ****   /* Check the parameters */
 557:App/STM32F4-Discovery/Libraries/STM32F4xx_StdPeriph_Driver/src/stm32f4xx_usart.c ****   assert_param(IS_USART_ALL_PERIPH(USARTx));
 1393              		.loc 1 557 0
 1394 0008 7A68     		ldr	r2, [r7, #4]
 1395 000a 134B     		ldr	r3, .L76
 1396 000c 9A42     		cmp	r2, r3
 1397 000e 18D0     		beq	.L74
 1398              		.loc 1 557 0 is_stmt 0 discriminator 1
 1399 0010 7A68     		ldr	r2, [r7, #4]
 1400 0012 124B     		ldr	r3, .L76+4
 1401 0014 9A42     		cmp	r2, r3
 1402 0016 14D0     		beq	.L74
 1403 0018 7A68     		ldr	r2, [r7, #4]
 1404 001a 114B     		ldr	r3, .L76+8
 1405 001c 9A42     		cmp	r2, r3
 1406 001e 10D0     		beq	.L74
 1407 0020 7A68     		ldr	r2, [r7, #4]
 1408 0022 104B     		ldr	r3, .L76+12
 1409 0024 9A42     		cmp	r2, r3
 1410 0026 0CD0     		beq	.L74
 1411 0028 7A68     		ldr	r2, [r7, #4]
 1412 002a 0F4B     		ldr	r3, .L76+16
 1413 002c 9A42     		cmp	r2, r3
 1414 002e 08D0     		beq	.L74
 1415 0030 7A68     		ldr	r2, [r7, #4]
 1416 0032 0E4B     		ldr	r3, .L76+20
 1417 0034 9A42     		cmp	r2, r3
 1418 0036 04D0     		beq	.L74
 1419 0038 0D48     		ldr	r0, .L76+24
 1420 003a 40F22D21 		movw	r1, #557
 1421 003e FFF7FEFF 		bl	assert_failed
 1422              	.L74:
 558:App/STM32F4-Discovery/Libraries/STM32F4xx_StdPeriph_Driver/src/stm32f4xx_usart.c ****   
 559:App/STM32F4-Discovery/Libraries/STM32F4xx_StdPeriph_Driver/src/stm32f4xx_usart.c ****   /* Receive Data */
 560:App/STM32F4-Discovery/Libraries/STM32F4xx_StdPeriph_Driver/src/stm32f4xx_usart.c ****   return (uint16_t)(USARTx->DR & (uint16_t)0x01FF);
 1423              		.loc 1 560 0 is_stmt 1
 1424 0042 7B68     		ldr	r3, [r7, #4]
 1425 0044 9B88     		ldrh	r3, [r3, #4]	@ movhi
 1426 0046 9BB2     		uxth	r3, r3
 1427 0048 C3F30803 		ubfx	r3, r3, #0, #9
 1428 004c 9BB2     		uxth	r3, r3
 561:App/STM32F4-Discovery/Libraries/STM32F4xx_StdPeriph_Driver/src/stm32f4xx_usart.c **** }
 1429              		.loc 1 561 0
 1430 004e 1846     		mov	r0, r3
 1431 0050 0837     		adds	r7, r7, #8
 1432 0052 BD46     		mov	sp, r7
 1433              		@ sp needed
 1434 0054 80BD     		pop	{r7, pc}
 1435              	.L77:
 1436 0056 00BF     		.align	2
 1437              	.L76:
 1438 0058 00100140 		.word	1073811456
 1439 005c 00440040 		.word	1073759232
 1440 0060 00480040 		.word	1073760256
 1441 0064 004C0040 		.word	1073761280
 1442 0068 00500040 		.word	1073762304
 1443 006c 00140140 		.word	1073812480
 1444 0070 00000000 		.word	.LC0
 1445              		.cfi_endproc
 1446              	.LFE120:
 1448              		.section	.text.USART_SetAddress,"ax",%progbits
 1449              		.align	2
 1450              		.global	USART_SetAddress
 1451              		.thumb
 1452              		.thumb_func
 1454              	USART_SetAddress:
 1455              	.LFB121:
 562:App/STM32F4-Discovery/Libraries/STM32F4xx_StdPeriph_Driver/src/stm32f4xx_usart.c **** 
 563:App/STM32F4-Discovery/Libraries/STM32F4xx_StdPeriph_Driver/src/stm32f4xx_usart.c **** /**
 564:App/STM32F4-Discovery/Libraries/STM32F4xx_StdPeriph_Driver/src/stm32f4xx_usart.c ****   * @}
 565:App/STM32F4-Discovery/Libraries/STM32F4xx_StdPeriph_Driver/src/stm32f4xx_usart.c ****   */
 566:App/STM32F4-Discovery/Libraries/STM32F4xx_StdPeriph_Driver/src/stm32f4xx_usart.c **** 
 567:App/STM32F4-Discovery/Libraries/STM32F4xx_StdPeriph_Driver/src/stm32f4xx_usart.c **** /** @defgroup USART_Group3 MultiProcessor Communication functions
 568:App/STM32F4-Discovery/Libraries/STM32F4xx_StdPeriph_Driver/src/stm32f4xx_usart.c ****  *  @brief   Multi-Processor Communication functions 
 569:App/STM32F4-Discovery/Libraries/STM32F4xx_StdPeriph_Driver/src/stm32f4xx_usart.c ****  *
 570:App/STM32F4-Discovery/Libraries/STM32F4xx_StdPeriph_Driver/src/stm32f4xx_usart.c **** @verbatim   
 571:App/STM32F4-Discovery/Libraries/STM32F4xx_StdPeriph_Driver/src/stm32f4xx_usart.c ****  ===============================================================================
 572:App/STM32F4-Discovery/Libraries/STM32F4xx_StdPeriph_Driver/src/stm32f4xx_usart.c ****                     Multi-Processor Communication functions
 573:App/STM32F4-Discovery/Libraries/STM32F4xx_StdPeriph_Driver/src/stm32f4xx_usart.c ****  ===============================================================================  
 574:App/STM32F4-Discovery/Libraries/STM32F4xx_StdPeriph_Driver/src/stm32f4xx_usart.c **** 
 575:App/STM32F4-Discovery/Libraries/STM32F4xx_StdPeriph_Driver/src/stm32f4xx_usart.c ****   This subsection provides a set of functions allowing to manage the USART 
 576:App/STM32F4-Discovery/Libraries/STM32F4xx_StdPeriph_Driver/src/stm32f4xx_usart.c ****   multiprocessor communication.
 577:App/STM32F4-Discovery/Libraries/STM32F4xx_StdPeriph_Driver/src/stm32f4xx_usart.c ****   
 578:App/STM32F4-Discovery/Libraries/STM32F4xx_StdPeriph_Driver/src/stm32f4xx_usart.c ****   For instance one of the USARTs can be the master, its TX output is connected to 
 579:App/STM32F4-Discovery/Libraries/STM32F4xx_StdPeriph_Driver/src/stm32f4xx_usart.c ****   the RX input of the other USART. The others are slaves, their respective TX outputs 
 580:App/STM32F4-Discovery/Libraries/STM32F4xx_StdPeriph_Driver/src/stm32f4xx_usart.c ****   are logically ANDed together and connected to the RX input of the master.
 581:App/STM32F4-Discovery/Libraries/STM32F4xx_StdPeriph_Driver/src/stm32f4xx_usart.c **** 
 582:App/STM32F4-Discovery/Libraries/STM32F4xx_StdPeriph_Driver/src/stm32f4xx_usart.c ****   USART multiprocessor communication is possible through the following procedure:
 583:App/STM32F4-Discovery/Libraries/STM32F4xx_StdPeriph_Driver/src/stm32f4xx_usart.c ****      1. Program the Baud rate, Word length = 9 bits, Stop bits, Parity, Mode transmitter 
 584:App/STM32F4-Discovery/Libraries/STM32F4xx_StdPeriph_Driver/src/stm32f4xx_usart.c ****         or Mode receiver and hardware flow control values using the USART_Init()
 585:App/STM32F4-Discovery/Libraries/STM32F4xx_StdPeriph_Driver/src/stm32f4xx_usart.c ****         function.
 586:App/STM32F4-Discovery/Libraries/STM32F4xx_StdPeriph_Driver/src/stm32f4xx_usart.c ****      2. Configures the USART address using the USART_SetAddress() function.
 587:App/STM32F4-Discovery/Libraries/STM32F4xx_StdPeriph_Driver/src/stm32f4xx_usart.c ****      3. Configures the wake up method (USART_WakeUp_IdleLine or USART_WakeUp_AddressMark)
 588:App/STM32F4-Discovery/Libraries/STM32F4xx_StdPeriph_Driver/src/stm32f4xx_usart.c ****         using USART_WakeUpConfig() function only for the slaves.
 589:App/STM32F4-Discovery/Libraries/STM32F4xx_StdPeriph_Driver/src/stm32f4xx_usart.c ****      4. Enable the USART using the USART_Cmd() function.
 590:App/STM32F4-Discovery/Libraries/STM32F4xx_StdPeriph_Driver/src/stm32f4xx_usart.c ****      5. Enter the USART slaves in mute mode using USART_ReceiverWakeUpCmd() function.
 591:App/STM32F4-Discovery/Libraries/STM32F4xx_StdPeriph_Driver/src/stm32f4xx_usart.c **** 
 592:App/STM32F4-Discovery/Libraries/STM32F4xx_StdPeriph_Driver/src/stm32f4xx_usart.c ****   The USART Slave exit from mute mode when receive the wake up condition.
 593:App/STM32F4-Discovery/Libraries/STM32F4xx_StdPeriph_Driver/src/stm32f4xx_usart.c **** 
 594:App/STM32F4-Discovery/Libraries/STM32F4xx_StdPeriph_Driver/src/stm32f4xx_usart.c **** @endverbatim
 595:App/STM32F4-Discovery/Libraries/STM32F4xx_StdPeriph_Driver/src/stm32f4xx_usart.c ****   * @{
 596:App/STM32F4-Discovery/Libraries/STM32F4xx_StdPeriph_Driver/src/stm32f4xx_usart.c ****   */
 597:App/STM32F4-Discovery/Libraries/STM32F4xx_StdPeriph_Driver/src/stm32f4xx_usart.c **** 
 598:App/STM32F4-Discovery/Libraries/STM32F4xx_StdPeriph_Driver/src/stm32f4xx_usart.c **** /**
 599:App/STM32F4-Discovery/Libraries/STM32F4xx_StdPeriph_Driver/src/stm32f4xx_usart.c ****   * @brief  Sets the address of the USART node.
 600:App/STM32F4-Discovery/Libraries/STM32F4xx_StdPeriph_Driver/src/stm32f4xx_usart.c ****   * @param  USARTx: where x can be 1, 2, 3, 4, 5 or 6 to select the USART or 
 601:App/STM32F4-Discovery/Libraries/STM32F4xx_StdPeriph_Driver/src/stm32f4xx_usart.c ****   *         UART peripheral.
 602:App/STM32F4-Discovery/Libraries/STM32F4xx_StdPeriph_Driver/src/stm32f4xx_usart.c ****   * @param  USART_Address: Indicates the address of the USART node.
 603:App/STM32F4-Discovery/Libraries/STM32F4xx_StdPeriph_Driver/src/stm32f4xx_usart.c ****   * @retval None
 604:App/STM32F4-Discovery/Libraries/STM32F4xx_StdPeriph_Driver/src/stm32f4xx_usart.c ****   */
 605:App/STM32F4-Discovery/Libraries/STM32F4xx_StdPeriph_Driver/src/stm32f4xx_usart.c **** void USART_SetAddress(USART_TypeDef* USARTx, uint8_t USART_Address)
 606:App/STM32F4-Discovery/Libraries/STM32F4xx_StdPeriph_Driver/src/stm32f4xx_usart.c **** {
 1456              		.loc 1 606 0
 1457              		.cfi_startproc
 1458              		@ args = 0, pretend = 0, frame = 8
 1459              		@ frame_needed = 1, uses_anonymous_args = 0
 1460 0000 80B5     		push	{r7, lr}
 1461              	.LCFI33:
 1462              		.cfi_def_cfa_offset 8
 1463              		.cfi_offset 7, -8
 1464              		.cfi_offset 14, -4
 1465 0002 82B0     		sub	sp, sp, #8
 1466              	.LCFI34:
 1467              		.cfi_def_cfa_offset 16
 1468 0004 00AF     		add	r7, sp, #0
 1469              	.LCFI35:
 1470              		.cfi_def_cfa_register 7
 1471 0006 7860     		str	r0, [r7, #4]
 1472 0008 0B46     		mov	r3, r1
 1473 000a FB70     		strb	r3, [r7, #3]
 607:App/STM32F4-Discovery/Libraries/STM32F4xx_StdPeriph_Driver/src/stm32f4xx_usart.c ****   /* Check the parameters */
 608:App/STM32F4-Discovery/Libraries/STM32F4xx_StdPeriph_Driver/src/stm32f4xx_usart.c ****   assert_param(IS_USART_ALL_PERIPH(USARTx));
 1474              		.loc 1 608 0
 1475 000c 7A68     		ldr	r2, [r7, #4]
 1476 000e 1C4B     		ldr	r3, .L81
 1477 0010 9A42     		cmp	r2, r3
 1478 0012 18D0     		beq	.L79
 1479              		.loc 1 608 0 is_stmt 0 discriminator 1
 1480 0014 7A68     		ldr	r2, [r7, #4]
 1481 0016 1B4B     		ldr	r3, .L81+4
 1482 0018 9A42     		cmp	r2, r3
 1483 001a 14D0     		beq	.L79
 1484 001c 7A68     		ldr	r2, [r7, #4]
 1485 001e 1A4B     		ldr	r3, .L81+8
 1486 0020 9A42     		cmp	r2, r3
 1487 0022 10D0     		beq	.L79
 1488 0024 7A68     		ldr	r2, [r7, #4]
 1489 0026 194B     		ldr	r3, .L81+12
 1490 0028 9A42     		cmp	r2, r3
 1491 002a 0CD0     		beq	.L79
 1492 002c 7A68     		ldr	r2, [r7, #4]
 1493 002e 184B     		ldr	r3, .L81+16
 1494 0030 9A42     		cmp	r2, r3
 1495 0032 08D0     		beq	.L79
 1496 0034 7A68     		ldr	r2, [r7, #4]
 1497 0036 174B     		ldr	r3, .L81+20
 1498 0038 9A42     		cmp	r2, r3
 1499 003a 04D0     		beq	.L79
 1500 003c 1648     		ldr	r0, .L81+24
 1501 003e 4FF41871 		mov	r1, #608
 1502 0042 FFF7FEFF 		bl	assert_failed
 1503              	.L79:
 609:App/STM32F4-Discovery/Libraries/STM32F4xx_StdPeriph_Driver/src/stm32f4xx_usart.c ****   assert_param(IS_USART_ADDRESS(USART_Address)); 
 1504              		.loc 1 609 0 is_stmt 1
 1505 0046 FB78     		ldrb	r3, [r7, #3]	@ zero_extendqisi2
 1506 0048 0F2B     		cmp	r3, #15
 1507 004a 04D9     		bls	.L80
 1508              		.loc 1 609 0 is_stmt 0 discriminator 1
 1509 004c 1248     		ldr	r0, .L81+24
 1510 004e 40F26121 		movw	r1, #609
 1511 0052 FFF7FEFF 		bl	assert_failed
 1512              	.L80:
 610:App/STM32F4-Discovery/Libraries/STM32F4xx_StdPeriph_Driver/src/stm32f4xx_usart.c ****     
 611:App/STM32F4-Discovery/Libraries/STM32F4xx_StdPeriph_Driver/src/stm32f4xx_usart.c ****   /* Clear the USART address */
 612:App/STM32F4-Discovery/Libraries/STM32F4xx_StdPeriph_Driver/src/stm32f4xx_usart.c ****   USARTx->CR2 &= (uint16_t)~((uint16_t)USART_CR2_ADD);
 1513              		.loc 1 612 0 is_stmt 1
 1514 0056 7B68     		ldr	r3, [r7, #4]
 1515 0058 1B8A     		ldrh	r3, [r3, #16]	@ movhi
 1516 005a 9BB2     		uxth	r3, r3
 1517 005c 23F00F03 		bic	r3, r3, #15
 1518 0060 9AB2     		uxth	r2, r3
 1519 0062 7B68     		ldr	r3, [r7, #4]
 1520 0064 1A82     		strh	r2, [r3, #16]	@ movhi
 613:App/STM32F4-Discovery/Libraries/STM32F4xx_StdPeriph_Driver/src/stm32f4xx_usart.c ****   /* Set the USART address node */
 614:App/STM32F4-Discovery/Libraries/STM32F4xx_StdPeriph_Driver/src/stm32f4xx_usart.c ****   USARTx->CR2 |= USART_Address;
 1521              		.loc 1 614 0
 1522 0066 7B68     		ldr	r3, [r7, #4]
 1523 0068 1B8A     		ldrh	r3, [r3, #16]	@ movhi
 1524 006a 9AB2     		uxth	r2, r3
 1525 006c FB78     		ldrb	r3, [r7, #3]	@ zero_extendqisi2
 1526 006e 9BB2     		uxth	r3, r3
 1527 0070 1343     		orrs	r3, r3, r2
 1528 0072 9AB2     		uxth	r2, r3
 1529 0074 7B68     		ldr	r3, [r7, #4]
 1530 0076 1A82     		strh	r2, [r3, #16]	@ movhi
 615:App/STM32F4-Discovery/Libraries/STM32F4xx_StdPeriph_Driver/src/stm32f4xx_usart.c **** }
 1531              		.loc 1 615 0
 1532 0078 0837     		adds	r7, r7, #8
 1533 007a BD46     		mov	sp, r7
 1534              		@ sp needed
 1535 007c 80BD     		pop	{r7, pc}
 1536              	.L82:
 1537 007e 00BF     		.align	2
 1538              	.L81:
 1539 0080 00100140 		.word	1073811456
 1540 0084 00440040 		.word	1073759232
 1541 0088 00480040 		.word	1073760256
 1542 008c 004C0040 		.word	1073761280
 1543 0090 00500040 		.word	1073762304
 1544 0094 00140140 		.word	1073812480
 1545 0098 00000000 		.word	.LC0
 1546              		.cfi_endproc
 1547              	.LFE121:
 1549              		.section	.text.USART_ReceiverWakeUpCmd,"ax",%progbits
 1550              		.align	2
 1551              		.global	USART_ReceiverWakeUpCmd
 1552              		.thumb
 1553              		.thumb_func
 1555              	USART_ReceiverWakeUpCmd:
 1556              	.LFB122:
 616:App/STM32F4-Discovery/Libraries/STM32F4xx_StdPeriph_Driver/src/stm32f4xx_usart.c **** 
 617:App/STM32F4-Discovery/Libraries/STM32F4xx_StdPeriph_Driver/src/stm32f4xx_usart.c **** /**
 618:App/STM32F4-Discovery/Libraries/STM32F4xx_StdPeriph_Driver/src/stm32f4xx_usart.c ****   * @brief  Determines if the USART is in mute mode or not.
 619:App/STM32F4-Discovery/Libraries/STM32F4xx_StdPeriph_Driver/src/stm32f4xx_usart.c ****   * @param  USARTx: where x can be 1, 2, 3, 4, 5 or 6 to select the USART or 
 620:App/STM32F4-Discovery/Libraries/STM32F4xx_StdPeriph_Driver/src/stm32f4xx_usart.c ****   *         UART peripheral.
 621:App/STM32F4-Discovery/Libraries/STM32F4xx_StdPeriph_Driver/src/stm32f4xx_usart.c ****   * @param  NewState: new state of the USART mute mode.
 622:App/STM32F4-Discovery/Libraries/STM32F4xx_StdPeriph_Driver/src/stm32f4xx_usart.c ****   *          This parameter can be: ENABLE or DISABLE.
 623:App/STM32F4-Discovery/Libraries/STM32F4xx_StdPeriph_Driver/src/stm32f4xx_usart.c ****   * @retval None
 624:App/STM32F4-Discovery/Libraries/STM32F4xx_StdPeriph_Driver/src/stm32f4xx_usart.c ****   */
 625:App/STM32F4-Discovery/Libraries/STM32F4xx_StdPeriph_Driver/src/stm32f4xx_usart.c **** void USART_ReceiverWakeUpCmd(USART_TypeDef* USARTx, FunctionalState NewState)
 626:App/STM32F4-Discovery/Libraries/STM32F4xx_StdPeriph_Driver/src/stm32f4xx_usart.c **** {
 1557              		.loc 1 626 0
 1558              		.cfi_startproc
 1559              		@ args = 0, pretend = 0, frame = 8
 1560              		@ frame_needed = 1, uses_anonymous_args = 0
 1561 0000 80B5     		push	{r7, lr}
 1562              	.LCFI36:
 1563              		.cfi_def_cfa_offset 8
 1564              		.cfi_offset 7, -8
 1565              		.cfi_offset 14, -4
 1566 0002 82B0     		sub	sp, sp, #8
 1567              	.LCFI37:
 1568              		.cfi_def_cfa_offset 16
 1569 0004 00AF     		add	r7, sp, #0
 1570              	.LCFI38:
 1571              		.cfi_def_cfa_register 7
 1572 0006 7860     		str	r0, [r7, #4]
 1573 0008 0B46     		mov	r3, r1
 1574 000a FB70     		strb	r3, [r7, #3]
 627:App/STM32F4-Discovery/Libraries/STM32F4xx_StdPeriph_Driver/src/stm32f4xx_usart.c ****   /* Check the parameters */
 628:App/STM32F4-Discovery/Libraries/STM32F4xx_StdPeriph_Driver/src/stm32f4xx_usart.c ****   assert_param(IS_USART_ALL_PERIPH(USARTx));
 1575              		.loc 1 628 0
 1576 000c 7A68     		ldr	r2, [r7, #4]
 1577 000e 1F4B     		ldr	r3, .L88
 1578 0010 9A42     		cmp	r2, r3
 1579 0012 18D0     		beq	.L84
 1580              		.loc 1 628 0 is_stmt 0 discriminator 1
 1581 0014 7A68     		ldr	r2, [r7, #4]
 1582 0016 1E4B     		ldr	r3, .L88+4
 1583 0018 9A42     		cmp	r2, r3
 1584 001a 14D0     		beq	.L84
 1585 001c 7A68     		ldr	r2, [r7, #4]
 1586 001e 1D4B     		ldr	r3, .L88+8
 1587 0020 9A42     		cmp	r2, r3
 1588 0022 10D0     		beq	.L84
 1589 0024 7A68     		ldr	r2, [r7, #4]
 1590 0026 1C4B     		ldr	r3, .L88+12
 1591 0028 9A42     		cmp	r2, r3
 1592 002a 0CD0     		beq	.L84
 1593 002c 7A68     		ldr	r2, [r7, #4]
 1594 002e 1B4B     		ldr	r3, .L88+16
 1595 0030 9A42     		cmp	r2, r3
 1596 0032 08D0     		beq	.L84
 1597 0034 7A68     		ldr	r2, [r7, #4]
 1598 0036 1A4B     		ldr	r3, .L88+20
 1599 0038 9A42     		cmp	r2, r3
 1600 003a 04D0     		beq	.L84
 1601 003c 1948     		ldr	r0, .L88+24
 1602 003e 4FF41D71 		mov	r1, #628
 1603 0042 FFF7FEFF 		bl	assert_failed
 1604              	.L84:
 629:App/STM32F4-Discovery/Libraries/STM32F4xx_StdPeriph_Driver/src/stm32f4xx_usart.c ****   assert_param(IS_FUNCTIONAL_STATE(NewState)); 
 1605              		.loc 1 629 0 is_stmt 1
 1606 0046 FB78     		ldrb	r3, [r7, #3]	@ zero_extendqisi2
 1607 0048 002B     		cmp	r3, #0
 1608 004a 07D0     		beq	.L85
 1609              		.loc 1 629 0 is_stmt 0 discriminator 1
 1610 004c FB78     		ldrb	r3, [r7, #3]	@ zero_extendqisi2
 1611 004e 012B     		cmp	r3, #1
 1612 0050 04D0     		beq	.L85
 1613 0052 1448     		ldr	r0, .L88+24
 1614 0054 40F27521 		movw	r1, #629
 1615 0058 FFF7FEFF 		bl	assert_failed
 1616              	.L85:
 630:App/STM32F4-Discovery/Libraries/STM32F4xx_StdPeriph_Driver/src/stm32f4xx_usart.c ****   
 631:App/STM32F4-Discovery/Libraries/STM32F4xx_StdPeriph_Driver/src/stm32f4xx_usart.c ****   if (NewState != DISABLE)
 1617              		.loc 1 631 0 is_stmt 1
 1618 005c FB78     		ldrb	r3, [r7, #3]	@ zero_extendqisi2
 1619 005e 002B     		cmp	r3, #0
 1620 0060 08D0     		beq	.L86
 632:App/STM32F4-Discovery/Libraries/STM32F4xx_StdPeriph_Driver/src/stm32f4xx_usart.c ****   {
 633:App/STM32F4-Discovery/Libraries/STM32F4xx_StdPeriph_Driver/src/stm32f4xx_usart.c ****     /* Enable the USART mute mode  by setting the RWU bit in the CR1 register */
 634:App/STM32F4-Discovery/Libraries/STM32F4xx_StdPeriph_Driver/src/stm32f4xx_usart.c ****     USARTx->CR1 |= USART_CR1_RWU;
 1621              		.loc 1 634 0
 1622 0062 7B68     		ldr	r3, [r7, #4]
 1623 0064 9B89     		ldrh	r3, [r3, #12]	@ movhi
 1624 0066 9BB2     		uxth	r3, r3
 1625 0068 43F00203 		orr	r3, r3, #2
 1626 006c 9AB2     		uxth	r2, r3
 1627 006e 7B68     		ldr	r3, [r7, #4]
 1628 0070 9A81     		strh	r2, [r3, #12]	@ movhi
 1629 0072 07E0     		b	.L83
 1630              	.L86:
 635:App/STM32F4-Discovery/Libraries/STM32F4xx_StdPeriph_Driver/src/stm32f4xx_usart.c ****   }
 636:App/STM32F4-Discovery/Libraries/STM32F4xx_StdPeriph_Driver/src/stm32f4xx_usart.c ****   else
 637:App/STM32F4-Discovery/Libraries/STM32F4xx_StdPeriph_Driver/src/stm32f4xx_usart.c ****   {
 638:App/STM32F4-Discovery/Libraries/STM32F4xx_StdPeriph_Driver/src/stm32f4xx_usart.c ****     /* Disable the USART mute mode by clearing the RWU bit in the CR1 register */
 639:App/STM32F4-Discovery/Libraries/STM32F4xx_StdPeriph_Driver/src/stm32f4xx_usart.c ****     USARTx->CR1 &= (uint16_t)~((uint16_t)USART_CR1_RWU);
 1631              		.loc 1 639 0
 1632 0074 7B68     		ldr	r3, [r7, #4]
 1633 0076 9B89     		ldrh	r3, [r3, #12]	@ movhi
 1634 0078 9BB2     		uxth	r3, r3
 1635 007a 23F00203 		bic	r3, r3, #2
 1636 007e 9AB2     		uxth	r2, r3
 1637 0080 7B68     		ldr	r3, [r7, #4]
 1638 0082 9A81     		strh	r2, [r3, #12]	@ movhi
 1639              	.L83:
 640:App/STM32F4-Discovery/Libraries/STM32F4xx_StdPeriph_Driver/src/stm32f4xx_usart.c ****   }
 641:App/STM32F4-Discovery/Libraries/STM32F4xx_StdPeriph_Driver/src/stm32f4xx_usart.c **** }
 1640              		.loc 1 641 0
 1641 0084 0837     		adds	r7, r7, #8
 1642 0086 BD46     		mov	sp, r7
 1643              		@ sp needed
 1644 0088 80BD     		pop	{r7, pc}
 1645              	.L89:
 1646 008a 00BF     		.align	2
 1647              	.L88:
 1648 008c 00100140 		.word	1073811456
 1649 0090 00440040 		.word	1073759232
 1650 0094 00480040 		.word	1073760256
 1651 0098 004C0040 		.word	1073761280
 1652 009c 00500040 		.word	1073762304
 1653 00a0 00140140 		.word	1073812480
 1654 00a4 00000000 		.word	.LC0
 1655              		.cfi_endproc
 1656              	.LFE122:
 1658              		.section	.text.USART_WakeUpConfig,"ax",%progbits
 1659              		.align	2
 1660              		.global	USART_WakeUpConfig
 1661              		.thumb
 1662              		.thumb_func
 1664              	USART_WakeUpConfig:
 1665              	.LFB123:
 642:App/STM32F4-Discovery/Libraries/STM32F4xx_StdPeriph_Driver/src/stm32f4xx_usart.c **** /**
 643:App/STM32F4-Discovery/Libraries/STM32F4xx_StdPeriph_Driver/src/stm32f4xx_usart.c ****   * @brief  Selects the USART WakeUp method.
 644:App/STM32F4-Discovery/Libraries/STM32F4xx_StdPeriph_Driver/src/stm32f4xx_usart.c ****   * @param  USARTx: where x can be 1, 2, 3, 4, 5 or 6 to select the USART or 
 645:App/STM32F4-Discovery/Libraries/STM32F4xx_StdPeriph_Driver/src/stm32f4xx_usart.c ****   *         UART peripheral.
 646:App/STM32F4-Discovery/Libraries/STM32F4xx_StdPeriph_Driver/src/stm32f4xx_usart.c ****   * @param  USART_WakeUp: specifies the USART wakeup method.
 647:App/STM32F4-Discovery/Libraries/STM32F4xx_StdPeriph_Driver/src/stm32f4xx_usart.c ****   *          This parameter can be one of the following values:
 648:App/STM32F4-Discovery/Libraries/STM32F4xx_StdPeriph_Driver/src/stm32f4xx_usart.c ****   *            @arg USART_WakeUp_IdleLine: WakeUp by an idle line detection
 649:App/STM32F4-Discovery/Libraries/STM32F4xx_StdPeriph_Driver/src/stm32f4xx_usart.c ****   *            @arg USART_WakeUp_AddressMark: WakeUp by an address mark
 650:App/STM32F4-Discovery/Libraries/STM32F4xx_StdPeriph_Driver/src/stm32f4xx_usart.c ****   * @retval None
 651:App/STM32F4-Discovery/Libraries/STM32F4xx_StdPeriph_Driver/src/stm32f4xx_usart.c ****   */
 652:App/STM32F4-Discovery/Libraries/STM32F4xx_StdPeriph_Driver/src/stm32f4xx_usart.c **** void USART_WakeUpConfig(USART_TypeDef* USARTx, uint16_t USART_WakeUp)
 653:App/STM32F4-Discovery/Libraries/STM32F4xx_StdPeriph_Driver/src/stm32f4xx_usart.c **** {
 1666              		.loc 1 653 0
 1667              		.cfi_startproc
 1668              		@ args = 0, pretend = 0, frame = 8
 1669              		@ frame_needed = 1, uses_anonymous_args = 0
 1670 0000 80B5     		push	{r7, lr}
 1671              	.LCFI39:
 1672              		.cfi_def_cfa_offset 8
 1673              		.cfi_offset 7, -8
 1674              		.cfi_offset 14, -4
 1675 0002 82B0     		sub	sp, sp, #8
 1676              	.LCFI40:
 1677              		.cfi_def_cfa_offset 16
 1678 0004 00AF     		add	r7, sp, #0
 1679              	.LCFI41:
 1680              		.cfi_def_cfa_register 7
 1681 0006 7860     		str	r0, [r7, #4]
 1682 0008 0B46     		mov	r3, r1
 1683 000a 7B80     		strh	r3, [r7, #2]	@ movhi
 654:App/STM32F4-Discovery/Libraries/STM32F4xx_StdPeriph_Driver/src/stm32f4xx_usart.c ****   /* Check the parameters */
 655:App/STM32F4-Discovery/Libraries/STM32F4xx_StdPeriph_Driver/src/stm32f4xx_usart.c ****   assert_param(IS_USART_ALL_PERIPH(USARTx));
 1684              		.loc 1 655 0
 1685 000c 7A68     		ldr	r2, [r7, #4]
 1686 000e 1D4B     		ldr	r3, .L93
 1687 0010 9A42     		cmp	r2, r3
 1688 0012 18D0     		beq	.L91
 1689              		.loc 1 655 0 is_stmt 0 discriminator 1
 1690 0014 7A68     		ldr	r2, [r7, #4]
 1691 0016 1C4B     		ldr	r3, .L93+4
 1692 0018 9A42     		cmp	r2, r3
 1693 001a 14D0     		beq	.L91
 1694 001c 7A68     		ldr	r2, [r7, #4]
 1695 001e 1B4B     		ldr	r3, .L93+8
 1696 0020 9A42     		cmp	r2, r3
 1697 0022 10D0     		beq	.L91
 1698 0024 7A68     		ldr	r2, [r7, #4]
 1699 0026 1A4B     		ldr	r3, .L93+12
 1700 0028 9A42     		cmp	r2, r3
 1701 002a 0CD0     		beq	.L91
 1702 002c 7A68     		ldr	r2, [r7, #4]
 1703 002e 194B     		ldr	r3, .L93+16
 1704 0030 9A42     		cmp	r2, r3
 1705 0032 08D0     		beq	.L91
 1706 0034 7A68     		ldr	r2, [r7, #4]
 1707 0036 184B     		ldr	r3, .L93+20
 1708 0038 9A42     		cmp	r2, r3
 1709 003a 04D0     		beq	.L91
 1710 003c 1748     		ldr	r0, .L93+24
 1711 003e 40F28F21 		movw	r1, #655
 1712 0042 FFF7FEFF 		bl	assert_failed
 1713              	.L91:
 656:App/STM32F4-Discovery/Libraries/STM32F4xx_StdPeriph_Driver/src/stm32f4xx_usart.c ****   assert_param(IS_USART_WAKEUP(USART_WakeUp));
 1714              		.loc 1 656 0 is_stmt 1
 1715 0046 7B88     		ldrh	r3, [r7, #2]
 1716 0048 002B     		cmp	r3, #0
 1717 004a 08D0     		beq	.L92
 1718              		.loc 1 656 0 is_stmt 0 discriminator 1
 1719 004c 7B88     		ldrh	r3, [r7, #2]
 1720 004e B3F5006F 		cmp	r3, #2048
 1721 0052 04D0     		beq	.L92
 1722 0054 1148     		ldr	r0, .L93+24
 1723 0056 4FF42471 		mov	r1, #656
 1724 005a FFF7FEFF 		bl	assert_failed
 1725              	.L92:
 657:App/STM32F4-Discovery/Libraries/STM32F4xx_StdPeriph_Driver/src/stm32f4xx_usart.c ****   
 658:App/STM32F4-Discovery/Libraries/STM32F4xx_StdPeriph_Driver/src/stm32f4xx_usart.c ****   USARTx->CR1 &= (uint16_t)~((uint16_t)USART_CR1_WAKE);
 1726              		.loc 1 658 0 is_stmt 1
 1727 005e 7B68     		ldr	r3, [r7, #4]
 1728 0060 9B89     		ldrh	r3, [r3, #12]	@ movhi
 1729 0062 9BB2     		uxth	r3, r3
 1730 0064 23F40063 		bic	r3, r3, #2048
 1731 0068 9AB2     		uxth	r2, r3
 1732 006a 7B68     		ldr	r3, [r7, #4]
 1733 006c 9A81     		strh	r2, [r3, #12]	@ movhi
 659:App/STM32F4-Discovery/Libraries/STM32F4xx_StdPeriph_Driver/src/stm32f4xx_usart.c ****   USARTx->CR1 |= USART_WakeUp;
 1734              		.loc 1 659 0
 1735 006e 7B68     		ldr	r3, [r7, #4]
 1736 0070 9B89     		ldrh	r3, [r3, #12]	@ movhi
 1737 0072 9AB2     		uxth	r2, r3
 1738 0074 7B88     		ldrh	r3, [r7, #2]	@ movhi
 1739 0076 1343     		orrs	r3, r3, r2
 1740 0078 9AB2     		uxth	r2, r3
 1741 007a 7B68     		ldr	r3, [r7, #4]
 1742 007c 9A81     		strh	r2, [r3, #12]	@ movhi
 660:App/STM32F4-Discovery/Libraries/STM32F4xx_StdPeriph_Driver/src/stm32f4xx_usart.c **** }
 1743              		.loc 1 660 0
 1744 007e 0837     		adds	r7, r7, #8
 1745 0080 BD46     		mov	sp, r7
 1746              		@ sp needed
 1747 0082 80BD     		pop	{r7, pc}
 1748              	.L94:
 1749              		.align	2
 1750              	.L93:
 1751 0084 00100140 		.word	1073811456
 1752 0088 00440040 		.word	1073759232
 1753 008c 00480040 		.word	1073760256
 1754 0090 004C0040 		.word	1073761280
 1755 0094 00500040 		.word	1073762304
 1756 0098 00140140 		.word	1073812480
 1757 009c 00000000 		.word	.LC0
 1758              		.cfi_endproc
 1759              	.LFE123:
 1761              		.section	.text.USART_LINBreakDetectLengthConfig,"ax",%progbits
 1762              		.align	2
 1763              		.global	USART_LINBreakDetectLengthConfig
 1764              		.thumb
 1765              		.thumb_func
 1767              	USART_LINBreakDetectLengthConfig:
 1768              	.LFB124:
 661:App/STM32F4-Discovery/Libraries/STM32F4xx_StdPeriph_Driver/src/stm32f4xx_usart.c **** 
 662:App/STM32F4-Discovery/Libraries/STM32F4xx_StdPeriph_Driver/src/stm32f4xx_usart.c **** /**
 663:App/STM32F4-Discovery/Libraries/STM32F4xx_StdPeriph_Driver/src/stm32f4xx_usart.c ****   * @}
 664:App/STM32F4-Discovery/Libraries/STM32F4xx_StdPeriph_Driver/src/stm32f4xx_usart.c ****   */
 665:App/STM32F4-Discovery/Libraries/STM32F4xx_StdPeriph_Driver/src/stm32f4xx_usart.c **** 
 666:App/STM32F4-Discovery/Libraries/STM32F4xx_StdPeriph_Driver/src/stm32f4xx_usart.c **** /** @defgroup USART_Group4 LIN mode functions
 667:App/STM32F4-Discovery/Libraries/STM32F4xx_StdPeriph_Driver/src/stm32f4xx_usart.c ****  *  @brief   LIN mode functions 
 668:App/STM32F4-Discovery/Libraries/STM32F4xx_StdPeriph_Driver/src/stm32f4xx_usart.c ****  *
 669:App/STM32F4-Discovery/Libraries/STM32F4xx_StdPeriph_Driver/src/stm32f4xx_usart.c **** @verbatim   
 670:App/STM32F4-Discovery/Libraries/STM32F4xx_StdPeriph_Driver/src/stm32f4xx_usart.c ****  ===============================================================================
 671:App/STM32F4-Discovery/Libraries/STM32F4xx_StdPeriph_Driver/src/stm32f4xx_usart.c ****                                 LIN mode functions
 672:App/STM32F4-Discovery/Libraries/STM32F4xx_StdPeriph_Driver/src/stm32f4xx_usart.c ****  ===============================================================================  
 673:App/STM32F4-Discovery/Libraries/STM32F4xx_StdPeriph_Driver/src/stm32f4xx_usart.c **** 
 674:App/STM32F4-Discovery/Libraries/STM32F4xx_StdPeriph_Driver/src/stm32f4xx_usart.c ****   This subsection provides a set of functions allowing to manage the USART LIN 
 675:App/STM32F4-Discovery/Libraries/STM32F4xx_StdPeriph_Driver/src/stm32f4xx_usart.c ****   Mode communication.
 676:App/STM32F4-Discovery/Libraries/STM32F4xx_StdPeriph_Driver/src/stm32f4xx_usart.c ****   
 677:App/STM32F4-Discovery/Libraries/STM32F4xx_StdPeriph_Driver/src/stm32f4xx_usart.c ****   In LIN mode, 8-bit data format with 1 stop bit is required in accordance with 
 678:App/STM32F4-Discovery/Libraries/STM32F4xx_StdPeriph_Driver/src/stm32f4xx_usart.c ****   the LIN standard.
 679:App/STM32F4-Discovery/Libraries/STM32F4xx_StdPeriph_Driver/src/stm32f4xx_usart.c **** 
 680:App/STM32F4-Discovery/Libraries/STM32F4xx_StdPeriph_Driver/src/stm32f4xx_usart.c ****   Only this LIN Feature is supported by the USART IP:
 681:App/STM32F4-Discovery/Libraries/STM32F4xx_StdPeriph_Driver/src/stm32f4xx_usart.c ****     - LIN Master Synchronous Break send capability and LIN slave break detection
 682:App/STM32F4-Discovery/Libraries/STM32F4xx_StdPeriph_Driver/src/stm32f4xx_usart.c ****       capability :  13-bit break generation and 10/11 bit break detection
 683:App/STM32F4-Discovery/Libraries/STM32F4xx_StdPeriph_Driver/src/stm32f4xx_usart.c **** 
 684:App/STM32F4-Discovery/Libraries/STM32F4xx_StdPeriph_Driver/src/stm32f4xx_usart.c **** 
 685:App/STM32F4-Discovery/Libraries/STM32F4xx_StdPeriph_Driver/src/stm32f4xx_usart.c ****   USART LIN Master transmitter communication is possible through the following procedure:
 686:App/STM32F4-Discovery/Libraries/STM32F4xx_StdPeriph_Driver/src/stm32f4xx_usart.c ****      1. Program the Baud rate, Word length = 8bits, Stop bits = 1bit, Parity, 
 687:App/STM32F4-Discovery/Libraries/STM32F4xx_StdPeriph_Driver/src/stm32f4xx_usart.c ****         Mode transmitter or Mode receiver and hardware flow control values using 
 688:App/STM32F4-Discovery/Libraries/STM32F4xx_StdPeriph_Driver/src/stm32f4xx_usart.c ****         the USART_Init() function.
 689:App/STM32F4-Discovery/Libraries/STM32F4xx_StdPeriph_Driver/src/stm32f4xx_usart.c ****      2. Enable the USART using the USART_Cmd() function.
 690:App/STM32F4-Discovery/Libraries/STM32F4xx_StdPeriph_Driver/src/stm32f4xx_usart.c ****      3. Enable the LIN mode using the USART_LINCmd() function.
 691:App/STM32F4-Discovery/Libraries/STM32F4xx_StdPeriph_Driver/src/stm32f4xx_usart.c ****      4. Send the break character using USART_SendBreak() function.
 692:App/STM32F4-Discovery/Libraries/STM32F4xx_StdPeriph_Driver/src/stm32f4xx_usart.c **** 
 693:App/STM32F4-Discovery/Libraries/STM32F4xx_StdPeriph_Driver/src/stm32f4xx_usart.c ****   USART LIN Master receiver communication is possible through the following procedure:
 694:App/STM32F4-Discovery/Libraries/STM32F4xx_StdPeriph_Driver/src/stm32f4xx_usart.c ****      1. Program the Baud rate, Word length = 8bits, Stop bits = 1bit, Parity, 
 695:App/STM32F4-Discovery/Libraries/STM32F4xx_StdPeriph_Driver/src/stm32f4xx_usart.c ****         Mode transmitter or Mode receiver and hardware flow control values using 
 696:App/STM32F4-Discovery/Libraries/STM32F4xx_StdPeriph_Driver/src/stm32f4xx_usart.c ****         the USART_Init() function.
 697:App/STM32F4-Discovery/Libraries/STM32F4xx_StdPeriph_Driver/src/stm32f4xx_usart.c ****      2. Enable the USART using the USART_Cmd() function.
 698:App/STM32F4-Discovery/Libraries/STM32F4xx_StdPeriph_Driver/src/stm32f4xx_usart.c ****      3. Configures the break detection length using the USART_LINBreakDetectLengthConfig()
 699:App/STM32F4-Discovery/Libraries/STM32F4xx_StdPeriph_Driver/src/stm32f4xx_usart.c ****         function.
 700:App/STM32F4-Discovery/Libraries/STM32F4xx_StdPeriph_Driver/src/stm32f4xx_usart.c ****      4. Enable the LIN mode using the USART_LINCmd() function.
 701:App/STM32F4-Discovery/Libraries/STM32F4xx_StdPeriph_Driver/src/stm32f4xx_usart.c **** 
 702:App/STM32F4-Discovery/Libraries/STM32F4xx_StdPeriph_Driver/src/stm32f4xx_usart.c **** 
 703:App/STM32F4-Discovery/Libraries/STM32F4xx_StdPeriph_Driver/src/stm32f4xx_usart.c **** @note In LIN mode, the following bits must be kept cleared:
 704:App/STM32F4-Discovery/Libraries/STM32F4xx_StdPeriph_Driver/src/stm32f4xx_usart.c ****         - CLKEN in the USART_CR2 register,
 705:App/STM32F4-Discovery/Libraries/STM32F4xx_StdPeriph_Driver/src/stm32f4xx_usart.c ****         - STOP[1:0], SCEN, HDSEL and IREN in the USART_CR3 register.
 706:App/STM32F4-Discovery/Libraries/STM32F4xx_StdPeriph_Driver/src/stm32f4xx_usart.c **** 
 707:App/STM32F4-Discovery/Libraries/STM32F4xx_StdPeriph_Driver/src/stm32f4xx_usart.c **** @endverbatim
 708:App/STM32F4-Discovery/Libraries/STM32F4xx_StdPeriph_Driver/src/stm32f4xx_usart.c ****   * @{
 709:App/STM32F4-Discovery/Libraries/STM32F4xx_StdPeriph_Driver/src/stm32f4xx_usart.c ****   */
 710:App/STM32F4-Discovery/Libraries/STM32F4xx_StdPeriph_Driver/src/stm32f4xx_usart.c **** 
 711:App/STM32F4-Discovery/Libraries/STM32F4xx_StdPeriph_Driver/src/stm32f4xx_usart.c **** /**
 712:App/STM32F4-Discovery/Libraries/STM32F4xx_StdPeriph_Driver/src/stm32f4xx_usart.c ****   * @brief  Sets the USART LIN Break detection length.
 713:App/STM32F4-Discovery/Libraries/STM32F4xx_StdPeriph_Driver/src/stm32f4xx_usart.c ****   * @param  USARTx: where x can be 1, 2, 3, 4, 5 or 6 to select the USART or 
 714:App/STM32F4-Discovery/Libraries/STM32F4xx_StdPeriph_Driver/src/stm32f4xx_usart.c ****   *         UART peripheral.
 715:App/STM32F4-Discovery/Libraries/STM32F4xx_StdPeriph_Driver/src/stm32f4xx_usart.c ****   * @param  USART_LINBreakDetectLength: specifies the LIN break detection length.
 716:App/STM32F4-Discovery/Libraries/STM32F4xx_StdPeriph_Driver/src/stm32f4xx_usart.c ****   *          This parameter can be one of the following values:
 717:App/STM32F4-Discovery/Libraries/STM32F4xx_StdPeriph_Driver/src/stm32f4xx_usart.c ****   *            @arg USART_LINBreakDetectLength_10b: 10-bit break detection
 718:App/STM32F4-Discovery/Libraries/STM32F4xx_StdPeriph_Driver/src/stm32f4xx_usart.c ****   *            @arg USART_LINBreakDetectLength_11b: 11-bit break detection
 719:App/STM32F4-Discovery/Libraries/STM32F4xx_StdPeriph_Driver/src/stm32f4xx_usart.c ****   * @retval None
 720:App/STM32F4-Discovery/Libraries/STM32F4xx_StdPeriph_Driver/src/stm32f4xx_usart.c ****   */
 721:App/STM32F4-Discovery/Libraries/STM32F4xx_StdPeriph_Driver/src/stm32f4xx_usart.c **** void USART_LINBreakDetectLengthConfig(USART_TypeDef* USARTx, uint16_t USART_LINBreakDetectLength)
 722:App/STM32F4-Discovery/Libraries/STM32F4xx_StdPeriph_Driver/src/stm32f4xx_usart.c **** {
 1769              		.loc 1 722 0
 1770              		.cfi_startproc
 1771              		@ args = 0, pretend = 0, frame = 8
 1772              		@ frame_needed = 1, uses_anonymous_args = 0
 1773 0000 80B5     		push	{r7, lr}
 1774              	.LCFI42:
 1775              		.cfi_def_cfa_offset 8
 1776              		.cfi_offset 7, -8
 1777              		.cfi_offset 14, -4
 1778 0002 82B0     		sub	sp, sp, #8
 1779              	.LCFI43:
 1780              		.cfi_def_cfa_offset 16
 1781 0004 00AF     		add	r7, sp, #0
 1782              	.LCFI44:
 1783              		.cfi_def_cfa_register 7
 1784 0006 7860     		str	r0, [r7, #4]
 1785 0008 0B46     		mov	r3, r1
 1786 000a 7B80     		strh	r3, [r7, #2]	@ movhi
 723:App/STM32F4-Discovery/Libraries/STM32F4xx_StdPeriph_Driver/src/stm32f4xx_usart.c ****   /* Check the parameters */
 724:App/STM32F4-Discovery/Libraries/STM32F4xx_StdPeriph_Driver/src/stm32f4xx_usart.c ****   assert_param(IS_USART_ALL_PERIPH(USARTx));
 1787              		.loc 1 724 0
 1788 000c 7A68     		ldr	r2, [r7, #4]
 1789 000e 1D4B     		ldr	r3, .L98
 1790 0010 9A42     		cmp	r2, r3
 1791 0012 18D0     		beq	.L96
 1792              		.loc 1 724 0 is_stmt 0 discriminator 1
 1793 0014 7A68     		ldr	r2, [r7, #4]
 1794 0016 1C4B     		ldr	r3, .L98+4
 1795 0018 9A42     		cmp	r2, r3
 1796 001a 14D0     		beq	.L96
 1797 001c 7A68     		ldr	r2, [r7, #4]
 1798 001e 1B4B     		ldr	r3, .L98+8
 1799 0020 9A42     		cmp	r2, r3
 1800 0022 10D0     		beq	.L96
 1801 0024 7A68     		ldr	r2, [r7, #4]
 1802 0026 1A4B     		ldr	r3, .L98+12
 1803 0028 9A42     		cmp	r2, r3
 1804 002a 0CD0     		beq	.L96
 1805 002c 7A68     		ldr	r2, [r7, #4]
 1806 002e 194B     		ldr	r3, .L98+16
 1807 0030 9A42     		cmp	r2, r3
 1808 0032 08D0     		beq	.L96
 1809 0034 7A68     		ldr	r2, [r7, #4]
 1810 0036 184B     		ldr	r3, .L98+20
 1811 0038 9A42     		cmp	r2, r3
 1812 003a 04D0     		beq	.L96
 1813 003c 1748     		ldr	r0, .L98+24
 1814 003e 4FF43571 		mov	r1, #724
 1815 0042 FFF7FEFF 		bl	assert_failed
 1816              	.L96:
 725:App/STM32F4-Discovery/Libraries/STM32F4xx_StdPeriph_Driver/src/stm32f4xx_usart.c ****   assert_param(IS_USART_LIN_BREAK_DETECT_LENGTH(USART_LINBreakDetectLength));
 1817              		.loc 1 725 0 is_stmt 1
 1818 0046 7B88     		ldrh	r3, [r7, #2]
 1819 0048 002B     		cmp	r3, #0
 1820 004a 07D0     		beq	.L97
 1821              		.loc 1 725 0 is_stmt 0 discriminator 1
 1822 004c 7B88     		ldrh	r3, [r7, #2]
 1823 004e 202B     		cmp	r3, #32
 1824 0050 04D0     		beq	.L97
 1825 0052 1248     		ldr	r0, .L98+24
 1826 0054 40F2D521 		movw	r1, #725
 1827 0058 FFF7FEFF 		bl	assert_failed
 1828              	.L97:
 726:App/STM32F4-Discovery/Libraries/STM32F4xx_StdPeriph_Driver/src/stm32f4xx_usart.c ****   
 727:App/STM32F4-Discovery/Libraries/STM32F4xx_StdPeriph_Driver/src/stm32f4xx_usart.c ****   USARTx->CR2 &= (uint16_t)~((uint16_t)USART_CR2_LBDL);
 1829              		.loc 1 727 0 is_stmt 1
 1830 005c 7B68     		ldr	r3, [r7, #4]
 1831 005e 1B8A     		ldrh	r3, [r3, #16]	@ movhi
 1832 0060 9BB2     		uxth	r3, r3
 1833 0062 23F02003 		bic	r3, r3, #32
 1834 0066 9AB2     		uxth	r2, r3
 1835 0068 7B68     		ldr	r3, [r7, #4]
 1836 006a 1A82     		strh	r2, [r3, #16]	@ movhi
 728:App/STM32F4-Discovery/Libraries/STM32F4xx_StdPeriph_Driver/src/stm32f4xx_usart.c ****   USARTx->CR2 |= USART_LINBreakDetectLength;  
 1837              		.loc 1 728 0
 1838 006c 7B68     		ldr	r3, [r7, #4]
 1839 006e 1B8A     		ldrh	r3, [r3, #16]	@ movhi
 1840 0070 9AB2     		uxth	r2, r3
 1841 0072 7B88     		ldrh	r3, [r7, #2]	@ movhi
 1842 0074 1343     		orrs	r3, r3, r2
 1843 0076 9AB2     		uxth	r2, r3
 1844 0078 7B68     		ldr	r3, [r7, #4]
 1845 007a 1A82     		strh	r2, [r3, #16]	@ movhi
 729:App/STM32F4-Discovery/Libraries/STM32F4xx_StdPeriph_Driver/src/stm32f4xx_usart.c **** }
 1846              		.loc 1 729 0
 1847 007c 0837     		adds	r7, r7, #8
 1848 007e BD46     		mov	sp, r7
 1849              		@ sp needed
 1850 0080 80BD     		pop	{r7, pc}
 1851              	.L99:
 1852 0082 00BF     		.align	2
 1853              	.L98:
 1854 0084 00100140 		.word	1073811456
 1855 0088 00440040 		.word	1073759232
 1856 008c 00480040 		.word	1073760256
 1857 0090 004C0040 		.word	1073761280
 1858 0094 00500040 		.word	1073762304
 1859 0098 00140140 		.word	1073812480
 1860 009c 00000000 		.word	.LC0
 1861              		.cfi_endproc
 1862              	.LFE124:
 1864              		.section	.text.USART_LINCmd,"ax",%progbits
 1865              		.align	2
 1866              		.global	USART_LINCmd
 1867              		.thumb
 1868              		.thumb_func
 1870              	USART_LINCmd:
 1871              	.LFB125:
 730:App/STM32F4-Discovery/Libraries/STM32F4xx_StdPeriph_Driver/src/stm32f4xx_usart.c **** 
 731:App/STM32F4-Discovery/Libraries/STM32F4xx_StdPeriph_Driver/src/stm32f4xx_usart.c **** /**
 732:App/STM32F4-Discovery/Libraries/STM32F4xx_StdPeriph_Driver/src/stm32f4xx_usart.c ****   * @brief  Enables or disables the USART's LIN mode.
 733:App/STM32F4-Discovery/Libraries/STM32F4xx_StdPeriph_Driver/src/stm32f4xx_usart.c ****   * @param  USARTx: where x can be 1, 2, 3, 4, 5 or 6 to select the USART or 
 734:App/STM32F4-Discovery/Libraries/STM32F4xx_StdPeriph_Driver/src/stm32f4xx_usart.c ****   *         UART peripheral.
 735:App/STM32F4-Discovery/Libraries/STM32F4xx_StdPeriph_Driver/src/stm32f4xx_usart.c ****   * @param  NewState: new state of the USART LIN mode.
 736:App/STM32F4-Discovery/Libraries/STM32F4xx_StdPeriph_Driver/src/stm32f4xx_usart.c ****   *          This parameter can be: ENABLE or DISABLE.
 737:App/STM32F4-Discovery/Libraries/STM32F4xx_StdPeriph_Driver/src/stm32f4xx_usart.c ****   * @retval None
 738:App/STM32F4-Discovery/Libraries/STM32F4xx_StdPeriph_Driver/src/stm32f4xx_usart.c ****   */
 739:App/STM32F4-Discovery/Libraries/STM32F4xx_StdPeriph_Driver/src/stm32f4xx_usart.c **** void USART_LINCmd(USART_TypeDef* USARTx, FunctionalState NewState)
 740:App/STM32F4-Discovery/Libraries/STM32F4xx_StdPeriph_Driver/src/stm32f4xx_usart.c **** {
 1872              		.loc 1 740 0
 1873              		.cfi_startproc
 1874              		@ args = 0, pretend = 0, frame = 8
 1875              		@ frame_needed = 1, uses_anonymous_args = 0
 1876 0000 80B5     		push	{r7, lr}
 1877              	.LCFI45:
 1878              		.cfi_def_cfa_offset 8
 1879              		.cfi_offset 7, -8
 1880              		.cfi_offset 14, -4
 1881 0002 82B0     		sub	sp, sp, #8
 1882              	.LCFI46:
 1883              		.cfi_def_cfa_offset 16
 1884 0004 00AF     		add	r7, sp, #0
 1885              	.LCFI47:
 1886              		.cfi_def_cfa_register 7
 1887 0006 7860     		str	r0, [r7, #4]
 1888 0008 0B46     		mov	r3, r1
 1889 000a FB70     		strb	r3, [r7, #3]
 741:App/STM32F4-Discovery/Libraries/STM32F4xx_StdPeriph_Driver/src/stm32f4xx_usart.c ****   /* Check the parameters */
 742:App/STM32F4-Discovery/Libraries/STM32F4xx_StdPeriph_Driver/src/stm32f4xx_usart.c ****   assert_param(IS_USART_ALL_PERIPH(USARTx));
 1890              		.loc 1 742 0
 1891 000c 7A68     		ldr	r2, [r7, #4]
 1892 000e 1F4B     		ldr	r3, .L105
 1893 0010 9A42     		cmp	r2, r3
 1894 0012 18D0     		beq	.L101
 1895              		.loc 1 742 0 is_stmt 0 discriminator 1
 1896 0014 7A68     		ldr	r2, [r7, #4]
 1897 0016 1E4B     		ldr	r3, .L105+4
 1898 0018 9A42     		cmp	r2, r3
 1899 001a 14D0     		beq	.L101
 1900 001c 7A68     		ldr	r2, [r7, #4]
 1901 001e 1D4B     		ldr	r3, .L105+8
 1902 0020 9A42     		cmp	r2, r3
 1903 0022 10D0     		beq	.L101
 1904 0024 7A68     		ldr	r2, [r7, #4]
 1905 0026 1C4B     		ldr	r3, .L105+12
 1906 0028 9A42     		cmp	r2, r3
 1907 002a 0CD0     		beq	.L101
 1908 002c 7A68     		ldr	r2, [r7, #4]
 1909 002e 1B4B     		ldr	r3, .L105+16
 1910 0030 9A42     		cmp	r2, r3
 1911 0032 08D0     		beq	.L101
 1912 0034 7A68     		ldr	r2, [r7, #4]
 1913 0036 1A4B     		ldr	r3, .L105+20
 1914 0038 9A42     		cmp	r2, r3
 1915 003a 04D0     		beq	.L101
 1916 003c 1948     		ldr	r0, .L105+24
 1917 003e 40F2E621 		movw	r1, #742
 1918 0042 FFF7FEFF 		bl	assert_failed
 1919              	.L101:
 743:App/STM32F4-Discovery/Libraries/STM32F4xx_StdPeriph_Driver/src/stm32f4xx_usart.c ****   assert_param(IS_FUNCTIONAL_STATE(NewState));
 1920              		.loc 1 743 0 is_stmt 1
 1921 0046 FB78     		ldrb	r3, [r7, #3]	@ zero_extendqisi2
 1922 0048 002B     		cmp	r3, #0
 1923 004a 07D0     		beq	.L102
 1924              		.loc 1 743 0 is_stmt 0 discriminator 1
 1925 004c FB78     		ldrb	r3, [r7, #3]	@ zero_extendqisi2
 1926 004e 012B     		cmp	r3, #1
 1927 0050 04D0     		beq	.L102
 1928 0052 1448     		ldr	r0, .L105+24
 1929 0054 40F2E721 		movw	r1, #743
 1930 0058 FFF7FEFF 		bl	assert_failed
 1931              	.L102:
 744:App/STM32F4-Discovery/Libraries/STM32F4xx_StdPeriph_Driver/src/stm32f4xx_usart.c ****   
 745:App/STM32F4-Discovery/Libraries/STM32F4xx_StdPeriph_Driver/src/stm32f4xx_usart.c ****   if (NewState != DISABLE)
 1932              		.loc 1 745 0 is_stmt 1
 1933 005c FB78     		ldrb	r3, [r7, #3]	@ zero_extendqisi2
 1934 005e 002B     		cmp	r3, #0
 1935 0060 08D0     		beq	.L103
 746:App/STM32F4-Discovery/Libraries/STM32F4xx_StdPeriph_Driver/src/stm32f4xx_usart.c ****   {
 747:App/STM32F4-Discovery/Libraries/STM32F4xx_StdPeriph_Driver/src/stm32f4xx_usart.c ****     /* Enable the LIN mode by setting the LINEN bit in the CR2 register */
 748:App/STM32F4-Discovery/Libraries/STM32F4xx_StdPeriph_Driver/src/stm32f4xx_usart.c ****     USARTx->CR2 |= USART_CR2_LINEN;
 1936              		.loc 1 748 0
 1937 0062 7B68     		ldr	r3, [r7, #4]
 1938 0064 1B8A     		ldrh	r3, [r3, #16]	@ movhi
 1939 0066 9BB2     		uxth	r3, r3
 1940 0068 43F48043 		orr	r3, r3, #16384
 1941 006c 9AB2     		uxth	r2, r3
 1942 006e 7B68     		ldr	r3, [r7, #4]
 1943 0070 1A82     		strh	r2, [r3, #16]	@ movhi
 1944 0072 07E0     		b	.L100
 1945              	.L103:
 749:App/STM32F4-Discovery/Libraries/STM32F4xx_StdPeriph_Driver/src/stm32f4xx_usart.c ****   }
 750:App/STM32F4-Discovery/Libraries/STM32F4xx_StdPeriph_Driver/src/stm32f4xx_usart.c ****   else
 751:App/STM32F4-Discovery/Libraries/STM32F4xx_StdPeriph_Driver/src/stm32f4xx_usart.c ****   {
 752:App/STM32F4-Discovery/Libraries/STM32F4xx_StdPeriph_Driver/src/stm32f4xx_usart.c ****     /* Disable the LIN mode by clearing the LINEN bit in the CR2 register */
 753:App/STM32F4-Discovery/Libraries/STM32F4xx_StdPeriph_Driver/src/stm32f4xx_usart.c ****     USARTx->CR2 &= (uint16_t)~((uint16_t)USART_CR2_LINEN);
 1946              		.loc 1 753 0
 1947 0074 7B68     		ldr	r3, [r7, #4]
 1948 0076 1B8A     		ldrh	r3, [r3, #16]	@ movhi
 1949 0078 9BB2     		uxth	r3, r3
 1950 007a 23F48043 		bic	r3, r3, #16384
 1951 007e 9AB2     		uxth	r2, r3
 1952 0080 7B68     		ldr	r3, [r7, #4]
 1953 0082 1A82     		strh	r2, [r3, #16]	@ movhi
 1954              	.L100:
 754:App/STM32F4-Discovery/Libraries/STM32F4xx_StdPeriph_Driver/src/stm32f4xx_usart.c ****   }
 755:App/STM32F4-Discovery/Libraries/STM32F4xx_StdPeriph_Driver/src/stm32f4xx_usart.c **** }
 1955              		.loc 1 755 0
 1956 0084 0837     		adds	r7, r7, #8
 1957 0086 BD46     		mov	sp, r7
 1958              		@ sp needed
 1959 0088 80BD     		pop	{r7, pc}
 1960              	.L106:
 1961 008a 00BF     		.align	2
 1962              	.L105:
 1963 008c 00100140 		.word	1073811456
 1964 0090 00440040 		.word	1073759232
 1965 0094 00480040 		.word	1073760256
 1966 0098 004C0040 		.word	1073761280
 1967 009c 00500040 		.word	1073762304
 1968 00a0 00140140 		.word	1073812480
 1969 00a4 00000000 		.word	.LC0
 1970              		.cfi_endproc
 1971              	.LFE125:
 1973              		.section	.text.USART_SendBreak,"ax",%progbits
 1974              		.align	2
 1975              		.global	USART_SendBreak
 1976              		.thumb
 1977              		.thumb_func
 1979              	USART_SendBreak:
 1980              	.LFB126:
 756:App/STM32F4-Discovery/Libraries/STM32F4xx_StdPeriph_Driver/src/stm32f4xx_usart.c **** 
 757:App/STM32F4-Discovery/Libraries/STM32F4xx_StdPeriph_Driver/src/stm32f4xx_usart.c **** /**
 758:App/STM32F4-Discovery/Libraries/STM32F4xx_StdPeriph_Driver/src/stm32f4xx_usart.c ****   * @brief  Transmits break characters.
 759:App/STM32F4-Discovery/Libraries/STM32F4xx_StdPeriph_Driver/src/stm32f4xx_usart.c ****   * @param  USARTx: where x can be 1, 2, 3, 4, 5 or 6 to select the USART or 
 760:App/STM32F4-Discovery/Libraries/STM32F4xx_StdPeriph_Driver/src/stm32f4xx_usart.c ****   *         UART peripheral.
 761:App/STM32F4-Discovery/Libraries/STM32F4xx_StdPeriph_Driver/src/stm32f4xx_usart.c ****   * @retval None
 762:App/STM32F4-Discovery/Libraries/STM32F4xx_StdPeriph_Driver/src/stm32f4xx_usart.c ****   */
 763:App/STM32F4-Discovery/Libraries/STM32F4xx_StdPeriph_Driver/src/stm32f4xx_usart.c **** void USART_SendBreak(USART_TypeDef* USARTx)
 764:App/STM32F4-Discovery/Libraries/STM32F4xx_StdPeriph_Driver/src/stm32f4xx_usart.c **** {
 1981              		.loc 1 764 0
 1982              		.cfi_startproc
 1983              		@ args = 0, pretend = 0, frame = 8
 1984              		@ frame_needed = 1, uses_anonymous_args = 0
 1985 0000 80B5     		push	{r7, lr}
 1986              	.LCFI48:
 1987              		.cfi_def_cfa_offset 8
 1988              		.cfi_offset 7, -8
 1989              		.cfi_offset 14, -4
 1990 0002 82B0     		sub	sp, sp, #8
 1991              	.LCFI49:
 1992              		.cfi_def_cfa_offset 16
 1993 0004 00AF     		add	r7, sp, #0
 1994              	.LCFI50:
 1995              		.cfi_def_cfa_register 7
 1996 0006 7860     		str	r0, [r7, #4]
 765:App/STM32F4-Discovery/Libraries/STM32F4xx_StdPeriph_Driver/src/stm32f4xx_usart.c ****   /* Check the parameters */
 766:App/STM32F4-Discovery/Libraries/STM32F4xx_StdPeriph_Driver/src/stm32f4xx_usart.c ****   assert_param(IS_USART_ALL_PERIPH(USARTx));
 1997              		.loc 1 766 0
 1998 0008 7A68     		ldr	r2, [r7, #4]
 1999 000a 134B     		ldr	r3, .L109
 2000 000c 9A42     		cmp	r2, r3
 2001 000e 18D0     		beq	.L108
 2002              		.loc 1 766 0 is_stmt 0 discriminator 1
 2003 0010 7A68     		ldr	r2, [r7, #4]
 2004 0012 124B     		ldr	r3, .L109+4
 2005 0014 9A42     		cmp	r2, r3
 2006 0016 14D0     		beq	.L108
 2007 0018 7A68     		ldr	r2, [r7, #4]
 2008 001a 114B     		ldr	r3, .L109+8
 2009 001c 9A42     		cmp	r2, r3
 2010 001e 10D0     		beq	.L108
 2011 0020 7A68     		ldr	r2, [r7, #4]
 2012 0022 104B     		ldr	r3, .L109+12
 2013 0024 9A42     		cmp	r2, r3
 2014 0026 0CD0     		beq	.L108
 2015 0028 7A68     		ldr	r2, [r7, #4]
 2016 002a 0F4B     		ldr	r3, .L109+16
 2017 002c 9A42     		cmp	r2, r3
 2018 002e 08D0     		beq	.L108
 2019 0030 7A68     		ldr	r2, [r7, #4]
 2020 0032 0E4B     		ldr	r3, .L109+20
 2021 0034 9A42     		cmp	r2, r3
 2022 0036 04D0     		beq	.L108
 2023 0038 0D48     		ldr	r0, .L109+24
 2024 003a 40F2FE21 		movw	r1, #766
 2025 003e FFF7FEFF 		bl	assert_failed
 2026              	.L108:
 767:App/STM32F4-Discovery/Libraries/STM32F4xx_StdPeriph_Driver/src/stm32f4xx_usart.c ****   
 768:App/STM32F4-Discovery/Libraries/STM32F4xx_StdPeriph_Driver/src/stm32f4xx_usart.c ****   /* Send break characters */
 769:App/STM32F4-Discovery/Libraries/STM32F4xx_StdPeriph_Driver/src/stm32f4xx_usart.c ****   USARTx->CR1 |= USART_CR1_SBK;
 2027              		.loc 1 769 0 is_stmt 1
 2028 0042 7B68     		ldr	r3, [r7, #4]
 2029 0044 9B89     		ldrh	r3, [r3, #12]	@ movhi
 2030 0046 9BB2     		uxth	r3, r3
 2031 0048 43F00103 		orr	r3, r3, #1
 2032 004c 9AB2     		uxth	r2, r3
 2033 004e 7B68     		ldr	r3, [r7, #4]
 2034 0050 9A81     		strh	r2, [r3, #12]	@ movhi
 770:App/STM32F4-Discovery/Libraries/STM32F4xx_StdPeriph_Driver/src/stm32f4xx_usart.c **** }
 2035              		.loc 1 770 0
 2036 0052 0837     		adds	r7, r7, #8
 2037 0054 BD46     		mov	sp, r7
 2038              		@ sp needed
 2039 0056 80BD     		pop	{r7, pc}
 2040              	.L110:
 2041              		.align	2
 2042              	.L109:
 2043 0058 00100140 		.word	1073811456
 2044 005c 00440040 		.word	1073759232
 2045 0060 00480040 		.word	1073760256
 2046 0064 004C0040 		.word	1073761280
 2047 0068 00500040 		.word	1073762304
 2048 006c 00140140 		.word	1073812480
 2049 0070 00000000 		.word	.LC0
 2050              		.cfi_endproc
 2051              	.LFE126:
 2053              		.section	.text.USART_HalfDuplexCmd,"ax",%progbits
 2054              		.align	2
 2055              		.global	USART_HalfDuplexCmd
 2056              		.thumb
 2057              		.thumb_func
 2059              	USART_HalfDuplexCmd:
 2060              	.LFB127:
 771:App/STM32F4-Discovery/Libraries/STM32F4xx_StdPeriph_Driver/src/stm32f4xx_usart.c **** 
 772:App/STM32F4-Discovery/Libraries/STM32F4xx_StdPeriph_Driver/src/stm32f4xx_usart.c **** /**
 773:App/STM32F4-Discovery/Libraries/STM32F4xx_StdPeriph_Driver/src/stm32f4xx_usart.c ****   * @}
 774:App/STM32F4-Discovery/Libraries/STM32F4xx_StdPeriph_Driver/src/stm32f4xx_usart.c ****   */
 775:App/STM32F4-Discovery/Libraries/STM32F4xx_StdPeriph_Driver/src/stm32f4xx_usart.c **** 
 776:App/STM32F4-Discovery/Libraries/STM32F4xx_StdPeriph_Driver/src/stm32f4xx_usart.c **** /** @defgroup USART_Group5 Halfduplex mode function
 777:App/STM32F4-Discovery/Libraries/STM32F4xx_StdPeriph_Driver/src/stm32f4xx_usart.c ****  *  @brief   Half-duplex mode function 
 778:App/STM32F4-Discovery/Libraries/STM32F4xx_StdPeriph_Driver/src/stm32f4xx_usart.c ****  *
 779:App/STM32F4-Discovery/Libraries/STM32F4xx_StdPeriph_Driver/src/stm32f4xx_usart.c **** @verbatim   
 780:App/STM32F4-Discovery/Libraries/STM32F4xx_StdPeriph_Driver/src/stm32f4xx_usart.c ****  ===============================================================================
 781:App/STM32F4-Discovery/Libraries/STM32F4xx_StdPeriph_Driver/src/stm32f4xx_usart.c ****                          Half-duplex mode function
 782:App/STM32F4-Discovery/Libraries/STM32F4xx_StdPeriph_Driver/src/stm32f4xx_usart.c ****  ===============================================================================  
 783:App/STM32F4-Discovery/Libraries/STM32F4xx_StdPeriph_Driver/src/stm32f4xx_usart.c **** 
 784:App/STM32F4-Discovery/Libraries/STM32F4xx_StdPeriph_Driver/src/stm32f4xx_usart.c ****   This subsection provides a set of functions allowing to manage the USART 
 785:App/STM32F4-Discovery/Libraries/STM32F4xx_StdPeriph_Driver/src/stm32f4xx_usart.c ****   Half-duplex communication.
 786:App/STM32F4-Discovery/Libraries/STM32F4xx_StdPeriph_Driver/src/stm32f4xx_usart.c ****   
 787:App/STM32F4-Discovery/Libraries/STM32F4xx_StdPeriph_Driver/src/stm32f4xx_usart.c ****   The USART can be configured to follow a single-wire half-duplex protocol where 
 788:App/STM32F4-Discovery/Libraries/STM32F4xx_StdPeriph_Driver/src/stm32f4xx_usart.c ****   the TX and RX lines are internally connected.
 789:App/STM32F4-Discovery/Libraries/STM32F4xx_StdPeriph_Driver/src/stm32f4xx_usart.c **** 
 790:App/STM32F4-Discovery/Libraries/STM32F4xx_StdPeriph_Driver/src/stm32f4xx_usart.c ****   USART Half duplex communication is possible through the following procedure:
 791:App/STM32F4-Discovery/Libraries/STM32F4xx_StdPeriph_Driver/src/stm32f4xx_usart.c ****      1. Program the Baud rate, Word length, Stop bits, Parity, Mode transmitter 
 792:App/STM32F4-Discovery/Libraries/STM32F4xx_StdPeriph_Driver/src/stm32f4xx_usart.c ****         or Mode receiver and hardware flow control values using the USART_Init()
 793:App/STM32F4-Discovery/Libraries/STM32F4xx_StdPeriph_Driver/src/stm32f4xx_usart.c ****         function.
 794:App/STM32F4-Discovery/Libraries/STM32F4xx_StdPeriph_Driver/src/stm32f4xx_usart.c ****      2. Configures the USART address using the USART_SetAddress() function.
 795:App/STM32F4-Discovery/Libraries/STM32F4xx_StdPeriph_Driver/src/stm32f4xx_usart.c ****      3. Enable the USART using the USART_Cmd() function.
 796:App/STM32F4-Discovery/Libraries/STM32F4xx_StdPeriph_Driver/src/stm32f4xx_usart.c ****      4. Enable the half duplex mode using USART_HalfDuplexCmd() function.
 797:App/STM32F4-Discovery/Libraries/STM32F4xx_StdPeriph_Driver/src/stm32f4xx_usart.c **** 
 798:App/STM32F4-Discovery/Libraries/STM32F4xx_StdPeriph_Driver/src/stm32f4xx_usart.c **** 
 799:App/STM32F4-Discovery/Libraries/STM32F4xx_StdPeriph_Driver/src/stm32f4xx_usart.c **** @note The RX pin is no longer used
 800:App/STM32F4-Discovery/Libraries/STM32F4xx_StdPeriph_Driver/src/stm32f4xx_usart.c **** @note In Half-duplex mode the following bits must be kept cleared:
 801:App/STM32F4-Discovery/Libraries/STM32F4xx_StdPeriph_Driver/src/stm32f4xx_usart.c ****         - LINEN and CLKEN bits in the USART_CR2 register.
 802:App/STM32F4-Discovery/Libraries/STM32F4xx_StdPeriph_Driver/src/stm32f4xx_usart.c ****         - SCEN and IREN bits in the USART_CR3 register.
 803:App/STM32F4-Discovery/Libraries/STM32F4xx_StdPeriph_Driver/src/stm32f4xx_usart.c **** 
 804:App/STM32F4-Discovery/Libraries/STM32F4xx_StdPeriph_Driver/src/stm32f4xx_usart.c **** @endverbatim
 805:App/STM32F4-Discovery/Libraries/STM32F4xx_StdPeriph_Driver/src/stm32f4xx_usart.c ****   * @{
 806:App/STM32F4-Discovery/Libraries/STM32F4xx_StdPeriph_Driver/src/stm32f4xx_usart.c ****   */
 807:App/STM32F4-Discovery/Libraries/STM32F4xx_StdPeriph_Driver/src/stm32f4xx_usart.c **** 
 808:App/STM32F4-Discovery/Libraries/STM32F4xx_StdPeriph_Driver/src/stm32f4xx_usart.c **** /**
 809:App/STM32F4-Discovery/Libraries/STM32F4xx_StdPeriph_Driver/src/stm32f4xx_usart.c ****   * @brief  Enables or disables the USART's Half Duplex communication.
 810:App/STM32F4-Discovery/Libraries/STM32F4xx_StdPeriph_Driver/src/stm32f4xx_usart.c ****   * @param  USARTx: where x can be 1, 2, 3, 4, 5 or 6 to select the USART or 
 811:App/STM32F4-Discovery/Libraries/STM32F4xx_StdPeriph_Driver/src/stm32f4xx_usart.c ****   *         UART peripheral.
 812:App/STM32F4-Discovery/Libraries/STM32F4xx_StdPeriph_Driver/src/stm32f4xx_usart.c ****   * @param  NewState: new state of the USART Communication.
 813:App/STM32F4-Discovery/Libraries/STM32F4xx_StdPeriph_Driver/src/stm32f4xx_usart.c ****   *          This parameter can be: ENABLE or DISABLE.
 814:App/STM32F4-Discovery/Libraries/STM32F4xx_StdPeriph_Driver/src/stm32f4xx_usart.c ****   * @retval None
 815:App/STM32F4-Discovery/Libraries/STM32F4xx_StdPeriph_Driver/src/stm32f4xx_usart.c ****   */
 816:App/STM32F4-Discovery/Libraries/STM32F4xx_StdPeriph_Driver/src/stm32f4xx_usart.c **** void USART_HalfDuplexCmd(USART_TypeDef* USARTx, FunctionalState NewState)
 817:App/STM32F4-Discovery/Libraries/STM32F4xx_StdPeriph_Driver/src/stm32f4xx_usart.c **** {
 2061              		.loc 1 817 0
 2062              		.cfi_startproc
 2063              		@ args = 0, pretend = 0, frame = 8
 2064              		@ frame_needed = 1, uses_anonymous_args = 0
 2065 0000 80B5     		push	{r7, lr}
 2066              	.LCFI51:
 2067              		.cfi_def_cfa_offset 8
 2068              		.cfi_offset 7, -8
 2069              		.cfi_offset 14, -4
 2070 0002 82B0     		sub	sp, sp, #8
 2071              	.LCFI52:
 2072              		.cfi_def_cfa_offset 16
 2073 0004 00AF     		add	r7, sp, #0
 2074              	.LCFI53:
 2075              		.cfi_def_cfa_register 7
 2076 0006 7860     		str	r0, [r7, #4]
 2077 0008 0B46     		mov	r3, r1
 2078 000a FB70     		strb	r3, [r7, #3]
 818:App/STM32F4-Discovery/Libraries/STM32F4xx_StdPeriph_Driver/src/stm32f4xx_usart.c ****   /* Check the parameters */
 819:App/STM32F4-Discovery/Libraries/STM32F4xx_StdPeriph_Driver/src/stm32f4xx_usart.c ****   assert_param(IS_USART_ALL_PERIPH(USARTx));
 2079              		.loc 1 819 0
 2080 000c 7A68     		ldr	r2, [r7, #4]
 2081 000e 1F4B     		ldr	r3, .L116
 2082 0010 9A42     		cmp	r2, r3
 2083 0012 18D0     		beq	.L112
 2084              		.loc 1 819 0 is_stmt 0 discriminator 1
 2085 0014 7A68     		ldr	r2, [r7, #4]
 2086 0016 1E4B     		ldr	r3, .L116+4
 2087 0018 9A42     		cmp	r2, r3
 2088 001a 14D0     		beq	.L112
 2089 001c 7A68     		ldr	r2, [r7, #4]
 2090 001e 1D4B     		ldr	r3, .L116+8
 2091 0020 9A42     		cmp	r2, r3
 2092 0022 10D0     		beq	.L112
 2093 0024 7A68     		ldr	r2, [r7, #4]
 2094 0026 1C4B     		ldr	r3, .L116+12
 2095 0028 9A42     		cmp	r2, r3
 2096 002a 0CD0     		beq	.L112
 2097 002c 7A68     		ldr	r2, [r7, #4]
 2098 002e 1B4B     		ldr	r3, .L116+16
 2099 0030 9A42     		cmp	r2, r3
 2100 0032 08D0     		beq	.L112
 2101 0034 7A68     		ldr	r2, [r7, #4]
 2102 0036 1A4B     		ldr	r3, .L116+20
 2103 0038 9A42     		cmp	r2, r3
 2104 003a 04D0     		beq	.L112
 2105 003c 1948     		ldr	r0, .L116+24
 2106 003e 40F23331 		movw	r1, #819
 2107 0042 FFF7FEFF 		bl	assert_failed
 2108              	.L112:
 820:App/STM32F4-Discovery/Libraries/STM32F4xx_StdPeriph_Driver/src/stm32f4xx_usart.c ****   assert_param(IS_FUNCTIONAL_STATE(NewState));
 2109              		.loc 1 820 0 is_stmt 1
 2110 0046 FB78     		ldrb	r3, [r7, #3]	@ zero_extendqisi2
 2111 0048 002B     		cmp	r3, #0
 2112 004a 07D0     		beq	.L113
 2113              		.loc 1 820 0 is_stmt 0 discriminator 1
 2114 004c FB78     		ldrb	r3, [r7, #3]	@ zero_extendqisi2
 2115 004e 012B     		cmp	r3, #1
 2116 0050 04D0     		beq	.L113
 2117 0052 1448     		ldr	r0, .L116+24
 2118 0054 4FF44D71 		mov	r1, #820
 2119 0058 FFF7FEFF 		bl	assert_failed
 2120              	.L113:
 821:App/STM32F4-Discovery/Libraries/STM32F4xx_StdPeriph_Driver/src/stm32f4xx_usart.c ****   
 822:App/STM32F4-Discovery/Libraries/STM32F4xx_StdPeriph_Driver/src/stm32f4xx_usart.c ****   if (NewState != DISABLE)
 2121              		.loc 1 822 0 is_stmt 1
 2122 005c FB78     		ldrb	r3, [r7, #3]	@ zero_extendqisi2
 2123 005e 002B     		cmp	r3, #0
 2124 0060 08D0     		beq	.L114
 823:App/STM32F4-Discovery/Libraries/STM32F4xx_StdPeriph_Driver/src/stm32f4xx_usart.c ****   {
 824:App/STM32F4-Discovery/Libraries/STM32F4xx_StdPeriph_Driver/src/stm32f4xx_usart.c ****     /* Enable the Half-Duplex mode by setting the HDSEL bit in the CR3 register */
 825:App/STM32F4-Discovery/Libraries/STM32F4xx_StdPeriph_Driver/src/stm32f4xx_usart.c ****     USARTx->CR3 |= USART_CR3_HDSEL;
 2125              		.loc 1 825 0
 2126 0062 7B68     		ldr	r3, [r7, #4]
 2127 0064 9B8A     		ldrh	r3, [r3, #20]	@ movhi
 2128 0066 9BB2     		uxth	r3, r3
 2129 0068 43F00803 		orr	r3, r3, #8
 2130 006c 9AB2     		uxth	r2, r3
 2131 006e 7B68     		ldr	r3, [r7, #4]
 2132 0070 9A82     		strh	r2, [r3, #20]	@ movhi
 2133 0072 07E0     		b	.L111
 2134              	.L114:
 826:App/STM32F4-Discovery/Libraries/STM32F4xx_StdPeriph_Driver/src/stm32f4xx_usart.c ****   }
 827:App/STM32F4-Discovery/Libraries/STM32F4xx_StdPeriph_Driver/src/stm32f4xx_usart.c ****   else
 828:App/STM32F4-Discovery/Libraries/STM32F4xx_StdPeriph_Driver/src/stm32f4xx_usart.c ****   {
 829:App/STM32F4-Discovery/Libraries/STM32F4xx_StdPeriph_Driver/src/stm32f4xx_usart.c ****     /* Disable the Half-Duplex mode by clearing the HDSEL bit in the CR3 register */
 830:App/STM32F4-Discovery/Libraries/STM32F4xx_StdPeriph_Driver/src/stm32f4xx_usart.c ****     USARTx->CR3 &= (uint16_t)~((uint16_t)USART_CR3_HDSEL);
 2135              		.loc 1 830 0
 2136 0074 7B68     		ldr	r3, [r7, #4]
 2137 0076 9B8A     		ldrh	r3, [r3, #20]	@ movhi
 2138 0078 9BB2     		uxth	r3, r3
 2139 007a 23F00803 		bic	r3, r3, #8
 2140 007e 9AB2     		uxth	r2, r3
 2141 0080 7B68     		ldr	r3, [r7, #4]
 2142 0082 9A82     		strh	r2, [r3, #20]	@ movhi
 2143              	.L111:
 831:App/STM32F4-Discovery/Libraries/STM32F4xx_StdPeriph_Driver/src/stm32f4xx_usart.c ****   }
 832:App/STM32F4-Discovery/Libraries/STM32F4xx_StdPeriph_Driver/src/stm32f4xx_usart.c **** }
 2144              		.loc 1 832 0
 2145 0084 0837     		adds	r7, r7, #8
 2146 0086 BD46     		mov	sp, r7
 2147              		@ sp needed
 2148 0088 80BD     		pop	{r7, pc}
 2149              	.L117:
 2150 008a 00BF     		.align	2
 2151              	.L116:
 2152 008c 00100140 		.word	1073811456
 2153 0090 00440040 		.word	1073759232
 2154 0094 00480040 		.word	1073760256
 2155 0098 004C0040 		.word	1073761280
 2156 009c 00500040 		.word	1073762304
 2157 00a0 00140140 		.word	1073812480
 2158 00a4 00000000 		.word	.LC0
 2159              		.cfi_endproc
 2160              	.LFE127:
 2162              		.section	.text.USART_SetGuardTime,"ax",%progbits
 2163              		.align	2
 2164              		.global	USART_SetGuardTime
 2165              		.thumb
 2166              		.thumb_func
 2168              	USART_SetGuardTime:
 2169              	.LFB128:
 833:App/STM32F4-Discovery/Libraries/STM32F4xx_StdPeriph_Driver/src/stm32f4xx_usart.c **** 
 834:App/STM32F4-Discovery/Libraries/STM32F4xx_StdPeriph_Driver/src/stm32f4xx_usart.c **** /**
 835:App/STM32F4-Discovery/Libraries/STM32F4xx_StdPeriph_Driver/src/stm32f4xx_usart.c ****   * @}
 836:App/STM32F4-Discovery/Libraries/STM32F4xx_StdPeriph_Driver/src/stm32f4xx_usart.c ****   */
 837:App/STM32F4-Discovery/Libraries/STM32F4xx_StdPeriph_Driver/src/stm32f4xx_usart.c **** 
 838:App/STM32F4-Discovery/Libraries/STM32F4xx_StdPeriph_Driver/src/stm32f4xx_usart.c **** 
 839:App/STM32F4-Discovery/Libraries/STM32F4xx_StdPeriph_Driver/src/stm32f4xx_usart.c **** /** @defgroup USART_Group6 Smartcard mode functions
 840:App/STM32F4-Discovery/Libraries/STM32F4xx_StdPeriph_Driver/src/stm32f4xx_usart.c ****  *  @brief   Smartcard mode functions 
 841:App/STM32F4-Discovery/Libraries/STM32F4xx_StdPeriph_Driver/src/stm32f4xx_usart.c ****  *
 842:App/STM32F4-Discovery/Libraries/STM32F4xx_StdPeriph_Driver/src/stm32f4xx_usart.c **** @verbatim   
 843:App/STM32F4-Discovery/Libraries/STM32F4xx_StdPeriph_Driver/src/stm32f4xx_usart.c ****  ===============================================================================
 844:App/STM32F4-Discovery/Libraries/STM32F4xx_StdPeriph_Driver/src/stm32f4xx_usart.c ****                                Smartcard mode functions
 845:App/STM32F4-Discovery/Libraries/STM32F4xx_StdPeriph_Driver/src/stm32f4xx_usart.c ****  ===============================================================================  
 846:App/STM32F4-Discovery/Libraries/STM32F4xx_StdPeriph_Driver/src/stm32f4xx_usart.c **** 
 847:App/STM32F4-Discovery/Libraries/STM32F4xx_StdPeriph_Driver/src/stm32f4xx_usart.c ****   This subsection provides a set of functions allowing to manage the USART 
 848:App/STM32F4-Discovery/Libraries/STM32F4xx_StdPeriph_Driver/src/stm32f4xx_usart.c ****   Smartcard communication.
 849:App/STM32F4-Discovery/Libraries/STM32F4xx_StdPeriph_Driver/src/stm32f4xx_usart.c ****   
 850:App/STM32F4-Discovery/Libraries/STM32F4xx_StdPeriph_Driver/src/stm32f4xx_usart.c ****   The Smartcard interface is designed to support asynchronous protocol Smartcards as
 851:App/STM32F4-Discovery/Libraries/STM32F4xx_StdPeriph_Driver/src/stm32f4xx_usart.c ****   defined in the ISO 7816-3 standard.
 852:App/STM32F4-Discovery/Libraries/STM32F4xx_StdPeriph_Driver/src/stm32f4xx_usart.c **** 
 853:App/STM32F4-Discovery/Libraries/STM32F4xx_StdPeriph_Driver/src/stm32f4xx_usart.c ****   The USART can provide a clock to the smartcard through the SCLK output.
 854:App/STM32F4-Discovery/Libraries/STM32F4xx_StdPeriph_Driver/src/stm32f4xx_usart.c ****   In smartcard mode, SCLK is not associated to the communication but is simply derived 
 855:App/STM32F4-Discovery/Libraries/STM32F4xx_StdPeriph_Driver/src/stm32f4xx_usart.c ****   from the internal peripheral input clock through a 5-bit prescaler.
 856:App/STM32F4-Discovery/Libraries/STM32F4xx_StdPeriph_Driver/src/stm32f4xx_usart.c **** 
 857:App/STM32F4-Discovery/Libraries/STM32F4xx_StdPeriph_Driver/src/stm32f4xx_usart.c ****   Smartcard communication is possible through the following procedure:
 858:App/STM32F4-Discovery/Libraries/STM32F4xx_StdPeriph_Driver/src/stm32f4xx_usart.c ****      1. Configures the Smartcard Prescaler using the USART_SetPrescaler() function.
 859:App/STM32F4-Discovery/Libraries/STM32F4xx_StdPeriph_Driver/src/stm32f4xx_usart.c ****      2. Configures the Smartcard Guard Time using the USART_SetGuardTime() function.
 860:App/STM32F4-Discovery/Libraries/STM32F4xx_StdPeriph_Driver/src/stm32f4xx_usart.c ****      3. Program the USART clock using the USART_ClockInit() function as following:
 861:App/STM32F4-Discovery/Libraries/STM32F4xx_StdPeriph_Driver/src/stm32f4xx_usart.c ****         - USART Clock enabled
 862:App/STM32F4-Discovery/Libraries/STM32F4xx_StdPeriph_Driver/src/stm32f4xx_usart.c ****         - USART CPOL Low
 863:App/STM32F4-Discovery/Libraries/STM32F4xx_StdPeriph_Driver/src/stm32f4xx_usart.c ****         - USART CPHA on first edge
 864:App/STM32F4-Discovery/Libraries/STM32F4xx_StdPeriph_Driver/src/stm32f4xx_usart.c ****         - USART Last Bit Clock Enabled
 865:App/STM32F4-Discovery/Libraries/STM32F4xx_StdPeriph_Driver/src/stm32f4xx_usart.c ****      4. Program the Smartcard interface using the USART_Init() function as following:
 866:App/STM32F4-Discovery/Libraries/STM32F4xx_StdPeriph_Driver/src/stm32f4xx_usart.c ****         - Word Length = 9 Bits
 867:App/STM32F4-Discovery/Libraries/STM32F4xx_StdPeriph_Driver/src/stm32f4xx_usart.c ****         - 1.5 Stop Bit
 868:App/STM32F4-Discovery/Libraries/STM32F4xx_StdPeriph_Driver/src/stm32f4xx_usart.c ****         - Even parity
 869:App/STM32F4-Discovery/Libraries/STM32F4xx_StdPeriph_Driver/src/stm32f4xx_usart.c ****         - BaudRate = 12096 baud
 870:App/STM32F4-Discovery/Libraries/STM32F4xx_StdPeriph_Driver/src/stm32f4xx_usart.c ****         - Hardware flow control disabled (RTS and CTS signals)
 871:App/STM32F4-Discovery/Libraries/STM32F4xx_StdPeriph_Driver/src/stm32f4xx_usart.c ****         - Tx and Rx enabled
 872:App/STM32F4-Discovery/Libraries/STM32F4xx_StdPeriph_Driver/src/stm32f4xx_usart.c ****      5. Optionally you can enable the parity error interrupt using the USART_ITConfig()
 873:App/STM32F4-Discovery/Libraries/STM32F4xx_StdPeriph_Driver/src/stm32f4xx_usart.c ****         function
 874:App/STM32F4-Discovery/Libraries/STM32F4xx_StdPeriph_Driver/src/stm32f4xx_usart.c ****      6. Enable the USART using the USART_Cmd() function.
 875:App/STM32F4-Discovery/Libraries/STM32F4xx_StdPeriph_Driver/src/stm32f4xx_usart.c ****      7. Enable the Smartcard NACK using the USART_SmartCardNACKCmd() function.
 876:App/STM32F4-Discovery/Libraries/STM32F4xx_StdPeriph_Driver/src/stm32f4xx_usart.c ****      8. Enable the Smartcard interface using the USART_SmartCardCmd() function.
 877:App/STM32F4-Discovery/Libraries/STM32F4xx_StdPeriph_Driver/src/stm32f4xx_usart.c **** 
 878:App/STM32F4-Discovery/Libraries/STM32F4xx_StdPeriph_Driver/src/stm32f4xx_usart.c ****   Please refer to the ISO 7816-3 specification for more details.
 879:App/STM32F4-Discovery/Libraries/STM32F4xx_StdPeriph_Driver/src/stm32f4xx_usart.c **** 
 880:App/STM32F4-Discovery/Libraries/STM32F4xx_StdPeriph_Driver/src/stm32f4xx_usart.c **** 
 881:App/STM32F4-Discovery/Libraries/STM32F4xx_StdPeriph_Driver/src/stm32f4xx_usart.c **** @note It is also possible to choose 0.5 stop bit for receiving but it is recommended 
 882:App/STM32F4-Discovery/Libraries/STM32F4xx_StdPeriph_Driver/src/stm32f4xx_usart.c ****       to use 1.5 stop bits for both transmitting and receiving to avoid switching 
 883:App/STM32F4-Discovery/Libraries/STM32F4xx_StdPeriph_Driver/src/stm32f4xx_usart.c ****       between the two configurations.
 884:App/STM32F4-Discovery/Libraries/STM32F4xx_StdPeriph_Driver/src/stm32f4xx_usart.c **** @note In smartcard mode, the following bits must be kept cleared:
 885:App/STM32F4-Discovery/Libraries/STM32F4xx_StdPeriph_Driver/src/stm32f4xx_usart.c ****         - LINEN bit in the USART_CR2 register.
 886:App/STM32F4-Discovery/Libraries/STM32F4xx_StdPeriph_Driver/src/stm32f4xx_usart.c ****         - HDSEL and IREN bits in the USART_CR3 register.
 887:App/STM32F4-Discovery/Libraries/STM32F4xx_StdPeriph_Driver/src/stm32f4xx_usart.c **** @note Smartcard mode is available on USART peripherals only (not available on UART4 
 888:App/STM32F4-Discovery/Libraries/STM32F4xx_StdPeriph_Driver/src/stm32f4xx_usart.c ****       and UART5 peripherals).
 889:App/STM32F4-Discovery/Libraries/STM32F4xx_StdPeriph_Driver/src/stm32f4xx_usart.c **** 
 890:App/STM32F4-Discovery/Libraries/STM32F4xx_StdPeriph_Driver/src/stm32f4xx_usart.c **** @endverbatim
 891:App/STM32F4-Discovery/Libraries/STM32F4xx_StdPeriph_Driver/src/stm32f4xx_usart.c ****   * @{
 892:App/STM32F4-Discovery/Libraries/STM32F4xx_StdPeriph_Driver/src/stm32f4xx_usart.c ****   */
 893:App/STM32F4-Discovery/Libraries/STM32F4xx_StdPeriph_Driver/src/stm32f4xx_usart.c **** 
 894:App/STM32F4-Discovery/Libraries/STM32F4xx_StdPeriph_Driver/src/stm32f4xx_usart.c **** /**
 895:App/STM32F4-Discovery/Libraries/STM32F4xx_StdPeriph_Driver/src/stm32f4xx_usart.c ****   * @brief  Sets the specified USART guard time.
 896:App/STM32F4-Discovery/Libraries/STM32F4xx_StdPeriph_Driver/src/stm32f4xx_usart.c ****   * @param  USARTx: where x can be 1, 2, 3 or 6 to select the USART or 
 897:App/STM32F4-Discovery/Libraries/STM32F4xx_StdPeriph_Driver/src/stm32f4xx_usart.c ****   *         UART peripheral.
 898:App/STM32F4-Discovery/Libraries/STM32F4xx_StdPeriph_Driver/src/stm32f4xx_usart.c ****   * @param  USART_GuardTime: specifies the guard time.   
 899:App/STM32F4-Discovery/Libraries/STM32F4xx_StdPeriph_Driver/src/stm32f4xx_usart.c ****   * @retval None
 900:App/STM32F4-Discovery/Libraries/STM32F4xx_StdPeriph_Driver/src/stm32f4xx_usart.c ****   */
 901:App/STM32F4-Discovery/Libraries/STM32F4xx_StdPeriph_Driver/src/stm32f4xx_usart.c **** void USART_SetGuardTime(USART_TypeDef* USARTx, uint8_t USART_GuardTime)
 902:App/STM32F4-Discovery/Libraries/STM32F4xx_StdPeriph_Driver/src/stm32f4xx_usart.c **** {    
 2170              		.loc 1 902 0
 2171              		.cfi_startproc
 2172              		@ args = 0, pretend = 0, frame = 8
 2173              		@ frame_needed = 1, uses_anonymous_args = 0
 2174 0000 80B5     		push	{r7, lr}
 2175              	.LCFI54:
 2176              		.cfi_def_cfa_offset 8
 2177              		.cfi_offset 7, -8
 2178              		.cfi_offset 14, -4
 2179 0002 82B0     		sub	sp, sp, #8
 2180              	.LCFI55:
 2181              		.cfi_def_cfa_offset 16
 2182 0004 00AF     		add	r7, sp, #0
 2183              	.LCFI56:
 2184              		.cfi_def_cfa_register 7
 2185 0006 7860     		str	r0, [r7, #4]
 2186 0008 0B46     		mov	r3, r1
 2187 000a FB70     		strb	r3, [r7, #3]
 903:App/STM32F4-Discovery/Libraries/STM32F4xx_StdPeriph_Driver/src/stm32f4xx_usart.c ****   /* Check the parameters */
 904:App/STM32F4-Discovery/Libraries/STM32F4xx_StdPeriph_Driver/src/stm32f4xx_usart.c ****   assert_param(IS_USART_1236_PERIPH(USARTx));
 2188              		.loc 1 904 0
 2189 000c 7A68     		ldr	r2, [r7, #4]
 2190 000e 144B     		ldr	r3, .L120
 2191 0010 9A42     		cmp	r2, r3
 2192 0012 10D0     		beq	.L119
 2193              		.loc 1 904 0 is_stmt 0 discriminator 1
 2194 0014 7A68     		ldr	r2, [r7, #4]
 2195 0016 134B     		ldr	r3, .L120+4
 2196 0018 9A42     		cmp	r2, r3
 2197 001a 0CD0     		beq	.L119
 2198 001c 7A68     		ldr	r2, [r7, #4]
 2199 001e 124B     		ldr	r3, .L120+8
 2200 0020 9A42     		cmp	r2, r3
 2201 0022 08D0     		beq	.L119
 2202 0024 7A68     		ldr	r2, [r7, #4]
 2203 0026 114B     		ldr	r3, .L120+12
 2204 0028 9A42     		cmp	r2, r3
 2205 002a 04D0     		beq	.L119
 2206 002c 1048     		ldr	r0, .L120+16
 2207 002e 4FF46271 		mov	r1, #904
 2208 0032 FFF7FEFF 		bl	assert_failed
 2209              	.L119:
 905:App/STM32F4-Discovery/Libraries/STM32F4xx_StdPeriph_Driver/src/stm32f4xx_usart.c ****   
 906:App/STM32F4-Discovery/Libraries/STM32F4xx_StdPeriph_Driver/src/stm32f4xx_usart.c ****   /* Clear the USART Guard time */
 907:App/STM32F4-Discovery/Libraries/STM32F4xx_StdPeriph_Driver/src/stm32f4xx_usart.c ****   USARTx->GTPR &= USART_GTPR_PSC;
 2210              		.loc 1 907 0 is_stmt 1
 2211 0036 7B68     		ldr	r3, [r7, #4]
 2212 0038 1B8B     		ldrh	r3, [r3, #24]	@ movhi
 2213 003a 9BB2     		uxth	r3, r3
 2214 003c DBB2     		uxtb	r3, r3
 2215 003e 9AB2     		uxth	r2, r3
 2216 0040 7B68     		ldr	r3, [r7, #4]
 2217 0042 1A83     		strh	r2, [r3, #24]	@ movhi
 908:App/STM32F4-Discovery/Libraries/STM32F4xx_StdPeriph_Driver/src/stm32f4xx_usart.c ****   /* Set the USART guard time */
 909:App/STM32F4-Discovery/Libraries/STM32F4xx_StdPeriph_Driver/src/stm32f4xx_usart.c ****   USARTx->GTPR |= (uint16_t)((uint16_t)USART_GuardTime << 0x08);
 2218              		.loc 1 909 0
 2219 0044 7B68     		ldr	r3, [r7, #4]
 2220 0046 1B8B     		ldrh	r3, [r3, #24]	@ movhi
 2221 0048 9AB2     		uxth	r2, r3
 2222 004a FB78     		ldrb	r3, [r7, #3]	@ zero_extendqisi2
 2223 004c 9BB2     		uxth	r3, r3
 2224 004e 1B02     		lsls	r3, r3, #8
 2225 0050 9BB2     		uxth	r3, r3
 2226 0052 1343     		orrs	r3, r3, r2
 2227 0054 9AB2     		uxth	r2, r3
 2228 0056 7B68     		ldr	r3, [r7, #4]
 2229 0058 1A83     		strh	r2, [r3, #24]	@ movhi
 910:App/STM32F4-Discovery/Libraries/STM32F4xx_StdPeriph_Driver/src/stm32f4xx_usart.c **** }
 2230              		.loc 1 910 0
 2231 005a 0837     		adds	r7, r7, #8
 2232 005c BD46     		mov	sp, r7
 2233              		@ sp needed
 2234 005e 80BD     		pop	{r7, pc}
 2235              	.L121:
 2236              		.align	2
 2237              	.L120:
 2238 0060 00100140 		.word	1073811456
 2239 0064 00440040 		.word	1073759232
 2240 0068 00480040 		.word	1073760256
 2241 006c 00140140 		.word	1073812480
 2242 0070 00000000 		.word	.LC0
 2243              		.cfi_endproc
 2244              	.LFE128:
 2246              		.section	.text.USART_SmartCardCmd,"ax",%progbits
 2247              		.align	2
 2248              		.global	USART_SmartCardCmd
 2249              		.thumb
 2250              		.thumb_func
 2252              	USART_SmartCardCmd:
 2253              	.LFB129:
 911:App/STM32F4-Discovery/Libraries/STM32F4xx_StdPeriph_Driver/src/stm32f4xx_usart.c **** 
 912:App/STM32F4-Discovery/Libraries/STM32F4xx_StdPeriph_Driver/src/stm32f4xx_usart.c **** /**
 913:App/STM32F4-Discovery/Libraries/STM32F4xx_StdPeriph_Driver/src/stm32f4xx_usart.c ****   * @brief  Enables or disables the USART's Smart Card mode.
 914:App/STM32F4-Discovery/Libraries/STM32F4xx_StdPeriph_Driver/src/stm32f4xx_usart.c ****   * @param  USARTx: where x can be 1, 2, 3 or 6 to select the USART or 
 915:App/STM32F4-Discovery/Libraries/STM32F4xx_StdPeriph_Driver/src/stm32f4xx_usart.c ****   *         UART peripheral.
 916:App/STM32F4-Discovery/Libraries/STM32F4xx_StdPeriph_Driver/src/stm32f4xx_usart.c ****   * @param  NewState: new state of the Smart Card mode.
 917:App/STM32F4-Discovery/Libraries/STM32F4xx_StdPeriph_Driver/src/stm32f4xx_usart.c ****   *          This parameter can be: ENABLE or DISABLE.      
 918:App/STM32F4-Discovery/Libraries/STM32F4xx_StdPeriph_Driver/src/stm32f4xx_usart.c ****   * @retval None
 919:App/STM32F4-Discovery/Libraries/STM32F4xx_StdPeriph_Driver/src/stm32f4xx_usart.c ****   */
 920:App/STM32F4-Discovery/Libraries/STM32F4xx_StdPeriph_Driver/src/stm32f4xx_usart.c **** void USART_SmartCardCmd(USART_TypeDef* USARTx, FunctionalState NewState)
 921:App/STM32F4-Discovery/Libraries/STM32F4xx_StdPeriph_Driver/src/stm32f4xx_usart.c **** {
 2254              		.loc 1 921 0
 2255              		.cfi_startproc
 2256              		@ args = 0, pretend = 0, frame = 8
 2257              		@ frame_needed = 1, uses_anonymous_args = 0
 2258 0000 80B5     		push	{r7, lr}
 2259              	.LCFI57:
 2260              		.cfi_def_cfa_offset 8
 2261              		.cfi_offset 7, -8
 2262              		.cfi_offset 14, -4
 2263 0002 82B0     		sub	sp, sp, #8
 2264              	.LCFI58:
 2265              		.cfi_def_cfa_offset 16
 2266 0004 00AF     		add	r7, sp, #0
 2267              	.LCFI59:
 2268              		.cfi_def_cfa_register 7
 2269 0006 7860     		str	r0, [r7, #4]
 2270 0008 0B46     		mov	r3, r1
 2271 000a FB70     		strb	r3, [r7, #3]
 922:App/STM32F4-Discovery/Libraries/STM32F4xx_StdPeriph_Driver/src/stm32f4xx_usart.c ****   /* Check the parameters */
 923:App/STM32F4-Discovery/Libraries/STM32F4xx_StdPeriph_Driver/src/stm32f4xx_usart.c ****   assert_param(IS_USART_1236_PERIPH(USARTx));
 2272              		.loc 1 923 0
 2273 000c 7A68     		ldr	r2, [r7, #4]
 2274 000e 1B4B     		ldr	r3, .L127
 2275 0010 9A42     		cmp	r2, r3
 2276 0012 10D0     		beq	.L123
 2277              		.loc 1 923 0 is_stmt 0 discriminator 1
 2278 0014 7A68     		ldr	r2, [r7, #4]
 2279 0016 1A4B     		ldr	r3, .L127+4
 2280 0018 9A42     		cmp	r2, r3
 2281 001a 0CD0     		beq	.L123
 2282 001c 7A68     		ldr	r2, [r7, #4]
 2283 001e 194B     		ldr	r3, .L127+8
 2284 0020 9A42     		cmp	r2, r3
 2285 0022 08D0     		beq	.L123
 2286 0024 7A68     		ldr	r2, [r7, #4]
 2287 0026 184B     		ldr	r3, .L127+12
 2288 0028 9A42     		cmp	r2, r3
 2289 002a 04D0     		beq	.L123
 2290 002c 1748     		ldr	r0, .L127+16
 2291 002e 40F29B31 		movw	r1, #923
 2292 0032 FFF7FEFF 		bl	assert_failed
 2293              	.L123:
 924:App/STM32F4-Discovery/Libraries/STM32F4xx_StdPeriph_Driver/src/stm32f4xx_usart.c ****   assert_param(IS_FUNCTIONAL_STATE(NewState));
 2294              		.loc 1 924 0 is_stmt 1
 2295 0036 FB78     		ldrb	r3, [r7, #3]	@ zero_extendqisi2
 2296 0038 002B     		cmp	r3, #0
 2297 003a 07D0     		beq	.L124
 2298              		.loc 1 924 0 is_stmt 0 discriminator 1
 2299 003c FB78     		ldrb	r3, [r7, #3]	@ zero_extendqisi2
 2300 003e 012B     		cmp	r3, #1
 2301 0040 04D0     		beq	.L124
 2302 0042 1248     		ldr	r0, .L127+16
 2303 0044 4FF46771 		mov	r1, #924
 2304 0048 FFF7FEFF 		bl	assert_failed
 2305              	.L124:
 925:App/STM32F4-Discovery/Libraries/STM32F4xx_StdPeriph_Driver/src/stm32f4xx_usart.c ****   if (NewState != DISABLE)
 2306              		.loc 1 925 0 is_stmt 1
 2307 004c FB78     		ldrb	r3, [r7, #3]	@ zero_extendqisi2
 2308 004e 002B     		cmp	r3, #0
 2309 0050 08D0     		beq	.L125
 926:App/STM32F4-Discovery/Libraries/STM32F4xx_StdPeriph_Driver/src/stm32f4xx_usart.c ****   {
 927:App/STM32F4-Discovery/Libraries/STM32F4xx_StdPeriph_Driver/src/stm32f4xx_usart.c ****     /* Enable the SC mode by setting the SCEN bit in the CR3 register */
 928:App/STM32F4-Discovery/Libraries/STM32F4xx_StdPeriph_Driver/src/stm32f4xx_usart.c ****     USARTx->CR3 |= USART_CR3_SCEN;
 2310              		.loc 1 928 0
 2311 0052 7B68     		ldr	r3, [r7, #4]
 2312 0054 9B8A     		ldrh	r3, [r3, #20]	@ movhi
 2313 0056 9BB2     		uxth	r3, r3
 2314 0058 43F02003 		orr	r3, r3, #32
 2315 005c 9AB2     		uxth	r2, r3
 2316 005e 7B68     		ldr	r3, [r7, #4]
 2317 0060 9A82     		strh	r2, [r3, #20]	@ movhi
 2318 0062 07E0     		b	.L122
 2319              	.L125:
 929:App/STM32F4-Discovery/Libraries/STM32F4xx_StdPeriph_Driver/src/stm32f4xx_usart.c ****   }
 930:App/STM32F4-Discovery/Libraries/STM32F4xx_StdPeriph_Driver/src/stm32f4xx_usart.c ****   else
 931:App/STM32F4-Discovery/Libraries/STM32F4xx_StdPeriph_Driver/src/stm32f4xx_usart.c ****   {
 932:App/STM32F4-Discovery/Libraries/STM32F4xx_StdPeriph_Driver/src/stm32f4xx_usart.c ****     /* Disable the SC mode by clearing the SCEN bit in the CR3 register */
 933:App/STM32F4-Discovery/Libraries/STM32F4xx_StdPeriph_Driver/src/stm32f4xx_usart.c ****     USARTx->CR3 &= (uint16_t)~((uint16_t)USART_CR3_SCEN);
 2320              		.loc 1 933 0
 2321 0064 7B68     		ldr	r3, [r7, #4]
 2322 0066 9B8A     		ldrh	r3, [r3, #20]	@ movhi
 2323 0068 9BB2     		uxth	r3, r3
 2324 006a 23F02003 		bic	r3, r3, #32
 2325 006e 9AB2     		uxth	r2, r3
 2326 0070 7B68     		ldr	r3, [r7, #4]
 2327 0072 9A82     		strh	r2, [r3, #20]	@ movhi
 2328              	.L122:
 934:App/STM32F4-Discovery/Libraries/STM32F4xx_StdPeriph_Driver/src/stm32f4xx_usart.c ****   }
 935:App/STM32F4-Discovery/Libraries/STM32F4xx_StdPeriph_Driver/src/stm32f4xx_usart.c **** }
 2329              		.loc 1 935 0
 2330 0074 0837     		adds	r7, r7, #8
 2331 0076 BD46     		mov	sp, r7
 2332              		@ sp needed
 2333 0078 80BD     		pop	{r7, pc}
 2334              	.L128:
 2335 007a 00BF     		.align	2
 2336              	.L127:
 2337 007c 00100140 		.word	1073811456
 2338 0080 00440040 		.word	1073759232
 2339 0084 00480040 		.word	1073760256
 2340 0088 00140140 		.word	1073812480
 2341 008c 00000000 		.word	.LC0
 2342              		.cfi_endproc
 2343              	.LFE129:
 2345              		.section	.text.USART_SmartCardNACKCmd,"ax",%progbits
 2346              		.align	2
 2347              		.global	USART_SmartCardNACKCmd
 2348              		.thumb
 2349              		.thumb_func
 2351              	USART_SmartCardNACKCmd:
 2352              	.LFB130:
 936:App/STM32F4-Discovery/Libraries/STM32F4xx_StdPeriph_Driver/src/stm32f4xx_usart.c **** 
 937:App/STM32F4-Discovery/Libraries/STM32F4xx_StdPeriph_Driver/src/stm32f4xx_usart.c **** /**
 938:App/STM32F4-Discovery/Libraries/STM32F4xx_StdPeriph_Driver/src/stm32f4xx_usart.c ****   * @brief  Enables or disables NACK transmission.
 939:App/STM32F4-Discovery/Libraries/STM32F4xx_StdPeriph_Driver/src/stm32f4xx_usart.c ****   * @param  USARTx: where x can be 1, 2, 3 or 6 to select the USART or 
 940:App/STM32F4-Discovery/Libraries/STM32F4xx_StdPeriph_Driver/src/stm32f4xx_usart.c ****   *         UART peripheral.
 941:App/STM32F4-Discovery/Libraries/STM32F4xx_StdPeriph_Driver/src/stm32f4xx_usart.c ****   * @param  NewState: new state of the NACK transmission.
 942:App/STM32F4-Discovery/Libraries/STM32F4xx_StdPeriph_Driver/src/stm32f4xx_usart.c ****   *          This parameter can be: ENABLE or DISABLE.  
 943:App/STM32F4-Discovery/Libraries/STM32F4xx_StdPeriph_Driver/src/stm32f4xx_usart.c ****   * @retval None
 944:App/STM32F4-Discovery/Libraries/STM32F4xx_StdPeriph_Driver/src/stm32f4xx_usart.c ****   */
 945:App/STM32F4-Discovery/Libraries/STM32F4xx_StdPeriph_Driver/src/stm32f4xx_usart.c **** void USART_SmartCardNACKCmd(USART_TypeDef* USARTx, FunctionalState NewState)
 946:App/STM32F4-Discovery/Libraries/STM32F4xx_StdPeriph_Driver/src/stm32f4xx_usart.c **** {
 2353              		.loc 1 946 0
 2354              		.cfi_startproc
 2355              		@ args = 0, pretend = 0, frame = 8
 2356              		@ frame_needed = 1, uses_anonymous_args = 0
 2357 0000 80B5     		push	{r7, lr}
 2358              	.LCFI60:
 2359              		.cfi_def_cfa_offset 8
 2360              		.cfi_offset 7, -8
 2361              		.cfi_offset 14, -4
 2362 0002 82B0     		sub	sp, sp, #8
 2363              	.LCFI61:
 2364              		.cfi_def_cfa_offset 16
 2365 0004 00AF     		add	r7, sp, #0
 2366              	.LCFI62:
 2367              		.cfi_def_cfa_register 7
 2368 0006 7860     		str	r0, [r7, #4]
 2369 0008 0B46     		mov	r3, r1
 2370 000a FB70     		strb	r3, [r7, #3]
 947:App/STM32F4-Discovery/Libraries/STM32F4xx_StdPeriph_Driver/src/stm32f4xx_usart.c ****   /* Check the parameters */
 948:App/STM32F4-Discovery/Libraries/STM32F4xx_StdPeriph_Driver/src/stm32f4xx_usart.c ****   assert_param(IS_USART_1236_PERIPH(USARTx)); 
 2371              		.loc 1 948 0
 2372 000c 7A68     		ldr	r2, [r7, #4]
 2373 000e 1B4B     		ldr	r3, .L134
 2374 0010 9A42     		cmp	r2, r3
 2375 0012 10D0     		beq	.L130
 2376              		.loc 1 948 0 is_stmt 0 discriminator 1
 2377 0014 7A68     		ldr	r2, [r7, #4]
 2378 0016 1A4B     		ldr	r3, .L134+4
 2379 0018 9A42     		cmp	r2, r3
 2380 001a 0CD0     		beq	.L130
 2381 001c 7A68     		ldr	r2, [r7, #4]
 2382 001e 194B     		ldr	r3, .L134+8
 2383 0020 9A42     		cmp	r2, r3
 2384 0022 08D0     		beq	.L130
 2385 0024 7A68     		ldr	r2, [r7, #4]
 2386 0026 184B     		ldr	r3, .L134+12
 2387 0028 9A42     		cmp	r2, r3
 2388 002a 04D0     		beq	.L130
 2389 002c 1748     		ldr	r0, .L134+16
 2390 002e 4FF46D71 		mov	r1, #948
 2391 0032 FFF7FEFF 		bl	assert_failed
 2392              	.L130:
 949:App/STM32F4-Discovery/Libraries/STM32F4xx_StdPeriph_Driver/src/stm32f4xx_usart.c ****   assert_param(IS_FUNCTIONAL_STATE(NewState));
 2393              		.loc 1 949 0 is_stmt 1
 2394 0036 FB78     		ldrb	r3, [r7, #3]	@ zero_extendqisi2
 2395 0038 002B     		cmp	r3, #0
 2396 003a 07D0     		beq	.L131
 2397              		.loc 1 949 0 is_stmt 0 discriminator 1
 2398 003c FB78     		ldrb	r3, [r7, #3]	@ zero_extendqisi2
 2399 003e 012B     		cmp	r3, #1
 2400 0040 04D0     		beq	.L131
 2401 0042 1248     		ldr	r0, .L134+16
 2402 0044 40F2B531 		movw	r1, #949
 2403 0048 FFF7FEFF 		bl	assert_failed
 2404              	.L131:
 950:App/STM32F4-Discovery/Libraries/STM32F4xx_StdPeriph_Driver/src/stm32f4xx_usart.c ****   if (NewState != DISABLE)
 2405              		.loc 1 950 0 is_stmt 1
 2406 004c FB78     		ldrb	r3, [r7, #3]	@ zero_extendqisi2
 2407 004e 002B     		cmp	r3, #0
 2408 0050 08D0     		beq	.L132
 951:App/STM32F4-Discovery/Libraries/STM32F4xx_StdPeriph_Driver/src/stm32f4xx_usart.c ****   {
 952:App/STM32F4-Discovery/Libraries/STM32F4xx_StdPeriph_Driver/src/stm32f4xx_usart.c ****     /* Enable the NACK transmission by setting the NACK bit in the CR3 register */
 953:App/STM32F4-Discovery/Libraries/STM32F4xx_StdPeriph_Driver/src/stm32f4xx_usart.c ****     USARTx->CR3 |= USART_CR3_NACK;
 2409              		.loc 1 953 0
 2410 0052 7B68     		ldr	r3, [r7, #4]
 2411 0054 9B8A     		ldrh	r3, [r3, #20]	@ movhi
 2412 0056 9BB2     		uxth	r3, r3
 2413 0058 43F01003 		orr	r3, r3, #16
 2414 005c 9AB2     		uxth	r2, r3
 2415 005e 7B68     		ldr	r3, [r7, #4]
 2416 0060 9A82     		strh	r2, [r3, #20]	@ movhi
 2417 0062 07E0     		b	.L129
 2418              	.L132:
 954:App/STM32F4-Discovery/Libraries/STM32F4xx_StdPeriph_Driver/src/stm32f4xx_usart.c ****   }
 955:App/STM32F4-Discovery/Libraries/STM32F4xx_StdPeriph_Driver/src/stm32f4xx_usart.c ****   else
 956:App/STM32F4-Discovery/Libraries/STM32F4xx_StdPeriph_Driver/src/stm32f4xx_usart.c ****   {
 957:App/STM32F4-Discovery/Libraries/STM32F4xx_StdPeriph_Driver/src/stm32f4xx_usart.c ****     /* Disable the NACK transmission by clearing the NACK bit in the CR3 register */
 958:App/STM32F4-Discovery/Libraries/STM32F4xx_StdPeriph_Driver/src/stm32f4xx_usart.c ****     USARTx->CR3 &= (uint16_t)~((uint16_t)USART_CR3_NACK);
 2419              		.loc 1 958 0
 2420 0064 7B68     		ldr	r3, [r7, #4]
 2421 0066 9B8A     		ldrh	r3, [r3, #20]	@ movhi
 2422 0068 9BB2     		uxth	r3, r3
 2423 006a 23F01003 		bic	r3, r3, #16
 2424 006e 9AB2     		uxth	r2, r3
 2425 0070 7B68     		ldr	r3, [r7, #4]
 2426 0072 9A82     		strh	r2, [r3, #20]	@ movhi
 2427              	.L129:
 959:App/STM32F4-Discovery/Libraries/STM32F4xx_StdPeriph_Driver/src/stm32f4xx_usart.c ****   }
 960:App/STM32F4-Discovery/Libraries/STM32F4xx_StdPeriph_Driver/src/stm32f4xx_usart.c **** }
 2428              		.loc 1 960 0
 2429 0074 0837     		adds	r7, r7, #8
 2430 0076 BD46     		mov	sp, r7
 2431              		@ sp needed
 2432 0078 80BD     		pop	{r7, pc}
 2433              	.L135:
 2434 007a 00BF     		.align	2
 2435              	.L134:
 2436 007c 00100140 		.word	1073811456
 2437 0080 00440040 		.word	1073759232
 2438 0084 00480040 		.word	1073760256
 2439 0088 00140140 		.word	1073812480
 2440 008c 00000000 		.word	.LC0
 2441              		.cfi_endproc
 2442              	.LFE130:
 2444              		.section	.text.USART_IrDAConfig,"ax",%progbits
 2445              		.align	2
 2446              		.global	USART_IrDAConfig
 2447              		.thumb
 2448              		.thumb_func
 2450              	USART_IrDAConfig:
 2451              	.LFB131:
 961:App/STM32F4-Discovery/Libraries/STM32F4xx_StdPeriph_Driver/src/stm32f4xx_usart.c **** 
 962:App/STM32F4-Discovery/Libraries/STM32F4xx_StdPeriph_Driver/src/stm32f4xx_usart.c **** /**
 963:App/STM32F4-Discovery/Libraries/STM32F4xx_StdPeriph_Driver/src/stm32f4xx_usart.c ****   * @}
 964:App/STM32F4-Discovery/Libraries/STM32F4xx_StdPeriph_Driver/src/stm32f4xx_usart.c ****   */
 965:App/STM32F4-Discovery/Libraries/STM32F4xx_StdPeriph_Driver/src/stm32f4xx_usart.c **** 
 966:App/STM32F4-Discovery/Libraries/STM32F4xx_StdPeriph_Driver/src/stm32f4xx_usart.c **** /** @defgroup USART_Group7 IrDA mode functions
 967:App/STM32F4-Discovery/Libraries/STM32F4xx_StdPeriph_Driver/src/stm32f4xx_usart.c ****  *  @brief   IrDA mode functions 
 968:App/STM32F4-Discovery/Libraries/STM32F4xx_StdPeriph_Driver/src/stm32f4xx_usart.c ****  *
 969:App/STM32F4-Discovery/Libraries/STM32F4xx_StdPeriph_Driver/src/stm32f4xx_usart.c **** @verbatim   
 970:App/STM32F4-Discovery/Libraries/STM32F4xx_StdPeriph_Driver/src/stm32f4xx_usart.c ****  ===============================================================================
 971:App/STM32F4-Discovery/Libraries/STM32F4xx_StdPeriph_Driver/src/stm32f4xx_usart.c ****                                 IrDA mode functions
 972:App/STM32F4-Discovery/Libraries/STM32F4xx_StdPeriph_Driver/src/stm32f4xx_usart.c ****  ===============================================================================  
 973:App/STM32F4-Discovery/Libraries/STM32F4xx_StdPeriph_Driver/src/stm32f4xx_usart.c **** 
 974:App/STM32F4-Discovery/Libraries/STM32F4xx_StdPeriph_Driver/src/stm32f4xx_usart.c ****   This subsection provides a set of functions allowing to manage the USART 
 975:App/STM32F4-Discovery/Libraries/STM32F4xx_StdPeriph_Driver/src/stm32f4xx_usart.c ****   IrDA communication.
 976:App/STM32F4-Discovery/Libraries/STM32F4xx_StdPeriph_Driver/src/stm32f4xx_usart.c ****   
 977:App/STM32F4-Discovery/Libraries/STM32F4xx_StdPeriph_Driver/src/stm32f4xx_usart.c ****   IrDA is a half duplex communication protocol. If the Transmitter is busy, any data
 978:App/STM32F4-Discovery/Libraries/STM32F4xx_StdPeriph_Driver/src/stm32f4xx_usart.c ****   on the IrDA receive line will be ignored by the IrDA decoder and if the Receiver 
 979:App/STM32F4-Discovery/Libraries/STM32F4xx_StdPeriph_Driver/src/stm32f4xx_usart.c ****   is busy, data on the TX from the USART to IrDA will not be encoded by IrDA.
 980:App/STM32F4-Discovery/Libraries/STM32F4xx_StdPeriph_Driver/src/stm32f4xx_usart.c ****   While receiving data, transmission should be avoided as the data to be transmitted
 981:App/STM32F4-Discovery/Libraries/STM32F4xx_StdPeriph_Driver/src/stm32f4xx_usart.c ****   could be corrupted.
 982:App/STM32F4-Discovery/Libraries/STM32F4xx_StdPeriph_Driver/src/stm32f4xx_usart.c **** 
 983:App/STM32F4-Discovery/Libraries/STM32F4xx_StdPeriph_Driver/src/stm32f4xx_usart.c ****   IrDA communication is possible through the following procedure:
 984:App/STM32F4-Discovery/Libraries/STM32F4xx_StdPeriph_Driver/src/stm32f4xx_usart.c ****      1. Program the Baud rate, Word length = 8 bits, Stop bits, Parity, Transmitter/Receiver 
 985:App/STM32F4-Discovery/Libraries/STM32F4xx_StdPeriph_Driver/src/stm32f4xx_usart.c ****         modes and hardware flow control values using the USART_Init() function.
 986:App/STM32F4-Discovery/Libraries/STM32F4xx_StdPeriph_Driver/src/stm32f4xx_usart.c ****      2. Enable the USART using the USART_Cmd() function.
 987:App/STM32F4-Discovery/Libraries/STM32F4xx_StdPeriph_Driver/src/stm32f4xx_usart.c ****      3. Configures the IrDA pulse width by configuring the prescaler using  
 988:App/STM32F4-Discovery/Libraries/STM32F4xx_StdPeriph_Driver/src/stm32f4xx_usart.c ****         the USART_SetPrescaler() function.
 989:App/STM32F4-Discovery/Libraries/STM32F4xx_StdPeriph_Driver/src/stm32f4xx_usart.c ****      4. Configures the IrDA  USART_IrDAMode_LowPower or USART_IrDAMode_Normal mode
 990:App/STM32F4-Discovery/Libraries/STM32F4xx_StdPeriph_Driver/src/stm32f4xx_usart.c ****         using the USART_IrDAConfig() function.
 991:App/STM32F4-Discovery/Libraries/STM32F4xx_StdPeriph_Driver/src/stm32f4xx_usart.c ****      5. Enable the IrDA using the USART_IrDACmd() function.
 992:App/STM32F4-Discovery/Libraries/STM32F4xx_StdPeriph_Driver/src/stm32f4xx_usart.c **** 
 993:App/STM32F4-Discovery/Libraries/STM32F4xx_StdPeriph_Driver/src/stm32f4xx_usart.c **** @note A pulse of width less than two and greater than one PSC period(s) may or may
 994:App/STM32F4-Discovery/Libraries/STM32F4xx_StdPeriph_Driver/src/stm32f4xx_usart.c ****       not be rejected.
 995:App/STM32F4-Discovery/Libraries/STM32F4xx_StdPeriph_Driver/src/stm32f4xx_usart.c **** @note The receiver set up time should be managed by software. The IrDA physical layer
 996:App/STM32F4-Discovery/Libraries/STM32F4xx_StdPeriph_Driver/src/stm32f4xx_usart.c ****       specification specifies a minimum of 10 ms delay between transmission and 
 997:App/STM32F4-Discovery/Libraries/STM32F4xx_StdPeriph_Driver/src/stm32f4xx_usart.c ****       reception (IrDA is a half duplex protocol).
 998:App/STM32F4-Discovery/Libraries/STM32F4xx_StdPeriph_Driver/src/stm32f4xx_usart.c **** @note In IrDA mode, the following bits must be kept cleared:
 999:App/STM32F4-Discovery/Libraries/STM32F4xx_StdPeriph_Driver/src/stm32f4xx_usart.c ****         - LINEN, STOP and CLKEN bits in the USART_CR2 register.
1000:App/STM32F4-Discovery/Libraries/STM32F4xx_StdPeriph_Driver/src/stm32f4xx_usart.c ****         - SCEN and HDSEL bits in the USART_CR3 register.
1001:App/STM32F4-Discovery/Libraries/STM32F4xx_StdPeriph_Driver/src/stm32f4xx_usart.c **** 
1002:App/STM32F4-Discovery/Libraries/STM32F4xx_StdPeriph_Driver/src/stm32f4xx_usart.c **** @endverbatim
1003:App/STM32F4-Discovery/Libraries/STM32F4xx_StdPeriph_Driver/src/stm32f4xx_usart.c ****   * @{
1004:App/STM32F4-Discovery/Libraries/STM32F4xx_StdPeriph_Driver/src/stm32f4xx_usart.c ****   */
1005:App/STM32F4-Discovery/Libraries/STM32F4xx_StdPeriph_Driver/src/stm32f4xx_usart.c **** 
1006:App/STM32F4-Discovery/Libraries/STM32F4xx_StdPeriph_Driver/src/stm32f4xx_usart.c **** /**
1007:App/STM32F4-Discovery/Libraries/STM32F4xx_StdPeriph_Driver/src/stm32f4xx_usart.c ****   * @brief  Configures the USART's IrDA interface.
1008:App/STM32F4-Discovery/Libraries/STM32F4xx_StdPeriph_Driver/src/stm32f4xx_usart.c ****   * @param  USARTx: where x can be 1, 2, 3, 4, 5 or 6 to select the USART or 
1009:App/STM32F4-Discovery/Libraries/STM32F4xx_StdPeriph_Driver/src/stm32f4xx_usart.c ****   *         UART peripheral.
1010:App/STM32F4-Discovery/Libraries/STM32F4xx_StdPeriph_Driver/src/stm32f4xx_usart.c ****   * @param  USART_IrDAMode: specifies the IrDA mode.
1011:App/STM32F4-Discovery/Libraries/STM32F4xx_StdPeriph_Driver/src/stm32f4xx_usart.c ****   *          This parameter can be one of the following values:
1012:App/STM32F4-Discovery/Libraries/STM32F4xx_StdPeriph_Driver/src/stm32f4xx_usart.c ****   *            @arg USART_IrDAMode_LowPower
1013:App/STM32F4-Discovery/Libraries/STM32F4xx_StdPeriph_Driver/src/stm32f4xx_usart.c ****   *            @arg USART_IrDAMode_Normal
1014:App/STM32F4-Discovery/Libraries/STM32F4xx_StdPeriph_Driver/src/stm32f4xx_usart.c ****   * @retval None
1015:App/STM32F4-Discovery/Libraries/STM32F4xx_StdPeriph_Driver/src/stm32f4xx_usart.c ****   */
1016:App/STM32F4-Discovery/Libraries/STM32F4xx_StdPeriph_Driver/src/stm32f4xx_usart.c **** void USART_IrDAConfig(USART_TypeDef* USARTx, uint16_t USART_IrDAMode)
1017:App/STM32F4-Discovery/Libraries/STM32F4xx_StdPeriph_Driver/src/stm32f4xx_usart.c **** {
 2452              		.loc 1 1017 0
 2453              		.cfi_startproc
 2454              		@ args = 0, pretend = 0, frame = 8
 2455              		@ frame_needed = 1, uses_anonymous_args = 0
 2456 0000 80B5     		push	{r7, lr}
 2457              	.LCFI63:
 2458              		.cfi_def_cfa_offset 8
 2459              		.cfi_offset 7, -8
 2460              		.cfi_offset 14, -4
 2461 0002 82B0     		sub	sp, sp, #8
 2462              	.LCFI64:
 2463              		.cfi_def_cfa_offset 16
 2464 0004 00AF     		add	r7, sp, #0
 2465              	.LCFI65:
 2466              		.cfi_def_cfa_register 7
 2467 0006 7860     		str	r0, [r7, #4]
 2468 0008 0B46     		mov	r3, r1
 2469 000a 7B80     		strh	r3, [r7, #2]	@ movhi
1018:App/STM32F4-Discovery/Libraries/STM32F4xx_StdPeriph_Driver/src/stm32f4xx_usart.c ****   /* Check the parameters */
1019:App/STM32F4-Discovery/Libraries/STM32F4xx_StdPeriph_Driver/src/stm32f4xx_usart.c ****   assert_param(IS_USART_ALL_PERIPH(USARTx));
 2470              		.loc 1 1019 0
 2471 000c 7A68     		ldr	r2, [r7, #4]
 2472 000e 1D4B     		ldr	r3, .L139
 2473 0010 9A42     		cmp	r2, r3
 2474 0012 18D0     		beq	.L137
 2475              		.loc 1 1019 0 is_stmt 0 discriminator 1
 2476 0014 7A68     		ldr	r2, [r7, #4]
 2477 0016 1C4B     		ldr	r3, .L139+4
 2478 0018 9A42     		cmp	r2, r3
 2479 001a 14D0     		beq	.L137
 2480 001c 7A68     		ldr	r2, [r7, #4]
 2481 001e 1B4B     		ldr	r3, .L139+8
 2482 0020 9A42     		cmp	r2, r3
 2483 0022 10D0     		beq	.L137
 2484 0024 7A68     		ldr	r2, [r7, #4]
 2485 0026 1A4B     		ldr	r3, .L139+12
 2486 0028 9A42     		cmp	r2, r3
 2487 002a 0CD0     		beq	.L137
 2488 002c 7A68     		ldr	r2, [r7, #4]
 2489 002e 194B     		ldr	r3, .L139+16
 2490 0030 9A42     		cmp	r2, r3
 2491 0032 08D0     		beq	.L137
 2492 0034 7A68     		ldr	r2, [r7, #4]
 2493 0036 184B     		ldr	r3, .L139+20
 2494 0038 9A42     		cmp	r2, r3
 2495 003a 04D0     		beq	.L137
 2496 003c 1748     		ldr	r0, .L139+24
 2497 003e 40F2FB31 		movw	r1, #1019
 2498 0042 FFF7FEFF 		bl	assert_failed
 2499              	.L137:
1020:App/STM32F4-Discovery/Libraries/STM32F4xx_StdPeriph_Driver/src/stm32f4xx_usart.c ****   assert_param(IS_USART_IRDA_MODE(USART_IrDAMode));
 2500              		.loc 1 1020 0 is_stmt 1
 2501 0046 7B88     		ldrh	r3, [r7, #2]
 2502 0048 042B     		cmp	r3, #4
 2503 004a 07D0     		beq	.L138
 2504              		.loc 1 1020 0 is_stmt 0 discriminator 1
 2505 004c 7B88     		ldrh	r3, [r7, #2]
 2506 004e 002B     		cmp	r3, #0
 2507 0050 04D0     		beq	.L138
 2508 0052 1248     		ldr	r0, .L139+24
 2509 0054 4FF47F71 		mov	r1, #1020
 2510 0058 FFF7FEFF 		bl	assert_failed
 2511              	.L138:
1021:App/STM32F4-Discovery/Libraries/STM32F4xx_StdPeriph_Driver/src/stm32f4xx_usart.c ****     
1022:App/STM32F4-Discovery/Libraries/STM32F4xx_StdPeriph_Driver/src/stm32f4xx_usart.c ****   USARTx->CR3 &= (uint16_t)~((uint16_t)USART_CR3_IRLP);
 2512              		.loc 1 1022 0 is_stmt 1
 2513 005c 7B68     		ldr	r3, [r7, #4]
 2514 005e 9B8A     		ldrh	r3, [r3, #20]	@ movhi
 2515 0060 9BB2     		uxth	r3, r3
 2516 0062 23F00403 		bic	r3, r3, #4
 2517 0066 9AB2     		uxth	r2, r3
 2518 0068 7B68     		ldr	r3, [r7, #4]
 2519 006a 9A82     		strh	r2, [r3, #20]	@ movhi
1023:App/STM32F4-Discovery/Libraries/STM32F4xx_StdPeriph_Driver/src/stm32f4xx_usart.c ****   USARTx->CR3 |= USART_IrDAMode;
 2520              		.loc 1 1023 0
 2521 006c 7B68     		ldr	r3, [r7, #4]
 2522 006e 9B8A     		ldrh	r3, [r3, #20]	@ movhi
 2523 0070 9AB2     		uxth	r2, r3
 2524 0072 7B88     		ldrh	r3, [r7, #2]	@ movhi
 2525 0074 1343     		orrs	r3, r3, r2
 2526 0076 9AB2     		uxth	r2, r3
 2527 0078 7B68     		ldr	r3, [r7, #4]
 2528 007a 9A82     		strh	r2, [r3, #20]	@ movhi
1024:App/STM32F4-Discovery/Libraries/STM32F4xx_StdPeriph_Driver/src/stm32f4xx_usart.c **** }
 2529              		.loc 1 1024 0
 2530 007c 0837     		adds	r7, r7, #8
 2531 007e BD46     		mov	sp, r7
 2532              		@ sp needed
 2533 0080 80BD     		pop	{r7, pc}
 2534              	.L140:
 2535 0082 00BF     		.align	2
 2536              	.L139:
 2537 0084 00100140 		.word	1073811456
 2538 0088 00440040 		.word	1073759232
 2539 008c 00480040 		.word	1073760256
 2540 0090 004C0040 		.word	1073761280
 2541 0094 00500040 		.word	1073762304
 2542 0098 00140140 		.word	1073812480
 2543 009c 00000000 		.word	.LC0
 2544              		.cfi_endproc
 2545              	.LFE131:
 2547              		.section	.text.USART_IrDACmd,"ax",%progbits
 2548              		.align	2
 2549              		.global	USART_IrDACmd
 2550              		.thumb
 2551              		.thumb_func
 2553              	USART_IrDACmd:
 2554              	.LFB132:
1025:App/STM32F4-Discovery/Libraries/STM32F4xx_StdPeriph_Driver/src/stm32f4xx_usart.c **** 
1026:App/STM32F4-Discovery/Libraries/STM32F4xx_StdPeriph_Driver/src/stm32f4xx_usart.c **** /**
1027:App/STM32F4-Discovery/Libraries/STM32F4xx_StdPeriph_Driver/src/stm32f4xx_usart.c ****   * @brief  Enables or disables the USART's IrDA interface.
1028:App/STM32F4-Discovery/Libraries/STM32F4xx_StdPeriph_Driver/src/stm32f4xx_usart.c ****   * @param  USARTx: where x can be 1, 2, 3, 4, 5 or 6 to select the USART or 
1029:App/STM32F4-Discovery/Libraries/STM32F4xx_StdPeriph_Driver/src/stm32f4xx_usart.c ****   *         UART peripheral.
1030:App/STM32F4-Discovery/Libraries/STM32F4xx_StdPeriph_Driver/src/stm32f4xx_usart.c ****   * @param  NewState: new state of the IrDA mode.
1031:App/STM32F4-Discovery/Libraries/STM32F4xx_StdPeriph_Driver/src/stm32f4xx_usart.c ****   *          This parameter can be: ENABLE or DISABLE.
1032:App/STM32F4-Discovery/Libraries/STM32F4xx_StdPeriph_Driver/src/stm32f4xx_usart.c ****   * @retval None
1033:App/STM32F4-Discovery/Libraries/STM32F4xx_StdPeriph_Driver/src/stm32f4xx_usart.c ****   */
1034:App/STM32F4-Discovery/Libraries/STM32F4xx_StdPeriph_Driver/src/stm32f4xx_usart.c **** void USART_IrDACmd(USART_TypeDef* USARTx, FunctionalState NewState)
1035:App/STM32F4-Discovery/Libraries/STM32F4xx_StdPeriph_Driver/src/stm32f4xx_usart.c **** {
 2555              		.loc 1 1035 0
 2556              		.cfi_startproc
 2557              		@ args = 0, pretend = 0, frame = 8
 2558              		@ frame_needed = 1, uses_anonymous_args = 0
 2559 0000 80B5     		push	{r7, lr}
 2560              	.LCFI66:
 2561              		.cfi_def_cfa_offset 8
 2562              		.cfi_offset 7, -8
 2563              		.cfi_offset 14, -4
 2564 0002 82B0     		sub	sp, sp, #8
 2565              	.LCFI67:
 2566              		.cfi_def_cfa_offset 16
 2567 0004 00AF     		add	r7, sp, #0
 2568              	.LCFI68:
 2569              		.cfi_def_cfa_register 7
 2570 0006 7860     		str	r0, [r7, #4]
 2571 0008 0B46     		mov	r3, r1
 2572 000a FB70     		strb	r3, [r7, #3]
1036:App/STM32F4-Discovery/Libraries/STM32F4xx_StdPeriph_Driver/src/stm32f4xx_usart.c ****   /* Check the parameters */
1037:App/STM32F4-Discovery/Libraries/STM32F4xx_StdPeriph_Driver/src/stm32f4xx_usart.c ****   assert_param(IS_USART_ALL_PERIPH(USARTx));
 2573              		.loc 1 1037 0
 2574 000c 7A68     		ldr	r2, [r7, #4]
 2575 000e 1F4B     		ldr	r3, .L146
 2576 0010 9A42     		cmp	r2, r3
 2577 0012 18D0     		beq	.L142
 2578              		.loc 1 1037 0 is_stmt 0 discriminator 1
 2579 0014 7A68     		ldr	r2, [r7, #4]
 2580 0016 1E4B     		ldr	r3, .L146+4
 2581 0018 9A42     		cmp	r2, r3
 2582 001a 14D0     		beq	.L142
 2583 001c 7A68     		ldr	r2, [r7, #4]
 2584 001e 1D4B     		ldr	r3, .L146+8
 2585 0020 9A42     		cmp	r2, r3
 2586 0022 10D0     		beq	.L142
 2587 0024 7A68     		ldr	r2, [r7, #4]
 2588 0026 1C4B     		ldr	r3, .L146+12
 2589 0028 9A42     		cmp	r2, r3
 2590 002a 0CD0     		beq	.L142
 2591 002c 7A68     		ldr	r2, [r7, #4]
 2592 002e 1B4B     		ldr	r3, .L146+16
 2593 0030 9A42     		cmp	r2, r3
 2594 0032 08D0     		beq	.L142
 2595 0034 7A68     		ldr	r2, [r7, #4]
 2596 0036 1A4B     		ldr	r3, .L146+20
 2597 0038 9A42     		cmp	r2, r3
 2598 003a 04D0     		beq	.L142
 2599 003c 1948     		ldr	r0, .L146+24
 2600 003e 40F20D41 		movw	r1, #1037
 2601 0042 FFF7FEFF 		bl	assert_failed
 2602              	.L142:
1038:App/STM32F4-Discovery/Libraries/STM32F4xx_StdPeriph_Driver/src/stm32f4xx_usart.c ****   assert_param(IS_FUNCTIONAL_STATE(NewState));
 2603              		.loc 1 1038 0 is_stmt 1
 2604 0046 FB78     		ldrb	r3, [r7, #3]	@ zero_extendqisi2
 2605 0048 002B     		cmp	r3, #0
 2606 004a 07D0     		beq	.L143
 2607              		.loc 1 1038 0 is_stmt 0 discriminator 1
 2608 004c FB78     		ldrb	r3, [r7, #3]	@ zero_extendqisi2
 2609 004e 012B     		cmp	r3, #1
 2610 0050 04D0     		beq	.L143
 2611 0052 1448     		ldr	r0, .L146+24
 2612 0054 40F20E41 		movw	r1, #1038
 2613 0058 FFF7FEFF 		bl	assert_failed
 2614              	.L143:
1039:App/STM32F4-Discovery/Libraries/STM32F4xx_StdPeriph_Driver/src/stm32f4xx_usart.c ****     
1040:App/STM32F4-Discovery/Libraries/STM32F4xx_StdPeriph_Driver/src/stm32f4xx_usart.c ****   if (NewState != DISABLE)
 2615              		.loc 1 1040 0 is_stmt 1
 2616 005c FB78     		ldrb	r3, [r7, #3]	@ zero_extendqisi2
 2617 005e 002B     		cmp	r3, #0
 2618 0060 08D0     		beq	.L144
1041:App/STM32F4-Discovery/Libraries/STM32F4xx_StdPeriph_Driver/src/stm32f4xx_usart.c ****   {
1042:App/STM32F4-Discovery/Libraries/STM32F4xx_StdPeriph_Driver/src/stm32f4xx_usart.c ****     /* Enable the IrDA mode by setting the IREN bit in the CR3 register */
1043:App/STM32F4-Discovery/Libraries/STM32F4xx_StdPeriph_Driver/src/stm32f4xx_usart.c ****     USARTx->CR3 |= USART_CR3_IREN;
 2619              		.loc 1 1043 0
 2620 0062 7B68     		ldr	r3, [r7, #4]
 2621 0064 9B8A     		ldrh	r3, [r3, #20]	@ movhi
 2622 0066 9BB2     		uxth	r3, r3
 2623 0068 43F00203 		orr	r3, r3, #2
 2624 006c 9AB2     		uxth	r2, r3
 2625 006e 7B68     		ldr	r3, [r7, #4]
 2626 0070 9A82     		strh	r2, [r3, #20]	@ movhi
 2627 0072 07E0     		b	.L141
 2628              	.L144:
1044:App/STM32F4-Discovery/Libraries/STM32F4xx_StdPeriph_Driver/src/stm32f4xx_usart.c ****   }
1045:App/STM32F4-Discovery/Libraries/STM32F4xx_StdPeriph_Driver/src/stm32f4xx_usart.c ****   else
1046:App/STM32F4-Discovery/Libraries/STM32F4xx_StdPeriph_Driver/src/stm32f4xx_usart.c ****   {
1047:App/STM32F4-Discovery/Libraries/STM32F4xx_StdPeriph_Driver/src/stm32f4xx_usart.c ****     /* Disable the IrDA mode by clearing the IREN bit in the CR3 register */
1048:App/STM32F4-Discovery/Libraries/STM32F4xx_StdPeriph_Driver/src/stm32f4xx_usart.c ****     USARTx->CR3 &= (uint16_t)~((uint16_t)USART_CR3_IREN);
 2629              		.loc 1 1048 0
 2630 0074 7B68     		ldr	r3, [r7, #4]
 2631 0076 9B8A     		ldrh	r3, [r3, #20]	@ movhi
 2632 0078 9BB2     		uxth	r3, r3
 2633 007a 23F00203 		bic	r3, r3, #2
 2634 007e 9AB2     		uxth	r2, r3
 2635 0080 7B68     		ldr	r3, [r7, #4]
 2636 0082 9A82     		strh	r2, [r3, #20]	@ movhi
 2637              	.L141:
1049:App/STM32F4-Discovery/Libraries/STM32F4xx_StdPeriph_Driver/src/stm32f4xx_usart.c ****   }
1050:App/STM32F4-Discovery/Libraries/STM32F4xx_StdPeriph_Driver/src/stm32f4xx_usart.c **** }
 2638              		.loc 1 1050 0
 2639 0084 0837     		adds	r7, r7, #8
 2640 0086 BD46     		mov	sp, r7
 2641              		@ sp needed
 2642 0088 80BD     		pop	{r7, pc}
 2643              	.L147:
 2644 008a 00BF     		.align	2
 2645              	.L146:
 2646 008c 00100140 		.word	1073811456
 2647 0090 00440040 		.word	1073759232
 2648 0094 00480040 		.word	1073760256
 2649 0098 004C0040 		.word	1073761280
 2650 009c 00500040 		.word	1073762304
 2651 00a0 00140140 		.word	1073812480
 2652 00a4 00000000 		.word	.LC0
 2653              		.cfi_endproc
 2654              	.LFE132:
 2656              		.section	.text.USART_DMACmd,"ax",%progbits
 2657              		.align	2
 2658              		.global	USART_DMACmd
 2659              		.thumb
 2660              		.thumb_func
 2662              	USART_DMACmd:
 2663              	.LFB133:
1051:App/STM32F4-Discovery/Libraries/STM32F4xx_StdPeriph_Driver/src/stm32f4xx_usart.c **** 
1052:App/STM32F4-Discovery/Libraries/STM32F4xx_StdPeriph_Driver/src/stm32f4xx_usart.c **** /**
1053:App/STM32F4-Discovery/Libraries/STM32F4xx_StdPeriph_Driver/src/stm32f4xx_usart.c ****   * @}
1054:App/STM32F4-Discovery/Libraries/STM32F4xx_StdPeriph_Driver/src/stm32f4xx_usart.c ****   */
1055:App/STM32F4-Discovery/Libraries/STM32F4xx_StdPeriph_Driver/src/stm32f4xx_usart.c **** 
1056:App/STM32F4-Discovery/Libraries/STM32F4xx_StdPeriph_Driver/src/stm32f4xx_usart.c **** /** @defgroup USART_Group8 DMA transfers management functions
1057:App/STM32F4-Discovery/Libraries/STM32F4xx_StdPeriph_Driver/src/stm32f4xx_usart.c ****  *  @brief   DMA transfers management functions
1058:App/STM32F4-Discovery/Libraries/STM32F4xx_StdPeriph_Driver/src/stm32f4xx_usart.c ****  *
1059:App/STM32F4-Discovery/Libraries/STM32F4xx_StdPeriph_Driver/src/stm32f4xx_usart.c **** @verbatim   
1060:App/STM32F4-Discovery/Libraries/STM32F4xx_StdPeriph_Driver/src/stm32f4xx_usart.c ****  ===============================================================================
1061:App/STM32F4-Discovery/Libraries/STM32F4xx_StdPeriph_Driver/src/stm32f4xx_usart.c ****                       DMA transfers management functions
1062:App/STM32F4-Discovery/Libraries/STM32F4xx_StdPeriph_Driver/src/stm32f4xx_usart.c ****  ===============================================================================  
1063:App/STM32F4-Discovery/Libraries/STM32F4xx_StdPeriph_Driver/src/stm32f4xx_usart.c **** 
1064:App/STM32F4-Discovery/Libraries/STM32F4xx_StdPeriph_Driver/src/stm32f4xx_usart.c **** @endverbatim
1065:App/STM32F4-Discovery/Libraries/STM32F4xx_StdPeriph_Driver/src/stm32f4xx_usart.c ****   * @{
1066:App/STM32F4-Discovery/Libraries/STM32F4xx_StdPeriph_Driver/src/stm32f4xx_usart.c ****   */
1067:App/STM32F4-Discovery/Libraries/STM32F4xx_StdPeriph_Driver/src/stm32f4xx_usart.c ****   
1068:App/STM32F4-Discovery/Libraries/STM32F4xx_StdPeriph_Driver/src/stm32f4xx_usart.c **** /**
1069:App/STM32F4-Discovery/Libraries/STM32F4xx_StdPeriph_Driver/src/stm32f4xx_usart.c ****   * @brief  Enables or disables the USART's DMA interface.
1070:App/STM32F4-Discovery/Libraries/STM32F4xx_StdPeriph_Driver/src/stm32f4xx_usart.c ****   * @param  USARTx: where x can be 1, 2, 3, 4, 5 or 6 to select the USART or 
1071:App/STM32F4-Discovery/Libraries/STM32F4xx_StdPeriph_Driver/src/stm32f4xx_usart.c ****   *         UART peripheral.
1072:App/STM32F4-Discovery/Libraries/STM32F4xx_StdPeriph_Driver/src/stm32f4xx_usart.c ****   * @param  USART_DMAReq: specifies the DMA request.
1073:App/STM32F4-Discovery/Libraries/STM32F4xx_StdPeriph_Driver/src/stm32f4xx_usart.c ****   *          This parameter can be any combination of the following values:
1074:App/STM32F4-Discovery/Libraries/STM32F4xx_StdPeriph_Driver/src/stm32f4xx_usart.c ****   *            @arg USART_DMAReq_Tx: USART DMA transmit request
1075:App/STM32F4-Discovery/Libraries/STM32F4xx_StdPeriph_Driver/src/stm32f4xx_usart.c ****   *            @arg USART_DMAReq_Rx: USART DMA receive request
1076:App/STM32F4-Discovery/Libraries/STM32F4xx_StdPeriph_Driver/src/stm32f4xx_usart.c ****   * @param  NewState: new state of the DMA Request sources.
1077:App/STM32F4-Discovery/Libraries/STM32F4xx_StdPeriph_Driver/src/stm32f4xx_usart.c ****   *          This parameter can be: ENABLE or DISABLE.   
1078:App/STM32F4-Discovery/Libraries/STM32F4xx_StdPeriph_Driver/src/stm32f4xx_usart.c ****   * @retval None
1079:App/STM32F4-Discovery/Libraries/STM32F4xx_StdPeriph_Driver/src/stm32f4xx_usart.c ****   */
1080:App/STM32F4-Discovery/Libraries/STM32F4xx_StdPeriph_Driver/src/stm32f4xx_usart.c **** void USART_DMACmd(USART_TypeDef* USARTx, uint16_t USART_DMAReq, FunctionalState NewState)
1081:App/STM32F4-Discovery/Libraries/STM32F4xx_StdPeriph_Driver/src/stm32f4xx_usart.c **** {
 2664              		.loc 1 1081 0
 2665              		.cfi_startproc
 2666              		@ args = 0, pretend = 0, frame = 8
 2667              		@ frame_needed = 1, uses_anonymous_args = 0
 2668 0000 80B5     		push	{r7, lr}
 2669              	.LCFI69:
 2670              		.cfi_def_cfa_offset 8
 2671              		.cfi_offset 7, -8
 2672              		.cfi_offset 14, -4
 2673 0002 82B0     		sub	sp, sp, #8
 2674              	.LCFI70:
 2675              		.cfi_def_cfa_offset 16
 2676 0004 00AF     		add	r7, sp, #0
 2677              	.LCFI71:
 2678              		.cfi_def_cfa_register 7
 2679 0006 7860     		str	r0, [r7, #4]
 2680 0008 1346     		mov	r3, r2
 2681 000a 0A46     		mov	r2, r1	@ movhi
 2682 000c 7A80     		strh	r2, [r7, #2]	@ movhi
 2683 000e 7B70     		strb	r3, [r7, #1]
1082:App/STM32F4-Discovery/Libraries/STM32F4xx_StdPeriph_Driver/src/stm32f4xx_usart.c ****   /* Check the parameters */
1083:App/STM32F4-Discovery/Libraries/STM32F4xx_StdPeriph_Driver/src/stm32f4xx_usart.c ****   assert_param(IS_USART_ALL_PERIPH(USARTx));
 2684              		.loc 1 1083 0
 2685 0010 7A68     		ldr	r2, [r7, #4]
 2686 0012 274B     		ldr	r3, .L155
 2687 0014 9A42     		cmp	r2, r3
 2688 0016 18D0     		beq	.L149
 2689              		.loc 1 1083 0 is_stmt 0 discriminator 1
 2690 0018 7A68     		ldr	r2, [r7, #4]
 2691 001a 264B     		ldr	r3, .L155+4
 2692 001c 9A42     		cmp	r2, r3
 2693 001e 14D0     		beq	.L149
 2694 0020 7A68     		ldr	r2, [r7, #4]
 2695 0022 254B     		ldr	r3, .L155+8
 2696 0024 9A42     		cmp	r2, r3
 2697 0026 10D0     		beq	.L149
 2698 0028 7A68     		ldr	r2, [r7, #4]
 2699 002a 244B     		ldr	r3, .L155+12
 2700 002c 9A42     		cmp	r2, r3
 2701 002e 0CD0     		beq	.L149
 2702 0030 7A68     		ldr	r2, [r7, #4]
 2703 0032 234B     		ldr	r3, .L155+16
 2704 0034 9A42     		cmp	r2, r3
 2705 0036 08D0     		beq	.L149
 2706 0038 7A68     		ldr	r2, [r7, #4]
 2707 003a 224B     		ldr	r3, .L155+20
 2708 003c 9A42     		cmp	r2, r3
 2709 003e 04D0     		beq	.L149
 2710 0040 2148     		ldr	r0, .L155+24
 2711 0042 40F23B41 		movw	r1, #1083
 2712 0046 FFF7FEFF 		bl	assert_failed
 2713              	.L149:
1084:App/STM32F4-Discovery/Libraries/STM32F4xx_StdPeriph_Driver/src/stm32f4xx_usart.c ****   assert_param(IS_USART_DMAREQ(USART_DMAReq));  
 2714              		.loc 1 1084 0 is_stmt 1
 2715 004a 7A88     		ldrh	r2, [r7, #2]
 2716 004c 4FF63F73 		movw	r3, #65343
 2717 0050 1340     		ands	r3, r3, r2
 2718 0052 002B     		cmp	r3, #0
 2719 0054 02D1     		bne	.L150
 2720              		.loc 1 1084 0 is_stmt 0 discriminator 2
 2721 0056 7B88     		ldrh	r3, [r7, #2]
 2722 0058 002B     		cmp	r3, #0
 2723 005a 04D1     		bne	.L151
 2724              	.L150:
 2725              		.loc 1 1084 0 discriminator 1
 2726 005c 1A48     		ldr	r0, .L155+24
 2727 005e 40F23C41 		movw	r1, #1084
 2728 0062 FFF7FEFF 		bl	assert_failed
 2729              	.L151:
1085:App/STM32F4-Discovery/Libraries/STM32F4xx_StdPeriph_Driver/src/stm32f4xx_usart.c ****   assert_param(IS_FUNCTIONAL_STATE(NewState)); 
 2730              		.loc 1 1085 0 is_stmt 1
 2731 0066 7B78     		ldrb	r3, [r7, #1]	@ zero_extendqisi2
 2732 0068 002B     		cmp	r3, #0
 2733 006a 07D0     		beq	.L152
 2734              		.loc 1 1085 0 is_stmt 0 discriminator 1
 2735 006c 7B78     		ldrb	r3, [r7, #1]	@ zero_extendqisi2
 2736 006e 012B     		cmp	r3, #1
 2737 0070 04D0     		beq	.L152
 2738 0072 1548     		ldr	r0, .L155+24
 2739 0074 40F23D41 		movw	r1, #1085
 2740 0078 FFF7FEFF 		bl	assert_failed
 2741              	.L152:
1086:App/STM32F4-Discovery/Libraries/STM32F4xx_StdPeriph_Driver/src/stm32f4xx_usart.c **** 
1087:App/STM32F4-Discovery/Libraries/STM32F4xx_StdPeriph_Driver/src/stm32f4xx_usart.c ****   if (NewState != DISABLE)
 2742              		.loc 1 1087 0 is_stmt 1
 2743 007c 7B78     		ldrb	r3, [r7, #1]	@ zero_extendqisi2
 2744 007e 002B     		cmp	r3, #0
 2745 0080 08D0     		beq	.L153
1088:App/STM32F4-Discovery/Libraries/STM32F4xx_StdPeriph_Driver/src/stm32f4xx_usart.c ****   {
1089:App/STM32F4-Discovery/Libraries/STM32F4xx_StdPeriph_Driver/src/stm32f4xx_usart.c ****     /* Enable the DMA transfer for selected requests by setting the DMAT and/or
1090:App/STM32F4-Discovery/Libraries/STM32F4xx_StdPeriph_Driver/src/stm32f4xx_usart.c ****        DMAR bits in the USART CR3 register */
1091:App/STM32F4-Discovery/Libraries/STM32F4xx_StdPeriph_Driver/src/stm32f4xx_usart.c ****     USARTx->CR3 |= USART_DMAReq;
 2746              		.loc 1 1091 0
 2747 0082 7B68     		ldr	r3, [r7, #4]
 2748 0084 9B8A     		ldrh	r3, [r3, #20]	@ movhi
 2749 0086 9AB2     		uxth	r2, r3
 2750 0088 7B88     		ldrh	r3, [r7, #2]	@ movhi
 2751 008a 1343     		orrs	r3, r3, r2
 2752 008c 9AB2     		uxth	r2, r3
 2753 008e 7B68     		ldr	r3, [r7, #4]
 2754 0090 9A82     		strh	r2, [r3, #20]	@ movhi
 2755 0092 09E0     		b	.L148
 2756              	.L153:
1092:App/STM32F4-Discovery/Libraries/STM32F4xx_StdPeriph_Driver/src/stm32f4xx_usart.c ****   }
1093:App/STM32F4-Discovery/Libraries/STM32F4xx_StdPeriph_Driver/src/stm32f4xx_usart.c ****   else
1094:App/STM32F4-Discovery/Libraries/STM32F4xx_StdPeriph_Driver/src/stm32f4xx_usart.c ****   {
1095:App/STM32F4-Discovery/Libraries/STM32F4xx_StdPeriph_Driver/src/stm32f4xx_usart.c ****     /* Disable the DMA transfer for selected requests by clearing the DMAT and/or
1096:App/STM32F4-Discovery/Libraries/STM32F4xx_StdPeriph_Driver/src/stm32f4xx_usart.c ****        DMAR bits in the USART CR3 register */
1097:App/STM32F4-Discovery/Libraries/STM32F4xx_StdPeriph_Driver/src/stm32f4xx_usart.c ****     USARTx->CR3 &= (uint16_t)~USART_DMAReq;
 2757              		.loc 1 1097 0
 2758 0094 7B68     		ldr	r3, [r7, #4]
 2759 0096 9B8A     		ldrh	r3, [r3, #20]	@ movhi
 2760 0098 9AB2     		uxth	r2, r3
 2761 009a 7B88     		ldrh	r3, [r7, #2]	@ movhi
 2762 009c DB43     		mvns	r3, r3
 2763 009e 9BB2     		uxth	r3, r3
 2764 00a0 1340     		ands	r3, r3, r2
 2765 00a2 9AB2     		uxth	r2, r3
 2766 00a4 7B68     		ldr	r3, [r7, #4]
 2767 00a6 9A82     		strh	r2, [r3, #20]	@ movhi
 2768              	.L148:
1098:App/STM32F4-Discovery/Libraries/STM32F4xx_StdPeriph_Driver/src/stm32f4xx_usart.c ****   }
1099:App/STM32F4-Discovery/Libraries/STM32F4xx_StdPeriph_Driver/src/stm32f4xx_usart.c **** }
 2769              		.loc 1 1099 0
 2770 00a8 0837     		adds	r7, r7, #8
 2771 00aa BD46     		mov	sp, r7
 2772              		@ sp needed
 2773 00ac 80BD     		pop	{r7, pc}
 2774              	.L156:
 2775 00ae 00BF     		.align	2
 2776              	.L155:
 2777 00b0 00100140 		.word	1073811456
 2778 00b4 00440040 		.word	1073759232
 2779 00b8 00480040 		.word	1073760256
 2780 00bc 004C0040 		.word	1073761280
 2781 00c0 00500040 		.word	1073762304
 2782 00c4 00140140 		.word	1073812480
 2783 00c8 00000000 		.word	.LC0
 2784              		.cfi_endproc
 2785              	.LFE133:
 2787              		.section	.text.USART_ITConfig,"ax",%progbits
 2788              		.align	2
 2789              		.global	USART_ITConfig
 2790              		.thumb
 2791              		.thumb_func
 2793              	USART_ITConfig:
 2794              	.LFB134:
1100:App/STM32F4-Discovery/Libraries/STM32F4xx_StdPeriph_Driver/src/stm32f4xx_usart.c **** 
1101:App/STM32F4-Discovery/Libraries/STM32F4xx_StdPeriph_Driver/src/stm32f4xx_usart.c **** /**
1102:App/STM32F4-Discovery/Libraries/STM32F4xx_StdPeriph_Driver/src/stm32f4xx_usart.c ****   * @}
1103:App/STM32F4-Discovery/Libraries/STM32F4xx_StdPeriph_Driver/src/stm32f4xx_usart.c ****   */
1104:App/STM32F4-Discovery/Libraries/STM32F4xx_StdPeriph_Driver/src/stm32f4xx_usart.c ****   
1105:App/STM32F4-Discovery/Libraries/STM32F4xx_StdPeriph_Driver/src/stm32f4xx_usart.c **** /** @defgroup USART_Group9 Interrupts and flags management functions
1106:App/STM32F4-Discovery/Libraries/STM32F4xx_StdPeriph_Driver/src/stm32f4xx_usart.c ****  *  @brief   Interrupts and flags management functions 
1107:App/STM32F4-Discovery/Libraries/STM32F4xx_StdPeriph_Driver/src/stm32f4xx_usart.c ****  *
1108:App/STM32F4-Discovery/Libraries/STM32F4xx_StdPeriph_Driver/src/stm32f4xx_usart.c **** @verbatim   
1109:App/STM32F4-Discovery/Libraries/STM32F4xx_StdPeriph_Driver/src/stm32f4xx_usart.c ****  ===============================================================================
1110:App/STM32F4-Discovery/Libraries/STM32F4xx_StdPeriph_Driver/src/stm32f4xx_usart.c ****                    Interrupts and flags management functions
1111:App/STM32F4-Discovery/Libraries/STM32F4xx_StdPeriph_Driver/src/stm32f4xx_usart.c ****  ===============================================================================  
1112:App/STM32F4-Discovery/Libraries/STM32F4xx_StdPeriph_Driver/src/stm32f4xx_usart.c **** 
1113:App/STM32F4-Discovery/Libraries/STM32F4xx_StdPeriph_Driver/src/stm32f4xx_usart.c ****   This subsection provides a set of functions allowing to configure the USART 
1114:App/STM32F4-Discovery/Libraries/STM32F4xx_StdPeriph_Driver/src/stm32f4xx_usart.c ****   Interrupts sources, DMA channels requests and check or clear the flags or 
1115:App/STM32F4-Discovery/Libraries/STM32F4xx_StdPeriph_Driver/src/stm32f4xx_usart.c ****   pending bits status.
1116:App/STM32F4-Discovery/Libraries/STM32F4xx_StdPeriph_Driver/src/stm32f4xx_usart.c ****   The user should identify which mode will be used in his application to manage 
1117:App/STM32F4-Discovery/Libraries/STM32F4xx_StdPeriph_Driver/src/stm32f4xx_usart.c ****   the communication: Polling mode, Interrupt mode or DMA mode. 
1118:App/STM32F4-Discovery/Libraries/STM32F4xx_StdPeriph_Driver/src/stm32f4xx_usart.c ****     
1119:App/STM32F4-Discovery/Libraries/STM32F4xx_StdPeriph_Driver/src/stm32f4xx_usart.c ****   Polling Mode
1120:App/STM32F4-Discovery/Libraries/STM32F4xx_StdPeriph_Driver/src/stm32f4xx_usart.c ****   =============
1121:App/STM32F4-Discovery/Libraries/STM32F4xx_StdPeriph_Driver/src/stm32f4xx_usart.c ****   In Polling Mode, the SPI communication can be managed by 10 flags:
1122:App/STM32F4-Discovery/Libraries/STM32F4xx_StdPeriph_Driver/src/stm32f4xx_usart.c ****      1. USART_FLAG_TXE : to indicate the status of the transmit buffer register
1123:App/STM32F4-Discovery/Libraries/STM32F4xx_StdPeriph_Driver/src/stm32f4xx_usart.c ****      2. USART_FLAG_RXNE : to indicate the status of the receive buffer register
1124:App/STM32F4-Discovery/Libraries/STM32F4xx_StdPeriph_Driver/src/stm32f4xx_usart.c ****      3. USART_FLAG_TC : to indicate the status of the transmit operation
1125:App/STM32F4-Discovery/Libraries/STM32F4xx_StdPeriph_Driver/src/stm32f4xx_usart.c ****      4. USART_FLAG_IDLE : to indicate the status of the Idle Line             
1126:App/STM32F4-Discovery/Libraries/STM32F4xx_StdPeriph_Driver/src/stm32f4xx_usart.c ****      5. USART_FLAG_CTS : to indicate the status of the nCTS input
1127:App/STM32F4-Discovery/Libraries/STM32F4xx_StdPeriph_Driver/src/stm32f4xx_usart.c ****      6. USART_FLAG_LBD : to indicate the status of the LIN break detection
1128:App/STM32F4-Discovery/Libraries/STM32F4xx_StdPeriph_Driver/src/stm32f4xx_usart.c ****      7. USART_FLAG_NE : to indicate if a noise error occur
1129:App/STM32F4-Discovery/Libraries/STM32F4xx_StdPeriph_Driver/src/stm32f4xx_usart.c ****      8. USART_FLAG_FE : to indicate if a frame error occur
1130:App/STM32F4-Discovery/Libraries/STM32F4xx_StdPeriph_Driver/src/stm32f4xx_usart.c ****      9. USART_FLAG_PE : to indicate if a parity error occur
1131:App/STM32F4-Discovery/Libraries/STM32F4xx_StdPeriph_Driver/src/stm32f4xx_usart.c ****      10. USART_FLAG_ORE : to indicate if an Overrun error occur
1132:App/STM32F4-Discovery/Libraries/STM32F4xx_StdPeriph_Driver/src/stm32f4xx_usart.c **** 
1133:App/STM32F4-Discovery/Libraries/STM32F4xx_StdPeriph_Driver/src/stm32f4xx_usart.c ****   In this Mode it is advised to use the following functions:
1134:App/STM32F4-Discovery/Libraries/STM32F4xx_StdPeriph_Driver/src/stm32f4xx_usart.c ****       - FlagStatus USART_GetFlagStatus(USART_TypeDef* USARTx, uint16_t USART_FLAG);
1135:App/STM32F4-Discovery/Libraries/STM32F4xx_StdPeriph_Driver/src/stm32f4xx_usart.c ****       - void USART_ClearFlag(USART_TypeDef* USARTx, uint16_t USART_FLAG);
1136:App/STM32F4-Discovery/Libraries/STM32F4xx_StdPeriph_Driver/src/stm32f4xx_usart.c **** 
1137:App/STM32F4-Discovery/Libraries/STM32F4xx_StdPeriph_Driver/src/stm32f4xx_usart.c ****   Interrupt Mode
1138:App/STM32F4-Discovery/Libraries/STM32F4xx_StdPeriph_Driver/src/stm32f4xx_usart.c ****   ===============
1139:App/STM32F4-Discovery/Libraries/STM32F4xx_StdPeriph_Driver/src/stm32f4xx_usart.c ****   In Interrupt Mode, the USART communication can be managed by 8 interrupt sources
1140:App/STM32F4-Discovery/Libraries/STM32F4xx_StdPeriph_Driver/src/stm32f4xx_usart.c ****   and 10 pending bits: 
1141:App/STM32F4-Discovery/Libraries/STM32F4xx_StdPeriph_Driver/src/stm32f4xx_usart.c **** 
1142:App/STM32F4-Discovery/Libraries/STM32F4xx_StdPeriph_Driver/src/stm32f4xx_usart.c ****   Pending Bits:
1143:App/STM32F4-Discovery/Libraries/STM32F4xx_StdPeriph_Driver/src/stm32f4xx_usart.c ****   ------------- 
1144:App/STM32F4-Discovery/Libraries/STM32F4xx_StdPeriph_Driver/src/stm32f4xx_usart.c ****      1. USART_IT_TXE : to indicate the status of the transmit buffer register
1145:App/STM32F4-Discovery/Libraries/STM32F4xx_StdPeriph_Driver/src/stm32f4xx_usart.c ****      2. USART_IT_RXNE : to indicate the status of the receive buffer register
