   1              		.syntax unified
   2              		.cpu cortex-m4
   3              		.eabi_attribute 27, 3
   4              		.fpu fpv4-sp-d16
   5              		.eabi_attribute 20, 1
   6              		.eabi_attribute 21, 1
   7              		.eabi_attribute 23, 3
   8              		.eabi_attribute 24, 1
   9              		.eabi_attribute 25, 1
  10              		.eabi_attribute 26, 1
  11              		.eabi_attribute 30, 6
  12              		.eabi_attribute 34, 1
  13              		.eabi_attribute 18, 4
  14              		.thumb
  15              		.file	"stm32f4xx_tim.c"
  16              		.text
  17              	.Ltext0:
  18              		.cfi_sections	.debug_frame
  19              		.section	.rodata
  20              		.align	2
  21              	.LC0:
  22 0000 4170702F 		.ascii	"App/STM32F4-Discovery/Libraries/STM32F4xx_StdPeriph"
  22      53544D33 
  22      3246342D 
  22      44697363 
  22      6F766572 
  23 0033 5F447269 		.ascii	"_Driver/src/stm32f4xx_tim.c\000"
  23      7665722F 
  23      7372632F 
  23      73746D33 
  23      32663478 
  24 004f 00       		.section	.text.TIM_DeInit,"ax",%progbits
  25              		.align	2
  26              		.global	TIM_DeInit
  27              		.thumb
  28              		.thumb_func
  30              	TIM_DeInit:
  31              	.LFB110:
  32              		.file 1 "App/STM32F4-Discovery/Libraries/STM32F4xx_StdPeriph_Driver/src/stm32f4xx_tim.c"
   1:App/STM32F4-Discovery/Libraries/STM32F4xx_StdPeriph_Driver/src/stm32f4xx_tim.c **** /**
   2:App/STM32F4-Discovery/Libraries/STM32F4xx_StdPeriph_Driver/src/stm32f4xx_tim.c ****   ******************************************************************************
   3:App/STM32F4-Discovery/Libraries/STM32F4xx_StdPeriph_Driver/src/stm32f4xx_tim.c ****   * @file    stm32f4xx_tim.c
   4:App/STM32F4-Discovery/Libraries/STM32F4xx_StdPeriph_Driver/src/stm32f4xx_tim.c ****   * @author  MCD Application Team
   5:App/STM32F4-Discovery/Libraries/STM32F4xx_StdPeriph_Driver/src/stm32f4xx_tim.c ****   * @version V1.0.0
   6:App/STM32F4-Discovery/Libraries/STM32F4xx_StdPeriph_Driver/src/stm32f4xx_tim.c ****   * @date    30-September-2011
   7:App/STM32F4-Discovery/Libraries/STM32F4xx_StdPeriph_Driver/src/stm32f4xx_tim.c ****   * @brief   This file provides firmware functions to manage the following 
   8:App/STM32F4-Discovery/Libraries/STM32F4xx_StdPeriph_Driver/src/stm32f4xx_tim.c ****   *          functionalities of the TIM peripheral:
   9:App/STM32F4-Discovery/Libraries/STM32F4xx_StdPeriph_Driver/src/stm32f4xx_tim.c ****   *            - TimeBase management
  10:App/STM32F4-Discovery/Libraries/STM32F4xx_StdPeriph_Driver/src/stm32f4xx_tim.c ****   *            - Output Compare management
  11:App/STM32F4-Discovery/Libraries/STM32F4xx_StdPeriph_Driver/src/stm32f4xx_tim.c ****   *            - Input Capture management
  12:App/STM32F4-Discovery/Libraries/STM32F4xx_StdPeriph_Driver/src/stm32f4xx_tim.c ****   *            - Advanced-control timers (TIM1 and TIM8) specific features  
  13:App/STM32F4-Discovery/Libraries/STM32F4xx_StdPeriph_Driver/src/stm32f4xx_tim.c ****   *            - Interrupts, DMA and flags management
  14:App/STM32F4-Discovery/Libraries/STM32F4xx_StdPeriph_Driver/src/stm32f4xx_tim.c ****   *            - Clocks management
  15:App/STM32F4-Discovery/Libraries/STM32F4xx_StdPeriph_Driver/src/stm32f4xx_tim.c ****   *            - Synchronization management
  16:App/STM32F4-Discovery/Libraries/STM32F4xx_StdPeriph_Driver/src/stm32f4xx_tim.c ****   *            - Specific interface management
  17:App/STM32F4-Discovery/Libraries/STM32F4xx_StdPeriph_Driver/src/stm32f4xx_tim.c ****   *            - Specific remapping management      
  18:App/STM32F4-Discovery/Libraries/STM32F4xx_StdPeriph_Driver/src/stm32f4xx_tim.c ****   *              
  19:App/STM32F4-Discovery/Libraries/STM32F4xx_StdPeriph_Driver/src/stm32f4xx_tim.c ****   *  @verbatim
  20:App/STM32F4-Discovery/Libraries/STM32F4xx_StdPeriph_Driver/src/stm32f4xx_tim.c ****   *  
  21:App/STM32F4-Discovery/Libraries/STM32F4xx_StdPeriph_Driver/src/stm32f4xx_tim.c ****   *          ===================================================================
  22:App/STM32F4-Discovery/Libraries/STM32F4xx_StdPeriph_Driver/src/stm32f4xx_tim.c ****   *                                 How to use this driver
  23:App/STM32F4-Discovery/Libraries/STM32F4xx_StdPeriph_Driver/src/stm32f4xx_tim.c ****   *          ===================================================================
  24:App/STM32F4-Discovery/Libraries/STM32F4xx_StdPeriph_Driver/src/stm32f4xx_tim.c ****   *          This driver provides functions to configure and program the TIM 
  25:App/STM32F4-Discovery/Libraries/STM32F4xx_StdPeriph_Driver/src/stm32f4xx_tim.c ****   *          of all STM32F4xx devices.
  26:App/STM32F4-Discovery/Libraries/STM32F4xx_StdPeriph_Driver/src/stm32f4xx_tim.c ****   *          These functions are split in 9 groups: 
  27:App/STM32F4-Discovery/Libraries/STM32F4xx_StdPeriph_Driver/src/stm32f4xx_tim.c ****   *   
  28:App/STM32F4-Discovery/Libraries/STM32F4xx_StdPeriph_Driver/src/stm32f4xx_tim.c ****   *          1. TIM TimeBase management: this group includes all needed functions 
  29:App/STM32F4-Discovery/Libraries/STM32F4xx_StdPeriph_Driver/src/stm32f4xx_tim.c ****   *             to configure the TM Timebase unit:
  30:App/STM32F4-Discovery/Libraries/STM32F4xx_StdPeriph_Driver/src/stm32f4xx_tim.c ****   *                   - Set/Get Prescaler
  31:App/STM32F4-Discovery/Libraries/STM32F4xx_StdPeriph_Driver/src/stm32f4xx_tim.c ****   *                   - Set/Get Autoreload  
  32:App/STM32F4-Discovery/Libraries/STM32F4xx_StdPeriph_Driver/src/stm32f4xx_tim.c ****   *                   - Counter modes configuration
  33:App/STM32F4-Discovery/Libraries/STM32F4xx_StdPeriph_Driver/src/stm32f4xx_tim.c ****   *                   - Set Clock division  
  34:App/STM32F4-Discovery/Libraries/STM32F4xx_StdPeriph_Driver/src/stm32f4xx_tim.c ****   *                   - Select the One Pulse mode
  35:App/STM32F4-Discovery/Libraries/STM32F4xx_StdPeriph_Driver/src/stm32f4xx_tim.c ****   *                   - Update Request Configuration
  36:App/STM32F4-Discovery/Libraries/STM32F4xx_StdPeriph_Driver/src/stm32f4xx_tim.c ****   *                   - Update Disable Configuration
  37:App/STM32F4-Discovery/Libraries/STM32F4xx_StdPeriph_Driver/src/stm32f4xx_tim.c ****   *                   - Auto-Preload Configuration 
  38:App/STM32F4-Discovery/Libraries/STM32F4xx_StdPeriph_Driver/src/stm32f4xx_tim.c ****   *                   - Enable/Disable the counter     
  39:App/STM32F4-Discovery/Libraries/STM32F4xx_StdPeriph_Driver/src/stm32f4xx_tim.c ****   *                 
  40:App/STM32F4-Discovery/Libraries/STM32F4xx_StdPeriph_Driver/src/stm32f4xx_tim.c ****   *          2. TIM Output Compare management: this group includes all needed 
  41:App/STM32F4-Discovery/Libraries/STM32F4xx_StdPeriph_Driver/src/stm32f4xx_tim.c ****   *             functions to configure the Capture/Compare unit used in Output 
  42:App/STM32F4-Discovery/Libraries/STM32F4xx_StdPeriph_Driver/src/stm32f4xx_tim.c ****   *             compare mode: 
  43:App/STM32F4-Discovery/Libraries/STM32F4xx_StdPeriph_Driver/src/stm32f4xx_tim.c ****   *                   - Configure each channel, independently, in Output Compare mode
  44:App/STM32F4-Discovery/Libraries/STM32F4xx_StdPeriph_Driver/src/stm32f4xx_tim.c ****   *                   - Select the output compare modes
  45:App/STM32F4-Discovery/Libraries/STM32F4xx_StdPeriph_Driver/src/stm32f4xx_tim.c ****   *                   - Select the Polarities of each channel
  46:App/STM32F4-Discovery/Libraries/STM32F4xx_StdPeriph_Driver/src/stm32f4xx_tim.c ****   *                   - Set/Get the Capture/Compare register values
  47:App/STM32F4-Discovery/Libraries/STM32F4xx_StdPeriph_Driver/src/stm32f4xx_tim.c ****   *                   - Select the Output Compare Fast mode 
  48:App/STM32F4-Discovery/Libraries/STM32F4xx_StdPeriph_Driver/src/stm32f4xx_tim.c ****   *                   - Select the Output Compare Forced mode  
  49:App/STM32F4-Discovery/Libraries/STM32F4xx_StdPeriph_Driver/src/stm32f4xx_tim.c ****   *                   - Output Compare-Preload Configuration 
  50:App/STM32F4-Discovery/Libraries/STM32F4xx_StdPeriph_Driver/src/stm32f4xx_tim.c ****   *                   - Clear Output Compare Reference
  51:App/STM32F4-Discovery/Libraries/STM32F4xx_StdPeriph_Driver/src/stm32f4xx_tim.c ****   *                   - Select the OCREF Clear signal
  52:App/STM32F4-Discovery/Libraries/STM32F4xx_StdPeriph_Driver/src/stm32f4xx_tim.c ****   *                   - Enable/Disable the Capture/Compare Channels    
  53:App/STM32F4-Discovery/Libraries/STM32F4xx_StdPeriph_Driver/src/stm32f4xx_tim.c ****   *                   
  54:App/STM32F4-Discovery/Libraries/STM32F4xx_StdPeriph_Driver/src/stm32f4xx_tim.c ****   *          3. TIM Input Capture management: this group includes all needed 
  55:App/STM32F4-Discovery/Libraries/STM32F4xx_StdPeriph_Driver/src/stm32f4xx_tim.c ****   *             functions to configure the Capture/Compare unit used in 
  56:App/STM32F4-Discovery/Libraries/STM32F4xx_StdPeriph_Driver/src/stm32f4xx_tim.c ****   *             Input Capture mode:
  57:App/STM32F4-Discovery/Libraries/STM32F4xx_StdPeriph_Driver/src/stm32f4xx_tim.c ****   *                   - Configure each channel in input capture mode
  58:App/STM32F4-Discovery/Libraries/STM32F4xx_StdPeriph_Driver/src/stm32f4xx_tim.c ****   *                   - Configure Channel1/2 in PWM Input mode
  59:App/STM32F4-Discovery/Libraries/STM32F4xx_StdPeriph_Driver/src/stm32f4xx_tim.c ****   *                   - Set the Input Capture Prescaler
  60:App/STM32F4-Discovery/Libraries/STM32F4xx_StdPeriph_Driver/src/stm32f4xx_tim.c ****   *                   - Get the Capture/Compare values      
  61:App/STM32F4-Discovery/Libraries/STM32F4xx_StdPeriph_Driver/src/stm32f4xx_tim.c ****   *                   
  62:App/STM32F4-Discovery/Libraries/STM32F4xx_StdPeriph_Driver/src/stm32f4xx_tim.c ****   *          4. Advanced-control timers (TIM1 and TIM8) specific features
  63:App/STM32F4-Discovery/Libraries/STM32F4xx_StdPeriph_Driver/src/stm32f4xx_tim.c ****   *                   - Configures the Break input, dead time, Lock level, the OSSI,
  64:App/STM32F4-Discovery/Libraries/STM32F4xx_StdPeriph_Driver/src/stm32f4xx_tim.c ****   *                      the OSSR State and the AOE(automatic output enable)
  65:App/STM32F4-Discovery/Libraries/STM32F4xx_StdPeriph_Driver/src/stm32f4xx_tim.c ****   *                   - Enable/Disable the TIM peripheral Main Outputs
  66:App/STM32F4-Discovery/Libraries/STM32F4xx_StdPeriph_Driver/src/stm32f4xx_tim.c ****   *                   - Select the Commutation event
  67:App/STM32F4-Discovery/Libraries/STM32F4xx_StdPeriph_Driver/src/stm32f4xx_tim.c ****   *                   - Set/Reset the Capture Compare Preload Control bit
  68:App/STM32F4-Discovery/Libraries/STM32F4xx_StdPeriph_Driver/src/stm32f4xx_tim.c ****   *                              
  69:App/STM32F4-Discovery/Libraries/STM32F4xx_StdPeriph_Driver/src/stm32f4xx_tim.c ****   *          5. TIM interrupts, DMA and flags management
  70:App/STM32F4-Discovery/Libraries/STM32F4xx_StdPeriph_Driver/src/stm32f4xx_tim.c ****   *                   - Enable/Disable interrupt sources
  71:App/STM32F4-Discovery/Libraries/STM32F4xx_StdPeriph_Driver/src/stm32f4xx_tim.c ****   *                   - Get flags status
  72:App/STM32F4-Discovery/Libraries/STM32F4xx_StdPeriph_Driver/src/stm32f4xx_tim.c ****   *                   - Clear flags/ Pending bits
  73:App/STM32F4-Discovery/Libraries/STM32F4xx_StdPeriph_Driver/src/stm32f4xx_tim.c ****   *                   - Enable/Disable DMA requests 
  74:App/STM32F4-Discovery/Libraries/STM32F4xx_StdPeriph_Driver/src/stm32f4xx_tim.c ****   *                   - Configure DMA burst mode
  75:App/STM32F4-Discovery/Libraries/STM32F4xx_StdPeriph_Driver/src/stm32f4xx_tim.c ****   *                   - Select CaptureCompare DMA request  
  76:App/STM32F4-Discovery/Libraries/STM32F4xx_StdPeriph_Driver/src/stm32f4xx_tim.c ****   *              
  77:App/STM32F4-Discovery/Libraries/STM32F4xx_StdPeriph_Driver/src/stm32f4xx_tim.c ****   *          6. TIM clocks management: this group includes all needed functions 
  78:App/STM32F4-Discovery/Libraries/STM32F4xx_StdPeriph_Driver/src/stm32f4xx_tim.c ****   *             to configure the clock controller unit:
  79:App/STM32F4-Discovery/Libraries/STM32F4xx_StdPeriph_Driver/src/stm32f4xx_tim.c ****   *                   - Select internal/External clock
  80:App/STM32F4-Discovery/Libraries/STM32F4xx_StdPeriph_Driver/src/stm32f4xx_tim.c ****   *                   - Select the external clock mode: ETR(Mode1/Mode2), TIx or ITRx
  81:App/STM32F4-Discovery/Libraries/STM32F4xx_StdPeriph_Driver/src/stm32f4xx_tim.c ****   *         
  82:App/STM32F4-Discovery/Libraries/STM32F4xx_StdPeriph_Driver/src/stm32f4xx_tim.c ****   *          7. TIM synchronization management: this group includes all needed 
  83:App/STM32F4-Discovery/Libraries/STM32F4xx_StdPeriph_Driver/src/stm32f4xx_tim.c ****   *             functions to configure the Synchronization unit:
  84:App/STM32F4-Discovery/Libraries/STM32F4xx_StdPeriph_Driver/src/stm32f4xx_tim.c ****   *                   - Select Input Trigger  
  85:App/STM32F4-Discovery/Libraries/STM32F4xx_StdPeriph_Driver/src/stm32f4xx_tim.c ****   *                   - Select Output Trigger  
  86:App/STM32F4-Discovery/Libraries/STM32F4xx_StdPeriph_Driver/src/stm32f4xx_tim.c ****   *                   - Select Master Slave Mode 
  87:App/STM32F4-Discovery/Libraries/STM32F4xx_StdPeriph_Driver/src/stm32f4xx_tim.c ****   *                   - ETR Configuration when used as external trigger   
  88:App/STM32F4-Discovery/Libraries/STM32F4xx_StdPeriph_Driver/src/stm32f4xx_tim.c ****   *     
  89:App/STM32F4-Discovery/Libraries/STM32F4xx_StdPeriph_Driver/src/stm32f4xx_tim.c ****   *          8. TIM specific interface management, this group includes all 
  90:App/STM32F4-Discovery/Libraries/STM32F4xx_StdPeriph_Driver/src/stm32f4xx_tim.c ****   *             needed functions to use the specific TIM interface:
  91:App/STM32F4-Discovery/Libraries/STM32F4xx_StdPeriph_Driver/src/stm32f4xx_tim.c ****   *                   - Encoder Interface Configuration
  92:App/STM32F4-Discovery/Libraries/STM32F4xx_StdPeriph_Driver/src/stm32f4xx_tim.c ****   *                   - Select Hall Sensor   
  93:App/STM32F4-Discovery/Libraries/STM32F4xx_StdPeriph_Driver/src/stm32f4xx_tim.c ****   *         
  94:App/STM32F4-Discovery/Libraries/STM32F4xx_StdPeriph_Driver/src/stm32f4xx_tim.c ****   *          9. TIM specific remapping management includes the Remapping 
  95:App/STM32F4-Discovery/Libraries/STM32F4xx_StdPeriph_Driver/src/stm32f4xx_tim.c ****   *             configuration of specific timers               
  96:App/STM32F4-Discovery/Libraries/STM32F4xx_StdPeriph_Driver/src/stm32f4xx_tim.c ****   *   
  97:App/STM32F4-Discovery/Libraries/STM32F4xx_StdPeriph_Driver/src/stm32f4xx_tim.c ****   *  @endverbatim
  98:App/STM32F4-Discovery/Libraries/STM32F4xx_StdPeriph_Driver/src/stm32f4xx_tim.c ****   *    
  99:App/STM32F4-Discovery/Libraries/STM32F4xx_StdPeriph_Driver/src/stm32f4xx_tim.c ****   ******************************************************************************
 100:App/STM32F4-Discovery/Libraries/STM32F4xx_StdPeriph_Driver/src/stm32f4xx_tim.c ****   * @attention
 101:App/STM32F4-Discovery/Libraries/STM32F4xx_StdPeriph_Driver/src/stm32f4xx_tim.c ****   *
 102:App/STM32F4-Discovery/Libraries/STM32F4xx_StdPeriph_Driver/src/stm32f4xx_tim.c ****   * THE PRESENT FIRMWARE WHICH IS FOR GUIDANCE ONLY AIMS AT PROVIDING CUSTOMERS
 103:App/STM32F4-Discovery/Libraries/STM32F4xx_StdPeriph_Driver/src/stm32f4xx_tim.c ****   * WITH CODING INFORMATION REGARDING THEIR PRODUCTS IN ORDER FOR THEM TO SAVE
 104:App/STM32F4-Discovery/Libraries/STM32F4xx_StdPeriph_Driver/src/stm32f4xx_tim.c ****   * TIME. AS A RESULT, STMICROELECTRONICS SHALL NOT BE HELD LIABLE FOR ANY
 105:App/STM32F4-Discovery/Libraries/STM32F4xx_StdPeriph_Driver/src/stm32f4xx_tim.c ****   * DIRECT, INDIRECT OR CONSEQUENTIAL DAMAGES WITH RESPECT TO ANY CLAIMS ARISING
 106:App/STM32F4-Discovery/Libraries/STM32F4xx_StdPeriph_Driver/src/stm32f4xx_tim.c ****   * FROM THE CONTENT OF SUCH FIRMWARE AND/OR THE USE MADE BY CUSTOMERS OF THE
 107:App/STM32F4-Discovery/Libraries/STM32F4xx_StdPeriph_Driver/src/stm32f4xx_tim.c ****   * CODING INFORMATION CONTAINED HEREIN IN CONNECTION WITH THEIR PRODUCTS.
 108:App/STM32F4-Discovery/Libraries/STM32F4xx_StdPeriph_Driver/src/stm32f4xx_tim.c ****   *
 109:App/STM32F4-Discovery/Libraries/STM32F4xx_StdPeriph_Driver/src/stm32f4xx_tim.c ****   * <h2><center>&copy; COPYRIGHT 2011 STMicroelectronics</center></h2>
 110:App/STM32F4-Discovery/Libraries/STM32F4xx_StdPeriph_Driver/src/stm32f4xx_tim.c ****   ******************************************************************************
 111:App/STM32F4-Discovery/Libraries/STM32F4xx_StdPeriph_Driver/src/stm32f4xx_tim.c ****   */
 112:App/STM32F4-Discovery/Libraries/STM32F4xx_StdPeriph_Driver/src/stm32f4xx_tim.c **** 
 113:App/STM32F4-Discovery/Libraries/STM32F4xx_StdPeriph_Driver/src/stm32f4xx_tim.c **** /* Includes ------------------------------------------------------------------*/
 114:App/STM32F4-Discovery/Libraries/STM32F4xx_StdPeriph_Driver/src/stm32f4xx_tim.c **** #include "stm32f4xx_tim.h"
 115:App/STM32F4-Discovery/Libraries/STM32F4xx_StdPeriph_Driver/src/stm32f4xx_tim.c **** #include "stm32f4xx_rcc.h"
 116:App/STM32F4-Discovery/Libraries/STM32F4xx_StdPeriph_Driver/src/stm32f4xx_tim.c **** 
 117:App/STM32F4-Discovery/Libraries/STM32F4xx_StdPeriph_Driver/src/stm32f4xx_tim.c **** /** @addtogroup STM32F4xx_StdPeriph_Driver
 118:App/STM32F4-Discovery/Libraries/STM32F4xx_StdPeriph_Driver/src/stm32f4xx_tim.c ****   * @{
 119:App/STM32F4-Discovery/Libraries/STM32F4xx_StdPeriph_Driver/src/stm32f4xx_tim.c ****   */
 120:App/STM32F4-Discovery/Libraries/STM32F4xx_StdPeriph_Driver/src/stm32f4xx_tim.c **** 
 121:App/STM32F4-Discovery/Libraries/STM32F4xx_StdPeriph_Driver/src/stm32f4xx_tim.c **** /** @defgroup TIM 
 122:App/STM32F4-Discovery/Libraries/STM32F4xx_StdPeriph_Driver/src/stm32f4xx_tim.c ****   * @brief TIM driver modules
 123:App/STM32F4-Discovery/Libraries/STM32F4xx_StdPeriph_Driver/src/stm32f4xx_tim.c ****   * @{
 124:App/STM32F4-Discovery/Libraries/STM32F4xx_StdPeriph_Driver/src/stm32f4xx_tim.c ****   */
 125:App/STM32F4-Discovery/Libraries/STM32F4xx_StdPeriph_Driver/src/stm32f4xx_tim.c **** 
 126:App/STM32F4-Discovery/Libraries/STM32F4xx_StdPeriph_Driver/src/stm32f4xx_tim.c **** /* Private typedef -----------------------------------------------------------*/
 127:App/STM32F4-Discovery/Libraries/STM32F4xx_StdPeriph_Driver/src/stm32f4xx_tim.c **** /* Private define ------------------------------------------------------------*/
 128:App/STM32F4-Discovery/Libraries/STM32F4xx_StdPeriph_Driver/src/stm32f4xx_tim.c **** 
 129:App/STM32F4-Discovery/Libraries/STM32F4xx_StdPeriph_Driver/src/stm32f4xx_tim.c **** /* ---------------------- TIM registers bit mask ------------------------ */
 130:App/STM32F4-Discovery/Libraries/STM32F4xx_StdPeriph_Driver/src/stm32f4xx_tim.c **** #define SMCR_ETR_MASK      ((uint16_t)0x00FF) 
 131:App/STM32F4-Discovery/Libraries/STM32F4xx_StdPeriph_Driver/src/stm32f4xx_tim.c **** #define CCMR_OFFSET        ((uint16_t)0x0018)
 132:App/STM32F4-Discovery/Libraries/STM32F4xx_StdPeriph_Driver/src/stm32f4xx_tim.c **** #define CCER_CCE_SET       ((uint16_t)0x0001)  
 133:App/STM32F4-Discovery/Libraries/STM32F4xx_StdPeriph_Driver/src/stm32f4xx_tim.c **** #define	CCER_CCNE_SET      ((uint16_t)0x0004) 
 134:App/STM32F4-Discovery/Libraries/STM32F4xx_StdPeriph_Driver/src/stm32f4xx_tim.c **** #define CCMR_OC13M_MASK    ((uint16_t)0xFF8F)
 135:App/STM32F4-Discovery/Libraries/STM32F4xx_StdPeriph_Driver/src/stm32f4xx_tim.c **** #define CCMR_OC24M_MASK    ((uint16_t)0x8FFF) 
 136:App/STM32F4-Discovery/Libraries/STM32F4xx_StdPeriph_Driver/src/stm32f4xx_tim.c **** 
 137:App/STM32F4-Discovery/Libraries/STM32F4xx_StdPeriph_Driver/src/stm32f4xx_tim.c **** /* Private macro -------------------------------------------------------------*/
 138:App/STM32F4-Discovery/Libraries/STM32F4xx_StdPeriph_Driver/src/stm32f4xx_tim.c **** /* Private variables ---------------------------------------------------------*/
 139:App/STM32F4-Discovery/Libraries/STM32F4xx_StdPeriph_Driver/src/stm32f4xx_tim.c **** /* Private function prototypes -----------------------------------------------*/
 140:App/STM32F4-Discovery/Libraries/STM32F4xx_StdPeriph_Driver/src/stm32f4xx_tim.c **** static void TI1_Config(TIM_TypeDef* TIMx, uint16_t TIM_ICPolarity, uint16_t TIM_ICSelection,
 141:App/STM32F4-Discovery/Libraries/STM32F4xx_StdPeriph_Driver/src/stm32f4xx_tim.c ****                        uint16_t TIM_ICFilter);
 142:App/STM32F4-Discovery/Libraries/STM32F4xx_StdPeriph_Driver/src/stm32f4xx_tim.c **** static void TI2_Config(TIM_TypeDef* TIMx, uint16_t TIM_ICPolarity, uint16_t TIM_ICSelection,
 143:App/STM32F4-Discovery/Libraries/STM32F4xx_StdPeriph_Driver/src/stm32f4xx_tim.c ****                        uint16_t TIM_ICFilter);
 144:App/STM32F4-Discovery/Libraries/STM32F4xx_StdPeriph_Driver/src/stm32f4xx_tim.c **** static void TI3_Config(TIM_TypeDef* TIMx, uint16_t TIM_ICPolarity, uint16_t TIM_ICSelection,
 145:App/STM32F4-Discovery/Libraries/STM32F4xx_StdPeriph_Driver/src/stm32f4xx_tim.c ****                        uint16_t TIM_ICFilter);
 146:App/STM32F4-Discovery/Libraries/STM32F4xx_StdPeriph_Driver/src/stm32f4xx_tim.c **** static void TI4_Config(TIM_TypeDef* TIMx, uint16_t TIM_ICPolarity, uint16_t TIM_ICSelection,
 147:App/STM32F4-Discovery/Libraries/STM32F4xx_StdPeriph_Driver/src/stm32f4xx_tim.c ****                        uint16_t TIM_ICFilter);
 148:App/STM32F4-Discovery/Libraries/STM32F4xx_StdPeriph_Driver/src/stm32f4xx_tim.c **** 
 149:App/STM32F4-Discovery/Libraries/STM32F4xx_StdPeriph_Driver/src/stm32f4xx_tim.c **** /* Private functions ---------------------------------------------------------*/
 150:App/STM32F4-Discovery/Libraries/STM32F4xx_StdPeriph_Driver/src/stm32f4xx_tim.c **** 
 151:App/STM32F4-Discovery/Libraries/STM32F4xx_StdPeriph_Driver/src/stm32f4xx_tim.c **** /** @defgroup TIM_Private_Functions
 152:App/STM32F4-Discovery/Libraries/STM32F4xx_StdPeriph_Driver/src/stm32f4xx_tim.c ****   * @{
 153:App/STM32F4-Discovery/Libraries/STM32F4xx_StdPeriph_Driver/src/stm32f4xx_tim.c ****   */
 154:App/STM32F4-Discovery/Libraries/STM32F4xx_StdPeriph_Driver/src/stm32f4xx_tim.c **** 
 155:App/STM32F4-Discovery/Libraries/STM32F4xx_StdPeriph_Driver/src/stm32f4xx_tim.c **** /** @defgroup TIM_Group1 TimeBase management functions
 156:App/STM32F4-Discovery/Libraries/STM32F4xx_StdPeriph_Driver/src/stm32f4xx_tim.c ****  *  @brief   TimeBase management functions 
 157:App/STM32F4-Discovery/Libraries/STM32F4xx_StdPeriph_Driver/src/stm32f4xx_tim.c ****  *
 158:App/STM32F4-Discovery/Libraries/STM32F4xx_StdPeriph_Driver/src/stm32f4xx_tim.c **** @verbatim   
 159:App/STM32F4-Discovery/Libraries/STM32F4xx_StdPeriph_Driver/src/stm32f4xx_tim.c ****  ===============================================================================
 160:App/STM32F4-Discovery/Libraries/STM32F4xx_StdPeriph_Driver/src/stm32f4xx_tim.c ****                        TimeBase management functions
 161:App/STM32F4-Discovery/Libraries/STM32F4xx_StdPeriph_Driver/src/stm32f4xx_tim.c ****  ===============================================================================  
 162:App/STM32F4-Discovery/Libraries/STM32F4xx_StdPeriph_Driver/src/stm32f4xx_tim.c ****   
 163:App/STM32F4-Discovery/Libraries/STM32F4xx_StdPeriph_Driver/src/stm32f4xx_tim.c ****        ===================================================================      
 164:App/STM32F4-Discovery/Libraries/STM32F4xx_StdPeriph_Driver/src/stm32f4xx_tim.c ****               TIM Driver: how to use it in Timing(Time base) Mode
 165:App/STM32F4-Discovery/Libraries/STM32F4xx_StdPeriph_Driver/src/stm32f4xx_tim.c ****        =================================================================== 
 166:App/STM32F4-Discovery/Libraries/STM32F4xx_StdPeriph_Driver/src/stm32f4xx_tim.c ****        To use the Timer in Timing(Time base) mode, the following steps are mandatory:
 167:App/STM32F4-Discovery/Libraries/STM32F4xx_StdPeriph_Driver/src/stm32f4xx_tim.c ****        
 168:App/STM32F4-Discovery/Libraries/STM32F4xx_StdPeriph_Driver/src/stm32f4xx_tim.c ****        1. Enable TIM clock using RCC_APBxPeriphClockCmd(RCC_APBxPeriph_TIMx, ENABLE) function
 169:App/STM32F4-Discovery/Libraries/STM32F4xx_StdPeriph_Driver/src/stm32f4xx_tim.c ****                     
 170:App/STM32F4-Discovery/Libraries/STM32F4xx_StdPeriph_Driver/src/stm32f4xx_tim.c ****        2. Fill the TIM_TimeBaseInitStruct with the desired parameters.
 171:App/STM32F4-Discovery/Libraries/STM32F4xx_StdPeriph_Driver/src/stm32f4xx_tim.c ****        
 172:App/STM32F4-Discovery/Libraries/STM32F4xx_StdPeriph_Driver/src/stm32f4xx_tim.c ****        3. Call TIM_TimeBaseInit(TIMx, &TIM_TimeBaseInitStruct) to configure the Time Base unit
 173:App/STM32F4-Discovery/Libraries/STM32F4xx_StdPeriph_Driver/src/stm32f4xx_tim.c ****           with the corresponding configuration
 174:App/STM32F4-Discovery/Libraries/STM32F4xx_StdPeriph_Driver/src/stm32f4xx_tim.c ****           
 175:App/STM32F4-Discovery/Libraries/STM32F4xx_StdPeriph_Driver/src/stm32f4xx_tim.c ****        4. Enable the NVIC if you need to generate the update interrupt. 
 176:App/STM32F4-Discovery/Libraries/STM32F4xx_StdPeriph_Driver/src/stm32f4xx_tim.c ****           
 177:App/STM32F4-Discovery/Libraries/STM32F4xx_StdPeriph_Driver/src/stm32f4xx_tim.c ****        5. Enable the corresponding interrupt using the function TIM_ITConfig(TIMx, TIM_IT_Update) 
 178:App/STM32F4-Discovery/Libraries/STM32F4xx_StdPeriph_Driver/src/stm32f4xx_tim.c ****        
 179:App/STM32F4-Discovery/Libraries/STM32F4xx_StdPeriph_Driver/src/stm32f4xx_tim.c ****        6. Call the TIM_Cmd(ENABLE) function to enable the TIM counter.
 180:App/STM32F4-Discovery/Libraries/STM32F4xx_StdPeriph_Driver/src/stm32f4xx_tim.c ****              
 181:App/STM32F4-Discovery/Libraries/STM32F4xx_StdPeriph_Driver/src/stm32f4xx_tim.c ****        Note1: All other functions can be used separately to modify, if needed,
 182:App/STM32F4-Discovery/Libraries/STM32F4xx_StdPeriph_Driver/src/stm32f4xx_tim.c ****           a specific feature of the Timer. 
 183:App/STM32F4-Discovery/Libraries/STM32F4xx_StdPeriph_Driver/src/stm32f4xx_tim.c **** 
 184:App/STM32F4-Discovery/Libraries/STM32F4xx_StdPeriph_Driver/src/stm32f4xx_tim.c **** @endverbatim
 185:App/STM32F4-Discovery/Libraries/STM32F4xx_StdPeriph_Driver/src/stm32f4xx_tim.c ****   * @{
 186:App/STM32F4-Discovery/Libraries/STM32F4xx_StdPeriph_Driver/src/stm32f4xx_tim.c ****   */
 187:App/STM32F4-Discovery/Libraries/STM32F4xx_StdPeriph_Driver/src/stm32f4xx_tim.c ****   
 188:App/STM32F4-Discovery/Libraries/STM32F4xx_StdPeriph_Driver/src/stm32f4xx_tim.c **** /**
 189:App/STM32F4-Discovery/Libraries/STM32F4xx_StdPeriph_Driver/src/stm32f4xx_tim.c ****   * @brief  Deinitializes the TIMx peripheral registers to their default reset values.
 190:App/STM32F4-Discovery/Libraries/STM32F4xx_StdPeriph_Driver/src/stm32f4xx_tim.c ****   * @param  TIMx: where x can be 1 to 14 to select the TIM peripheral.
 191:App/STM32F4-Discovery/Libraries/STM32F4xx_StdPeriph_Driver/src/stm32f4xx_tim.c ****   * @retval None
 192:App/STM32F4-Discovery/Libraries/STM32F4xx_StdPeriph_Driver/src/stm32f4xx_tim.c **** 
 193:App/STM32F4-Discovery/Libraries/STM32F4xx_StdPeriph_Driver/src/stm32f4xx_tim.c ****   */
 194:App/STM32F4-Discovery/Libraries/STM32F4xx_StdPeriph_Driver/src/stm32f4xx_tim.c **** void TIM_DeInit(TIM_TypeDef* TIMx)
 195:App/STM32F4-Discovery/Libraries/STM32F4xx_StdPeriph_Driver/src/stm32f4xx_tim.c **** {
  33              		.loc 1 195 0
  34              		.cfi_startproc
  35              		@ args = 0, pretend = 0, frame = 8
  36              		@ frame_needed = 1, uses_anonymous_args = 0
  37 0000 80B5     		push	{r7, lr}
  38              	.LCFI0:
  39              		.cfi_def_cfa_offset 8
  40              		.cfi_offset 7, -8
  41              		.cfi_offset 14, -4
  42 0002 82B0     		sub	sp, sp, #8
  43              	.LCFI1:
  44              		.cfi_def_cfa_offset 16
  45 0004 00AF     		add	r7, sp, #0
  46              	.LCFI2:
  47              		.cfi_def_cfa_register 7
  48 0006 7860     		str	r0, [r7, #4]
 196:App/STM32F4-Discovery/Libraries/STM32F4xx_StdPeriph_Driver/src/stm32f4xx_tim.c ****   /* Check the parameters */
 197:App/STM32F4-Discovery/Libraries/STM32F4xx_StdPeriph_Driver/src/stm32f4xx_tim.c ****   assert_param(IS_TIM_ALL_PERIPH(TIMx)); 
  49              		.loc 1 197 0
  50 0008 7A68     		ldr	r2, [r7, #4]
  51 000a 7D4B     		ldr	r3, .L17
  52 000c 9A42     		cmp	r2, r3
  53 000e 37D0     		beq	.L2
  54              		.loc 1 197 0 is_stmt 0 discriminator 1
  55 0010 7B68     		ldr	r3, [r7, #4]
  56 0012 B3F1804F 		cmp	r3, #1073741824
  57 0016 33D0     		beq	.L2
  58 0018 7A68     		ldr	r2, [r7, #4]
  59 001a 7A4B     		ldr	r3, .L17+4
  60 001c 9A42     		cmp	r2, r3
  61 001e 2FD0     		beq	.L2
  62 0020 7A68     		ldr	r2, [r7, #4]
  63 0022 794B     		ldr	r3, .L17+8
  64 0024 9A42     		cmp	r2, r3
  65 0026 2BD0     		beq	.L2
  66 0028 7A68     		ldr	r2, [r7, #4]
  67 002a 784B     		ldr	r3, .L17+12
  68 002c 9A42     		cmp	r2, r3
  69 002e 27D0     		beq	.L2
  70 0030 7A68     		ldr	r2, [r7, #4]
  71 0032 774B     		ldr	r3, .L17+16
  72 0034 9A42     		cmp	r2, r3
  73 0036 23D0     		beq	.L2
  74 0038 7A68     		ldr	r2, [r7, #4]
  75 003a 764B     		ldr	r3, .L17+20
  76 003c 9A42     		cmp	r2, r3
  77 003e 1FD0     		beq	.L2
  78 0040 7A68     		ldr	r2, [r7, #4]
  79 0042 754B     		ldr	r3, .L17+24
  80 0044 9A42     		cmp	r2, r3
  81 0046 1BD0     		beq	.L2
  82 0048 7A68     		ldr	r2, [r7, #4]
  83 004a 744B     		ldr	r3, .L17+28
  84 004c 9A42     		cmp	r2, r3
  85 004e 17D0     		beq	.L2
  86 0050 7A68     		ldr	r2, [r7, #4]
  87 0052 734B     		ldr	r3, .L17+32
  88 0054 9A42     		cmp	r2, r3
  89 0056 13D0     		beq	.L2
  90 0058 7A68     		ldr	r2, [r7, #4]
  91 005a 724B     		ldr	r3, .L17+36
  92 005c 9A42     		cmp	r2, r3
  93 005e 0FD0     		beq	.L2
  94 0060 7A68     		ldr	r2, [r7, #4]
  95 0062 714B     		ldr	r3, .L17+40
  96 0064 9A42     		cmp	r2, r3
  97 0066 0BD0     		beq	.L2
  98 0068 7A68     		ldr	r2, [r7, #4]
  99 006a 704B     		ldr	r3, .L17+44
 100 006c 9A42     		cmp	r2, r3
 101 006e 07D0     		beq	.L2
 102 0070 7A68     		ldr	r2, [r7, #4]
 103 0072 6F4B     		ldr	r3, .L17+48
 104 0074 9A42     		cmp	r2, r3
 105 0076 03D0     		beq	.L2
 106 0078 6E48     		ldr	r0, .L17+52
 107 007a C521     		movs	r1, #197
 108 007c FFF7FEFF 		bl	assert_failed
 109              	.L2:
 198:App/STM32F4-Discovery/Libraries/STM32F4xx_StdPeriph_Driver/src/stm32f4xx_tim.c ****  
 199:App/STM32F4-Discovery/Libraries/STM32F4xx_StdPeriph_Driver/src/stm32f4xx_tim.c ****   if (TIMx == TIM1)
 110              		.loc 1 199 0 is_stmt 1
 111 0080 7A68     		ldr	r2, [r7, #4]
 112 0082 5F4B     		ldr	r3, .L17
 113 0084 9A42     		cmp	r2, r3
 114 0086 08D1     		bne	.L3
 200:App/STM32F4-Discovery/Libraries/STM32F4xx_StdPeriph_Driver/src/stm32f4xx_tim.c ****   {
 201:App/STM32F4-Discovery/Libraries/STM32F4xx_StdPeriph_Driver/src/stm32f4xx_tim.c ****     RCC_APB2PeriphResetCmd(RCC_APB2Periph_TIM1, ENABLE);
 115              		.loc 1 201 0
 116 0088 0120     		movs	r0, #1
 117 008a 0121     		movs	r1, #1
 118 008c FFF7FEFF 		bl	RCC_APB2PeriphResetCmd
 202:App/STM32F4-Discovery/Libraries/STM32F4xx_StdPeriph_Driver/src/stm32f4xx_tim.c ****     RCC_APB2PeriphResetCmd(RCC_APB2Periph_TIM1, DISABLE);  
 119              		.loc 1 202 0
 120 0090 0120     		movs	r0, #1
 121 0092 0021     		movs	r1, #0
 122 0094 FFF7FEFF 		bl	RCC_APB2PeriphResetCmd
 123 0098 AFE0     		b	.L1
 124              	.L3:
 203:App/STM32F4-Discovery/Libraries/STM32F4xx_StdPeriph_Driver/src/stm32f4xx_tim.c ****   } 
 204:App/STM32F4-Discovery/Libraries/STM32F4xx_StdPeriph_Driver/src/stm32f4xx_tim.c ****   else if (TIMx == TIM2) 
 125              		.loc 1 204 0
 126 009a 7B68     		ldr	r3, [r7, #4]
 127 009c B3F1804F 		cmp	r3, #1073741824
 128 00a0 08D1     		bne	.L5
 205:App/STM32F4-Discovery/Libraries/STM32F4xx_StdPeriph_Driver/src/stm32f4xx_tim.c ****   {     
 206:App/STM32F4-Discovery/Libraries/STM32F4xx_StdPeriph_Driver/src/stm32f4xx_tim.c ****     RCC_APB1PeriphResetCmd(RCC_APB1Periph_TIM2, ENABLE);
 129              		.loc 1 206 0
 130 00a2 0120     		movs	r0, #1
 131 00a4 0121     		movs	r1, #1
 132 00a6 FFF7FEFF 		bl	RCC_APB1PeriphResetCmd
 207:App/STM32F4-Discovery/Libraries/STM32F4xx_StdPeriph_Driver/src/stm32f4xx_tim.c ****     RCC_APB1PeriphResetCmd(RCC_APB1Periph_TIM2, DISABLE);
 133              		.loc 1 207 0
 134 00aa 0120     		movs	r0, #1
 135 00ac 0021     		movs	r1, #0
 136 00ae FFF7FEFF 		bl	RCC_APB1PeriphResetCmd
 137 00b2 A2E0     		b	.L1
 138              	.L5:
 208:App/STM32F4-Discovery/Libraries/STM32F4xx_StdPeriph_Driver/src/stm32f4xx_tim.c ****   }  
 209:App/STM32F4-Discovery/Libraries/STM32F4xx_StdPeriph_Driver/src/stm32f4xx_tim.c ****   else if (TIMx == TIM3)
 139              		.loc 1 209 0
 140 00b4 7A68     		ldr	r2, [r7, #4]
 141 00b6 534B     		ldr	r3, .L17+4
 142 00b8 9A42     		cmp	r2, r3
 143 00ba 08D1     		bne	.L6
 210:App/STM32F4-Discovery/Libraries/STM32F4xx_StdPeriph_Driver/src/stm32f4xx_tim.c ****   { 
 211:App/STM32F4-Discovery/Libraries/STM32F4xx_StdPeriph_Driver/src/stm32f4xx_tim.c ****     RCC_APB1PeriphResetCmd(RCC_APB1Periph_TIM3, ENABLE);
 144              		.loc 1 211 0
 145 00bc 0220     		movs	r0, #2
 146 00be 0121     		movs	r1, #1
 147 00c0 FFF7FEFF 		bl	RCC_APB1PeriphResetCmd
 212:App/STM32F4-Discovery/Libraries/STM32F4xx_StdPeriph_Driver/src/stm32f4xx_tim.c ****     RCC_APB1PeriphResetCmd(RCC_APB1Periph_TIM3, DISABLE);
 148              		.loc 1 212 0
 149 00c4 0220     		movs	r0, #2
 150 00c6 0021     		movs	r1, #0
 151 00c8 FFF7FEFF 		bl	RCC_APB1PeriphResetCmd
 152 00cc 95E0     		b	.L1
 153              	.L6:
 213:App/STM32F4-Discovery/Libraries/STM32F4xx_StdPeriph_Driver/src/stm32f4xx_tim.c ****   }  
 214:App/STM32F4-Discovery/Libraries/STM32F4xx_StdPeriph_Driver/src/stm32f4xx_tim.c ****   else if (TIMx == TIM4)
 154              		.loc 1 214 0
 155 00ce 7A68     		ldr	r2, [r7, #4]
 156 00d0 4D4B     		ldr	r3, .L17+8
 157 00d2 9A42     		cmp	r2, r3
 158 00d4 08D1     		bne	.L7
 215:App/STM32F4-Discovery/Libraries/STM32F4xx_StdPeriph_Driver/src/stm32f4xx_tim.c ****   { 
 216:App/STM32F4-Discovery/Libraries/STM32F4xx_StdPeriph_Driver/src/stm32f4xx_tim.c ****     RCC_APB1PeriphResetCmd(RCC_APB1Periph_TIM4, ENABLE);
 159              		.loc 1 216 0
 160 00d6 0420     		movs	r0, #4
 161 00d8 0121     		movs	r1, #1
 162 00da FFF7FEFF 		bl	RCC_APB1PeriphResetCmd
 217:App/STM32F4-Discovery/Libraries/STM32F4xx_StdPeriph_Driver/src/stm32f4xx_tim.c ****     RCC_APB1PeriphResetCmd(RCC_APB1Periph_TIM4, DISABLE);
 163              		.loc 1 217 0
 164 00de 0420     		movs	r0, #4
 165 00e0 0021     		movs	r1, #0
 166 00e2 FFF7FEFF 		bl	RCC_APB1PeriphResetCmd
 167 00e6 88E0     		b	.L1
 168              	.L7:
 218:App/STM32F4-Discovery/Libraries/STM32F4xx_StdPeriph_Driver/src/stm32f4xx_tim.c ****   }  
 219:App/STM32F4-Discovery/Libraries/STM32F4xx_StdPeriph_Driver/src/stm32f4xx_tim.c ****   else if (TIMx == TIM5)
 169              		.loc 1 219 0
 170 00e8 7A68     		ldr	r2, [r7, #4]
 171 00ea 484B     		ldr	r3, .L17+12
 172 00ec 9A42     		cmp	r2, r3
 173 00ee 08D1     		bne	.L8
 220:App/STM32F4-Discovery/Libraries/STM32F4xx_StdPeriph_Driver/src/stm32f4xx_tim.c ****   {      
 221:App/STM32F4-Discovery/Libraries/STM32F4xx_StdPeriph_Driver/src/stm32f4xx_tim.c ****     RCC_APB1PeriphResetCmd(RCC_APB1Periph_TIM5, ENABLE);
 174              		.loc 1 221 0
 175 00f0 0820     		movs	r0, #8
 176 00f2 0121     		movs	r1, #1
 177 00f4 FFF7FEFF 		bl	RCC_APB1PeriphResetCmd
 222:App/STM32F4-Discovery/Libraries/STM32F4xx_StdPeriph_Driver/src/stm32f4xx_tim.c ****     RCC_APB1PeriphResetCmd(RCC_APB1Periph_TIM5, DISABLE);
 178              		.loc 1 222 0
 179 00f8 0820     		movs	r0, #8
 180 00fa 0021     		movs	r1, #0
 181 00fc FFF7FEFF 		bl	RCC_APB1PeriphResetCmd
 182 0100 7BE0     		b	.L1
 183              	.L8:
 223:App/STM32F4-Discovery/Libraries/STM32F4xx_StdPeriph_Driver/src/stm32f4xx_tim.c ****   }  
 224:App/STM32F4-Discovery/Libraries/STM32F4xx_StdPeriph_Driver/src/stm32f4xx_tim.c ****   else if (TIMx == TIM6)  
 184              		.loc 1 224 0
 185 0102 7A68     		ldr	r2, [r7, #4]
 186 0104 424B     		ldr	r3, .L17+16
 187 0106 9A42     		cmp	r2, r3
 188 0108 08D1     		bne	.L9
 225:App/STM32F4-Discovery/Libraries/STM32F4xx_StdPeriph_Driver/src/stm32f4xx_tim.c ****   {    
 226:App/STM32F4-Discovery/Libraries/STM32F4xx_StdPeriph_Driver/src/stm32f4xx_tim.c ****     RCC_APB1PeriphResetCmd(RCC_APB1Periph_TIM6, ENABLE);
 189              		.loc 1 226 0
 190 010a 1020     		movs	r0, #16
 191 010c 0121     		movs	r1, #1
 192 010e FFF7FEFF 		bl	RCC_APB1PeriphResetCmd
 227:App/STM32F4-Discovery/Libraries/STM32F4xx_StdPeriph_Driver/src/stm32f4xx_tim.c ****     RCC_APB1PeriphResetCmd(RCC_APB1Periph_TIM6, DISABLE);
 193              		.loc 1 227 0
 194 0112 1020     		movs	r0, #16
 195 0114 0021     		movs	r1, #0
 196 0116 FFF7FEFF 		bl	RCC_APB1PeriphResetCmd
 197 011a 6EE0     		b	.L1
 198              	.L9:
 228:App/STM32F4-Discovery/Libraries/STM32F4xx_StdPeriph_Driver/src/stm32f4xx_tim.c ****   }  
 229:App/STM32F4-Discovery/Libraries/STM32F4xx_StdPeriph_Driver/src/stm32f4xx_tim.c ****   else if (TIMx == TIM7)
 199              		.loc 1 229 0
 200 011c 7A68     		ldr	r2, [r7, #4]
 201 011e 3D4B     		ldr	r3, .L17+20
 202 0120 9A42     		cmp	r2, r3
 203 0122 08D1     		bne	.L10
 230:App/STM32F4-Discovery/Libraries/STM32F4xx_StdPeriph_Driver/src/stm32f4xx_tim.c ****   {      
 231:App/STM32F4-Discovery/Libraries/STM32F4xx_StdPeriph_Driver/src/stm32f4xx_tim.c ****     RCC_APB1PeriphResetCmd(RCC_APB1Periph_TIM7, ENABLE);
 204              		.loc 1 231 0
 205 0124 2020     		movs	r0, #32
 206 0126 0121     		movs	r1, #1
 207 0128 FFF7FEFF 		bl	RCC_APB1PeriphResetCmd
 232:App/STM32F4-Discovery/Libraries/STM32F4xx_StdPeriph_Driver/src/stm32f4xx_tim.c ****     RCC_APB1PeriphResetCmd(RCC_APB1Periph_TIM7, DISABLE);
 208              		.loc 1 232 0
 209 012c 2020     		movs	r0, #32
 210 012e 0021     		movs	r1, #0
 211 0130 FFF7FEFF 		bl	RCC_APB1PeriphResetCmd
 212 0134 61E0     		b	.L1
 213              	.L10:
 233:App/STM32F4-Discovery/Libraries/STM32F4xx_StdPeriph_Driver/src/stm32f4xx_tim.c ****   }  
 234:App/STM32F4-Discovery/Libraries/STM32F4xx_StdPeriph_Driver/src/stm32f4xx_tim.c ****   else if (TIMx == TIM8)
 214              		.loc 1 234 0
 215 0136 7A68     		ldr	r2, [r7, #4]
 216 0138 374B     		ldr	r3, .L17+24
 217 013a 9A42     		cmp	r2, r3
 218 013c 08D1     		bne	.L11
 235:App/STM32F4-Discovery/Libraries/STM32F4xx_StdPeriph_Driver/src/stm32f4xx_tim.c ****   {      
 236:App/STM32F4-Discovery/Libraries/STM32F4xx_StdPeriph_Driver/src/stm32f4xx_tim.c ****     RCC_APB2PeriphResetCmd(RCC_APB2Periph_TIM8, ENABLE);
 219              		.loc 1 236 0
 220 013e 0220     		movs	r0, #2
 221 0140 0121     		movs	r1, #1
 222 0142 FFF7FEFF 		bl	RCC_APB2PeriphResetCmd
 237:App/STM32F4-Discovery/Libraries/STM32F4xx_StdPeriph_Driver/src/stm32f4xx_tim.c ****     RCC_APB2PeriphResetCmd(RCC_APB2Periph_TIM8, DISABLE);  
 223              		.loc 1 237 0
 224 0146 0220     		movs	r0, #2
 225 0148 0021     		movs	r1, #0
 226 014a FFF7FEFF 		bl	RCC_APB2PeriphResetCmd
 227 014e 54E0     		b	.L1
 228              	.L11:
 238:App/STM32F4-Discovery/Libraries/STM32F4xx_StdPeriph_Driver/src/stm32f4xx_tim.c ****   }  
 239:App/STM32F4-Discovery/Libraries/STM32F4xx_StdPeriph_Driver/src/stm32f4xx_tim.c ****   else if (TIMx == TIM9)
 229              		.loc 1 239 0
 230 0150 7A68     		ldr	r2, [r7, #4]
 231 0152 324B     		ldr	r3, .L17+28
 232 0154 9A42     		cmp	r2, r3
 233 0156 0AD1     		bne	.L12
 240:App/STM32F4-Discovery/Libraries/STM32F4xx_StdPeriph_Driver/src/stm32f4xx_tim.c ****   {      
 241:App/STM32F4-Discovery/Libraries/STM32F4xx_StdPeriph_Driver/src/stm32f4xx_tim.c ****     RCC_APB2PeriphResetCmd(RCC_APB2Periph_TIM9, ENABLE);
 234              		.loc 1 241 0
 235 0158 4FF48030 		mov	r0, #65536
 236 015c 0121     		movs	r1, #1
 237 015e FFF7FEFF 		bl	RCC_APB2PeriphResetCmd
 242:App/STM32F4-Discovery/Libraries/STM32F4xx_StdPeriph_Driver/src/stm32f4xx_tim.c ****     RCC_APB2PeriphResetCmd(RCC_APB2Periph_TIM9, DISABLE);  
 238              		.loc 1 242 0
 239 0162 4FF48030 		mov	r0, #65536
 240 0166 0021     		movs	r1, #0
 241 0168 FFF7FEFF 		bl	RCC_APB2PeriphResetCmd
 242 016c 45E0     		b	.L1
 243              	.L12:
 243:App/STM32F4-Discovery/Libraries/STM32F4xx_StdPeriph_Driver/src/stm32f4xx_tim.c ****    }  
 244:App/STM32F4-Discovery/Libraries/STM32F4xx_StdPeriph_Driver/src/stm32f4xx_tim.c ****   else if (TIMx == TIM10)
 244              		.loc 1 244 0
 245 016e 7A68     		ldr	r2, [r7, #4]
 246 0170 2B4B     		ldr	r3, .L17+32
 247 0172 9A42     		cmp	r2, r3
 248 0174 0AD1     		bne	.L13
 245:App/STM32F4-Discovery/Libraries/STM32F4xx_StdPeriph_Driver/src/stm32f4xx_tim.c ****   {      
 246:App/STM32F4-Discovery/Libraries/STM32F4xx_StdPeriph_Driver/src/stm32f4xx_tim.c ****     RCC_APB2PeriphResetCmd(RCC_APB2Periph_TIM10, ENABLE);
 249              		.loc 1 246 0
 250 0176 4FF40030 		mov	r0, #131072
 251 017a 0121     		movs	r1, #1
 252 017c FFF7FEFF 		bl	RCC_APB2PeriphResetCmd
 247:App/STM32F4-Discovery/Libraries/STM32F4xx_StdPeriph_Driver/src/stm32f4xx_tim.c ****     RCC_APB2PeriphResetCmd(RCC_APB2Periph_TIM10, DISABLE);  
 253              		.loc 1 247 0
 254 0180 4FF40030 		mov	r0, #131072
 255 0184 0021     		movs	r1, #0
 256 0186 FFF7FEFF 		bl	RCC_APB2PeriphResetCmd
 257 018a 36E0     		b	.L1
 258              	.L13:
 248:App/STM32F4-Discovery/Libraries/STM32F4xx_StdPeriph_Driver/src/stm32f4xx_tim.c ****   }  
 249:App/STM32F4-Discovery/Libraries/STM32F4xx_StdPeriph_Driver/src/stm32f4xx_tim.c ****   else if (TIMx == TIM11) 
 259              		.loc 1 249 0
 260 018c 7A68     		ldr	r2, [r7, #4]
 261 018e 254B     		ldr	r3, .L17+36
 262 0190 9A42     		cmp	r2, r3
 263 0192 0AD1     		bne	.L14
 250:App/STM32F4-Discovery/Libraries/STM32F4xx_StdPeriph_Driver/src/stm32f4xx_tim.c ****   {     
 251:App/STM32F4-Discovery/Libraries/STM32F4xx_StdPeriph_Driver/src/stm32f4xx_tim.c ****     RCC_APB2PeriphResetCmd(RCC_APB2Periph_TIM11, ENABLE);
 264              		.loc 1 251 0
 265 0194 4FF48020 		mov	r0, #262144
 266 0198 0121     		movs	r1, #1
 267 019a FFF7FEFF 		bl	RCC_APB2PeriphResetCmd
 252:App/STM32F4-Discovery/Libraries/STM32F4xx_StdPeriph_Driver/src/stm32f4xx_tim.c ****     RCC_APB2PeriphResetCmd(RCC_APB2Periph_TIM11, DISABLE);  
 268              		.loc 1 252 0
 269 019e 4FF48020 		mov	r0, #262144
 270 01a2 0021     		movs	r1, #0
 271 01a4 FFF7FEFF 		bl	RCC_APB2PeriphResetCmd
 272 01a8 27E0     		b	.L1
 273              	.L14:
 253:App/STM32F4-Discovery/Libraries/STM32F4xx_StdPeriph_Driver/src/stm32f4xx_tim.c ****   }  
 254:App/STM32F4-Discovery/Libraries/STM32F4xx_StdPeriph_Driver/src/stm32f4xx_tim.c ****   else if (TIMx == TIM12)
 274              		.loc 1 254 0
 275 01aa 7A68     		ldr	r2, [r7, #4]
 276 01ac 1E4B     		ldr	r3, .L17+40
 277 01ae 9A42     		cmp	r2, r3
 278 01b0 08D1     		bne	.L15
 255:App/STM32F4-Discovery/Libraries/STM32F4xx_StdPeriph_Driver/src/stm32f4xx_tim.c ****   {      
 256:App/STM32F4-Discovery/Libraries/STM32F4xx_StdPeriph_Driver/src/stm32f4xx_tim.c ****     RCC_APB1PeriphResetCmd(RCC_APB1Periph_TIM12, ENABLE);
 279              		.loc 1 256 0
 280 01b2 4020     		movs	r0, #64
 281 01b4 0121     		movs	r1, #1
 282 01b6 FFF7FEFF 		bl	RCC_APB1PeriphResetCmd
 257:App/STM32F4-Discovery/Libraries/STM32F4xx_StdPeriph_Driver/src/stm32f4xx_tim.c ****     RCC_APB1PeriphResetCmd(RCC_APB1Periph_TIM12, DISABLE);  
 283              		.loc 1 257 0
 284 01ba 4020     		movs	r0, #64
 285 01bc 0021     		movs	r1, #0
 286 01be FFF7FEFF 		bl	RCC_APB1PeriphResetCmd
 287 01c2 1AE0     		b	.L1
 288              	.L15:
 258:App/STM32F4-Discovery/Libraries/STM32F4xx_StdPeriph_Driver/src/stm32f4xx_tim.c ****   }  
 259:App/STM32F4-Discovery/Libraries/STM32F4xx_StdPeriph_Driver/src/stm32f4xx_tim.c ****   else if (TIMx == TIM13) 
 289              		.loc 1 259 0
 290 01c4 7A68     		ldr	r2, [r7, #4]
 291 01c6 194B     		ldr	r3, .L17+44
 292 01c8 9A42     		cmp	r2, r3
 293 01ca 08D1     		bne	.L16
 260:App/STM32F4-Discovery/Libraries/STM32F4xx_StdPeriph_Driver/src/stm32f4xx_tim.c ****   {       
 261:App/STM32F4-Discovery/Libraries/STM32F4xx_StdPeriph_Driver/src/stm32f4xx_tim.c ****     RCC_APB1PeriphResetCmd(RCC_APB1Periph_TIM13, ENABLE);
 294              		.loc 1 261 0
 295 01cc 8020     		movs	r0, #128
 296 01ce 0121     		movs	r1, #1
 297 01d0 FFF7FEFF 		bl	RCC_APB1PeriphResetCmd
 262:App/STM32F4-Discovery/Libraries/STM32F4xx_StdPeriph_Driver/src/stm32f4xx_tim.c ****     RCC_APB1PeriphResetCmd(RCC_APB1Periph_TIM13, DISABLE);  
 298              		.loc 1 262 0
 299 01d4 8020     		movs	r0, #128
 300 01d6 0021     		movs	r1, #0
 301 01d8 FFF7FEFF 		bl	RCC_APB1PeriphResetCmd
 302 01dc 0DE0     		b	.L1
 303              	.L16:
 263:App/STM32F4-Discovery/Libraries/STM32F4xx_StdPeriph_Driver/src/stm32f4xx_tim.c ****   }  
 264:App/STM32F4-Discovery/Libraries/STM32F4xx_StdPeriph_Driver/src/stm32f4xx_tim.c ****   else
 265:App/STM32F4-Discovery/Libraries/STM32F4xx_StdPeriph_Driver/src/stm32f4xx_tim.c ****   { 
 266:App/STM32F4-Discovery/Libraries/STM32F4xx_StdPeriph_Driver/src/stm32f4xx_tim.c ****     if (TIMx == TIM14) 
 304              		.loc 1 266 0
 305 01de 7A68     		ldr	r2, [r7, #4]
 306 01e0 134B     		ldr	r3, .L17+48
 307 01e2 9A42     		cmp	r2, r3
 308 01e4 09D1     		bne	.L1
 267:App/STM32F4-Discovery/Libraries/STM32F4xx_StdPeriph_Driver/src/stm32f4xx_tim.c ****     {     
 268:App/STM32F4-Discovery/Libraries/STM32F4xx_StdPeriph_Driver/src/stm32f4xx_tim.c ****       RCC_APB1PeriphResetCmd(RCC_APB1Periph_TIM14, ENABLE);
 309              		.loc 1 268 0
 310 01e6 4FF48070 		mov	r0, #256
 311 01ea 0121     		movs	r1, #1
 312 01ec FFF7FEFF 		bl	RCC_APB1PeriphResetCmd
 269:App/STM32F4-Discovery/Libraries/STM32F4xx_StdPeriph_Driver/src/stm32f4xx_tim.c ****       RCC_APB1PeriphResetCmd(RCC_APB1Periph_TIM14, DISABLE); 
 313              		.loc 1 269 0
 314 01f0 4FF48070 		mov	r0, #256
 315 01f4 0021     		movs	r1, #0
 316 01f6 FFF7FEFF 		bl	RCC_APB1PeriphResetCmd
 317              	.L1:
 270:App/STM32F4-Discovery/Libraries/STM32F4xx_StdPeriph_Driver/src/stm32f4xx_tim.c ****     }   
 271:App/STM32F4-Discovery/Libraries/STM32F4xx_StdPeriph_Driver/src/stm32f4xx_tim.c ****   }
 272:App/STM32F4-Discovery/Libraries/STM32F4xx_StdPeriph_Driver/src/stm32f4xx_tim.c **** }
 318              		.loc 1 272 0
 319 01fa 0837     		adds	r7, r7, #8
 320 01fc BD46     		mov	sp, r7
 321              		@ sp needed
 322 01fe 80BD     		pop	{r7, pc}
 323              	.L18:
 324              		.align	2
 325              	.L17:
 326 0200 00000140 		.word	1073807360
 327 0204 00040040 		.word	1073742848
 328 0208 00080040 		.word	1073743872
 329 020c 000C0040 		.word	1073744896
 330 0210 00100040 		.word	1073745920
 331 0214 00140040 		.word	1073746944
 332 0218 00040140 		.word	1073808384
 333 021c 00400140 		.word	1073823744
 334 0220 00440140 		.word	1073824768
 335 0224 00480140 		.word	1073825792
 336 0228 00180040 		.word	1073747968
 337 022c 001C0040 		.word	1073748992
 338 0230 00200040 		.word	1073750016
 339 0234 00000000 		.word	.LC0
 340              		.cfi_endproc
 341              	.LFE110:
 343              		.section	.text.TIM_TimeBaseInit,"ax",%progbits
 344              		.align	2
 345              		.global	TIM_TimeBaseInit
 346              		.thumb
 347              		.thumb_func
 349              	TIM_TimeBaseInit:
 350              	.LFB111:
 273:App/STM32F4-Discovery/Libraries/STM32F4xx_StdPeriph_Driver/src/stm32f4xx_tim.c **** 
 274:App/STM32F4-Discovery/Libraries/STM32F4xx_StdPeriph_Driver/src/stm32f4xx_tim.c **** /**
 275:App/STM32F4-Discovery/Libraries/STM32F4xx_StdPeriph_Driver/src/stm32f4xx_tim.c ****   * @brief  Initializes the TIMx Time Base Unit peripheral according to 
 276:App/STM32F4-Discovery/Libraries/STM32F4xx_StdPeriph_Driver/src/stm32f4xx_tim.c ****   *         the specified parameters in the TIM_TimeBaseInitStruct.
 277:App/STM32F4-Discovery/Libraries/STM32F4xx_StdPeriph_Driver/src/stm32f4xx_tim.c ****   * @param  TIMx: where x can be  1 to 14 to select the TIM peripheral.
 278:App/STM32F4-Discovery/Libraries/STM32F4xx_StdPeriph_Driver/src/stm32f4xx_tim.c ****   * @param  TIM_TimeBaseInitStruct: pointer to a TIM_TimeBaseInitTypeDef structure
 279:App/STM32F4-Discovery/Libraries/STM32F4xx_StdPeriph_Driver/src/stm32f4xx_tim.c ****   *         that contains the configuration information for the specified TIM peripheral.
 280:App/STM32F4-Discovery/Libraries/STM32F4xx_StdPeriph_Driver/src/stm32f4xx_tim.c ****   * @retval None
 281:App/STM32F4-Discovery/Libraries/STM32F4xx_StdPeriph_Driver/src/stm32f4xx_tim.c ****   */
 282:App/STM32F4-Discovery/Libraries/STM32F4xx_StdPeriph_Driver/src/stm32f4xx_tim.c **** void TIM_TimeBaseInit(TIM_TypeDef* TIMx, TIM_TimeBaseInitTypeDef* TIM_TimeBaseInitStruct)
 283:App/STM32F4-Discovery/Libraries/STM32F4xx_StdPeriph_Driver/src/stm32f4xx_tim.c **** {
 351              		.loc 1 283 0
 352              		.cfi_startproc
 353              		@ args = 0, pretend = 0, frame = 16
 354              		@ frame_needed = 1, uses_anonymous_args = 0
 355 0000 80B5     		push	{r7, lr}
 356              	.LCFI3:
 357              		.cfi_def_cfa_offset 8
 358              		.cfi_offset 7, -8
 359              		.cfi_offset 14, -4
 360 0002 84B0     		sub	sp, sp, #16
 361              	.LCFI4:
 362              		.cfi_def_cfa_offset 24
 363 0004 00AF     		add	r7, sp, #0
 364              	.LCFI5:
 365              		.cfi_def_cfa_register 7
 366 0006 7860     		str	r0, [r7, #4]
 367 0008 3960     		str	r1, [r7]
 284:App/STM32F4-Discovery/Libraries/STM32F4xx_StdPeriph_Driver/src/stm32f4xx_tim.c ****   uint16_t tmpcr1 = 0;
 368              		.loc 1 284 0
 369 000a 0023     		movs	r3, #0
 370 000c FB81     		strh	r3, [r7, #14]	@ movhi
 285:App/STM32F4-Discovery/Libraries/STM32F4xx_StdPeriph_Driver/src/stm32f4xx_tim.c **** 
 286:App/STM32F4-Discovery/Libraries/STM32F4xx_StdPeriph_Driver/src/stm32f4xx_tim.c ****   /* Check the parameters */
 287:App/STM32F4-Discovery/Libraries/STM32F4xx_StdPeriph_Driver/src/stm32f4xx_tim.c ****   assert_param(IS_TIM_ALL_PERIPH(TIMx)); 
 371              		.loc 1 287 0
 372 000e 7A68     		ldr	r2, [r7, #4]
 373 0010 5D4B     		ldr	r3, .L28
 374 0012 9A42     		cmp	r2, r3
 375 0014 38D0     		beq	.L20
 376              		.loc 1 287 0 is_stmt 0 discriminator 1
 377 0016 7B68     		ldr	r3, [r7, #4]
 378 0018 B3F1804F 		cmp	r3, #1073741824
 379 001c 34D0     		beq	.L20
 380 001e 7A68     		ldr	r2, [r7, #4]
 381 0020 5A4B     		ldr	r3, .L28+4
 382 0022 9A42     		cmp	r2, r3
 383 0024 30D0     		beq	.L20
 384 0026 7A68     		ldr	r2, [r7, #4]
 385 0028 594B     		ldr	r3, .L28+8
 386 002a 9A42     		cmp	r2, r3
 387 002c 2CD0     		beq	.L20
 388 002e 7A68     		ldr	r2, [r7, #4]
 389 0030 584B     		ldr	r3, .L28+12
 390 0032 9A42     		cmp	r2, r3
 391 0034 28D0     		beq	.L20
 392 0036 7A68     		ldr	r2, [r7, #4]
 393 0038 574B     		ldr	r3, .L28+16
 394 003a 9A42     		cmp	r2, r3
 395 003c 24D0     		beq	.L20
 396 003e 7A68     		ldr	r2, [r7, #4]
 397 0040 564B     		ldr	r3, .L28+20
 398 0042 9A42     		cmp	r2, r3
 399 0044 20D0     		beq	.L20
 400 0046 7A68     		ldr	r2, [r7, #4]
 401 0048 554B     		ldr	r3, .L28+24
 402 004a 9A42     		cmp	r2, r3
 403 004c 1CD0     		beq	.L20
 404 004e 7A68     		ldr	r2, [r7, #4]
 405 0050 544B     		ldr	r3, .L28+28
 406 0052 9A42     		cmp	r2, r3
 407 0054 18D0     		beq	.L20
 408 0056 7A68     		ldr	r2, [r7, #4]
 409 0058 534B     		ldr	r3, .L28+32
 410 005a 9A42     		cmp	r2, r3
 411 005c 14D0     		beq	.L20
 412 005e 7A68     		ldr	r2, [r7, #4]
 413 0060 524B     		ldr	r3, .L28+36
 414 0062 9A42     		cmp	r2, r3
 415 0064 10D0     		beq	.L20
 416 0066 7A68     		ldr	r2, [r7, #4]
 417 0068 514B     		ldr	r3, .L28+40
 418 006a 9A42     		cmp	r2, r3
 419 006c 0CD0     		beq	.L20
 420 006e 7A68     		ldr	r2, [r7, #4]
 421 0070 504B     		ldr	r3, .L28+44
 422 0072 9A42     		cmp	r2, r3
 423 0074 08D0     		beq	.L20
 424 0076 7A68     		ldr	r2, [r7, #4]
 425 0078 4F4B     		ldr	r3, .L28+48
 426 007a 9A42     		cmp	r2, r3
 427 007c 04D0     		beq	.L20
 428 007e 4F48     		ldr	r0, .L28+52
 429 0080 40F21F11 		movw	r1, #287
 430 0084 FFF7FEFF 		bl	assert_failed
 431              	.L20:
 288:App/STM32F4-Discovery/Libraries/STM32F4xx_StdPeriph_Driver/src/stm32f4xx_tim.c ****   assert_param(IS_TIM_COUNTER_MODE(TIM_TimeBaseInitStruct->TIM_CounterMode));
 432              		.loc 1 288 0 is_stmt 1
 433 0088 3B68     		ldr	r3, [r7]
 434 008a 5B88     		ldrh	r3, [r3, #2]
 435 008c 002B     		cmp	r3, #0
 436 008e 14D0     		beq	.L21
 437              		.loc 1 288 0 is_stmt 0 discriminator 1
 438 0090 3B68     		ldr	r3, [r7]
 439 0092 5B88     		ldrh	r3, [r3, #2]
 440 0094 102B     		cmp	r3, #16
 441 0096 10D0     		beq	.L21
 442 0098 3B68     		ldr	r3, [r7]
 443 009a 5B88     		ldrh	r3, [r3, #2]
 444 009c 202B     		cmp	r3, #32
 445 009e 0CD0     		beq	.L21
 446 00a0 3B68     		ldr	r3, [r7]
 447 00a2 5B88     		ldrh	r3, [r3, #2]
 448 00a4 402B     		cmp	r3, #64
 449 00a6 08D0     		beq	.L21
 450 00a8 3B68     		ldr	r3, [r7]
 451 00aa 5B88     		ldrh	r3, [r3, #2]
 452 00ac 602B     		cmp	r3, #96
 453 00ae 04D0     		beq	.L21
 454 00b0 4248     		ldr	r0, .L28+52
 455 00b2 4FF49071 		mov	r1, #288
 456 00b6 FFF7FEFF 		bl	assert_failed
 457              	.L21:
 289:App/STM32F4-Discovery/Libraries/STM32F4xx_StdPeriph_Driver/src/stm32f4xx_tim.c ****   assert_param(IS_TIM_CKD_DIV(TIM_TimeBaseInitStruct->TIM_ClockDivision));
 458              		.loc 1 289 0 is_stmt 1
 459 00ba 3B68     		ldr	r3, [r7]
 460 00bc 1B89     		ldrh	r3, [r3, #8]
 461 00be 002B     		cmp	r3, #0
 462 00c0 0ED0     		beq	.L22
 463              		.loc 1 289 0 is_stmt 0 discriminator 1
 464 00c2 3B68     		ldr	r3, [r7]
 465 00c4 1B89     		ldrh	r3, [r3, #8]
 466 00c6 B3F5807F 		cmp	r3, #256
 467 00ca 09D0     		beq	.L22
 468 00cc 3B68     		ldr	r3, [r7]
 469 00ce 1B89     		ldrh	r3, [r3, #8]
 470 00d0 B3F5007F 		cmp	r3, #512
 471 00d4 04D0     		beq	.L22
 472 00d6 3948     		ldr	r0, .L28+52
 473 00d8 40F22111 		movw	r1, #289
 474 00dc FFF7FEFF 		bl	assert_failed
 475              	.L22:
 290:App/STM32F4-Discovery/Libraries/STM32F4xx_StdPeriph_Driver/src/stm32f4xx_tim.c **** 
 291:App/STM32F4-Discovery/Libraries/STM32F4xx_StdPeriph_Driver/src/stm32f4xx_tim.c ****   tmpcr1 = TIMx->CR1;  
 476              		.loc 1 291 0 is_stmt 1
 477 00e0 7B68     		ldr	r3, [r7, #4]
 478 00e2 1B88     		ldrh	r3, [r3]	@ movhi
 479 00e4 FB81     		strh	r3, [r7, #14]	@ movhi
 292:App/STM32F4-Discovery/Libraries/STM32F4xx_StdPeriph_Driver/src/stm32f4xx_tim.c **** 
 293:App/STM32F4-Discovery/Libraries/STM32F4xx_StdPeriph_Driver/src/stm32f4xx_tim.c ****   if((TIMx == TIM1) || (TIMx == TIM8)||
 480              		.loc 1 293 0
 481 00e6 7A68     		ldr	r2, [r7, #4]
 482 00e8 274B     		ldr	r3, .L28
 483 00ea 9A42     		cmp	r2, r3
 484 00ec 13D0     		beq	.L23
 485              		.loc 1 293 0 is_stmt 0 discriminator 1
 486 00ee 7A68     		ldr	r2, [r7, #4]
 487 00f0 2B4B     		ldr	r3, .L28+24
 488 00f2 9A42     		cmp	r2, r3
 489 00f4 0FD0     		beq	.L23
 490 00f6 7B68     		ldr	r3, [r7, #4]
 491 00f8 B3F1804F 		cmp	r3, #1073741824
 492 00fc 0BD0     		beq	.L23
 294:App/STM32F4-Discovery/Libraries/STM32F4xx_StdPeriph_Driver/src/stm32f4xx_tim.c ****      (TIMx == TIM2) || (TIMx == TIM3)||
 493              		.loc 1 294 0 is_stmt 1
 494 00fe 7A68     		ldr	r2, [r7, #4]
 495 0100 224B     		ldr	r3, .L28+4
 496 0102 9A42     		cmp	r2, r3
 497 0104 07D0     		beq	.L23
 498              		.loc 1 294 0 is_stmt 0 discriminator 1
 499 0106 7A68     		ldr	r2, [r7, #4]
 500 0108 214B     		ldr	r3, .L28+8
 501 010a 9A42     		cmp	r2, r3
 502 010c 03D0     		beq	.L23
 295:App/STM32F4-Discovery/Libraries/STM32F4xx_StdPeriph_Driver/src/stm32f4xx_tim.c ****      (TIMx == TIM4) || (TIMx == TIM5)) 
 503              		.loc 1 295 0 is_stmt 1
 504 010e 7A68     		ldr	r2, [r7, #4]
 505 0110 204B     		ldr	r3, .L28+12
 506 0112 9A42     		cmp	r2, r3
 507 0114 08D1     		bne	.L24
 508              	.L23:
 296:App/STM32F4-Discovery/Libraries/STM32F4xx_StdPeriph_Driver/src/stm32f4xx_tim.c ****   {
 297:App/STM32F4-Discovery/Libraries/STM32F4xx_StdPeriph_Driver/src/stm32f4xx_tim.c ****     /* Select the Counter Mode */
 298:App/STM32F4-Discovery/Libraries/STM32F4xx_StdPeriph_Driver/src/stm32f4xx_tim.c ****     tmpcr1 &= (uint16_t)(~(TIM_CR1_DIR | TIM_CR1_CMS));
 509              		.loc 1 298 0
 510 0116 FB89     		ldrh	r3, [r7, #14]	@ movhi
 511 0118 23F07003 		bic	r3, r3, #112
 512 011c FB81     		strh	r3, [r7, #14]	@ movhi
 299:App/STM32F4-Discovery/Libraries/STM32F4xx_StdPeriph_Driver/src/stm32f4xx_tim.c ****     tmpcr1 |= (uint32_t)TIM_TimeBaseInitStruct->TIM_CounterMode;
 513              		.loc 1 299 0
 514 011e 3B68     		ldr	r3, [r7]
 515 0120 5A88     		ldrh	r2, [r3, #2]
 516 0122 FB89     		ldrh	r3, [r7, #14]	@ movhi
 517 0124 1343     		orrs	r3, r3, r2
 518 0126 FB81     		strh	r3, [r7, #14]	@ movhi
 519              	.L24:
 300:App/STM32F4-Discovery/Libraries/STM32F4xx_StdPeriph_Driver/src/stm32f4xx_tim.c ****   }
 301:App/STM32F4-Discovery/Libraries/STM32F4xx_StdPeriph_Driver/src/stm32f4xx_tim.c ****  
 302:App/STM32F4-Discovery/Libraries/STM32F4xx_StdPeriph_Driver/src/stm32f4xx_tim.c ****   if((TIMx != TIM6) && (TIMx != TIM7))
 520              		.loc 1 302 0
 521 0128 7A68     		ldr	r2, [r7, #4]
 522 012a 1B4B     		ldr	r3, .L28+16
 523 012c 9A42     		cmp	r2, r3
 524 012e 0CD0     		beq	.L25
 525              		.loc 1 302 0 is_stmt 0 discriminator 1
 526 0130 7A68     		ldr	r2, [r7, #4]
 527 0132 1A4B     		ldr	r3, .L28+20
 528 0134 9A42     		cmp	r2, r3
 529 0136 08D0     		beq	.L25
 303:App/STM32F4-Discovery/Libraries/STM32F4xx_StdPeriph_Driver/src/stm32f4xx_tim.c ****   {
 304:App/STM32F4-Discovery/Libraries/STM32F4xx_StdPeriph_Driver/src/stm32f4xx_tim.c ****     /* Set the clock division */
 305:App/STM32F4-Discovery/Libraries/STM32F4xx_StdPeriph_Driver/src/stm32f4xx_tim.c ****     tmpcr1 &=  (uint16_t)(~TIM_CR1_CKD);
 530              		.loc 1 305 0 is_stmt 1
 531 0138 FB89     		ldrh	r3, [r7, #14]	@ movhi
 532 013a 23F44073 		bic	r3, r3, #768
 533 013e FB81     		strh	r3, [r7, #14]	@ movhi
 306:App/STM32F4-Discovery/Libraries/STM32F4xx_StdPeriph_Driver/src/stm32f4xx_tim.c ****     tmpcr1 |= (uint32_t)TIM_TimeBaseInitStruct->TIM_ClockDivision;
 534              		.loc 1 306 0
 535 0140 3B68     		ldr	r3, [r7]
 536 0142 1A89     		ldrh	r2, [r3, #8]
 537 0144 FB89     		ldrh	r3, [r7, #14]	@ movhi
 538 0146 1343     		orrs	r3, r3, r2
 539 0148 FB81     		strh	r3, [r7, #14]	@ movhi
 540              	.L25:
 307:App/STM32F4-Discovery/Libraries/STM32F4xx_StdPeriph_Driver/src/stm32f4xx_tim.c ****   }
 308:App/STM32F4-Discovery/Libraries/STM32F4xx_StdPeriph_Driver/src/stm32f4xx_tim.c **** 
 309:App/STM32F4-Discovery/Libraries/STM32F4xx_StdPeriph_Driver/src/stm32f4xx_tim.c ****   TIMx->CR1 = tmpcr1;
 541              		.loc 1 309 0
 542 014a 7B68     		ldr	r3, [r7, #4]
 543 014c FA89     		ldrh	r2, [r7, #14]	@ movhi
 544 014e 1A80     		strh	r2, [r3]	@ movhi
 310:App/STM32F4-Discovery/Libraries/STM32F4xx_StdPeriph_Driver/src/stm32f4xx_tim.c **** 
 311:App/STM32F4-Discovery/Libraries/STM32F4xx_StdPeriph_Driver/src/stm32f4xx_tim.c ****   /* Set the Autoreload value */
 312:App/STM32F4-Discovery/Libraries/STM32F4xx_StdPeriph_Driver/src/stm32f4xx_tim.c ****   TIMx->ARR = TIM_TimeBaseInitStruct->TIM_Period ;
 545              		.loc 1 312 0
 546 0150 3B68     		ldr	r3, [r7]
 547 0152 5A68     		ldr	r2, [r3, #4]
 548 0154 7B68     		ldr	r3, [r7, #4]
 549 0156 DA62     		str	r2, [r3, #44]
 313:App/STM32F4-Discovery/Libraries/STM32F4xx_StdPeriph_Driver/src/stm32f4xx_tim.c ****  
 314:App/STM32F4-Discovery/Libraries/STM32F4xx_StdPeriph_Driver/src/stm32f4xx_tim.c ****   /* Set the Prescaler value */
 315:App/STM32F4-Discovery/Libraries/STM32F4xx_StdPeriph_Driver/src/stm32f4xx_tim.c ****   TIMx->PSC = TIM_TimeBaseInitStruct->TIM_Prescaler;
 550              		.loc 1 315 0
 551 0158 3B68     		ldr	r3, [r7]
 552 015a 1A88     		ldrh	r2, [r3]
 553 015c 7B68     		ldr	r3, [r7, #4]
 554 015e 1A85     		strh	r2, [r3, #40]	@ movhi
 316:App/STM32F4-Discovery/Libraries/STM32F4xx_StdPeriph_Driver/src/stm32f4xx_tim.c ****     
 317:App/STM32F4-Discovery/Libraries/STM32F4xx_StdPeriph_Driver/src/stm32f4xx_tim.c ****   if ((TIMx == TIM1) || (TIMx == TIM8))  
 555              		.loc 1 317 0
 556 0160 7A68     		ldr	r2, [r7, #4]
 557 0162 094B     		ldr	r3, .L28
 558 0164 9A42     		cmp	r2, r3
 559 0166 03D0     		beq	.L26
 560              		.loc 1 317 0 is_stmt 0 discriminator 1
 561 0168 7A68     		ldr	r2, [r7, #4]
 562 016a 0D4B     		ldr	r3, .L28+24
 563 016c 9A42     		cmp	r2, r3
 564 016e 04D1     		bne	.L27
 565              	.L26:
 318:App/STM32F4-Discovery/Libraries/STM32F4xx_StdPeriph_Driver/src/stm32f4xx_tim.c ****   {
 319:App/STM32F4-Discovery/Libraries/STM32F4xx_StdPeriph_Driver/src/stm32f4xx_tim.c ****     /* Set the Repetition Counter value */
 320:App/STM32F4-Discovery/Libraries/STM32F4xx_StdPeriph_Driver/src/stm32f4xx_tim.c ****     TIMx->RCR = TIM_TimeBaseInitStruct->TIM_RepetitionCounter;
 566              		.loc 1 320 0 is_stmt 1
 567 0170 3B68     		ldr	r3, [r7]
 568 0172 9B7A     		ldrb	r3, [r3, #10]	@ zero_extendqisi2
 569 0174 1A46     		mov	r2, r3
 570 0176 7B68     		ldr	r3, [r7, #4]
 571 0178 1A86     		strh	r2, [r3, #48]	@ movhi
 572              	.L27:
 321:App/STM32F4-Discovery/Libraries/STM32F4xx_StdPeriph_Driver/src/stm32f4xx_tim.c ****   }
 322:App/STM32F4-Discovery/Libraries/STM32F4xx_StdPeriph_Driver/src/stm32f4xx_tim.c **** 
 323:App/STM32F4-Discovery/Libraries/STM32F4xx_StdPeriph_Driver/src/stm32f4xx_tim.c ****   /* Generate an update event to reload the Prescaler 
 324:App/STM32F4-Discovery/Libraries/STM32F4xx_StdPeriph_Driver/src/stm32f4xx_tim.c ****      and the repetition counter(only for TIM1 and TIM8) value immediatly */
 325:App/STM32F4-Discovery/Libraries/STM32F4xx_StdPeriph_Driver/src/stm32f4xx_tim.c ****   TIMx->EGR = TIM_PSCReloadMode_Immediate;          
 573              		.loc 1 325 0
 574 017a 7B68     		ldr	r3, [r7, #4]
 575 017c 0122     		movs	r2, #1
 576 017e 9A82     		strh	r2, [r3, #20]	@ movhi
 326:App/STM32F4-Discovery/Libraries/STM32F4xx_StdPeriph_Driver/src/stm32f4xx_tim.c **** }
 577              		.loc 1 326 0
 578 0180 1037     		adds	r7, r7, #16
 579 0182 BD46     		mov	sp, r7
 580              		@ sp needed
 581 0184 80BD     		pop	{r7, pc}
 582              	.L29:
 583 0186 00BF     		.align	2
 584              	.L28:
 585 0188 00000140 		.word	1073807360
 586 018c 00040040 		.word	1073742848
 587 0190 00080040 		.word	1073743872
 588 0194 000C0040 		.word	1073744896
 589 0198 00100040 		.word	1073745920
 590 019c 00140040 		.word	1073746944
 591 01a0 00040140 		.word	1073808384
 592 01a4 00400140 		.word	1073823744
 593 01a8 00440140 		.word	1073824768
 594 01ac 00480140 		.word	1073825792
 595 01b0 00180040 		.word	1073747968
 596 01b4 001C0040 		.word	1073748992
 597 01b8 00200040 		.word	1073750016
 598 01bc 00000000 		.word	.LC0
 599              		.cfi_endproc
 600              	.LFE111:
 602              		.section	.text.TIM_TimeBaseStructInit,"ax",%progbits
 603              		.align	2
 604              		.global	TIM_TimeBaseStructInit
 605              		.thumb
 606              		.thumb_func
 608              	TIM_TimeBaseStructInit:
 609              	.LFB112:
 327:App/STM32F4-Discovery/Libraries/STM32F4xx_StdPeriph_Driver/src/stm32f4xx_tim.c **** 
 328:App/STM32F4-Discovery/Libraries/STM32F4xx_StdPeriph_Driver/src/stm32f4xx_tim.c **** /**
 329:App/STM32F4-Discovery/Libraries/STM32F4xx_StdPeriph_Driver/src/stm32f4xx_tim.c ****   * @brief  Fills each TIM_TimeBaseInitStruct member with its default value.
 330:App/STM32F4-Discovery/Libraries/STM32F4xx_StdPeriph_Driver/src/stm32f4xx_tim.c ****   * @param  TIM_TimeBaseInitStruct : pointer to a TIM_TimeBaseInitTypeDef
 331:App/STM32F4-Discovery/Libraries/STM32F4xx_StdPeriph_Driver/src/stm32f4xx_tim.c ****   *         structure which will be initialized.
 332:App/STM32F4-Discovery/Libraries/STM32F4xx_StdPeriph_Driver/src/stm32f4xx_tim.c ****   * @retval None
 333:App/STM32F4-Discovery/Libraries/STM32F4xx_StdPeriph_Driver/src/stm32f4xx_tim.c ****   */
 334:App/STM32F4-Discovery/Libraries/STM32F4xx_StdPeriph_Driver/src/stm32f4xx_tim.c **** void TIM_TimeBaseStructInit(TIM_TimeBaseInitTypeDef* TIM_TimeBaseInitStruct)
 335:App/STM32F4-Discovery/Libraries/STM32F4xx_StdPeriph_Driver/src/stm32f4xx_tim.c **** {
 610              		.loc 1 335 0
 611              		.cfi_startproc
 612              		@ args = 0, pretend = 0, frame = 8
 613              		@ frame_needed = 1, uses_anonymous_args = 0
 614              		@ link register save eliminated.
 615 0000 80B4     		push	{r7}
 616              	.LCFI6:
 617              		.cfi_def_cfa_offset 4
 618              		.cfi_offset 7, -4
 619 0002 83B0     		sub	sp, sp, #12
 620              	.LCFI7:
 621              		.cfi_def_cfa_offset 16
 622 0004 00AF     		add	r7, sp, #0
 623              	.LCFI8:
 624              		.cfi_def_cfa_register 7
 625 0006 7860     		str	r0, [r7, #4]
 336:App/STM32F4-Discovery/Libraries/STM32F4xx_StdPeriph_Driver/src/stm32f4xx_tim.c ****   /* Set the default configuration */
 337:App/STM32F4-Discovery/Libraries/STM32F4xx_StdPeriph_Driver/src/stm32f4xx_tim.c ****   TIM_TimeBaseInitStruct->TIM_Period = 0xFFFFFFFF;
 626              		.loc 1 337 0
 627 0008 7B68     		ldr	r3, [r7, #4]
 628 000a 4FF0FF32 		mov	r2, #-1
 629 000e 5A60     		str	r2, [r3, #4]
 338:App/STM32F4-Discovery/Libraries/STM32F4xx_StdPeriph_Driver/src/stm32f4xx_tim.c ****   TIM_TimeBaseInitStruct->TIM_Prescaler = 0x0000;
 630              		.loc 1 338 0
 631 0010 7B68     		ldr	r3, [r7, #4]
 632 0012 0022     		movs	r2, #0
 633 0014 1A80     		strh	r2, [r3]	@ movhi
 339:App/STM32F4-Discovery/Libraries/STM32F4xx_StdPeriph_Driver/src/stm32f4xx_tim.c ****   TIM_TimeBaseInitStruct->TIM_ClockDivision = TIM_CKD_DIV1;
 634              		.loc 1 339 0
 635 0016 7B68     		ldr	r3, [r7, #4]
 636 0018 0022     		movs	r2, #0
 637 001a 1A81     		strh	r2, [r3, #8]	@ movhi
 340:App/STM32F4-Discovery/Libraries/STM32F4xx_StdPeriph_Driver/src/stm32f4xx_tim.c ****   TIM_TimeBaseInitStruct->TIM_CounterMode = TIM_CounterMode_Up;
 638              		.loc 1 340 0
 639 001c 7B68     		ldr	r3, [r7, #4]
 640 001e 0022     		movs	r2, #0
 641 0020 5A80     		strh	r2, [r3, #2]	@ movhi
 341:App/STM32F4-Discovery/Libraries/STM32F4xx_StdPeriph_Driver/src/stm32f4xx_tim.c ****   TIM_TimeBaseInitStruct->TIM_RepetitionCounter = 0x0000;
 642              		.loc 1 341 0
 643 0022 7B68     		ldr	r3, [r7, #4]
 644 0024 0022     		movs	r2, #0
 645 0026 9A72     		strb	r2, [r3, #10]
 342:App/STM32F4-Discovery/Libraries/STM32F4xx_StdPeriph_Driver/src/stm32f4xx_tim.c **** }
 646              		.loc 1 342 0
 647 0028 0C37     		adds	r7, r7, #12
 648 002a BD46     		mov	sp, r7
 649              		@ sp needed
 650 002c 5DF8047B 		ldr	r7, [sp], #4
 651 0030 7047     		bx	lr
 652              		.cfi_endproc
 653              	.LFE112:
 655 0032 00BF     		.section	.text.TIM_PrescalerConfig,"ax",%progbits
 656              		.align	2
 657              		.global	TIM_PrescalerConfig
 658              		.thumb
 659              		.thumb_func
 661              	TIM_PrescalerConfig:
 662              	.LFB113:
 343:App/STM32F4-Discovery/Libraries/STM32F4xx_StdPeriph_Driver/src/stm32f4xx_tim.c **** 
 344:App/STM32F4-Discovery/Libraries/STM32F4xx_StdPeriph_Driver/src/stm32f4xx_tim.c **** /**
 345:App/STM32F4-Discovery/Libraries/STM32F4xx_StdPeriph_Driver/src/stm32f4xx_tim.c ****   * @brief  Configures the TIMx Prescaler.
 346:App/STM32F4-Discovery/Libraries/STM32F4xx_StdPeriph_Driver/src/stm32f4xx_tim.c ****   * @param  TIMx: where x can be  1 to 14 to select the TIM peripheral.
 347:App/STM32F4-Discovery/Libraries/STM32F4xx_StdPeriph_Driver/src/stm32f4xx_tim.c ****   * @param  Prescaler: specifies the Prescaler Register value
 348:App/STM32F4-Discovery/Libraries/STM32F4xx_StdPeriph_Driver/src/stm32f4xx_tim.c ****   * @param  TIM_PSCReloadMode: specifies the TIM Prescaler Reload mode
 349:App/STM32F4-Discovery/Libraries/STM32F4xx_StdPeriph_Driver/src/stm32f4xx_tim.c ****   *          This parameter can be one of the following values:
 350:App/STM32F4-Discovery/Libraries/STM32F4xx_StdPeriph_Driver/src/stm32f4xx_tim.c ****   *            @arg TIM_PSCReloadMode_Update: The Prescaler is loaded at the update event.
 351:App/STM32F4-Discovery/Libraries/STM32F4xx_StdPeriph_Driver/src/stm32f4xx_tim.c ****   *            @arg TIM_PSCReloadMode_Immediate: The Prescaler is loaded immediatly.
 352:App/STM32F4-Discovery/Libraries/STM32F4xx_StdPeriph_Driver/src/stm32f4xx_tim.c ****   * @retval None
 353:App/STM32F4-Discovery/Libraries/STM32F4xx_StdPeriph_Driver/src/stm32f4xx_tim.c ****   */
 354:App/STM32F4-Discovery/Libraries/STM32F4xx_StdPeriph_Driver/src/stm32f4xx_tim.c **** void TIM_PrescalerConfig(TIM_TypeDef* TIMx, uint16_t Prescaler, uint16_t TIM_PSCReloadMode)
 355:App/STM32F4-Discovery/Libraries/STM32F4xx_StdPeriph_Driver/src/stm32f4xx_tim.c **** {
 663              		.loc 1 355 0
 664              		.cfi_startproc
 665              		@ args = 0, pretend = 0, frame = 8
 666              		@ frame_needed = 1, uses_anonymous_args = 0
 667 0000 80B5     		push	{r7, lr}
 668              	.LCFI9:
 669              		.cfi_def_cfa_offset 8
 670              		.cfi_offset 7, -8
 671              		.cfi_offset 14, -4
 672 0002 82B0     		sub	sp, sp, #8
 673              	.LCFI10:
 674              		.cfi_def_cfa_offset 16
 675 0004 00AF     		add	r7, sp, #0
 676              	.LCFI11:
 677              		.cfi_def_cfa_register 7
 678 0006 7860     		str	r0, [r7, #4]
 679 0008 1346     		mov	r3, r2
 680 000a 0A46     		mov	r2, r1	@ movhi
 681 000c 7A80     		strh	r2, [r7, #2]	@ movhi
 682 000e 3B80     		strh	r3, [r7]	@ movhi
 356:App/STM32F4-Discovery/Libraries/STM32F4xx_StdPeriph_Driver/src/stm32f4xx_tim.c ****   /* Check the parameters */
 357:App/STM32F4-Discovery/Libraries/STM32F4xx_StdPeriph_Driver/src/stm32f4xx_tim.c ****   assert_param(IS_TIM_ALL_PERIPH(TIMx));
 683              		.loc 1 357 0
 684 0010 7A68     		ldr	r2, [r7, #4]
 685 0012 284B     		ldr	r3, .L34
 686 0014 9A42     		cmp	r2, r3
 687 0016 38D0     		beq	.L32
 688              		.loc 1 357 0 is_stmt 0 discriminator 1
 689 0018 7B68     		ldr	r3, [r7, #4]
 690 001a B3F1804F 		cmp	r3, #1073741824
 691 001e 34D0     		beq	.L32
 692 0020 7A68     		ldr	r2, [r7, #4]
 693 0022 254B     		ldr	r3, .L34+4
 694 0024 9A42     		cmp	r2, r3
 695 0026 30D0     		beq	.L32
 696 0028 7A68     		ldr	r2, [r7, #4]
 697 002a 244B     		ldr	r3, .L34+8
 698 002c 9A42     		cmp	r2, r3
 699 002e 2CD0     		beq	.L32
 700 0030 7A68     		ldr	r2, [r7, #4]
 701 0032 234B     		ldr	r3, .L34+12
 702 0034 9A42     		cmp	r2, r3
 703 0036 28D0     		beq	.L32
 704 0038 7A68     		ldr	r2, [r7, #4]
 705 003a 224B     		ldr	r3, .L34+16
 706 003c 9A42     		cmp	r2, r3
 707 003e 24D0     		beq	.L32
 708 0040 7A68     		ldr	r2, [r7, #4]
 709 0042 214B     		ldr	r3, .L34+20
 710 0044 9A42     		cmp	r2, r3
 711 0046 20D0     		beq	.L32
 712 0048 7A68     		ldr	r2, [r7, #4]
 713 004a 204B     		ldr	r3, .L34+24
 714 004c 9A42     		cmp	r2, r3
 715 004e 1CD0     		beq	.L32
 716 0050 7A68     		ldr	r2, [r7, #4]
 717 0052 1F4B     		ldr	r3, .L34+28
 718 0054 9A42     		cmp	r2, r3
 719 0056 18D0     		beq	.L32
 720 0058 7A68     		ldr	r2, [r7, #4]
 721 005a 1E4B     		ldr	r3, .L34+32
 722 005c 9A42     		cmp	r2, r3
 723 005e 14D0     		beq	.L32
 724 0060 7A68     		ldr	r2, [r7, #4]
 725 0062 1D4B     		ldr	r3, .L34+36
 726 0064 9A42     		cmp	r2, r3
 727 0066 10D0     		beq	.L32
 728 0068 7A68     		ldr	r2, [r7, #4]
 729 006a 1C4B     		ldr	r3, .L34+40
 730 006c 9A42     		cmp	r2, r3
 731 006e 0CD0     		beq	.L32
 732 0070 7A68     		ldr	r2, [r7, #4]
 733 0072 1B4B     		ldr	r3, .L34+44
 734 0074 9A42     		cmp	r2, r3
 735 0076 08D0     		beq	.L32
 736 0078 7A68     		ldr	r2, [r7, #4]
 737 007a 1A4B     		ldr	r3, .L34+48
 738 007c 9A42     		cmp	r2, r3
 739 007e 04D0     		beq	.L32
 740 0080 1948     		ldr	r0, .L34+52
 741 0082 40F26511 		movw	r1, #357
 742 0086 FFF7FEFF 		bl	assert_failed
 743              	.L32:
 358:App/STM32F4-Discovery/Libraries/STM32F4xx_StdPeriph_Driver/src/stm32f4xx_tim.c ****   assert_param(IS_TIM_PRESCALER_RELOAD(TIM_PSCReloadMode));
 744              		.loc 1 358 0 is_stmt 1
 745 008a 3B88     		ldrh	r3, [r7]
 746 008c 002B     		cmp	r3, #0
 747 008e 07D0     		beq	.L33
 748              		.loc 1 358 0 is_stmt 0 discriminator 1
 749 0090 3B88     		ldrh	r3, [r7]
 750 0092 012B     		cmp	r3, #1
 751 0094 04D0     		beq	.L33
 752 0096 1448     		ldr	r0, .L34+52
 753 0098 4FF4B371 		mov	r1, #358
 754 009c FFF7FEFF 		bl	assert_failed
 755              	.L33:
 359:App/STM32F4-Discovery/Libraries/STM32F4xx_StdPeriph_Driver/src/stm32f4xx_tim.c ****   /* Set the Prescaler value */
 360:App/STM32F4-Discovery/Libraries/STM32F4xx_StdPeriph_Driver/src/stm32f4xx_tim.c ****   TIMx->PSC = Prescaler;
 756              		.loc 1 360 0 is_stmt 1
 757 00a0 7B68     		ldr	r3, [r7, #4]
 758 00a2 7A88     		ldrh	r2, [r7, #2]	@ movhi
 759 00a4 1A85     		strh	r2, [r3, #40]	@ movhi
 361:App/STM32F4-Discovery/Libraries/STM32F4xx_StdPeriph_Driver/src/stm32f4xx_tim.c ****   /* Set or reset the UG Bit */
 362:App/STM32F4-Discovery/Libraries/STM32F4xx_StdPeriph_Driver/src/stm32f4xx_tim.c ****   TIMx->EGR = TIM_PSCReloadMode;
 760              		.loc 1 362 0
 761 00a6 7B68     		ldr	r3, [r7, #4]
 762 00a8 3A88     		ldrh	r2, [r7]	@ movhi
 763 00aa 9A82     		strh	r2, [r3, #20]	@ movhi
 363:App/STM32F4-Discovery/Libraries/STM32F4xx_StdPeriph_Driver/src/stm32f4xx_tim.c **** }
 764              		.loc 1 363 0
 765 00ac 0837     		adds	r7, r7, #8
 766 00ae BD46     		mov	sp, r7
 767              		@ sp needed
 768 00b0 80BD     		pop	{r7, pc}
 769              	.L35:
 770 00b2 00BF     		.align	2
 771              	.L34:
 772 00b4 00000140 		.word	1073807360
 773 00b8 00040040 		.word	1073742848
 774 00bc 00080040 		.word	1073743872
 775 00c0 000C0040 		.word	1073744896
 776 00c4 00100040 		.word	1073745920
 777 00c8 00140040 		.word	1073746944
 778 00cc 00040140 		.word	1073808384
 779 00d0 00400140 		.word	1073823744
 780 00d4 00440140 		.word	1073824768
 781 00d8 00480140 		.word	1073825792
 782 00dc 00180040 		.word	1073747968
 783 00e0 001C0040 		.word	1073748992
 784 00e4 00200040 		.word	1073750016
 785 00e8 00000000 		.word	.LC0
 786              		.cfi_endproc
 787              	.LFE113:
 789              		.section	.text.TIM_CounterModeConfig,"ax",%progbits
 790              		.align	2
 791              		.global	TIM_CounterModeConfig
 792              		.thumb
 793              		.thumb_func
 795              	TIM_CounterModeConfig:
 796              	.LFB114:
 364:App/STM32F4-Discovery/Libraries/STM32F4xx_StdPeriph_Driver/src/stm32f4xx_tim.c **** 
 365:App/STM32F4-Discovery/Libraries/STM32F4xx_StdPeriph_Driver/src/stm32f4xx_tim.c **** /**
 366:App/STM32F4-Discovery/Libraries/STM32F4xx_StdPeriph_Driver/src/stm32f4xx_tim.c ****   * @brief  Specifies the TIMx Counter Mode to be used.
 367:App/STM32F4-Discovery/Libraries/STM32F4xx_StdPeriph_Driver/src/stm32f4xx_tim.c ****   * @param  TIMx: where x can be  1, 2, 3, 4, 5 or 8 to select the TIM peripheral.
 368:App/STM32F4-Discovery/Libraries/STM32F4xx_StdPeriph_Driver/src/stm32f4xx_tim.c ****   * @param  TIM_CounterMode: specifies the Counter Mode to be used
 369:App/STM32F4-Discovery/Libraries/STM32F4xx_StdPeriph_Driver/src/stm32f4xx_tim.c ****   *          This parameter can be one of the following values:
 370:App/STM32F4-Discovery/Libraries/STM32F4xx_StdPeriph_Driver/src/stm32f4xx_tim.c ****   *            @arg TIM_CounterMode_Up: TIM Up Counting Mode
 371:App/STM32F4-Discovery/Libraries/STM32F4xx_StdPeriph_Driver/src/stm32f4xx_tim.c ****   *            @arg TIM_CounterMode_Down: TIM Down Counting Mode
 372:App/STM32F4-Discovery/Libraries/STM32F4xx_StdPeriph_Driver/src/stm32f4xx_tim.c ****   *            @arg TIM_CounterMode_CenterAligned1: TIM Center Aligned Mode1
 373:App/STM32F4-Discovery/Libraries/STM32F4xx_StdPeriph_Driver/src/stm32f4xx_tim.c ****   *            @arg TIM_CounterMode_CenterAligned2: TIM Center Aligned Mode2
 374:App/STM32F4-Discovery/Libraries/STM32F4xx_StdPeriph_Driver/src/stm32f4xx_tim.c ****   *            @arg TIM_CounterMode_CenterAligned3: TIM Center Aligned Mode3
 375:App/STM32F4-Discovery/Libraries/STM32F4xx_StdPeriph_Driver/src/stm32f4xx_tim.c ****   * @retval None
 376:App/STM32F4-Discovery/Libraries/STM32F4xx_StdPeriph_Driver/src/stm32f4xx_tim.c ****   */
 377:App/STM32F4-Discovery/Libraries/STM32F4xx_StdPeriph_Driver/src/stm32f4xx_tim.c **** void TIM_CounterModeConfig(TIM_TypeDef* TIMx, uint16_t TIM_CounterMode)
 378:App/STM32F4-Discovery/Libraries/STM32F4xx_StdPeriph_Driver/src/stm32f4xx_tim.c **** {
 797              		.loc 1 378 0
 798              		.cfi_startproc
 799              		@ args = 0, pretend = 0, frame = 16
 800              		@ frame_needed = 1, uses_anonymous_args = 0
 801 0000 80B5     		push	{r7, lr}
 802              	.LCFI12:
 803              		.cfi_def_cfa_offset 8
 804              		.cfi_offset 7, -8
 805              		.cfi_offset 14, -4
 806 0002 84B0     		sub	sp, sp, #16
 807              	.LCFI13:
 808              		.cfi_def_cfa_offset 24
 809 0004 00AF     		add	r7, sp, #0
 810              	.LCFI14:
 811              		.cfi_def_cfa_register 7
 812 0006 7860     		str	r0, [r7, #4]
 813 0008 0B46     		mov	r3, r1
 814 000a 7B80     		strh	r3, [r7, #2]	@ movhi
 379:App/STM32F4-Discovery/Libraries/STM32F4xx_StdPeriph_Driver/src/stm32f4xx_tim.c ****   uint16_t tmpcr1 = 0;
 815              		.loc 1 379 0
 816 000c 0023     		movs	r3, #0
 817 000e FB81     		strh	r3, [r7, #14]	@ movhi
 380:App/STM32F4-Discovery/Libraries/STM32F4xx_StdPeriph_Driver/src/stm32f4xx_tim.c **** 
 381:App/STM32F4-Discovery/Libraries/STM32F4xx_StdPeriph_Driver/src/stm32f4xx_tim.c ****   /* Check the parameters */
 382:App/STM32F4-Discovery/Libraries/STM32F4xx_StdPeriph_Driver/src/stm32f4xx_tim.c ****   assert_param(IS_TIM_LIST3_PERIPH(TIMx));
 818              		.loc 1 382 0
 819 0010 7A68     		ldr	r2, [r7, #4]
 820 0012 204B     		ldr	r3, .L39
 821 0014 9A42     		cmp	r2, r3
 822 0016 18D0     		beq	.L37
 823              		.loc 1 382 0 is_stmt 0 discriminator 1
 824 0018 7B68     		ldr	r3, [r7, #4]
 825 001a B3F1804F 		cmp	r3, #1073741824
 826 001e 14D0     		beq	.L37
 827 0020 7A68     		ldr	r2, [r7, #4]
 828 0022 1D4B     		ldr	r3, .L39+4
 829 0024 9A42     		cmp	r2, r3
 830 0026 10D0     		beq	.L37
 831 0028 7A68     		ldr	r2, [r7, #4]
 832 002a 1C4B     		ldr	r3, .L39+8
 833 002c 9A42     		cmp	r2, r3
 834 002e 0CD0     		beq	.L37
 835 0030 7A68     		ldr	r2, [r7, #4]
 836 0032 1B4B     		ldr	r3, .L39+12
 837 0034 9A42     		cmp	r2, r3
 838 0036 08D0     		beq	.L37
 839 0038 7A68     		ldr	r2, [r7, #4]
 840 003a 1A4B     		ldr	r3, .L39+16
 841 003c 9A42     		cmp	r2, r3
 842 003e 04D0     		beq	.L37
 843 0040 1948     		ldr	r0, .L39+20
 844 0042 4FF4BF71 		mov	r1, #382
 845 0046 FFF7FEFF 		bl	assert_failed
 846              	.L37:
 383:App/STM32F4-Discovery/Libraries/STM32F4xx_StdPeriph_Driver/src/stm32f4xx_tim.c ****   assert_param(IS_TIM_COUNTER_MODE(TIM_CounterMode));
 847              		.loc 1 383 0 is_stmt 1
 848 004a 7B88     		ldrh	r3, [r7, #2]
 849 004c 002B     		cmp	r3, #0
 850 004e 10D0     		beq	.L38
 851              		.loc 1 383 0 is_stmt 0 discriminator 1
 852 0050 7B88     		ldrh	r3, [r7, #2]
 853 0052 102B     		cmp	r3, #16
 854 0054 0DD0     		beq	.L38
 855 0056 7B88     		ldrh	r3, [r7, #2]
 856 0058 202B     		cmp	r3, #32
 857 005a 0AD0     		beq	.L38
 858 005c 7B88     		ldrh	r3, [r7, #2]
 859 005e 402B     		cmp	r3, #64
 860 0060 07D0     		beq	.L38
 861 0062 7B88     		ldrh	r3, [r7, #2]
 862 0064 602B     		cmp	r3, #96
 863 0066 04D0     		beq	.L38
 864 0068 0F48     		ldr	r0, .L39+20
 865 006a 40F27F11 		movw	r1, #383
 866 006e FFF7FEFF 		bl	assert_failed
 867              	.L38:
 384:App/STM32F4-Discovery/Libraries/STM32F4xx_StdPeriph_Driver/src/stm32f4xx_tim.c **** 
 385:App/STM32F4-Discovery/Libraries/STM32F4xx_StdPeriph_Driver/src/stm32f4xx_tim.c ****   tmpcr1 = TIMx->CR1;
 868              		.loc 1 385 0 is_stmt 1
 869 0072 7B68     		ldr	r3, [r7, #4]
 870 0074 1B88     		ldrh	r3, [r3]	@ movhi
 871 0076 FB81     		strh	r3, [r7, #14]	@ movhi
 386:App/STM32F4-Discovery/Libraries/STM32F4xx_StdPeriph_Driver/src/stm32f4xx_tim.c **** 
 387:App/STM32F4-Discovery/Libraries/STM32F4xx_StdPeriph_Driver/src/stm32f4xx_tim.c ****   /* Reset the CMS and DIR Bits */
 388:App/STM32F4-Discovery/Libraries/STM32F4xx_StdPeriph_Driver/src/stm32f4xx_tim.c ****   tmpcr1 &= (uint16_t)~(TIM_CR1_DIR | TIM_CR1_CMS);
 872              		.loc 1 388 0
 873 0078 FB89     		ldrh	r3, [r7, #14]	@ movhi
 874 007a 23F07003 		bic	r3, r3, #112
 875 007e FB81     		strh	r3, [r7, #14]	@ movhi
 389:App/STM32F4-Discovery/Libraries/STM32F4xx_StdPeriph_Driver/src/stm32f4xx_tim.c **** 
 390:App/STM32F4-Discovery/Libraries/STM32F4xx_StdPeriph_Driver/src/stm32f4xx_tim.c ****   /* Set the Counter Mode */
 391:App/STM32F4-Discovery/Libraries/STM32F4xx_StdPeriph_Driver/src/stm32f4xx_tim.c ****   tmpcr1 |= TIM_CounterMode;
 876              		.loc 1 391 0
 877 0080 FA89     		ldrh	r2, [r7, #14]	@ movhi
 878 0082 7B88     		ldrh	r3, [r7, #2]	@ movhi
 879 0084 1343     		orrs	r3, r3, r2
 880 0086 FB81     		strh	r3, [r7, #14]	@ movhi
 392:App/STM32F4-Discovery/Libraries/STM32F4xx_StdPeriph_Driver/src/stm32f4xx_tim.c **** 
 393:App/STM32F4-Discovery/Libraries/STM32F4xx_StdPeriph_Driver/src/stm32f4xx_tim.c ****   /* Write to TIMx CR1 register */
 394:App/STM32F4-Discovery/Libraries/STM32F4xx_StdPeriph_Driver/src/stm32f4xx_tim.c ****   TIMx->CR1 = tmpcr1;
 881              		.loc 1 394 0
 882 0088 7B68     		ldr	r3, [r7, #4]
 883 008a FA89     		ldrh	r2, [r7, #14]	@ movhi
 884 008c 1A80     		strh	r2, [r3]	@ movhi
 395:App/STM32F4-Discovery/Libraries/STM32F4xx_StdPeriph_Driver/src/stm32f4xx_tim.c **** }
 885              		.loc 1 395 0
 886 008e 1037     		adds	r7, r7, #16
 887 0090 BD46     		mov	sp, r7
 888              		@ sp needed
 889 0092 80BD     		pop	{r7, pc}
 890              	.L40:
 891              		.align	2
 892              	.L39:
 893 0094 00000140 		.word	1073807360
 894 0098 00040040 		.word	1073742848
 895 009c 00080040 		.word	1073743872
 896 00a0 000C0040 		.word	1073744896
 897 00a4 00040140 		.word	1073808384
 898 00a8 00000000 		.word	.LC0
 899              		.cfi_endproc
 900              	.LFE114:
 902              		.section	.text.TIM_SetCounter,"ax",%progbits
 903              		.align	2
 904              		.global	TIM_SetCounter
 905              		.thumb
 906              		.thumb_func
 908              	TIM_SetCounter:
 909              	.LFB115:
 396:App/STM32F4-Discovery/Libraries/STM32F4xx_StdPeriph_Driver/src/stm32f4xx_tim.c **** 
 397:App/STM32F4-Discovery/Libraries/STM32F4xx_StdPeriph_Driver/src/stm32f4xx_tim.c **** /**
 398:App/STM32F4-Discovery/Libraries/STM32F4xx_StdPeriph_Driver/src/stm32f4xx_tim.c ****   * @brief  Sets the TIMx Counter Register value
 399:App/STM32F4-Discovery/Libraries/STM32F4xx_StdPeriph_Driver/src/stm32f4xx_tim.c ****   * @param  TIMx: where x can be 1 to 14 to select the TIM peripheral.
 400:App/STM32F4-Discovery/Libraries/STM32F4xx_StdPeriph_Driver/src/stm32f4xx_tim.c ****   * @param  Counter: specifies the Counter register new value.
 401:App/STM32F4-Discovery/Libraries/STM32F4xx_StdPeriph_Driver/src/stm32f4xx_tim.c ****   * @retval None
 402:App/STM32F4-Discovery/Libraries/STM32F4xx_StdPeriph_Driver/src/stm32f4xx_tim.c ****   */
 403:App/STM32F4-Discovery/Libraries/STM32F4xx_StdPeriph_Driver/src/stm32f4xx_tim.c **** void TIM_SetCounter(TIM_TypeDef* TIMx, uint32_t Counter)
 404:App/STM32F4-Discovery/Libraries/STM32F4xx_StdPeriph_Driver/src/stm32f4xx_tim.c **** {
 910              		.loc 1 404 0
 911              		.cfi_startproc
 912              		@ args = 0, pretend = 0, frame = 8
 913              		@ frame_needed = 1, uses_anonymous_args = 0
 914 0000 80B5     		push	{r7, lr}
 915              	.LCFI15:
 916              		.cfi_def_cfa_offset 8
 917              		.cfi_offset 7, -8
 918              		.cfi_offset 14, -4
 919 0002 82B0     		sub	sp, sp, #8
 920              	.LCFI16:
 921              		.cfi_def_cfa_offset 16
 922 0004 00AF     		add	r7, sp, #0
 923              	.LCFI17:
 924              		.cfi_def_cfa_register 7
 925 0006 7860     		str	r0, [r7, #4]
 926 0008 3960     		str	r1, [r7]
 405:App/STM32F4-Discovery/Libraries/STM32F4xx_StdPeriph_Driver/src/stm32f4xx_tim.c ****   /* Check the parameters */
 406:App/STM32F4-Discovery/Libraries/STM32F4xx_StdPeriph_Driver/src/stm32f4xx_tim.c ****    assert_param(IS_TIM_ALL_PERIPH(TIMx));
 927              		.loc 1 406 0
 928 000a 7A68     		ldr	r2, [r7, #4]
 929 000c 204B     		ldr	r3, .L43
 930 000e 9A42     		cmp	r2, r3
 931 0010 38D0     		beq	.L42
 932              		.loc 1 406 0 is_stmt 0 discriminator 1
 933 0012 7B68     		ldr	r3, [r7, #4]
 934 0014 B3F1804F 		cmp	r3, #1073741824
 935 0018 34D0     		beq	.L42
 936 001a 7A68     		ldr	r2, [r7, #4]
 937 001c 1D4B     		ldr	r3, .L43+4
 938 001e 9A42     		cmp	r2, r3
 939 0020 30D0     		beq	.L42
 940 0022 7A68     		ldr	r2, [r7, #4]
 941 0024 1C4B     		ldr	r3, .L43+8
 942 0026 9A42     		cmp	r2, r3
 943 0028 2CD0     		beq	.L42
 944 002a 7A68     		ldr	r2, [r7, #4]
 945 002c 1B4B     		ldr	r3, .L43+12
 946 002e 9A42     		cmp	r2, r3
 947 0030 28D0     		beq	.L42
 948 0032 7A68     		ldr	r2, [r7, #4]
 949 0034 1A4B     		ldr	r3, .L43+16
 950 0036 9A42     		cmp	r2, r3
 951 0038 24D0     		beq	.L42
 952 003a 7A68     		ldr	r2, [r7, #4]
 953 003c 194B     		ldr	r3, .L43+20
 954 003e 9A42     		cmp	r2, r3
 955 0040 20D0     		beq	.L42
 956 0042 7A68     		ldr	r2, [r7, #4]
 957 0044 184B     		ldr	r3, .L43+24
 958 0046 9A42     		cmp	r2, r3
 959 0048 1CD0     		beq	.L42
 960 004a 7A68     		ldr	r2, [r7, #4]
 961 004c 174B     		ldr	r3, .L43+28
 962 004e 9A42     		cmp	r2, r3
 963 0050 18D0     		beq	.L42
 964 0052 7A68     		ldr	r2, [r7, #4]
 965 0054 164B     		ldr	r3, .L43+32
 966 0056 9A42     		cmp	r2, r3
 967 0058 14D0     		beq	.L42
 968 005a 7A68     		ldr	r2, [r7, #4]
 969 005c 154B     		ldr	r3, .L43+36
 970 005e 9A42     		cmp	r2, r3
 971 0060 10D0     		beq	.L42
 972 0062 7A68     		ldr	r2, [r7, #4]
 973 0064 144B     		ldr	r3, .L43+40
 974 0066 9A42     		cmp	r2, r3
 975 0068 0CD0     		beq	.L42
 976 006a 7A68     		ldr	r2, [r7, #4]
 977 006c 134B     		ldr	r3, .L43+44
 978 006e 9A42     		cmp	r2, r3
 979 0070 08D0     		beq	.L42
 980 0072 7A68     		ldr	r2, [r7, #4]
 981 0074 124B     		ldr	r3, .L43+48
 982 0076 9A42     		cmp	r2, r3
 983 0078 04D0     		beq	.L42
 984 007a 1248     		ldr	r0, .L43+52
 985 007c 4FF4CB71 		mov	r1, #406
 986 0080 FFF7FEFF 		bl	assert_failed
 987              	.L42:
 407:App/STM32F4-Discovery/Libraries/STM32F4xx_StdPeriph_Driver/src/stm32f4xx_tim.c **** 
 408:App/STM32F4-Discovery/Libraries/STM32F4xx_StdPeriph_Driver/src/stm32f4xx_tim.c ****   /* Set the Counter Register value */
 409:App/STM32F4-Discovery/Libraries/STM32F4xx_StdPeriph_Driver/src/stm32f4xx_tim.c ****   TIMx->CNT = Counter;
 988              		.loc 1 409 0 is_stmt 1
 989 0084 7B68     		ldr	r3, [r7, #4]
 990 0086 3A68     		ldr	r2, [r7]
 991 0088 5A62     		str	r2, [r3, #36]
 410:App/STM32F4-Discovery/Libraries/STM32F4xx_StdPeriph_Driver/src/stm32f4xx_tim.c **** }
 992              		.loc 1 410 0
 993 008a 0837     		adds	r7, r7, #8
 994 008c BD46     		mov	sp, r7
 995              		@ sp needed
 996 008e 80BD     		pop	{r7, pc}
 997              	.L44:
 998              		.align	2
 999              	.L43:
 1000 0090 00000140 		.word	1073807360
 1001 0094 00040040 		.word	1073742848
 1002 0098 00080040 		.word	1073743872
 1003 009c 000C0040 		.word	1073744896
 1004 00a0 00100040 		.word	1073745920
 1005 00a4 00140040 		.word	1073746944
 1006 00a8 00040140 		.word	1073808384
 1007 00ac 00400140 		.word	1073823744
 1008 00b0 00440140 		.word	1073824768
 1009 00b4 00480140 		.word	1073825792
 1010 00b8 00180040 		.word	1073747968
 1011 00bc 001C0040 		.word	1073748992
 1012 00c0 00200040 		.word	1073750016
 1013 00c4 00000000 		.word	.LC0
 1014              		.cfi_endproc
 1015              	.LFE115:
 1017              		.section	.text.TIM_SetAutoreload,"ax",%progbits
 1018              		.align	2
 1019              		.global	TIM_SetAutoreload
 1020              		.thumb
 1021              		.thumb_func
 1023              	TIM_SetAutoreload:
 1024              	.LFB116:
 411:App/STM32F4-Discovery/Libraries/STM32F4xx_StdPeriph_Driver/src/stm32f4xx_tim.c **** 
 412:App/STM32F4-Discovery/Libraries/STM32F4xx_StdPeriph_Driver/src/stm32f4xx_tim.c **** /**
 413:App/STM32F4-Discovery/Libraries/STM32F4xx_StdPeriph_Driver/src/stm32f4xx_tim.c ****   * @brief  Sets the TIMx Autoreload Register value
 414:App/STM32F4-Discovery/Libraries/STM32F4xx_StdPeriph_Driver/src/stm32f4xx_tim.c ****   * @param  TIMx: where x can be 1 to 14 to select the TIM peripheral.
 415:App/STM32F4-Discovery/Libraries/STM32F4xx_StdPeriph_Driver/src/stm32f4xx_tim.c ****   * @param  Autoreload: specifies the Autoreload register new value.
 416:App/STM32F4-Discovery/Libraries/STM32F4xx_StdPeriph_Driver/src/stm32f4xx_tim.c ****   * @retval None
 417:App/STM32F4-Discovery/Libraries/STM32F4xx_StdPeriph_Driver/src/stm32f4xx_tim.c ****   */
 418:App/STM32F4-Discovery/Libraries/STM32F4xx_StdPeriph_Driver/src/stm32f4xx_tim.c **** void TIM_SetAutoreload(TIM_TypeDef* TIMx, uint32_t Autoreload)
 419:App/STM32F4-Discovery/Libraries/STM32F4xx_StdPeriph_Driver/src/stm32f4xx_tim.c **** {
 1025              		.loc 1 419 0
 1026              		.cfi_startproc
 1027              		@ args = 0, pretend = 0, frame = 8
 1028              		@ frame_needed = 1, uses_anonymous_args = 0
 1029 0000 80B5     		push	{r7, lr}
 1030              	.LCFI18:
 1031              		.cfi_def_cfa_offset 8
 1032              		.cfi_offset 7, -8
 1033              		.cfi_offset 14, -4
 1034 0002 82B0     		sub	sp, sp, #8
 1035              	.LCFI19:
 1036              		.cfi_def_cfa_offset 16
 1037 0004 00AF     		add	r7, sp, #0
 1038              	.LCFI20:
 1039              		.cfi_def_cfa_register 7
 1040 0006 7860     		str	r0, [r7, #4]
 1041 0008 3960     		str	r1, [r7]
 420:App/STM32F4-Discovery/Libraries/STM32F4xx_StdPeriph_Driver/src/stm32f4xx_tim.c ****   /* Check the parameters */
 421:App/STM32F4-Discovery/Libraries/STM32F4xx_StdPeriph_Driver/src/stm32f4xx_tim.c ****   assert_param(IS_TIM_ALL_PERIPH(TIMx));
 1042              		.loc 1 421 0
 1043 000a 7A68     		ldr	r2, [r7, #4]
 1044 000c 204B     		ldr	r3, .L47
 1045 000e 9A42     		cmp	r2, r3
 1046 0010 38D0     		beq	.L46
 1047              		.loc 1 421 0 is_stmt 0 discriminator 1
 1048 0012 7B68     		ldr	r3, [r7, #4]
 1049 0014 B3F1804F 		cmp	r3, #1073741824
 1050 0018 34D0     		beq	.L46
 1051 001a 7A68     		ldr	r2, [r7, #4]
 1052 001c 1D4B     		ldr	r3, .L47+4
 1053 001e 9A42     		cmp	r2, r3
 1054 0020 30D0     		beq	.L46
 1055 0022 7A68     		ldr	r2, [r7, #4]
 1056 0024 1C4B     		ldr	r3, .L47+8
 1057 0026 9A42     		cmp	r2, r3
 1058 0028 2CD0     		beq	.L46
 1059 002a 7A68     		ldr	r2, [r7, #4]
 1060 002c 1B4B     		ldr	r3, .L47+12
 1061 002e 9A42     		cmp	r2, r3
 1062 0030 28D0     		beq	.L46
 1063 0032 7A68     		ldr	r2, [r7, #4]
 1064 0034 1A4B     		ldr	r3, .L47+16
 1065 0036 9A42     		cmp	r2, r3
 1066 0038 24D0     		beq	.L46
 1067 003a 7A68     		ldr	r2, [r7, #4]
 1068 003c 194B     		ldr	r3, .L47+20
 1069 003e 9A42     		cmp	r2, r3
 1070 0040 20D0     		beq	.L46
 1071 0042 7A68     		ldr	r2, [r7, #4]
 1072 0044 184B     		ldr	r3, .L47+24
 1073 0046 9A42     		cmp	r2, r3
 1074 0048 1CD0     		beq	.L46
 1075 004a 7A68     		ldr	r2, [r7, #4]
 1076 004c 174B     		ldr	r3, .L47+28
 1077 004e 9A42     		cmp	r2, r3
 1078 0050 18D0     		beq	.L46
 1079 0052 7A68     		ldr	r2, [r7, #4]
 1080 0054 164B     		ldr	r3, .L47+32
 1081 0056 9A42     		cmp	r2, r3
 1082 0058 14D0     		beq	.L46
 1083 005a 7A68     		ldr	r2, [r7, #4]
 1084 005c 154B     		ldr	r3, .L47+36
 1085 005e 9A42     		cmp	r2, r3
 1086 0060 10D0     		beq	.L46
 1087 0062 7A68     		ldr	r2, [r7, #4]
 1088 0064 144B     		ldr	r3, .L47+40
 1089 0066 9A42     		cmp	r2, r3
 1090 0068 0CD0     		beq	.L46
 1091 006a 7A68     		ldr	r2, [r7, #4]
 1092 006c 134B     		ldr	r3, .L47+44
 1093 006e 9A42     		cmp	r2, r3
 1094 0070 08D0     		beq	.L46
 1095 0072 7A68     		ldr	r2, [r7, #4]
 1096 0074 124B     		ldr	r3, .L47+48
 1097 0076 9A42     		cmp	r2, r3
 1098 0078 04D0     		beq	.L46
 1099 007a 1248     		ldr	r0, .L47+52
 1100 007c 40F2A511 		movw	r1, #421
 1101 0080 FFF7FEFF 		bl	assert_failed
 1102              	.L46:
 422:App/STM32F4-Discovery/Libraries/STM32F4xx_StdPeriph_Driver/src/stm32f4xx_tim.c ****   
 423:App/STM32F4-Discovery/Libraries/STM32F4xx_StdPeriph_Driver/src/stm32f4xx_tim.c ****   /* Set the Autoreload Register value */
 424:App/STM32F4-Discovery/Libraries/STM32F4xx_StdPeriph_Driver/src/stm32f4xx_tim.c ****   TIMx->ARR = Autoreload;
 1103              		.loc 1 424 0 is_stmt 1
 1104 0084 7B68     		ldr	r3, [r7, #4]
 1105 0086 3A68     		ldr	r2, [r7]
 1106 0088 DA62     		str	r2, [r3, #44]
 425:App/STM32F4-Discovery/Libraries/STM32F4xx_StdPeriph_Driver/src/stm32f4xx_tim.c **** }
 1107              		.loc 1 425 0
 1108 008a 0837     		adds	r7, r7, #8
 1109 008c BD46     		mov	sp, r7
 1110              		@ sp needed
 1111 008e 80BD     		pop	{r7, pc}
 1112              	.L48:
 1113              		.align	2
 1114              	.L47:
 1115 0090 00000140 		.word	1073807360
 1116 0094 00040040 		.word	1073742848
 1117 0098 00080040 		.word	1073743872
 1118 009c 000C0040 		.word	1073744896
 1119 00a0 00100040 		.word	1073745920
 1120 00a4 00140040 		.word	1073746944
 1121 00a8 00040140 		.word	1073808384
 1122 00ac 00400140 		.word	1073823744
 1123 00b0 00440140 		.word	1073824768
 1124 00b4 00480140 		.word	1073825792
 1125 00b8 00180040 		.word	1073747968
 1126 00bc 001C0040 		.word	1073748992
 1127 00c0 00200040 		.word	1073750016
 1128 00c4 00000000 		.word	.LC0
 1129              		.cfi_endproc
 1130              	.LFE116:
 1132              		.section	.text.TIM_GetCounter,"ax",%progbits
 1133              		.align	2
 1134              		.global	TIM_GetCounter
 1135              		.thumb
 1136              		.thumb_func
 1138              	TIM_GetCounter:
 1139              	.LFB117:
 426:App/STM32F4-Discovery/Libraries/STM32F4xx_StdPeriph_Driver/src/stm32f4xx_tim.c **** 
 427:App/STM32F4-Discovery/Libraries/STM32F4xx_StdPeriph_Driver/src/stm32f4xx_tim.c **** /**
 428:App/STM32F4-Discovery/Libraries/STM32F4xx_StdPeriph_Driver/src/stm32f4xx_tim.c ****   * @brief  Gets the TIMx Counter value.
 429:App/STM32F4-Discovery/Libraries/STM32F4xx_StdPeriph_Driver/src/stm32f4xx_tim.c ****   * @param  TIMx: where x can be 1 to 14 to select the TIM peripheral.
 430:App/STM32F4-Discovery/Libraries/STM32F4xx_StdPeriph_Driver/src/stm32f4xx_tim.c ****   * @retval Counter Register value
 431:App/STM32F4-Discovery/Libraries/STM32F4xx_StdPeriph_Driver/src/stm32f4xx_tim.c ****   */
 432:App/STM32F4-Discovery/Libraries/STM32F4xx_StdPeriph_Driver/src/stm32f4xx_tim.c **** uint32_t TIM_GetCounter(TIM_TypeDef* TIMx)
 433:App/STM32F4-Discovery/Libraries/STM32F4xx_StdPeriph_Driver/src/stm32f4xx_tim.c **** {
 1140              		.loc 1 433 0
 1141              		.cfi_startproc
 1142              		@ args = 0, pretend = 0, frame = 8
 1143              		@ frame_needed = 1, uses_anonymous_args = 0
 1144 0000 80B5     		push	{r7, lr}
 1145              	.LCFI21:
 1146              		.cfi_def_cfa_offset 8
 1147              		.cfi_offset 7, -8
 1148              		.cfi_offset 14, -4
 1149 0002 82B0     		sub	sp, sp, #8
 1150              	.LCFI22:
 1151              		.cfi_def_cfa_offset 16
 1152 0004 00AF     		add	r7, sp, #0
 1153              	.LCFI23:
 1154              		.cfi_def_cfa_register 7
 1155 0006 7860     		str	r0, [r7, #4]
 434:App/STM32F4-Discovery/Libraries/STM32F4xx_StdPeriph_Driver/src/stm32f4xx_tim.c ****   /* Check the parameters */
 435:App/STM32F4-Discovery/Libraries/STM32F4xx_StdPeriph_Driver/src/stm32f4xx_tim.c ****   assert_param(IS_TIM_ALL_PERIPH(TIMx));
 1156              		.loc 1 435 0
 1157 0008 7A68     		ldr	r2, [r7, #4]
 1158 000a 214B     		ldr	r3, .L52
 1159 000c 9A42     		cmp	r2, r3
 1160 000e 38D0     		beq	.L50
 1161              		.loc 1 435 0 is_stmt 0 discriminator 1
 1162 0010 7B68     		ldr	r3, [r7, #4]
 1163 0012 B3F1804F 		cmp	r3, #1073741824
 1164 0016 34D0     		beq	.L50
 1165 0018 7A68     		ldr	r2, [r7, #4]
 1166 001a 1E4B     		ldr	r3, .L52+4
 1167 001c 9A42     		cmp	r2, r3
 1168 001e 30D0     		beq	.L50
 1169 0020 7A68     		ldr	r2, [r7, #4]
 1170 0022 1D4B     		ldr	r3, .L52+8
 1171 0024 9A42     		cmp	r2, r3
 1172 0026 2CD0     		beq	.L50
 1173 0028 7A68     		ldr	r2, [r7, #4]
 1174 002a 1C4B     		ldr	r3, .L52+12
 1175 002c 9A42     		cmp	r2, r3
 1176 002e 28D0     		beq	.L50
 1177 0030 7A68     		ldr	r2, [r7, #4]
 1178 0032 1B4B     		ldr	r3, .L52+16
 1179 0034 9A42     		cmp	r2, r3
 1180 0036 24D0     		beq	.L50
 1181 0038 7A68     		ldr	r2, [r7, #4]
 1182 003a 1A4B     		ldr	r3, .L52+20
 1183 003c 9A42     		cmp	r2, r3
 1184 003e 20D0     		beq	.L50
 1185 0040 7A68     		ldr	r2, [r7, #4]
 1186 0042 194B     		ldr	r3, .L52+24
 1187 0044 9A42     		cmp	r2, r3
 1188 0046 1CD0     		beq	.L50
 1189 0048 7A68     		ldr	r2, [r7, #4]
 1190 004a 184B     		ldr	r3, .L52+28
 1191 004c 9A42     		cmp	r2, r3
 1192 004e 18D0     		beq	.L50
 1193 0050 7A68     		ldr	r2, [r7, #4]
 1194 0052 174B     		ldr	r3, .L52+32
 1195 0054 9A42     		cmp	r2, r3
 1196 0056 14D0     		beq	.L50
 1197 0058 7A68     		ldr	r2, [r7, #4]
 1198 005a 164B     		ldr	r3, .L52+36
 1199 005c 9A42     		cmp	r2, r3
 1200 005e 10D0     		beq	.L50
 1201 0060 7A68     		ldr	r2, [r7, #4]
 1202 0062 154B     		ldr	r3, .L52+40
 1203 0064 9A42     		cmp	r2, r3
 1204 0066 0CD0     		beq	.L50
 1205 0068 7A68     		ldr	r2, [r7, #4]
 1206 006a 144B     		ldr	r3, .L52+44
 1207 006c 9A42     		cmp	r2, r3
 1208 006e 08D0     		beq	.L50
 1209 0070 7A68     		ldr	r2, [r7, #4]
 1210 0072 134B     		ldr	r3, .L52+48
 1211 0074 9A42     		cmp	r2, r3
 1212 0076 04D0     		beq	.L50
 1213 0078 1248     		ldr	r0, .L52+52
 1214 007a 40F2B311 		movw	r1, #435
 1215 007e FFF7FEFF 		bl	assert_failed
 1216              	.L50:
 436:App/STM32F4-Discovery/Libraries/STM32F4xx_StdPeriph_Driver/src/stm32f4xx_tim.c **** 
 437:App/STM32F4-Discovery/Libraries/STM32F4xx_StdPeriph_Driver/src/stm32f4xx_tim.c ****   /* Get the Counter Register value */
 438:App/STM32F4-Discovery/Libraries/STM32F4xx_StdPeriph_Driver/src/stm32f4xx_tim.c ****   return TIMx->CNT;
 1217              		.loc 1 438 0 is_stmt 1
 1218 0082 7B68     		ldr	r3, [r7, #4]
 1219 0084 5B6A     		ldr	r3, [r3, #36]
 439:App/STM32F4-Discovery/Libraries/STM32F4xx_StdPeriph_Driver/src/stm32f4xx_tim.c **** }
 1220              		.loc 1 439 0
 1221 0086 1846     		mov	r0, r3
 1222 0088 0837     		adds	r7, r7, #8
 1223 008a BD46     		mov	sp, r7
 1224              		@ sp needed
 1225 008c 80BD     		pop	{r7, pc}
 1226              	.L53:
 1227 008e 00BF     		.align	2
 1228              	.L52:
 1229 0090 00000140 		.word	1073807360
 1230 0094 00040040 		.word	1073742848
 1231 0098 00080040 		.word	1073743872
 1232 009c 000C0040 		.word	1073744896
 1233 00a0 00100040 		.word	1073745920
 1234 00a4 00140040 		.word	1073746944
 1235 00a8 00040140 		.word	1073808384
 1236 00ac 00400140 		.word	1073823744
 1237 00b0 00440140 		.word	1073824768
 1238 00b4 00480140 		.word	1073825792
 1239 00b8 00180040 		.word	1073747968
 1240 00bc 001C0040 		.word	1073748992
 1241 00c0 00200040 		.word	1073750016
 1242 00c4 00000000 		.word	.LC0
 1243              		.cfi_endproc
 1244              	.LFE117:
 1246              		.section	.text.TIM_GetPrescaler,"ax",%progbits
 1247              		.align	2
 1248              		.global	TIM_GetPrescaler
 1249              		.thumb
 1250              		.thumb_func
 1252              	TIM_GetPrescaler:
 1253              	.LFB118:
 440:App/STM32F4-Discovery/Libraries/STM32F4xx_StdPeriph_Driver/src/stm32f4xx_tim.c **** 
 441:App/STM32F4-Discovery/Libraries/STM32F4xx_StdPeriph_Driver/src/stm32f4xx_tim.c **** /**
 442:App/STM32F4-Discovery/Libraries/STM32F4xx_StdPeriph_Driver/src/stm32f4xx_tim.c ****   * @brief  Gets the TIMx Prescaler value.
 443:App/STM32F4-Discovery/Libraries/STM32F4xx_StdPeriph_Driver/src/stm32f4xx_tim.c ****   * @param  TIMx: where x can be 1 to 14 to select the TIM peripheral.
 444:App/STM32F4-Discovery/Libraries/STM32F4xx_StdPeriph_Driver/src/stm32f4xx_tim.c ****   * @retval Prescaler Register value.
 445:App/STM32F4-Discovery/Libraries/STM32F4xx_StdPeriph_Driver/src/stm32f4xx_tim.c ****   */
 446:App/STM32F4-Discovery/Libraries/STM32F4xx_StdPeriph_Driver/src/stm32f4xx_tim.c **** uint16_t TIM_GetPrescaler(TIM_TypeDef* TIMx)
 447:App/STM32F4-Discovery/Libraries/STM32F4xx_StdPeriph_Driver/src/stm32f4xx_tim.c **** {
 1254              		.loc 1 447 0
 1255              		.cfi_startproc
 1256              		@ args = 0, pretend = 0, frame = 8
 1257              		@ frame_needed = 1, uses_anonymous_args = 0
 1258 0000 80B5     		push	{r7, lr}
 1259              	.LCFI24:
 1260              		.cfi_def_cfa_offset 8
 1261              		.cfi_offset 7, -8
 1262              		.cfi_offset 14, -4
 1263 0002 82B0     		sub	sp, sp, #8
 1264              	.LCFI25:
 1265              		.cfi_def_cfa_offset 16
 1266 0004 00AF     		add	r7, sp, #0
 1267              	.LCFI26:
 1268              		.cfi_def_cfa_register 7
 1269 0006 7860     		str	r0, [r7, #4]
 448:App/STM32F4-Discovery/Libraries/STM32F4xx_StdPeriph_Driver/src/stm32f4xx_tim.c ****   /* Check the parameters */
 449:App/STM32F4-Discovery/Libraries/STM32F4xx_StdPeriph_Driver/src/stm32f4xx_tim.c ****   assert_param(IS_TIM_ALL_PERIPH(TIMx));
 1270              		.loc 1 449 0
 1271 0008 7A68     		ldr	r2, [r7, #4]
 1272 000a 214B     		ldr	r3, .L57
 1273 000c 9A42     		cmp	r2, r3
 1274 000e 38D0     		beq	.L55
 1275              		.loc 1 449 0 is_stmt 0 discriminator 1
 1276 0010 7B68     		ldr	r3, [r7, #4]
 1277 0012 B3F1804F 		cmp	r3, #1073741824
 1278 0016 34D0     		beq	.L55
 1279 0018 7A68     		ldr	r2, [r7, #4]
 1280 001a 1E4B     		ldr	r3, .L57+4
 1281 001c 9A42     		cmp	r2, r3
 1282 001e 30D0     		beq	.L55
 1283 0020 7A68     		ldr	r2, [r7, #4]
 1284 0022 1D4B     		ldr	r3, .L57+8
 1285 0024 9A42     		cmp	r2, r3
 1286 0026 2CD0     		beq	.L55
 1287 0028 7A68     		ldr	r2, [r7, #4]
 1288 002a 1C4B     		ldr	r3, .L57+12
 1289 002c 9A42     		cmp	r2, r3
 1290 002e 28D0     		beq	.L55
 1291 0030 7A68     		ldr	r2, [r7, #4]
 1292 0032 1B4B     		ldr	r3, .L57+16
 1293 0034 9A42     		cmp	r2, r3
 1294 0036 24D0     		beq	.L55
 1295 0038 7A68     		ldr	r2, [r7, #4]
 1296 003a 1A4B     		ldr	r3, .L57+20
 1297 003c 9A42     		cmp	r2, r3
 1298 003e 20D0     		beq	.L55
 1299 0040 7A68     		ldr	r2, [r7, #4]
 1300 0042 194B     		ldr	r3, .L57+24
 1301 0044 9A42     		cmp	r2, r3
 1302 0046 1CD0     		beq	.L55
 1303 0048 7A68     		ldr	r2, [r7, #4]
 1304 004a 184B     		ldr	r3, .L57+28
 1305 004c 9A42     		cmp	r2, r3
 1306 004e 18D0     		beq	.L55
 1307 0050 7A68     		ldr	r2, [r7, #4]
 1308 0052 174B     		ldr	r3, .L57+32
 1309 0054 9A42     		cmp	r2, r3
 1310 0056 14D0     		beq	.L55
 1311 0058 7A68     		ldr	r2, [r7, #4]
 1312 005a 164B     		ldr	r3, .L57+36
 1313 005c 9A42     		cmp	r2, r3
 1314 005e 10D0     		beq	.L55
 1315 0060 7A68     		ldr	r2, [r7, #4]
 1316 0062 154B     		ldr	r3, .L57+40
 1317 0064 9A42     		cmp	r2, r3
 1318 0066 0CD0     		beq	.L55
 1319 0068 7A68     		ldr	r2, [r7, #4]
 1320 006a 144B     		ldr	r3, .L57+44
 1321 006c 9A42     		cmp	r2, r3
 1322 006e 08D0     		beq	.L55
 1323 0070 7A68     		ldr	r2, [r7, #4]
 1324 0072 134B     		ldr	r3, .L57+48
 1325 0074 9A42     		cmp	r2, r3
 1326 0076 04D0     		beq	.L55
 1327 0078 1248     		ldr	r0, .L57+52
 1328 007a 40F2C111 		movw	r1, #449
 1329 007e FFF7FEFF 		bl	assert_failed
 1330              	.L55:
 450:App/STM32F4-Discovery/Libraries/STM32F4xx_StdPeriph_Driver/src/stm32f4xx_tim.c **** 
 451:App/STM32F4-Discovery/Libraries/STM32F4xx_StdPeriph_Driver/src/stm32f4xx_tim.c ****   /* Get the Prescaler Register value */
 452:App/STM32F4-Discovery/Libraries/STM32F4xx_StdPeriph_Driver/src/stm32f4xx_tim.c ****   return TIMx->PSC;
 1331              		.loc 1 452 0 is_stmt 1
 1332 0082 7B68     		ldr	r3, [r7, #4]
 1333 0084 1B8D     		ldrh	r3, [r3, #40]	@ movhi
 1334 0086 9BB2     		uxth	r3, r3
 453:App/STM32F4-Discovery/Libraries/STM32F4xx_StdPeriph_Driver/src/stm32f4xx_tim.c **** }
 1335              		.loc 1 453 0
 1336 0088 1846     		mov	r0, r3
 1337 008a 0837     		adds	r7, r7, #8
 1338 008c BD46     		mov	sp, r7
 1339              		@ sp needed
 1340 008e 80BD     		pop	{r7, pc}
 1341              	.L58:
 1342              		.align	2
 1343              	.L57:
 1344 0090 00000140 		.word	1073807360
 1345 0094 00040040 		.word	1073742848
 1346 0098 00080040 		.word	1073743872
 1347 009c 000C0040 		.word	1073744896
 1348 00a0 00100040 		.word	1073745920
 1349 00a4 00140040 		.word	1073746944
 1350 00a8 00040140 		.word	1073808384
 1351 00ac 00400140 		.word	1073823744
 1352 00b0 00440140 		.word	1073824768
 1353 00b4 00480140 		.word	1073825792
 1354 00b8 00180040 		.word	1073747968
 1355 00bc 001C0040 		.word	1073748992
 1356 00c0 00200040 		.word	1073750016
 1357 00c4 00000000 		.word	.LC0
 1358              		.cfi_endproc
 1359              	.LFE118:
 1361              		.section	.text.TIM_UpdateDisableConfig,"ax",%progbits
 1362              		.align	2
 1363              		.global	TIM_UpdateDisableConfig
 1364              		.thumb
 1365              		.thumb_func
 1367              	TIM_UpdateDisableConfig:
 1368              	.LFB119:
 454:App/STM32F4-Discovery/Libraries/STM32F4xx_StdPeriph_Driver/src/stm32f4xx_tim.c **** 
 455:App/STM32F4-Discovery/Libraries/STM32F4xx_StdPeriph_Driver/src/stm32f4xx_tim.c **** /**
 456:App/STM32F4-Discovery/Libraries/STM32F4xx_StdPeriph_Driver/src/stm32f4xx_tim.c ****   * @brief  Enables or Disables the TIMx Update event.
 457:App/STM32F4-Discovery/Libraries/STM32F4xx_StdPeriph_Driver/src/stm32f4xx_tim.c ****   * @param  TIMx: where x can be 1 to 14 to select the TIM peripheral.
 458:App/STM32F4-Discovery/Libraries/STM32F4xx_StdPeriph_Driver/src/stm32f4xx_tim.c ****   * @param  NewState: new state of the TIMx UDIS bit
 459:App/STM32F4-Discovery/Libraries/STM32F4xx_StdPeriph_Driver/src/stm32f4xx_tim.c ****   *          This parameter can be: ENABLE or DISABLE.
 460:App/STM32F4-Discovery/Libraries/STM32F4xx_StdPeriph_Driver/src/stm32f4xx_tim.c ****   * @retval None
 461:App/STM32F4-Discovery/Libraries/STM32F4xx_StdPeriph_Driver/src/stm32f4xx_tim.c ****   */
 462:App/STM32F4-Discovery/Libraries/STM32F4xx_StdPeriph_Driver/src/stm32f4xx_tim.c **** void TIM_UpdateDisableConfig(TIM_TypeDef* TIMx, FunctionalState NewState)
 463:App/STM32F4-Discovery/Libraries/STM32F4xx_StdPeriph_Driver/src/stm32f4xx_tim.c **** {
 1369              		.loc 1 463 0
 1370              		.cfi_startproc
 1371              		@ args = 0, pretend = 0, frame = 8
 1372              		@ frame_needed = 1, uses_anonymous_args = 0
 1373 0000 80B5     		push	{r7, lr}
 1374              	.LCFI27:
 1375              		.cfi_def_cfa_offset 8
 1376              		.cfi_offset 7, -8
 1377              		.cfi_offset 14, -4
 1378 0002 82B0     		sub	sp, sp, #8
 1379              	.LCFI28:
 1380              		.cfi_def_cfa_offset 16
 1381 0004 00AF     		add	r7, sp, #0
 1382              	.LCFI29:
 1383              		.cfi_def_cfa_register 7
 1384 0006 7860     		str	r0, [r7, #4]
 1385 0008 0B46     		mov	r3, r1
 1386 000a FB70     		strb	r3, [r7, #3]
 464:App/STM32F4-Discovery/Libraries/STM32F4xx_StdPeriph_Driver/src/stm32f4xx_tim.c ****   /* Check the parameters */
 465:App/STM32F4-Discovery/Libraries/STM32F4xx_StdPeriph_Driver/src/stm32f4xx_tim.c ****   assert_param(IS_TIM_ALL_PERIPH(TIMx));
 1387              		.loc 1 465 0
 1388 000c 7A68     		ldr	r2, [r7, #4]
 1389 000e 2F4B     		ldr	r3, .L64
 1390 0010 9A42     		cmp	r2, r3
 1391 0012 38D0     		beq	.L60
 1392              		.loc 1 465 0 is_stmt 0 discriminator 1
 1393 0014 7B68     		ldr	r3, [r7, #4]
 1394 0016 B3F1804F 		cmp	r3, #1073741824
 1395 001a 34D0     		beq	.L60
 1396 001c 7A68     		ldr	r2, [r7, #4]
 1397 001e 2C4B     		ldr	r3, .L64+4
 1398 0020 9A42     		cmp	r2, r3
 1399 0022 30D0     		beq	.L60
 1400 0024 7A68     		ldr	r2, [r7, #4]
 1401 0026 2B4B     		ldr	r3, .L64+8
 1402 0028 9A42     		cmp	r2, r3
 1403 002a 2CD0     		beq	.L60
 1404 002c 7A68     		ldr	r2, [r7, #4]
 1405 002e 2A4B     		ldr	r3, .L64+12
 1406 0030 9A42     		cmp	r2, r3
 1407 0032 28D0     		beq	.L60
 1408 0034 7A68     		ldr	r2, [r7, #4]
 1409 0036 294B     		ldr	r3, .L64+16
 1410 0038 9A42     		cmp	r2, r3
 1411 003a 24D0     		beq	.L60
 1412 003c 7A68     		ldr	r2, [r7, #4]
 1413 003e 284B     		ldr	r3, .L64+20
 1414 0040 9A42     		cmp	r2, r3
 1415 0042 20D0     		beq	.L60
 1416 0044 7A68     		ldr	r2, [r7, #4]
 1417 0046 274B     		ldr	r3, .L64+24
 1418 0048 9A42     		cmp	r2, r3
 1419 004a 1CD0     		beq	.L60
 1420 004c 7A68     		ldr	r2, [r7, #4]
 1421 004e 264B     		ldr	r3, .L64+28
 1422 0050 9A42     		cmp	r2, r3
 1423 0052 18D0     		beq	.L60
 1424 0054 7A68     		ldr	r2, [r7, #4]
 1425 0056 254B     		ldr	r3, .L64+32
 1426 0058 9A42     		cmp	r2, r3
 1427 005a 14D0     		beq	.L60
 1428 005c 7A68     		ldr	r2, [r7, #4]
 1429 005e 244B     		ldr	r3, .L64+36
 1430 0060 9A42     		cmp	r2, r3
 1431 0062 10D0     		beq	.L60
 1432 0064 7A68     		ldr	r2, [r7, #4]
 1433 0066 234B     		ldr	r3, .L64+40
 1434 0068 9A42     		cmp	r2, r3
 1435 006a 0CD0     		beq	.L60
 1436 006c 7A68     		ldr	r2, [r7, #4]
 1437 006e 224B     		ldr	r3, .L64+44
 1438 0070 9A42     		cmp	r2, r3
 1439 0072 08D0     		beq	.L60
 1440 0074 7A68     		ldr	r2, [r7, #4]
 1441 0076 214B     		ldr	r3, .L64+48
 1442 0078 9A42     		cmp	r2, r3
 1443 007a 04D0     		beq	.L60
 1444 007c 2048     		ldr	r0, .L64+52
 1445 007e 40F2D111 		movw	r1, #465
 1446 0082 FFF7FEFF 		bl	assert_failed
 1447              	.L60:
 466:App/STM32F4-Discovery/Libraries/STM32F4xx_StdPeriph_Driver/src/stm32f4xx_tim.c ****   assert_param(IS_FUNCTIONAL_STATE(NewState));
 1448              		.loc 1 466 0 is_stmt 1
 1449 0086 FB78     		ldrb	r3, [r7, #3]	@ zero_extendqisi2
 1450 0088 002B     		cmp	r3, #0
 1451 008a 07D0     		beq	.L61
 1452              		.loc 1 466 0 is_stmt 0 discriminator 1
 1453 008c FB78     		ldrb	r3, [r7, #3]	@ zero_extendqisi2
 1454 008e 012B     		cmp	r3, #1
 1455 0090 04D0     		beq	.L61
 1456 0092 1B48     		ldr	r0, .L64+52
 1457 0094 4FF4E971 		mov	r1, #466
 1458 0098 FFF7FEFF 		bl	assert_failed
 1459              	.L61:
 467:App/STM32F4-Discovery/Libraries/STM32F4xx_StdPeriph_Driver/src/stm32f4xx_tim.c **** 
 468:App/STM32F4-Discovery/Libraries/STM32F4xx_StdPeriph_Driver/src/stm32f4xx_tim.c ****   if (NewState != DISABLE)
 1460              		.loc 1 468 0 is_stmt 1
 1461 009c FB78     		ldrb	r3, [r7, #3]	@ zero_extendqisi2
 1462 009e 002B     		cmp	r3, #0
 1463 00a0 08D0     		beq	.L62
 469:App/STM32F4-Discovery/Libraries/STM32F4xx_StdPeriph_Driver/src/stm32f4xx_tim.c ****   {
 470:App/STM32F4-Discovery/Libraries/STM32F4xx_StdPeriph_Driver/src/stm32f4xx_tim.c ****     /* Set the Update Disable Bit */
 471:App/STM32F4-Discovery/Libraries/STM32F4xx_StdPeriph_Driver/src/stm32f4xx_tim.c ****     TIMx->CR1 |= TIM_CR1_UDIS;
 1464              		.loc 1 471 0
 1465 00a2 7B68     		ldr	r3, [r7, #4]
 1466 00a4 1B88     		ldrh	r3, [r3]	@ movhi
 1467 00a6 9BB2     		uxth	r3, r3
 1468 00a8 43F00203 		orr	r3, r3, #2
 1469 00ac 9AB2     		uxth	r2, r3
 1470 00ae 7B68     		ldr	r3, [r7, #4]
 1471 00b0 1A80     		strh	r2, [r3]	@ movhi
 1472 00b2 07E0     		b	.L59
 1473              	.L62:
 472:App/STM32F4-Discovery/Libraries/STM32F4xx_StdPeriph_Driver/src/stm32f4xx_tim.c ****   }
 473:App/STM32F4-Discovery/Libraries/STM32F4xx_StdPeriph_Driver/src/stm32f4xx_tim.c ****   else
 474:App/STM32F4-Discovery/Libraries/STM32F4xx_StdPeriph_Driver/src/stm32f4xx_tim.c ****   {
 475:App/STM32F4-Discovery/Libraries/STM32F4xx_StdPeriph_Driver/src/stm32f4xx_tim.c ****     /* Reset the Update Disable Bit */
 476:App/STM32F4-Discovery/Libraries/STM32F4xx_StdPeriph_Driver/src/stm32f4xx_tim.c ****     TIMx->CR1 &= (uint16_t)~TIM_CR1_UDIS;
 1474              		.loc 1 476 0
 1475 00b4 7B68     		ldr	r3, [r7, #4]
 1476 00b6 1B88     		ldrh	r3, [r3]	@ movhi
 1477 00b8 9BB2     		uxth	r3, r3
 1478 00ba 23F00203 		bic	r3, r3, #2
 1479 00be 9AB2     		uxth	r2, r3
 1480 00c0 7B68     		ldr	r3, [r7, #4]
 1481 00c2 1A80     		strh	r2, [r3]	@ movhi
 1482              	.L59:
 477:App/STM32F4-Discovery/Libraries/STM32F4xx_StdPeriph_Driver/src/stm32f4xx_tim.c ****   }
 478:App/STM32F4-Discovery/Libraries/STM32F4xx_StdPeriph_Driver/src/stm32f4xx_tim.c **** }
 1483              		.loc 1 478 0
 1484 00c4 0837     		adds	r7, r7, #8
 1485 00c6 BD46     		mov	sp, r7
 1486              		@ sp needed
 1487 00c8 80BD     		pop	{r7, pc}
 1488              	.L65:
 1489 00ca 00BF     		.align	2
 1490              	.L64:
 1491 00cc 00000140 		.word	1073807360
 1492 00d0 00040040 		.word	1073742848
 1493 00d4 00080040 		.word	1073743872
 1494 00d8 000C0040 		.word	1073744896
 1495 00dc 00100040 		.word	1073745920
 1496 00e0 00140040 		.word	1073746944
 1497 00e4 00040140 		.word	1073808384
 1498 00e8 00400140 		.word	1073823744
 1499 00ec 00440140 		.word	1073824768
 1500 00f0 00480140 		.word	1073825792
 1501 00f4 00180040 		.word	1073747968
 1502 00f8 001C0040 		.word	1073748992
 1503 00fc 00200040 		.word	1073750016
 1504 0100 00000000 		.word	.LC0
 1505              		.cfi_endproc
 1506              	.LFE119:
 1508              		.section	.text.TIM_UpdateRequestConfig,"ax",%progbits
 1509              		.align	2
 1510              		.global	TIM_UpdateRequestConfig
 1511              		.thumb
 1512              		.thumb_func
 1514              	TIM_UpdateRequestConfig:
 1515              	.LFB120:
 479:App/STM32F4-Discovery/Libraries/STM32F4xx_StdPeriph_Driver/src/stm32f4xx_tim.c **** 
 480:App/STM32F4-Discovery/Libraries/STM32F4xx_StdPeriph_Driver/src/stm32f4xx_tim.c **** /**
 481:App/STM32F4-Discovery/Libraries/STM32F4xx_StdPeriph_Driver/src/stm32f4xx_tim.c ****   * @brief  Configures the TIMx Update Request Interrupt source.
 482:App/STM32F4-Discovery/Libraries/STM32F4xx_StdPeriph_Driver/src/stm32f4xx_tim.c ****   * @param  TIMx: where x can be 1 to 14 to select the TIM peripheral.
 483:App/STM32F4-Discovery/Libraries/STM32F4xx_StdPeriph_Driver/src/stm32f4xx_tim.c ****   * @param  TIM_UpdateSource: specifies the Update source.
 484:App/STM32F4-Discovery/Libraries/STM32F4xx_StdPeriph_Driver/src/stm32f4xx_tim.c ****   *          This parameter can be one of the following values:
 485:App/STM32F4-Discovery/Libraries/STM32F4xx_StdPeriph_Driver/src/stm32f4xx_tim.c ****   *            @arg TIM_UpdateSource_Global: Source of update is the counter
 486:App/STM32F4-Discovery/Libraries/STM32F4xx_StdPeriph_Driver/src/stm32f4xx_tim.c ****   *                 overflow/underflow or the setting of UG bit, or an update
 487:App/STM32F4-Discovery/Libraries/STM32F4xx_StdPeriph_Driver/src/stm32f4xx_tim.c ****   *                 generation through the slave mode controller.
 488:App/STM32F4-Discovery/Libraries/STM32F4xx_StdPeriph_Driver/src/stm32f4xx_tim.c ****   *            @arg TIM_UpdateSource_Regular: Source of update is counter overflow/underflow.
 489:App/STM32F4-Discovery/Libraries/STM32F4xx_StdPeriph_Driver/src/stm32f4xx_tim.c ****   * @retval None
 490:App/STM32F4-Discovery/Libraries/STM32F4xx_StdPeriph_Driver/src/stm32f4xx_tim.c ****   */
 491:App/STM32F4-Discovery/Libraries/STM32F4xx_StdPeriph_Driver/src/stm32f4xx_tim.c **** void TIM_UpdateRequestConfig(TIM_TypeDef* TIMx, uint16_t TIM_UpdateSource)
 492:App/STM32F4-Discovery/Libraries/STM32F4xx_StdPeriph_Driver/src/stm32f4xx_tim.c **** {
 1516              		.loc 1 492 0
 1517              		.cfi_startproc
 1518              		@ args = 0, pretend = 0, frame = 8
 1519              		@ frame_needed = 1, uses_anonymous_args = 0
 1520 0000 80B5     		push	{r7, lr}
 1521              	.LCFI30:
 1522              		.cfi_def_cfa_offset 8
 1523              		.cfi_offset 7, -8
 1524              		.cfi_offset 14, -4
 1525 0002 82B0     		sub	sp, sp, #8
 1526              	.LCFI31:
 1527              		.cfi_def_cfa_offset 16
 1528 0004 00AF     		add	r7, sp, #0
 1529              	.LCFI32:
 1530              		.cfi_def_cfa_register 7
 1531 0006 7860     		str	r0, [r7, #4]
 1532 0008 0B46     		mov	r3, r1
 1533 000a 7B80     		strh	r3, [r7, #2]	@ movhi
 493:App/STM32F4-Discovery/Libraries/STM32F4xx_StdPeriph_Driver/src/stm32f4xx_tim.c ****   /* Check the parameters */
 494:App/STM32F4-Discovery/Libraries/STM32F4xx_StdPeriph_Driver/src/stm32f4xx_tim.c ****   assert_param(IS_TIM_ALL_PERIPH(TIMx));
 1534              		.loc 1 494 0
 1535 000c 7A68     		ldr	r2, [r7, #4]
 1536 000e 2F4B     		ldr	r3, .L71
 1537 0010 9A42     		cmp	r2, r3
 1538 0012 38D0     		beq	.L67
 1539              		.loc 1 494 0 is_stmt 0 discriminator 1
 1540 0014 7B68     		ldr	r3, [r7, #4]
 1541 0016 B3F1804F 		cmp	r3, #1073741824
 1542 001a 34D0     		beq	.L67
 1543 001c 7A68     		ldr	r2, [r7, #4]
 1544 001e 2C4B     		ldr	r3, .L71+4
 1545 0020 9A42     		cmp	r2, r3
 1546 0022 30D0     		beq	.L67
 1547 0024 7A68     		ldr	r2, [r7, #4]
 1548 0026 2B4B     		ldr	r3, .L71+8
 1549 0028 9A42     		cmp	r2, r3
 1550 002a 2CD0     		beq	.L67
 1551 002c 7A68     		ldr	r2, [r7, #4]
 1552 002e 2A4B     		ldr	r3, .L71+12
 1553 0030 9A42     		cmp	r2, r3
 1554 0032 28D0     		beq	.L67
 1555 0034 7A68     		ldr	r2, [r7, #4]
 1556 0036 294B     		ldr	r3, .L71+16
 1557 0038 9A42     		cmp	r2, r3
 1558 003a 24D0     		beq	.L67
 1559 003c 7A68     		ldr	r2, [r7, #4]
 1560 003e 284B     		ldr	r3, .L71+20
 1561 0040 9A42     		cmp	r2, r3
 1562 0042 20D0     		beq	.L67
 1563 0044 7A68     		ldr	r2, [r7, #4]
 1564 0046 274B     		ldr	r3, .L71+24
 1565 0048 9A42     		cmp	r2, r3
 1566 004a 1CD0     		beq	.L67
 1567 004c 7A68     		ldr	r2, [r7, #4]
 1568 004e 264B     		ldr	r3, .L71+28
 1569 0050 9A42     		cmp	r2, r3
 1570 0052 18D0     		beq	.L67
 1571 0054 7A68     		ldr	r2, [r7, #4]
 1572 0056 254B     		ldr	r3, .L71+32
 1573 0058 9A42     		cmp	r2, r3
 1574 005a 14D0     		beq	.L67
 1575 005c 7A68     		ldr	r2, [r7, #4]
 1576 005e 244B     		ldr	r3, .L71+36
 1577 0060 9A42     		cmp	r2, r3
 1578 0062 10D0     		beq	.L67
 1579 0064 7A68     		ldr	r2, [r7, #4]
 1580 0066 234B     		ldr	r3, .L71+40
 1581 0068 9A42     		cmp	r2, r3
 1582 006a 0CD0     		beq	.L67
 1583 006c 7A68     		ldr	r2, [r7, #4]
 1584 006e 224B     		ldr	r3, .L71+44
 1585 0070 9A42     		cmp	r2, r3
 1586 0072 08D0     		beq	.L67
 1587 0074 7A68     		ldr	r2, [r7, #4]
 1588 0076 214B     		ldr	r3, .L71+48
 1589 0078 9A42     		cmp	r2, r3
 1590 007a 04D0     		beq	.L67
 1591 007c 2048     		ldr	r0, .L71+52
 1592 007e 4FF4F771 		mov	r1, #494
 1593 0082 FFF7FEFF 		bl	assert_failed
 1594              	.L67:
 495:App/STM32F4-Discovery/Libraries/STM32F4xx_StdPeriph_Driver/src/stm32f4xx_tim.c ****   assert_param(IS_TIM_UPDATE_SOURCE(TIM_UpdateSource));
 1595              		.loc 1 495 0 is_stmt 1
 1596 0086 7B88     		ldrh	r3, [r7, #2]
 1597 0088 002B     		cmp	r3, #0
 1598 008a 07D0     		beq	.L68
 1599              		.loc 1 495 0 is_stmt 0 discriminator 1
 1600 008c 7B88     		ldrh	r3, [r7, #2]
 1601 008e 012B     		cmp	r3, #1
 1602 0090 04D0     		beq	.L68
 1603 0092 1B48     		ldr	r0, .L71+52
 1604 0094 40F2EF11 		movw	r1, #495
 1605 0098 FFF7FEFF 		bl	assert_failed
 1606              	.L68:
 496:App/STM32F4-Discovery/Libraries/STM32F4xx_StdPeriph_Driver/src/stm32f4xx_tim.c **** 
 497:App/STM32F4-Discovery/Libraries/STM32F4xx_StdPeriph_Driver/src/stm32f4xx_tim.c ****   if (TIM_UpdateSource != TIM_UpdateSource_Global)
 1607              		.loc 1 497 0 is_stmt 1
 1608 009c 7B88     		ldrh	r3, [r7, #2]
 1609 009e 002B     		cmp	r3, #0
 1610 00a0 08D0     		beq	.L69
 498:App/STM32F4-Discovery/Libraries/STM32F4xx_StdPeriph_Driver/src/stm32f4xx_tim.c ****   {
 499:App/STM32F4-Discovery/Libraries/STM32F4xx_StdPeriph_Driver/src/stm32f4xx_tim.c ****     /* Set the URS Bit */
 500:App/STM32F4-Discovery/Libraries/STM32F4xx_StdPeriph_Driver/src/stm32f4xx_tim.c ****     TIMx->CR1 |= TIM_CR1_URS;
 1611              		.loc 1 500 0
 1612 00a2 7B68     		ldr	r3, [r7, #4]
 1613 00a4 1B88     		ldrh	r3, [r3]	@ movhi
 1614 00a6 9BB2     		uxth	r3, r3
 1615 00a8 43F00403 		orr	r3, r3, #4
 1616 00ac 9AB2     		uxth	r2, r3
 1617 00ae 7B68     		ldr	r3, [r7, #4]
 1618 00b0 1A80     		strh	r2, [r3]	@ movhi
 1619 00b2 07E0     		b	.L66
 1620              	.L69:
 501:App/STM32F4-Discovery/Libraries/STM32F4xx_StdPeriph_Driver/src/stm32f4xx_tim.c ****   }
 502:App/STM32F4-Discovery/Libraries/STM32F4xx_StdPeriph_Driver/src/stm32f4xx_tim.c ****   else
 503:App/STM32F4-Discovery/Libraries/STM32F4xx_StdPeriph_Driver/src/stm32f4xx_tim.c ****   {
 504:App/STM32F4-Discovery/Libraries/STM32F4xx_StdPeriph_Driver/src/stm32f4xx_tim.c ****     /* Reset the URS Bit */
 505:App/STM32F4-Discovery/Libraries/STM32F4xx_StdPeriph_Driver/src/stm32f4xx_tim.c ****     TIMx->CR1 &= (uint16_t)~TIM_CR1_URS;
 1621              		.loc 1 505 0
 1622 00b4 7B68     		ldr	r3, [r7, #4]
 1623 00b6 1B88     		ldrh	r3, [r3]	@ movhi
 1624 00b8 9BB2     		uxth	r3, r3
 1625 00ba 23F00403 		bic	r3, r3, #4
 1626 00be 9AB2     		uxth	r2, r3
 1627 00c0 7B68     		ldr	r3, [r7, #4]
 1628 00c2 1A80     		strh	r2, [r3]	@ movhi
 1629              	.L66:
 506:App/STM32F4-Discovery/Libraries/STM32F4xx_StdPeriph_Driver/src/stm32f4xx_tim.c ****   }
 507:App/STM32F4-Discovery/Libraries/STM32F4xx_StdPeriph_Driver/src/stm32f4xx_tim.c **** }
 1630              		.loc 1 507 0
 1631 00c4 0837     		adds	r7, r7, #8
 1632 00c6 BD46     		mov	sp, r7
 1633              		@ sp needed
 1634 00c8 80BD     		pop	{r7, pc}
 1635              	.L72:
 1636 00ca 00BF     		.align	2
 1637              	.L71:
 1638 00cc 00000140 		.word	1073807360
 1639 00d0 00040040 		.word	1073742848
 1640 00d4 00080040 		.word	1073743872
 1641 00d8 000C0040 		.word	1073744896
 1642 00dc 00100040 		.word	1073745920
 1643 00e0 00140040 		.word	1073746944
 1644 00e4 00040140 		.word	1073808384
 1645 00e8 00400140 		.word	1073823744
 1646 00ec 00440140 		.word	1073824768
 1647 00f0 00480140 		.word	1073825792
 1648 00f4 00180040 		.word	1073747968
 1649 00f8 001C0040 		.word	1073748992
 1650 00fc 00200040 		.word	1073750016
 1651 0100 00000000 		.word	.LC0
 1652              		.cfi_endproc
 1653              	.LFE120:
 1655              		.section	.text.TIM_ARRPreloadConfig,"ax",%progbits
 1656              		.align	2
 1657              		.global	TIM_ARRPreloadConfig
 1658              		.thumb
 1659              		.thumb_func
 1661              	TIM_ARRPreloadConfig:
 1662              	.LFB121:
 508:App/STM32F4-Discovery/Libraries/STM32F4xx_StdPeriph_Driver/src/stm32f4xx_tim.c **** 
 509:App/STM32F4-Discovery/Libraries/STM32F4xx_StdPeriph_Driver/src/stm32f4xx_tim.c **** /**
 510:App/STM32F4-Discovery/Libraries/STM32F4xx_StdPeriph_Driver/src/stm32f4xx_tim.c ****   * @brief  Enables or disables TIMx peripheral Preload register on ARR.
 511:App/STM32F4-Discovery/Libraries/STM32F4xx_StdPeriph_Driver/src/stm32f4xx_tim.c ****   * @param  TIMx: where x can be 1 to 14 to select the TIM peripheral.
 512:App/STM32F4-Discovery/Libraries/STM32F4xx_StdPeriph_Driver/src/stm32f4xx_tim.c ****   * @param  NewState: new state of the TIMx peripheral Preload register
 513:App/STM32F4-Discovery/Libraries/STM32F4xx_StdPeriph_Driver/src/stm32f4xx_tim.c ****   *          This parameter can be: ENABLE or DISABLE.
 514:App/STM32F4-Discovery/Libraries/STM32F4xx_StdPeriph_Driver/src/stm32f4xx_tim.c ****   * @retval None
 515:App/STM32F4-Discovery/Libraries/STM32F4xx_StdPeriph_Driver/src/stm32f4xx_tim.c ****   */
 516:App/STM32F4-Discovery/Libraries/STM32F4xx_StdPeriph_Driver/src/stm32f4xx_tim.c **** void TIM_ARRPreloadConfig(TIM_TypeDef* TIMx, FunctionalState NewState)
 517:App/STM32F4-Discovery/Libraries/STM32F4xx_StdPeriph_Driver/src/stm32f4xx_tim.c **** {
 1663              		.loc 1 517 0
 1664              		.cfi_startproc
 1665              		@ args = 0, pretend = 0, frame = 8
 1666              		@ frame_needed = 1, uses_anonymous_args = 0
 1667 0000 80B5     		push	{r7, lr}
 1668              	.LCFI33:
 1669              		.cfi_def_cfa_offset 8
 1670              		.cfi_offset 7, -8
 1671              		.cfi_offset 14, -4
 1672 0002 82B0     		sub	sp, sp, #8
 1673              	.LCFI34:
 1674              		.cfi_def_cfa_offset 16
 1675 0004 00AF     		add	r7, sp, #0
 1676              	.LCFI35:
 1677              		.cfi_def_cfa_register 7
 1678 0006 7860     		str	r0, [r7, #4]
 1679 0008 0B46     		mov	r3, r1
 1680 000a FB70     		strb	r3, [r7, #3]
 518:App/STM32F4-Discovery/Libraries/STM32F4xx_StdPeriph_Driver/src/stm32f4xx_tim.c ****   /* Check the parameters */
 519:App/STM32F4-Discovery/Libraries/STM32F4xx_StdPeriph_Driver/src/stm32f4xx_tim.c ****   assert_param(IS_TIM_ALL_PERIPH(TIMx));
 1681              		.loc 1 519 0
 1682 000c 7A68     		ldr	r2, [r7, #4]
 1683 000e 2F4B     		ldr	r3, .L78
 1684 0010 9A42     		cmp	r2, r3
 1685 0012 38D0     		beq	.L74
 1686              		.loc 1 519 0 is_stmt 0 discriminator 1
 1687 0014 7B68     		ldr	r3, [r7, #4]
 1688 0016 B3F1804F 		cmp	r3, #1073741824
 1689 001a 34D0     		beq	.L74
 1690 001c 7A68     		ldr	r2, [r7, #4]
 1691 001e 2C4B     		ldr	r3, .L78+4
 1692 0020 9A42     		cmp	r2, r3
 1693 0022 30D0     		beq	.L74
 1694 0024 7A68     		ldr	r2, [r7, #4]
 1695 0026 2B4B     		ldr	r3, .L78+8
 1696 0028 9A42     		cmp	r2, r3
 1697 002a 2CD0     		beq	.L74
 1698 002c 7A68     		ldr	r2, [r7, #4]
 1699 002e 2A4B     		ldr	r3, .L78+12
 1700 0030 9A42     		cmp	r2, r3
 1701 0032 28D0     		beq	.L74
 1702 0034 7A68     		ldr	r2, [r7, #4]
 1703 0036 294B     		ldr	r3, .L78+16
 1704 0038 9A42     		cmp	r2, r3
 1705 003a 24D0     		beq	.L74
 1706 003c 7A68     		ldr	r2, [r7, #4]
 1707 003e 284B     		ldr	r3, .L78+20
 1708 0040 9A42     		cmp	r2, r3
 1709 0042 20D0     		beq	.L74
 1710 0044 7A68     		ldr	r2, [r7, #4]
 1711 0046 274B     		ldr	r3, .L78+24
 1712 0048 9A42     		cmp	r2, r3
 1713 004a 1CD0     		beq	.L74
 1714 004c 7A68     		ldr	r2, [r7, #4]
 1715 004e 264B     		ldr	r3, .L78+28
 1716 0050 9A42     		cmp	r2, r3
 1717 0052 18D0     		beq	.L74
 1718 0054 7A68     		ldr	r2, [r7, #4]
 1719 0056 254B     		ldr	r3, .L78+32
 1720 0058 9A42     		cmp	r2, r3
 1721 005a 14D0     		beq	.L74
 1722 005c 7A68     		ldr	r2, [r7, #4]
 1723 005e 244B     		ldr	r3, .L78+36
 1724 0060 9A42     		cmp	r2, r3
 1725 0062 10D0     		beq	.L74
 1726 0064 7A68     		ldr	r2, [r7, #4]
 1727 0066 234B     		ldr	r3, .L78+40
 1728 0068 9A42     		cmp	r2, r3
 1729 006a 0CD0     		beq	.L74
 1730 006c 7A68     		ldr	r2, [r7, #4]
 1731 006e 224B     		ldr	r3, .L78+44
 1732 0070 9A42     		cmp	r2, r3
 1733 0072 08D0     		beq	.L74
 1734 0074 7A68     		ldr	r2, [r7, #4]
 1735 0076 214B     		ldr	r3, .L78+48
 1736 0078 9A42     		cmp	r2, r3
 1737 007a 04D0     		beq	.L74
 1738 007c 2048     		ldr	r0, .L78+52
 1739 007e 40F20721 		movw	r1, #519
 1740 0082 FFF7FEFF 		bl	assert_failed
 1741              	.L74:
 520:App/STM32F4-Discovery/Libraries/STM32F4xx_StdPeriph_Driver/src/stm32f4xx_tim.c ****   assert_param(IS_FUNCTIONAL_STATE(NewState));
 1742              		.loc 1 520 0 is_stmt 1
 1743 0086 FB78     		ldrb	r3, [r7, #3]	@ zero_extendqisi2
 1744 0088 002B     		cmp	r3, #0
 1745 008a 07D0     		beq	.L75
 1746              		.loc 1 520 0 is_stmt 0 discriminator 1
 1747 008c FB78     		ldrb	r3, [r7, #3]	@ zero_extendqisi2
 1748 008e 012B     		cmp	r3, #1
 1749 0090 04D0     		beq	.L75
 1750 0092 1B48     		ldr	r0, .L78+52
 1751 0094 4FF40271 		mov	r1, #520
 1752 0098 FFF7FEFF 		bl	assert_failed
 1753              	.L75:
 521:App/STM32F4-Discovery/Libraries/STM32F4xx_StdPeriph_Driver/src/stm32f4xx_tim.c **** 
 522:App/STM32F4-Discovery/Libraries/STM32F4xx_StdPeriph_Driver/src/stm32f4xx_tim.c ****   if (NewState != DISABLE)
 1754              		.loc 1 522 0 is_stmt 1
 1755 009c FB78     		ldrb	r3, [r7, #3]	@ zero_extendqisi2
 1756 009e 002B     		cmp	r3, #0
 1757 00a0 08D0     		beq	.L76
 523:App/STM32F4-Discovery/Libraries/STM32F4xx_StdPeriph_Driver/src/stm32f4xx_tim.c ****   {
 524:App/STM32F4-Discovery/Libraries/STM32F4xx_StdPeriph_Driver/src/stm32f4xx_tim.c ****     /* Set the ARR Preload Bit */
 525:App/STM32F4-Discovery/Libraries/STM32F4xx_StdPeriph_Driver/src/stm32f4xx_tim.c ****     TIMx->CR1 |= TIM_CR1_ARPE;
 1758              		.loc 1 525 0
 1759 00a2 7B68     		ldr	r3, [r7, #4]
 1760 00a4 1B88     		ldrh	r3, [r3]	@ movhi
 1761 00a6 9BB2     		uxth	r3, r3
 1762 00a8 43F08003 		orr	r3, r3, #128
 1763 00ac 9AB2     		uxth	r2, r3
 1764 00ae 7B68     		ldr	r3, [r7, #4]
 1765 00b0 1A80     		strh	r2, [r3]	@ movhi
 1766 00b2 07E0     		b	.L73
 1767              	.L76:
 526:App/STM32F4-Discovery/Libraries/STM32F4xx_StdPeriph_Driver/src/stm32f4xx_tim.c ****   }
 527:App/STM32F4-Discovery/Libraries/STM32F4xx_StdPeriph_Driver/src/stm32f4xx_tim.c ****   else
 528:App/STM32F4-Discovery/Libraries/STM32F4xx_StdPeriph_Driver/src/stm32f4xx_tim.c ****   {
 529:App/STM32F4-Discovery/Libraries/STM32F4xx_StdPeriph_Driver/src/stm32f4xx_tim.c ****     /* Reset the ARR Preload Bit */
 530:App/STM32F4-Discovery/Libraries/STM32F4xx_StdPeriph_Driver/src/stm32f4xx_tim.c ****     TIMx->CR1 &= (uint16_t)~TIM_CR1_ARPE;
 1768              		.loc 1 530 0
 1769 00b4 7B68     		ldr	r3, [r7, #4]
 1770 00b6 1B88     		ldrh	r3, [r3]	@ movhi
 1771 00b8 9BB2     		uxth	r3, r3
 1772 00ba 23F08003 		bic	r3, r3, #128
 1773 00be 9AB2     		uxth	r2, r3
 1774 00c0 7B68     		ldr	r3, [r7, #4]
 1775 00c2 1A80     		strh	r2, [r3]	@ movhi
 1776              	.L73:
 531:App/STM32F4-Discovery/Libraries/STM32F4xx_StdPeriph_Driver/src/stm32f4xx_tim.c ****   }
 532:App/STM32F4-Discovery/Libraries/STM32F4xx_StdPeriph_Driver/src/stm32f4xx_tim.c **** }
 1777              		.loc 1 532 0
 1778 00c4 0837     		adds	r7, r7, #8
 1779 00c6 BD46     		mov	sp, r7
 1780              		@ sp needed
 1781 00c8 80BD     		pop	{r7, pc}
 1782              	.L79:
 1783 00ca 00BF     		.align	2
 1784              	.L78:
 1785 00cc 00000140 		.word	1073807360
 1786 00d0 00040040 		.word	1073742848
 1787 00d4 00080040 		.word	1073743872
 1788 00d8 000C0040 		.word	1073744896
 1789 00dc 00100040 		.word	1073745920
 1790 00e0 00140040 		.word	1073746944
 1791 00e4 00040140 		.word	1073808384
 1792 00e8 00400140 		.word	1073823744
 1793 00ec 00440140 		.word	1073824768
 1794 00f0 00480140 		.word	1073825792
 1795 00f4 00180040 		.word	1073747968
 1796 00f8 001C0040 		.word	1073748992
 1797 00fc 00200040 		.word	1073750016
 1798 0100 00000000 		.word	.LC0
 1799              		.cfi_endproc
 1800              	.LFE121:
 1802              		.section	.text.TIM_SelectOnePulseMode,"ax",%progbits
 1803              		.align	2
 1804              		.global	TIM_SelectOnePulseMode
 1805              		.thumb
 1806              		.thumb_func
 1808              	TIM_SelectOnePulseMode:
 1809              	.LFB122:
 533:App/STM32F4-Discovery/Libraries/STM32F4xx_StdPeriph_Driver/src/stm32f4xx_tim.c **** 
 534:App/STM32F4-Discovery/Libraries/STM32F4xx_StdPeriph_Driver/src/stm32f4xx_tim.c **** /**
 535:App/STM32F4-Discovery/Libraries/STM32F4xx_StdPeriph_Driver/src/stm32f4xx_tim.c ****   * @brief  Selects the TIMx's One Pulse Mode.
 536:App/STM32F4-Discovery/Libraries/STM32F4xx_StdPeriph_Driver/src/stm32f4xx_tim.c ****   * @param  TIMx: where x can be 1 to 14 to select the TIM peripheral.
 537:App/STM32F4-Discovery/Libraries/STM32F4xx_StdPeriph_Driver/src/stm32f4xx_tim.c ****   * @param  TIM_OPMode: specifies the OPM Mode to be used.
 538:App/STM32F4-Discovery/Libraries/STM32F4xx_StdPeriph_Driver/src/stm32f4xx_tim.c ****   *          This parameter can be one of the following values:
 539:App/STM32F4-Discovery/Libraries/STM32F4xx_StdPeriph_Driver/src/stm32f4xx_tim.c ****   *            @arg TIM_OPMode_Single
 540:App/STM32F4-Discovery/Libraries/STM32F4xx_StdPeriph_Driver/src/stm32f4xx_tim.c ****   *            @arg TIM_OPMode_Repetitive
 541:App/STM32F4-Discovery/Libraries/STM32F4xx_StdPeriph_Driver/src/stm32f4xx_tim.c ****   * @retval None
 542:App/STM32F4-Discovery/Libraries/STM32F4xx_StdPeriph_Driver/src/stm32f4xx_tim.c ****   */
 543:App/STM32F4-Discovery/Libraries/STM32F4xx_StdPeriph_Driver/src/stm32f4xx_tim.c **** void TIM_SelectOnePulseMode(TIM_TypeDef* TIMx, uint16_t TIM_OPMode)
 544:App/STM32F4-Discovery/Libraries/STM32F4xx_StdPeriph_Driver/src/stm32f4xx_tim.c **** {
 1810              		.loc 1 544 0
 1811              		.cfi_startproc
 1812              		@ args = 0, pretend = 0, frame = 8
 1813              		@ frame_needed = 1, uses_anonymous_args = 0
 1814 0000 80B5     		push	{r7, lr}
 1815              	.LCFI36:
 1816              		.cfi_def_cfa_offset 8
 1817              		.cfi_offset 7, -8
 1818              		.cfi_offset 14, -4
 1819 0002 82B0     		sub	sp, sp, #8
 1820              	.LCFI37:
 1821              		.cfi_def_cfa_offset 16
 1822 0004 00AF     		add	r7, sp, #0
 1823              	.LCFI38:
 1824              		.cfi_def_cfa_register 7
 1825 0006 7860     		str	r0, [r7, #4]
 1826 0008 0B46     		mov	r3, r1
 1827 000a 7B80     		strh	r3, [r7, #2]	@ movhi
 545:App/STM32F4-Discovery/Libraries/STM32F4xx_StdPeriph_Driver/src/stm32f4xx_tim.c ****   /* Check the parameters */
 546:App/STM32F4-Discovery/Libraries/STM32F4xx_StdPeriph_Driver/src/stm32f4xx_tim.c ****   assert_param(IS_TIM_ALL_PERIPH(TIMx));
 1828              		.loc 1 546 0
 1829 000c 7A68     		ldr	r2, [r7, #4]
 1830 000e 2D4B     		ldr	r3, .L83
 1831 0010 9A42     		cmp	r2, r3
 1832 0012 38D0     		beq	.L81
 1833              		.loc 1 546 0 is_stmt 0 discriminator 1
 1834 0014 7B68     		ldr	r3, [r7, #4]
 1835 0016 B3F1804F 		cmp	r3, #1073741824
 1836 001a 34D0     		beq	.L81
 1837 001c 7A68     		ldr	r2, [r7, #4]
 1838 001e 2A4B     		ldr	r3, .L83+4
 1839 0020 9A42     		cmp	r2, r3
 1840 0022 30D0     		beq	.L81
 1841 0024 7A68     		ldr	r2, [r7, #4]
 1842 0026 294B     		ldr	r3, .L83+8
 1843 0028 9A42     		cmp	r2, r3
 1844 002a 2CD0     		beq	.L81
 1845 002c 7A68     		ldr	r2, [r7, #4]
 1846 002e 284B     		ldr	r3, .L83+12
 1847 0030 9A42     		cmp	r2, r3
 1848 0032 28D0     		beq	.L81
 1849 0034 7A68     		ldr	r2, [r7, #4]
 1850 0036 274B     		ldr	r3, .L83+16
 1851 0038 9A42     		cmp	r2, r3
 1852 003a 24D0     		beq	.L81
 1853 003c 7A68     		ldr	r2, [r7, #4]
 1854 003e 264B     		ldr	r3, .L83+20
 1855 0040 9A42     		cmp	r2, r3
 1856 0042 20D0     		beq	.L81
 1857 0044 7A68     		ldr	r2, [r7, #4]
 1858 0046 254B     		ldr	r3, .L83+24
 1859 0048 9A42     		cmp	r2, r3
 1860 004a 1CD0     		beq	.L81
 1861 004c 7A68     		ldr	r2, [r7, #4]
 1862 004e 244B     		ldr	r3, .L83+28
 1863 0050 9A42     		cmp	r2, r3
 1864 0052 18D0     		beq	.L81
 1865 0054 7A68     		ldr	r2, [r7, #4]
 1866 0056 234B     		ldr	r3, .L83+32
 1867 0058 9A42     		cmp	r2, r3
 1868 005a 14D0     		beq	.L81
 1869 005c 7A68     		ldr	r2, [r7, #4]
 1870 005e 224B     		ldr	r3, .L83+36
 1871 0060 9A42     		cmp	r2, r3
 1872 0062 10D0     		beq	.L81
 1873 0064 7A68     		ldr	r2, [r7, #4]
 1874 0066 214B     		ldr	r3, .L83+40
 1875 0068 9A42     		cmp	r2, r3
 1876 006a 0CD0     		beq	.L81
 1877 006c 7A68     		ldr	r2, [r7, #4]
 1878 006e 204B     		ldr	r3, .L83+44
 1879 0070 9A42     		cmp	r2, r3
 1880 0072 08D0     		beq	.L81
 1881 0074 7A68     		ldr	r2, [r7, #4]
 1882 0076 1F4B     		ldr	r3, .L83+48
 1883 0078 9A42     		cmp	r2, r3
 1884 007a 04D0     		beq	.L81
 1885 007c 1E48     		ldr	r0, .L83+52
 1886 007e 40F22221 		movw	r1, #546
 1887 0082 FFF7FEFF 		bl	assert_failed
 1888              	.L81:
 547:App/STM32F4-Discovery/Libraries/STM32F4xx_StdPeriph_Driver/src/stm32f4xx_tim.c ****   assert_param(IS_TIM_OPM_MODE(TIM_OPMode));
 1889              		.loc 1 547 0 is_stmt 1
 1890 0086 7B88     		ldrh	r3, [r7, #2]
 1891 0088 082B     		cmp	r3, #8
 1892 008a 07D0     		beq	.L82
 1893              		.loc 1 547 0 is_stmt 0 discriminator 1
 1894 008c 7B88     		ldrh	r3, [r7, #2]
 1895 008e 002B     		cmp	r3, #0
 1896 0090 04D0     		beq	.L82
 1897 0092 1948     		ldr	r0, .L83+52
 1898 0094 40F22321 		movw	r1, #547
 1899 0098 FFF7FEFF 		bl	assert_failed
 1900              	.L82:
 548:App/STM32F4-Discovery/Libraries/STM32F4xx_StdPeriph_Driver/src/stm32f4xx_tim.c **** 
 549:App/STM32F4-Discovery/Libraries/STM32F4xx_StdPeriph_Driver/src/stm32f4xx_tim.c ****   /* Reset the OPM Bit */
 550:App/STM32F4-Discovery/Libraries/STM32F4xx_StdPeriph_Driver/src/stm32f4xx_tim.c ****   TIMx->CR1 &= (uint16_t)~TIM_CR1_OPM;
 1901              		.loc 1 550 0 is_stmt 1
 1902 009c 7B68     		ldr	r3, [r7, #4]
 1903 009e 1B88     		ldrh	r3, [r3]	@ movhi
 1904 00a0 9BB2     		uxth	r3, r3
 1905 00a2 23F00803 		bic	r3, r3, #8
 1906 00a6 9AB2     		uxth	r2, r3
 1907 00a8 7B68     		ldr	r3, [r7, #4]
 1908 00aa 1A80     		strh	r2, [r3]	@ movhi
 551:App/STM32F4-Discovery/Libraries/STM32F4xx_StdPeriph_Driver/src/stm32f4xx_tim.c **** 
 552:App/STM32F4-Discovery/Libraries/STM32F4xx_StdPeriph_Driver/src/stm32f4xx_tim.c ****   /* Configure the OPM Mode */
 553:App/STM32F4-Discovery/Libraries/STM32F4xx_StdPeriph_Driver/src/stm32f4xx_tim.c ****   TIMx->CR1 |= TIM_OPMode;
 1909              		.loc 1 553 0
 1910 00ac 7B68     		ldr	r3, [r7, #4]
 1911 00ae 1B88     		ldrh	r3, [r3]	@ movhi
 1912 00b0 9AB2     		uxth	r2, r3
 1913 00b2 7B88     		ldrh	r3, [r7, #2]	@ movhi
 1914 00b4 1343     		orrs	r3, r3, r2
 1915 00b6 9AB2     		uxth	r2, r3
 1916 00b8 7B68     		ldr	r3, [r7, #4]
 1917 00ba 1A80     		strh	r2, [r3]	@ movhi
 554:App/STM32F4-Discovery/Libraries/STM32F4xx_StdPeriph_Driver/src/stm32f4xx_tim.c **** }
 1918              		.loc 1 554 0
 1919 00bc 0837     		adds	r7, r7, #8
 1920 00be BD46     		mov	sp, r7
 1921              		@ sp needed
 1922 00c0 80BD     		pop	{r7, pc}
 1923              	.L84:
 1924 00c2 00BF     		.align	2
 1925              	.L83:
 1926 00c4 00000140 		.word	1073807360
 1927 00c8 00040040 		.word	1073742848
 1928 00cc 00080040 		.word	1073743872
 1929 00d0 000C0040 		.word	1073744896
 1930 00d4 00100040 		.word	1073745920
 1931 00d8 00140040 		.word	1073746944
 1932 00dc 00040140 		.word	1073808384
 1933 00e0 00400140 		.word	1073823744
 1934 00e4 00440140 		.word	1073824768
 1935 00e8 00480140 		.word	1073825792
 1936 00ec 00180040 		.word	1073747968
 1937 00f0 001C0040 		.word	1073748992
 1938 00f4 00200040 		.word	1073750016
 1939 00f8 00000000 		.word	.LC0
 1940              		.cfi_endproc
 1941              	.LFE122:
 1943              		.section	.text.TIM_SetClockDivision,"ax",%progbits
 1944              		.align	2
 1945              		.global	TIM_SetClockDivision
 1946              		.thumb
 1947              		.thumb_func
 1949              	TIM_SetClockDivision:
 1950              	.LFB123:
 555:App/STM32F4-Discovery/Libraries/STM32F4xx_StdPeriph_Driver/src/stm32f4xx_tim.c **** 
 556:App/STM32F4-Discovery/Libraries/STM32F4xx_StdPeriph_Driver/src/stm32f4xx_tim.c **** /**
 557:App/STM32F4-Discovery/Libraries/STM32F4xx_StdPeriph_Driver/src/stm32f4xx_tim.c ****   * @brief  Sets the TIMx Clock Division value.
 558:App/STM32F4-Discovery/Libraries/STM32F4xx_StdPeriph_Driver/src/stm32f4xx_tim.c ****   * @param  TIMx: where x can be 1 to 14 except 6 and 7, to select the TIM peripheral.
 559:App/STM32F4-Discovery/Libraries/STM32F4xx_StdPeriph_Driver/src/stm32f4xx_tim.c ****   * @param  TIM_CKD: specifies the clock division value.
 560:App/STM32F4-Discovery/Libraries/STM32F4xx_StdPeriph_Driver/src/stm32f4xx_tim.c ****   *          This parameter can be one of the following value:
 561:App/STM32F4-Discovery/Libraries/STM32F4xx_StdPeriph_Driver/src/stm32f4xx_tim.c ****   *            @arg TIM_CKD_DIV1: TDTS = Tck_tim
 562:App/STM32F4-Discovery/Libraries/STM32F4xx_StdPeriph_Driver/src/stm32f4xx_tim.c ****   *            @arg TIM_CKD_DIV2: TDTS = 2*Tck_tim
 563:App/STM32F4-Discovery/Libraries/STM32F4xx_StdPeriph_Driver/src/stm32f4xx_tim.c ****   *            @arg TIM_CKD_DIV4: TDTS = 4*Tck_tim
 564:App/STM32F4-Discovery/Libraries/STM32F4xx_StdPeriph_Driver/src/stm32f4xx_tim.c ****   * @retval None
 565:App/STM32F4-Discovery/Libraries/STM32F4xx_StdPeriph_Driver/src/stm32f4xx_tim.c ****   */
 566:App/STM32F4-Discovery/Libraries/STM32F4xx_StdPeriph_Driver/src/stm32f4xx_tim.c **** void TIM_SetClockDivision(TIM_TypeDef* TIMx, uint16_t TIM_CKD)
 567:App/STM32F4-Discovery/Libraries/STM32F4xx_StdPeriph_Driver/src/stm32f4xx_tim.c **** {
 1951              		.loc 1 567 0
 1952              		.cfi_startproc
 1953              		@ args = 0, pretend = 0, frame = 8
 1954              		@ frame_needed = 1, uses_anonymous_args = 0
 1955 0000 80B5     		push	{r7, lr}
 1956              	.LCFI39:
 1957              		.cfi_def_cfa_offset 8
 1958              		.cfi_offset 7, -8
 1959              		.cfi_offset 14, -4
 1960 0002 82B0     		sub	sp, sp, #8
 1961              	.LCFI40:
 1962              		.cfi_def_cfa_offset 16
 1963 0004 00AF     		add	r7, sp, #0
 1964              	.LCFI41:
 1965              		.cfi_def_cfa_register 7
 1966 0006 7860     		str	r0, [r7, #4]
 1967 0008 0B46     		mov	r3, r1
 1968 000a 7B80     		strh	r3, [r7, #2]	@ movhi
 568:App/STM32F4-Discovery/Libraries/STM32F4xx_StdPeriph_Driver/src/stm32f4xx_tim.c ****   /* Check the parameters */
 569:App/STM32F4-Discovery/Libraries/STM32F4xx_StdPeriph_Driver/src/stm32f4xx_tim.c ****   assert_param(IS_TIM_LIST1_PERIPH(TIMx));
 1969              		.loc 1 569 0
 1970 000c 7A68     		ldr	r2, [r7, #4]
 1971 000e 2B4B     		ldr	r3, .L88
 1972 0010 9A42     		cmp	r2, r3
 1973 0012 30D0     		beq	.L86
 1974              		.loc 1 569 0 is_stmt 0 discriminator 1
 1975 0014 7B68     		ldr	r3, [r7, #4]
 1976 0016 B3F1804F 		cmp	r3, #1073741824
 1977 001a 2CD0     		beq	.L86
 1978 001c 7A68     		ldr	r2, [r7, #4]
 1979 001e 284B     		ldr	r3, .L88+4
 1980 0020 9A42     		cmp	r2, r3
 1981 0022 28D0     		beq	.L86
 1982 0024 7A68     		ldr	r2, [r7, #4]
 1983 0026 274B     		ldr	r3, .L88+8
 1984 0028 9A42     		cmp	r2, r3
 1985 002a 24D0     		beq	.L86
 1986 002c 7A68     		ldr	r2, [r7, #4]
 1987 002e 264B     		ldr	r3, .L88+12
 1988 0030 9A42     		cmp	r2, r3
 1989 0032 20D0     		beq	.L86
 1990 0034 7A68     		ldr	r2, [r7, #4]
 1991 0036 254B     		ldr	r3, .L88+16
 1992 0038 9A42     		cmp	r2, r3
 1993 003a 1CD0     		beq	.L86
 1994 003c 7A68     		ldr	r2, [r7, #4]
 1995 003e 244B     		ldr	r3, .L88+20
 1996 0040 9A42     		cmp	r2, r3
 1997 0042 18D0     		beq	.L86
 1998 0044 7A68     		ldr	r2, [r7, #4]
 1999 0046 234B     		ldr	r3, .L88+24
 2000 0048 9A42     		cmp	r2, r3
 2001 004a 14D0     		beq	.L86
 2002 004c 7A68     		ldr	r2, [r7, #4]
 2003 004e 224B     		ldr	r3, .L88+28
 2004 0050 9A42     		cmp	r2, r3
 2005 0052 10D0     		beq	.L86
 2006 0054 7A68     		ldr	r2, [r7, #4]
 2007 0056 214B     		ldr	r3, .L88+32
 2008 0058 9A42     		cmp	r2, r3
 2009 005a 0CD0     		beq	.L86
 2010 005c 7A68     		ldr	r2, [r7, #4]
 2011 005e 204B     		ldr	r3, .L88+36
 2012 0060 9A42     		cmp	r2, r3
 2013 0062 08D0     		beq	.L86
 2014 0064 7A68     		ldr	r2, [r7, #4]
 2015 0066 1F4B     		ldr	r3, .L88+40
 2016 0068 9A42     		cmp	r2, r3
 2017 006a 04D0     		beq	.L86
 2018 006c 1E48     		ldr	r0, .L88+44
 2019 006e 40F23921 		movw	r1, #569
 2020 0072 FFF7FEFF 		bl	assert_failed
 2021              	.L86:
 570:App/STM32F4-Discovery/Libraries/STM32F4xx_StdPeriph_Driver/src/stm32f4xx_tim.c ****   assert_param(IS_TIM_CKD_DIV(TIM_CKD));
 2022              		.loc 1 570 0 is_stmt 1
 2023 0076 7B88     		ldrh	r3, [r7, #2]
 2024 0078 002B     		cmp	r3, #0
 2025 007a 0CD0     		beq	.L87
 2026              		.loc 1 570 0 is_stmt 0 discriminator 1
 2027 007c 7B88     		ldrh	r3, [r7, #2]
 2028 007e B3F5807F 		cmp	r3, #256
 2029 0082 08D0     		beq	.L87
 2030 0084 7B88     		ldrh	r3, [r7, #2]
 2031 0086 B3F5007F 		cmp	r3, #512
 2032 008a 04D0     		beq	.L87
 2033 008c 1648     		ldr	r0, .L88+44
 2034 008e 40F23A21 		movw	r1, #570
 2035 0092 FFF7FEFF 		bl	assert_failed
 2036              	.L87:
 571:App/STM32F4-Discovery/Libraries/STM32F4xx_StdPeriph_Driver/src/stm32f4xx_tim.c **** 
 572:App/STM32F4-Discovery/Libraries/STM32F4xx_StdPeriph_Driver/src/stm32f4xx_tim.c ****   /* Reset the CKD Bits */
 573:App/STM32F4-Discovery/Libraries/STM32F4xx_StdPeriph_Driver/src/stm32f4xx_tim.c ****   TIMx->CR1 &= (uint16_t)(~TIM_CR1_CKD);
 2037              		.loc 1 573 0 is_stmt 1
 2038 0096 7B68     		ldr	r3, [r7, #4]
 2039 0098 1B88     		ldrh	r3, [r3]	@ movhi
 2040 009a 9BB2     		uxth	r3, r3
 2041 009c 23F44073 		bic	r3, r3, #768
 2042 00a0 9AB2     		uxth	r2, r3
 2043 00a2 7B68     		ldr	r3, [r7, #4]
 2044 00a4 1A80     		strh	r2, [r3]	@ movhi
 574:App/STM32F4-Discovery/Libraries/STM32F4xx_StdPeriph_Driver/src/stm32f4xx_tim.c **** 
 575:App/STM32F4-Discovery/Libraries/STM32F4xx_StdPeriph_Driver/src/stm32f4xx_tim.c ****   /* Set the CKD value */
 576:App/STM32F4-Discovery/Libraries/STM32F4xx_StdPeriph_Driver/src/stm32f4xx_tim.c ****   TIMx->CR1 |= TIM_CKD;
 2045              		.loc 1 576 0
 2046 00a6 7B68     		ldr	r3, [r7, #4]
 2047 00a8 1B88     		ldrh	r3, [r3]	@ movhi
 2048 00aa 9AB2     		uxth	r2, r3
 2049 00ac 7B88     		ldrh	r3, [r7, #2]	@ movhi
 2050 00ae 1343     		orrs	r3, r3, r2
 2051 00b0 9AB2     		uxth	r2, r3
 2052 00b2 7B68     		ldr	r3, [r7, #4]
 2053 00b4 1A80     		strh	r2, [r3]	@ movhi
 577:App/STM32F4-Discovery/Libraries/STM32F4xx_StdPeriph_Driver/src/stm32f4xx_tim.c **** }
 2054              		.loc 1 577 0
 2055 00b6 0837     		adds	r7, r7, #8
 2056 00b8 BD46     		mov	sp, r7
 2057              		@ sp needed
 2058 00ba 80BD     		pop	{r7, pc}
 2059              	.L89:
 2060              		.align	2
 2061              	.L88:
 2062 00bc 00000140 		.word	1073807360
 2063 00c0 00040040 		.word	1073742848
 2064 00c4 00080040 		.word	1073743872
 2065 00c8 000C0040 		.word	1073744896
 2066 00cc 00040140 		.word	1073808384
 2067 00d0 00400140 		.word	1073823744
 2068 00d4 00440140 		.word	1073824768
 2069 00d8 00480140 		.word	1073825792
 2070 00dc 00180040 		.word	1073747968
 2071 00e0 001C0040 		.word	1073748992
 2072 00e4 00200040 		.word	1073750016
 2073 00e8 00000000 		.word	.LC0
 2074              		.cfi_endproc
 2075              	.LFE123:
 2077              		.section	.text.TIM_Cmd,"ax",%progbits
 2078              		.align	2
 2079              		.global	TIM_Cmd
 2080              		.thumb
 2081              		.thumb_func
 2083              	TIM_Cmd:
 2084              	.LFB124:
 578:App/STM32F4-Discovery/Libraries/STM32F4xx_StdPeriph_Driver/src/stm32f4xx_tim.c **** 
 579:App/STM32F4-Discovery/Libraries/STM32F4xx_StdPeriph_Driver/src/stm32f4xx_tim.c **** /**
 580:App/STM32F4-Discovery/Libraries/STM32F4xx_StdPeriph_Driver/src/stm32f4xx_tim.c ****   * @brief  Enables or disables the specified TIM peripheral.
 581:App/STM32F4-Discovery/Libraries/STM32F4xx_StdPeriph_Driver/src/stm32f4xx_tim.c ****   * @param  TIMx: where x can be 1 to 14 to select the TIMx peripheral.
 582:App/STM32F4-Discovery/Libraries/STM32F4xx_StdPeriph_Driver/src/stm32f4xx_tim.c ****   * @param  NewState: new state of the TIMx peripheral.
 583:App/STM32F4-Discovery/Libraries/STM32F4xx_StdPeriph_Driver/src/stm32f4xx_tim.c ****   *          This parameter can be: ENABLE or DISABLE.
 584:App/STM32F4-Discovery/Libraries/STM32F4xx_StdPeriph_Driver/src/stm32f4xx_tim.c ****   * @retval None
 585:App/STM32F4-Discovery/Libraries/STM32F4xx_StdPeriph_Driver/src/stm32f4xx_tim.c ****   */
 586:App/STM32F4-Discovery/Libraries/STM32F4xx_StdPeriph_Driver/src/stm32f4xx_tim.c **** void TIM_Cmd(TIM_TypeDef* TIMx, FunctionalState NewState)
 587:App/STM32F4-Discovery/Libraries/STM32F4xx_StdPeriph_Driver/src/stm32f4xx_tim.c **** {
 2085              		.loc 1 587 0
 2086              		.cfi_startproc
 2087              		@ args = 0, pretend = 0, frame = 8
 2088              		@ frame_needed = 1, uses_anonymous_args = 0
 2089 0000 80B5     		push	{r7, lr}
 2090              	.LCFI42:
 2091              		.cfi_def_cfa_offset 8
 2092              		.cfi_offset 7, -8
 2093              		.cfi_offset 14, -4
 2094 0002 82B0     		sub	sp, sp, #8
 2095              	.LCFI43:
 2096              		.cfi_def_cfa_offset 16
 2097 0004 00AF     		add	r7, sp, #0
 2098              	.LCFI44:
 2099              		.cfi_def_cfa_register 7
 2100 0006 7860     		str	r0, [r7, #4]
 2101 0008 0B46     		mov	r3, r1
 2102 000a FB70     		strb	r3, [r7, #3]
 588:App/STM32F4-Discovery/Libraries/STM32F4xx_StdPeriph_Driver/src/stm32f4xx_tim.c ****   /* Check the parameters */
 589:App/STM32F4-Discovery/Libraries/STM32F4xx_StdPeriph_Driver/src/stm32f4xx_tim.c ****   assert_param(IS_TIM_ALL_PERIPH(TIMx)); 
 2103              		.loc 1 589 0
 2104 000c 7A68     		ldr	r2, [r7, #4]
 2105 000e 2F4B     		ldr	r3, .L95
 2106 0010 9A42     		cmp	r2, r3
 2107 0012 38D0     		beq	.L91
 2108              		.loc 1 589 0 is_stmt 0 discriminator 1
 2109 0014 7B68     		ldr	r3, [r7, #4]
 2110 0016 B3F1804F 		cmp	r3, #1073741824
 2111 001a 34D0     		beq	.L91
 2112 001c 7A68     		ldr	r2, [r7, #4]
 2113 001e 2C4B     		ldr	r3, .L95+4
 2114 0020 9A42     		cmp	r2, r3
 2115 0022 30D0     		beq	.L91
 2116 0024 7A68     		ldr	r2, [r7, #4]
 2117 0026 2B4B     		ldr	r3, .L95+8
 2118 0028 9A42     		cmp	r2, r3
 2119 002a 2CD0     		beq	.L91
 2120 002c 7A68     		ldr	r2, [r7, #4]
 2121 002e 2A4B     		ldr	r3, .L95+12
 2122 0030 9A42     		cmp	r2, r3
 2123 0032 28D0     		beq	.L91
 2124 0034 7A68     		ldr	r2, [r7, #4]
 2125 0036 294B     		ldr	r3, .L95+16
 2126 0038 9A42     		cmp	r2, r3
 2127 003a 24D0     		beq	.L91
 2128 003c 7A68     		ldr	r2, [r7, #4]
 2129 003e 284B     		ldr	r3, .L95+20
 2130 0040 9A42     		cmp	r2, r3
 2131 0042 20D0     		beq	.L91
 2132 0044 7A68     		ldr	r2, [r7, #4]
 2133 0046 274B     		ldr	r3, .L95+24
 2134 0048 9A42     		cmp	r2, r3
 2135 004a 1CD0     		beq	.L91
 2136 004c 7A68     		ldr	r2, [r7, #4]
 2137 004e 264B     		ldr	r3, .L95+28
 2138 0050 9A42     		cmp	r2, r3
 2139 0052 18D0     		beq	.L91
 2140 0054 7A68     		ldr	r2, [r7, #4]
 2141 0056 254B     		ldr	r3, .L95+32
 2142 0058 9A42     		cmp	r2, r3
 2143 005a 14D0     		beq	.L91
 2144 005c 7A68     		ldr	r2, [r7, #4]
 2145 005e 244B     		ldr	r3, .L95+36
 2146 0060 9A42     		cmp	r2, r3
 2147 0062 10D0     		beq	.L91
 2148 0064 7A68     		ldr	r2, [r7, #4]
 2149 0066 234B     		ldr	r3, .L95+40
 2150 0068 9A42     		cmp	r2, r3
 2151 006a 0CD0     		beq	.L91
 2152 006c 7A68     		ldr	r2, [r7, #4]
 2153 006e 224B     		ldr	r3, .L95+44
 2154 0070 9A42     		cmp	r2, r3
 2155 0072 08D0     		beq	.L91
 2156 0074 7A68     		ldr	r2, [r7, #4]
 2157 0076 214B     		ldr	r3, .L95+48
 2158 0078 9A42     		cmp	r2, r3
 2159 007a 04D0     		beq	.L91
 2160 007c 2048     		ldr	r0, .L95+52
 2161 007e 40F24D21 		movw	r1, #589
 2162 0082 FFF7FEFF 		bl	assert_failed
 2163              	.L91:
 590:App/STM32F4-Discovery/Libraries/STM32F4xx_StdPeriph_Driver/src/stm32f4xx_tim.c ****   assert_param(IS_FUNCTIONAL_STATE(NewState));
 2164              		.loc 1 590 0 is_stmt 1
 2165 0086 FB78     		ldrb	r3, [r7, #3]	@ zero_extendqisi2
 2166 0088 002B     		cmp	r3, #0
 2167 008a 07D0     		beq	.L92
 2168              		.loc 1 590 0 is_stmt 0 discriminator 1
 2169 008c FB78     		ldrb	r3, [r7, #3]	@ zero_extendqisi2
 2170 008e 012B     		cmp	r3, #1
 2171 0090 04D0     		beq	.L92
 2172 0092 1B48     		ldr	r0, .L95+52
 2173 0094 40F24E21 		movw	r1, #590
 2174 0098 FFF7FEFF 		bl	assert_failed
 2175              	.L92:
 591:App/STM32F4-Discovery/Libraries/STM32F4xx_StdPeriph_Driver/src/stm32f4xx_tim.c ****   
 592:App/STM32F4-Discovery/Libraries/STM32F4xx_StdPeriph_Driver/src/stm32f4xx_tim.c ****   if (NewState != DISABLE)
 2176              		.loc 1 592 0 is_stmt 1
 2177 009c FB78     		ldrb	r3, [r7, #3]	@ zero_extendqisi2
 2178 009e 002B     		cmp	r3, #0
 2179 00a0 08D0     		beq	.L93
 593:App/STM32F4-Discovery/Libraries/STM32F4xx_StdPeriph_Driver/src/stm32f4xx_tim.c ****   {
 594:App/STM32F4-Discovery/Libraries/STM32F4xx_StdPeriph_Driver/src/stm32f4xx_tim.c ****     /* Enable the TIM Counter */
 595:App/STM32F4-Discovery/Libraries/STM32F4xx_StdPeriph_Driver/src/stm32f4xx_tim.c ****     TIMx->CR1 |= TIM_CR1_CEN;
 2180              		.loc 1 595 0
 2181 00a2 7B68     		ldr	r3, [r7, #4]
 2182 00a4 1B88     		ldrh	r3, [r3]	@ movhi
 2183 00a6 9BB2     		uxth	r3, r3
 2184 00a8 43F00103 		orr	r3, r3, #1
 2185 00ac 9AB2     		uxth	r2, r3
 2186 00ae 7B68     		ldr	r3, [r7, #4]
 2187 00b0 1A80     		strh	r2, [r3]	@ movhi
 2188 00b2 07E0     		b	.L90
 2189              	.L93:
 596:App/STM32F4-Discovery/Libraries/STM32F4xx_StdPeriph_Driver/src/stm32f4xx_tim.c ****   }
 597:App/STM32F4-Discovery/Libraries/STM32F4xx_StdPeriph_Driver/src/stm32f4xx_tim.c ****   else
 598:App/STM32F4-Discovery/Libraries/STM32F4xx_StdPeriph_Driver/src/stm32f4xx_tim.c ****   {
 599:App/STM32F4-Discovery/Libraries/STM32F4xx_StdPeriph_Driver/src/stm32f4xx_tim.c ****     /* Disable the TIM Counter */
 600:App/STM32F4-Discovery/Libraries/STM32F4xx_StdPeriph_Driver/src/stm32f4xx_tim.c ****     TIMx->CR1 &= (uint16_t)~TIM_CR1_CEN;
 2190              		.loc 1 600 0
 2191 00b4 7B68     		ldr	r3, [r7, #4]
 2192 00b6 1B88     		ldrh	r3, [r3]	@ movhi
 2193 00b8 9BB2     		uxth	r3, r3
 2194 00ba 23F00103 		bic	r3, r3, #1
 2195 00be 9AB2     		uxth	r2, r3
 2196 00c0 7B68     		ldr	r3, [r7, #4]
 2197 00c2 1A80     		strh	r2, [r3]	@ movhi
 2198              	.L90:
 601:App/STM32F4-Discovery/Libraries/STM32F4xx_StdPeriph_Driver/src/stm32f4xx_tim.c ****   }
 602:App/STM32F4-Discovery/Libraries/STM32F4xx_StdPeriph_Driver/src/stm32f4xx_tim.c **** }
 2199              		.loc 1 602 0
 2200 00c4 0837     		adds	r7, r7, #8
 2201 00c6 BD46     		mov	sp, r7
 2202              		@ sp needed
 2203 00c8 80BD     		pop	{r7, pc}
 2204              	.L96:
 2205 00ca 00BF     		.align	2
 2206              	.L95:
 2207 00cc 00000140 		.word	1073807360
 2208 00d0 00040040 		.word	1073742848
 2209 00d4 00080040 		.word	1073743872
 2210 00d8 000C0040 		.word	1073744896
 2211 00dc 00100040 		.word	1073745920
 2212 00e0 00140040 		.word	1073746944
 2213 00e4 00040140 		.word	1073808384
 2214 00e8 00400140 		.word	1073823744
 2215 00ec 00440140 		.word	1073824768
 2216 00f0 00480140 		.word	1073825792
 2217 00f4 00180040 		.word	1073747968
 2218 00f8 001C0040 		.word	1073748992
 2219 00fc 00200040 		.word	1073750016
 2220 0100 00000000 		.word	.LC0
 2221              		.cfi_endproc
 2222              	.LFE124:
 2224              		.section	.text.TIM_OC1Init,"ax",%progbits
 2225              		.align	2
 2226              		.global	TIM_OC1Init
 2227              		.thumb
 2228              		.thumb_func
 2230              	TIM_OC1Init:
 2231              	.LFB125:
 603:App/STM32F4-Discovery/Libraries/STM32F4xx_StdPeriph_Driver/src/stm32f4xx_tim.c **** /**
 604:App/STM32F4-Discovery/Libraries/STM32F4xx_StdPeriph_Driver/src/stm32f4xx_tim.c ****   * @}
 605:App/STM32F4-Discovery/Libraries/STM32F4xx_StdPeriph_Driver/src/stm32f4xx_tim.c ****   */
 606:App/STM32F4-Discovery/Libraries/STM32F4xx_StdPeriph_Driver/src/stm32f4xx_tim.c **** 
 607:App/STM32F4-Discovery/Libraries/STM32F4xx_StdPeriph_Driver/src/stm32f4xx_tim.c **** /** @defgroup TIM_Group2 Output Compare management functions
 608:App/STM32F4-Discovery/Libraries/STM32F4xx_StdPeriph_Driver/src/stm32f4xx_tim.c ****  *  @brief    Output Compare management functions 
 609:App/STM32F4-Discovery/Libraries/STM32F4xx_StdPeriph_Driver/src/stm32f4xx_tim.c ****  *
 610:App/STM32F4-Discovery/Libraries/STM32F4xx_StdPeriph_Driver/src/stm32f4xx_tim.c **** @verbatim   
 611:App/STM32F4-Discovery/Libraries/STM32F4xx_StdPeriph_Driver/src/stm32f4xx_tim.c ****  ===============================================================================
 612:App/STM32F4-Discovery/Libraries/STM32F4xx_StdPeriph_Driver/src/stm32f4xx_tim.c ****                         Output Compare management functions
 613:App/STM32F4-Discovery/Libraries/STM32F4xx_StdPeriph_Driver/src/stm32f4xx_tim.c ****  ===============================================================================  
 614:App/STM32F4-Discovery/Libraries/STM32F4xx_StdPeriph_Driver/src/stm32f4xx_tim.c ****    
 615:App/STM32F4-Discovery/Libraries/STM32F4xx_StdPeriph_Driver/src/stm32f4xx_tim.c ****        ===================================================================      
 616:App/STM32F4-Discovery/Libraries/STM32F4xx_StdPeriph_Driver/src/stm32f4xx_tim.c ****               TIM Driver: how to use it in Output Compare Mode
 617:App/STM32F4-Discovery/Libraries/STM32F4xx_StdPeriph_Driver/src/stm32f4xx_tim.c ****        =================================================================== 
 618:App/STM32F4-Discovery/Libraries/STM32F4xx_StdPeriph_Driver/src/stm32f4xx_tim.c ****        To use the Timer in Output Compare mode, the following steps are mandatory:
 619:App/STM32F4-Discovery/Libraries/STM32F4xx_StdPeriph_Driver/src/stm32f4xx_tim.c ****        
 620:App/STM32F4-Discovery/Libraries/STM32F4xx_StdPeriph_Driver/src/stm32f4xx_tim.c ****        1. Enable TIM clock using RCC_APBxPeriphClockCmd(RCC_APBxPeriph_TIMx, ENABLE) function
 621:App/STM32F4-Discovery/Libraries/STM32F4xx_StdPeriph_Driver/src/stm32f4xx_tim.c ****        
 622:App/STM32F4-Discovery/Libraries/STM32F4xx_StdPeriph_Driver/src/stm32f4xx_tim.c ****        2. Configure the TIM pins by configuring the corresponding GPIO pins
 623:App/STM32F4-Discovery/Libraries/STM32F4xx_StdPeriph_Driver/src/stm32f4xx_tim.c ****        
 624:App/STM32F4-Discovery/Libraries/STM32F4xx_StdPeriph_Driver/src/stm32f4xx_tim.c ****        2. Configure the Time base unit as described in the first part of this driver, 
 625:App/STM32F4-Discovery/Libraries/STM32F4xx_StdPeriph_Driver/src/stm32f4xx_tim.c ****           if needed, else the Timer will run with the default configuration:
 626:App/STM32F4-Discovery/Libraries/STM32F4xx_StdPeriph_Driver/src/stm32f4xx_tim.c ****           - Autoreload value = 0xFFFF
 627:App/STM32F4-Discovery/Libraries/STM32F4xx_StdPeriph_Driver/src/stm32f4xx_tim.c ****           - Prescaler value = 0x0000
 628:App/STM32F4-Discovery/Libraries/STM32F4xx_StdPeriph_Driver/src/stm32f4xx_tim.c ****           - Counter mode = Up counting
 629:App/STM32F4-Discovery/Libraries/STM32F4xx_StdPeriph_Driver/src/stm32f4xx_tim.c ****           - Clock Division = TIM_CKD_DIV1
 630:App/STM32F4-Discovery/Libraries/STM32F4xx_StdPeriph_Driver/src/stm32f4xx_tim.c ****           
 631:App/STM32F4-Discovery/Libraries/STM32F4xx_StdPeriph_Driver/src/stm32f4xx_tim.c ****        3. Fill the TIM_OCInitStruct with the desired parameters including:
 632:App/STM32F4-Discovery/Libraries/STM32F4xx_StdPeriph_Driver/src/stm32f4xx_tim.c ****           - The TIM Output Compare mode: TIM_OCMode
 633:App/STM32F4-Discovery/Libraries/STM32F4xx_StdPeriph_Driver/src/stm32f4xx_tim.c ****           - TIM Output State: TIM_OutputState
 634:App/STM32F4-Discovery/Libraries/STM32F4xx_StdPeriph_Driver/src/stm32f4xx_tim.c ****           - TIM Pulse value: TIM_Pulse
 635:App/STM32F4-Discovery/Libraries/STM32F4xx_StdPeriph_Driver/src/stm32f4xx_tim.c ****           - TIM Output Compare Polarity : TIM_OCPolarity
 636:App/STM32F4-Discovery/Libraries/STM32F4xx_StdPeriph_Driver/src/stm32f4xx_tim.c ****        
 637:App/STM32F4-Discovery/Libraries/STM32F4xx_StdPeriph_Driver/src/stm32f4xx_tim.c ****        4. Call TIM_OCxInit(TIMx, &TIM_OCInitStruct) to configure the desired channel with the 
 638:App/STM32F4-Discovery/Libraries/STM32F4xx_StdPeriph_Driver/src/stm32f4xx_tim.c ****           corresponding configuration
 639:App/STM32F4-Discovery/Libraries/STM32F4xx_StdPeriph_Driver/src/stm32f4xx_tim.c ****        
 640:App/STM32F4-Discovery/Libraries/STM32F4xx_StdPeriph_Driver/src/stm32f4xx_tim.c ****        5. Call the TIM_Cmd(ENABLE) function to enable the TIM counter.
 641:App/STM32F4-Discovery/Libraries/STM32F4xx_StdPeriph_Driver/src/stm32f4xx_tim.c ****        
 642:App/STM32F4-Discovery/Libraries/STM32F4xx_StdPeriph_Driver/src/stm32f4xx_tim.c ****        Note1: All other functions can be used separately to modify, if needed,
 643:App/STM32F4-Discovery/Libraries/STM32F4xx_StdPeriph_Driver/src/stm32f4xx_tim.c ****               a specific feature of the Timer. 
 644:App/STM32F4-Discovery/Libraries/STM32F4xx_StdPeriph_Driver/src/stm32f4xx_tim.c ****           
 645:App/STM32F4-Discovery/Libraries/STM32F4xx_StdPeriph_Driver/src/stm32f4xx_tim.c ****        Note2: In case of PWM mode, this function is mandatory:
 646:App/STM32F4-Discovery/Libraries/STM32F4xx_StdPeriph_Driver/src/stm32f4xx_tim.c ****               TIM_OCxPreloadConfig(TIMx, TIM_OCPreload_ENABLE); 
 647:App/STM32F4-Discovery/Libraries/STM32F4xx_StdPeriph_Driver/src/stm32f4xx_tim.c ****               
 648:App/STM32F4-Discovery/Libraries/STM32F4xx_StdPeriph_Driver/src/stm32f4xx_tim.c ****        Note3: If the corresponding interrupt or DMA request are needed, the user should:
 649:App/STM32F4-Discovery/Libraries/STM32F4xx_StdPeriph_Driver/src/stm32f4xx_tim.c ****                 1. Enable the NVIC (or the DMA) to use the TIM interrupts (or DMA requests). 
 650:App/STM32F4-Discovery/Libraries/STM32F4xx_StdPeriph_Driver/src/stm32f4xx_tim.c ****                 2. Enable the corresponding interrupt (or DMA request) using the function 
 651:App/STM32F4-Discovery/Libraries/STM32F4xx_StdPeriph_Driver/src/stm32f4xx_tim.c ****                    TIM_ITConfig(TIMx, TIM_IT_CCx) (or TIM_DMA_Cmd(TIMx, TIM_DMA_CCx))   
 652:App/STM32F4-Discovery/Libraries/STM32F4xx_StdPeriph_Driver/src/stm32f4xx_tim.c **** 
 653:App/STM32F4-Discovery/Libraries/STM32F4xx_StdPeriph_Driver/src/stm32f4xx_tim.c **** @endverbatim
 654:App/STM32F4-Discovery/Libraries/STM32F4xx_StdPeriph_Driver/src/stm32f4xx_tim.c ****   * @{
 655:App/STM32F4-Discovery/Libraries/STM32F4xx_StdPeriph_Driver/src/stm32f4xx_tim.c ****   */
 656:App/STM32F4-Discovery/Libraries/STM32F4xx_StdPeriph_Driver/src/stm32f4xx_tim.c **** 
 657:App/STM32F4-Discovery/Libraries/STM32F4xx_StdPeriph_Driver/src/stm32f4xx_tim.c **** /**
 658:App/STM32F4-Discovery/Libraries/STM32F4xx_StdPeriph_Driver/src/stm32f4xx_tim.c ****   * @brief  Initializes the TIMx Channel1 according to the specified parameters in
 659:App/STM32F4-Discovery/Libraries/STM32F4xx_StdPeriph_Driver/src/stm32f4xx_tim.c ****   *         the TIM_OCInitStruct.
 660:App/STM32F4-Discovery/Libraries/STM32F4xx_StdPeriph_Driver/src/stm32f4xx_tim.c ****   * @param  TIMx: where x can be 1 to 14 except 6 and 7, to select the TIM peripheral.
 661:App/STM32F4-Discovery/Libraries/STM32F4xx_StdPeriph_Driver/src/stm32f4xx_tim.c ****   * @param  TIM_OCInitStruct: pointer to a TIM_OCInitTypeDef structure that contains
 662:App/STM32F4-Discovery/Libraries/STM32F4xx_StdPeriph_Driver/src/stm32f4xx_tim.c ****   *         the configuration information for the specified TIM peripheral.
 663:App/STM32F4-Discovery/Libraries/STM32F4xx_StdPeriph_Driver/src/stm32f4xx_tim.c ****   * @retval None
 664:App/STM32F4-Discovery/Libraries/STM32F4xx_StdPeriph_Driver/src/stm32f4xx_tim.c ****   */
 665:App/STM32F4-Discovery/Libraries/STM32F4xx_StdPeriph_Driver/src/stm32f4xx_tim.c **** void TIM_OC1Init(TIM_TypeDef* TIMx, TIM_OCInitTypeDef* TIM_OCInitStruct)
 666:App/STM32F4-Discovery/Libraries/STM32F4xx_StdPeriph_Driver/src/stm32f4xx_tim.c **** {
 2232              		.loc 1 666 0
 2233              		.cfi_startproc
 2234              		@ args = 0, pretend = 0, frame = 16
 2235              		@ frame_needed = 1, uses_anonymous_args = 0
 2236 0000 80B5     		push	{r7, lr}
 2237              	.LCFI45:
 2238              		.cfi_def_cfa_offset 8
 2239              		.cfi_offset 7, -8
 2240              		.cfi_offset 14, -4
 2241 0002 84B0     		sub	sp, sp, #16
 2242              	.LCFI46:
 2243              		.cfi_def_cfa_offset 24
 2244 0004 00AF     		add	r7, sp, #0
 2245              	.LCFI47:
 2246              		.cfi_def_cfa_register 7
 2247 0006 7860     		str	r0, [r7, #4]
 2248 0008 3960     		str	r1, [r7]
 667:App/STM32F4-Discovery/Libraries/STM32F4xx_StdPeriph_Driver/src/stm32f4xx_tim.c ****   uint16_t tmpccmrx = 0, tmpccer = 0, tmpcr2 = 0;
 2249              		.loc 1 667 0
 2250 000a 0023     		movs	r3, #0
 2251 000c 7B81     		strh	r3, [r7, #10]	@ movhi
 2252 000e 0023     		movs	r3, #0
 2253 0010 FB81     		strh	r3, [r7, #14]	@ movhi
 2254 0012 0023     		movs	r3, #0
 2255 0014 BB81     		strh	r3, [r7, #12]	@ movhi
 668:App/STM32F4-Discovery/Libraries/STM32F4xx_StdPeriph_Driver/src/stm32f4xx_tim.c ****    
 669:App/STM32F4-Discovery/Libraries/STM32F4xx_StdPeriph_Driver/src/stm32f4xx_tim.c ****   /* Check the parameters */
 670:App/STM32F4-Discovery/Libraries/STM32F4xx_StdPeriph_Driver/src/stm32f4xx_tim.c ****   assert_param(IS_TIM_LIST1_PERIPH(TIMx)); 
 2256              		.loc 1 670 0
 2257 0016 7A68     		ldr	r2, [r7, #4]
 2258 0018 844B     		ldr	r3, .L108
 2259 001a 9A42     		cmp	r2, r3
 2260 001c 30D0     		beq	.L98
 2261              		.loc 1 670 0 is_stmt 0 discriminator 1
 2262 001e 7B68     		ldr	r3, [r7, #4]
 2263 0020 B3F1804F 		cmp	r3, #1073741824
 2264 0024 2CD0     		beq	.L98
 2265 0026 7A68     		ldr	r2, [r7, #4]
 2266 0028 814B     		ldr	r3, .L108+4
 2267 002a 9A42     		cmp	r2, r3
 2268 002c 28D0     		beq	.L98
 2269 002e 7A68     		ldr	r2, [r7, #4]
 2270 0030 804B     		ldr	r3, .L108+8
 2271 0032 9A42     		cmp	r2, r3
 2272 0034 24D0     		beq	.L98
 2273 0036 7A68     		ldr	r2, [r7, #4]
 2274 0038 7F4B     		ldr	r3, .L108+12
 2275 003a 9A42     		cmp	r2, r3
 2276 003c 20D0     		beq	.L98
 2277 003e 7A68     		ldr	r2, [r7, #4]
 2278 0040 7E4B     		ldr	r3, .L108+16
 2279 0042 9A42     		cmp	r2, r3
 2280 0044 1CD0     		beq	.L98
 2281 0046 7A68     		ldr	r2, [r7, #4]
 2282 0048 7D4B     		ldr	r3, .L108+20
 2283 004a 9A42     		cmp	r2, r3
 2284 004c 18D0     		beq	.L98
 2285 004e 7A68     		ldr	r2, [r7, #4]
 2286 0050 7C4B     		ldr	r3, .L108+24
 2287 0052 9A42     		cmp	r2, r3
 2288 0054 14D0     		beq	.L98
 2289 0056 7A68     		ldr	r2, [r7, #4]
 2290 0058 7B4B     		ldr	r3, .L108+28
 2291 005a 9A42     		cmp	r2, r3
 2292 005c 10D0     		beq	.L98
 2293 005e 7A68     		ldr	r2, [r7, #4]
 2294 0060 7A4B     		ldr	r3, .L108+32
 2295 0062 9A42     		cmp	r2, r3
 2296 0064 0CD0     		beq	.L98
 2297 0066 7A68     		ldr	r2, [r7, #4]
 2298 0068 794B     		ldr	r3, .L108+36
 2299 006a 9A42     		cmp	r2, r3
 2300 006c 08D0     		beq	.L98
 2301 006e 7A68     		ldr	r2, [r7, #4]
 2302 0070 784B     		ldr	r3, .L108+40
 2303 0072 9A42     		cmp	r2, r3
 2304 0074 04D0     		beq	.L98
 2305 0076 7848     		ldr	r0, .L108+44
 2306 0078 40F29E21 		movw	r1, #670
 2307 007c FFF7FEFF 		bl	assert_failed
 2308              	.L98:
 671:App/STM32F4-Discovery/Libraries/STM32F4xx_StdPeriph_Driver/src/stm32f4xx_tim.c ****   assert_param(IS_TIM_OC_MODE(TIM_OCInitStruct->TIM_OCMode));
 2309              		.loc 1 671 0 is_stmt 1
 2310 0080 3B68     		ldr	r3, [r7]
 2311 0082 1B88     		ldrh	r3, [r3]
 2312 0084 002B     		cmp	r3, #0
 2313 0086 18D0     		beq	.L99
 2314              		.loc 1 671 0 is_stmt 0 discriminator 1
 2315 0088 3B68     		ldr	r3, [r7]
 2316 008a 1B88     		ldrh	r3, [r3]
 2317 008c 102B     		cmp	r3, #16
 2318 008e 14D0     		beq	.L99
 2319 0090 3B68     		ldr	r3, [r7]
 2320 0092 1B88     		ldrh	r3, [r3]
 2321 0094 202B     		cmp	r3, #32
 2322 0096 10D0     		beq	.L99
 2323 0098 3B68     		ldr	r3, [r7]
 2324 009a 1B88     		ldrh	r3, [r3]
 2325 009c 302B     		cmp	r3, #48
 2326 009e 0CD0     		beq	.L99
 2327 00a0 3B68     		ldr	r3, [r7]
 2328 00a2 1B88     		ldrh	r3, [r3]
 2329 00a4 602B     		cmp	r3, #96
 2330 00a6 08D0     		beq	.L99
 2331 00a8 3B68     		ldr	r3, [r7]
 2332 00aa 1B88     		ldrh	r3, [r3]
 2333 00ac 702B     		cmp	r3, #112
 2334 00ae 04D0     		beq	.L99
 2335 00b0 6948     		ldr	r0, .L108+44
 2336 00b2 40F29F21 		movw	r1, #671
 2337 00b6 FFF7FEFF 		bl	assert_failed
 2338              	.L99:
 672:App/STM32F4-Discovery/Libraries/STM32F4xx_StdPeriph_Driver/src/stm32f4xx_tim.c ****   assert_param(IS_TIM_OUTPUT_STATE(TIM_OCInitStruct->TIM_OutputState));
 2339              		.loc 1 672 0 is_stmt 1
 2340 00ba 3B68     		ldr	r3, [r7]
 2341 00bc 5B88     		ldrh	r3, [r3, #2]
 2342 00be 002B     		cmp	r3, #0
 2343 00c0 08D0     		beq	.L100
 2344              		.loc 1 672 0 is_stmt 0 discriminator 1
 2345 00c2 3B68     		ldr	r3, [r7]
 2346 00c4 5B88     		ldrh	r3, [r3, #2]
 2347 00c6 012B     		cmp	r3, #1
 2348 00c8 04D0     		beq	.L100
 2349 00ca 6348     		ldr	r0, .L108+44
 2350 00cc 4FF42871 		mov	r1, #672
 2351 00d0 FFF7FEFF 		bl	assert_failed
 2352              	.L100:
 673:App/STM32F4-Discovery/Libraries/STM32F4xx_StdPeriph_Driver/src/stm32f4xx_tim.c ****   assert_param(IS_TIM_OC_POLARITY(TIM_OCInitStruct->TIM_OCPolarity));   
 2353              		.loc 1 673 0 is_stmt 1
 2354 00d4 3B68     		ldr	r3, [r7]
 2355 00d6 9B89     		ldrh	r3, [r3, #12]
 2356 00d8 002B     		cmp	r3, #0
 2357 00da 08D0     		beq	.L101
 2358              		.loc 1 673 0 is_stmt 0 discriminator 1
 2359 00dc 3B68     		ldr	r3, [r7]
 2360 00de 9B89     		ldrh	r3, [r3, #12]
 2361 00e0 022B     		cmp	r3, #2
 2362 00e2 04D0     		beq	.L101
 2363 00e4 5C48     		ldr	r0, .L108+44
 2364 00e6 40F2A121 		movw	r1, #673
 2365 00ea FFF7FEFF 		bl	assert_failed
 2366              	.L101:
 674:App/STM32F4-Discovery/Libraries/STM32F4xx_StdPeriph_Driver/src/stm32f4xx_tim.c **** 
 675:App/STM32F4-Discovery/Libraries/STM32F4xx_StdPeriph_Driver/src/stm32f4xx_tim.c ****   /* Disable the Channel 1: Reset the CC1E Bit */
 676:App/STM32F4-Discovery/Libraries/STM32F4xx_StdPeriph_Driver/src/stm32f4xx_tim.c ****   TIMx->CCER &= (uint16_t)~TIM_CCER_CC1E;
 2367              		.loc 1 676 0 is_stmt 1
 2368 00ee 7B68     		ldr	r3, [r7, #4]
 2369 00f0 1B8C     		ldrh	r3, [r3, #32]	@ movhi
 2370 00f2 9BB2     		uxth	r3, r3
 2371 00f4 23F00103 		bic	r3, r3, #1
 2372 00f8 9AB2     		uxth	r2, r3
 2373 00fa 7B68     		ldr	r3, [r7, #4]
 2374 00fc 1A84     		strh	r2, [r3, #32]	@ movhi
 677:App/STM32F4-Discovery/Libraries/STM32F4xx_StdPeriph_Driver/src/stm32f4xx_tim.c ****   
 678:App/STM32F4-Discovery/Libraries/STM32F4xx_StdPeriph_Driver/src/stm32f4xx_tim.c ****   /* Get the TIMx CCER register value */
 679:App/STM32F4-Discovery/Libraries/STM32F4xx_StdPeriph_Driver/src/stm32f4xx_tim.c ****   tmpccer = TIMx->CCER;
 2375              		.loc 1 679 0
 2376 00fe 7B68     		ldr	r3, [r7, #4]
 2377 0100 1B8C     		ldrh	r3, [r3, #32]	@ movhi
 2378 0102 FB81     		strh	r3, [r7, #14]	@ movhi
 680:App/STM32F4-Discovery/Libraries/STM32F4xx_StdPeriph_Driver/src/stm32f4xx_tim.c ****   /* Get the TIMx CR2 register value */
 681:App/STM32F4-Discovery/Libraries/STM32F4xx_StdPeriph_Driver/src/stm32f4xx_tim.c ****   tmpcr2 =  TIMx->CR2;
 2379              		.loc 1 681 0
 2380 0104 7B68     		ldr	r3, [r7, #4]
 2381 0106 9B88     		ldrh	r3, [r3, #4]	@ movhi
 2382 0108 BB81     		strh	r3, [r7, #12]	@ movhi
 682:App/STM32F4-Discovery/Libraries/STM32F4xx_StdPeriph_Driver/src/stm32f4xx_tim.c ****   
 683:App/STM32F4-Discovery/Libraries/STM32F4xx_StdPeriph_Driver/src/stm32f4xx_tim.c ****   /* Get the TIMx CCMR1 register value */
 684:App/STM32F4-Discovery/Libraries/STM32F4xx_StdPeriph_Driver/src/stm32f4xx_tim.c ****   tmpccmrx = TIMx->CCMR1;
 2383              		.loc 1 684 0
 2384 010a 7B68     		ldr	r3, [r7, #4]
 2385 010c 1B8B     		ldrh	r3, [r3, #24]	@ movhi
 2386 010e 7B81     		strh	r3, [r7, #10]	@ movhi
 685:App/STM32F4-Discovery/Libraries/STM32F4xx_StdPeriph_Driver/src/stm32f4xx_tim.c ****     
 686:App/STM32F4-Discovery/Libraries/STM32F4xx_StdPeriph_Driver/src/stm32f4xx_tim.c ****   /* Reset the Output Compare Mode Bits */
 687:App/STM32F4-Discovery/Libraries/STM32F4xx_StdPeriph_Driver/src/stm32f4xx_tim.c ****   tmpccmrx &= (uint16_t)~TIM_CCMR1_OC1M;
 2387              		.loc 1 687 0
 2388 0110 7B89     		ldrh	r3, [r7, #10]	@ movhi
 2389 0112 23F07003 		bic	r3, r3, #112
 2390 0116 7B81     		strh	r3, [r7, #10]	@ movhi
 688:App/STM32F4-Discovery/Libraries/STM32F4xx_StdPeriph_Driver/src/stm32f4xx_tim.c ****   tmpccmrx &= (uint16_t)~TIM_CCMR1_CC1S;
 2391              		.loc 1 688 0
 2392 0118 7B89     		ldrh	r3, [r7, #10]	@ movhi
 2393 011a 23F00303 		bic	r3, r3, #3
 2394 011e 7B81     		strh	r3, [r7, #10]	@ movhi
 689:App/STM32F4-Discovery/Libraries/STM32F4xx_StdPeriph_Driver/src/stm32f4xx_tim.c ****   /* Select the Output Compare Mode */
 690:App/STM32F4-Discovery/Libraries/STM32F4xx_StdPeriph_Driver/src/stm32f4xx_tim.c ****   tmpccmrx |= TIM_OCInitStruct->TIM_OCMode;
 2395              		.loc 1 690 0
 2396 0120 3B68     		ldr	r3, [r7]
 2397 0122 1A88     		ldrh	r2, [r3]
 2398 0124 7B89     		ldrh	r3, [r7, #10]	@ movhi
 2399 0126 1343     		orrs	r3, r3, r2
 2400 0128 7B81     		strh	r3, [r7, #10]	@ movhi
 691:App/STM32F4-Discovery/Libraries/STM32F4xx_StdPeriph_Driver/src/stm32f4xx_tim.c ****   
 692:App/STM32F4-Discovery/Libraries/STM32F4xx_StdPeriph_Driver/src/stm32f4xx_tim.c ****   /* Reset the Output Polarity level */
 693:App/STM32F4-Discovery/Libraries/STM32F4xx_StdPeriph_Driver/src/stm32f4xx_tim.c ****   tmpccer &= (uint16_t)~TIM_CCER_CC1P;
 2401              		.loc 1 693 0
 2402 012a FB89     		ldrh	r3, [r7, #14]	@ movhi
 2403 012c 23F00203 		bic	r3, r3, #2
 2404 0130 FB81     		strh	r3, [r7, #14]	@ movhi
 694:App/STM32F4-Discovery/Libraries/STM32F4xx_StdPeriph_Driver/src/stm32f4xx_tim.c ****   /* Set the Output Compare Polarity */
 695:App/STM32F4-Discovery/Libraries/STM32F4xx_StdPeriph_Driver/src/stm32f4xx_tim.c ****   tmpccer |= TIM_OCInitStruct->TIM_OCPolarity;
 2405              		.loc 1 695 0
 2406 0132 3B68     		ldr	r3, [r7]
 2407 0134 9A89     		ldrh	r2, [r3, #12]
 2408 0136 FB89     		ldrh	r3, [r7, #14]	@ movhi
 2409 0138 1343     		orrs	r3, r3, r2
 2410 013a FB81     		strh	r3, [r7, #14]	@ movhi
 696:App/STM32F4-Discovery/Libraries/STM32F4xx_StdPeriph_Driver/src/stm32f4xx_tim.c ****   
 697:App/STM32F4-Discovery/Libraries/STM32F4xx_StdPeriph_Driver/src/stm32f4xx_tim.c ****   /* Set the Output State */
 698:App/STM32F4-Discovery/Libraries/STM32F4xx_StdPeriph_Driver/src/stm32f4xx_tim.c ****   tmpccer |= TIM_OCInitStruct->TIM_OutputState;
 2411              		.loc 1 698 0
 2412 013c 3B68     		ldr	r3, [r7]
 2413 013e 5A88     		ldrh	r2, [r3, #2]
 2414 0140 FB89     		ldrh	r3, [r7, #14]	@ movhi
 2415 0142 1343     		orrs	r3, r3, r2
 2416 0144 FB81     		strh	r3, [r7, #14]	@ movhi
 699:App/STM32F4-Discovery/Libraries/STM32F4xx_StdPeriph_Driver/src/stm32f4xx_tim.c ****     
 700:App/STM32F4-Discovery/Libraries/STM32F4xx_StdPeriph_Driver/src/stm32f4xx_tim.c ****   if((TIMx == TIM1) || (TIMx == TIM8))
 2417              		.loc 1 700 0
 2418 0146 7A68     		ldr	r2, [r7, #4]
 2419 0148 384B     		ldr	r3, .L108
 2420 014a 9A42     		cmp	r2, r3
 2421 014c 03D0     		beq	.L102
 2422              		.loc 1 700 0 is_stmt 0 discriminator 1
 2423 014e 7A68     		ldr	r2, [r7, #4]
 2424 0150 3A4B     		ldr	r3, .L108+16
 2425 0152 9A42     		cmp	r2, r3
 2426 0154 59D1     		bne	.L103
 2427              	.L102:
 701:App/STM32F4-Discovery/Libraries/STM32F4xx_StdPeriph_Driver/src/stm32f4xx_tim.c ****   {
 702:App/STM32F4-Discovery/Libraries/STM32F4xx_StdPeriph_Driver/src/stm32f4xx_tim.c ****     assert_param(IS_TIM_OUTPUTN_STATE(TIM_OCInitStruct->TIM_OutputNState));
 2428              		.loc 1 702 0 is_stmt 1
 2429 0156 3B68     		ldr	r3, [r7]
 2430 0158 9B88     		ldrh	r3, [r3, #4]
 2431 015a 002B     		cmp	r3, #0
 2432 015c 08D0     		beq	.L104
 2433              		.loc 1 702 0 is_stmt 0 discriminator 1
 2434 015e 3B68     		ldr	r3, [r7]
 2435 0160 9B88     		ldrh	r3, [r3, #4]
 2436 0162 042B     		cmp	r3, #4
 2437 0164 04D0     		beq	.L104
 2438 0166 3C48     		ldr	r0, .L108+44
 2439 0168 40F2BE21 		movw	r1, #702
 2440 016c FFF7FEFF 		bl	assert_failed
 2441              	.L104:
 703:App/STM32F4-Discovery/Libraries/STM32F4xx_StdPeriph_Driver/src/stm32f4xx_tim.c ****     assert_param(IS_TIM_OCN_POLARITY(TIM_OCInitStruct->TIM_OCNPolarity));
 2442              		.loc 1 703 0 is_stmt 1
 2443 0170 3B68     		ldr	r3, [r7]
 2444 0172 DB89     		ldrh	r3, [r3, #14]
 2445 0174 002B     		cmp	r3, #0
 2446 0176 08D0     		beq	.L105
 2447              		.loc 1 703 0 is_stmt 0 discriminator 1
 2448 0178 3B68     		ldr	r3, [r7]
 2449 017a DB89     		ldrh	r3, [r3, #14]
 2450 017c 082B     		cmp	r3, #8
 2451 017e 04D0     		beq	.L105
 2452 0180 3548     		ldr	r0, .L108+44
 2453 0182 40F2BF21 		movw	r1, #703
 2454 0186 FFF7FEFF 		bl	assert_failed
 2455              	.L105:
 704:App/STM32F4-Discovery/Libraries/STM32F4xx_StdPeriph_Driver/src/stm32f4xx_tim.c ****     assert_param(IS_TIM_OCNIDLE_STATE(TIM_OCInitStruct->TIM_OCNIdleState));
 2456              		.loc 1 704 0 is_stmt 1
 2457 018a 3B68     		ldr	r3, [r7]
 2458 018c 5B8A     		ldrh	r3, [r3, #18]
 2459 018e B3F5007F 		cmp	r3, #512
 2460 0192 08D0     		beq	.L106
 2461              		.loc 1 704 0 is_stmt 0 discriminator 1
 2462 0194 3B68     		ldr	r3, [r7]
 2463 0196 5B8A     		ldrh	r3, [r3, #18]
 2464 0198 002B     		cmp	r3, #0
 2465 019a 04D0     		beq	.L106
 2466 019c 2E48     		ldr	r0, .L108+44
 2467 019e 4FF43071 		mov	r1, #704
 2468 01a2 FFF7FEFF 		bl	assert_failed
 2469              	.L106:
 705:App/STM32F4-Discovery/Libraries/STM32F4xx_StdPeriph_Driver/src/stm32f4xx_tim.c ****     assert_param(IS_TIM_OCIDLE_STATE(TIM_OCInitStruct->TIM_OCIdleState));
 2470              		.loc 1 705 0 is_stmt 1
 2471 01a6 3B68     		ldr	r3, [r7]
 2472 01a8 1B8A     		ldrh	r3, [r3, #16]
 2473 01aa B3F5807F 		cmp	r3, #256
 2474 01ae 08D0     		beq	.L107
 2475              		.loc 1 705 0 is_stmt 0 discriminator 1
 2476 01b0 3B68     		ldr	r3, [r7]
 2477 01b2 1B8A     		ldrh	r3, [r3, #16]
 2478 01b4 002B     		cmp	r3, #0
 2479 01b6 04D0     		beq	.L107
 2480 01b8 2748     		ldr	r0, .L108+44
 2481 01ba 40F2C121 		movw	r1, #705
 2482 01be FFF7FEFF 		bl	assert_failed
 2483              	.L107:
 706:App/STM32F4-Discovery/Libraries/STM32F4xx_StdPeriph_Driver/src/stm32f4xx_tim.c ****     
 707:App/STM32F4-Discovery/Libraries/STM32F4xx_StdPeriph_Driver/src/stm32f4xx_tim.c ****     /* Reset the Output N Polarity level */
 708:App/STM32F4-Discovery/Libraries/STM32F4xx_StdPeriph_Driver/src/stm32f4xx_tim.c ****     tmpccer &= (uint16_t)~TIM_CCER_CC1NP;
 2484              		.loc 1 708 0 is_stmt 1
 2485 01c2 FB89     		ldrh	r3, [r7, #14]	@ movhi
 2486 01c4 23F00803 		bic	r3, r3, #8
 2487 01c8 FB81     		strh	r3, [r7, #14]	@ movhi
 709:App/STM32F4-Discovery/Libraries/STM32F4xx_StdPeriph_Driver/src/stm32f4xx_tim.c ****     /* Set the Output N Polarity */
 710:App/STM32F4-Discovery/Libraries/STM32F4xx_StdPeriph_Driver/src/stm32f4xx_tim.c ****     tmpccer |= TIM_OCInitStruct->TIM_OCNPolarity;
 2488              		.loc 1 710 0
 2489 01ca 3B68     		ldr	r3, [r7]
 2490 01cc DA89     		ldrh	r2, [r3, #14]
 2491 01ce FB89     		ldrh	r3, [r7, #14]	@ movhi
 2492 01d0 1343     		orrs	r3, r3, r2
 2493 01d2 FB81     		strh	r3, [r7, #14]	@ movhi
 711:App/STM32F4-Discovery/Libraries/STM32F4xx_StdPeriph_Driver/src/stm32f4xx_tim.c ****     /* Reset the Output N State */
 712:App/STM32F4-Discovery/Libraries/STM32F4xx_StdPeriph_Driver/src/stm32f4xx_tim.c ****     tmpccer &= (uint16_t)~TIM_CCER_CC1NE;
 2494              		.loc 1 712 0
 2495 01d4 FB89     		ldrh	r3, [r7, #14]	@ movhi
 2496 01d6 23F00403 		bic	r3, r3, #4
 2497 01da FB81     		strh	r3, [r7, #14]	@ movhi
 713:App/STM32F4-Discovery/Libraries/STM32F4xx_StdPeriph_Driver/src/stm32f4xx_tim.c ****     
 714:App/STM32F4-Discovery/Libraries/STM32F4xx_StdPeriph_Driver/src/stm32f4xx_tim.c ****     /* Set the Output N State */
 715:App/STM32F4-Discovery/Libraries/STM32F4xx_StdPeriph_Driver/src/stm32f4xx_tim.c ****     tmpccer |= TIM_OCInitStruct->TIM_OutputNState;
 2498              		.loc 1 715 0
 2499 01dc 3B68     		ldr	r3, [r7]
 2500 01de 9A88     		ldrh	r2, [r3, #4]
 2501 01e0 FB89     		ldrh	r3, [r7, #14]	@ movhi
 2502 01e2 1343     		orrs	r3, r3, r2
 2503 01e4 FB81     		strh	r3, [r7, #14]	@ movhi
 716:App/STM32F4-Discovery/Libraries/STM32F4xx_StdPeriph_Driver/src/stm32f4xx_tim.c ****     /* Reset the Output Compare and Output Compare N IDLE State */
 717:App/STM32F4-Discovery/Libraries/STM32F4xx_StdPeriph_Driver/src/stm32f4xx_tim.c ****     tmpcr2 &= (uint16_t)~TIM_CR2_OIS1;
 2504              		.loc 1 717 0
 2505 01e6 BB89     		ldrh	r3, [r7, #12]	@ movhi
 2506 01e8 23F48073 		bic	r3, r3, #256
 2507 01ec BB81     		strh	r3, [r7, #12]	@ movhi
 718:App/STM32F4-Discovery/Libraries/STM32F4xx_StdPeriph_Driver/src/stm32f4xx_tim.c ****     tmpcr2 &= (uint16_t)~TIM_CR2_OIS1N;
 2508              		.loc 1 718 0
 2509 01ee BB89     		ldrh	r3, [r7, #12]	@ movhi
 2510 01f0 23F40073 		bic	r3, r3, #512
 2511 01f4 BB81     		strh	r3, [r7, #12]	@ movhi
 719:App/STM32F4-Discovery/Libraries/STM32F4xx_StdPeriph_Driver/src/stm32f4xx_tim.c ****     /* Set the Output Idle state */
 720:App/STM32F4-Discovery/Libraries/STM32F4xx_StdPeriph_Driver/src/stm32f4xx_tim.c ****     tmpcr2 |= TIM_OCInitStruct->TIM_OCIdleState;
 2512              		.loc 1 720 0
 2513 01f6 3B68     		ldr	r3, [r7]
 2514 01f8 1A8A     		ldrh	r2, [r3, #16]
 2515 01fa BB89     		ldrh	r3, [r7, #12]	@ movhi
 2516 01fc 1343     		orrs	r3, r3, r2
 2517 01fe BB81     		strh	r3, [r7, #12]	@ movhi
 721:App/STM32F4-Discovery/Libraries/STM32F4xx_StdPeriph_Driver/src/stm32f4xx_tim.c ****     /* Set the Output N Idle state */
 722:App/STM32F4-Discovery/Libraries/STM32F4xx_StdPeriph_Driver/src/stm32f4xx_tim.c ****     tmpcr2 |= TIM_OCInitStruct->TIM_OCNIdleState;
 2518              		.loc 1 722 0
 2519 0200 3B68     		ldr	r3, [r7]
 2520 0202 5A8A     		ldrh	r2, [r3, #18]
 2521 0204 BB89     		ldrh	r3, [r7, #12]	@ movhi
 2522 0206 1343     		orrs	r3, r3, r2
 2523 0208 BB81     		strh	r3, [r7, #12]	@ movhi
 2524              	.L103:
 723:App/STM32F4-Discovery/Libraries/STM32F4xx_StdPeriph_Driver/src/stm32f4xx_tim.c ****   }
 724:App/STM32F4-Discovery/Libraries/STM32F4xx_StdPeriph_Driver/src/stm32f4xx_tim.c ****   /* Write to TIMx CR2 */
 725:App/STM32F4-Discovery/Libraries/STM32F4xx_StdPeriph_Driver/src/stm32f4xx_tim.c ****   TIMx->CR2 = tmpcr2;
 2525              		.loc 1 725 0
 2526 020a 7B68     		ldr	r3, [r7, #4]
 2527 020c BA89     		ldrh	r2, [r7, #12]	@ movhi
 2528 020e 9A80     		strh	r2, [r3, #4]	@ movhi
 726:App/STM32F4-Discovery/Libraries/STM32F4xx_StdPeriph_Driver/src/stm32f4xx_tim.c ****   
 727:App/STM32F4-Discovery/Libraries/STM32F4xx_StdPeriph_Driver/src/stm32f4xx_tim.c ****   /* Write to TIMx CCMR1 */
 728:App/STM32F4-Discovery/Libraries/STM32F4xx_StdPeriph_Driver/src/stm32f4xx_tim.c ****   TIMx->CCMR1 = tmpccmrx;
 2529              		.loc 1 728 0
 2530 0210 7B68     		ldr	r3, [r7, #4]
 2531 0212 7A89     		ldrh	r2, [r7, #10]	@ movhi
 2532 0214 1A83     		strh	r2, [r3, #24]	@ movhi
 729:App/STM32F4-Discovery/Libraries/STM32F4xx_StdPeriph_Driver/src/stm32f4xx_tim.c ****   
 730:App/STM32F4-Discovery/Libraries/STM32F4xx_StdPeriph_Driver/src/stm32f4xx_tim.c ****   /* Set the Capture Compare Register value */
 731:App/STM32F4-Discovery/Libraries/STM32F4xx_StdPeriph_Driver/src/stm32f4xx_tim.c ****   TIMx->CCR1 = TIM_OCInitStruct->TIM_Pulse;
 2533              		.loc 1 731 0
 2534 0216 3B68     		ldr	r3, [r7]
 2535 0218 9A68     		ldr	r2, [r3, #8]
 2536 021a 7B68     		ldr	r3, [r7, #4]
 2537 021c 5A63     		str	r2, [r3, #52]
 732:App/STM32F4-Discovery/Libraries/STM32F4xx_StdPeriph_Driver/src/stm32f4xx_tim.c ****   
 733:App/STM32F4-Discovery/Libraries/STM32F4xx_StdPeriph_Driver/src/stm32f4xx_tim.c ****   /* Write to TIMx CCER */
 734:App/STM32F4-Discovery/Libraries/STM32F4xx_StdPeriph_Driver/src/stm32f4xx_tim.c ****   TIMx->CCER = tmpccer;
 2538              		.loc 1 734 0
 2539 021e 7B68     		ldr	r3, [r7, #4]
 2540 0220 FA89     		ldrh	r2, [r7, #14]	@ movhi
 2541 0222 1A84     		strh	r2, [r3, #32]	@ movhi
 735:App/STM32F4-Discovery/Libraries/STM32F4xx_StdPeriph_Driver/src/stm32f4xx_tim.c **** }
 2542              		.loc 1 735 0
 2543 0224 1037     		adds	r7, r7, #16
 2544 0226 BD46     		mov	sp, r7
 2545              		@ sp needed
 2546 0228 80BD     		pop	{r7, pc}
 2547              	.L109:
 2548 022a 00BF     		.align	2
 2549              	.L108:
 2550 022c 00000140 		.word	1073807360
 2551 0230 00040040 		.word	1073742848
 2552 0234 00080040 		.word	1073743872
 2553 0238 000C0040 		.word	1073744896
 2554 023c 00040140 		.word	1073808384
 2555 0240 00400140 		.word	1073823744
 2556 0244 00440140 		.word	1073824768
 2557 0248 00480140 		.word	1073825792
 2558 024c 00180040 		.word	1073747968
 2559 0250 001C0040 		.word	1073748992
 2560 0254 00200040 		.word	1073750016
 2561 0258 00000000 		.word	.LC0
 2562              		.cfi_endproc
 2563              	.LFE125:
 2565              		.section	.text.TIM_OC2Init,"ax",%progbits
 2566              		.align	2
 2567              		.global	TIM_OC2Init
 2568              		.thumb
 2569              		.thumb_func
 2571              	TIM_OC2Init:
 2572              	.LFB126:
 736:App/STM32F4-Discovery/Libraries/STM32F4xx_StdPeriph_Driver/src/stm32f4xx_tim.c **** 
 737:App/STM32F4-Discovery/Libraries/STM32F4xx_StdPeriph_Driver/src/stm32f4xx_tim.c **** /**
 738:App/STM32F4-Discovery/Libraries/STM32F4xx_StdPeriph_Driver/src/stm32f4xx_tim.c ****   * @brief  Initializes the TIMx Channel2 according to the specified parameters 
 739:App/STM32F4-Discovery/Libraries/STM32F4xx_StdPeriph_Driver/src/stm32f4xx_tim.c ****   *         in the TIM_OCInitStruct.
 740:App/STM32F4-Discovery/Libraries/STM32F4xx_StdPeriph_Driver/src/stm32f4xx_tim.c ****   * @param  TIMx: where x can be 1, 2, 3, 4, 5, 8, 9 or 12 to select the TIM 
 741:App/STM32F4-Discovery/Libraries/STM32F4xx_StdPeriph_Driver/src/stm32f4xx_tim.c ****   *         peripheral.
 742:App/STM32F4-Discovery/Libraries/STM32F4xx_StdPeriph_Driver/src/stm32f4xx_tim.c ****   * @param  TIM_OCInitStruct: pointer to a TIM_OCInitTypeDef structure that contains
 743:App/STM32F4-Discovery/Libraries/STM32F4xx_StdPeriph_Driver/src/stm32f4xx_tim.c ****   *         the configuration information for the specified TIM peripheral.
 744:App/STM32F4-Discovery/Libraries/STM32F4xx_StdPeriph_Driver/src/stm32f4xx_tim.c ****   * @retval None
 745:App/STM32F4-Discovery/Libraries/STM32F4xx_StdPeriph_Driver/src/stm32f4xx_tim.c ****   */
 746:App/STM32F4-Discovery/Libraries/STM32F4xx_StdPeriph_Driver/src/stm32f4xx_tim.c **** void TIM_OC2Init(TIM_TypeDef* TIMx, TIM_OCInitTypeDef* TIM_OCInitStruct)
 747:App/STM32F4-Discovery/Libraries/STM32F4xx_StdPeriph_Driver/src/stm32f4xx_tim.c **** {
 2573              		.loc 1 747 0
 2574              		.cfi_startproc
 2575              		@ args = 0, pretend = 0, frame = 16
 2576              		@ frame_needed = 1, uses_anonymous_args = 0
 2577 0000 80B5     		push	{r7, lr}
 2578              	.LCFI48:
 2579              		.cfi_def_cfa_offset 8
 2580              		.cfi_offset 7, -8
 2581              		.cfi_offset 14, -4
 2582 0002 84B0     		sub	sp, sp, #16
 2583              	.LCFI49:
 2584              		.cfi_def_cfa_offset 24
 2585 0004 00AF     		add	r7, sp, #0
 2586              	.LCFI50:
 2587              		.cfi_def_cfa_register 7
 2588 0006 7860     		str	r0, [r7, #4]
 2589 0008 3960     		str	r1, [r7]
 748:App/STM32F4-Discovery/Libraries/STM32F4xx_StdPeriph_Driver/src/stm32f4xx_tim.c ****   uint16_t tmpccmrx = 0, tmpccer = 0, tmpcr2 = 0;
 2590              		.loc 1 748 0
 2591 000a 0023     		movs	r3, #0
 2592 000c 7B81     		strh	r3, [r7, #10]	@ movhi
 2593 000e 0023     		movs	r3, #0
 2594 0010 FB81     		strh	r3, [r7, #14]	@ movhi
 2595 0012 0023     		movs	r3, #0
 2596 0014 BB81     		strh	r3, [r7, #12]	@ movhi
 749:App/STM32F4-Discovery/Libraries/STM32F4xx_StdPeriph_Driver/src/stm32f4xx_tim.c ****    
 750:App/STM32F4-Discovery/Libraries/STM32F4xx_StdPeriph_Driver/src/stm32f4xx_tim.c ****   /* Check the parameters */
 751:App/STM32F4-Discovery/Libraries/STM32F4xx_StdPeriph_Driver/src/stm32f4xx_tim.c ****   assert_param(IS_TIM_LIST2_PERIPH(TIMx)); 
 2597              		.loc 1 751 0
 2598 0016 7A68     		ldr	r2, [r7, #4]
 2599 0018 834B     		ldr	r3, .L121
 2600 001a 9A42     		cmp	r2, r3
 2601 001c 20D0     		beq	.L111
 2602              		.loc 1 751 0 is_stmt 0 discriminator 1
 2603 001e 7B68     		ldr	r3, [r7, #4]
 2604 0020 B3F1804F 		cmp	r3, #1073741824
 2605 0024 1CD0     		beq	.L111
 2606 0026 7A68     		ldr	r2, [r7, #4]
 2607 0028 804B     		ldr	r3, .L121+4
 2608 002a 9A42     		cmp	r2, r3
 2609 002c 18D0     		beq	.L111
 2610 002e 7A68     		ldr	r2, [r7, #4]
 2611 0030 7F4B     		ldr	r3, .L121+8
 2612 0032 9A42     		cmp	r2, r3
 2613 0034 14D0     		beq	.L111
 2614 0036 7A68     		ldr	r2, [r7, #4]
 2615 0038 7E4B     		ldr	r3, .L121+12
 2616 003a 9A42     		cmp	r2, r3
 2617 003c 10D0     		beq	.L111
 2618 003e 7A68     		ldr	r2, [r7, #4]
 2619 0040 7D4B     		ldr	r3, .L121+16
 2620 0042 9A42     		cmp	r2, r3
 2621 0044 0CD0     		beq	.L111
 2622 0046 7A68     		ldr	r2, [r7, #4]
 2623 0048 7C4B     		ldr	r3, .L121+20
 2624 004a 9A42     		cmp	r2, r3
 2625 004c 08D0     		beq	.L111
 2626 004e 7A68     		ldr	r2, [r7, #4]
 2627 0050 7B4B     		ldr	r3, .L121+24
 2628 0052 9A42     		cmp	r2, r3
 2629 0054 04D0     		beq	.L111
 2630 0056 7B48     		ldr	r0, .L121+28
 2631 0058 40F2EF21 		movw	r1, #751
 2632 005c FFF7FEFF 		bl	assert_failed
 2633              	.L111:
 752:App/STM32F4-Discovery/Libraries/STM32F4xx_StdPeriph_Driver/src/stm32f4xx_tim.c ****   assert_param(IS_TIM_OC_MODE(TIM_OCInitStruct->TIM_OCMode));
 2634              		.loc 1 752 0 is_stmt 1
 2635 0060 3B68     		ldr	r3, [r7]
 2636 0062 1B88     		ldrh	r3, [r3]
 2637 0064 002B     		cmp	r3, #0
 2638 0066 18D0     		beq	.L112
 2639              		.loc 1 752 0 is_stmt 0 discriminator 1
 2640 0068 3B68     		ldr	r3, [r7]
 2641 006a 1B88     		ldrh	r3, [r3]
 2642 006c 102B     		cmp	r3, #16
 2643 006e 14D0     		beq	.L112
 2644 0070 3B68     		ldr	r3, [r7]
 2645 0072 1B88     		ldrh	r3, [r3]
 2646 0074 202B     		cmp	r3, #32
 2647 0076 10D0     		beq	.L112
 2648 0078 3B68     		ldr	r3, [r7]
 2649 007a 1B88     		ldrh	r3, [r3]
 2650 007c 302B     		cmp	r3, #48
 2651 007e 0CD0     		beq	.L112
 2652 0080 3B68     		ldr	r3, [r7]
 2653 0082 1B88     		ldrh	r3, [r3]
 2654 0084 602B     		cmp	r3, #96
 2655 0086 08D0     		beq	.L112
 2656 0088 3B68     		ldr	r3, [r7]
 2657 008a 1B88     		ldrh	r3, [r3]
 2658 008c 702B     		cmp	r3, #112
 2659 008e 04D0     		beq	.L112
 2660 0090 6C48     		ldr	r0, .L121+28
 2661 0092 4FF43C71 		mov	r1, #752
 2662 0096 FFF7FEFF 		bl	assert_failed
 2663              	.L112:
 753:App/STM32F4-Discovery/Libraries/STM32F4xx_StdPeriph_Driver/src/stm32f4xx_tim.c ****   assert_param(IS_TIM_OUTPUT_STATE(TIM_OCInitStruct->TIM_OutputState));
 2664              		.loc 1 753 0 is_stmt 1
 2665 009a 3B68     		ldr	r3, [r7]
 2666 009c 5B88     		ldrh	r3, [r3, #2]
 2667 009e 002B     		cmp	r3, #0
 2668 00a0 08D0     		beq	.L113
 2669              		.loc 1 753 0 is_stmt 0 discriminator 1
 2670 00a2 3B68     		ldr	r3, [r7]
 2671 00a4 5B88     		ldrh	r3, [r3, #2]
 2672 00a6 012B     		cmp	r3, #1
 2673 00a8 04D0     		beq	.L113
 2674 00aa 6648     		ldr	r0, .L121+28
 2675 00ac 40F2F121 		movw	r1, #753
 2676 00b0 FFF7FEFF 		bl	assert_failed
 2677              	.L113:
 754:App/STM32F4-Discovery/Libraries/STM32F4xx_StdPeriph_Driver/src/stm32f4xx_tim.c ****   assert_param(IS_TIM_OC_POLARITY(TIM_OCInitStruct->TIM_OCPolarity));   
 2678              		.loc 1 754 0 is_stmt 1
 2679 00b4 3B68     		ldr	r3, [r7]
 2680 00b6 9B89     		ldrh	r3, [r3, #12]
 2681 00b8 002B     		cmp	r3, #0
 2682 00ba 08D0     		beq	.L114
 2683              		.loc 1 754 0 is_stmt 0 discriminator 1
 2684 00bc 3B68     		ldr	r3, [r7]
 2685 00be 9B89     		ldrh	r3, [r3, #12]
 2686 00c0 022B     		cmp	r3, #2
 2687 00c2 04D0     		beq	.L114
 2688 00c4 5F48     		ldr	r0, .L121+28
 2689 00c6 40F2F221 		movw	r1, #754
 2690 00ca FFF7FEFF 		bl	assert_failed
 2691              	.L114:
 755:App/STM32F4-Discovery/Libraries/STM32F4xx_StdPeriph_Driver/src/stm32f4xx_tim.c **** 
 756:App/STM32F4-Discovery/Libraries/STM32F4xx_StdPeriph_Driver/src/stm32f4xx_tim.c ****   /* Disable the Channel 2: Reset the CC2E Bit */
 757:App/STM32F4-Discovery/Libraries/STM32F4xx_StdPeriph_Driver/src/stm32f4xx_tim.c ****   TIMx->CCER &= (uint16_t)~TIM_CCER_CC2E;
 2692              		.loc 1 757 0 is_stmt 1
 2693 00ce 7B68     		ldr	r3, [r7, #4]
 2694 00d0 1B8C     		ldrh	r3, [r3, #32]	@ movhi
 2695 00d2 9BB2     		uxth	r3, r3
 2696 00d4 23F01003 		bic	r3, r3, #16
 2697 00d8 9AB2     		uxth	r2, r3
 2698 00da 7B68     		ldr	r3, [r7, #4]
 2699 00dc 1A84     		strh	r2, [r3, #32]	@ movhi
 758:App/STM32F4-Discovery/Libraries/STM32F4xx_StdPeriph_Driver/src/stm32f4xx_tim.c ****   
 759:App/STM32F4-Discovery/Libraries/STM32F4xx_StdPeriph_Driver/src/stm32f4xx_tim.c ****   /* Get the TIMx CCER register value */  
 760:App/STM32F4-Discovery/Libraries/STM32F4xx_StdPeriph_Driver/src/stm32f4xx_tim.c ****   tmpccer = TIMx->CCER;
 2700              		.loc 1 760 0
 2701 00de 7B68     		ldr	r3, [r7, #4]
 2702 00e0 1B8C     		ldrh	r3, [r3, #32]	@ movhi
 2703 00e2 FB81     		strh	r3, [r7, #14]	@ movhi
 761:App/STM32F4-Discovery/Libraries/STM32F4xx_StdPeriph_Driver/src/stm32f4xx_tim.c ****   /* Get the TIMx CR2 register value */
 762:App/STM32F4-Discovery/Libraries/STM32F4xx_StdPeriph_Driver/src/stm32f4xx_tim.c ****   tmpcr2 =  TIMx->CR2;
 2704              		.loc 1 762 0
 2705 00e4 7B68     		ldr	r3, [r7, #4]
 2706 00e6 9B88     		ldrh	r3, [r3, #4]	@ movhi
 2707 00e8 BB81     		strh	r3, [r7, #12]	@ movhi
 763:App/STM32F4-Discovery/Libraries/STM32F4xx_StdPeriph_Driver/src/stm32f4xx_tim.c ****   
 764:App/STM32F4-Discovery/Libraries/STM32F4xx_StdPeriph_Driver/src/stm32f4xx_tim.c ****   /* Get the TIMx CCMR1 register value */
 765:App/STM32F4-Discovery/Libraries/STM32F4xx_StdPeriph_Driver/src/stm32f4xx_tim.c ****   tmpccmrx = TIMx->CCMR1;
 2708              		.loc 1 765 0
 2709 00ea 7B68     		ldr	r3, [r7, #4]
 2710 00ec 1B8B     		ldrh	r3, [r3, #24]	@ movhi
 2711 00ee 7B81     		strh	r3, [r7, #10]	@ movhi
 766:App/STM32F4-Discovery/Libraries/STM32F4xx_StdPeriph_Driver/src/stm32f4xx_tim.c ****     
 767:App/STM32F4-Discovery/Libraries/STM32F4xx_StdPeriph_Driver/src/stm32f4xx_tim.c ****   /* Reset the Output Compare mode and Capture/Compare selection Bits */
 768:App/STM32F4-Discovery/Libraries/STM32F4xx_StdPeriph_Driver/src/stm32f4xx_tim.c ****   tmpccmrx &= (uint16_t)~TIM_CCMR1_OC2M;
 2712              		.loc 1 768 0
 2713 00f0 7B89     		ldrh	r3, [r7, #10]	@ movhi
 2714 00f2 23F4E043 		bic	r3, r3, #28672
 2715 00f6 7B81     		strh	r3, [r7, #10]	@ movhi
 769:App/STM32F4-Discovery/Libraries/STM32F4xx_StdPeriph_Driver/src/stm32f4xx_tim.c ****   tmpccmrx &= (uint16_t)~TIM_CCMR1_CC2S;
 2716              		.loc 1 769 0
 2717 00f8 7B89     		ldrh	r3, [r7, #10]	@ movhi
 2718 00fa 23F44073 		bic	r3, r3, #768
 2719 00fe 7B81     		strh	r3, [r7, #10]	@ movhi
 770:App/STM32F4-Discovery/Libraries/STM32F4xx_StdPeriph_Driver/src/stm32f4xx_tim.c ****   
 771:App/STM32F4-Discovery/Libraries/STM32F4xx_StdPeriph_Driver/src/stm32f4xx_tim.c ****   /* Select the Output Compare Mode */
 772:App/STM32F4-Discovery/Libraries/STM32F4xx_StdPeriph_Driver/src/stm32f4xx_tim.c ****   tmpccmrx |= (uint16_t)(TIM_OCInitStruct->TIM_OCMode << 8);
 2720              		.loc 1 772 0
 2721 0100 3B68     		ldr	r3, [r7]
 2722 0102 1B88     		ldrh	r3, [r3]
 2723 0104 1B02     		lsls	r3, r3, #8
 2724 0106 9AB2     		uxth	r2, r3
 2725 0108 7B89     		ldrh	r3, [r7, #10]	@ movhi
 2726 010a 1343     		orrs	r3, r3, r2
 2727 010c 7B81     		strh	r3, [r7, #10]	@ movhi
 773:App/STM32F4-Discovery/Libraries/STM32F4xx_StdPeriph_Driver/src/stm32f4xx_tim.c ****   
 774:App/STM32F4-Discovery/Libraries/STM32F4xx_StdPeriph_Driver/src/stm32f4xx_tim.c ****   /* Reset the Output Polarity level */
 775:App/STM32F4-Discovery/Libraries/STM32F4xx_StdPeriph_Driver/src/stm32f4xx_tim.c ****   tmpccer &= (uint16_t)~TIM_CCER_CC2P;
 2728              		.loc 1 775 0
 2729 010e FB89     		ldrh	r3, [r7, #14]	@ movhi
 2730 0110 23F02003 		bic	r3, r3, #32
 2731 0114 FB81     		strh	r3, [r7, #14]	@ movhi
 776:App/STM32F4-Discovery/Libraries/STM32F4xx_StdPeriph_Driver/src/stm32f4xx_tim.c ****   /* Set the Output Compare Polarity */
 777:App/STM32F4-Discovery/Libraries/STM32F4xx_StdPeriph_Driver/src/stm32f4xx_tim.c ****   tmpccer |= (uint16_t)(TIM_OCInitStruct->TIM_OCPolarity << 4);
 2732              		.loc 1 777 0
 2733 0116 3B68     		ldr	r3, [r7]
 2734 0118 9B89     		ldrh	r3, [r3, #12]
 2735 011a 1B01     		lsls	r3, r3, #4
 2736 011c 9AB2     		uxth	r2, r3
 2737 011e FB89     		ldrh	r3, [r7, #14]	@ movhi
 2738 0120 1343     		orrs	r3, r3, r2
 2739 0122 FB81     		strh	r3, [r7, #14]	@ movhi
 778:App/STM32F4-Discovery/Libraries/STM32F4xx_StdPeriph_Driver/src/stm32f4xx_tim.c ****   
 779:App/STM32F4-Discovery/Libraries/STM32F4xx_StdPeriph_Driver/src/stm32f4xx_tim.c ****   /* Set the Output State */
 780:App/STM32F4-Discovery/Libraries/STM32F4xx_StdPeriph_Driver/src/stm32f4xx_tim.c ****   tmpccer |= (uint16_t)(TIM_OCInitStruct->TIM_OutputState << 4);
 2740              		.loc 1 780 0
 2741 0124 3B68     		ldr	r3, [r7]
 2742 0126 5B88     		ldrh	r3, [r3, #2]
 2743 0128 1B01     		lsls	r3, r3, #4
 2744 012a 9AB2     		uxth	r2, r3
 2745 012c FB89     		ldrh	r3, [r7, #14]	@ movhi
 2746 012e 1343     		orrs	r3, r3, r2
 2747 0130 FB81     		strh	r3, [r7, #14]	@ movhi
 781:App/STM32F4-Discovery/Libraries/STM32F4xx_StdPeriph_Driver/src/stm32f4xx_tim.c ****     
 782:App/STM32F4-Discovery/Libraries/STM32F4xx_StdPeriph_Driver/src/stm32f4xx_tim.c ****   if((TIMx == TIM1) || (TIMx == TIM8))
 2748              		.loc 1 782 0
 2749 0132 7A68     		ldr	r2, [r7, #4]
 2750 0134 3C4B     		ldr	r3, .L121
 2751 0136 9A42     		cmp	r2, r3
 2752 0138 03D0     		beq	.L115
 2753              		.loc 1 782 0 is_stmt 0 discriminator 1
 2754 013a 7A68     		ldr	r2, [r7, #4]
 2755 013c 3E4B     		ldr	r3, .L121+16
 2756 013e 9A42     		cmp	r2, r3
 2757 0140 61D1     		bne	.L116
 2758              	.L115:
 783:App/STM32F4-Discovery/Libraries/STM32F4xx_StdPeriph_Driver/src/stm32f4xx_tim.c ****   {
 784:App/STM32F4-Discovery/Libraries/STM32F4xx_StdPeriph_Driver/src/stm32f4xx_tim.c ****     assert_param(IS_TIM_OUTPUTN_STATE(TIM_OCInitStruct->TIM_OutputNState));
 2759              		.loc 1 784 0 is_stmt 1
 2760 0142 3B68     		ldr	r3, [r7]
 2761 0144 9B88     		ldrh	r3, [r3, #4]
 2762 0146 002B     		cmp	r3, #0
 2763 0148 08D0     		beq	.L117
 2764              		.loc 1 784 0 is_stmt 0 discriminator 1
 2765 014a 3B68     		ldr	r3, [r7]
 2766 014c 9B88     		ldrh	r3, [r3, #4]
 2767 014e 042B     		cmp	r3, #4
 2768 0150 04D0     		beq	.L117
 2769 0152 3C48     		ldr	r0, .L121+28
 2770 0154 4FF44471 		mov	r1, #784
 2771 0158 FFF7FEFF 		bl	assert_failed
 2772              	.L117:
 785:App/STM32F4-Discovery/Libraries/STM32F4xx_StdPeriph_Driver/src/stm32f4xx_tim.c ****     assert_param(IS_TIM_OCN_POLARITY(TIM_OCInitStruct->TIM_OCNPolarity));
 2773              		.loc 1 785 0 is_stmt 1
 2774 015c 3B68     		ldr	r3, [r7]
 2775 015e DB89     		ldrh	r3, [r3, #14]
 2776 0160 002B     		cmp	r3, #0
 2777 0162 08D0     		beq	.L118
 2778              		.loc 1 785 0 is_stmt 0 discriminator 1
 2779 0164 3B68     		ldr	r3, [r7]
 2780 0166 DB89     		ldrh	r3, [r3, #14]
 2781 0168 082B     		cmp	r3, #8
 2782 016a 04D0     		beq	.L118
 2783 016c 3548     		ldr	r0, .L121+28
 2784 016e 40F21131 		movw	r1, #785
 2785 0172 FFF7FEFF 		bl	assert_failed
 2786              	.L118:
 786:App/STM32F4-Discovery/Libraries/STM32F4xx_StdPeriph_Driver/src/stm32f4xx_tim.c ****     assert_param(IS_TIM_OCNIDLE_STATE(TIM_OCInitStruct->TIM_OCNIdleState));
 2787              		.loc 1 786 0 is_stmt 1
 2788 0176 3B68     		ldr	r3, [r7]
 2789 0178 5B8A     		ldrh	r3, [r3, #18]
 2790 017a B3F5007F 		cmp	r3, #512
 2791 017e 08D0     		beq	.L119
 2792              		.loc 1 786 0 is_stmt 0 discriminator 1
 2793 0180 3B68     		ldr	r3, [r7]
 2794 0182 5B8A     		ldrh	r3, [r3, #18]
 2795 0184 002B     		cmp	r3, #0
 2796 0186 04D0     		beq	.L119
 2797 0188 2E48     		ldr	r0, .L121+28
 2798 018a 40F21231 		movw	r1, #786
 2799 018e FFF7FEFF 		bl	assert_failed
 2800              	.L119:
 787:App/STM32F4-Discovery/Libraries/STM32F4xx_StdPeriph_Driver/src/stm32f4xx_tim.c ****     assert_param(IS_TIM_OCIDLE_STATE(TIM_OCInitStruct->TIM_OCIdleState));
 2801              		.loc 1 787 0 is_stmt 1
 2802 0192 3B68     		ldr	r3, [r7]
 2803 0194 1B8A     		ldrh	r3, [r3, #16]
 2804 0196 B3F5807F 		cmp	r3, #256
 2805 019a 08D0     		beq	.L120
 2806              		.loc 1 787 0 is_stmt 0 discriminator 1
 2807 019c 3B68     		ldr	r3, [r7]
 2808 019e 1B8A     		ldrh	r3, [r3, #16]
 2809 01a0 002B     		cmp	r3, #0
 2810 01a2 04D0     		beq	.L120
 2811 01a4 2748     		ldr	r0, .L121+28
 2812 01a6 40F21331 		movw	r1, #787
 2813 01aa FFF7FEFF 		bl	assert_failed
 2814              	.L120:
 788:App/STM32F4-Discovery/Libraries/STM32F4xx_StdPeriph_Driver/src/stm32f4xx_tim.c ****     
 789:App/STM32F4-Discovery/Libraries/STM32F4xx_StdPeriph_Driver/src/stm32f4xx_tim.c ****     /* Reset the Output N Polarity level */
 790:App/STM32F4-Discovery/Libraries/STM32F4xx_StdPeriph_Driver/src/stm32f4xx_tim.c ****     tmpccer &= (uint16_t)~TIM_CCER_CC2NP;
 2815              		.loc 1 790 0 is_stmt 1
 2816 01ae FB89     		ldrh	r3, [r7, #14]	@ movhi
 2817 01b0 23F08003 		bic	r3, r3, #128
 2818 01b4 FB81     		strh	r3, [r7, #14]	@ movhi
 791:App/STM32F4-Discovery/Libraries/STM32F4xx_StdPeriph_Driver/src/stm32f4xx_tim.c ****     /* Set the Output N Polarity */
 792:App/STM32F4-Discovery/Libraries/STM32F4xx_StdPeriph_Driver/src/stm32f4xx_tim.c ****     tmpccer |= (uint16_t)(TIM_OCInitStruct->TIM_OCNPolarity << 4);
 2819              		.loc 1 792 0
 2820 01b6 3B68     		ldr	r3, [r7]
 2821 01b8 DB89     		ldrh	r3, [r3, #14]
 2822 01ba 1B01     		lsls	r3, r3, #4
 2823 01bc 9AB2     		uxth	r2, r3
 2824 01be FB89     		ldrh	r3, [r7, #14]	@ movhi
 2825 01c0 1343     		orrs	r3, r3, r2
 2826 01c2 FB81     		strh	r3, [r7, #14]	@ movhi
 793:App/STM32F4-Discovery/Libraries/STM32F4xx_StdPeriph_Driver/src/stm32f4xx_tim.c ****     /* Reset the Output N State */
 794:App/STM32F4-Discovery/Libraries/STM32F4xx_StdPeriph_Driver/src/stm32f4xx_tim.c ****     tmpccer &= (uint16_t)~TIM_CCER_CC2NE;
 2827              		.loc 1 794 0
 2828 01c4 FB89     		ldrh	r3, [r7, #14]	@ movhi
 2829 01c6 23F04003 		bic	r3, r3, #64
 2830 01ca FB81     		strh	r3, [r7, #14]	@ movhi
 795:App/STM32F4-Discovery/Libraries/STM32F4xx_StdPeriph_Driver/src/stm32f4xx_tim.c ****     
 796:App/STM32F4-Discovery/Libraries/STM32F4xx_StdPeriph_Driver/src/stm32f4xx_tim.c ****     /* Set the Output N State */
 797:App/STM32F4-Discovery/Libraries/STM32F4xx_StdPeriph_Driver/src/stm32f4xx_tim.c ****     tmpccer |= (uint16_t)(TIM_OCInitStruct->TIM_OutputNState << 4);
 2831              		.loc 1 797 0
 2832 01cc 3B68     		ldr	r3, [r7]
 2833 01ce 9B88     		ldrh	r3, [r3, #4]
 2834 01d0 1B01     		lsls	r3, r3, #4
 2835 01d2 9AB2     		uxth	r2, r3
 2836 01d4 FB89     		ldrh	r3, [r7, #14]	@ movhi
 2837 01d6 1343     		orrs	r3, r3, r2
 2838 01d8 FB81     		strh	r3, [r7, #14]	@ movhi
 798:App/STM32F4-Discovery/Libraries/STM32F4xx_StdPeriph_Driver/src/stm32f4xx_tim.c ****     /* Reset the Output Compare and Output Compare N IDLE State */
 799:App/STM32F4-Discovery/Libraries/STM32F4xx_StdPeriph_Driver/src/stm32f4xx_tim.c ****     tmpcr2 &= (uint16_t)~TIM_CR2_OIS2;
 2839              		.loc 1 799 0
 2840 01da BB89     		ldrh	r3, [r7, #12]	@ movhi
 2841 01dc 23F48063 		bic	r3, r3, #1024
 2842 01e0 BB81     		strh	r3, [r7, #12]	@ movhi
 800:App/STM32F4-Discovery/Libraries/STM32F4xx_StdPeriph_Driver/src/stm32f4xx_tim.c ****     tmpcr2 &= (uint16_t)~TIM_CR2_OIS2N;
 2843              		.loc 1 800 0
 2844 01e2 BB89     		ldrh	r3, [r7, #12]	@ movhi
 2845 01e4 23F40063 		bic	r3, r3, #2048
 2846 01e8 BB81     		strh	r3, [r7, #12]	@ movhi
 801:App/STM32F4-Discovery/Libraries/STM32F4xx_StdPeriph_Driver/src/stm32f4xx_tim.c ****     /* Set the Output Idle state */
 802:App/STM32F4-Discovery/Libraries/STM32F4xx_StdPeriph_Driver/src/stm32f4xx_tim.c ****     tmpcr2 |= (uint16_t)(TIM_OCInitStruct->TIM_OCIdleState << 2);
 2847              		.loc 1 802 0
 2848 01ea 3B68     		ldr	r3, [r7]
 2849 01ec 1B8A     		ldrh	r3, [r3, #16]
 2850 01ee 9B00     		lsls	r3, r3, #2
 2851 01f0 9AB2     		uxth	r2, r3
 2852 01f2 BB89     		ldrh	r3, [r7, #12]	@ movhi
 2853 01f4 1343     		orrs	r3, r3, r2
 2854 01f6 BB81     		strh	r3, [r7, #12]	@ movhi
 803:App/STM32F4-Discovery/Libraries/STM32F4xx_StdPeriph_Driver/src/stm32f4xx_tim.c ****     /* Set the Output N Idle state */
 804:App/STM32F4-Discovery/Libraries/STM32F4xx_StdPeriph_Driver/src/stm32f4xx_tim.c ****     tmpcr2 |= (uint16_t)(TIM_OCInitStruct->TIM_OCNIdleState << 2);
 2855              		.loc 1 804 0
 2856 01f8 3B68     		ldr	r3, [r7]
 2857 01fa 5B8A     		ldrh	r3, [r3, #18]
 2858 01fc 9B00     		lsls	r3, r3, #2
 2859 01fe 9AB2     		uxth	r2, r3
 2860 0200 BB89     		ldrh	r3, [r7, #12]	@ movhi
 2861 0202 1343     		orrs	r3, r3, r2
 2862 0204 BB81     		strh	r3, [r7, #12]	@ movhi
 2863              	.L116:
 805:App/STM32F4-Discovery/Libraries/STM32F4xx_StdPeriph_Driver/src/stm32f4xx_tim.c ****   }
 806:App/STM32F4-Discovery/Libraries/STM32F4xx_StdPeriph_Driver/src/stm32f4xx_tim.c ****   /* Write to TIMx CR2 */
 807:App/STM32F4-Discovery/Libraries/STM32F4xx_StdPeriph_Driver/src/stm32f4xx_tim.c ****   TIMx->CR2 = tmpcr2;
 2864              		.loc 1 807 0
 2865 0206 7B68     		ldr	r3, [r7, #4]
 2866 0208 BA89     		ldrh	r2, [r7, #12]	@ movhi
 2867 020a 9A80     		strh	r2, [r3, #4]	@ movhi
 808:App/STM32F4-Discovery/Libraries/STM32F4xx_StdPeriph_Driver/src/stm32f4xx_tim.c ****   
 809:App/STM32F4-Discovery/Libraries/STM32F4xx_StdPeriph_Driver/src/stm32f4xx_tim.c ****   /* Write to TIMx CCMR1 */
 810:App/STM32F4-Discovery/Libraries/STM32F4xx_StdPeriph_Driver/src/stm32f4xx_tim.c ****   TIMx->CCMR1 = tmpccmrx;
 2868              		.loc 1 810 0
 2869 020c 7B68     		ldr	r3, [r7, #4]
 2870 020e 7A89     		ldrh	r2, [r7, #10]	@ movhi
 2871 0210 1A83     		strh	r2, [r3, #24]	@ movhi
 811:App/STM32F4-Discovery/Libraries/STM32F4xx_StdPeriph_Driver/src/stm32f4xx_tim.c ****   
 812:App/STM32F4-Discovery/Libraries/STM32F4xx_StdPeriph_Driver/src/stm32f4xx_tim.c ****   /* Set the Capture Compare Register value */
 813:App/STM32F4-Discovery/Libraries/STM32F4xx_StdPeriph_Driver/src/stm32f4xx_tim.c ****   TIMx->CCR2 = TIM_OCInitStruct->TIM_Pulse;
 2872              		.loc 1 813 0
 2873 0212 3B68     		ldr	r3, [r7]
 2874 0214 9A68     		ldr	r2, [r3, #8]
 2875 0216 7B68     		ldr	r3, [r7, #4]
 2876 0218 9A63     		str	r2, [r3, #56]
 814:App/STM32F4-Discovery/Libraries/STM32F4xx_StdPeriph_Driver/src/stm32f4xx_tim.c ****   
 815:App/STM32F4-Discovery/Libraries/STM32F4xx_StdPeriph_Driver/src/stm32f4xx_tim.c ****   /* Write to TIMx CCER */
 816:App/STM32F4-Discovery/Libraries/STM32F4xx_StdPeriph_Driver/src/stm32f4xx_tim.c ****   TIMx->CCER = tmpccer;
 2877              		.loc 1 816 0
 2878 021a 7B68     		ldr	r3, [r7, #4]
 2879 021c FA89     		ldrh	r2, [r7, #14]	@ movhi
 2880 021e 1A84     		strh	r2, [r3, #32]	@ movhi
 817:App/STM32F4-Discovery/Libraries/STM32F4xx_StdPeriph_Driver/src/stm32f4xx_tim.c **** }
 2881              		.loc 1 817 0
 2882 0220 1037     		adds	r7, r7, #16
 2883 0222 BD46     		mov	sp, r7
 2884              		@ sp needed
 2885 0224 80BD     		pop	{r7, pc}
 2886              	.L122:
 2887 0226 00BF     		.align	2
 2888              	.L121:
 2889 0228 00000140 		.word	1073807360
 2890 022c 00040040 		.word	1073742848
 2891 0230 00080040 		.word	1073743872
 2892 0234 000C0040 		.word	1073744896
 2893 0238 00040140 		.word	1073808384
 2894 023c 00400140 		.word	1073823744
 2895 0240 00180040 		.word	1073747968
 2896 0244 00000000 		.word	.LC0
 2897              		.cfi_endproc
 2898              	.LFE126:
 2900              		.section	.text.TIM_OC3Init,"ax",%progbits
 2901              		.align	2
 2902              		.global	TIM_OC3Init
 2903              		.thumb
 2904              		.thumb_func
 2906              	TIM_OC3Init:
 2907              	.LFB127:
 818:App/STM32F4-Discovery/Libraries/STM32F4xx_StdPeriph_Driver/src/stm32f4xx_tim.c **** 
 819:App/STM32F4-Discovery/Libraries/STM32F4xx_StdPeriph_Driver/src/stm32f4xx_tim.c **** /**
 820:App/STM32F4-Discovery/Libraries/STM32F4xx_StdPeriph_Driver/src/stm32f4xx_tim.c ****   * @brief  Initializes the TIMx Channel3 according to the specified parameters
 821:App/STM32F4-Discovery/Libraries/STM32F4xx_StdPeriph_Driver/src/stm32f4xx_tim.c ****   *         in the TIM_OCInitStruct.
 822:App/STM32F4-Discovery/Libraries/STM32F4xx_StdPeriph_Driver/src/stm32f4xx_tim.c ****   * @param  TIMx: where x can be 1, 2, 3, 4, 5 or 8 to select the TIM peripheral.
 823:App/STM32F4-Discovery/Libraries/STM32F4xx_StdPeriph_Driver/src/stm32f4xx_tim.c ****   * @param  TIM_OCInitStruct: pointer to a TIM_OCInitTypeDef structure that contains
 824:App/STM32F4-Discovery/Libraries/STM32F4xx_StdPeriph_Driver/src/stm32f4xx_tim.c ****   *         the configuration information for the specified TIM peripheral.
 825:App/STM32F4-Discovery/Libraries/STM32F4xx_StdPeriph_Driver/src/stm32f4xx_tim.c ****   * @retval None
 826:App/STM32F4-Discovery/Libraries/STM32F4xx_StdPeriph_Driver/src/stm32f4xx_tim.c ****   */
 827:App/STM32F4-Discovery/Libraries/STM32F4xx_StdPeriph_Driver/src/stm32f4xx_tim.c **** void TIM_OC3Init(TIM_TypeDef* TIMx, TIM_OCInitTypeDef* TIM_OCInitStruct)
 828:App/STM32F4-Discovery/Libraries/STM32F4xx_StdPeriph_Driver/src/stm32f4xx_tim.c **** {
 2908              		.loc 1 828 0
 2909              		.cfi_startproc
 2910              		@ args = 0, pretend = 0, frame = 16
 2911              		@ frame_needed = 1, uses_anonymous_args = 0
 2912 0000 80B5     		push	{r7, lr}
 2913              	.LCFI51:
 2914              		.cfi_def_cfa_offset 8
 2915              		.cfi_offset 7, -8
 2916              		.cfi_offset 14, -4
 2917 0002 84B0     		sub	sp, sp, #16
 2918              	.LCFI52:
 2919              		.cfi_def_cfa_offset 24
 2920 0004 00AF     		add	r7, sp, #0
 2921              	.LCFI53:
 2922              		.cfi_def_cfa_register 7
 2923 0006 7860     		str	r0, [r7, #4]
 2924 0008 3960     		str	r1, [r7]
 829:App/STM32F4-Discovery/Libraries/STM32F4xx_StdPeriph_Driver/src/stm32f4xx_tim.c ****   uint16_t tmpccmrx = 0, tmpccer = 0, tmpcr2 = 0;
 2925              		.loc 1 829 0
 2926 000a 0023     		movs	r3, #0
 2927 000c 7B81     		strh	r3, [r7, #10]	@ movhi
 2928 000e 0023     		movs	r3, #0
 2929 0010 FB81     		strh	r3, [r7, #14]	@ movhi
 2930 0012 0023     		movs	r3, #0
 2931 0014 BB81     		strh	r3, [r7, #12]	@ movhi
 830:App/STM32F4-Discovery/Libraries/STM32F4xx_StdPeriph_Driver/src/stm32f4xx_tim.c ****    
 831:App/STM32F4-Discovery/Libraries/STM32F4xx_StdPeriph_Driver/src/stm32f4xx_tim.c ****   /* Check the parameters */
 832:App/STM32F4-Discovery/Libraries/STM32F4xx_StdPeriph_Driver/src/stm32f4xx_tim.c ****   assert_param(IS_TIM_LIST3_PERIPH(TIMx)); 
 2932              		.loc 1 832 0
 2933 0016 7A68     		ldr	r2, [r7, #4]
 2934 0018 7E4B     		ldr	r3, .L134
 2935 001a 9A42     		cmp	r2, r3
 2936 001c 18D0     		beq	.L124
 2937              		.loc 1 832 0 is_stmt 0 discriminator 1
 2938 001e 7B68     		ldr	r3, [r7, #4]
 2939 0020 B3F1804F 		cmp	r3, #1073741824
 2940 0024 14D0     		beq	.L124
 2941 0026 7A68     		ldr	r2, [r7, #4]
 2942 0028 7B4B     		ldr	r3, .L134+4
 2943 002a 9A42     		cmp	r2, r3
 2944 002c 10D0     		beq	.L124
 2945 002e 7A68     		ldr	r2, [r7, #4]
 2946 0030 7A4B     		ldr	r3, .L134+8
 2947 0032 9A42     		cmp	r2, r3
 2948 0034 0CD0     		beq	.L124
 2949 0036 7A68     		ldr	r2, [r7, #4]
 2950 0038 794B     		ldr	r3, .L134+12
 2951 003a 9A42     		cmp	r2, r3
 2952 003c 08D0     		beq	.L124
 2953 003e 7A68     		ldr	r2, [r7, #4]
 2954 0040 784B     		ldr	r3, .L134+16
 2955 0042 9A42     		cmp	r2, r3
 2956 0044 04D0     		beq	.L124
 2957 0046 7848     		ldr	r0, .L134+20
 2958 0048 4FF45071 		mov	r1, #832
 2959 004c FFF7FEFF 		bl	assert_failed
 2960              	.L124:
 833:App/STM32F4-Discovery/Libraries/STM32F4xx_StdPeriph_Driver/src/stm32f4xx_tim.c ****   assert_param(IS_TIM_OC_MODE(TIM_OCInitStruct->TIM_OCMode));
 2961              		.loc 1 833 0 is_stmt 1
 2962 0050 3B68     		ldr	r3, [r7]
 2963 0052 1B88     		ldrh	r3, [r3]
 2964 0054 002B     		cmp	r3, #0
 2965 0056 18D0     		beq	.L125
 2966              		.loc 1 833 0 is_stmt 0 discriminator 1
 2967 0058 3B68     		ldr	r3, [r7]
 2968 005a 1B88     		ldrh	r3, [r3]
 2969 005c 102B     		cmp	r3, #16
 2970 005e 14D0     		beq	.L125
 2971 0060 3B68     		ldr	r3, [r7]
 2972 0062 1B88     		ldrh	r3, [r3]
 2973 0064 202B     		cmp	r3, #32
 2974 0066 10D0     		beq	.L125
 2975 0068 3B68     		ldr	r3, [r7]
 2976 006a 1B88     		ldrh	r3, [r3]
 2977 006c 302B     		cmp	r3, #48
 2978 006e 0CD0     		beq	.L125
 2979 0070 3B68     		ldr	r3, [r7]
 2980 0072 1B88     		ldrh	r3, [r3]
 2981 0074 602B     		cmp	r3, #96
 2982 0076 08D0     		beq	.L125
 2983 0078 3B68     		ldr	r3, [r7]
 2984 007a 1B88     		ldrh	r3, [r3]
 2985 007c 702B     		cmp	r3, #112
 2986 007e 04D0     		beq	.L125
 2987 0080 6948     		ldr	r0, .L134+20
 2988 0082 40F24131 		movw	r1, #833
 2989 0086 FFF7FEFF 		bl	assert_failed
 2990              	.L125:
 834:App/STM32F4-Discovery/Libraries/STM32F4xx_StdPeriph_Driver/src/stm32f4xx_tim.c ****   assert_param(IS_TIM_OUTPUT_STATE(TIM_OCInitStruct->TIM_OutputState));
 2991              		.loc 1 834 0 is_stmt 1
 2992 008a 3B68     		ldr	r3, [r7]
 2993 008c 5B88     		ldrh	r3, [r3, #2]
 2994 008e 002B     		cmp	r3, #0
 2995 0090 08D0     		beq	.L126
 2996              		.loc 1 834 0 is_stmt 0 discriminator 1
 2997 0092 3B68     		ldr	r3, [r7]
 2998 0094 5B88     		ldrh	r3, [r3, #2]
 2999 0096 012B     		cmp	r3, #1
 3000 0098 04D0     		beq	.L126
 3001 009a 6348     		ldr	r0, .L134+20
 3002 009c 40F24231 		movw	r1, #834
 3003 00a0 FFF7FEFF 		bl	assert_failed
 3004              	.L126:
 835:App/STM32F4-Discovery/Libraries/STM32F4xx_StdPeriph_Driver/src/stm32f4xx_tim.c ****   assert_param(IS_TIM_OC_POLARITY(TIM_OCInitStruct->TIM_OCPolarity));   
 3005              		.loc 1 835 0 is_stmt 1
 3006 00a4 3B68     		ldr	r3, [r7]
 3007 00a6 9B89     		ldrh	r3, [r3, #12]
 3008 00a8 002B     		cmp	r3, #0
 3009 00aa 08D0     		beq	.L127
 3010              		.loc 1 835 0 is_stmt 0 discriminator 1
 3011 00ac 3B68     		ldr	r3, [r7]
 3012 00ae 9B89     		ldrh	r3, [r3, #12]
 3013 00b0 022B     		cmp	r3, #2
 3014 00b2 04D0     		beq	.L127
 3015 00b4 5C48     		ldr	r0, .L134+20
 3016 00b6 40F24331 		movw	r1, #835
 3017 00ba FFF7FEFF 		bl	assert_failed
 3018              	.L127:
 836:App/STM32F4-Discovery/Libraries/STM32F4xx_StdPeriph_Driver/src/stm32f4xx_tim.c **** 
 837:App/STM32F4-Discovery/Libraries/STM32F4xx_StdPeriph_Driver/src/stm32f4xx_tim.c ****   /* Disable the Channel 3: Reset the CC2E Bit */
 838:App/STM32F4-Discovery/Libraries/STM32F4xx_StdPeriph_Driver/src/stm32f4xx_tim.c ****   TIMx->CCER &= (uint16_t)~TIM_CCER_CC3E;
 3019              		.loc 1 838 0 is_stmt 1
 3020 00be 7B68     		ldr	r3, [r7, #4]
 3021 00c0 1B8C     		ldrh	r3, [r3, #32]	@ movhi
 3022 00c2 9BB2     		uxth	r3, r3
 3023 00c4 23F48073 		bic	r3, r3, #256
 3024 00c8 9AB2     		uxth	r2, r3
 3025 00ca 7B68     		ldr	r3, [r7, #4]
 3026 00cc 1A84     		strh	r2, [r3, #32]	@ movhi
 839:App/STM32F4-Discovery/Libraries/STM32F4xx_StdPeriph_Driver/src/stm32f4xx_tim.c ****   
 840:App/STM32F4-Discovery/Libraries/STM32F4xx_StdPeriph_Driver/src/stm32f4xx_tim.c ****   /* Get the TIMx CCER register value */
 841:App/STM32F4-Discovery/Libraries/STM32F4xx_StdPeriph_Driver/src/stm32f4xx_tim.c ****   tmpccer = TIMx->CCER;
 3027              		.loc 1 841 0
 3028 00ce 7B68     		ldr	r3, [r7, #4]
 3029 00d0 1B8C     		ldrh	r3, [r3, #32]	@ movhi
 3030 00d2 FB81     		strh	r3, [r7, #14]	@ movhi
 842:App/STM32F4-Discovery/Libraries/STM32F4xx_StdPeriph_Driver/src/stm32f4xx_tim.c ****   /* Get the TIMx CR2 register value */
 843:App/STM32F4-Discovery/Libraries/STM32F4xx_StdPeriph_Driver/src/stm32f4xx_tim.c ****   tmpcr2 =  TIMx->CR2;
 3031              		.loc 1 843 0
 3032 00d4 7B68     		ldr	r3, [r7, #4]
 3033 00d6 9B88     		ldrh	r3, [r3, #4]	@ movhi
 3034 00d8 BB81     		strh	r3, [r7, #12]	@ movhi
 844:App/STM32F4-Discovery/Libraries/STM32F4xx_StdPeriph_Driver/src/stm32f4xx_tim.c ****   
 845:App/STM32F4-Discovery/Libraries/STM32F4xx_StdPeriph_Driver/src/stm32f4xx_tim.c ****   /* Get the TIMx CCMR2 register value */
 846:App/STM32F4-Discovery/Libraries/STM32F4xx_StdPeriph_Driver/src/stm32f4xx_tim.c ****   tmpccmrx = TIMx->CCMR2;
 3035              		.loc 1 846 0
 3036 00da 7B68     		ldr	r3, [r7, #4]
 3037 00dc 9B8B     		ldrh	r3, [r3, #28]	@ movhi
 3038 00de 7B81     		strh	r3, [r7, #10]	@ movhi
 847:App/STM32F4-Discovery/Libraries/STM32F4xx_StdPeriph_Driver/src/stm32f4xx_tim.c ****     
 848:App/STM32F4-Discovery/Libraries/STM32F4xx_StdPeriph_Driver/src/stm32f4xx_tim.c ****   /* Reset the Output Compare mode and Capture/Compare selection Bits */
 849:App/STM32F4-Discovery/Libraries/STM32F4xx_StdPeriph_Driver/src/stm32f4xx_tim.c ****   tmpccmrx &= (uint16_t)~TIM_CCMR2_OC3M;
 3039              		.loc 1 849 0
 3040 00e0 7B89     		ldrh	r3, [r7, #10]	@ movhi
 3041 00e2 23F07003 		bic	r3, r3, #112
 3042 00e6 7B81     		strh	r3, [r7, #10]	@ movhi
 850:App/STM32F4-Discovery/Libraries/STM32F4xx_StdPeriph_Driver/src/stm32f4xx_tim.c ****   tmpccmrx &= (uint16_t)~TIM_CCMR2_CC3S;  
 3043              		.loc 1 850 0
 3044 00e8 7B89     		ldrh	r3, [r7, #10]	@ movhi
 3045 00ea 23F00303 		bic	r3, r3, #3
 3046 00ee 7B81     		strh	r3, [r7, #10]	@ movhi
 851:App/STM32F4-Discovery/Libraries/STM32F4xx_StdPeriph_Driver/src/stm32f4xx_tim.c ****   /* Select the Output Compare Mode */
 852:App/STM32F4-Discovery/Libraries/STM32F4xx_StdPeriph_Driver/src/stm32f4xx_tim.c ****   tmpccmrx |= TIM_OCInitStruct->TIM_OCMode;
 3047              		.loc 1 852 0
 3048 00f0 3B68     		ldr	r3, [r7]
 3049 00f2 1A88     		ldrh	r2, [r3]
 3050 00f4 7B89     		ldrh	r3, [r7, #10]	@ movhi
 3051 00f6 1343     		orrs	r3, r3, r2
 3052 00f8 7B81     		strh	r3, [r7, #10]	@ movhi
 853:App/STM32F4-Discovery/Libraries/STM32F4xx_StdPeriph_Driver/src/stm32f4xx_tim.c ****   
 854:App/STM32F4-Discovery/Libraries/STM32F4xx_StdPeriph_Driver/src/stm32f4xx_tim.c ****   /* Reset the Output Polarity level */
 855:App/STM32F4-Discovery/Libraries/STM32F4xx_StdPeriph_Driver/src/stm32f4xx_tim.c ****   tmpccer &= (uint16_t)~TIM_CCER_CC3P;
 3053              		.loc 1 855 0
 3054 00fa FB89     		ldrh	r3, [r7, #14]	@ movhi
 3055 00fc 23F40073 		bic	r3, r3, #512
 3056 0100 FB81     		strh	r3, [r7, #14]	@ movhi
 856:App/STM32F4-Discovery/Libraries/STM32F4xx_StdPeriph_Driver/src/stm32f4xx_tim.c ****   /* Set the Output Compare Polarity */
 857:App/STM32F4-Discovery/Libraries/STM32F4xx_StdPeriph_Driver/src/stm32f4xx_tim.c ****   tmpccer |= (uint16_t)(TIM_OCInitStruct->TIM_OCPolarity << 8);
 3057              		.loc 1 857 0
 3058 0102 3B68     		ldr	r3, [r7]
 3059 0104 9B89     		ldrh	r3, [r3, #12]
 3060 0106 1B02     		lsls	r3, r3, #8
 3061 0108 9AB2     		uxth	r2, r3
 3062 010a FB89     		ldrh	r3, [r7, #14]	@ movhi
 3063 010c 1343     		orrs	r3, r3, r2
 3064 010e FB81     		strh	r3, [r7, #14]	@ movhi
 858:App/STM32F4-Discovery/Libraries/STM32F4xx_StdPeriph_Driver/src/stm32f4xx_tim.c ****   
 859:App/STM32F4-Discovery/Libraries/STM32F4xx_StdPeriph_Driver/src/stm32f4xx_tim.c ****   /* Set the Output State */
 860:App/STM32F4-Discovery/Libraries/STM32F4xx_StdPeriph_Driver/src/stm32f4xx_tim.c ****   tmpccer |= (uint16_t)(TIM_OCInitStruct->TIM_OutputState << 8);
 3065              		.loc 1 860 0
 3066 0110 3B68     		ldr	r3, [r7]
 3067 0112 5B88     		ldrh	r3, [r3, #2]
 3068 0114 1B02     		lsls	r3, r3, #8
 3069 0116 9AB2     		uxth	r2, r3
 3070 0118 FB89     		ldrh	r3, [r7, #14]	@ movhi
 3071 011a 1343     		orrs	r3, r3, r2
 3072 011c FB81     		strh	r3, [r7, #14]	@ movhi
 861:App/STM32F4-Discovery/Libraries/STM32F4xx_StdPeriph_Driver/src/stm32f4xx_tim.c ****     
 862:App/STM32F4-Discovery/Libraries/STM32F4xx_StdPeriph_Driver/src/stm32f4xx_tim.c ****   if((TIMx == TIM1) || (TIMx == TIM8))
 3073              		.loc 1 862 0
 3074 011e 7A68     		ldr	r2, [r7, #4]
 3075 0120 3C4B     		ldr	r3, .L134
 3076 0122 9A42     		cmp	r2, r3
 3077 0124 03D0     		beq	.L128
 3078              		.loc 1 862 0 is_stmt 0 discriminator 1
 3079 0126 7A68     		ldr	r2, [r7, #4]
 3080 0128 3E4B     		ldr	r3, .L134+16
 3081 012a 9A42     		cmp	r2, r3
 3082 012c 61D1     		bne	.L129
 3083              	.L128:
 863:App/STM32F4-Discovery/Libraries/STM32F4xx_StdPeriph_Driver/src/stm32f4xx_tim.c ****   {
 864:App/STM32F4-Discovery/Libraries/STM32F4xx_StdPeriph_Driver/src/stm32f4xx_tim.c ****     assert_param(IS_TIM_OUTPUTN_STATE(TIM_OCInitStruct->TIM_OutputNState));
 3084              		.loc 1 864 0 is_stmt 1
 3085 012e 3B68     		ldr	r3, [r7]
 3086 0130 9B88     		ldrh	r3, [r3, #4]
 3087 0132 002B     		cmp	r3, #0
 3088 0134 08D0     		beq	.L130
 3089              		.loc 1 864 0 is_stmt 0 discriminator 1
 3090 0136 3B68     		ldr	r3, [r7]
 3091 0138 9B88     		ldrh	r3, [r3, #4]
 3092 013a 042B     		cmp	r3, #4
 3093 013c 04D0     		beq	.L130
 3094 013e 3A48     		ldr	r0, .L134+20
 3095 0140 4FF45871 		mov	r1, #864
 3096 0144 FFF7FEFF 		bl	assert_failed
 3097              	.L130:
 865:App/STM32F4-Discovery/Libraries/STM32F4xx_StdPeriph_Driver/src/stm32f4xx_tim.c ****     assert_param(IS_TIM_OCN_POLARITY(TIM_OCInitStruct->TIM_OCNPolarity));
 3098              		.loc 1 865 0 is_stmt 1
 3099 0148 3B68     		ldr	r3, [r7]
 3100 014a DB89     		ldrh	r3, [r3, #14]
 3101 014c 002B     		cmp	r3, #0
 3102 014e 08D0     		beq	.L131
 3103              		.loc 1 865 0 is_stmt 0 discriminator 1
 3104 0150 3B68     		ldr	r3, [r7]
 3105 0152 DB89     		ldrh	r3, [r3, #14]
 3106 0154 082B     		cmp	r3, #8
 3107 0156 04D0     		beq	.L131
 3108 0158 3348     		ldr	r0, .L134+20
 3109 015a 40F26131 		movw	r1, #865
 3110 015e FFF7FEFF 		bl	assert_failed
 3111              	.L131:
 866:App/STM32F4-Discovery/Libraries/STM32F4xx_StdPeriph_Driver/src/stm32f4xx_tim.c ****     assert_param(IS_TIM_OCNIDLE_STATE(TIM_OCInitStruct->TIM_OCNIdleState));
 3112              		.loc 1 866 0 is_stmt 1
 3113 0162 3B68     		ldr	r3, [r7]
 3114 0164 5B8A     		ldrh	r3, [r3, #18]
 3115 0166 B3F5007F 		cmp	r3, #512
 3116 016a 08D0     		beq	.L132
 3117              		.loc 1 866 0 is_stmt 0 discriminator 1
 3118 016c 3B68     		ldr	r3, [r7]
 3119 016e 5B8A     		ldrh	r3, [r3, #18]
 3120 0170 002B     		cmp	r3, #0
 3121 0172 04D0     		beq	.L132
 3122 0174 2C48     		ldr	r0, .L134+20
 3123 0176 40F26231 		movw	r1, #866
 3124 017a FFF7FEFF 		bl	assert_failed
 3125              	.L132:
 867:App/STM32F4-Discovery/Libraries/STM32F4xx_StdPeriph_Driver/src/stm32f4xx_tim.c ****     assert_param(IS_TIM_OCIDLE_STATE(TIM_OCInitStruct->TIM_OCIdleState));
 3126              		.loc 1 867 0 is_stmt 1
 3127 017e 3B68     		ldr	r3, [r7]
 3128 0180 1B8A     		ldrh	r3, [r3, #16]
 3129 0182 B3F5807F 		cmp	r3, #256
 3130 0186 08D0     		beq	.L133
 3131              		.loc 1 867 0 is_stmt 0 discriminator 1
 3132 0188 3B68     		ldr	r3, [r7]
 3133 018a 1B8A     		ldrh	r3, [r3, #16]
 3134 018c 002B     		cmp	r3, #0
 3135 018e 04D0     		beq	.L133
 3136 0190 2548     		ldr	r0, .L134+20
 3137 0192 40F26331 		movw	r1, #867
 3138 0196 FFF7FEFF 		bl	assert_failed
 3139              	.L133:
 868:App/STM32F4-Discovery/Libraries/STM32F4xx_StdPeriph_Driver/src/stm32f4xx_tim.c ****     
 869:App/STM32F4-Discovery/Libraries/STM32F4xx_StdPeriph_Driver/src/stm32f4xx_tim.c ****     /* Reset the Output N Polarity level */
 870:App/STM32F4-Discovery/Libraries/STM32F4xx_StdPeriph_Driver/src/stm32f4xx_tim.c ****     tmpccer &= (uint16_t)~TIM_CCER_CC3NP;
 3140              		.loc 1 870 0 is_stmt 1
 3141 019a FB89     		ldrh	r3, [r7, #14]	@ movhi
 3142 019c 23F40063 		bic	r3, r3, #2048
 3143 01a0 FB81     		strh	r3, [r7, #14]	@ movhi
 871:App/STM32F4-Discovery/Libraries/STM32F4xx_StdPeriph_Driver/src/stm32f4xx_tim.c ****     /* Set the Output N Polarity */
 872:App/STM32F4-Discovery/Libraries/STM32F4xx_StdPeriph_Driver/src/stm32f4xx_tim.c ****     tmpccer |= (uint16_t)(TIM_OCInitStruct->TIM_OCNPolarity << 8);
 3144              		.loc 1 872 0
 3145 01a2 3B68     		ldr	r3, [r7]
 3146 01a4 DB89     		ldrh	r3, [r3, #14]
 3147 01a6 1B02     		lsls	r3, r3, #8
 3148 01a8 9AB2     		uxth	r2, r3
 3149 01aa FB89     		ldrh	r3, [r7, #14]	@ movhi
 3150 01ac 1343     		orrs	r3, r3, r2
 3151 01ae FB81     		strh	r3, [r7, #14]	@ movhi
 873:App/STM32F4-Discovery/Libraries/STM32F4xx_StdPeriph_Driver/src/stm32f4xx_tim.c ****     /* Reset the Output N State */
 874:App/STM32F4-Discovery/Libraries/STM32F4xx_StdPeriph_Driver/src/stm32f4xx_tim.c ****     tmpccer &= (uint16_t)~TIM_CCER_CC3NE;
 3152              		.loc 1 874 0
 3153 01b0 FB89     		ldrh	r3, [r7, #14]	@ movhi
 3154 01b2 23F48063 		bic	r3, r3, #1024
 3155 01b6 FB81     		strh	r3, [r7, #14]	@ movhi
 875:App/STM32F4-Discovery/Libraries/STM32F4xx_StdPeriph_Driver/src/stm32f4xx_tim.c ****     
 876:App/STM32F4-Discovery/Libraries/STM32F4xx_StdPeriph_Driver/src/stm32f4xx_tim.c ****     /* Set the Output N State */
 877:App/STM32F4-Discovery/Libraries/STM32F4xx_StdPeriph_Driver/src/stm32f4xx_tim.c ****     tmpccer |= (uint16_t)(TIM_OCInitStruct->TIM_OutputNState << 8);
 3156              		.loc 1 877 0
 3157 01b8 3B68     		ldr	r3, [r7]
 3158 01ba 9B88     		ldrh	r3, [r3, #4]
 3159 01bc 1B02     		lsls	r3, r3, #8
 3160 01be 9AB2     		uxth	r2, r3
 3161 01c0 FB89     		ldrh	r3, [r7, #14]	@ movhi
 3162 01c2 1343     		orrs	r3, r3, r2
 3163 01c4 FB81     		strh	r3, [r7, #14]	@ movhi
 878:App/STM32F4-Discovery/Libraries/STM32F4xx_StdPeriph_Driver/src/stm32f4xx_tim.c ****     /* Reset the Output Compare and Output Compare N IDLE State */
 879:App/STM32F4-Discovery/Libraries/STM32F4xx_StdPeriph_Driver/src/stm32f4xx_tim.c ****     tmpcr2 &= (uint16_t)~TIM_CR2_OIS3;
 3164              		.loc 1 879 0
 3165 01c6 BB89     		ldrh	r3, [r7, #12]	@ movhi
 3166 01c8 23F48053 		bic	r3, r3, #4096
 3167 01cc BB81     		strh	r3, [r7, #12]	@ movhi
 880:App/STM32F4-Discovery/Libraries/STM32F4xx_StdPeriph_Driver/src/stm32f4xx_tim.c ****     tmpcr2 &= (uint16_t)~TIM_CR2_OIS3N;
 3168              		.loc 1 880 0
 3169 01ce BB89     		ldrh	r3, [r7, #12]	@ movhi
 3170 01d0 23F40053 		bic	r3, r3, #8192
 3171 01d4 BB81     		strh	r3, [r7, #12]	@ movhi
 881:App/STM32F4-Discovery/Libraries/STM32F4xx_StdPeriph_Driver/src/stm32f4xx_tim.c ****     /* Set the Output Idle state */
 882:App/STM32F4-Discovery/Libraries/STM32F4xx_StdPeriph_Driver/src/stm32f4xx_tim.c ****     tmpcr2 |= (uint16_t)(TIM_OCInitStruct->TIM_OCIdleState << 4);
 3172              		.loc 1 882 0
 3173 01d6 3B68     		ldr	r3, [r7]
 3174 01d8 1B8A     		ldrh	r3, [r3, #16]
 3175 01da 1B01     		lsls	r3, r3, #4
 3176 01dc 9AB2     		uxth	r2, r3
 3177 01de BB89     		ldrh	r3, [r7, #12]	@ movhi
 3178 01e0 1343     		orrs	r3, r3, r2
 3179 01e2 BB81     		strh	r3, [r7, #12]	@ movhi
 883:App/STM32F4-Discovery/Libraries/STM32F4xx_StdPeriph_Driver/src/stm32f4xx_tim.c ****     /* Set the Output N Idle state */
 884:App/STM32F4-Discovery/Libraries/STM32F4xx_StdPeriph_Driver/src/stm32f4xx_tim.c ****     tmpcr2 |= (uint16_t)(TIM_OCInitStruct->TIM_OCNIdleState << 4);
 3180              		.loc 1 884 0
 3181 01e4 3B68     		ldr	r3, [r7]
 3182 01e6 5B8A     		ldrh	r3, [r3, #18]
 3183 01e8 1B01     		lsls	r3, r3, #4
 3184 01ea 9AB2     		uxth	r2, r3
 3185 01ec BB89     		ldrh	r3, [r7, #12]	@ movhi
 3186 01ee 1343     		orrs	r3, r3, r2
 3187 01f0 BB81     		strh	r3, [r7, #12]	@ movhi
 3188              	.L129:
 885:App/STM32F4-Discovery/Libraries/STM32F4xx_StdPeriph_Driver/src/stm32f4xx_tim.c ****   }
 886:App/STM32F4-Discovery/Libraries/STM32F4xx_StdPeriph_Driver/src/stm32f4xx_tim.c ****   /* Write to TIMx CR2 */
 887:App/STM32F4-Discovery/Libraries/STM32F4xx_StdPeriph_Driver/src/stm32f4xx_tim.c ****   TIMx->CR2 = tmpcr2;
 3189              		.loc 1 887 0
 3190 01f2 7B68     		ldr	r3, [r7, #4]
 3191 01f4 BA89     		ldrh	r2, [r7, #12]	@ movhi
 3192 01f6 9A80     		strh	r2, [r3, #4]	@ movhi
 888:App/STM32F4-Discovery/Libraries/STM32F4xx_StdPeriph_Driver/src/stm32f4xx_tim.c ****   
 889:App/STM32F4-Discovery/Libraries/STM32F4xx_StdPeriph_Driver/src/stm32f4xx_tim.c ****   /* Write to TIMx CCMR2 */
 890:App/STM32F4-Discovery/Libraries/STM32F4xx_StdPeriph_Driver/src/stm32f4xx_tim.c ****   TIMx->CCMR2 = tmpccmrx;
 3193              		.loc 1 890 0
 3194 01f8 7B68     		ldr	r3, [r7, #4]
 3195 01fa 7A89     		ldrh	r2, [r7, #10]	@ movhi
 3196 01fc 9A83     		strh	r2, [r3, #28]	@ movhi
 891:App/STM32F4-Discovery/Libraries/STM32F4xx_StdPeriph_Driver/src/stm32f4xx_tim.c ****   
 892:App/STM32F4-Discovery/Libraries/STM32F4xx_StdPeriph_Driver/src/stm32f4xx_tim.c ****   /* Set the Capture Compare Register value */
 893:App/STM32F4-Discovery/Libraries/STM32F4xx_StdPeriph_Driver/src/stm32f4xx_tim.c ****   TIMx->CCR3 = TIM_OCInitStruct->TIM_Pulse;
 3197              		.loc 1 893 0
 3198 01fe 3B68     		ldr	r3, [r7]
 3199 0200 9A68     		ldr	r2, [r3, #8]
 3200 0202 7B68     		ldr	r3, [r7, #4]
 3201 0204 DA63     		str	r2, [r3, #60]
 894:App/STM32F4-Discovery/Libraries/STM32F4xx_StdPeriph_Driver/src/stm32f4xx_tim.c ****   
 895:App/STM32F4-Discovery/Libraries/STM32F4xx_StdPeriph_Driver/src/stm32f4xx_tim.c ****   /* Write to TIMx CCER */
 896:App/STM32F4-Discovery/Libraries/STM32F4xx_StdPeriph_Driver/src/stm32f4xx_tim.c ****   TIMx->CCER = tmpccer;
 3202              		.loc 1 896 0
 3203 0206 7B68     		ldr	r3, [r7, #4]
 3204 0208 FA89     		ldrh	r2, [r7, #14]	@ movhi
 3205 020a 1A84     		strh	r2, [r3, #32]	@ movhi
 897:App/STM32F4-Discovery/Libraries/STM32F4xx_StdPeriph_Driver/src/stm32f4xx_tim.c **** }
 3206              		.loc 1 897 0
 3207 020c 1037     		adds	r7, r7, #16
 3208 020e BD46     		mov	sp, r7
 3209              		@ sp needed
 3210 0210 80BD     		pop	{r7, pc}
 3211              	.L135:
 3212 0212 00BF     		.align	2
 3213              	.L134:
 3214 0214 00000140 		.word	1073807360
 3215 0218 00040040 		.word	1073742848
 3216 021c 00080040 		.word	1073743872
 3217 0220 000C0040 		.word	1073744896
 3218 0224 00040140 		.word	1073808384
 3219 0228 00000000 		.word	.LC0
 3220              		.cfi_endproc
 3221              	.LFE127:
 3223              		.section	.text.TIM_OC4Init,"ax",%progbits
 3224              		.align	2
 3225              		.global	TIM_OC4Init
 3226              		.thumb
 3227              		.thumb_func
 3229              	TIM_OC4Init:
 3230              	.LFB128:
 898:App/STM32F4-Discovery/Libraries/STM32F4xx_StdPeriph_Driver/src/stm32f4xx_tim.c **** 
 899:App/STM32F4-Discovery/Libraries/STM32F4xx_StdPeriph_Driver/src/stm32f4xx_tim.c **** /**
 900:App/STM32F4-Discovery/Libraries/STM32F4xx_StdPeriph_Driver/src/stm32f4xx_tim.c ****   * @brief  Initializes the TIMx Channel4 according to the specified parameters
 901:App/STM32F4-Discovery/Libraries/STM32F4xx_StdPeriph_Driver/src/stm32f4xx_tim.c ****   *         in the TIM_OCInitStruct.
 902:App/STM32F4-Discovery/Libraries/STM32F4xx_StdPeriph_Driver/src/stm32f4xx_tim.c ****   * @param  TIMx: where x can be 1, 2, 3, 4, 5 or 8 to select the TIM peripheral.
 903:App/STM32F4-Discovery/Libraries/STM32F4xx_StdPeriph_Driver/src/stm32f4xx_tim.c ****   * @param  TIM_OCInitStruct: pointer to a TIM_OCInitTypeDef structure that contains
 904:App/STM32F4-Discovery/Libraries/STM32F4xx_StdPeriph_Driver/src/stm32f4xx_tim.c ****   *         the configuration information for the specified TIM peripheral.
 905:App/STM32F4-Discovery/Libraries/STM32F4xx_StdPeriph_Driver/src/stm32f4xx_tim.c ****   * @retval None
 906:App/STM32F4-Discovery/Libraries/STM32F4xx_StdPeriph_Driver/src/stm32f4xx_tim.c ****   */
 907:App/STM32F4-Discovery/Libraries/STM32F4xx_StdPeriph_Driver/src/stm32f4xx_tim.c **** void TIM_OC4Init(TIM_TypeDef* TIMx, TIM_OCInitTypeDef* TIM_OCInitStruct)
 908:App/STM32F4-Discovery/Libraries/STM32F4xx_StdPeriph_Driver/src/stm32f4xx_tim.c **** {
 3231              		.loc 1 908 0
 3232              		.cfi_startproc
 3233              		@ args = 0, pretend = 0, frame = 16
 3234              		@ frame_needed = 1, uses_anonymous_args = 0
 3235 0000 80B5     		push	{r7, lr}
 3236              	.LCFI54:
 3237              		.cfi_def_cfa_offset 8
 3238              		.cfi_offset 7, -8
 3239              		.cfi_offset 14, -4
 3240 0002 84B0     		sub	sp, sp, #16
 3241              	.LCFI55:
 3242              		.cfi_def_cfa_offset 24
 3243 0004 00AF     		add	r7, sp, #0
 3244              	.LCFI56:
 3245              		.cfi_def_cfa_register 7
 3246 0006 7860     		str	r0, [r7, #4]
 3247 0008 3960     		str	r1, [r7]
 909:App/STM32F4-Discovery/Libraries/STM32F4xx_StdPeriph_Driver/src/stm32f4xx_tim.c ****   uint16_t tmpccmrx = 0, tmpccer = 0, tmpcr2 = 0;
 3248              		.loc 1 909 0
 3249 000a 0023     		movs	r3, #0
 3250 000c BB81     		strh	r3, [r7, #12]	@ movhi
 3251 000e 0023     		movs	r3, #0
 3252 0010 7B81     		strh	r3, [r7, #10]	@ movhi
 3253 0012 0023     		movs	r3, #0
 3254 0014 FB81     		strh	r3, [r7, #14]	@ movhi
 910:App/STM32F4-Discovery/Libraries/STM32F4xx_StdPeriph_Driver/src/stm32f4xx_tim.c ****    
 911:App/STM32F4-Discovery/Libraries/STM32F4xx_StdPeriph_Driver/src/stm32f4xx_tim.c ****   /* Check the parameters */
 912:App/STM32F4-Discovery/Libraries/STM32F4xx_StdPeriph_Driver/src/stm32f4xx_tim.c ****   assert_param(IS_TIM_LIST3_PERIPH(TIMx)); 
 3255              		.loc 1 912 0
 3256 0016 7A68     		ldr	r2, [r7, #4]
 3257 0018 5A4B     		ldr	r3, .L144
 3258 001a 9A42     		cmp	r2, r3
 3259 001c 18D0     		beq	.L137
 3260              		.loc 1 912 0 is_stmt 0 discriminator 1
 3261 001e 7B68     		ldr	r3, [r7, #4]
 3262 0020 B3F1804F 		cmp	r3, #1073741824
 3263 0024 14D0     		beq	.L137
 3264 0026 7A68     		ldr	r2, [r7, #4]
 3265 0028 574B     		ldr	r3, .L144+4
 3266 002a 9A42     		cmp	r2, r3
 3267 002c 10D0     		beq	.L137
 3268 002e 7A68     		ldr	r2, [r7, #4]
 3269 0030 564B     		ldr	r3, .L144+8
 3270 0032 9A42     		cmp	r2, r3
 3271 0034 0CD0     		beq	.L137
 3272 0036 7A68     		ldr	r2, [r7, #4]
 3273 0038 554B     		ldr	r3, .L144+12
 3274 003a 9A42     		cmp	r2, r3
 3275 003c 08D0     		beq	.L137
 3276 003e 7A68     		ldr	r2, [r7, #4]
 3277 0040 544B     		ldr	r3, .L144+16
 3278 0042 9A42     		cmp	r2, r3
 3279 0044 04D0     		beq	.L137
 3280 0046 5448     		ldr	r0, .L144+20
 3281 0048 4FF46471 		mov	r1, #912
 3282 004c FFF7FEFF 		bl	assert_failed
 3283              	.L137:
 913:App/STM32F4-Discovery/Libraries/STM32F4xx_StdPeriph_Driver/src/stm32f4xx_tim.c ****   assert_param(IS_TIM_OC_MODE(TIM_OCInitStruct->TIM_OCMode));
 3284              		.loc 1 913 0 is_stmt 1
 3285 0050 3B68     		ldr	r3, [r7]
 3286 0052 1B88     		ldrh	r3, [r3]
 3287 0054 002B     		cmp	r3, #0
 3288 0056 18D0     		beq	.L138
 3289              		.loc 1 913 0 is_stmt 0 discriminator 1
 3290 0058 3B68     		ldr	r3, [r7]
 3291 005a 1B88     		ldrh	r3, [r3]
 3292 005c 102B     		cmp	r3, #16
 3293 005e 14D0     		beq	.L138
 3294 0060 3B68     		ldr	r3, [r7]
 3295 0062 1B88     		ldrh	r3, [r3]
 3296 0064 202B     		cmp	r3, #32
 3297 0066 10D0     		beq	.L138
 3298 0068 3B68     		ldr	r3, [r7]
 3299 006a 1B88     		ldrh	r3, [r3]
 3300 006c 302B     		cmp	r3, #48
 3301 006e 0CD0     		beq	.L138
 3302 0070 3B68     		ldr	r3, [r7]
 3303 0072 1B88     		ldrh	r3, [r3]
 3304 0074 602B     		cmp	r3, #96
 3305 0076 08D0     		beq	.L138
 3306 0078 3B68     		ldr	r3, [r7]
 3307 007a 1B88     		ldrh	r3, [r3]
 3308 007c 702B     		cmp	r3, #112
 3309 007e 04D0     		beq	.L138
 3310 0080 4548     		ldr	r0, .L144+20
 3311 0082 40F29131 		movw	r1, #913
 3312 0086 FFF7FEFF 		bl	assert_failed
 3313              	.L138:
 914:App/STM32F4-Discovery/Libraries/STM32F4xx_StdPeriph_Driver/src/stm32f4xx_tim.c ****   assert_param(IS_TIM_OUTPUT_STATE(TIM_OCInitStruct->TIM_OutputState));
 3314              		.loc 1 914 0 is_stmt 1
 3315 008a 3B68     		ldr	r3, [r7]
 3316 008c 5B88     		ldrh	r3, [r3, #2]
 3317 008e 002B     		cmp	r3, #0
 3318 0090 08D0     		beq	.L139
 3319              		.loc 1 914 0 is_stmt 0 discriminator 1
 3320 0092 3B68     		ldr	r3, [r7]
 3321 0094 5B88     		ldrh	r3, [r3, #2]
 3322 0096 012B     		cmp	r3, #1
 3323 0098 04D0     		beq	.L139
 3324 009a 3F48     		ldr	r0, .L144+20
 3325 009c 40F29231 		movw	r1, #914
 3326 00a0 FFF7FEFF 		bl	assert_failed
 3327              	.L139:
 915:App/STM32F4-Discovery/Libraries/STM32F4xx_StdPeriph_Driver/src/stm32f4xx_tim.c ****   assert_param(IS_TIM_OC_POLARITY(TIM_OCInitStruct->TIM_OCPolarity));   
 3328              		.loc 1 915 0 is_stmt 1
 3329 00a4 3B68     		ldr	r3, [r7]
 3330 00a6 9B89     		ldrh	r3, [r3, #12]
 3331 00a8 002B     		cmp	r3, #0
 3332 00aa 08D0     		beq	.L140
 3333              		.loc 1 915 0 is_stmt 0 discriminator 1
 3334 00ac 3B68     		ldr	r3, [r7]
 3335 00ae 9B89     		ldrh	r3, [r3, #12]
 3336 00b0 022B     		cmp	r3, #2
 3337 00b2 04D0     		beq	.L140
 3338 00b4 3848     		ldr	r0, .L144+20
 3339 00b6 40F29331 		movw	r1, #915
 3340 00ba FFF7FEFF 		bl	assert_failed
 3341              	.L140:
 916:App/STM32F4-Discovery/Libraries/STM32F4xx_StdPeriph_Driver/src/stm32f4xx_tim.c **** 
 917:App/STM32F4-Discovery/Libraries/STM32F4xx_StdPeriph_Driver/src/stm32f4xx_tim.c ****   /* Disable the Channel 4: Reset the CC4E Bit */
 918:App/STM32F4-Discovery/Libraries/STM32F4xx_StdPeriph_Driver/src/stm32f4xx_tim.c ****   TIMx->CCER &= (uint16_t)~TIM_CCER_CC4E;
 3342              		.loc 1 918 0 is_stmt 1
 3343 00be 7B68     		ldr	r3, [r7, #4]
 3344 00c0 1B8C     		ldrh	r3, [r3, #32]	@ movhi
 3345 00c2 9BB2     		uxth	r3, r3
 3346 00c4 23F48053 		bic	r3, r3, #4096
 3347 00c8 9AB2     		uxth	r2, r3
 3348 00ca 7B68     		ldr	r3, [r7, #4]
 3349 00cc 1A84     		strh	r2, [r3, #32]	@ movhi
 919:App/STM32F4-Discovery/Libraries/STM32F4xx_StdPeriph_Driver/src/stm32f4xx_tim.c ****   
 920:App/STM32F4-Discovery/Libraries/STM32F4xx_StdPeriph_Driver/src/stm32f4xx_tim.c ****   /* Get the TIMx CCER register value */
 921:App/STM32F4-Discovery/Libraries/STM32F4xx_StdPeriph_Driver/src/stm32f4xx_tim.c ****   tmpccer = TIMx->CCER;
 3350              		.loc 1 921 0
 3351 00ce 7B68     		ldr	r3, [r7, #4]
 3352 00d0 1B8C     		ldrh	r3, [r3, #32]	@ movhi
 3353 00d2 7B81     		strh	r3, [r7, #10]	@ movhi
 922:App/STM32F4-Discovery/Libraries/STM32F4xx_StdPeriph_Driver/src/stm32f4xx_tim.c ****   /* Get the TIMx CR2 register value */
 923:App/STM32F4-Discovery/Libraries/STM32F4xx_StdPeriph_Driver/src/stm32f4xx_tim.c ****   tmpcr2 =  TIMx->CR2;
 3354              		.loc 1 923 0
 3355 00d4 7B68     		ldr	r3, [r7, #4]
 3356 00d6 9B88     		ldrh	r3, [r3, #4]	@ movhi
 3357 00d8 FB81     		strh	r3, [r7, #14]	@ movhi
 924:App/STM32F4-Discovery/Libraries/STM32F4xx_StdPeriph_Driver/src/stm32f4xx_tim.c ****   
 925:App/STM32F4-Discovery/Libraries/STM32F4xx_StdPeriph_Driver/src/stm32f4xx_tim.c ****   /* Get the TIMx CCMR2 register value */
 926:App/STM32F4-Discovery/Libraries/STM32F4xx_StdPeriph_Driver/src/stm32f4xx_tim.c ****   tmpccmrx = TIMx->CCMR2;
 3358              		.loc 1 926 0
 3359 00da 7B68     		ldr	r3, [r7, #4]
 3360 00dc 9B8B     		ldrh	r3, [r3, #28]	@ movhi
 3361 00de BB81     		strh	r3, [r7, #12]	@ movhi
 927:App/STM32F4-Discovery/Libraries/STM32F4xx_StdPeriph_Driver/src/stm32f4xx_tim.c ****     
 928:App/STM32F4-Discovery/Libraries/STM32F4xx_StdPeriph_Driver/src/stm32f4xx_tim.c ****   /* Reset the Output Compare mode and Capture/Compare selection Bits */
 929:App/STM32F4-Discovery/Libraries/STM32F4xx_StdPeriph_Driver/src/stm32f4xx_tim.c ****   tmpccmrx &= (uint16_t)~TIM_CCMR2_OC4M;
 3362              		.loc 1 929 0
 3363 00e0 BB89     		ldrh	r3, [r7, #12]	@ movhi
 3364 00e2 23F4E043 		bic	r3, r3, #28672
 3365 00e6 BB81     		strh	r3, [r7, #12]	@ movhi
 930:App/STM32F4-Discovery/Libraries/STM32F4xx_StdPeriph_Driver/src/stm32f4xx_tim.c ****   tmpccmrx &= (uint16_t)~TIM_CCMR2_CC4S;
 3366              		.loc 1 930 0
 3367 00e8 BB89     		ldrh	r3, [r7, #12]	@ movhi
 3368 00ea 23F44073 		bic	r3, r3, #768
 3369 00ee BB81     		strh	r3, [r7, #12]	@ movhi
 931:App/STM32F4-Discovery/Libraries/STM32F4xx_StdPeriph_Driver/src/stm32f4xx_tim.c ****   
 932:App/STM32F4-Discovery/Libraries/STM32F4xx_StdPeriph_Driver/src/stm32f4xx_tim.c ****   /* Select the Output Compare Mode */
 933:App/STM32F4-Discovery/Libraries/STM32F4xx_StdPeriph_Driver/src/stm32f4xx_tim.c ****   tmpccmrx |= (uint16_t)(TIM_OCInitStruct->TIM_OCMode << 8);
 3370              		.loc 1 933 0
 3371 00f0 3B68     		ldr	r3, [r7]
 3372 00f2 1B88     		ldrh	r3, [r3]
 3373 00f4 1B02     		lsls	r3, r3, #8
 3374 00f6 9AB2     		uxth	r2, r3
 3375 00f8 BB89     		ldrh	r3, [r7, #12]	@ movhi
 3376 00fa 1343     		orrs	r3, r3, r2
 3377 00fc BB81     		strh	r3, [r7, #12]	@ movhi
 934:App/STM32F4-Discovery/Libraries/STM32F4xx_StdPeriph_Driver/src/stm32f4xx_tim.c ****   
 935:App/STM32F4-Discovery/Libraries/STM32F4xx_StdPeriph_Driver/src/stm32f4xx_tim.c ****   /* Reset the Output Polarity level */
 936:App/STM32F4-Discovery/Libraries/STM32F4xx_StdPeriph_Driver/src/stm32f4xx_tim.c ****   tmpccer &= (uint16_t)~TIM_CCER_CC4P;
 3378              		.loc 1 936 0
 3379 00fe 7B89     		ldrh	r3, [r7, #10]	@ movhi
 3380 0100 23F40053 		bic	r3, r3, #8192
 3381 0104 7B81     		strh	r3, [r7, #10]	@ movhi
 937:App/STM32F4-Discovery/Libraries/STM32F4xx_StdPeriph_Driver/src/stm32f4xx_tim.c ****   /* Set the Output Compare Polarity */
 938:App/STM32F4-Discovery/Libraries/STM32F4xx_StdPeriph_Driver/src/stm32f4xx_tim.c ****   tmpccer |= (uint16_t)(TIM_OCInitStruct->TIM_OCPolarity << 12);
 3382              		.loc 1 938 0
 3383 0106 3B68     		ldr	r3, [r7]
 3384 0108 9B89     		ldrh	r3, [r3, #12]
 3385 010a 1B03     		lsls	r3, r3, #12
 3386 010c 9AB2     		uxth	r2, r3
 3387 010e 7B89     		ldrh	r3, [r7, #10]	@ movhi
 3388 0110 1343     		orrs	r3, r3, r2
 3389 0112 7B81     		strh	r3, [r7, #10]	@ movhi
 939:App/STM32F4-Discovery/Libraries/STM32F4xx_StdPeriph_Driver/src/stm32f4xx_tim.c ****   
 940:App/STM32F4-Discovery/Libraries/STM32F4xx_StdPeriph_Driver/src/stm32f4xx_tim.c ****   /* Set the Output State */
 941:App/STM32F4-Discovery/Libraries/STM32F4xx_StdPeriph_Driver/src/stm32f4xx_tim.c ****   tmpccer |= (uint16_t)(TIM_OCInitStruct->TIM_OutputState << 12);
 3390              		.loc 1 941 0
 3391 0114 3B68     		ldr	r3, [r7]
 3392 0116 5B88     		ldrh	r3, [r3, #2]
 3393 0118 1B03     		lsls	r3, r3, #12
 3394 011a 9AB2     		uxth	r2, r3
 3395 011c 7B89     		ldrh	r3, [r7, #10]	@ movhi
 3396 011e 1343     		orrs	r3, r3, r2
 3397 0120 7B81     		strh	r3, [r7, #10]	@ movhi
 942:App/STM32F4-Discovery/Libraries/STM32F4xx_StdPeriph_Driver/src/stm32f4xx_tim.c ****   
 943:App/STM32F4-Discovery/Libraries/STM32F4xx_StdPeriph_Driver/src/stm32f4xx_tim.c ****   if((TIMx == TIM1) || (TIMx == TIM8))
 3398              		.loc 1 943 0
 3399 0122 7A68     		ldr	r2, [r7, #4]
 3400 0124 174B     		ldr	r3, .L144
 3401 0126 9A42     		cmp	r2, r3
 3402 0128 03D0     		beq	.L141
 3403              		.loc 1 943 0 is_stmt 0 discriminator 1
 3404 012a 7A68     		ldr	r2, [r7, #4]
 3405 012c 194B     		ldr	r3, .L144+16
 3406 012e 9A42     		cmp	r2, r3
 3407 0130 18D1     		bne	.L142
 3408              	.L141:
 944:App/STM32F4-Discovery/Libraries/STM32F4xx_StdPeriph_Driver/src/stm32f4xx_tim.c ****   {
 945:App/STM32F4-Discovery/Libraries/STM32F4xx_StdPeriph_Driver/src/stm32f4xx_tim.c ****     assert_param(IS_TIM_OCIDLE_STATE(TIM_OCInitStruct->TIM_OCIdleState));
 3409              		.loc 1 945 0 is_stmt 1
 3410 0132 3B68     		ldr	r3, [r7]
 3411 0134 1B8A     		ldrh	r3, [r3, #16]
 3412 0136 B3F5807F 		cmp	r3, #256
 3413 013a 08D0     		beq	.L143
 3414              		.loc 1 945 0 is_stmt 0 discriminator 1
 3415 013c 3B68     		ldr	r3, [r7]
 3416 013e 1B8A     		ldrh	r3, [r3, #16]
 3417 0140 002B     		cmp	r3, #0
 3418 0142 04D0     		beq	.L143
 3419 0144 1448     		ldr	r0, .L144+20
 3420 0146 40F2B131 		movw	r1, #945
 3421 014a FFF7FEFF 		bl	assert_failed
 3422              	.L143:
 946:App/STM32F4-Discovery/Libraries/STM32F4xx_StdPeriph_Driver/src/stm32f4xx_tim.c ****     /* Reset the Output Compare IDLE State */
 947:App/STM32F4-Discovery/Libraries/STM32F4xx_StdPeriph_Driver/src/stm32f4xx_tim.c ****     tmpcr2 &=(uint16_t) ~TIM_CR2_OIS4;
 3423              		.loc 1 947 0 is_stmt 1
 3424 014e FB89     		ldrh	r3, [r7, #14]	@ movhi
 3425 0150 23F48043 		bic	r3, r3, #16384
 3426 0154 FB81     		strh	r3, [r7, #14]	@ movhi
 948:App/STM32F4-Discovery/Libraries/STM32F4xx_StdPeriph_Driver/src/stm32f4xx_tim.c ****     /* Set the Output Idle state */
 949:App/STM32F4-Discovery/Libraries/STM32F4xx_StdPeriph_Driver/src/stm32f4xx_tim.c ****     tmpcr2 |= (uint16_t)(TIM_OCInitStruct->TIM_OCIdleState << 6);
 3427              		.loc 1 949 0
 3428 0156 3B68     		ldr	r3, [r7]
 3429 0158 1B8A     		ldrh	r3, [r3, #16]
 3430 015a 9B01     		lsls	r3, r3, #6
 3431 015c 9AB2     		uxth	r2, r3
 3432 015e FB89     		ldrh	r3, [r7, #14]	@ movhi
 3433 0160 1343     		orrs	r3, r3, r2
 3434 0162 FB81     		strh	r3, [r7, #14]	@ movhi
 3435              	.L142:
 950:App/STM32F4-Discovery/Libraries/STM32F4xx_StdPeriph_Driver/src/stm32f4xx_tim.c ****   }
 951:App/STM32F4-Discovery/Libraries/STM32F4xx_StdPeriph_Driver/src/stm32f4xx_tim.c ****   /* Write to TIMx CR2 */
 952:App/STM32F4-Discovery/Libraries/STM32F4xx_StdPeriph_Driver/src/stm32f4xx_tim.c ****   TIMx->CR2 = tmpcr2;
 3436              		.loc 1 952 0
 3437 0164 7B68     		ldr	r3, [r7, #4]
 3438 0166 FA89     		ldrh	r2, [r7, #14]	@ movhi
 3439 0168 9A80     		strh	r2, [r3, #4]	@ movhi
 953:App/STM32F4-Discovery/Libraries/STM32F4xx_StdPeriph_Driver/src/stm32f4xx_tim.c ****   
 954:App/STM32F4-Discovery/Libraries/STM32F4xx_StdPeriph_Driver/src/stm32f4xx_tim.c ****   /* Write to TIMx CCMR2 */  
 955:App/STM32F4-Discovery/Libraries/STM32F4xx_StdPeriph_Driver/src/stm32f4xx_tim.c ****   TIMx->CCMR2 = tmpccmrx;
 3440              		.loc 1 955 0
 3441 016a 7B68     		ldr	r3, [r7, #4]
 3442 016c BA89     		ldrh	r2, [r7, #12]	@ movhi
 3443 016e 9A83     		strh	r2, [r3, #28]	@ movhi
 956:App/STM32F4-Discovery/Libraries/STM32F4xx_StdPeriph_Driver/src/stm32f4xx_tim.c ****     
 957:App/STM32F4-Discovery/Libraries/STM32F4xx_StdPeriph_Driver/src/stm32f4xx_tim.c ****   /* Set the Capture Compare Register value */
 958:App/STM32F4-Discovery/Libraries/STM32F4xx_StdPeriph_Driver/src/stm32f4xx_tim.c ****   TIMx->CCR4 = TIM_OCInitStruct->TIM_Pulse;
 3444              		.loc 1 958 0
 3445 0170 3B68     		ldr	r3, [r7]
 3446 0172 9A68     		ldr	r2, [r3, #8]
 3447 0174 7B68     		ldr	r3, [r7, #4]
 3448 0176 1A64     		str	r2, [r3, #64]
 959:App/STM32F4-Discovery/Libraries/STM32F4xx_StdPeriph_Driver/src/stm32f4xx_tim.c ****   
 960:App/STM32F4-Discovery/Libraries/STM32F4xx_StdPeriph_Driver/src/stm32f4xx_tim.c ****   /* Write to TIMx CCER */
 961:App/STM32F4-Discovery/Libraries/STM32F4xx_StdPeriph_Driver/src/stm32f4xx_tim.c ****   TIMx->CCER = tmpccer;
 3449              		.loc 1 961 0
 3450 0178 7B68     		ldr	r3, [r7, #4]
 3451 017a 7A89     		ldrh	r2, [r7, #10]	@ movhi
 3452 017c 1A84     		strh	r2, [r3, #32]	@ movhi
 962:App/STM32F4-Discovery/Libraries/STM32F4xx_StdPeriph_Driver/src/stm32f4xx_tim.c **** }
 3453              		.loc 1 962 0
 3454 017e 1037     		adds	r7, r7, #16
 3455 0180 BD46     		mov	sp, r7
 3456              		@ sp needed
 3457 0182 80BD     		pop	{r7, pc}
 3458              	.L145:
 3459              		.align	2
 3460              	.L144:
 3461 0184 00000140 		.word	1073807360
 3462 0188 00040040 		.word	1073742848
 3463 018c 00080040 		.word	1073743872
 3464 0190 000C0040 		.word	1073744896
 3465 0194 00040140 		.word	1073808384
 3466 0198 00000000 		.word	.LC0
 3467              		.cfi_endproc
 3468              	.LFE128:
 3470              		.section	.text.TIM_OCStructInit,"ax",%progbits
 3471              		.align	2
 3472              		.global	TIM_OCStructInit
 3473              		.thumb
 3474              		.thumb_func
 3476              	TIM_OCStructInit:
 3477              	.LFB129:
 963:App/STM32F4-Discovery/Libraries/STM32F4xx_StdPeriph_Driver/src/stm32f4xx_tim.c **** 
 964:App/STM32F4-Discovery/Libraries/STM32F4xx_StdPeriph_Driver/src/stm32f4xx_tim.c **** /**
 965:App/STM32F4-Discovery/Libraries/STM32F4xx_StdPeriph_Driver/src/stm32f4xx_tim.c ****   * @brief  Fills each TIM_OCInitStruct member with its default value.
 966:App/STM32F4-Discovery/Libraries/STM32F4xx_StdPeriph_Driver/src/stm32f4xx_tim.c ****   * @param  TIM_OCInitStruct: pointer to a TIM_OCInitTypeDef structure which will
 967:App/STM32F4-Discovery/Libraries/STM32F4xx_StdPeriph_Driver/src/stm32f4xx_tim.c ****   *         be initialized.
 968:App/STM32F4-Discovery/Libraries/STM32F4xx_StdPeriph_Driver/src/stm32f4xx_tim.c ****   * @retval None
 969:App/STM32F4-Discovery/Libraries/STM32F4xx_StdPeriph_Driver/src/stm32f4xx_tim.c ****   */
 970:App/STM32F4-Discovery/Libraries/STM32F4xx_StdPeriph_Driver/src/stm32f4xx_tim.c **** void TIM_OCStructInit(TIM_OCInitTypeDef* TIM_OCInitStruct)
 971:App/STM32F4-Discovery/Libraries/STM32F4xx_StdPeriph_Driver/src/stm32f4xx_tim.c **** {
 3478              		.loc 1 971 0
 3479              		.cfi_startproc
 3480              		@ args = 0, pretend = 0, frame = 8
