   1              		.syntax unified
   2              		.cpu cortex-m4
   3              		.eabi_attribute 27, 3
   4              		.fpu fpv4-sp-d16
   5              		.eabi_attribute 20, 1
   6              		.eabi_attribute 21, 1
   7              		.eabi_attribute 23, 3
   8              		.eabi_attribute 24, 1
   9              		.eabi_attribute 25, 1
  10              		.eabi_attribute 26, 1
  11              		.eabi_attribute 30, 6
  12              		.eabi_attribute 34, 1
  13              		.eabi_attribute 18, 4
  14              		.thumb
  15              		.file	"stm32f4xx_hash_sha1.c"
  16              		.text
  17              	.Ltext0:
  18              		.cfi_sections	.debug_frame
  19              		.section	.text.HASH_SHA1,"ax",%progbits
  20              		.align	2
  21              		.global	HASH_SHA1
  22              		.thumb
  23              		.thumb_func
  25              	HASH_SHA1:
  26              	.LFB110:
  27              		.file 1 "App/STM32F4-Discovery/Libraries/STM32F4xx_StdPeriph_Driver/src/stm32f4xx_hash_sha1.c"
   1:App/STM32F4-Discovery/Libraries/STM32F4xx_StdPeriph_Driver/src/stm32f4xx_hash_sha1.c **** /**
   2:App/STM32F4-Discovery/Libraries/STM32F4xx_StdPeriph_Driver/src/stm32f4xx_hash_sha1.c ****   ******************************************************************************
   3:App/STM32F4-Discovery/Libraries/STM32F4xx_StdPeriph_Driver/src/stm32f4xx_hash_sha1.c ****   * @file    stm32f4xx_hash_sha1.c
   4:App/STM32F4-Discovery/Libraries/STM32F4xx_StdPeriph_Driver/src/stm32f4xx_hash_sha1.c ****   * @author  MCD Application Team
   5:App/STM32F4-Discovery/Libraries/STM32F4xx_StdPeriph_Driver/src/stm32f4xx_hash_sha1.c ****   * @version V1.0.0
   6:App/STM32F4-Discovery/Libraries/STM32F4xx_StdPeriph_Driver/src/stm32f4xx_hash_sha1.c ****   * @date    30-September-2011
   7:App/STM32F4-Discovery/Libraries/STM32F4xx_StdPeriph_Driver/src/stm32f4xx_hash_sha1.c ****   * @brief   This file provides high level functions to compute the HASH SHA1 and
   8:App/STM32F4-Discovery/Libraries/STM32F4xx_StdPeriph_Driver/src/stm32f4xx_hash_sha1.c ****   *          HMAC SHA1 Digest of an input message.
   9:App/STM32F4-Discovery/Libraries/STM32F4xx_StdPeriph_Driver/src/stm32f4xx_hash_sha1.c ****   *          It uses the stm32f4xx_hash.c/.h drivers to access the STM32F4xx HASH
  10:App/STM32F4-Discovery/Libraries/STM32F4xx_StdPeriph_Driver/src/stm32f4xx_hash_sha1.c ****   *          peripheral.
  11:App/STM32F4-Discovery/Libraries/STM32F4xx_StdPeriph_Driver/src/stm32f4xx_hash_sha1.c ****   *
  12:App/STM32F4-Discovery/Libraries/STM32F4xx_StdPeriph_Driver/src/stm32f4xx_hash_sha1.c ****   *  @verbatim
  13:App/STM32F4-Discovery/Libraries/STM32F4xx_StdPeriph_Driver/src/stm32f4xx_hash_sha1.c ****   * 
  14:App/STM32F4-Discovery/Libraries/STM32F4xx_StdPeriph_Driver/src/stm32f4xx_hash_sha1.c ****   *          ===================================================================
  15:App/STM32F4-Discovery/Libraries/STM32F4xx_StdPeriph_Driver/src/stm32f4xx_hash_sha1.c ****   *                                   How to use this driver
  16:App/STM32F4-Discovery/Libraries/STM32F4xx_StdPeriph_Driver/src/stm32f4xx_hash_sha1.c ****   *          ===================================================================
  17:App/STM32F4-Discovery/Libraries/STM32F4xx_StdPeriph_Driver/src/stm32f4xx_hash_sha1.c ****   *          1. Enable The HASH controller clock using 
  18:App/STM32F4-Discovery/Libraries/STM32F4xx_StdPeriph_Driver/src/stm32f4xx_hash_sha1.c ****   *            RCC_AHB2PeriphClockCmd(RCC_AHB2Periph_HASH, ENABLE); function.
  19:App/STM32F4-Discovery/Libraries/STM32F4xx_StdPeriph_Driver/src/stm32f4xx_hash_sha1.c ****   *
  20:App/STM32F4-Discovery/Libraries/STM32F4xx_StdPeriph_Driver/src/stm32f4xx_hash_sha1.c ****   *          2. Calculate the HASH SHA1 Digest using HASH_SHA1() function.
  21:App/STM32F4-Discovery/Libraries/STM32F4xx_StdPeriph_Driver/src/stm32f4xx_hash_sha1.c ****   *
  22:App/STM32F4-Discovery/Libraries/STM32F4xx_StdPeriph_Driver/src/stm32f4xx_hash_sha1.c ****   *          3. Calculate the HMAC SHA1 Digest using HMAC_SHA1() function.
  23:App/STM32F4-Discovery/Libraries/STM32F4xx_StdPeriph_Driver/src/stm32f4xx_hash_sha1.c ****   *
  24:App/STM32F4-Discovery/Libraries/STM32F4xx_StdPeriph_Driver/src/stm32f4xx_hash_sha1.c ****   *  @endverbatim
  25:App/STM32F4-Discovery/Libraries/STM32F4xx_StdPeriph_Driver/src/stm32f4xx_hash_sha1.c ****   *
  26:App/STM32F4-Discovery/Libraries/STM32F4xx_StdPeriph_Driver/src/stm32f4xx_hash_sha1.c ****   ******************************************************************************
  27:App/STM32F4-Discovery/Libraries/STM32F4xx_StdPeriph_Driver/src/stm32f4xx_hash_sha1.c ****   * @attention
  28:App/STM32F4-Discovery/Libraries/STM32F4xx_StdPeriph_Driver/src/stm32f4xx_hash_sha1.c ****   *
  29:App/STM32F4-Discovery/Libraries/STM32F4xx_StdPeriph_Driver/src/stm32f4xx_hash_sha1.c ****   * THE PRESENT FIRMWARE WHICH IS FOR GUIDANCE ONLY AIMS AT PROVIDING CUSTOMERS
  30:App/STM32F4-Discovery/Libraries/STM32F4xx_StdPeriph_Driver/src/stm32f4xx_hash_sha1.c ****   * WITH CODING INFORMATION REGARDING THEIR PRODUCTS IN ORDER FOR THEM TO SAVE
  31:App/STM32F4-Discovery/Libraries/STM32F4xx_StdPeriph_Driver/src/stm32f4xx_hash_sha1.c ****   * TIME. AS A RESULT, STMICROELECTRONICS SHALL NOT BE HELD LIABLE FOR ANY
  32:App/STM32F4-Discovery/Libraries/STM32F4xx_StdPeriph_Driver/src/stm32f4xx_hash_sha1.c ****   * DIRECT, INDIRECT OR CONSEQUENTIAL DAMAGES WITH RESPECT TO ANY CLAIMS ARISING
  33:App/STM32F4-Discovery/Libraries/STM32F4xx_StdPeriph_Driver/src/stm32f4xx_hash_sha1.c ****   * FROM THE CONTENT OF SUCH FIRMWARE AND/OR THE USE MADE BY CUSTOMERS OF THE
  34:App/STM32F4-Discovery/Libraries/STM32F4xx_StdPeriph_Driver/src/stm32f4xx_hash_sha1.c ****   * CODING INFORMATION CONTAINED HEREIN IN CONNECTION WITH THEIR PRODUCTS.
  35:App/STM32F4-Discovery/Libraries/STM32F4xx_StdPeriph_Driver/src/stm32f4xx_hash_sha1.c ****   *
  36:App/STM32F4-Discovery/Libraries/STM32F4xx_StdPeriph_Driver/src/stm32f4xx_hash_sha1.c ****   * <h2><center>&copy; COPYRIGHT 2011 STMicroelectronics</center></h2>
  37:App/STM32F4-Discovery/Libraries/STM32F4xx_StdPeriph_Driver/src/stm32f4xx_hash_sha1.c ****   ******************************************************************************
  38:App/STM32F4-Discovery/Libraries/STM32F4xx_StdPeriph_Driver/src/stm32f4xx_hash_sha1.c ****   */
  39:App/STM32F4-Discovery/Libraries/STM32F4xx_StdPeriph_Driver/src/stm32f4xx_hash_sha1.c **** 
  40:App/STM32F4-Discovery/Libraries/STM32F4xx_StdPeriph_Driver/src/stm32f4xx_hash_sha1.c **** /* Includes ------------------------------------------------------------------*/
  41:App/STM32F4-Discovery/Libraries/STM32F4xx_StdPeriph_Driver/src/stm32f4xx_hash_sha1.c **** #include "stm32f4xx_hash.h"
  42:App/STM32F4-Discovery/Libraries/STM32F4xx_StdPeriph_Driver/src/stm32f4xx_hash_sha1.c **** 
  43:App/STM32F4-Discovery/Libraries/STM32F4xx_StdPeriph_Driver/src/stm32f4xx_hash_sha1.c **** /** @addtogroup STM32F4xx_StdPeriph_Driver
  44:App/STM32F4-Discovery/Libraries/STM32F4xx_StdPeriph_Driver/src/stm32f4xx_hash_sha1.c ****   * @{
  45:App/STM32F4-Discovery/Libraries/STM32F4xx_StdPeriph_Driver/src/stm32f4xx_hash_sha1.c ****   */
  46:App/STM32F4-Discovery/Libraries/STM32F4xx_StdPeriph_Driver/src/stm32f4xx_hash_sha1.c **** 
  47:App/STM32F4-Discovery/Libraries/STM32F4xx_StdPeriph_Driver/src/stm32f4xx_hash_sha1.c **** /** @defgroup HASH 
  48:App/STM32F4-Discovery/Libraries/STM32F4xx_StdPeriph_Driver/src/stm32f4xx_hash_sha1.c ****   * @brief HASH driver modules
  49:App/STM32F4-Discovery/Libraries/STM32F4xx_StdPeriph_Driver/src/stm32f4xx_hash_sha1.c ****   * @{
  50:App/STM32F4-Discovery/Libraries/STM32F4xx_StdPeriph_Driver/src/stm32f4xx_hash_sha1.c ****   */
  51:App/STM32F4-Discovery/Libraries/STM32F4xx_StdPeriph_Driver/src/stm32f4xx_hash_sha1.c **** 
  52:App/STM32F4-Discovery/Libraries/STM32F4xx_StdPeriph_Driver/src/stm32f4xx_hash_sha1.c **** /* Private typedef -----------------------------------------------------------*/
  53:App/STM32F4-Discovery/Libraries/STM32F4xx_StdPeriph_Driver/src/stm32f4xx_hash_sha1.c **** /* Private define ------------------------------------------------------------*/
  54:App/STM32F4-Discovery/Libraries/STM32F4xx_StdPeriph_Driver/src/stm32f4xx_hash_sha1.c **** #define SHA1BUSY_TIMEOUT    ((uint32_t) 0x00010000)
  55:App/STM32F4-Discovery/Libraries/STM32F4xx_StdPeriph_Driver/src/stm32f4xx_hash_sha1.c **** 
  56:App/STM32F4-Discovery/Libraries/STM32F4xx_StdPeriph_Driver/src/stm32f4xx_hash_sha1.c **** /* Private macro -------------------------------------------------------------*/
  57:App/STM32F4-Discovery/Libraries/STM32F4xx_StdPeriph_Driver/src/stm32f4xx_hash_sha1.c **** /* Private variables ---------------------------------------------------------*/
  58:App/STM32F4-Discovery/Libraries/STM32F4xx_StdPeriph_Driver/src/stm32f4xx_hash_sha1.c **** /* Private function prototypes -----------------------------------------------*/
  59:App/STM32F4-Discovery/Libraries/STM32F4xx_StdPeriph_Driver/src/stm32f4xx_hash_sha1.c **** /* Private functions ---------------------------------------------------------*/
  60:App/STM32F4-Discovery/Libraries/STM32F4xx_StdPeriph_Driver/src/stm32f4xx_hash_sha1.c **** 
  61:App/STM32F4-Discovery/Libraries/STM32F4xx_StdPeriph_Driver/src/stm32f4xx_hash_sha1.c **** /** @defgroup HASH_Private_Functions
  62:App/STM32F4-Discovery/Libraries/STM32F4xx_StdPeriph_Driver/src/stm32f4xx_hash_sha1.c ****   * @{
  63:App/STM32F4-Discovery/Libraries/STM32F4xx_StdPeriph_Driver/src/stm32f4xx_hash_sha1.c ****   */ 
  64:App/STM32F4-Discovery/Libraries/STM32F4xx_StdPeriph_Driver/src/stm32f4xx_hash_sha1.c **** 
  65:App/STM32F4-Discovery/Libraries/STM32F4xx_StdPeriph_Driver/src/stm32f4xx_hash_sha1.c **** /** @defgroup HASH_Group6 High Level SHA1 functions
  66:App/STM32F4-Discovery/Libraries/STM32F4xx_StdPeriph_Driver/src/stm32f4xx_hash_sha1.c ****  *  @brief   High Level SHA1 Hash and HMAC functions 
  67:App/STM32F4-Discovery/Libraries/STM32F4xx_StdPeriph_Driver/src/stm32f4xx_hash_sha1.c ****  *
  68:App/STM32F4-Discovery/Libraries/STM32F4xx_StdPeriph_Driver/src/stm32f4xx_hash_sha1.c **** @verbatim   
  69:App/STM32F4-Discovery/Libraries/STM32F4xx_StdPeriph_Driver/src/stm32f4xx_hash_sha1.c ****  ===============================================================================
  70:App/STM32F4-Discovery/Libraries/STM32F4xx_StdPeriph_Driver/src/stm32f4xx_hash_sha1.c ****                           High Level SHA1 Hash and HMAC functions
  71:App/STM32F4-Discovery/Libraries/STM32F4xx_StdPeriph_Driver/src/stm32f4xx_hash_sha1.c ****  ===============================================================================
  72:App/STM32F4-Discovery/Libraries/STM32F4xx_StdPeriph_Driver/src/stm32f4xx_hash_sha1.c **** 
  73:App/STM32F4-Discovery/Libraries/STM32F4xx_StdPeriph_Driver/src/stm32f4xx_hash_sha1.c **** 
  74:App/STM32F4-Discovery/Libraries/STM32F4xx_StdPeriph_Driver/src/stm32f4xx_hash_sha1.c **** @endverbatim
  75:App/STM32F4-Discovery/Libraries/STM32F4xx_StdPeriph_Driver/src/stm32f4xx_hash_sha1.c ****   * @{
  76:App/STM32F4-Discovery/Libraries/STM32F4xx_StdPeriph_Driver/src/stm32f4xx_hash_sha1.c ****   */
  77:App/STM32F4-Discovery/Libraries/STM32F4xx_StdPeriph_Driver/src/stm32f4xx_hash_sha1.c **** 
  78:App/STM32F4-Discovery/Libraries/STM32F4xx_StdPeriph_Driver/src/stm32f4xx_hash_sha1.c **** /**
  79:App/STM32F4-Discovery/Libraries/STM32F4xx_StdPeriph_Driver/src/stm32f4xx_hash_sha1.c ****   * @brief  Compute the HASH SHA1 digest.
  80:App/STM32F4-Discovery/Libraries/STM32F4xx_StdPeriph_Driver/src/stm32f4xx_hash_sha1.c ****   * @param  Input: pointer to the Input buffer to be treated.
  81:App/STM32F4-Discovery/Libraries/STM32F4xx_StdPeriph_Driver/src/stm32f4xx_hash_sha1.c ****   * @param  Ilen: length of the Input buffer.
  82:App/STM32F4-Discovery/Libraries/STM32F4xx_StdPeriph_Driver/src/stm32f4xx_hash_sha1.c ****   * @param  Output: the returned digest
  83:App/STM32F4-Discovery/Libraries/STM32F4xx_StdPeriph_Driver/src/stm32f4xx_hash_sha1.c ****   * @retval An ErrorStatus enumeration value:
  84:App/STM32F4-Discovery/Libraries/STM32F4xx_StdPeriph_Driver/src/stm32f4xx_hash_sha1.c ****   *          - SUCCESS: digest computation done
  85:App/STM32F4-Discovery/Libraries/STM32F4xx_StdPeriph_Driver/src/stm32f4xx_hash_sha1.c ****   *          - ERROR: digest computation failed
  86:App/STM32F4-Discovery/Libraries/STM32F4xx_StdPeriph_Driver/src/stm32f4xx_hash_sha1.c ****   */
  87:App/STM32F4-Discovery/Libraries/STM32F4xx_StdPeriph_Driver/src/stm32f4xx_hash_sha1.c **** ErrorStatus HASH_SHA1(uint8_t *Input, uint32_t Ilen, uint8_t Output[20])
  88:App/STM32F4-Discovery/Libraries/STM32F4xx_StdPeriph_Driver/src/stm32f4xx_hash_sha1.c **** {
  28              		.loc 1 88 0
  29              		.cfi_startproc
  30              		@ args = 0, pretend = 0, frame = 120
  31              		@ frame_needed = 1, uses_anonymous_args = 0
  32 0000 80B5     		push	{r7, lr}
  33              	.LCFI0:
  34              		.cfi_def_cfa_offset 8
  35              		.cfi_offset 7, -8
  36              		.cfi_offset 14, -4
  37 0002 9EB0     		sub	sp, sp, #120
  38              	.LCFI1:
  39              		.cfi_def_cfa_offset 128
  40 0004 00AF     		add	r7, sp, #0
  41              	.LCFI2:
  42              		.cfi_def_cfa_register 7
  43 0006 F860     		str	r0, [r7, #12]
  44 0008 B960     		str	r1, [r7, #8]
  45 000a 7A60     		str	r2, [r7, #4]
  89:App/STM32F4-Discovery/Libraries/STM32F4xx_StdPeriph_Driver/src/stm32f4xx_hash_sha1.c ****   HASH_InitTypeDef SHA1_HASH_InitStructure;
  90:App/STM32F4-Discovery/Libraries/STM32F4xx_StdPeriph_Driver/src/stm32f4xx_hash_sha1.c ****   HASH_MsgDigest SHA1_MessageDigest;
  91:App/STM32F4-Discovery/Libraries/STM32F4xx_StdPeriph_Driver/src/stm32f4xx_hash_sha1.c ****   __IO uint16_t nbvalidbitsdata = 0;
  46              		.loc 1 91 0
  47 000c 0023     		movs	r3, #0
  48 000e FB82     		strh	r3, [r7, #22]	@ movhi
  92:App/STM32F4-Discovery/Libraries/STM32F4xx_StdPeriph_Driver/src/stm32f4xx_hash_sha1.c ****   uint32_t i = 0;
  49              		.loc 1 92 0
  50 0010 0023     		movs	r3, #0
  51 0012 7B67     		str	r3, [r7, #116]
  93:App/STM32F4-Discovery/Libraries/STM32F4xx_StdPeriph_Driver/src/stm32f4xx_hash_sha1.c ****   __IO uint32_t counter = 0;
  52              		.loc 1 93 0
  53 0014 0023     		movs	r3, #0
  54 0016 3B61     		str	r3, [r7, #16]
  94:App/STM32F4-Discovery/Libraries/STM32F4xx_StdPeriph_Driver/src/stm32f4xx_hash_sha1.c ****   uint32_t busystatus = 0;
  55              		.loc 1 94 0
  56 0018 0023     		movs	r3, #0
  57 001a BB66     		str	r3, [r7, #104]
  95:App/STM32F4-Discovery/Libraries/STM32F4xx_StdPeriph_Driver/src/stm32f4xx_hash_sha1.c ****   ErrorStatus status = SUCCESS;
  58              		.loc 1 95 0
  59 001c 0123     		movs	r3, #1
  60 001e 87F87330 		strb	r3, [r7, #115]
  96:App/STM32F4-Discovery/Libraries/STM32F4xx_StdPeriph_Driver/src/stm32f4xx_hash_sha1.c ****   uint32_t inputaddr  = (uint32_t)Input;
  61              		.loc 1 96 0
  62 0022 FB68     		ldr	r3, [r7, #12]
  63 0024 FB66     		str	r3, [r7, #108]
  97:App/STM32F4-Discovery/Libraries/STM32F4xx_StdPeriph_Driver/src/stm32f4xx_hash_sha1.c ****   uint32_t outputaddr = (uint32_t)Output;
  64              		.loc 1 97 0
  65 0026 7B68     		ldr	r3, [r7, #4]
  66 0028 7B66     		str	r3, [r7, #100]
  98:App/STM32F4-Discovery/Libraries/STM32F4xx_StdPeriph_Driver/src/stm32f4xx_hash_sha1.c **** 
  99:App/STM32F4-Discovery/Libraries/STM32F4xx_StdPeriph_Driver/src/stm32f4xx_hash_sha1.c ****   /* Number of valid bits in last word of the Input data */
 100:App/STM32F4-Discovery/Libraries/STM32F4xx_StdPeriph_Driver/src/stm32f4xx_hash_sha1.c ****   nbvalidbitsdata = 8 * (Ilen % 4);
  67              		.loc 1 100 0
  68 002a BB68     		ldr	r3, [r7, #8]
  69 002c 9BB2     		uxth	r3, r3
  70 002e 03F00303 		and	r3, r3, #3
  71 0032 9BB2     		uxth	r3, r3
  72 0034 DB00     		lsls	r3, r3, #3
  73 0036 9BB2     		uxth	r3, r3
  74 0038 FB82     		strh	r3, [r7, #22]	@ movhi
 101:App/STM32F4-Discovery/Libraries/STM32F4xx_StdPeriph_Driver/src/stm32f4xx_hash_sha1.c **** 
 102:App/STM32F4-Discovery/Libraries/STM32F4xx_StdPeriph_Driver/src/stm32f4xx_hash_sha1.c ****   /* HASH peripheral initialization */
 103:App/STM32F4-Discovery/Libraries/STM32F4xx_StdPeriph_Driver/src/stm32f4xx_hash_sha1.c ****   HASH_DeInit();
  75              		.loc 1 103 0
  76 003a FFF7FEFF 		bl	HASH_DeInit
 104:App/STM32F4-Discovery/Libraries/STM32F4xx_StdPeriph_Driver/src/stm32f4xx_hash_sha1.c **** 
 105:App/STM32F4-Discovery/Libraries/STM32F4xx_StdPeriph_Driver/src/stm32f4xx_hash_sha1.c ****   /* HASH Configuration */
 106:App/STM32F4-Discovery/Libraries/STM32F4xx_StdPeriph_Driver/src/stm32f4xx_hash_sha1.c ****   SHA1_HASH_InitStructure.HASH_AlgoSelection = HASH_AlgoSelection_SHA1;
  77              		.loc 1 106 0
  78 003e 0023     		movs	r3, #0
  79 0040 FB62     		str	r3, [r7, #44]
 107:App/STM32F4-Discovery/Libraries/STM32F4xx_StdPeriph_Driver/src/stm32f4xx_hash_sha1.c ****   SHA1_HASH_InitStructure.HASH_AlgoMode = HASH_AlgoMode_HASH;
  80              		.loc 1 107 0
  81 0042 0023     		movs	r3, #0
  82 0044 3B63     		str	r3, [r7, #48]
 108:App/STM32F4-Discovery/Libraries/STM32F4xx_StdPeriph_Driver/src/stm32f4xx_hash_sha1.c ****   SHA1_HASH_InitStructure.HASH_DataType = HASH_DataType_8b;
  83              		.loc 1 108 0
  84 0046 2023     		movs	r3, #32
  85 0048 7B63     		str	r3, [r7, #52]
 109:App/STM32F4-Discovery/Libraries/STM32F4xx_StdPeriph_Driver/src/stm32f4xx_hash_sha1.c ****   HASH_Init(&SHA1_HASH_InitStructure);
  86              		.loc 1 109 0
  87 004a 07F12C03 		add	r3, r7, #44
  88 004e 1846     		mov	r0, r3
  89 0050 FFF7FEFF 		bl	HASH_Init
 110:App/STM32F4-Discovery/Libraries/STM32F4xx_StdPeriph_Driver/src/stm32f4xx_hash_sha1.c **** 
 111:App/STM32F4-Discovery/Libraries/STM32F4xx_StdPeriph_Driver/src/stm32f4xx_hash_sha1.c ****   /* Configure the number of valid bits in last word of the data */
 112:App/STM32F4-Discovery/Libraries/STM32F4xx_StdPeriph_Driver/src/stm32f4xx_hash_sha1.c ****   HASH_SetLastWordValidBitsNbr(nbvalidbitsdata);
  90              		.loc 1 112 0
  91 0054 FB8A     		ldrh	r3, [r7, #22]	@ movhi
  92 0056 9BB2     		uxth	r3, r3
  93 0058 1846     		mov	r0, r3
  94 005a FFF7FEFF 		bl	HASH_SetLastWordValidBitsNbr
 113:App/STM32F4-Discovery/Libraries/STM32F4xx_StdPeriph_Driver/src/stm32f4xx_hash_sha1.c **** 
 114:App/STM32F4-Discovery/Libraries/STM32F4xx_StdPeriph_Driver/src/stm32f4xx_hash_sha1.c ****   /* Write the Input block in the IN FIFO */
 115:App/STM32F4-Discovery/Libraries/STM32F4xx_StdPeriph_Driver/src/stm32f4xx_hash_sha1.c ****   for(i=0; i<Ilen; i+=4)
  95              		.loc 1 115 0
  96 005e 0023     		movs	r3, #0
  97 0060 7B67     		str	r3, [r7, #116]
  98 0062 0AE0     		b	.L2
  99              	.L3:
 116:App/STM32F4-Discovery/Libraries/STM32F4xx_StdPeriph_Driver/src/stm32f4xx_hash_sha1.c ****   {
 117:App/STM32F4-Discovery/Libraries/STM32F4xx_StdPeriph_Driver/src/stm32f4xx_hash_sha1.c ****     HASH_DataIn(*(uint32_t*)inputaddr);
 100              		.loc 1 117 0 discriminator 2
 101 0064 FB6E     		ldr	r3, [r7, #108]
 102 0066 1B68     		ldr	r3, [r3]
 103 0068 1846     		mov	r0, r3
 104 006a FFF7FEFF 		bl	HASH_DataIn
 118:App/STM32F4-Discovery/Libraries/STM32F4xx_StdPeriph_Driver/src/stm32f4xx_hash_sha1.c ****     inputaddr+=4;
 105              		.loc 1 118 0 discriminator 2
 106 006e FB6E     		ldr	r3, [r7, #108]
 107 0070 0433     		adds	r3, r3, #4
 108 0072 FB66     		str	r3, [r7, #108]
 115:App/STM32F4-Discovery/Libraries/STM32F4xx_StdPeriph_Driver/src/stm32f4xx_hash_sha1.c ****   for(i=0; i<Ilen; i+=4)
 109              		.loc 1 115 0 discriminator 2
 110 0074 7B6F     		ldr	r3, [r7, #116]
 111 0076 0433     		adds	r3, r3, #4
 112 0078 7B67     		str	r3, [r7, #116]
 113              	.L2:
 115:App/STM32F4-Discovery/Libraries/STM32F4xx_StdPeriph_Driver/src/stm32f4xx_hash_sha1.c ****   for(i=0; i<Ilen; i+=4)
 114              		.loc 1 115 0 is_stmt 0 discriminator 1
 115 007a 7A6F     		ldr	r2, [r7, #116]
 116 007c BB68     		ldr	r3, [r7, #8]
 117 007e 9A42     		cmp	r2, r3
 118 0080 F0D3     		bcc	.L3
 119:App/STM32F4-Discovery/Libraries/STM32F4xx_StdPeriph_Driver/src/stm32f4xx_hash_sha1.c ****   }
 120:App/STM32F4-Discovery/Libraries/STM32F4xx_StdPeriph_Driver/src/stm32f4xx_hash_sha1.c **** 
 121:App/STM32F4-Discovery/Libraries/STM32F4xx_StdPeriph_Driver/src/stm32f4xx_hash_sha1.c ****   /* Start the HASH processor */
 122:App/STM32F4-Discovery/Libraries/STM32F4xx_StdPeriph_Driver/src/stm32f4xx_hash_sha1.c ****   HASH_StartDigest();
 119              		.loc 1 122 0 is_stmt 1
 120 0082 FFF7FEFF 		bl	HASH_StartDigest
 121              	.L5:
 123:App/STM32F4-Discovery/Libraries/STM32F4xx_StdPeriph_Driver/src/stm32f4xx_hash_sha1.c **** 
 124:App/STM32F4-Discovery/Libraries/STM32F4xx_StdPeriph_Driver/src/stm32f4xx_hash_sha1.c ****   /* wait until the Busy flag is RESET */
 125:App/STM32F4-Discovery/Libraries/STM32F4xx_StdPeriph_Driver/src/stm32f4xx_hash_sha1.c ****   do
 126:App/STM32F4-Discovery/Libraries/STM32F4xx_StdPeriph_Driver/src/stm32f4xx_hash_sha1.c ****   {
 127:App/STM32F4-Discovery/Libraries/STM32F4xx_StdPeriph_Driver/src/stm32f4xx_hash_sha1.c ****     busystatus = HASH_GetFlagStatus(HASH_FLAG_BUSY);
 122              		.loc 1 127 0 discriminator 1
 123 0086 0820     		movs	r0, #8
 124 0088 FFF7FEFF 		bl	HASH_GetFlagStatus
 125 008c 0346     		mov	r3, r0
 126 008e BB66     		str	r3, [r7, #104]
 128:App/STM32F4-Discovery/Libraries/STM32F4xx_StdPeriph_Driver/src/stm32f4xx_hash_sha1.c ****     counter++;
 127              		.loc 1 128 0 discriminator 1
 128 0090 3B69     		ldr	r3, [r7, #16]
 129 0092 0133     		adds	r3, r3, #1
 130 0094 3B61     		str	r3, [r7, #16]
 129:App/STM32F4-Discovery/Libraries/STM32F4xx_StdPeriph_Driver/src/stm32f4xx_hash_sha1.c ****   }while ((counter != SHA1BUSY_TIMEOUT) && (busystatus != RESET));
 131              		.loc 1 129 0 discriminator 1
 132 0096 3B69     		ldr	r3, [r7, #16]
 133 0098 B3F5803F 		cmp	r3, #65536
 134 009c 02D0     		beq	.L4
 135 009e BB6E     		ldr	r3, [r7, #104]
 136 00a0 002B     		cmp	r3, #0
 137 00a2 F0D1     		bne	.L5
 138              	.L4:
 130:App/STM32F4-Discovery/Libraries/STM32F4xx_StdPeriph_Driver/src/stm32f4xx_hash_sha1.c **** 
 131:App/STM32F4-Discovery/Libraries/STM32F4xx_StdPeriph_Driver/src/stm32f4xx_hash_sha1.c ****   if (busystatus != RESET)
 139              		.loc 1 131 0
 140 00a4 BB6E     		ldr	r3, [r7, #104]
 141 00a6 002B     		cmp	r3, #0
 142 00a8 03D0     		beq	.L6
 132:App/STM32F4-Discovery/Libraries/STM32F4xx_StdPeriph_Driver/src/stm32f4xx_hash_sha1.c ****   {
 133:App/STM32F4-Discovery/Libraries/STM32F4xx_StdPeriph_Driver/src/stm32f4xx_hash_sha1.c ****      status = ERROR;
 143              		.loc 1 133 0
 144 00aa 0023     		movs	r3, #0
 145 00ac 87F87330 		strb	r3, [r7, #115]
 146 00b0 38E0     		b	.L7
 147              	.L6:
 134:App/STM32F4-Discovery/Libraries/STM32F4xx_StdPeriph_Driver/src/stm32f4xx_hash_sha1.c ****   }
 135:App/STM32F4-Discovery/Libraries/STM32F4xx_StdPeriph_Driver/src/stm32f4xx_hash_sha1.c ****   else
 136:App/STM32F4-Discovery/Libraries/STM32F4xx_StdPeriph_Driver/src/stm32f4xx_hash_sha1.c ****   {
 137:App/STM32F4-Discovery/Libraries/STM32F4xx_StdPeriph_Driver/src/stm32f4xx_hash_sha1.c ****     /* Read the message digest */
 138:App/STM32F4-Discovery/Libraries/STM32F4xx_StdPeriph_Driver/src/stm32f4xx_hash_sha1.c ****     HASH_GetDigest(&SHA1_MessageDigest);
 148              		.loc 1 138 0
 149 00b2 07F11803 		add	r3, r7, #24
 150 00b6 1846     		mov	r0, r3
 151 00b8 FFF7FEFF 		bl	HASH_GetDigest
 139:App/STM32F4-Discovery/Libraries/STM32F4xx_StdPeriph_Driver/src/stm32f4xx_hash_sha1.c ****     *(uint32_t*)(outputaddr)  = __REV(SHA1_MessageDigest.Data[0]);
 152              		.loc 1 139 0
 153 00bc 7B6E     		ldr	r3, [r7, #100]
 154 00be BA69     		ldr	r2, [r7, #24]
 155 00c0 3A66     		str	r2, [r7, #96]
 156              	.LBB22:
 157              	.LBB23:
 158              		.file 2 "App/STM32F4-Discovery/Libraries/CMSIS/Include/core_cmInstr.h"
   1:App/STM32F4-Discovery/Libraries/CMSIS/Include/core_cmInstr.h **** /**************************************************************************//**
   2:App/STM32F4-Discovery/Libraries/CMSIS/Include/core_cmInstr.h ****  * @file     core_cmInstr.h
   3:App/STM32F4-Discovery/Libraries/CMSIS/Include/core_cmInstr.h ****  * @brief    CMSIS Cortex-M Core Instruction Access Header File
   4:App/STM32F4-Discovery/Libraries/CMSIS/Include/core_cmInstr.h ****  * @version  V2.10
   5:App/STM32F4-Discovery/Libraries/CMSIS/Include/core_cmInstr.h ****  * @date     19. July 2011
   6:App/STM32F4-Discovery/Libraries/CMSIS/Include/core_cmInstr.h ****  *
   7:App/STM32F4-Discovery/Libraries/CMSIS/Include/core_cmInstr.h ****  * @note
   8:App/STM32F4-Discovery/Libraries/CMSIS/Include/core_cmInstr.h ****  * Copyright (C) 2009-2011 ARM Limited. All rights reserved.
   9:App/STM32F4-Discovery/Libraries/CMSIS/Include/core_cmInstr.h ****  *
  10:App/STM32F4-Discovery/Libraries/CMSIS/Include/core_cmInstr.h ****  * @par
  11:App/STM32F4-Discovery/Libraries/CMSIS/Include/core_cmInstr.h ****  * ARM Limited (ARM) is supplying this software for use with Cortex-M 
  12:App/STM32F4-Discovery/Libraries/CMSIS/Include/core_cmInstr.h ****  * processor based microcontrollers.  This file can be freely distributed 
  13:App/STM32F4-Discovery/Libraries/CMSIS/Include/core_cmInstr.h ****  * within development tools that are supporting such ARM based processors. 
  14:App/STM32F4-Discovery/Libraries/CMSIS/Include/core_cmInstr.h ****  *
  15:App/STM32F4-Discovery/Libraries/CMSIS/Include/core_cmInstr.h ****  * @par
  16:App/STM32F4-Discovery/Libraries/CMSIS/Include/core_cmInstr.h ****  * THIS SOFTWARE IS PROVIDED "AS IS".  NO WARRANTIES, WHETHER EXPRESS, IMPLIED
  17:App/STM32F4-Discovery/Libraries/CMSIS/Include/core_cmInstr.h ****  * OR STATUTORY, INCLUDING, BUT NOT LIMITED TO, IMPLIED WARRANTIES OF
  18:App/STM32F4-Discovery/Libraries/CMSIS/Include/core_cmInstr.h ****  * MERCHANTABILITY AND FITNESS FOR A PARTICULAR PURPOSE APPLY TO THIS SOFTWARE.
  19:App/STM32F4-Discovery/Libraries/CMSIS/Include/core_cmInstr.h ****  * ARM SHALL NOT, IN ANY CIRCUMSTANCES, BE LIABLE FOR SPECIAL, INCIDENTAL, OR
  20:App/STM32F4-Discovery/Libraries/CMSIS/Include/core_cmInstr.h ****  * CONSEQUENTIAL DAMAGES, FOR ANY REASON WHATSOEVER.
  21:App/STM32F4-Discovery/Libraries/CMSIS/Include/core_cmInstr.h ****  *
  22:App/STM32F4-Discovery/Libraries/CMSIS/Include/core_cmInstr.h ****  ******************************************************************************/
  23:App/STM32F4-Discovery/Libraries/CMSIS/Include/core_cmInstr.h **** 
  24:App/STM32F4-Discovery/Libraries/CMSIS/Include/core_cmInstr.h **** #ifndef __CORE_CMINSTR_H
  25:App/STM32F4-Discovery/Libraries/CMSIS/Include/core_cmInstr.h **** #define __CORE_CMINSTR_H
  26:App/STM32F4-Discovery/Libraries/CMSIS/Include/core_cmInstr.h **** 
  27:App/STM32F4-Discovery/Libraries/CMSIS/Include/core_cmInstr.h **** 
  28:App/STM32F4-Discovery/Libraries/CMSIS/Include/core_cmInstr.h **** /* ##########################  Core Instruction Access  ######################### */
  29:App/STM32F4-Discovery/Libraries/CMSIS/Include/core_cmInstr.h **** /** \defgroup CMSIS_Core_InstructionInterface CMSIS Core Instruction Interface
  30:App/STM32F4-Discovery/Libraries/CMSIS/Include/core_cmInstr.h ****   Access to dedicated instructions
  31:App/STM32F4-Discovery/Libraries/CMSIS/Include/core_cmInstr.h ****   @{
  32:App/STM32F4-Discovery/Libraries/CMSIS/Include/core_cmInstr.h **** */
  33:App/STM32F4-Discovery/Libraries/CMSIS/Include/core_cmInstr.h **** 
  34:App/STM32F4-Discovery/Libraries/CMSIS/Include/core_cmInstr.h **** #if   defined ( __CC_ARM ) /*------------------RealView Compiler -----------------*/
  35:App/STM32F4-Discovery/Libraries/CMSIS/Include/core_cmInstr.h **** /* ARM armcc specific functions */
  36:App/STM32F4-Discovery/Libraries/CMSIS/Include/core_cmInstr.h **** 
  37:App/STM32F4-Discovery/Libraries/CMSIS/Include/core_cmInstr.h **** #if (__ARMCC_VERSION < 400677)
  38:App/STM32F4-Discovery/Libraries/CMSIS/Include/core_cmInstr.h ****   #error "Please use ARM Compiler Toolchain V4.0.677 or later!"
  39:App/STM32F4-Discovery/Libraries/CMSIS/Include/core_cmInstr.h **** #endif
  40:App/STM32F4-Discovery/Libraries/CMSIS/Include/core_cmInstr.h **** 
  41:App/STM32F4-Discovery/Libraries/CMSIS/Include/core_cmInstr.h **** 
  42:App/STM32F4-Discovery/Libraries/CMSIS/Include/core_cmInstr.h **** /** \brief  No Operation
  43:App/STM32F4-Discovery/Libraries/CMSIS/Include/core_cmInstr.h **** 
  44:App/STM32F4-Discovery/Libraries/CMSIS/Include/core_cmInstr.h ****     No Operation does nothing. This instruction can be used for code alignment purposes.
  45:App/STM32F4-Discovery/Libraries/CMSIS/Include/core_cmInstr.h ****  */
  46:App/STM32F4-Discovery/Libraries/CMSIS/Include/core_cmInstr.h **** #define __NOP                             __nop
  47:App/STM32F4-Discovery/Libraries/CMSIS/Include/core_cmInstr.h **** 
  48:App/STM32F4-Discovery/Libraries/CMSIS/Include/core_cmInstr.h **** 
  49:App/STM32F4-Discovery/Libraries/CMSIS/Include/core_cmInstr.h **** /** \brief  Wait For Interrupt
  50:App/STM32F4-Discovery/Libraries/CMSIS/Include/core_cmInstr.h **** 
  51:App/STM32F4-Discovery/Libraries/CMSIS/Include/core_cmInstr.h ****     Wait For Interrupt is a hint instruction that suspends execution
  52:App/STM32F4-Discovery/Libraries/CMSIS/Include/core_cmInstr.h ****     until one of a number of events occurs.
  53:App/STM32F4-Discovery/Libraries/CMSIS/Include/core_cmInstr.h ****  */
  54:App/STM32F4-Discovery/Libraries/CMSIS/Include/core_cmInstr.h **** #define __WFI                             __wfi
  55:App/STM32F4-Discovery/Libraries/CMSIS/Include/core_cmInstr.h **** 
  56:App/STM32F4-Discovery/Libraries/CMSIS/Include/core_cmInstr.h **** 
  57:App/STM32F4-Discovery/Libraries/CMSIS/Include/core_cmInstr.h **** /** \brief  Wait For Event
  58:App/STM32F4-Discovery/Libraries/CMSIS/Include/core_cmInstr.h **** 
  59:App/STM32F4-Discovery/Libraries/CMSIS/Include/core_cmInstr.h ****     Wait For Event is a hint instruction that permits the processor to enter
  60:App/STM32F4-Discovery/Libraries/CMSIS/Include/core_cmInstr.h ****     a low-power state until one of a number of events occurs.
  61:App/STM32F4-Discovery/Libraries/CMSIS/Include/core_cmInstr.h ****  */
  62:App/STM32F4-Discovery/Libraries/CMSIS/Include/core_cmInstr.h **** #define __WFE                             __wfe
  63:App/STM32F4-Discovery/Libraries/CMSIS/Include/core_cmInstr.h **** 
  64:App/STM32F4-Discovery/Libraries/CMSIS/Include/core_cmInstr.h **** 
  65:App/STM32F4-Discovery/Libraries/CMSIS/Include/core_cmInstr.h **** /** \brief  Send Event
  66:App/STM32F4-Discovery/Libraries/CMSIS/Include/core_cmInstr.h **** 
  67:App/STM32F4-Discovery/Libraries/CMSIS/Include/core_cmInstr.h ****     Send Event is a hint instruction. It causes an event to be signaled to the CPU.
  68:App/STM32F4-Discovery/Libraries/CMSIS/Include/core_cmInstr.h ****  */
  69:App/STM32F4-Discovery/Libraries/CMSIS/Include/core_cmInstr.h **** #define __SEV                             __sev
  70:App/STM32F4-Discovery/Libraries/CMSIS/Include/core_cmInstr.h **** 
  71:App/STM32F4-Discovery/Libraries/CMSIS/Include/core_cmInstr.h **** 
  72:App/STM32F4-Discovery/Libraries/CMSIS/Include/core_cmInstr.h **** /** \brief  Instruction Synchronization Barrier
  73:App/STM32F4-Discovery/Libraries/CMSIS/Include/core_cmInstr.h **** 
  74:App/STM32F4-Discovery/Libraries/CMSIS/Include/core_cmInstr.h ****     Instruction Synchronization Barrier flushes the pipeline in the processor, 
  75:App/STM32F4-Discovery/Libraries/CMSIS/Include/core_cmInstr.h ****     so that all instructions following the ISB are fetched from cache or 
  76:App/STM32F4-Discovery/Libraries/CMSIS/Include/core_cmInstr.h ****     memory, after the instruction has been completed.
  77:App/STM32F4-Discovery/Libraries/CMSIS/Include/core_cmInstr.h ****  */
  78:App/STM32F4-Discovery/Libraries/CMSIS/Include/core_cmInstr.h **** #define __ISB()                           __isb(0xF)
  79:App/STM32F4-Discovery/Libraries/CMSIS/Include/core_cmInstr.h **** 
  80:App/STM32F4-Discovery/Libraries/CMSIS/Include/core_cmInstr.h **** 
  81:App/STM32F4-Discovery/Libraries/CMSIS/Include/core_cmInstr.h **** /** \brief  Data Synchronization Barrier
  82:App/STM32F4-Discovery/Libraries/CMSIS/Include/core_cmInstr.h **** 
  83:App/STM32F4-Discovery/Libraries/CMSIS/Include/core_cmInstr.h ****     This function acts as a special kind of Data Memory Barrier. 
  84:App/STM32F4-Discovery/Libraries/CMSIS/Include/core_cmInstr.h ****     It completes when all explicit memory accesses before this instruction complete.
  85:App/STM32F4-Discovery/Libraries/CMSIS/Include/core_cmInstr.h ****  */
  86:App/STM32F4-Discovery/Libraries/CMSIS/Include/core_cmInstr.h **** #define __DSB()                           __dsb(0xF)
  87:App/STM32F4-Discovery/Libraries/CMSIS/Include/core_cmInstr.h **** 
  88:App/STM32F4-Discovery/Libraries/CMSIS/Include/core_cmInstr.h **** 
  89:App/STM32F4-Discovery/Libraries/CMSIS/Include/core_cmInstr.h **** /** \brief  Data Memory Barrier
  90:App/STM32F4-Discovery/Libraries/CMSIS/Include/core_cmInstr.h **** 
  91:App/STM32F4-Discovery/Libraries/CMSIS/Include/core_cmInstr.h ****     This function ensures the apparent order of the explicit memory operations before 
  92:App/STM32F4-Discovery/Libraries/CMSIS/Include/core_cmInstr.h ****     and after the instruction, without ensuring their completion.
  93:App/STM32F4-Discovery/Libraries/CMSIS/Include/core_cmInstr.h ****  */
  94:App/STM32F4-Discovery/Libraries/CMSIS/Include/core_cmInstr.h **** #define __DMB()                           __dmb(0xF)
  95:App/STM32F4-Discovery/Libraries/CMSIS/Include/core_cmInstr.h **** 
  96:App/STM32F4-Discovery/Libraries/CMSIS/Include/core_cmInstr.h **** 
  97:App/STM32F4-Discovery/Libraries/CMSIS/Include/core_cmInstr.h **** /** \brief  Reverse byte order (32 bit)
  98:App/STM32F4-Discovery/Libraries/CMSIS/Include/core_cmInstr.h **** 
  99:App/STM32F4-Discovery/Libraries/CMSIS/Include/core_cmInstr.h ****     This function reverses the byte order in integer value.
 100:App/STM32F4-Discovery/Libraries/CMSIS/Include/core_cmInstr.h **** 
 101:App/STM32F4-Discovery/Libraries/CMSIS/Include/core_cmInstr.h ****     \param [in]    value  Value to reverse
 102:App/STM32F4-Discovery/Libraries/CMSIS/Include/core_cmInstr.h ****     \return               Reversed value
 103:App/STM32F4-Discovery/Libraries/CMSIS/Include/core_cmInstr.h ****  */
 104:App/STM32F4-Discovery/Libraries/CMSIS/Include/core_cmInstr.h **** #define __REV                             __rev
 105:App/STM32F4-Discovery/Libraries/CMSIS/Include/core_cmInstr.h **** 
 106:App/STM32F4-Discovery/Libraries/CMSIS/Include/core_cmInstr.h **** 
 107:App/STM32F4-Discovery/Libraries/CMSIS/Include/core_cmInstr.h **** /** \brief  Reverse byte order (16 bit)
 108:App/STM32F4-Discovery/Libraries/CMSIS/Include/core_cmInstr.h **** 
 109:App/STM32F4-Discovery/Libraries/CMSIS/Include/core_cmInstr.h ****     This function reverses the byte order in two unsigned short values.
 110:App/STM32F4-Discovery/Libraries/CMSIS/Include/core_cmInstr.h **** 
 111:App/STM32F4-Discovery/Libraries/CMSIS/Include/core_cmInstr.h ****     \param [in]    value  Value to reverse
 112:App/STM32F4-Discovery/Libraries/CMSIS/Include/core_cmInstr.h ****     \return               Reversed value
 113:App/STM32F4-Discovery/Libraries/CMSIS/Include/core_cmInstr.h ****  */
 114:App/STM32F4-Discovery/Libraries/CMSIS/Include/core_cmInstr.h **** static __INLINE __ASM uint32_t __REV16(uint32_t value)
 115:App/STM32F4-Discovery/Libraries/CMSIS/Include/core_cmInstr.h **** {
 116:App/STM32F4-Discovery/Libraries/CMSIS/Include/core_cmInstr.h ****   rev16 r0, r0
 117:App/STM32F4-Discovery/Libraries/CMSIS/Include/core_cmInstr.h ****   bx lr
 118:App/STM32F4-Discovery/Libraries/CMSIS/Include/core_cmInstr.h **** }
 119:App/STM32F4-Discovery/Libraries/CMSIS/Include/core_cmInstr.h **** 
 120:App/STM32F4-Discovery/Libraries/CMSIS/Include/core_cmInstr.h **** 
 121:App/STM32F4-Discovery/Libraries/CMSIS/Include/core_cmInstr.h **** /** \brief  Reverse byte order in signed short value
 122:App/STM32F4-Discovery/Libraries/CMSIS/Include/core_cmInstr.h **** 
 123:App/STM32F4-Discovery/Libraries/CMSIS/Include/core_cmInstr.h ****     This function reverses the byte order in a signed short value with sign extension to integer.
 124:App/STM32F4-Discovery/Libraries/CMSIS/Include/core_cmInstr.h **** 
 125:App/STM32F4-Discovery/Libraries/CMSIS/Include/core_cmInstr.h ****     \param [in]    value  Value to reverse
 126:App/STM32F4-Discovery/Libraries/CMSIS/Include/core_cmInstr.h ****     \return               Reversed value
 127:App/STM32F4-Discovery/Libraries/CMSIS/Include/core_cmInstr.h ****  */
 128:App/STM32F4-Discovery/Libraries/CMSIS/Include/core_cmInstr.h **** static __INLINE __ASM int32_t __REVSH(int32_t value)
 129:App/STM32F4-Discovery/Libraries/CMSIS/Include/core_cmInstr.h **** {
 130:App/STM32F4-Discovery/Libraries/CMSIS/Include/core_cmInstr.h ****   revsh r0, r0
 131:App/STM32F4-Discovery/Libraries/CMSIS/Include/core_cmInstr.h ****   bx lr
 132:App/STM32F4-Discovery/Libraries/CMSIS/Include/core_cmInstr.h **** }
 133:App/STM32F4-Discovery/Libraries/CMSIS/Include/core_cmInstr.h **** 
 134:App/STM32F4-Discovery/Libraries/CMSIS/Include/core_cmInstr.h **** 
 135:App/STM32F4-Discovery/Libraries/CMSIS/Include/core_cmInstr.h **** #if       (__CORTEX_M >= 0x03)
 136:App/STM32F4-Discovery/Libraries/CMSIS/Include/core_cmInstr.h **** 
 137:App/STM32F4-Discovery/Libraries/CMSIS/Include/core_cmInstr.h **** /** \brief  Reverse bit order of value
 138:App/STM32F4-Discovery/Libraries/CMSIS/Include/core_cmInstr.h **** 
 139:App/STM32F4-Discovery/Libraries/CMSIS/Include/core_cmInstr.h ****     This function reverses the bit order of the given value.
 140:App/STM32F4-Discovery/Libraries/CMSIS/Include/core_cmInstr.h **** 
 141:App/STM32F4-Discovery/Libraries/CMSIS/Include/core_cmInstr.h ****     \param [in]    value  Value to reverse
 142:App/STM32F4-Discovery/Libraries/CMSIS/Include/core_cmInstr.h ****     \return               Reversed value
 143:App/STM32F4-Discovery/Libraries/CMSIS/Include/core_cmInstr.h ****  */
 144:App/STM32F4-Discovery/Libraries/CMSIS/Include/core_cmInstr.h **** #define __RBIT                            __rbit
 145:App/STM32F4-Discovery/Libraries/CMSIS/Include/core_cmInstr.h **** 
 146:App/STM32F4-Discovery/Libraries/CMSIS/Include/core_cmInstr.h **** 
 147:App/STM32F4-Discovery/Libraries/CMSIS/Include/core_cmInstr.h **** /** \brief  LDR Exclusive (8 bit)
 148:App/STM32F4-Discovery/Libraries/CMSIS/Include/core_cmInstr.h **** 
 149:App/STM32F4-Discovery/Libraries/CMSIS/Include/core_cmInstr.h ****     This function performs a exclusive LDR command for 8 bit value.
 150:App/STM32F4-Discovery/Libraries/CMSIS/Include/core_cmInstr.h **** 
 151:App/STM32F4-Discovery/Libraries/CMSIS/Include/core_cmInstr.h ****     \param [in]    ptr  Pointer to data
 152:App/STM32F4-Discovery/Libraries/CMSIS/Include/core_cmInstr.h ****     \return             value of type uint8_t at (*ptr)
 153:App/STM32F4-Discovery/Libraries/CMSIS/Include/core_cmInstr.h ****  */
 154:App/STM32F4-Discovery/Libraries/CMSIS/Include/core_cmInstr.h **** #define __LDREXB(ptr)                     ((uint8_t ) __ldrex(ptr))
 155:App/STM32F4-Discovery/Libraries/CMSIS/Include/core_cmInstr.h **** 
 156:App/STM32F4-Discovery/Libraries/CMSIS/Include/core_cmInstr.h **** 
 157:App/STM32F4-Discovery/Libraries/CMSIS/Include/core_cmInstr.h **** /** \brief  LDR Exclusive (16 bit)
 158:App/STM32F4-Discovery/Libraries/CMSIS/Include/core_cmInstr.h **** 
 159:App/STM32F4-Discovery/Libraries/CMSIS/Include/core_cmInstr.h ****     This function performs a exclusive LDR command for 16 bit values.
 160:App/STM32F4-Discovery/Libraries/CMSIS/Include/core_cmInstr.h **** 
 161:App/STM32F4-Discovery/Libraries/CMSIS/Include/core_cmInstr.h ****     \param [in]    ptr  Pointer to data
 162:App/STM32F4-Discovery/Libraries/CMSIS/Include/core_cmInstr.h ****     \return        value of type uint16_t at (*ptr)
 163:App/STM32F4-Discovery/Libraries/CMSIS/Include/core_cmInstr.h ****  */
 164:App/STM32F4-Discovery/Libraries/CMSIS/Include/core_cmInstr.h **** #define __LDREXH(ptr)                     ((uint16_t) __ldrex(ptr))
 165:App/STM32F4-Discovery/Libraries/CMSIS/Include/core_cmInstr.h **** 
 166:App/STM32F4-Discovery/Libraries/CMSIS/Include/core_cmInstr.h **** 
 167:App/STM32F4-Discovery/Libraries/CMSIS/Include/core_cmInstr.h **** /** \brief  LDR Exclusive (32 bit)
 168:App/STM32F4-Discovery/Libraries/CMSIS/Include/core_cmInstr.h **** 
 169:App/STM32F4-Discovery/Libraries/CMSIS/Include/core_cmInstr.h ****     This function performs a exclusive LDR command for 32 bit values.
 170:App/STM32F4-Discovery/Libraries/CMSIS/Include/core_cmInstr.h **** 
 171:App/STM32F4-Discovery/Libraries/CMSIS/Include/core_cmInstr.h ****     \param [in]    ptr  Pointer to data
 172:App/STM32F4-Discovery/Libraries/CMSIS/Include/core_cmInstr.h ****     \return        value of type uint32_t at (*ptr)
 173:App/STM32F4-Discovery/Libraries/CMSIS/Include/core_cmInstr.h ****  */
 174:App/STM32F4-Discovery/Libraries/CMSIS/Include/core_cmInstr.h **** #define __LDREXW(ptr)                     ((uint32_t ) __ldrex(ptr))
 175:App/STM32F4-Discovery/Libraries/CMSIS/Include/core_cmInstr.h **** 
 176:App/STM32F4-Discovery/Libraries/CMSIS/Include/core_cmInstr.h **** 
 177:App/STM32F4-Discovery/Libraries/CMSIS/Include/core_cmInstr.h **** /** \brief  STR Exclusive (8 bit)
 178:App/STM32F4-Discovery/Libraries/CMSIS/Include/core_cmInstr.h **** 
 179:App/STM32F4-Discovery/Libraries/CMSIS/Include/core_cmInstr.h ****     This function performs a exclusive STR command for 8 bit values.
 180:App/STM32F4-Discovery/Libraries/CMSIS/Include/core_cmInstr.h **** 
 181:App/STM32F4-Discovery/Libraries/CMSIS/Include/core_cmInstr.h ****     \param [in]  value  Value to store
 182:App/STM32F4-Discovery/Libraries/CMSIS/Include/core_cmInstr.h ****     \param [in]    ptr  Pointer to location
 183:App/STM32F4-Discovery/Libraries/CMSIS/Include/core_cmInstr.h ****     \return          0  Function succeeded
 184:App/STM32F4-Discovery/Libraries/CMSIS/Include/core_cmInstr.h ****     \return          1  Function failed
 185:App/STM32F4-Discovery/Libraries/CMSIS/Include/core_cmInstr.h ****  */
 186:App/STM32F4-Discovery/Libraries/CMSIS/Include/core_cmInstr.h **** #define __STREXB(value, ptr)              __strex(value, ptr)
 187:App/STM32F4-Discovery/Libraries/CMSIS/Include/core_cmInstr.h **** 
 188:App/STM32F4-Discovery/Libraries/CMSIS/Include/core_cmInstr.h **** 
 189:App/STM32F4-Discovery/Libraries/CMSIS/Include/core_cmInstr.h **** /** \brief  STR Exclusive (16 bit)
 190:App/STM32F4-Discovery/Libraries/CMSIS/Include/core_cmInstr.h **** 
 191:App/STM32F4-Discovery/Libraries/CMSIS/Include/core_cmInstr.h ****     This function performs a exclusive STR command for 16 bit values.
 192:App/STM32F4-Discovery/Libraries/CMSIS/Include/core_cmInstr.h **** 
 193:App/STM32F4-Discovery/Libraries/CMSIS/Include/core_cmInstr.h ****     \param [in]  value  Value to store
 194:App/STM32F4-Discovery/Libraries/CMSIS/Include/core_cmInstr.h ****     \param [in]    ptr  Pointer to location
 195:App/STM32F4-Discovery/Libraries/CMSIS/Include/core_cmInstr.h ****     \return          0  Function succeeded
 196:App/STM32F4-Discovery/Libraries/CMSIS/Include/core_cmInstr.h ****     \return          1  Function failed
 197:App/STM32F4-Discovery/Libraries/CMSIS/Include/core_cmInstr.h ****  */
 198:App/STM32F4-Discovery/Libraries/CMSIS/Include/core_cmInstr.h **** #define __STREXH(value, ptr)              __strex(value, ptr)
 199:App/STM32F4-Discovery/Libraries/CMSIS/Include/core_cmInstr.h **** 
 200:App/STM32F4-Discovery/Libraries/CMSIS/Include/core_cmInstr.h **** 
 201:App/STM32F4-Discovery/Libraries/CMSIS/Include/core_cmInstr.h **** /** \brief  STR Exclusive (32 bit)
 202:App/STM32F4-Discovery/Libraries/CMSIS/Include/core_cmInstr.h **** 
 203:App/STM32F4-Discovery/Libraries/CMSIS/Include/core_cmInstr.h ****     This function performs a exclusive STR command for 32 bit values.
 204:App/STM32F4-Discovery/Libraries/CMSIS/Include/core_cmInstr.h **** 
 205:App/STM32F4-Discovery/Libraries/CMSIS/Include/core_cmInstr.h ****     \param [in]  value  Value to store
 206:App/STM32F4-Discovery/Libraries/CMSIS/Include/core_cmInstr.h ****     \param [in]    ptr  Pointer to location
 207:App/STM32F4-Discovery/Libraries/CMSIS/Include/core_cmInstr.h ****     \return          0  Function succeeded
 208:App/STM32F4-Discovery/Libraries/CMSIS/Include/core_cmInstr.h ****     \return          1  Function failed
 209:App/STM32F4-Discovery/Libraries/CMSIS/Include/core_cmInstr.h ****  */
 210:App/STM32F4-Discovery/Libraries/CMSIS/Include/core_cmInstr.h **** #define __STREXW(value, ptr)              __strex(value, ptr)
 211:App/STM32F4-Discovery/Libraries/CMSIS/Include/core_cmInstr.h **** 
 212:App/STM32F4-Discovery/Libraries/CMSIS/Include/core_cmInstr.h **** 
 213:App/STM32F4-Discovery/Libraries/CMSIS/Include/core_cmInstr.h **** /** \brief  Remove the exclusive lock
 214:App/STM32F4-Discovery/Libraries/CMSIS/Include/core_cmInstr.h **** 
 215:App/STM32F4-Discovery/Libraries/CMSIS/Include/core_cmInstr.h ****     This function removes the exclusive lock which is created by LDREX.
 216:App/STM32F4-Discovery/Libraries/CMSIS/Include/core_cmInstr.h **** 
 217:App/STM32F4-Discovery/Libraries/CMSIS/Include/core_cmInstr.h ****  */
 218:App/STM32F4-Discovery/Libraries/CMSIS/Include/core_cmInstr.h **** #define __CLREX                           __clrex
 219:App/STM32F4-Discovery/Libraries/CMSIS/Include/core_cmInstr.h **** 
 220:App/STM32F4-Discovery/Libraries/CMSIS/Include/core_cmInstr.h **** 
 221:App/STM32F4-Discovery/Libraries/CMSIS/Include/core_cmInstr.h **** /** \brief  Signed Saturate
 222:App/STM32F4-Discovery/Libraries/CMSIS/Include/core_cmInstr.h **** 
 223:App/STM32F4-Discovery/Libraries/CMSIS/Include/core_cmInstr.h ****     This function saturates a signed value.
 224:App/STM32F4-Discovery/Libraries/CMSIS/Include/core_cmInstr.h **** 
 225:App/STM32F4-Discovery/Libraries/CMSIS/Include/core_cmInstr.h ****     \param [in]  value  Value to be saturated
 226:App/STM32F4-Discovery/Libraries/CMSIS/Include/core_cmInstr.h ****     \param [in]    sat  Bit position to saturate to (1..32)
 227:App/STM32F4-Discovery/Libraries/CMSIS/Include/core_cmInstr.h ****     \return             Saturated value
 228:App/STM32F4-Discovery/Libraries/CMSIS/Include/core_cmInstr.h ****  */
 229:App/STM32F4-Discovery/Libraries/CMSIS/Include/core_cmInstr.h **** #define __SSAT                            __ssat
 230:App/STM32F4-Discovery/Libraries/CMSIS/Include/core_cmInstr.h **** 
 231:App/STM32F4-Discovery/Libraries/CMSIS/Include/core_cmInstr.h **** 
 232:App/STM32F4-Discovery/Libraries/CMSIS/Include/core_cmInstr.h **** /** \brief  Unsigned Saturate
 233:App/STM32F4-Discovery/Libraries/CMSIS/Include/core_cmInstr.h **** 
 234:App/STM32F4-Discovery/Libraries/CMSIS/Include/core_cmInstr.h ****     This function saturates an unsigned value.
 235:App/STM32F4-Discovery/Libraries/CMSIS/Include/core_cmInstr.h **** 
 236:App/STM32F4-Discovery/Libraries/CMSIS/Include/core_cmInstr.h ****     \param [in]  value  Value to be saturated
 237:App/STM32F4-Discovery/Libraries/CMSIS/Include/core_cmInstr.h ****     \param [in]    sat  Bit position to saturate to (0..31)
 238:App/STM32F4-Discovery/Libraries/CMSIS/Include/core_cmInstr.h ****     \return             Saturated value
 239:App/STM32F4-Discovery/Libraries/CMSIS/Include/core_cmInstr.h ****  */
 240:App/STM32F4-Discovery/Libraries/CMSIS/Include/core_cmInstr.h **** #define __USAT                            __usat
 241:App/STM32F4-Discovery/Libraries/CMSIS/Include/core_cmInstr.h **** 
 242:App/STM32F4-Discovery/Libraries/CMSIS/Include/core_cmInstr.h **** 
 243:App/STM32F4-Discovery/Libraries/CMSIS/Include/core_cmInstr.h **** /** \brief  Count leading zeros
 244:App/STM32F4-Discovery/Libraries/CMSIS/Include/core_cmInstr.h **** 
 245:App/STM32F4-Discovery/Libraries/CMSIS/Include/core_cmInstr.h ****     This function counts the number of leading zeros of a data value.
 246:App/STM32F4-Discovery/Libraries/CMSIS/Include/core_cmInstr.h **** 
 247:App/STM32F4-Discovery/Libraries/CMSIS/Include/core_cmInstr.h ****     \param [in]  value  Value to count the leading zeros
 248:App/STM32F4-Discovery/Libraries/CMSIS/Include/core_cmInstr.h ****     \return             number of leading zeros in value
 249:App/STM32F4-Discovery/Libraries/CMSIS/Include/core_cmInstr.h ****  */
 250:App/STM32F4-Discovery/Libraries/CMSIS/Include/core_cmInstr.h **** #define __CLZ                             __clz 
 251:App/STM32F4-Discovery/Libraries/CMSIS/Include/core_cmInstr.h **** 
 252:App/STM32F4-Discovery/Libraries/CMSIS/Include/core_cmInstr.h **** #endif /* (__CORTEX_M >= 0x03) */
 253:App/STM32F4-Discovery/Libraries/CMSIS/Include/core_cmInstr.h **** 
 254:App/STM32F4-Discovery/Libraries/CMSIS/Include/core_cmInstr.h **** 
 255:App/STM32F4-Discovery/Libraries/CMSIS/Include/core_cmInstr.h **** 
 256:App/STM32F4-Discovery/Libraries/CMSIS/Include/core_cmInstr.h **** #elif defined ( __ICCARM__ ) /*------------------ ICC Compiler -------------------*/
 257:App/STM32F4-Discovery/Libraries/CMSIS/Include/core_cmInstr.h **** /* IAR iccarm specific functions */
 258:App/STM32F4-Discovery/Libraries/CMSIS/Include/core_cmInstr.h **** 
 259:App/STM32F4-Discovery/Libraries/CMSIS/Include/core_cmInstr.h **** #include <cmsis_iar.h>
 260:App/STM32F4-Discovery/Libraries/CMSIS/Include/core_cmInstr.h **** 
 261:App/STM32F4-Discovery/Libraries/CMSIS/Include/core_cmInstr.h **** 
 262:App/STM32F4-Discovery/Libraries/CMSIS/Include/core_cmInstr.h **** #elif defined ( __GNUC__ ) /*------------------ GNU Compiler ---------------------*/
 263:App/STM32F4-Discovery/Libraries/CMSIS/Include/core_cmInstr.h **** /* GNU gcc specific functions */
 264:App/STM32F4-Discovery/Libraries/CMSIS/Include/core_cmInstr.h **** 
 265:App/STM32F4-Discovery/Libraries/CMSIS/Include/core_cmInstr.h **** /** \brief  No Operation
 266:App/STM32F4-Discovery/Libraries/CMSIS/Include/core_cmInstr.h **** 
 267:App/STM32F4-Discovery/Libraries/CMSIS/Include/core_cmInstr.h ****     No Operation does nothing. This instruction can be used for code alignment purposes.
 268:App/STM32F4-Discovery/Libraries/CMSIS/Include/core_cmInstr.h ****  */
 269:App/STM32F4-Discovery/Libraries/CMSIS/Include/core_cmInstr.h **** __attribute__( ( always_inline ) ) static __INLINE void __NOP(void)
 270:App/STM32F4-Discovery/Libraries/CMSIS/Include/core_cmInstr.h **** {
 271:App/STM32F4-Discovery/Libraries/CMSIS/Include/core_cmInstr.h ****   __ASM volatile ("nop");
 272:App/STM32F4-Discovery/Libraries/CMSIS/Include/core_cmInstr.h **** }
 273:App/STM32F4-Discovery/Libraries/CMSIS/Include/core_cmInstr.h **** 
 274:App/STM32F4-Discovery/Libraries/CMSIS/Include/core_cmInstr.h **** 
 275:App/STM32F4-Discovery/Libraries/CMSIS/Include/core_cmInstr.h **** /** \brief  Wait For Interrupt
 276:App/STM32F4-Discovery/Libraries/CMSIS/Include/core_cmInstr.h **** 
 277:App/STM32F4-Discovery/Libraries/CMSIS/Include/core_cmInstr.h ****     Wait For Interrupt is a hint instruction that suspends execution
 278:App/STM32F4-Discovery/Libraries/CMSIS/Include/core_cmInstr.h ****     until one of a number of events occurs.
 279:App/STM32F4-Discovery/Libraries/CMSIS/Include/core_cmInstr.h ****  */
 280:App/STM32F4-Discovery/Libraries/CMSIS/Include/core_cmInstr.h **** __attribute__( ( always_inline ) ) static __INLINE void __WFI(void)
 281:App/STM32F4-Discovery/Libraries/CMSIS/Include/core_cmInstr.h **** {
 282:App/STM32F4-Discovery/Libraries/CMSIS/Include/core_cmInstr.h ****   __ASM volatile ("wfi");
 283:App/STM32F4-Discovery/Libraries/CMSIS/Include/core_cmInstr.h **** }
 284:App/STM32F4-Discovery/Libraries/CMSIS/Include/core_cmInstr.h **** 
 285:App/STM32F4-Discovery/Libraries/CMSIS/Include/core_cmInstr.h **** 
 286:App/STM32F4-Discovery/Libraries/CMSIS/Include/core_cmInstr.h **** /** \brief  Wait For Event
 287:App/STM32F4-Discovery/Libraries/CMSIS/Include/core_cmInstr.h **** 
 288:App/STM32F4-Discovery/Libraries/CMSIS/Include/core_cmInstr.h ****     Wait For Event is a hint instruction that permits the processor to enter
 289:App/STM32F4-Discovery/Libraries/CMSIS/Include/core_cmInstr.h ****     a low-power state until one of a number of events occurs.
 290:App/STM32F4-Discovery/Libraries/CMSIS/Include/core_cmInstr.h ****  */
 291:App/STM32F4-Discovery/Libraries/CMSIS/Include/core_cmInstr.h **** __attribute__( ( always_inline ) ) static __INLINE void __WFE(void)
 292:App/STM32F4-Discovery/Libraries/CMSIS/Include/core_cmInstr.h **** {
 293:App/STM32F4-Discovery/Libraries/CMSIS/Include/core_cmInstr.h ****   __ASM volatile ("wfe");
 294:App/STM32F4-Discovery/Libraries/CMSIS/Include/core_cmInstr.h **** }
 295:App/STM32F4-Discovery/Libraries/CMSIS/Include/core_cmInstr.h **** 
 296:App/STM32F4-Discovery/Libraries/CMSIS/Include/core_cmInstr.h **** 
 297:App/STM32F4-Discovery/Libraries/CMSIS/Include/core_cmInstr.h **** /** \brief  Send Event
 298:App/STM32F4-Discovery/Libraries/CMSIS/Include/core_cmInstr.h **** 
 299:App/STM32F4-Discovery/Libraries/CMSIS/Include/core_cmInstr.h ****     Send Event is a hint instruction. It causes an event to be signaled to the CPU.
 300:App/STM32F4-Discovery/Libraries/CMSIS/Include/core_cmInstr.h ****  */
 301:App/STM32F4-Discovery/Libraries/CMSIS/Include/core_cmInstr.h **** __attribute__( ( always_inline ) ) static __INLINE void __SEV(void)
 302:App/STM32F4-Discovery/Libraries/CMSIS/Include/core_cmInstr.h **** {
 303:App/STM32F4-Discovery/Libraries/CMSIS/Include/core_cmInstr.h ****   __ASM volatile ("sev");
 304:App/STM32F4-Discovery/Libraries/CMSIS/Include/core_cmInstr.h **** }
 305:App/STM32F4-Discovery/Libraries/CMSIS/Include/core_cmInstr.h **** 
 306:App/STM32F4-Discovery/Libraries/CMSIS/Include/core_cmInstr.h **** 
 307:App/STM32F4-Discovery/Libraries/CMSIS/Include/core_cmInstr.h **** /** \brief  Instruction Synchronization Barrier
 308:App/STM32F4-Discovery/Libraries/CMSIS/Include/core_cmInstr.h **** 
 309:App/STM32F4-Discovery/Libraries/CMSIS/Include/core_cmInstr.h ****     Instruction Synchronization Barrier flushes the pipeline in the processor, 
 310:App/STM32F4-Discovery/Libraries/CMSIS/Include/core_cmInstr.h ****     so that all instructions following the ISB are fetched from cache or 
 311:App/STM32F4-Discovery/Libraries/CMSIS/Include/core_cmInstr.h ****     memory, after the instruction has been completed.
 312:App/STM32F4-Discovery/Libraries/CMSIS/Include/core_cmInstr.h ****  */
 313:App/STM32F4-Discovery/Libraries/CMSIS/Include/core_cmInstr.h **** __attribute__( ( always_inline ) ) static __INLINE void __ISB(void)
 314:App/STM32F4-Discovery/Libraries/CMSIS/Include/core_cmInstr.h **** {
 315:App/STM32F4-Discovery/Libraries/CMSIS/Include/core_cmInstr.h ****   __ASM volatile ("isb");
 316:App/STM32F4-Discovery/Libraries/CMSIS/Include/core_cmInstr.h **** }
 317:App/STM32F4-Discovery/Libraries/CMSIS/Include/core_cmInstr.h **** 
 318:App/STM32F4-Discovery/Libraries/CMSIS/Include/core_cmInstr.h **** 
 319:App/STM32F4-Discovery/Libraries/CMSIS/Include/core_cmInstr.h **** /** \brief  Data Synchronization Barrier
 320:App/STM32F4-Discovery/Libraries/CMSIS/Include/core_cmInstr.h **** 
 321:App/STM32F4-Discovery/Libraries/CMSIS/Include/core_cmInstr.h ****     This function acts as a special kind of Data Memory Barrier. 
 322:App/STM32F4-Discovery/Libraries/CMSIS/Include/core_cmInstr.h ****     It completes when all explicit memory accesses before this instruction complete.
 323:App/STM32F4-Discovery/Libraries/CMSIS/Include/core_cmInstr.h ****  */
 324:App/STM32F4-Discovery/Libraries/CMSIS/Include/core_cmInstr.h **** __attribute__( ( always_inline ) ) static __INLINE void __DSB(void)
 325:App/STM32F4-Discovery/Libraries/CMSIS/Include/core_cmInstr.h **** {
 326:App/STM32F4-Discovery/Libraries/CMSIS/Include/core_cmInstr.h ****   __ASM volatile ("dsb");
 327:App/STM32F4-Discovery/Libraries/CMSIS/Include/core_cmInstr.h **** }
 328:App/STM32F4-Discovery/Libraries/CMSIS/Include/core_cmInstr.h **** 
 329:App/STM32F4-Discovery/Libraries/CMSIS/Include/core_cmInstr.h **** 
 330:App/STM32F4-Discovery/Libraries/CMSIS/Include/core_cmInstr.h **** /** \brief  Data Memory Barrier
 331:App/STM32F4-Discovery/Libraries/CMSIS/Include/core_cmInstr.h **** 
 332:App/STM32F4-Discovery/Libraries/CMSIS/Include/core_cmInstr.h ****     This function ensures the apparent order of the explicit memory operations before 
 333:App/STM32F4-Discovery/Libraries/CMSIS/Include/core_cmInstr.h ****     and after the instruction, without ensuring their completion.
 334:App/STM32F4-Discovery/Libraries/CMSIS/Include/core_cmInstr.h ****  */
 335:App/STM32F4-Discovery/Libraries/CMSIS/Include/core_cmInstr.h **** __attribute__( ( always_inline ) ) static __INLINE void __DMB(void)
 336:App/STM32F4-Discovery/Libraries/CMSIS/Include/core_cmInstr.h **** {
 337:App/STM32F4-Discovery/Libraries/CMSIS/Include/core_cmInstr.h ****   __ASM volatile ("dmb");
 338:App/STM32F4-Discovery/Libraries/CMSIS/Include/core_cmInstr.h **** }
 339:App/STM32F4-Discovery/Libraries/CMSIS/Include/core_cmInstr.h **** 
 340:App/STM32F4-Discovery/Libraries/CMSIS/Include/core_cmInstr.h **** 
 341:App/STM32F4-Discovery/Libraries/CMSIS/Include/core_cmInstr.h **** /** \brief  Reverse byte order (32 bit)
 342:App/STM32F4-Discovery/Libraries/CMSIS/Include/core_cmInstr.h **** 
 343:App/STM32F4-Discovery/Libraries/CMSIS/Include/core_cmInstr.h ****     This function reverses the byte order in integer value.
 344:App/STM32F4-Discovery/Libraries/CMSIS/Include/core_cmInstr.h **** 
 345:App/STM32F4-Discovery/Libraries/CMSIS/Include/core_cmInstr.h ****     \param [in]    value  Value to reverse
 346:App/STM32F4-Discovery/Libraries/CMSIS/Include/core_cmInstr.h ****     \return               Reversed value
 347:App/STM32F4-Discovery/Libraries/CMSIS/Include/core_cmInstr.h ****  */
 348:App/STM32F4-Discovery/Libraries/CMSIS/Include/core_cmInstr.h **** __attribute__( ( always_inline ) ) static __INLINE uint32_t __REV(uint32_t value)
 349:App/STM32F4-Discovery/Libraries/CMSIS/Include/core_cmInstr.h **** {
 350:App/STM32F4-Discovery/Libraries/CMSIS/Include/core_cmInstr.h ****   uint32_t result;
 351:App/STM32F4-Discovery/Libraries/CMSIS/Include/core_cmInstr.h ****   
 352:App/STM32F4-Discovery/Libraries/CMSIS/Include/core_cmInstr.h ****   __ASM volatile ("rev %0, %1" : "=r" (result) : "r" (value) );
 159              		.loc 2 352 0
 160 00c2 3A6E     		ldr	r2, [r7, #96]
 161              	@ 352 "App/STM32F4-Discovery/Libraries/CMSIS/Include/core_cmInstr.h" 1
 162 00c4 12BA     		rev r2, r2
 163              	@ 0 "" 2
 164              		.thumb
 165 00c6 FA65     		str	r2, [r7, #92]
 353:App/STM32F4-Discovery/Libraries/CMSIS/Include/core_cmInstr.h ****   return(result);
 166              		.loc 2 353 0
 167 00c8 FA6D     		ldr	r2, [r7, #92]
 168              	.LBE23:
 169              	.LBE22:
 170              		.loc 1 139 0
 171 00ca 1A60     		str	r2, [r3]
 140:App/STM32F4-Discovery/Libraries/STM32F4xx_StdPeriph_Driver/src/stm32f4xx_hash_sha1.c ****     outputaddr+=4;
 172              		.loc 1 140 0
 173 00cc 7B6E     		ldr	r3, [r7, #100]
 174 00ce 0433     		adds	r3, r3, #4
 175 00d0 7B66     		str	r3, [r7, #100]
 141:App/STM32F4-Discovery/Libraries/STM32F4xx_StdPeriph_Driver/src/stm32f4xx_hash_sha1.c ****     *(uint32_t*)(outputaddr)  = __REV(SHA1_MessageDigest.Data[1]);
 176              		.loc 1 141 0
 177 00d2 7B6E     		ldr	r3, [r7, #100]
 178 00d4 FA69     		ldr	r2, [r7, #28]
 179 00d6 BA65     		str	r2, [r7, #88]
 180              	.LBB24:
 181              	.LBB25:
 352:App/STM32F4-Discovery/Libraries/CMSIS/Include/core_cmInstr.h ****   __ASM volatile ("rev %0, %1" : "=r" (result) : "r" (value) );
 182              		.loc 2 352 0
 183 00d8 BA6D     		ldr	r2, [r7, #88]
 184              	@ 352 "App/STM32F4-Discovery/Libraries/CMSIS/Include/core_cmInstr.h" 1
 185 00da 12BA     		rev r2, r2
 186              	@ 0 "" 2
 187              		.thumb
 188 00dc 7A65     		str	r2, [r7, #84]
 189              		.loc 2 353 0
 190 00de 7A6D     		ldr	r2, [r7, #84]
 191              	.LBE25:
 192              	.LBE24:
 193              		.loc 1 141 0
 194 00e0 1A60     		str	r2, [r3]
 142:App/STM32F4-Discovery/Libraries/STM32F4xx_StdPeriph_Driver/src/stm32f4xx_hash_sha1.c ****     outputaddr+=4;
 195              		.loc 1 142 0
 196 00e2 7B6E     		ldr	r3, [r7, #100]
 197 00e4 0433     		adds	r3, r3, #4
 198 00e6 7B66     		str	r3, [r7, #100]
 143:App/STM32F4-Discovery/Libraries/STM32F4xx_StdPeriph_Driver/src/stm32f4xx_hash_sha1.c ****     *(uint32_t*)(outputaddr)  = __REV(SHA1_MessageDigest.Data[2]);
 199              		.loc 1 143 0
 200 00e8 7B6E     		ldr	r3, [r7, #100]
 201 00ea 3A6A     		ldr	r2, [r7, #32]
 202 00ec 3A65     		str	r2, [r7, #80]
 203              	.LBB26:
 204              	.LBB27:
 352:App/STM32F4-Discovery/Libraries/CMSIS/Include/core_cmInstr.h ****   __ASM volatile ("rev %0, %1" : "=r" (result) : "r" (value) );
 205              		.loc 2 352 0
 206 00ee 3A6D     		ldr	r2, [r7, #80]
 207              	@ 352 "App/STM32F4-Discovery/Libraries/CMSIS/Include/core_cmInstr.h" 1
 208 00f0 12BA     		rev r2, r2
 209              	@ 0 "" 2
 210              		.thumb
 211 00f2 FA64     		str	r2, [r7, #76]
 212              		.loc 2 353 0
 213 00f4 FA6C     		ldr	r2, [r7, #76]
 214              	.LBE27:
 215              	.LBE26:
 216              		.loc 1 143 0
 217 00f6 1A60     		str	r2, [r3]
 144:App/STM32F4-Discovery/Libraries/STM32F4xx_StdPeriph_Driver/src/stm32f4xx_hash_sha1.c ****     outputaddr+=4;
 218              		.loc 1 144 0
 219 00f8 7B6E     		ldr	r3, [r7, #100]
 220 00fa 0433     		adds	r3, r3, #4
 221 00fc 7B66     		str	r3, [r7, #100]
 145:App/STM32F4-Discovery/Libraries/STM32F4xx_StdPeriph_Driver/src/stm32f4xx_hash_sha1.c ****     *(uint32_t*)(outputaddr)  = __REV(SHA1_MessageDigest.Data[3]);
 222              		.loc 1 145 0
 223 00fe 7B6E     		ldr	r3, [r7, #100]
 224 0100 7A6A     		ldr	r2, [r7, #36]
 225 0102 BA64     		str	r2, [r7, #72]
 226              	.LBB28:
 227              	.LBB29:
 352:App/STM32F4-Discovery/Libraries/CMSIS/Include/core_cmInstr.h ****   __ASM volatile ("rev %0, %1" : "=r" (result) : "r" (value) );
 228              		.loc 2 352 0
 229 0104 BA6C     		ldr	r2, [r7, #72]
 230              	@ 352 "App/STM32F4-Discovery/Libraries/CMSIS/Include/core_cmInstr.h" 1
 231 0106 12BA     		rev r2, r2
 232              	@ 0 "" 2
 233              		.thumb
 234 0108 7A64     		str	r2, [r7, #68]
 235              		.loc 2 353 0
 236 010a 7A6C     		ldr	r2, [r7, #68]
 237              	.LBE29:
 238              	.LBE28:
 239              		.loc 1 145 0
 240 010c 1A60     		str	r2, [r3]
 146:App/STM32F4-Discovery/Libraries/STM32F4xx_StdPeriph_Driver/src/stm32f4xx_hash_sha1.c ****     outputaddr+=4;
 241              		.loc 1 146 0
 242 010e 7B6E     		ldr	r3, [r7, #100]
 243 0110 0433     		adds	r3, r3, #4
 244 0112 7B66     		str	r3, [r7, #100]
 147:App/STM32F4-Discovery/Libraries/STM32F4xx_StdPeriph_Driver/src/stm32f4xx_hash_sha1.c ****     *(uint32_t*)(outputaddr)  = __REV(SHA1_MessageDigest.Data[4]);
 245              		.loc 1 147 0
 246 0114 7B6E     		ldr	r3, [r7, #100]
 247 0116 BA6A     		ldr	r2, [r7, #40]
 248 0118 3A64     		str	r2, [r7, #64]
 249              	.LBB30:
 250              	.LBB31:
 352:App/STM32F4-Discovery/Libraries/CMSIS/Include/core_cmInstr.h ****   __ASM volatile ("rev %0, %1" : "=r" (result) : "r" (value) );
 251              		.loc 2 352 0
 252 011a 3A6C     		ldr	r2, [r7, #64]
 253              	@ 352 "App/STM32F4-Discovery/Libraries/CMSIS/Include/core_cmInstr.h" 1
 254 011c 12BA     		rev r2, r2
 255              	@ 0 "" 2
 256              		.thumb
 257 011e FA63     		str	r2, [r7, #60]
 258              		.loc 2 353 0
 259 0120 FA6B     		ldr	r2, [r7, #60]
 260              	.LBE31:
 261              	.LBE30:
 262              		.loc 1 147 0
 263 0122 1A60     		str	r2, [r3]
 264              	.L7:
 148:App/STM32F4-Discovery/Libraries/STM32F4xx_StdPeriph_Driver/src/stm32f4xx_hash_sha1.c ****   }
 149:App/STM32F4-Discovery/Libraries/STM32F4xx_StdPeriph_Driver/src/stm32f4xx_hash_sha1.c ****   return status;
 265              		.loc 1 149 0
 266 0124 97F87330 		ldrb	r3, [r7, #115]	@ zero_extendqisi2
 150:App/STM32F4-Discovery/Libraries/STM32F4xx_StdPeriph_Driver/src/stm32f4xx_hash_sha1.c **** }
 267              		.loc 1 150 0
 268 0128 1846     		mov	r0, r3
 269 012a 7837     		adds	r7, r7, #120
 270 012c BD46     		mov	sp, r7
 271              		@ sp needed
 272 012e 80BD     		pop	{r7, pc}
 273              		.cfi_endproc
 274              	.LFE110:
 276              		.section	.text.HMAC_SHA1,"ax",%progbits
 277              		.align	2
 278              		.global	HMAC_SHA1
 279              		.thumb
 280              		.thumb_func
 282              	HMAC_SHA1:
 283              	.LFB111:
 151:App/STM32F4-Discovery/Libraries/STM32F4xx_StdPeriph_Driver/src/stm32f4xx_hash_sha1.c **** 
 152:App/STM32F4-Discovery/Libraries/STM32F4xx_StdPeriph_Driver/src/stm32f4xx_hash_sha1.c **** /**
 153:App/STM32F4-Discovery/Libraries/STM32F4xx_StdPeriph_Driver/src/stm32f4xx_hash_sha1.c ****   * @brief  Compute the HMAC SHA1 digest.
 154:App/STM32F4-Discovery/Libraries/STM32F4xx_StdPeriph_Driver/src/stm32f4xx_hash_sha1.c ****   * @param  Key: pointer to the Key used for HMAC.
 155:App/STM32F4-Discovery/Libraries/STM32F4xx_StdPeriph_Driver/src/stm32f4xx_hash_sha1.c ****   * @param  Keylen: length of the Key used for HMAC.  
 156:App/STM32F4-Discovery/Libraries/STM32F4xx_StdPeriph_Driver/src/stm32f4xx_hash_sha1.c ****   * @param  Input: pointer to the Input buffer to be treated.
 157:App/STM32F4-Discovery/Libraries/STM32F4xx_StdPeriph_Driver/src/stm32f4xx_hash_sha1.c ****   * @param  Ilen: length of the Input buffer.
 158:App/STM32F4-Discovery/Libraries/STM32F4xx_StdPeriph_Driver/src/stm32f4xx_hash_sha1.c ****   * @param  Output: the returned digest
 159:App/STM32F4-Discovery/Libraries/STM32F4xx_StdPeriph_Driver/src/stm32f4xx_hash_sha1.c ****   * @retval An ErrorStatus enumeration value:
 160:App/STM32F4-Discovery/Libraries/STM32F4xx_StdPeriph_Driver/src/stm32f4xx_hash_sha1.c ****   *          - SUCCESS: digest computation done
 161:App/STM32F4-Discovery/Libraries/STM32F4xx_StdPeriph_Driver/src/stm32f4xx_hash_sha1.c ****   *          - ERROR: digest computation failed
 162:App/STM32F4-Discovery/Libraries/STM32F4xx_StdPeriph_Driver/src/stm32f4xx_hash_sha1.c ****   */
 163:App/STM32F4-Discovery/Libraries/STM32F4xx_StdPeriph_Driver/src/stm32f4xx_hash_sha1.c **** ErrorStatus HMAC_SHA1(uint8_t *Key, uint32_t Keylen, uint8_t *Input,
 164:App/STM32F4-Discovery/Libraries/STM32F4xx_StdPeriph_Driver/src/stm32f4xx_hash_sha1.c ****                       uint32_t Ilen, uint8_t Output[20])
 165:App/STM32F4-Discovery/Libraries/STM32F4xx_StdPeriph_Driver/src/stm32f4xx_hash_sha1.c **** {
 284              		.loc 1 165 0
 285              		.cfi_startproc
 286              		@ args = 4, pretend = 0, frame = 128
 287              		@ frame_needed = 1, uses_anonymous_args = 0
 288 0000 80B5     		push	{r7, lr}
 289              	.LCFI3:
 290              		.cfi_def_cfa_offset 8
 291              		.cfi_offset 7, -8
 292              		.cfi_offset 14, -4
 293 0002 A0B0     		sub	sp, sp, #128
 294              	.LCFI4:
 295              		.cfi_def_cfa_offset 136
 296 0004 00AF     		add	r7, sp, #0
 297              	.LCFI5:
 298              		.cfi_def_cfa_register 7
 299 0006 F860     		str	r0, [r7, #12]
 300 0008 B960     		str	r1, [r7, #8]
 301 000a 7A60     		str	r2, [r7, #4]
 302 000c 3B60     		str	r3, [r7]
 166:App/STM32F4-Discovery/Libraries/STM32F4xx_StdPeriph_Driver/src/stm32f4xx_hash_sha1.c ****   HASH_InitTypeDef SHA1_HASH_InitStructure;
 167:App/STM32F4-Discovery/Libraries/STM32F4xx_StdPeriph_Driver/src/stm32f4xx_hash_sha1.c ****   HASH_MsgDigest SHA1_MessageDigest;
 168:App/STM32F4-Discovery/Libraries/STM32F4xx_StdPeriph_Driver/src/stm32f4xx_hash_sha1.c ****   __IO uint16_t nbvalidbitsdata = 0;
 303              		.loc 1 168 0
 304 000e 0023     		movs	r3, #0
 305 0010 7B83     		strh	r3, [r7, #26]	@ movhi
 169:App/STM32F4-Discovery/Libraries/STM32F4xx_StdPeriph_Driver/src/stm32f4xx_hash_sha1.c ****   __IO uint16_t nbvalidbitskey = 0;
 306              		.loc 1 169 0
 307 0012 0023     		movs	r3, #0
 308 0014 3B83     		strh	r3, [r7, #24]	@ movhi
 170:App/STM32F4-Discovery/Libraries/STM32F4xx_StdPeriph_Driver/src/stm32f4xx_hash_sha1.c ****   uint32_t i = 0;
 309              		.loc 1 170 0
 310 0016 0023     		movs	r3, #0
 311 0018 FB67     		str	r3, [r7, #124]
 171:App/STM32F4-Discovery/Libraries/STM32F4xx_StdPeriph_Driver/src/stm32f4xx_hash_sha1.c ****   __IO uint32_t counter = 0;
 312              		.loc 1 171 0
 313 001a 0023     		movs	r3, #0
 314 001c 7B61     		str	r3, [r7, #20]
 172:App/STM32F4-Discovery/Libraries/STM32F4xx_StdPeriph_Driver/src/stm32f4xx_hash_sha1.c ****   uint32_t busystatus = 0;
 315              		.loc 1 172 0
 316 001e 0023     		movs	r3, #0
 317 0020 FB66     		str	r3, [r7, #108]
 173:App/STM32F4-Discovery/Libraries/STM32F4xx_StdPeriph_Driver/src/stm32f4xx_hash_sha1.c ****   ErrorStatus status = SUCCESS;
 318              		.loc 1 173 0
 319 0022 0123     		movs	r3, #1
 320 0024 87F87B30 		strb	r3, [r7, #123]
 174:App/STM32F4-Discovery/Libraries/STM32F4xx_StdPeriph_Driver/src/stm32f4xx_hash_sha1.c ****   uint32_t keyaddr    = (uint32_t)Key;
 321              		.loc 1 174 0
 322 0028 FB68     		ldr	r3, [r7, #12]
 323 002a 7B67     		str	r3, [r7, #116]
 175:App/STM32F4-Discovery/Libraries/STM32F4xx_StdPeriph_Driver/src/stm32f4xx_hash_sha1.c ****   uint32_t inputaddr  = (uint32_t)Input;
 324              		.loc 1 175 0
 325 002c 7B68     		ldr	r3, [r7, #4]
 326 002e 3B67     		str	r3, [r7, #112]
 176:App/STM32F4-Discovery/Libraries/STM32F4xx_StdPeriph_Driver/src/stm32f4xx_hash_sha1.c ****   uint32_t outputaddr = (uint32_t)Output;
 327              		.loc 1 176 0
 328 0030 D7F88830 		ldr	r3, [r7, #136]
 329 0034 BB66     		str	r3, [r7, #104]
 177:App/STM32F4-Discovery/Libraries/STM32F4xx_StdPeriph_Driver/src/stm32f4xx_hash_sha1.c **** 
 178:App/STM32F4-Discovery/Libraries/STM32F4xx_StdPeriph_Driver/src/stm32f4xx_hash_sha1.c ****   /* Number of valid bits in last word of the Input data */
 179:App/STM32F4-Discovery/Libraries/STM32F4xx_StdPeriph_Driver/src/stm32f4xx_hash_sha1.c ****   nbvalidbitsdata = 8 * (Ilen % 4);
 330              		.loc 1 179 0
 331 0036 3B68     		ldr	r3, [r7]
 332 0038 9BB2     		uxth	r3, r3
 333 003a 03F00303 		and	r3, r3, #3
 334 003e 9BB2     		uxth	r3, r3
 335 0040 DB00     		lsls	r3, r3, #3
 336 0042 9BB2     		uxth	r3, r3
 337 0044 7B83     		strh	r3, [r7, #26]	@ movhi
 180:App/STM32F4-Discovery/Libraries/STM32F4xx_StdPeriph_Driver/src/stm32f4xx_hash_sha1.c **** 
 181:App/STM32F4-Discovery/Libraries/STM32F4xx_StdPeriph_Driver/src/stm32f4xx_hash_sha1.c ****   /* Number of valid bits in last word of the Key */
 182:App/STM32F4-Discovery/Libraries/STM32F4xx_StdPeriph_Driver/src/stm32f4xx_hash_sha1.c ****   nbvalidbitskey = 8 * (Keylen % 4);
 338              		.loc 1 182 0
 339 0046 BB68     		ldr	r3, [r7, #8]
 340 0048 9BB2     		uxth	r3, r3
 341 004a 03F00303 		and	r3, r3, #3
 342 004e 9BB2     		uxth	r3, r3
 343 0050 DB00     		lsls	r3, r3, #3
 344 0052 9BB2     		uxth	r3, r3
 345 0054 3B83     		strh	r3, [r7, #24]	@ movhi
 183:App/STM32F4-Discovery/Libraries/STM32F4xx_StdPeriph_Driver/src/stm32f4xx_hash_sha1.c **** 
 184:App/STM32F4-Discovery/Libraries/STM32F4xx_StdPeriph_Driver/src/stm32f4xx_hash_sha1.c ****   /* HASH peripheral initialization */
 185:App/STM32F4-Discovery/Libraries/STM32F4xx_StdPeriph_Driver/src/stm32f4xx_hash_sha1.c ****   HASH_DeInit();
 346              		.loc 1 185 0
 347 0056 FFF7FEFF 		bl	HASH_DeInit
 186:App/STM32F4-Discovery/Libraries/STM32F4xx_StdPeriph_Driver/src/stm32f4xx_hash_sha1.c **** 
 187:App/STM32F4-Discovery/Libraries/STM32F4xx_StdPeriph_Driver/src/stm32f4xx_hash_sha1.c ****   /* HASH Configuration */
 188:App/STM32F4-Discovery/Libraries/STM32F4xx_StdPeriph_Driver/src/stm32f4xx_hash_sha1.c ****   SHA1_HASH_InitStructure.HASH_AlgoSelection = HASH_AlgoSelection_SHA1;
 348              		.loc 1 188 0
 349 005a 0023     		movs	r3, #0
 350 005c 3B63     		str	r3, [r7, #48]
 189:App/STM32F4-Discovery/Libraries/STM32F4xx_StdPeriph_Driver/src/stm32f4xx_hash_sha1.c ****   SHA1_HASH_InitStructure.HASH_AlgoMode = HASH_AlgoMode_HMAC;
 351              		.loc 1 189 0
 352 005e 4023     		movs	r3, #64
 353 0060 7B63     		str	r3, [r7, #52]
 190:App/STM32F4-Discovery/Libraries/STM32F4xx_StdPeriph_Driver/src/stm32f4xx_hash_sha1.c ****   SHA1_HASH_InitStructure.HASH_DataType = HASH_DataType_8b;
 354              		.loc 1 190 0
 355 0062 2023     		movs	r3, #32
 356 0064 BB63     		str	r3, [r7, #56]
 191:App/STM32F4-Discovery/Libraries/STM32F4xx_StdPeriph_Driver/src/stm32f4xx_hash_sha1.c ****   if(Keylen > 64)
 357              		.loc 1 191 0
 358 0066 BB68     		ldr	r3, [r7, #8]
 359 0068 402B     		cmp	r3, #64
 360 006a 03D9     		bls	.L15
 192:App/STM32F4-Discovery/Libraries/STM32F4xx_StdPeriph_Driver/src/stm32f4xx_hash_sha1.c ****   {
 193:App/STM32F4-Discovery/Libraries/STM32F4xx_StdPeriph_Driver/src/stm32f4xx_hash_sha1.c ****     /* HMAC long Key */
 194:App/STM32F4-Discovery/Libraries/STM32F4xx_StdPeriph_Driver/src/stm32f4xx_hash_sha1.c ****     SHA1_HASH_InitStructure.HASH_HMACKeyType = HASH_HMACKeyType_LongKey;
 361              		.loc 1 194 0
 362 006c 4FF48033 		mov	r3, #65536
 363 0070 FB63     		str	r3, [r7, #60]
 364 0072 01E0     		b	.L16
 365              	.L15:
 195:App/STM32F4-Discovery/Libraries/STM32F4xx_StdPeriph_Driver/src/stm32f4xx_hash_sha1.c ****   }
 196:App/STM32F4-Discovery/Libraries/STM32F4xx_StdPeriph_Driver/src/stm32f4xx_hash_sha1.c ****   else
 197:App/STM32F4-Discovery/Libraries/STM32F4xx_StdPeriph_Driver/src/stm32f4xx_hash_sha1.c ****   {
 198:App/STM32F4-Discovery/Libraries/STM32F4xx_StdPeriph_Driver/src/stm32f4xx_hash_sha1.c ****     /* HMAC short Key */
 199:App/STM32F4-Discovery/Libraries/STM32F4xx_StdPeriph_Driver/src/stm32f4xx_hash_sha1.c ****     SHA1_HASH_InitStructure.HASH_HMACKeyType = HASH_HMACKeyType_ShortKey;
 366              		.loc 1 199 0
 367 0074 0023     		movs	r3, #0
 368 0076 FB63     		str	r3, [r7, #60]
 369              	.L16:
 200:App/STM32F4-Discovery/Libraries/STM32F4xx_StdPeriph_Driver/src/stm32f4xx_hash_sha1.c ****   }
 201:App/STM32F4-Discovery/Libraries/STM32F4xx_StdPeriph_Driver/src/stm32f4xx_hash_sha1.c ****   HASH_Init(&SHA1_HASH_InitStructure);
 370              		.loc 1 201 0
 371 0078 07F13003 		add	r3, r7, #48
 372 007c 1846     		mov	r0, r3
 373 007e FFF7FEFF 		bl	HASH_Init
 202:App/STM32F4-Discovery/Libraries/STM32F4xx_StdPeriph_Driver/src/stm32f4xx_hash_sha1.c **** 
 203:App/STM32F4-Discovery/Libraries/STM32F4xx_StdPeriph_Driver/src/stm32f4xx_hash_sha1.c ****   /* Configure the number of valid bits in last word of the Key */
 204:App/STM32F4-Discovery/Libraries/STM32F4xx_StdPeriph_Driver/src/stm32f4xx_hash_sha1.c ****   HASH_SetLastWordValidBitsNbr(nbvalidbitskey);
 374              		.loc 1 204 0
 375 0082 3B8B     		ldrh	r3, [r7, #24]	@ movhi
 376 0084 9BB2     		uxth	r3, r3
 377 0086 1846     		mov	r0, r3
 378 0088 FFF7FEFF 		bl	HASH_SetLastWordValidBitsNbr
 205:App/STM32F4-Discovery/Libraries/STM32F4xx_StdPeriph_Driver/src/stm32f4xx_hash_sha1.c **** 
 206:App/STM32F4-Discovery/Libraries/STM32F4xx_StdPeriph_Driver/src/stm32f4xx_hash_sha1.c ****   /* Write the Key */
 207:App/STM32F4-Discovery/Libraries/STM32F4xx_StdPeriph_Driver/src/stm32f4xx_hash_sha1.c ****   for(i=0; i<Keylen; i+=4)
 379              		.loc 1 207 0
 380 008c 0023     		movs	r3, #0
 381 008e FB67     		str	r3, [r7, #124]
 382 0090 0AE0     		b	.L17
 383              	.L18:
 208:App/STM32F4-Discovery/Libraries/STM32F4xx_StdPeriph_Driver/src/stm32f4xx_hash_sha1.c ****   {
 209:App/STM32F4-Discovery/Libraries/STM32F4xx_StdPeriph_Driver/src/stm32f4xx_hash_sha1.c ****     HASH_DataIn(*(uint32_t*)keyaddr);
 384              		.loc 1 209 0 discriminator 2
 385 0092 7B6F     		ldr	r3, [r7, #116]
 386 0094 1B68     		ldr	r3, [r3]
 387 0096 1846     		mov	r0, r3
 388 0098 FFF7FEFF 		bl	HASH_DataIn
 210:App/STM32F4-Discovery/Libraries/STM32F4xx_StdPeriph_Driver/src/stm32f4xx_hash_sha1.c ****     keyaddr+=4;
 389              		.loc 1 210 0 discriminator 2
 390 009c 7B6F     		ldr	r3, [r7, #116]
 391 009e 0433     		adds	r3, r3, #4
 392 00a0 7B67     		str	r3, [r7, #116]
 207:App/STM32F4-Discovery/Libraries/STM32F4xx_StdPeriph_Driver/src/stm32f4xx_hash_sha1.c ****   for(i=0; i<Keylen; i+=4)
 393              		.loc 1 207 0 discriminator 2
 394 00a2 FB6F     		ldr	r3, [r7, #124]
 395 00a4 0433     		adds	r3, r3, #4
 396 00a6 FB67     		str	r3, [r7, #124]
 397              	.L17:
 207:App/STM32F4-Discovery/Libraries/STM32F4xx_StdPeriph_Driver/src/stm32f4xx_hash_sha1.c ****   for(i=0; i<Keylen; i+=4)
 398              		.loc 1 207 0 is_stmt 0 discriminator 1
 399 00a8 FA6F     		ldr	r2, [r7, #124]
 400 00aa BB68     		ldr	r3, [r7, #8]
 401 00ac 9A42     		cmp	r2, r3
 402 00ae F0D3     		bcc	.L18
 211:App/STM32F4-Discovery/Libraries/STM32F4xx_StdPeriph_Driver/src/stm32f4xx_hash_sha1.c ****   }
 212:App/STM32F4-Discovery/Libraries/STM32F4xx_StdPeriph_Driver/src/stm32f4xx_hash_sha1.c **** 
 213:App/STM32F4-Discovery/Libraries/STM32F4xx_StdPeriph_Driver/src/stm32f4xx_hash_sha1.c ****   /* Start the HASH processor */
 214:App/STM32F4-Discovery/Libraries/STM32F4xx_StdPeriph_Driver/src/stm32f4xx_hash_sha1.c ****   HASH_StartDigest();
 403              		.loc 1 214 0 is_stmt 1
 404 00b0 FFF7FEFF 		bl	HASH_StartDigest
 405              	.L20:
 215:App/STM32F4-Discovery/Libraries/STM32F4xx_StdPeriph_Driver/src/stm32f4xx_hash_sha1.c **** 
 216:App/STM32F4-Discovery/Libraries/STM32F4xx_StdPeriph_Driver/src/stm32f4xx_hash_sha1.c ****   /* wait until the Busy flag is RESET */
 217:App/STM32F4-Discovery/Libraries/STM32F4xx_StdPeriph_Driver/src/stm32f4xx_hash_sha1.c ****   do
 218:App/STM32F4-Discovery/Libraries/STM32F4xx_StdPeriph_Driver/src/stm32f4xx_hash_sha1.c ****   {
 219:App/STM32F4-Discovery/Libraries/STM32F4xx_StdPeriph_Driver/src/stm32f4xx_hash_sha1.c ****     busystatus = HASH_GetFlagStatus(HASH_FLAG_BUSY);
 406              		.loc 1 219 0 discriminator 1
 407 00b4 0820     		movs	r0, #8
 408 00b6 FFF7FEFF 		bl	HASH_GetFlagStatus
 409 00ba 0346     		mov	r3, r0
 410 00bc FB66     		str	r3, [r7, #108]
 220:App/STM32F4-Discovery/Libraries/STM32F4xx_StdPeriph_Driver/src/stm32f4xx_hash_sha1.c ****     counter++;
 411              		.loc 1 220 0 discriminator 1
 412 00be 7B69     		ldr	r3, [r7, #20]
 413 00c0 0133     		adds	r3, r3, #1
 414 00c2 7B61     		str	r3, [r7, #20]
 221:App/STM32F4-Discovery/Libraries/STM32F4xx_StdPeriph_Driver/src/stm32f4xx_hash_sha1.c ****   }while ((counter != SHA1BUSY_TIMEOUT) && (busystatus != RESET));
 415              		.loc 1 221 0 discriminator 1
 416 00c4 7B69     		ldr	r3, [r7, #20]
 417 00c6 B3F5803F 		cmp	r3, #65536
 418 00ca 02D0     		beq	.L19
 419 00cc FB6E     		ldr	r3, [r7, #108]
 420 00ce 002B     		cmp	r3, #0
 421 00d0 F0D1     		bne	.L20
 422              	.L19:
 222:App/STM32F4-Discovery/Libraries/STM32F4xx_StdPeriph_Driver/src/stm32f4xx_hash_sha1.c **** 
 223:App/STM32F4-Discovery/Libraries/STM32F4xx_StdPeriph_Driver/src/stm32f4xx_hash_sha1.c ****   if (busystatus != RESET)
 423              		.loc 1 223 0
 424 00d2 FB6E     		ldr	r3, [r7, #108]
 425 00d4 002B     		cmp	r3, #0
 426 00d6 03D0     		beq	.L21
 224:App/STM32F4-Discovery/Libraries/STM32F4xx_StdPeriph_Driver/src/stm32f4xx_hash_sha1.c ****   {
 225:App/STM32F4-Discovery/Libraries/STM32F4xx_StdPeriph_Driver/src/stm32f4xx_hash_sha1.c ****      status = ERROR;
 427              		.loc 1 225 0
 428 00d8 0023     		movs	r3, #0
 429 00da 87F87B30 		strb	r3, [r7, #123]
 430 00de 9CE0     		b	.L22
 431              	.L21:
 226:App/STM32F4-Discovery/Libraries/STM32F4xx_StdPeriph_Driver/src/stm32f4xx_hash_sha1.c ****   }
 227:App/STM32F4-Discovery/Libraries/STM32F4xx_StdPeriph_Driver/src/stm32f4xx_hash_sha1.c ****   else
 228:App/STM32F4-Discovery/Libraries/STM32F4xx_StdPeriph_Driver/src/stm32f4xx_hash_sha1.c ****   {
 229:App/STM32F4-Discovery/Libraries/STM32F4xx_StdPeriph_Driver/src/stm32f4xx_hash_sha1.c ****     /* Configure the number of valid bits in last word of the Input data */
 230:App/STM32F4-Discovery/Libraries/STM32F4xx_StdPeriph_Driver/src/stm32f4xx_hash_sha1.c ****     HASH_SetLastWordValidBitsNbr(nbvalidbitsdata);
 432              		.loc 1 230 0
 433 00e0 7B8B     		ldrh	r3, [r7, #26]	@ movhi
 434 00e2 9BB2     		uxth	r3, r3
 435 00e4 1846     		mov	r0, r3
 436 00e6 FFF7FEFF 		bl	HASH_SetLastWordValidBitsNbr
 231:App/STM32F4-Discovery/Libraries/STM32F4xx_StdPeriph_Driver/src/stm32f4xx_hash_sha1.c **** 
 232:App/STM32F4-Discovery/Libraries/STM32F4xx_StdPeriph_Driver/src/stm32f4xx_hash_sha1.c ****     /* Write the Input block in the IN FIFO */
 233:App/STM32F4-Discovery/Libraries/STM32F4xx_StdPeriph_Driver/src/stm32f4xx_hash_sha1.c ****     for(i=0; i<Ilen; i+=4)
 437              		.loc 1 233 0
 438 00ea 0023     		movs	r3, #0
 439 00ec FB67     		str	r3, [r7, #124]
 440 00ee 0AE0     		b	.L23
 441              	.L24:
 234:App/STM32F4-Discovery/Libraries/STM32F4xx_StdPeriph_Driver/src/stm32f4xx_hash_sha1.c ****     {
 235:App/STM32F4-Discovery/Libraries/STM32F4xx_StdPeriph_Driver/src/stm32f4xx_hash_sha1.c ****       HASH_DataIn(*(uint32_t*)inputaddr);
 442              		.loc 1 235 0 discriminator 2
 443 00f0 3B6F     		ldr	r3, [r7, #112]
 444 00f2 1B68     		ldr	r3, [r3]
 445 00f4 1846     		mov	r0, r3
 446 00f6 FFF7FEFF 		bl	HASH_DataIn
 236:App/STM32F4-Discovery/Libraries/STM32F4xx_StdPeriph_Driver/src/stm32f4xx_hash_sha1.c ****       inputaddr+=4;
 447              		.loc 1 236 0 discriminator 2
 448 00fa 3B6F     		ldr	r3, [r7, #112]
 449 00fc 0433     		adds	r3, r3, #4
 450 00fe 3B67     		str	r3, [r7, #112]
 233:App/STM32F4-Discovery/Libraries/STM32F4xx_StdPeriph_Driver/src/stm32f4xx_hash_sha1.c ****     for(i=0; i<Ilen; i+=4)
 451              		.loc 1 233 0 discriminator 2
 452 0100 FB6F     		ldr	r3, [r7, #124]
 453 0102 0433     		adds	r3, r3, #4
 454 0104 FB67     		str	r3, [r7, #124]
 455              	.L23:
 233:App/STM32F4-Discovery/Libraries/STM32F4xx_StdPeriph_Driver/src/stm32f4xx_hash_sha1.c ****     for(i=0; i<Ilen; i+=4)
 456              		.loc 1 233 0 is_stmt 0 discriminator 1
 457 0106 FA6F     		ldr	r2, [r7, #124]
 458 0108 3B68     		ldr	r3, [r7]
 459 010a 9A42     		cmp	r2, r3
 460 010c F0D3     		bcc	.L24
 237:App/STM32F4-Discovery/Libraries/STM32F4xx_StdPeriph_Driver/src/stm32f4xx_hash_sha1.c ****     }
 238:App/STM32F4-Discovery/Libraries/STM32F4xx_StdPeriph_Driver/src/stm32f4xx_hash_sha1.c **** 
 239:App/STM32F4-Discovery/Libraries/STM32F4xx_StdPeriph_Driver/src/stm32f4xx_hash_sha1.c ****     /* Start the HASH processor */
 240:App/STM32F4-Discovery/Libraries/STM32F4xx_StdPeriph_Driver/src/stm32f4xx_hash_sha1.c ****     HASH_StartDigest();
 461              		.loc 1 240 0 is_stmt 1
 462 010e FFF7FEFF 		bl	HASH_StartDigest
 241:App/STM32F4-Discovery/Libraries/STM32F4xx_StdPeriph_Driver/src/stm32f4xx_hash_sha1.c **** 
 242:App/STM32F4-Discovery/Libraries/STM32F4xx_StdPeriph_Driver/src/stm32f4xx_hash_sha1.c **** 
 243:App/STM32F4-Discovery/Libraries/STM32F4xx_StdPeriph_Driver/src/stm32f4xx_hash_sha1.c ****     /* wait until the Busy flag is RESET */
 244:App/STM32F4-Discovery/Libraries/STM32F4xx_StdPeriph_Driver/src/stm32f4xx_hash_sha1.c ****     counter =0;
 463              		.loc 1 244 0
 464 0112 0023     		movs	r3, #0
 465 0114 7B61     		str	r3, [r7, #20]
 466              	.L26:
 245:App/STM32F4-Discovery/Libraries/STM32F4xx_StdPeriph_Driver/src/stm32f4xx_hash_sha1.c ****     do
 246:App/STM32F4-Discovery/Libraries/STM32F4xx_StdPeriph_Driver/src/stm32f4xx_hash_sha1.c ****     {
 247:App/STM32F4-Discovery/Libraries/STM32F4xx_StdPeriph_Driver/src/stm32f4xx_hash_sha1.c ****       busystatus = HASH_GetFlagStatus(HASH_FLAG_BUSY);
 467              		.loc 1 247 0 discriminator 1
 468 0116 0820     		movs	r0, #8
 469 0118 FFF7FEFF 		bl	HASH_GetFlagStatus
 470 011c 0346     		mov	r3, r0
 471 011e FB66     		str	r3, [r7, #108]
 248:App/STM32F4-Discovery/Libraries/STM32F4xx_StdPeriph_Driver/src/stm32f4xx_hash_sha1.c ****       counter++;
 472              		.loc 1 248 0 discriminator 1
 473 0120 7B69     		ldr	r3, [r7, #20]
 474 0122 0133     		adds	r3, r3, #1
 475 0124 7B61     		str	r3, [r7, #20]
 249:App/STM32F4-Discovery/Libraries/STM32F4xx_StdPeriph_Driver/src/stm32f4xx_hash_sha1.c ****     }while ((counter != SHA1BUSY_TIMEOUT) && (busystatus != RESET));
 476              		.loc 1 249 0 discriminator 1
 477 0126 7B69     		ldr	r3, [r7, #20]
 478 0128 B3F5803F 		cmp	r3, #65536
 479 012c 02D0     		beq	.L25
 480 012e FB6E     		ldr	r3, [r7, #108]
 481 0130 002B     		cmp	r3, #0
 482 0132 F0D1     		bne	.L26
 483              	.L25:
 250:App/STM32F4-Discovery/Libraries/STM32F4xx_StdPeriph_Driver/src/stm32f4xx_hash_sha1.c **** 
 251:App/STM32F4-Discovery/Libraries/STM32F4xx_StdPeriph_Driver/src/stm32f4xx_hash_sha1.c ****     if (busystatus != RESET)
 484              		.loc 1 251 0
 485 0134 FB6E     		ldr	r3, [r7, #108]
 486 0136 002B     		cmp	r3, #0
 487 0138 03D0     		beq	.L27
 252:App/STM32F4-Discovery/Libraries/STM32F4xx_StdPeriph_Driver/src/stm32f4xx_hash_sha1.c ****     {
 253:App/STM32F4-Discovery/Libraries/STM32F4xx_StdPeriph_Driver/src/stm32f4xx_hash_sha1.c ****       status = ERROR;
 488              		.loc 1 253 0
 489 013a 0023     		movs	r3, #0
 490 013c 87F87B30 		strb	r3, [r7, #123]
 491 0140 6BE0     		b	.L22
 492              	.L27:
 254:App/STM32F4-Discovery/Libraries/STM32F4xx_StdPeriph_Driver/src/stm32f4xx_hash_sha1.c ****     }
 255:App/STM32F4-Discovery/Libraries/STM32F4xx_StdPeriph_Driver/src/stm32f4xx_hash_sha1.c ****     else
 256:App/STM32F4-Discovery/Libraries/STM32F4xx_StdPeriph_Driver/src/stm32f4xx_hash_sha1.c ****     {  
 257:App/STM32F4-Discovery/Libraries/STM32F4xx_StdPeriph_Driver/src/stm32f4xx_hash_sha1.c ****       /* Configure the number of valid bits in last word of the Key */
 258:App/STM32F4-Discovery/Libraries/STM32F4xx_StdPeriph_Driver/src/stm32f4xx_hash_sha1.c ****       HASH_SetLastWordValidBitsNbr(nbvalidbitskey);
 493              		.loc 1 258 0
 494 0142 3B8B     		ldrh	r3, [r7, #24]	@ movhi
 495 0144 9BB2     		uxth	r3, r3
 496 0146 1846     		mov	r0, r3
 497 0148 FFF7FEFF 		bl	HASH_SetLastWordValidBitsNbr
 259:App/STM32F4-Discovery/Libraries/STM32F4xx_StdPeriph_Driver/src/stm32f4xx_hash_sha1.c **** 
 260:App/STM32F4-Discovery/Libraries/STM32F4xx_StdPeriph_Driver/src/stm32f4xx_hash_sha1.c ****       /* Write the Key */
 261:App/STM32F4-Discovery/Libraries/STM32F4xx_StdPeriph_Driver/src/stm32f4xx_hash_sha1.c ****       keyaddr = (uint32_t)Key;
 498              		.loc 1 261 0
 499 014c FB68     		ldr	r3, [r7, #12]
 500 014e 7B67     		str	r3, [r7, #116]
 262:App/STM32F4-Discovery/Libraries/STM32F4xx_StdPeriph_Driver/src/stm32f4xx_hash_sha1.c ****       for(i=0; i<Keylen; i+=4)
 501              		.loc 1 262 0
 502 0150 0023     		movs	r3, #0
 503 0152 FB67     		str	r3, [r7, #124]
 504 0154 0AE0     		b	.L28
 505              	.L29:
 263:App/STM32F4-Discovery/Libraries/STM32F4xx_StdPeriph_Driver/src/stm32f4xx_hash_sha1.c ****       {
 264:App/STM32F4-Discovery/Libraries/STM32F4xx_StdPeriph_Driver/src/stm32f4xx_hash_sha1.c ****         HASH_DataIn(*(uint32_t*)keyaddr);
 506              		.loc 1 264 0 discriminator 2
 507 0156 7B6F     		ldr	r3, [r7, #116]
 508 0158 1B68     		ldr	r3, [r3]
 509 015a 1846     		mov	r0, r3
 510 015c FFF7FEFF 		bl	HASH_DataIn
 265:App/STM32F4-Discovery/Libraries/STM32F4xx_StdPeriph_Driver/src/stm32f4xx_hash_sha1.c ****         keyaddr+=4;
 511              		.loc 1 265 0 discriminator 2
 512 0160 7B6F     		ldr	r3, [r7, #116]
 513 0162 0433     		adds	r3, r3, #4
 514 0164 7B67     		str	r3, [r7, #116]
 262:App/STM32F4-Discovery/Libraries/STM32F4xx_StdPeriph_Driver/src/stm32f4xx_hash_sha1.c ****       for(i=0; i<Keylen; i+=4)
 515              		.loc 1 262 0 discriminator 2
 516 0166 FB6F     		ldr	r3, [r7, #124]
 517 0168 0433     		adds	r3, r3, #4
 518 016a FB67     		str	r3, [r7, #124]
 519              	.L28:
 262:App/STM32F4-Discovery/Libraries/STM32F4xx_StdPeriph_Driver/src/stm32f4xx_hash_sha1.c ****       for(i=0; i<Keylen; i+=4)
 520              		.loc 1 262 0 is_stmt 0 discriminator 1
 521 016c FA6F     		ldr	r2, [r7, #124]
 522 016e BB68     		ldr	r3, [r7, #8]
 523 0170 9A42     		cmp	r2, r3
 524 0172 F0D3     		bcc	.L29
 266:App/STM32F4-Discovery/Libraries/STM32F4xx_StdPeriph_Driver/src/stm32f4xx_hash_sha1.c ****       }
 267:App/STM32F4-Discovery/Libraries/STM32F4xx_StdPeriph_Driver/src/stm32f4xx_hash_sha1.c **** 
 268:App/STM32F4-Discovery/Libraries/STM32F4xx_StdPeriph_Driver/src/stm32f4xx_hash_sha1.c ****       /* Start the HASH processor */
 269:App/STM32F4-Discovery/Libraries/STM32F4xx_StdPeriph_Driver/src/stm32f4xx_hash_sha1.c ****       HASH_StartDigest();
 525              		.loc 1 269 0 is_stmt 1
 526 0174 FFF7FEFF 		bl	HASH_StartDigest
 270:App/STM32F4-Discovery/Libraries/STM32F4xx_StdPeriph_Driver/src/stm32f4xx_hash_sha1.c **** 
 271:App/STM32F4-Discovery/Libraries/STM32F4xx_StdPeriph_Driver/src/stm32f4xx_hash_sha1.c ****       /* wait until the Busy flag is RESET */
 272:App/STM32F4-Discovery/Libraries/STM32F4xx_StdPeriph_Driver/src/stm32f4xx_hash_sha1.c ****       counter =0;
 527              		.loc 1 272 0
 528 0178 0023     		movs	r3, #0
 529 017a 7B61     		str	r3, [r7, #20]
 530              	.L31:
 273:App/STM32F4-Discovery/Libraries/STM32F4xx_StdPeriph_Driver/src/stm32f4xx_hash_sha1.c ****       do
 274:App/STM32F4-Discovery/Libraries/STM32F4xx_StdPeriph_Driver/src/stm32f4xx_hash_sha1.c ****       {
 275:App/STM32F4-Discovery/Libraries/STM32F4xx_StdPeriph_Driver/src/stm32f4xx_hash_sha1.c ****         busystatus = HASH_GetFlagStatus(HASH_FLAG_BUSY);
 531              		.loc 1 275 0 discriminator 1
 532 017c 0820     		movs	r0, #8
 533 017e FFF7FEFF 		bl	HASH_GetFlagStatus
 534 0182 0346     		mov	r3, r0
 535 0184 FB66     		str	r3, [r7, #108]
 276:App/STM32F4-Discovery/Libraries/STM32F4xx_StdPeriph_Driver/src/stm32f4xx_hash_sha1.c ****         counter++;
 536              		.loc 1 276 0 discriminator 1
 537 0186 7B69     		ldr	r3, [r7, #20]
 538 0188 0133     		adds	r3, r3, #1
 539 018a 7B61     		str	r3, [r7, #20]
 277:App/STM32F4-Discovery/Libraries/STM32F4xx_StdPeriph_Driver/src/stm32f4xx_hash_sha1.c ****       }while ((counter != SHA1BUSY_TIMEOUT) && (busystatus != RESET));
 540              		.loc 1 277 0 discriminator 1
 541 018c 7B69     		ldr	r3, [r7, #20]
 542 018e B3F5803F 		cmp	r3, #65536
 543 0192 02D0     		beq	.L30
 544 0194 FB6E     		ldr	r3, [r7, #108]
 545 0196 002B     		cmp	r3, #0
 546 0198 F0D1     		bne	.L31
 547              	.L30:
 278:App/STM32F4-Discovery/Libraries/STM32F4xx_StdPeriph_Driver/src/stm32f4xx_hash_sha1.c **** 
 279:App/STM32F4-Discovery/Libraries/STM32F4xx_StdPeriph_Driver/src/stm32f4xx_hash_sha1.c ****       if (busystatus != RESET)
 548              		.loc 1 279 0
 549 019a FB6E     		ldr	r3, [r7, #108]
 550 019c 002B     		cmp	r3, #0
 551 019e 03D0     		beq	.L32
 280:App/STM32F4-Discovery/Libraries/STM32F4xx_StdPeriph_Driver/src/stm32f4xx_hash_sha1.c ****       {
 281:App/STM32F4-Discovery/Libraries/STM32F4xx_StdPeriph_Driver/src/stm32f4xx_hash_sha1.c ****         status = ERROR;
 552              		.loc 1 281 0
 553 01a0 0023     		movs	r3, #0
 554 01a2 87F87B30 		strb	r3, [r7, #123]
 555 01a6 38E0     		b	.L22
 556              	.L32:
 282:App/STM32F4-Discovery/Libraries/STM32F4xx_StdPeriph_Driver/src/stm32f4xx_hash_sha1.c ****       }
 283:App/STM32F4-Discovery/Libraries/STM32F4xx_StdPeriph_Driver/src/stm32f4xx_hash_sha1.c ****       else
 284:App/STM32F4-Discovery/Libraries/STM32F4xx_StdPeriph_Driver/src/stm32f4xx_hash_sha1.c ****       {
 285:App/STM32F4-Discovery/Libraries/STM32F4xx_StdPeriph_Driver/src/stm32f4xx_hash_sha1.c ****         /* Read the message digest */
 286:App/STM32F4-Discovery/Libraries/STM32F4xx_StdPeriph_Driver/src/stm32f4xx_hash_sha1.c ****         HASH_GetDigest(&SHA1_MessageDigest);
 557              		.loc 1 286 0
 558 01a8 07F11C03 		add	r3, r7, #28
 559 01ac 1846     		mov	r0, r3
 560 01ae FFF7FEFF 		bl	HASH_GetDigest
 287:App/STM32F4-Discovery/Libraries/STM32F4xx_StdPeriph_Driver/src/stm32f4xx_hash_sha1.c ****         *(uint32_t*)(outputaddr)  = __REV(SHA1_MessageDigest.Data[0]);
 561              		.loc 1 287 0
 562 01b2 BB6E     		ldr	r3, [r7, #104]
 563 01b4 FA69     		ldr	r2, [r7, #28]
 564 01b6 7A66     		str	r2, [r7, #100]
 565              	.LBB32:
 566              	.LBB33:
 352:App/STM32F4-Discovery/Libraries/CMSIS/Include/core_cmInstr.h ****   __ASM volatile ("rev %0, %1" : "=r" (result) : "r" (value) );
 567              		.loc 2 352 0
 568 01b8 7A6E     		ldr	r2, [r7, #100]
 569              	@ 352 "App/STM32F4-Discovery/Libraries/CMSIS/Include/core_cmInstr.h" 1
 570 01ba 12BA     		rev r2, r2
 571              	@ 0 "" 2
 572              		.thumb
 573 01bc 3A66     		str	r2, [r7, #96]
 574              		.loc 2 353 0
 575 01be 3A6E     		ldr	r2, [r7, #96]
 576              	.LBE33:
 577              	.LBE32:
 578              		.loc 1 287 0
 579 01c0 1A60     		str	r2, [r3]
 288:App/STM32F4-Discovery/Libraries/STM32F4xx_StdPeriph_Driver/src/stm32f4xx_hash_sha1.c ****         outputaddr+=4;
 580              		.loc 1 288 0
 581 01c2 BB6E     		ldr	r3, [r7, #104]
 582 01c4 0433     		adds	r3, r3, #4
 583 01c6 BB66     		str	r3, [r7, #104]
 289:App/STM32F4-Discovery/Libraries/STM32F4xx_StdPeriph_Driver/src/stm32f4xx_hash_sha1.c ****         *(uint32_t*)(outputaddr)  = __REV(SHA1_MessageDigest.Data[1]);
 584              		.loc 1 289 0
 585 01c8 BB6E     		ldr	r3, [r7, #104]
 586 01ca 3A6A     		ldr	r2, [r7, #32]
 587 01cc FA65     		str	r2, [r7, #92]
 588              	.LBB34:
 589              	.LBB35:
 352:App/STM32F4-Discovery/Libraries/CMSIS/Include/core_cmInstr.h ****   __ASM volatile ("rev %0, %1" : "=r" (result) : "r" (value) );
 590              		.loc 2 352 0
 591 01ce FA6D     		ldr	r2, [r7, #92]
 592              	@ 352 "App/STM32F4-Discovery/Libraries/CMSIS/Include/core_cmInstr.h" 1
 593 01d0 12BA     		rev r2, r2
 594              	@ 0 "" 2
 595              		.thumb
 596 01d2 BA65     		str	r2, [r7, #88]
 597              		.loc 2 353 0
 598 01d4 BA6D     		ldr	r2, [r7, #88]
 599              	.LBE35:
 600              	.LBE34:
 601              		.loc 1 289 0
 602 01d6 1A60     		str	r2, [r3]
 290:App/STM32F4-Discovery/Libraries/STM32F4xx_StdPeriph_Driver/src/stm32f4xx_hash_sha1.c ****         outputaddr+=4;
 603              		.loc 1 290 0
 604 01d8 BB6E     		ldr	r3, [r7, #104]
 605 01da 0433     		adds	r3, r3, #4
 606 01dc BB66     		str	r3, [r7, #104]
 291:App/STM32F4-Discovery/Libraries/STM32F4xx_StdPeriph_Driver/src/stm32f4xx_hash_sha1.c ****         *(uint32_t*)(outputaddr)  = __REV(SHA1_MessageDigest.Data[2]);
 607              		.loc 1 291 0
 608 01de BB6E     		ldr	r3, [r7, #104]
 609 01e0 7A6A     		ldr	r2, [r7, #36]
 610 01e2 7A65     		str	r2, [r7, #84]
 611              	.LBB36:
 612              	.LBB37:
 352:App/STM32F4-Discovery/Libraries/CMSIS/Include/core_cmInstr.h ****   __ASM volatile ("rev %0, %1" : "=r" (result) : "r" (value) );
 613              		.loc 2 352 0
 614 01e4 7A6D     		ldr	r2, [r7, #84]
 615              	@ 352 "App/STM32F4-Discovery/Libraries/CMSIS/Include/core_cmInstr.h" 1
 616 01e6 12BA     		rev r2, r2
 617              	@ 0 "" 2
 618              		.thumb
 619 01e8 3A65     		str	r2, [r7, #80]
 620              		.loc 2 353 0
 621 01ea 3A6D     		ldr	r2, [r7, #80]
 622              	.LBE37:
 623              	.LBE36:
 624              		.loc 1 291 0
 625 01ec 1A60     		str	r2, [r3]
 292:App/STM32F4-Discovery/Libraries/STM32F4xx_StdPeriph_Driver/src/stm32f4xx_hash_sha1.c ****         outputaddr+=4;
 626              		.loc 1 292 0
 627 01ee BB6E     		ldr	r3, [r7, #104]
 628 01f0 0433     		adds	r3, r3, #4
 629 01f2 BB66     		str	r3, [r7, #104]
 293:App/STM32F4-Discovery/Libraries/STM32F4xx_StdPeriph_Driver/src/stm32f4xx_hash_sha1.c ****         *(uint32_t*)(outputaddr)  = __REV(SHA1_MessageDigest.Data[3]);
 630              		.loc 1 293 0
 631 01f4 BB6E     		ldr	r3, [r7, #104]
 632 01f6 BA6A     		ldr	r2, [r7, #40]
 633 01f8 FA64     		str	r2, [r7, #76]
 634              	.LBB38:
 635              	.LBB39:
 352:App/STM32F4-Discovery/Libraries/CMSIS/Include/core_cmInstr.h ****   __ASM volatile ("rev %0, %1" : "=r" (result) : "r" (value) );
 636              		.loc 2 352 0
 637 01fa FA6C     		ldr	r2, [r7, #76]
 638              	@ 352 "App/STM32F4-Discovery/Libraries/CMSIS/Include/core_cmInstr.h" 1
 639 01fc 12BA     		rev r2, r2
 640              	@ 0 "" 2
 641              		.thumb
 642 01fe BA64     		str	r2, [r7, #72]
 643              		.loc 2 353 0
 644 0200 BA6C     		ldr	r2, [r7, #72]
 645              	.LBE39:
 646              	.LBE38:
 647              		.loc 1 293 0
 648 0202 1A60     		str	r2, [r3]
 294:App/STM32F4-Discovery/Libraries/STM32F4xx_StdPeriph_Driver/src/stm32f4xx_hash_sha1.c ****         outputaddr+=4;
 649              		.loc 1 294 0
 650 0204 BB6E     		ldr	r3, [r7, #104]
 651 0206 0433     		adds	r3, r3, #4
 652 0208 BB66     		str	r3, [r7, #104]
 295:App/STM32F4-Discovery/Libraries/STM32F4xx_StdPeriph_Driver/src/stm32f4xx_hash_sha1.c ****         *(uint32_t*)(outputaddr)  = __REV(SHA1_MessageDigest.Data[4]);
 653              		.loc 1 295 0
 654 020a BB6E     		ldr	r3, [r7, #104]
 655 020c FA6A     		ldr	r2, [r7, #44]
 656 020e 7A64     		str	r2, [r7, #68]
 657              	.LBB40:
 658              	.LBB41:
 352:App/STM32F4-Discovery/Libraries/CMSIS/Include/core_cmInstr.h ****   __ASM volatile ("rev %0, %1" : "=r" (result) : "r" (value) );
 659              		.loc 2 352 0
 660 0210 7A6C     		ldr	r2, [r7, #68]
 661              	@ 352 "App/STM32F4-Discovery/Libraries/CMSIS/Include/core_cmInstr.h" 1
 662 0212 12BA     		rev r2, r2
 663              	@ 0 "" 2
 664              		.thumb
 665 0214 3A64     		str	r2, [r7, #64]
 666              		.loc 2 353 0
 667 0216 3A6C     		ldr	r2, [r7, #64]
 668              	.LBE41:
 669              	.LBE40:
 670              		.loc 1 295 0
 671 0218 1A60     		str	r2, [r3]
 672              	.L22:
 296:App/STM32F4-Discovery/Libraries/STM32F4xx_StdPeriph_Driver/src/stm32f4xx_hash_sha1.c ****       }
 297:App/STM32F4-Discovery/Libraries/STM32F4xx_StdPeriph_Driver/src/stm32f4xx_hash_sha1.c ****     }  
 298:App/STM32F4-Discovery/Libraries/STM32F4xx_StdPeriph_Driver/src/stm32f4xx_hash_sha1.c ****   }
 299:App/STM32F4-Discovery/Libraries/STM32F4xx_StdPeriph_Driver/src/stm32f4xx_hash_sha1.c ****   return status;  
 673              		.loc 1 299 0
 674 021a 97F87B30 		ldrb	r3, [r7, #123]	@ zero_extendqisi2
 300:App/STM32F4-Discovery/Libraries/STM32F4xx_StdPeriph_Driver/src/stm32f4xx_hash_sha1.c **** }
 675              		.loc 1 300 0
 676 021e 1846     		mov	r0, r3
 677 0220 8037     		adds	r7, r7, #128
 678 0222 BD46     		mov	sp, r7
 679              		@ sp needed
 680 0224 80BD     		pop	{r7, pc}
 681              		.cfi_endproc
 682              	.LFE111:
 684 0226 00BF     		.text
 685              	.Letext0:
 686              		.file 3 "/home/shihyu/data/STM32F4/gcc-arm-none-eabi-4_8-2013q4/arm-none-eabi/include/stdint.h"
 687              		.file 4 "App/STM32F4-Discovery/Libraries/CMSIS/ST/STM32F4xx/Include/stm32f4xx.h"
 688              		.file 5 "App/STM32F4-Discovery/Libraries/STM32F4xx_StdPeriph_Driver/inc/stm32f4xx_hash.h"
 689              		.file 6 "App/STM32F4-Discovery/Libraries/CMSIS/Include/core_cm4.h"